	.section	__TEXT,__text,regular,pure_instructions
	.macosx_version_min 10, 7
	.globl	__ZN10num_traits3pow11checked_pow17h16b921f847fe9f4eE
	.p2align	4, 0x90
__ZN10num_traits3pow11checked_pow17h16b921f847fe9f4eE:
Lfunc_begin0:
	.file	1 "/Users/natalie/.cargo/registry/src/github.com-1ecc6299db9ec823/num-traits-0.2.15/src" "pow.rs"
	.loc	1 230 0
	.cfi_startproc
	.cfi_personality 155, _rust_eh_personality
	.cfi_lsda 16, Lexception0
	pushq	%rbp
	.cfi_def_cfa_offset 16
	.cfi_offset %rbp, -16
	movq	%rsp, %rbp
	.cfi_def_cfa_register %rbp
	subq	$256, %rsp
	movq	%rdi, -144(%rbp)
	movq	%rsi, -136(%rbp)
Ltmp10:
	.loc	1 231 5 prologue_end
	movb	$0, -49(%rbp)
	movb	$1, -49(%rbp)
	.loc	1 231 8 is_stmt 0
	cmpq	$0, -136(%rbp)
	jne	LBB0_2
Ltmp7:
	.loc	1 232 21 is_stmt 1
	callq	__ZN53_$LT$usize$u20$as$u20$num_traits..identities..One$GT$3one17h0bc2e423408036d5E
Ltmp8:
	movq	%rax, -152(%rbp)
	jmp	LBB0_33
LBB0_2:
	.loc	1 245 11
	movq	-136(%rbp), %rax
	andq	$1, %rax
	cmpq	$0, %rax
	jne	LBB0_4
Ltmp5:
	.loc	1 0 11 is_stmt 0
	leaq	-144(%rbp), %rsi
Ltmp11:
	.loc	1 246 23 is_stmt 1
	movq	%rsi, %rdi
	callq	__ZN62_$LT$usize$u20$as$u20$num_traits..ops..checked..CheckedMul$GT$11checked_mul17h563b8e524064c187E
Ltmp6:
	movq	%rdx, -168(%rbp)
	movq	%rax, -160(%rbp)
	jmp	LBB0_28
Ltmp12:
LBB0_4:
	.loc	1 249 8
	cmpq	$1, -136(%rbp)
	jne	LBB0_6
	.loc	1 250 21
	movb	$0, -49(%rbp)
	movq	-144(%rbp), %rax
	.loc	1 250 16 is_stmt 0
	movq	%rax, -120(%rbp)
	movq	$1, -128(%rbp)
	.file	2 "/Users/natalie/.cargo/registry/src/github.com-1ecc6299db9ec823/num-integer-0.1.45" "src/lib.rs"
	.loc	2 1 1 is_stmt 1
	jmp	LBB0_25
LBB0_6:
	.loc	2 0 1 is_stmt 0
	leaq	-144(%rbp), %rax
	movq	%rax, -8(%rbp)
Ltmp13:
	.file	3 "/rustc/2c8cc343237b8f7d5a3c3703e3a87f2eb2c54a74/library/core/src" "clone.rs"
	.loc	3 189 25 is_stmt 1
	movq	-144(%rbp), %rax
	movq	%rax, -176(%rbp)
	.loc	3 190 22
	jmp	LBB0_9
Ltmp14:
LBB0_7:
	.loc	1 230 1
	movq	-48(%rbp), %rdi
	callq	__Unwind_Resume
LBB0_8:
Ltmp9:
	.loc	1 0 1 is_stmt 0
	movq	%rax, %rcx
	movl	%edx, %eax
	movq	%rcx, -48(%rbp)
	movl	%eax, -40(%rbp)
	jmp	LBB0_7
LBB0_9:
	movq	-176(%rbp), %rax
	.loc	1 253 19 is_stmt 1
	movq	%rax, -96(%rbp)
LBB0_10:
Ltmp15:
	.loc	1 254 11
	cmpq	$1, -136(%rbp)
	ja	LBB0_12
	.loc	1 261 10
	movq	-96(%rbp), %rax
	.loc	1 261 5 is_stmt 0
	movq	%rax, -120(%rbp)
	movq	$1, -128(%rbp)
Ltmp16:
	.loc	1 262 1 is_stmt 1
	jmp	LBB0_27
LBB0_12:
Ltmp17:
	.loc	1 255 9
	movq	-136(%rbp), %rax
	shrq	$1, %rax
	movq	%rax, -184(%rbp)
	.loc	1 0 9 is_stmt 0
	movq	-184(%rbp), %rax
	.loc	1 255 9
	movq	%rax, -136(%rbp)
Ltmp0:
	leaq	-144(%rbp), %rsi
Ltmp18:
	.loc	1 256 23 is_stmt 1
	movq	%rsi, %rdi
	callq	__ZN62_$LT$usize$u20$as$u20$num_traits..ops..checked..CheckedMul$GT$11checked_mul17h563b8e524064c187E
Ltmp1:
	movq	%rdx, -200(%rbp)
	movq	%rax, -192(%rbp)
	jmp	LBB0_16
Ltmp19:
LBB0_14:
	.loc	1 262 1
	jmp	LBB0_7
LBB0_15:
Ltmp4:
	.loc	1 0 1 is_stmt 0
	movq	%rax, %rcx
	movl	%edx, %eax
	movq	%rcx, -48(%rbp)
	movl	%eax, -40(%rbp)
	jmp	LBB0_14
LBB0_16:
	movq	-200(%rbp), %rax
	movq	-192(%rbp), %rcx
Ltmp20:
	.loc	1 256 23 is_stmt 1
	movq	%rcx, -88(%rbp)
	movq	%rax, -80(%rbp)
	.loc	1 256 16 is_stmt 0
	cmpq	$1, -88(%rbp)
	jne	LBB0_18
	movq	-80(%rbp), %rax
	movq	%rax, -208(%rbp)
	movq	%rax, -32(%rbp)
Ltmp21:
	.loc	1 256 9
	jmp	LBB0_20
LBB0_18:
	.loc	1 256 16
	movq	$0, -128(%rbp)
Ltmp22:
LBB0_19:
	.loc	1 262 1 is_stmt 1
	jmp	LBB0_25
LBB0_20:
	.loc	1 0 1 is_stmt 0
	movq	-208(%rbp), %rax
Ltmp23:
	.loc	1 256 9 is_stmt 1
	movb	$1, -49(%rbp)
	movq	%rax, -144(%rbp)
	.loc	1 257 12
	movq	-136(%rbp), %rax
	andq	$1, %rax
	cmpq	$1, %rax
	jne	LBB0_10
Ltmp2:
	.loc	1 0 12 is_stmt 0
	leaq	-96(%rbp), %rdi
	leaq	-144(%rbp), %rsi
Ltmp24:
	.loc	1 258 26 is_stmt 1
	callq	__ZN62_$LT$usize$u20$as$u20$num_traits..ops..checked..CheckedMul$GT$11checked_mul17h563b8e524064c187E
Ltmp3:
	movq	%rdx, -224(%rbp)
	movq	%rax, -216(%rbp)
	jmp	LBB0_22
LBB0_22:
	.loc	1 0 26 is_stmt 0
	movq	-224(%rbp), %rax
	movq	-216(%rbp), %rcx
	.loc	1 258 26
	movq	%rcx, -72(%rbp)
	movq	%rax, -64(%rbp)
	.loc	1 258 19
	cmpq	$1, -72(%rbp)
	jne	LBB0_24
	movq	-64(%rbp), %rax
	movq	%rax, -232(%rbp)
	movq	%rax, -24(%rbp)
Ltmp25:
	.loc	1 258 13
	jmp	LBB0_26
LBB0_24:
	.loc	1 258 19
	movq	$0, -128(%rbp)
	.loc	1 258 49
	jmp	LBB0_19
Ltmp26:
LBB0_25:
	.loc	1 262 1 is_stmt 1
	testb	$1, -49(%rbp)
	jne	LBB0_34
	jmp	LBB0_27
LBB0_26:
	.loc	1 0 1 is_stmt 0
	movq	-232(%rbp), %rax
Ltmp27:
	.loc	1 258 13 is_stmt 1
	movq	%rax, -96(%rbp)
	.loc	1 257 9
	jmp	LBB0_10
Ltmp28:
LBB0_27:
	.loc	1 262 2
	movq	-128(%rbp), %rax
	movq	-120(%rbp), %rdx
	addq	$256, %rsp
	popq	%rbp
	retq
LBB0_28:
	.loc	1 0 2 is_stmt 0
	movq	-168(%rbp), %rax
	movq	-160(%rbp), %rcx
Ltmp29:
	.loc	1 246 23 is_stmt 1
	movq	%rcx, -112(%rbp)
	movq	%rax, -104(%rbp)
	.loc	1 246 16 is_stmt 0
	cmpq	$1, -112(%rbp)
	jne	LBB0_30
	movq	-104(%rbp), %rax
	movq	%rax, -240(%rbp)
	movq	%rax, -16(%rbp)
Ltmp30:
	.loc	1 246 9
	jmp	LBB0_31
LBB0_30:
	.loc	1 246 16
	movq	$0, -128(%rbp)
	.loc	1 246 47
	jmp	LBB0_25
LBB0_31:
	.loc	1 0 47
	movq	-240(%rbp), %rax
	.loc	1 246 9
	movb	$1, -49(%rbp)
	movq	%rax, -144(%rbp)
	.loc	1 247 9 is_stmt 1
	movq	-136(%rbp), %rax
	shrq	$1, %rax
	movq	%rax, -248(%rbp)
	.loc	1 0 9 is_stmt 0
	movq	-248(%rbp), %rax
	.loc	1 247 9
	movq	%rax, -136(%rbp)
	.loc	1 245 5 is_stmt 1
	jmp	LBB0_2
LBB0_33:
	.loc	1 0 5 is_stmt 0
	movq	-152(%rbp), %rax
	.loc	1 232 16 is_stmt 1
	movq	%rax, -120(%rbp)
	movq	$1, -128(%rbp)
	.loc	2 1 1
	jmp	LBB0_25
LBB0_34:
	.loc	1 262 1
	jmp	LBB0_27
Ltmp31:
Lfunc_end0:
	.cfi_endproc
	.section	__TEXT,__gcc_except_tab
	.p2align	2
GCC_except_table0:
Lexception0:
	.byte	255
	.byte	255
	.byte	1
	.uleb128 Lcst_end0-Lcst_begin0
Lcst_begin0:
	.uleb128 Ltmp7-Lfunc_begin0
	.uleb128 Ltmp6-Ltmp7
	.uleb128 Ltmp9-Lfunc_begin0
	.byte	0
	.uleb128 Ltmp6-Lfunc_begin0
	.uleb128 Ltmp0-Ltmp6
	.byte	0
	.byte	0
	.uleb128 Ltmp0-Lfunc_begin0
	.uleb128 Ltmp3-Ltmp0
	.uleb128 Ltmp4-Lfunc_begin0
	.byte	0
Lcst_end0:
	.p2align	2

	.section	__TEXT,__text,regular,pure_instructions
	.globl	__ZN10num_traits3pow11checked_pow17h8d00278fab77bef2E
	.p2align	4, 0x90
__ZN10num_traits3pow11checked_pow17h8d00278fab77bef2E:
Lfunc_begin1:
	.loc	1 230 0
	.cfi_startproc
	.cfi_personality 155, _rust_eh_personality
	.cfi_lsda 16, Lexception1
	pushq	%rbp
	.cfi_def_cfa_offset 16
	.cfi_offset %rbp, -16
	movq	%rsp, %rbp
	.cfi_def_cfa_register %rbp
	subq	$384, %rsp
	movq	%rdi, -216(%rbp)
	movq	%rsi, -208(%rbp)
	movq	%rdx, -200(%rbp)
Ltmp42:
	.loc	1 231 5 prologue_end
	movb	$0, -73(%rbp)
	movb	$1, -73(%rbp)
	.loc	1 231 8 is_stmt 0
	cmpq	$0, -200(%rbp)
	jne	LBB1_2
Ltmp39:
	.loc	1 232 21 is_stmt 1
	callq	__ZN52_$LT$u128$u20$as$u20$num_traits..identities..One$GT$3one17h222ad9b6b4f5566eE
Ltmp40:
	movq	%rdx, -232(%rbp)
	movq	%rax, -224(%rbp)
	jmp	LBB1_33
LBB1_2:
	.loc	1 245 11
	movq	-200(%rbp), %rax
	andq	$1, %rax
	cmpq	$0, %rax
	jne	LBB1_4
Ltmp37:
	.loc	1 0 11 is_stmt 0
	leaq	-216(%rbp), %rsi
Ltmp43:
	.loc	1 246 23 is_stmt 1
	movq	%rsi, %rdi
	callq	__ZN61_$LT$u128$u20$as$u20$num_traits..ops..checked..CheckedMul$GT$11checked_mul17hc5a391829a51000cE
Ltmp38:
	movq	%rcx, -256(%rbp)
	movq	%rdx, -248(%rbp)
	movq	%rax, -240(%rbp)
	jmp	LBB1_28
Ltmp44:
LBB1_4:
	.loc	1 249 8
	cmpq	$1, -200(%rbp)
	jne	LBB1_6
	.loc	1 250 21
	movb	$0, -73(%rbp)
	movq	-216(%rbp), %rax
	movq	-208(%rbp), %rcx
	.loc	1 250 16 is_stmt 0
	movq	%rcx, -176(%rbp)
	movq	%rax, -184(%rbp)
	movq	$1, -192(%rbp)
	.loc	2 1 1 is_stmt 1
	jmp	LBB1_25
LBB1_6:
	.loc	2 0 1 is_stmt 0
	leaq	-216(%rbp), %rax
	movq	%rax, -8(%rbp)
Ltmp45:
	.loc	3 189 25 is_stmt 1
	movq	-216(%rbp), %rax
	movq	%rax, -272(%rbp)
	movq	-208(%rbp), %rax
	movq	%rax, -264(%rbp)
	.loc	3 190 22
	jmp	LBB1_9
Ltmp46:
LBB1_7:
	.loc	1 230 1
	movq	-72(%rbp), %rdi
	callq	__Unwind_Resume
LBB1_8:
Ltmp41:
	.loc	1 0 1 is_stmt 0
	movq	%rax, %rcx
	movl	%edx, %eax
	movq	%rcx, -72(%rbp)
	movl	%eax, -64(%rbp)
	jmp	LBB1_7
LBB1_9:
	movq	-264(%rbp), %rax
	movq	-272(%rbp), %rcx
	.loc	1 253 19 is_stmt 1
	movq	%rcx, -144(%rbp)
	movq	%rax, -136(%rbp)
LBB1_10:
Ltmp47:
	.loc	1 254 11
	cmpq	$1, -200(%rbp)
	ja	LBB1_12
	.loc	1 261 10
	movq	-144(%rbp), %rax
	movq	-136(%rbp), %rcx
	.loc	1 261 5 is_stmt 0
	movq	%rcx, -176(%rbp)
	movq	%rax, -184(%rbp)
	movq	$1, -192(%rbp)
Ltmp48:
	.loc	1 262 1 is_stmt 1
	jmp	LBB1_27
LBB1_12:
Ltmp49:
	.loc	1 255 9
	movq	-200(%rbp), %rax
	shrq	$1, %rax
	movq	%rax, -280(%rbp)
	.loc	1 0 9 is_stmt 0
	movq	-280(%rbp), %rax
	.loc	1 255 9
	movq	%rax, -200(%rbp)
Ltmp32:
	leaq	-216(%rbp), %rsi
Ltmp50:
	.loc	1 256 23 is_stmt 1
	movq	%rsi, %rdi
	callq	__ZN61_$LT$u128$u20$as$u20$num_traits..ops..checked..CheckedMul$GT$11checked_mul17hc5a391829a51000cE
Ltmp33:
	movq	%rcx, -304(%rbp)
	movq	%rdx, -296(%rbp)
	movq	%rax, -288(%rbp)
	jmp	LBB1_16
Ltmp51:
LBB1_14:
	.loc	1 262 1
	jmp	LBB1_7
LBB1_15:
Ltmp36:
	.loc	1 0 1 is_stmt 0
	movq	%rax, %rcx
	movl	%edx, %eax
	movq	%rcx, -72(%rbp)
	movl	%eax, -64(%rbp)
	jmp	LBB1_14
LBB1_16:
	movq	-288(%rbp), %rax
	movq	-304(%rbp), %rcx
	movq	-296(%rbp), %rdx
Ltmp52:
	.loc	1 256 23 is_stmt 1
	movq	%rdx, -120(%rbp)
	movq	%rcx, -112(%rbp)
	movq	%rax, -128(%rbp)
	.loc	1 256 16 is_stmt 0
	cmpq	$1, -128(%rbp)
	jne	LBB1_18
	movq	-120(%rbp), %rax
	movq	%rax, -320(%rbp)
	movq	-112(%rbp), %rcx
	movq	%rcx, -312(%rbp)
	movq	%rcx, -48(%rbp)
	movq	%rax, -56(%rbp)
Ltmp53:
	.loc	1 256 9
	jmp	LBB1_20
LBB1_18:
	.loc	1 256 16
	movq	$0, -192(%rbp)
Ltmp54:
LBB1_19:
	.loc	1 262 1 is_stmt 1
	jmp	LBB1_25
LBB1_20:
	.loc	1 0 1 is_stmt 0
	movq	-312(%rbp), %rax
	movq	-320(%rbp), %rcx
Ltmp55:
	.loc	1 256 9 is_stmt 1
	movb	$1, -73(%rbp)
	movq	%rcx, -216(%rbp)
	movq	%rax, -208(%rbp)
	.loc	1 257 12
	movq	-200(%rbp), %rax
	andq	$1, %rax
	cmpq	$1, %rax
	jne	LBB1_10
Ltmp34:
	.loc	1 0 12 is_stmt 0
	leaq	-144(%rbp), %rdi
	leaq	-216(%rbp), %rsi
Ltmp56:
	.loc	1 258 26 is_stmt 1
	callq	__ZN61_$LT$u128$u20$as$u20$num_traits..ops..checked..CheckedMul$GT$11checked_mul17hc5a391829a51000cE
Ltmp35:
	movq	%rcx, -344(%rbp)
	movq	%rdx, -336(%rbp)
	movq	%rax, -328(%rbp)
	jmp	LBB1_22
LBB1_22:
	.loc	1 0 26 is_stmt 0
	movq	-328(%rbp), %rax
	movq	-344(%rbp), %rcx
	movq	-336(%rbp), %rdx
	.loc	1 258 26
	movq	%rdx, -96(%rbp)
	movq	%rcx, -88(%rbp)
	movq	%rax, -104(%rbp)
	.loc	1 258 19
	cmpq	$1, -104(%rbp)
	jne	LBB1_24
	movq	-96(%rbp), %rax
	movq	%rax, -360(%rbp)
	movq	-88(%rbp), %rcx
	movq	%rcx, -352(%rbp)
	movq	%rcx, -32(%rbp)
	movq	%rax, -40(%rbp)
Ltmp57:
	.loc	1 258 13
	jmp	LBB1_26
LBB1_24:
	.loc	1 258 19
	movq	$0, -192(%rbp)
	.loc	1 258 49
	jmp	LBB1_19
Ltmp58:
LBB1_25:
	.loc	1 262 1 is_stmt 1
	testb	$1, -73(%rbp)
	jne	LBB1_34
	jmp	LBB1_27
LBB1_26:
	.loc	1 0 1 is_stmt 0
	movq	-352(%rbp), %rax
	movq	-360(%rbp), %rcx
Ltmp59:
	.loc	1 258 13 is_stmt 1
	movq	%rcx, -144(%rbp)
	movq	%rax, -136(%rbp)
	.loc	1 257 9
	jmp	LBB1_10
Ltmp60:
LBB1_27:
	.loc	1 262 2
	movq	-192(%rbp), %rax
	movq	-184(%rbp), %rdx
	movq	-176(%rbp), %rcx
	addq	$384, %rsp
	popq	%rbp
	retq
LBB1_28:
	.loc	1 0 2 is_stmt 0
	movq	-240(%rbp), %rax
	movq	-256(%rbp), %rcx
	movq	-248(%rbp), %rdx
Ltmp61:
	.loc	1 246 23 is_stmt 1
	movq	%rdx, -160(%rbp)
	movq	%rcx, -152(%rbp)
	movq	%rax, -168(%rbp)
	.loc	1 246 16 is_stmt 0
	cmpq	$1, -168(%rbp)
	jne	LBB1_30
	movq	-160(%rbp), %rax
	movq	%rax, -376(%rbp)
	movq	-152(%rbp), %rcx
	movq	%rcx, -368(%rbp)
	movq	%rcx, -16(%rbp)
	movq	%rax, -24(%rbp)
Ltmp62:
	.loc	1 246 9
	jmp	LBB1_31
LBB1_30:
	.loc	1 246 16
	movq	$0, -192(%rbp)
	.loc	1 246 47
	jmp	LBB1_25
LBB1_31:
	.loc	1 0 47
	movq	-368(%rbp), %rax
	movq	-376(%rbp), %rcx
	.loc	1 246 9
	movb	$1, -73(%rbp)
	movq	%rcx, -216(%rbp)
	movq	%rax, -208(%rbp)
	.loc	1 247 9 is_stmt 1
	movq	-200(%rbp), %rax
	shrq	$1, %rax
	movq	%rax, -384(%rbp)
	.loc	1 0 9 is_stmt 0
	movq	-384(%rbp), %rax
	.loc	1 247 9
	movq	%rax, -200(%rbp)
	.loc	1 245 5 is_stmt 1
	jmp	LBB1_2
LBB1_33:
	.loc	1 0 5 is_stmt 0
	movq	-232(%rbp), %rax
	movq	-224(%rbp), %rcx
	.loc	1 232 16 is_stmt 1
	movq	%rcx, -184(%rbp)
	movq	%rax, -176(%rbp)
	movq	$1, -192(%rbp)
	.loc	2 1 1
	jmp	LBB1_25
LBB1_34:
	.loc	1 262 1
	jmp	LBB1_27
Ltmp63:
Lfunc_end1:
	.cfi_endproc
	.section	__TEXT,__gcc_except_tab
	.p2align	2
GCC_except_table1:
Lexception1:
	.byte	255
	.byte	255
	.byte	1
	.uleb128 Lcst_end1-Lcst_begin1
Lcst_begin1:
	.uleb128 Ltmp39-Lfunc_begin1
	.uleb128 Ltmp38-Ltmp39
	.uleb128 Ltmp41-Lfunc_begin1
	.byte	0
	.uleb128 Ltmp38-Lfunc_begin1
	.uleb128 Ltmp32-Ltmp38
	.byte	0
	.byte	0
	.uleb128 Ltmp32-Lfunc_begin1
	.uleb128 Ltmp35-Ltmp32
	.uleb128 Ltmp36-Lfunc_begin1
	.byte	0
Lcst_end1:
	.p2align	2

	.section	__TEXT,__text,regular,pure_instructions
	.globl	__ZN10num_traits3pow11checked_pow17haca3634b98bbc213E
	.p2align	4, 0x90
__ZN10num_traits3pow11checked_pow17haca3634b98bbc213E:
Lfunc_begin2:
	.loc	1 230 0
	.cfi_startproc
	.cfi_personality 155, _rust_eh_personality
	.cfi_lsda 16, Lexception2
	pushq	%rbp
	.cfi_def_cfa_offset 16
	.cfi_offset %rbp, -16
	movq	%rsp, %rbp
	.cfi_def_cfa_register %rbp
	subq	$112, %rsp
	movb	%dil, %al
	movb	%al, -73(%rbp)
	movq	%rsi, -72(%rbp)
Ltmp74:
	.loc	1 231 5 prologue_end
	movb	$0, -33(%rbp)
	movb	$1, -33(%rbp)
	.loc	1 231 8 is_stmt 0
	cmpq	$0, -72(%rbp)
	jne	LBB2_2
Ltmp71:
	.loc	1 232 21 is_stmt 1
	callq	__ZN50_$LT$u8$u20$as$u20$num_traits..identities..One$GT$3one17h31b57a0e9943b1caE
Ltmp72:
	movb	%al, -74(%rbp)
	jmp	LBB2_33
LBB2_2:
	.loc	1 245 11
	movq	-72(%rbp), %rax
	andq	$1, %rax
	cmpq	$0, %rax
	jne	LBB2_4
Ltmp69:
	.loc	1 0 11 is_stmt 0
	leaq	-73(%rbp), %rsi
Ltmp75:
	.loc	1 246 23 is_stmt 1
	movq	%rsi, %rdi
	callq	__ZN59_$LT$u8$u20$as$u20$num_traits..ops..checked..CheckedMul$GT$11checked_mul17he2d5c9900aac3550E
Ltmp70:
	movb	%dl, -76(%rbp)
	movb	%al, -75(%rbp)
	jmp	LBB2_28
Ltmp76:
LBB2_4:
	.loc	1 249 8
	cmpq	$1, -72(%rbp)
	jne	LBB2_6
	.loc	1 250 21
	movb	$0, -33(%rbp)
	movb	-73(%rbp), %al
	.loc	1 250 16 is_stmt 0
	movb	%al, -63(%rbp)
	movb	$1, -64(%rbp)
	.loc	2 1 1 is_stmt 1
	jmp	LBB2_25
LBB2_6:
	.loc	2 0 1 is_stmt 0
	leaq	-73(%rbp), %rax
	movq	%rax, -8(%rbp)
Ltmp77:
	.loc	3 189 25 is_stmt 1
	movb	-73(%rbp), %al
	movb	%al, -77(%rbp)
	.loc	3 190 22
	jmp	LBB2_9
Ltmp78:
LBB2_7:
	.loc	1 230 1
	movq	-32(%rbp), %rdi
	callq	__Unwind_Resume
LBB2_8:
Ltmp73:
	.loc	1 0 1 is_stmt 0
	movq	%rax, %rcx
	movl	%edx, %eax
	movq	%rcx, -32(%rbp)
	movl	%eax, -24(%rbp)
	jmp	LBB2_7
LBB2_9:
	movb	-77(%rbp), %al
	.loc	1 253 19 is_stmt 1
	movb	%al, -49(%rbp)
LBB2_10:
Ltmp79:
	.loc	1 254 11
	cmpq	$1, -72(%rbp)
	ja	LBB2_12
	.loc	1 261 10
	movb	-49(%rbp), %al
	.loc	1 261 5 is_stmt 0
	movb	%al, -63(%rbp)
	movb	$1, -64(%rbp)
Ltmp80:
	.loc	1 262 1 is_stmt 1
	jmp	LBB2_27
LBB2_12:
Ltmp81:
	.loc	1 255 9
	movq	-72(%rbp), %rax
	shrq	$1, %rax
	movq	%rax, -88(%rbp)
	.loc	1 0 9 is_stmt 0
	movq	-88(%rbp), %rax
	.loc	1 255 9
	movq	%rax, -72(%rbp)
Ltmp64:
	leaq	-73(%rbp), %rsi
Ltmp82:
	.loc	1 256 23 is_stmt 1
	movq	%rsi, %rdi
	callq	__ZN59_$LT$u8$u20$as$u20$num_traits..ops..checked..CheckedMul$GT$11checked_mul17he2d5c9900aac3550E
Ltmp65:
	movb	%dl, -90(%rbp)
	movb	%al, -89(%rbp)
	jmp	LBB2_16
Ltmp83:
LBB2_14:
	.loc	1 262 1
	jmp	LBB2_7
LBB2_15:
Ltmp68:
	.loc	1 0 1 is_stmt 0
	movq	%rax, %rcx
	movl	%edx, %eax
	movq	%rcx, -32(%rbp)
	movl	%eax, -24(%rbp)
	jmp	LBB2_14
LBB2_16:
	movb	-90(%rbp), %al
	movb	-89(%rbp), %cl
Ltmp84:
	.loc	1 256 23 is_stmt 1
	movb	%cl, -48(%rbp)
	movb	%al, -47(%rbp)
	.loc	1 256 16 is_stmt 0
	movb	-48(%rbp), %al
	andb	$1, %al
	movzbl	%al, %eax
	cmpq	$1, %rax
	jne	LBB2_18
	movb	-47(%rbp), %al
	movb	%al, -91(%rbp)
	movb	%al, -11(%rbp)
Ltmp85:
	.loc	1 256 9
	jmp	LBB2_20
LBB2_18:
	.loc	1 256 16
	movb	$0, -64(%rbp)
Ltmp86:
LBB2_19:
	.loc	1 262 1 is_stmt 1
	jmp	LBB2_25
LBB2_20:
	.loc	1 0 1 is_stmt 0
	movb	-91(%rbp), %al
Ltmp87:
	.loc	1 256 9 is_stmt 1
	movb	$1, -33(%rbp)
	movb	%al, -73(%rbp)
	.loc	1 257 12
	movq	-72(%rbp), %rax
	andq	$1, %rax
	cmpq	$1, %rax
	jne	LBB2_10
Ltmp66:
	.loc	1 0 12 is_stmt 0
	leaq	-49(%rbp), %rdi
	leaq	-73(%rbp), %rsi
Ltmp88:
	.loc	1 258 26 is_stmt 1
	callq	__ZN59_$LT$u8$u20$as$u20$num_traits..ops..checked..CheckedMul$GT$11checked_mul17he2d5c9900aac3550E
Ltmp67:
	movb	%dl, -93(%rbp)
	movb	%al, -92(%rbp)
	jmp	LBB2_22
LBB2_22:
	.loc	1 0 26 is_stmt 0
	movb	-93(%rbp), %al
	movb	-92(%rbp), %cl
	.loc	1 258 26
	movb	%cl, -40(%rbp)
	movb	%al, -39(%rbp)
	.loc	1 258 19
	movb	-40(%rbp), %al
	andb	$1, %al
	movzbl	%al, %eax
	cmpq	$1, %rax
	jne	LBB2_24
	movb	-39(%rbp), %al
	movb	%al, -94(%rbp)
	movb	%al, -10(%rbp)
Ltmp89:
	.loc	1 258 13
	jmp	LBB2_26
LBB2_24:
	.loc	1 258 19
	movb	$0, -64(%rbp)
	.loc	1 258 49
	jmp	LBB2_19
Ltmp90:
LBB2_25:
	.loc	1 262 1 is_stmt 1
	testb	$1, -33(%rbp)
	jne	LBB2_34
	jmp	LBB2_27
LBB2_26:
	.loc	1 0 1 is_stmt 0
	movb	-94(%rbp), %al
Ltmp91:
	.loc	1 258 13 is_stmt 1
	movb	%al, -49(%rbp)
	.loc	1 257 9
	jmp	LBB2_10
Ltmp92:
LBB2_27:
	.loc	1 262 2
	movb	-64(%rbp), %al
	movb	-63(%rbp), %dl
	addq	$112, %rsp
	popq	%rbp
	retq
LBB2_28:
	.loc	1 0 2 is_stmt 0
	movb	-76(%rbp), %al
	movb	-75(%rbp), %cl
Ltmp93:
	.loc	1 246 23 is_stmt 1
	movb	%cl, -56(%rbp)
	movb	%al, -55(%rbp)
	.loc	1 246 16 is_stmt 0
	movb	-56(%rbp), %al
	andb	$1, %al
	movzbl	%al, %eax
	cmpq	$1, %rax
	jne	LBB2_30
	movb	-55(%rbp), %al
	movb	%al, -95(%rbp)
	movb	%al, -9(%rbp)
Ltmp94:
	.loc	1 246 9
	jmp	LBB2_31
LBB2_30:
	.loc	1 246 16
	movb	$0, -64(%rbp)
	.loc	1 246 47
	jmp	LBB2_25
LBB2_31:
	.loc	1 0 47
	movb	-95(%rbp), %al
	.loc	1 246 9
	movb	$1, -33(%rbp)
	movb	%al, -73(%rbp)
	.loc	1 247 9 is_stmt 1
	movq	-72(%rbp), %rax
	shrq	$1, %rax
	movq	%rax, -104(%rbp)
	.loc	1 0 9 is_stmt 0
	movq	-104(%rbp), %rax
	.loc	1 247 9
	movq	%rax, -72(%rbp)
	.loc	1 245 5 is_stmt 1
	jmp	LBB2_2
LBB2_33:
	.loc	1 0 5 is_stmt 0
	movb	-74(%rbp), %al
	.loc	1 232 16 is_stmt 1
	movb	%al, -63(%rbp)
	movb	$1, -64(%rbp)
	.loc	2 1 1
	jmp	LBB2_25
LBB2_34:
	.loc	1 262 1
	jmp	LBB2_27
Ltmp95:
Lfunc_end2:
	.cfi_endproc
	.section	__TEXT,__gcc_except_tab
	.p2align	2
GCC_except_table2:
Lexception2:
	.byte	255
	.byte	255
	.byte	1
	.uleb128 Lcst_end2-Lcst_begin2
Lcst_begin2:
	.uleb128 Ltmp71-Lfunc_begin2
	.uleb128 Ltmp70-Ltmp71
	.uleb128 Ltmp73-Lfunc_begin2
	.byte	0
	.uleb128 Ltmp70-Lfunc_begin2
	.uleb128 Ltmp64-Ltmp70
	.byte	0
	.byte	0
	.uleb128 Ltmp64-Lfunc_begin2
	.uleb128 Ltmp67-Ltmp64
	.uleb128 Ltmp68-Lfunc_begin2
	.byte	0
Lcst_end2:
	.p2align	2

	.section	__TEXT,__text,regular,pure_instructions
	.globl	__ZN10num_traits3pow11checked_pow17hbbabdc9e3e240148E
	.p2align	4, 0x90
__ZN10num_traits3pow11checked_pow17hbbabdc9e3e240148E:
Lfunc_begin3:
	.loc	1 230 0
	.cfi_startproc
	.cfi_personality 155, _rust_eh_personality
	.cfi_lsda 16, Lexception3
	pushq	%rbp
	.cfi_def_cfa_offset 16
	.cfi_offset %rbp, -16
	movq	%rsp, %rbp
	.cfi_def_cfa_register %rbp
	subq	$176, %rsp
	movl	%edi, -100(%rbp)
	movq	%rsi, -96(%rbp)
Ltmp106:
	.loc	1 231 5 prologue_end
	movb	$0, -41(%rbp)
	movb	$1, -41(%rbp)
	.loc	1 231 8 is_stmt 0
	cmpq	$0, -96(%rbp)
	jne	LBB3_2
Ltmp103:
	.loc	1 232 21 is_stmt 1
	callq	__ZN51_$LT$u32$u20$as$u20$num_traits..identities..One$GT$3one17h234348009754deb2E
Ltmp104:
	movl	%eax, -104(%rbp)
	jmp	LBB3_33
LBB3_2:
	.loc	1 245 11
	movq	-96(%rbp), %rax
	andq	$1, %rax
	cmpq	$0, %rax
	jne	LBB3_4
Ltmp101:
	.loc	1 0 11 is_stmt 0
	leaq	-100(%rbp), %rsi
Ltmp107:
	.loc	1 246 23 is_stmt 1
	movq	%rsi, %rdi
	callq	__ZN60_$LT$u32$u20$as$u20$num_traits..ops..checked..CheckedMul$GT$11checked_mul17h1712f0e1663373d7E
Ltmp102:
	movl	%edx, -112(%rbp)
	movl	%eax, -108(%rbp)
	jmp	LBB3_28
Ltmp108:
LBB3_4:
	.loc	1 249 8
	cmpq	$1, -96(%rbp)
	jne	LBB3_6
	.loc	1 250 21
	movb	$0, -41(%rbp)
	movl	-100(%rbp), %eax
	.loc	1 250 16 is_stmt 0
	movl	%eax, -84(%rbp)
	movl	$1, -88(%rbp)
	.loc	2 1 1 is_stmt 1
	jmp	LBB3_25
LBB3_6:
	.loc	2 0 1 is_stmt 0
	leaq	-100(%rbp), %rax
	movq	%rax, -8(%rbp)
Ltmp109:
	.loc	3 189 25 is_stmt 1
	movl	-100(%rbp), %eax
	movl	%eax, -116(%rbp)
	.loc	3 190 22
	jmp	LBB3_9
Ltmp110:
LBB3_7:
	.loc	1 230 1
	movq	-40(%rbp), %rdi
	callq	__Unwind_Resume
LBB3_8:
Ltmp105:
	.loc	1 0 1 is_stmt 0
	movq	%rax, %rcx
	movl	%edx, %eax
	movq	%rcx, -40(%rbp)
	movl	%eax, -32(%rbp)
	jmp	LBB3_7
LBB3_9:
	movl	-116(%rbp), %eax
	.loc	1 253 19 is_stmt 1
	movl	%eax, -68(%rbp)
LBB3_10:
Ltmp111:
	.loc	1 254 11
	cmpq	$1, -96(%rbp)
	ja	LBB3_12
	.loc	1 261 10
	movl	-68(%rbp), %eax
	.loc	1 261 5 is_stmt 0
	movl	%eax, -84(%rbp)
	movl	$1, -88(%rbp)
Ltmp112:
	.loc	1 262 1 is_stmt 1
	jmp	LBB3_27
LBB3_12:
Ltmp113:
	.loc	1 255 9
	movq	-96(%rbp), %rax
	shrq	$1, %rax
	movq	%rax, -128(%rbp)
	.loc	1 0 9 is_stmt 0
	movq	-128(%rbp), %rax
	.loc	1 255 9
	movq	%rax, -96(%rbp)
Ltmp96:
	leaq	-100(%rbp), %rsi
Ltmp114:
	.loc	1 256 23 is_stmt 1
	movq	%rsi, %rdi
	callq	__ZN60_$LT$u32$u20$as$u20$num_traits..ops..checked..CheckedMul$GT$11checked_mul17h1712f0e1663373d7E
Ltmp97:
	movl	%edx, -136(%rbp)
	movl	%eax, -132(%rbp)
	jmp	LBB3_16
Ltmp115:
LBB3_14:
	.loc	1 262 1
	jmp	LBB3_7
LBB3_15:
Ltmp100:
	.loc	1 0 1 is_stmt 0
	movq	%rax, %rcx
	movl	%edx, %eax
	movq	%rcx, -40(%rbp)
	movl	%eax, -32(%rbp)
	jmp	LBB3_14
LBB3_16:
	movl	-136(%rbp), %eax
	movl	-132(%rbp), %ecx
Ltmp116:
	.loc	1 256 23 is_stmt 1
	movl	%ecx, -64(%rbp)
	movl	%eax, -60(%rbp)
	.loc	1 256 16 is_stmt 0
	movl	-64(%rbp), %eax
	cmpq	$1, %rax
	jne	LBB3_18
	movl	-60(%rbp), %eax
	movl	%eax, -140(%rbp)
	movl	%eax, -20(%rbp)
Ltmp117:
	.loc	1 256 9
	jmp	LBB3_20
LBB3_18:
	.loc	1 256 16
	movl	$0, -88(%rbp)
Ltmp118:
LBB3_19:
	.loc	1 262 1 is_stmt 1
	jmp	LBB3_25
LBB3_20:
	.loc	1 0 1 is_stmt 0
	movl	-140(%rbp), %eax
Ltmp119:
	.loc	1 256 9 is_stmt 1
	movb	$1, -41(%rbp)
	movl	%eax, -100(%rbp)
	.loc	1 257 12
	movq	-96(%rbp), %rax
	andq	$1, %rax
	cmpq	$1, %rax
	jne	LBB3_10
Ltmp98:
	.loc	1 0 12 is_stmt 0
	leaq	-68(%rbp), %rdi
	leaq	-100(%rbp), %rsi
Ltmp120:
	.loc	1 258 26 is_stmt 1
	callq	__ZN60_$LT$u32$u20$as$u20$num_traits..ops..checked..CheckedMul$GT$11checked_mul17h1712f0e1663373d7E
Ltmp99:
	movl	%edx, -148(%rbp)
	movl	%eax, -144(%rbp)
	jmp	LBB3_22
LBB3_22:
	.loc	1 0 26 is_stmt 0
	movl	-148(%rbp), %eax
	movl	-144(%rbp), %ecx
	.loc	1 258 26
	movl	%ecx, -56(%rbp)
	movl	%eax, -52(%rbp)
	.loc	1 258 19
	movl	-56(%rbp), %eax
	cmpq	$1, %rax
	jne	LBB3_24
	movl	-52(%rbp), %eax
	movl	%eax, -152(%rbp)
	movl	%eax, -16(%rbp)
Ltmp121:
	.loc	1 258 13
	jmp	LBB3_26
LBB3_24:
	.loc	1 258 19
	movl	$0, -88(%rbp)
	.loc	1 258 49
	jmp	LBB3_19
Ltmp122:
LBB3_25:
	.loc	1 262 1 is_stmt 1
	testb	$1, -41(%rbp)
	jne	LBB3_34
	jmp	LBB3_27
LBB3_26:
	.loc	1 0 1 is_stmt 0
	movl	-152(%rbp), %eax
Ltmp123:
	.loc	1 258 13 is_stmt 1
	movl	%eax, -68(%rbp)
	.loc	1 257 9
	jmp	LBB3_10
Ltmp124:
LBB3_27:
	.loc	1 262 2
	movl	-88(%rbp), %eax
	movl	-84(%rbp), %edx
	addq	$176, %rsp
	popq	%rbp
	retq
LBB3_28:
	.loc	1 0 2 is_stmt 0
	movl	-112(%rbp), %eax
	movl	-108(%rbp), %ecx
Ltmp125:
	.loc	1 246 23 is_stmt 1
	movl	%ecx, -80(%rbp)
	movl	%eax, -76(%rbp)
	.loc	1 246 16 is_stmt 0
	movl	-80(%rbp), %eax
	cmpq	$1, %rax
	jne	LBB3_30
	movl	-76(%rbp), %eax
	movl	%eax, -156(%rbp)
	movl	%eax, -12(%rbp)
Ltmp126:
	.loc	1 246 9
	jmp	LBB3_31
LBB3_30:
	.loc	1 246 16
	movl	$0, -88(%rbp)
	.loc	1 246 47
	jmp	LBB3_25
LBB3_31:
	.loc	1 0 47
	movl	-156(%rbp), %eax
	.loc	1 246 9
	movb	$1, -41(%rbp)
	movl	%eax, -100(%rbp)
	.loc	1 247 9 is_stmt 1
	movq	-96(%rbp), %rax
	shrq	$1, %rax
	movq	%rax, -168(%rbp)
	.loc	1 0 9 is_stmt 0
	movq	-168(%rbp), %rax
	.loc	1 247 9
	movq	%rax, -96(%rbp)
	.loc	1 245 5 is_stmt 1
	jmp	LBB3_2
LBB3_33:
	.loc	1 0 5 is_stmt 0
	movl	-104(%rbp), %eax
	.loc	1 232 16 is_stmt 1
	movl	%eax, -84(%rbp)
	movl	$1, -88(%rbp)
	.loc	2 1 1
	jmp	LBB3_25
LBB3_34:
	.loc	1 262 1
	jmp	LBB3_27
Ltmp127:
Lfunc_end3:
	.cfi_endproc
	.section	__TEXT,__gcc_except_tab
	.p2align	2
GCC_except_table3:
Lexception3:
	.byte	255
	.byte	255
	.byte	1
	.uleb128 Lcst_end3-Lcst_begin3
Lcst_begin3:
	.uleb128 Ltmp103-Lfunc_begin3
	.uleb128 Ltmp102-Ltmp103
	.uleb128 Ltmp105-Lfunc_begin3
	.byte	0
	.uleb128 Ltmp102-Lfunc_begin3
	.uleb128 Ltmp96-Ltmp102
	.byte	0
	.byte	0
	.uleb128 Ltmp96-Lfunc_begin3
	.uleb128 Ltmp99-Ltmp96
	.uleb128 Ltmp100-Lfunc_begin3
	.byte	0
Lcst_end3:
	.p2align	2

	.section	__TEXT,__text,regular,pure_instructions
	.globl	__ZN10num_traits3pow11checked_pow17hd2f7cee63b3cedf6E
	.p2align	4, 0x90
__ZN10num_traits3pow11checked_pow17hd2f7cee63b3cedf6E:
Lfunc_begin4:
	.loc	1 230 0
	.cfi_startproc
	.cfi_personality 155, _rust_eh_personality
	.cfi_lsda 16, Lexception4
	pushq	%rbp
	.cfi_def_cfa_offset 16
	.cfi_offset %rbp, -16
	movq	%rsp, %rbp
	.cfi_def_cfa_register %rbp
	subq	$256, %rsp
	movq	%rdi, -144(%rbp)
	movq	%rsi, -136(%rbp)
Ltmp138:
	.loc	1 231 5 prologue_end
	movb	$0, -49(%rbp)
	movb	$1, -49(%rbp)
	.loc	1 231 8 is_stmt 0
	cmpq	$0, -136(%rbp)
	jne	LBB4_2
Ltmp135:
	.loc	1 232 21 is_stmt 1
	callq	__ZN51_$LT$u64$u20$as$u20$num_traits..identities..One$GT$3one17hfa963e355a61e608E
Ltmp136:
	movq	%rax, -152(%rbp)
	jmp	LBB4_33
LBB4_2:
	.loc	1 245 11
	movq	-136(%rbp), %rax
	andq	$1, %rax
	cmpq	$0, %rax
	jne	LBB4_4
Ltmp133:
	.loc	1 0 11 is_stmt 0
	leaq	-144(%rbp), %rsi
Ltmp139:
	.loc	1 246 23 is_stmt 1
	movq	%rsi, %rdi
	callq	__ZN60_$LT$u64$u20$as$u20$num_traits..ops..checked..CheckedMul$GT$11checked_mul17h23806c60c2cb3841E
Ltmp134:
	movq	%rdx, -168(%rbp)
	movq	%rax, -160(%rbp)
	jmp	LBB4_28
Ltmp140:
LBB4_4:
	.loc	1 249 8
	cmpq	$1, -136(%rbp)
	jne	LBB4_6
	.loc	1 250 21
	movb	$0, -49(%rbp)
	movq	-144(%rbp), %rax
	.loc	1 250 16 is_stmt 0
	movq	%rax, -120(%rbp)
	movq	$1, -128(%rbp)
	.loc	2 1 1 is_stmt 1
	jmp	LBB4_25
LBB4_6:
	.loc	2 0 1 is_stmt 0
	leaq	-144(%rbp), %rax
	movq	%rax, -8(%rbp)
Ltmp141:
	.loc	3 189 25 is_stmt 1
	movq	-144(%rbp), %rax
	movq	%rax, -176(%rbp)
	.loc	3 190 22
	jmp	LBB4_9
Ltmp142:
LBB4_7:
	.loc	1 230 1
	movq	-48(%rbp), %rdi
	callq	__Unwind_Resume
LBB4_8:
Ltmp137:
	.loc	1 0 1 is_stmt 0
	movq	%rax, %rcx
	movl	%edx, %eax
	movq	%rcx, -48(%rbp)
	movl	%eax, -40(%rbp)
	jmp	LBB4_7
LBB4_9:
	movq	-176(%rbp), %rax
	.loc	1 253 19 is_stmt 1
	movq	%rax, -96(%rbp)
LBB4_10:
Ltmp143:
	.loc	1 254 11
	cmpq	$1, -136(%rbp)
	ja	LBB4_12
	.loc	1 261 10
	movq	-96(%rbp), %rax
	.loc	1 261 5 is_stmt 0
	movq	%rax, -120(%rbp)
	movq	$1, -128(%rbp)
Ltmp144:
	.loc	1 262 1 is_stmt 1
	jmp	LBB4_27
LBB4_12:
Ltmp145:
	.loc	1 255 9
	movq	-136(%rbp), %rax
	shrq	$1, %rax
	movq	%rax, -184(%rbp)
	.loc	1 0 9 is_stmt 0
	movq	-184(%rbp), %rax
	.loc	1 255 9
	movq	%rax, -136(%rbp)
Ltmp128:
	leaq	-144(%rbp), %rsi
Ltmp146:
	.loc	1 256 23 is_stmt 1
	movq	%rsi, %rdi
	callq	__ZN60_$LT$u64$u20$as$u20$num_traits..ops..checked..CheckedMul$GT$11checked_mul17h23806c60c2cb3841E
Ltmp129:
	movq	%rdx, -200(%rbp)
	movq	%rax, -192(%rbp)
	jmp	LBB4_16
Ltmp147:
LBB4_14:
	.loc	1 262 1
	jmp	LBB4_7
LBB4_15:
Ltmp132:
	.loc	1 0 1 is_stmt 0
	movq	%rax, %rcx
	movl	%edx, %eax
	movq	%rcx, -48(%rbp)
	movl	%eax, -40(%rbp)
	jmp	LBB4_14
LBB4_16:
	movq	-200(%rbp), %rax
	movq	-192(%rbp), %rcx
Ltmp148:
	.loc	1 256 23 is_stmt 1
	movq	%rcx, -88(%rbp)
	movq	%rax, -80(%rbp)
	.loc	1 256 16 is_stmt 0
	cmpq	$1, -88(%rbp)
	jne	LBB4_18
	movq	-80(%rbp), %rax
	movq	%rax, -208(%rbp)
	movq	%rax, -32(%rbp)
Ltmp149:
	.loc	1 256 9
	jmp	LBB4_20
LBB4_18:
	.loc	1 256 16
	movq	$0, -128(%rbp)
Ltmp150:
LBB4_19:
	.loc	1 262 1 is_stmt 1
	jmp	LBB4_25
LBB4_20:
	.loc	1 0 1 is_stmt 0
	movq	-208(%rbp), %rax
Ltmp151:
	.loc	1 256 9 is_stmt 1
	movb	$1, -49(%rbp)
	movq	%rax, -144(%rbp)
	.loc	1 257 12
	movq	-136(%rbp), %rax
	andq	$1, %rax
	cmpq	$1, %rax
	jne	LBB4_10
Ltmp130:
	.loc	1 0 12 is_stmt 0
	leaq	-96(%rbp), %rdi
	leaq	-144(%rbp), %rsi
Ltmp152:
	.loc	1 258 26 is_stmt 1
	callq	__ZN60_$LT$u64$u20$as$u20$num_traits..ops..checked..CheckedMul$GT$11checked_mul17h23806c60c2cb3841E
Ltmp131:
	movq	%rdx, -224(%rbp)
	movq	%rax, -216(%rbp)
	jmp	LBB4_22
LBB4_22:
	.loc	1 0 26 is_stmt 0
	movq	-224(%rbp), %rax
	movq	-216(%rbp), %rcx
	.loc	1 258 26
	movq	%rcx, -72(%rbp)
	movq	%rax, -64(%rbp)
	.loc	1 258 19
	cmpq	$1, -72(%rbp)
	jne	LBB4_24
	movq	-64(%rbp), %rax
	movq	%rax, -232(%rbp)
	movq	%rax, -24(%rbp)
Ltmp153:
	.loc	1 258 13
	jmp	LBB4_26
LBB4_24:
	.loc	1 258 19
	movq	$0, -128(%rbp)
	.loc	1 258 49
	jmp	LBB4_19
Ltmp154:
LBB4_25:
	.loc	1 262 1 is_stmt 1
	testb	$1, -49(%rbp)
	jne	LBB4_34
	jmp	LBB4_27
LBB4_26:
	.loc	1 0 1 is_stmt 0
	movq	-232(%rbp), %rax
Ltmp155:
	.loc	1 258 13 is_stmt 1
	movq	%rax, -96(%rbp)
	.loc	1 257 9
	jmp	LBB4_10
Ltmp156:
LBB4_27:
	.loc	1 262 2
	movq	-128(%rbp), %rax
	movq	-120(%rbp), %rdx
	addq	$256, %rsp
	popq	%rbp
	retq
LBB4_28:
	.loc	1 0 2 is_stmt 0
	movq	-168(%rbp), %rax
	movq	-160(%rbp), %rcx
Ltmp157:
	.loc	1 246 23 is_stmt 1
	movq	%rcx, -112(%rbp)
	movq	%rax, -104(%rbp)
	.loc	1 246 16 is_stmt 0
	cmpq	$1, -112(%rbp)
	jne	LBB4_30
	movq	-104(%rbp), %rax
	movq	%rax, -240(%rbp)
	movq	%rax, -16(%rbp)
Ltmp158:
	.loc	1 246 9
	jmp	LBB4_31
LBB4_30:
	.loc	1 246 16
	movq	$0, -128(%rbp)
	.loc	1 246 47
	jmp	LBB4_25
LBB4_31:
	.loc	1 0 47
	movq	-240(%rbp), %rax
	.loc	1 246 9
	movb	$1, -49(%rbp)
	movq	%rax, -144(%rbp)
	.loc	1 247 9 is_stmt 1
	movq	-136(%rbp), %rax
	shrq	$1, %rax
	movq	%rax, -248(%rbp)
	.loc	1 0 9 is_stmt 0
	movq	-248(%rbp), %rax
	.loc	1 247 9
	movq	%rax, -136(%rbp)
	.loc	1 245 5 is_stmt 1
	jmp	LBB4_2
LBB4_33:
	.loc	1 0 5 is_stmt 0
	movq	-152(%rbp), %rax
	.loc	1 232 16 is_stmt 1
	movq	%rax, -120(%rbp)
	movq	$1, -128(%rbp)
	.loc	2 1 1
	jmp	LBB4_25
LBB4_34:
	.loc	1 262 1
	jmp	LBB4_27
Ltmp159:
Lfunc_end4:
	.cfi_endproc
	.section	__TEXT,__gcc_except_tab
	.p2align	2
GCC_except_table4:
Lexception4:
	.byte	255
	.byte	255
	.byte	1
	.uleb128 Lcst_end4-Lcst_begin4
Lcst_begin4:
	.uleb128 Ltmp135-Lfunc_begin4
	.uleb128 Ltmp134-Ltmp135
	.uleb128 Ltmp137-Lfunc_begin4
	.byte	0
	.uleb128 Ltmp134-Lfunc_begin4
	.uleb128 Ltmp128-Ltmp134
	.byte	0
	.byte	0
	.uleb128 Ltmp128-Lfunc_begin4
	.uleb128 Ltmp131-Ltmp128
	.uleb128 Ltmp132-Lfunc_begin4
	.byte	0
Lcst_end4:
	.p2align	2

	.section	__TEXT,__text,regular,pure_instructions
	.globl	__ZN10num_traits3pow11checked_pow17he57603677d306a0eE
	.p2align	4, 0x90
__ZN10num_traits3pow11checked_pow17he57603677d306a0eE:
Lfunc_begin5:
	.loc	1 230 0
	.cfi_startproc
	.cfi_personality 155, _rust_eh_personality
	.cfi_lsda 16, Lexception5
	pushq	%rbp
	.cfi_def_cfa_offset 16
	.cfi_offset %rbp, -16
	movq	%rsp, %rbp
	.cfi_def_cfa_register %rbp
	subq	$128, %rsp
	movw	%di, %ax
	movw	%ax, -74(%rbp)
	movq	%rsi, -72(%rbp)
Ltmp170:
	.loc	1 231 5 prologue_end
	movb	$0, -33(%rbp)
	movb	$1, -33(%rbp)
	.loc	1 231 8 is_stmt 0
	cmpq	$0, -72(%rbp)
	jne	LBB5_2
Ltmp167:
	.loc	1 232 21 is_stmt 1
	callq	__ZN51_$LT$u16$u20$as$u20$num_traits..identities..One$GT$3one17h90e6934b5b1ac629E
Ltmp168:
	movw	%ax, -76(%rbp)
	jmp	LBB5_33
LBB5_2:
	.loc	1 245 11
	movq	-72(%rbp), %rax
	andq	$1, %rax
	cmpq	$0, %rax
	jne	LBB5_4
Ltmp165:
	.loc	1 0 11 is_stmt 0
	leaq	-74(%rbp), %rsi
Ltmp171:
	.loc	1 246 23 is_stmt 1
	movq	%rsi, %rdi
	callq	__ZN60_$LT$u16$u20$as$u20$num_traits..ops..checked..CheckedMul$GT$11checked_mul17h8712e9ea7a0b6f2aE
Ltmp166:
	movw	%dx, -80(%rbp)
	movw	%ax, -78(%rbp)
	jmp	LBB5_28
Ltmp172:
LBB5_4:
	.loc	1 249 8
	cmpq	$1, -72(%rbp)
	jne	LBB5_6
	.loc	1 250 21
	movb	$0, -33(%rbp)
	movw	-74(%rbp), %ax
	.loc	1 250 16 is_stmt 0
	movw	%ax, -62(%rbp)
	movw	$1, -64(%rbp)
	.loc	2 1 1 is_stmt 1
	jmp	LBB5_25
LBB5_6:
	.loc	2 0 1 is_stmt 0
	leaq	-74(%rbp), %rax
	movq	%rax, -8(%rbp)
Ltmp173:
	.loc	3 189 25 is_stmt 1
	movw	-74(%rbp), %ax
	movw	%ax, -82(%rbp)
	.loc	3 190 22
	jmp	LBB5_9
Ltmp174:
LBB5_7:
	.loc	1 230 1
	movq	-32(%rbp), %rdi
	callq	__Unwind_Resume
LBB5_8:
Ltmp169:
	.loc	1 0 1 is_stmt 0
	movq	%rax, %rcx
	movl	%edx, %eax
	movq	%rcx, -32(%rbp)
	movl	%eax, -24(%rbp)
	jmp	LBB5_7
LBB5_9:
	movw	-82(%rbp), %ax
	.loc	1 253 19 is_stmt 1
	movw	%ax, -50(%rbp)
LBB5_10:
Ltmp175:
	.loc	1 254 11
	cmpq	$1, -72(%rbp)
	ja	LBB5_12
	.loc	1 261 10
	movw	-50(%rbp), %ax
	.loc	1 261 5 is_stmt 0
	movw	%ax, -62(%rbp)
	movw	$1, -64(%rbp)
Ltmp176:
	.loc	1 262 1 is_stmt 1
	jmp	LBB5_27
LBB5_12:
Ltmp177:
	.loc	1 255 9
	movq	-72(%rbp), %rax
	shrq	$1, %rax
	movq	%rax, -96(%rbp)
	.loc	1 0 9 is_stmt 0
	movq	-96(%rbp), %rax
	.loc	1 255 9
	movq	%rax, -72(%rbp)
Ltmp160:
	leaq	-74(%rbp), %rsi
Ltmp178:
	.loc	1 256 23 is_stmt 1
	movq	%rsi, %rdi
	callq	__ZN60_$LT$u16$u20$as$u20$num_traits..ops..checked..CheckedMul$GT$11checked_mul17h8712e9ea7a0b6f2aE
Ltmp161:
	movw	%dx, -100(%rbp)
	movw	%ax, -98(%rbp)
	jmp	LBB5_16
Ltmp179:
LBB5_14:
	.loc	1 262 1
	jmp	LBB5_7
LBB5_15:
Ltmp164:
	.loc	1 0 1 is_stmt 0
	movq	%rax, %rcx
	movl	%edx, %eax
	movq	%rcx, -32(%rbp)
	movl	%eax, -24(%rbp)
	jmp	LBB5_14
LBB5_16:
	movw	-100(%rbp), %ax
	movw	-98(%rbp), %cx
Ltmp180:
	.loc	1 256 23 is_stmt 1
	movw	%cx, -48(%rbp)
	movw	%ax, -46(%rbp)
	.loc	1 256 16 is_stmt 0
	movzwl	-48(%rbp), %eax
	cmpq	$1, %rax
	jne	LBB5_18
	movw	-46(%rbp), %ax
	movw	%ax, -102(%rbp)
	movw	%ax, -14(%rbp)
Ltmp181:
	.loc	1 256 9
	jmp	LBB5_20
LBB5_18:
	.loc	1 256 16
	movw	$0, -64(%rbp)
Ltmp182:
LBB5_19:
	.loc	1 262 1 is_stmt 1
	jmp	LBB5_25
LBB5_20:
	.loc	1 0 1 is_stmt 0
	movw	-102(%rbp), %ax
Ltmp183:
	.loc	1 256 9 is_stmt 1
	movb	$1, -33(%rbp)
	movw	%ax, -74(%rbp)
	.loc	1 257 12
	movq	-72(%rbp), %rax
	andq	$1, %rax
	cmpq	$1, %rax
	jne	LBB5_10
Ltmp162:
	.loc	1 0 12 is_stmt 0
	leaq	-50(%rbp), %rdi
	leaq	-74(%rbp), %rsi
Ltmp184:
	.loc	1 258 26 is_stmt 1
	callq	__ZN60_$LT$u16$u20$as$u20$num_traits..ops..checked..CheckedMul$GT$11checked_mul17h8712e9ea7a0b6f2aE
Ltmp163:
	movw	%dx, -106(%rbp)
	movw	%ax, -104(%rbp)
	jmp	LBB5_22
LBB5_22:
	.loc	1 0 26 is_stmt 0
	movw	-106(%rbp), %ax
	movw	-104(%rbp), %cx
	.loc	1 258 26
	movw	%cx, -40(%rbp)
	movw	%ax, -38(%rbp)
	.loc	1 258 19
	movzwl	-40(%rbp), %eax
	cmpq	$1, %rax
	jne	LBB5_24
	movw	-38(%rbp), %ax
	movw	%ax, -108(%rbp)
	movw	%ax, -12(%rbp)
Ltmp185:
	.loc	1 258 13
	jmp	LBB5_26
LBB5_24:
	.loc	1 258 19
	movw	$0, -64(%rbp)
	.loc	1 258 49
	jmp	LBB5_19
Ltmp186:
LBB5_25:
	.loc	1 262 1 is_stmt 1
	testb	$1, -33(%rbp)
	jne	LBB5_34
	jmp	LBB5_27
LBB5_26:
	.loc	1 0 1 is_stmt 0
	movw	-108(%rbp), %ax
Ltmp187:
	.loc	1 258 13 is_stmt 1
	movw	%ax, -50(%rbp)
	.loc	1 257 9
	jmp	LBB5_10
Ltmp188:
LBB5_27:
	.loc	1 262 2
	movw	-64(%rbp), %ax
	movw	-62(%rbp), %dx
	addq	$128, %rsp
	popq	%rbp
	retq
LBB5_28:
	.loc	1 0 2 is_stmt 0
	movw	-80(%rbp), %ax
	movw	-78(%rbp), %cx
Ltmp189:
	.loc	1 246 23 is_stmt 1
	movw	%cx, -56(%rbp)
	movw	%ax, -54(%rbp)
	.loc	1 246 16 is_stmt 0
	movzwl	-56(%rbp), %eax
	cmpq	$1, %rax
	jne	LBB5_30
	movw	-54(%rbp), %ax
	movw	%ax, -110(%rbp)
	movw	%ax, -10(%rbp)
Ltmp190:
	.loc	1 246 9
	jmp	LBB5_31
LBB5_30:
	.loc	1 246 16
	movw	$0, -64(%rbp)
	.loc	1 246 47
	jmp	LBB5_25
LBB5_31:
	.loc	1 0 47
	movw	-110(%rbp), %ax
	.loc	1 246 9
	movb	$1, -33(%rbp)
	movw	%ax, -74(%rbp)
	.loc	1 247 9 is_stmt 1
	movq	-72(%rbp), %rax
	shrq	$1, %rax
	movq	%rax, -120(%rbp)
	.loc	1 0 9 is_stmt 0
	movq	-120(%rbp), %rax
	.loc	1 247 9
	movq	%rax, -72(%rbp)
	.loc	1 245 5 is_stmt 1
	jmp	LBB5_2
LBB5_33:
	.loc	1 0 5 is_stmt 0
	movw	-76(%rbp), %ax
	.loc	1 232 16 is_stmt 1
	movw	%ax, -62(%rbp)
	movw	$1, -64(%rbp)
	.loc	2 1 1
	jmp	LBB5_25
LBB5_34:
	.loc	1 262 1
	jmp	LBB5_27
Ltmp191:
Lfunc_end5:
	.cfi_endproc
	.section	__TEXT,__gcc_except_tab
	.p2align	2
GCC_except_table5:
Lexception5:
	.byte	255
	.byte	255
	.byte	1
	.uleb128 Lcst_end5-Lcst_begin5
Lcst_begin5:
	.uleb128 Ltmp167-Lfunc_begin5
	.uleb128 Ltmp166-Ltmp167
	.uleb128 Ltmp169-Lfunc_begin5
	.byte	0
	.uleb128 Ltmp166-Lfunc_begin5
	.uleb128 Ltmp160-Ltmp166
	.byte	0
	.byte	0
	.uleb128 Ltmp160-Lfunc_begin5
	.uleb128 Ltmp163-Ltmp160
	.uleb128 Ltmp164-Lfunc_begin5
	.byte	0
Lcst_end5:
	.p2align	2

	.section	__TEXT,__text,regular,pure_instructions
	.globl	__ZN3std3f6421_$LT$impl$u20$f64$GT$11log_wrapper17hcd571467c6903280E
	.p2align	4, 0x90
__ZN3std3f6421_$LT$impl$u20$f64$GT$11log_wrapper17hcd571467c6903280E:
Lfunc_begin6:
	.file	4 "/rustc/2c8cc343237b8f7d5a3c3703e3a87f2eb2c54a74/library/std/src" "f64.rs"
	.loc	4 938 0
	.cfi_startproc
	.cfi_personality 155, _rust_eh_personality
	.cfi_lsda 16, Lexception6
	pushq	%rbp
	.cfi_def_cfa_offset 16
	.cfi_offset %rbp, -16
	movq	%rsp, %rbp
	.cfi_def_cfa_register %rbp
	subq	$48, %rsp
	movsd	%xmm0, -24(%rbp)
Ltmp195:
	.loc	4 940 13 prologue_end
	movsd	%xmm0, -32(%rbp)
	movsd	-32(%rbp), %xmm0
Ltmp192:
	leaq	-40(%rbp), %rdi
	callq	__ZN3std3f6421_$LT$impl$u20$f64$GT$2ln28_$u7b$$u7b$closure$u7d$$u7d$17h1c2c13885c4d0270E
Ltmp193:
	movsd	%xmm0, -48(%rbp)
	jmp	LBB6_3
LBB6_1:
	.loc	4 938 5
	movq	-16(%rbp), %rdi
	callq	__Unwind_Resume
LBB6_2:
Ltmp194:
	.loc	4 0 5 is_stmt 0
	movq	%rax, %rcx
	movl	%edx, %eax
	movq	%rcx, -16(%rbp)
	movl	%eax, -8(%rbp)
	jmp	LBB6_1
LBB6_3:
	movsd	-48(%rbp), %xmm0
	.loc	4 956 6 is_stmt 1
	addq	$48, %rsp
	popq	%rbp
	retq
Ltmp196:
Lfunc_end6:
	.cfi_endproc
	.section	__TEXT,__gcc_except_tab
	.p2align	2
GCC_except_table6:
Lexception6:
	.byte	255
	.byte	255
	.byte	1
	.uleb128 Lcst_end6-Lcst_begin6
Lcst_begin6:
	.uleb128 Ltmp192-Lfunc_begin6
	.uleb128 Ltmp193-Ltmp192
	.uleb128 Ltmp194-Lfunc_begin6
	.byte	0
	.uleb128 Ltmp193-Lfunc_begin6
	.uleb128 Lfunc_end6-Ltmp193
	.byte	0
	.byte	0
Lcst_end6:
	.p2align	2

	.section	__TEXT,__text,regular,pure_instructions
	.p2align	4, 0x90
__ZN3std3f6421_$LT$impl$u20$f64$GT$2ln17hc783eb7542d15b5cE:
Lfunc_begin7:
	.loc	4 428 0
	.cfi_startproc
	pushq	%rbp
	.cfi_def_cfa_offset 16
	.cfi_offset %rbp, -16
	movq	%rsp, %rbp
	.cfi_def_cfa_register %rbp
	subq	$16, %rsp
	movsd	%xmm0, -8(%rbp)
Ltmp197:
	.loc	4 429 9 prologue_end
	callq	__ZN3std3f6421_$LT$impl$u20$f64$GT$11log_wrapper17hcd571467c6903280E
	.loc	4 430 6
	addq	$16, %rsp
	popq	%rbp
	retq
Ltmp198:
Lfunc_end7:
	.cfi_endproc

	.globl	__ZN3std3f6421_$LT$impl$u20$f64$GT$2ln28_$u7b$$u7b$closure$u7d$$u7d$17h1c2c13885c4d0270E
	.p2align	4, 0x90
__ZN3std3f6421_$LT$impl$u20$f64$GT$2ln28_$u7b$$u7b$closure$u7d$$u7d$17h1c2c13885c4d0270E:
Lfunc_begin8:
	.loc	4 429 0
	.cfi_startproc
	pushq	%rbp
	.cfi_def_cfa_offset 16
	.cfi_offset %rbp, -16
	movq	%rsp, %rbp
	.cfi_def_cfa_register %rbp
	subq	$32, %rsp
	movq	%rdi, -24(%rbp)
	movsd	%xmm0, -16(%rbp)
Ltmp199:
	.loc	4 429 39 prologue_end
	callq	_log
	movsd	%xmm0, -8(%rbp)
	movsd	-8(%rbp), %xmm0
	.loc	4 429 62 is_stmt 0
	addq	$32, %rsp
	popq	%rbp
	retq
Ltmp200:
Lfunc_end8:
	.cfi_endproc

	.p2align	4, 0x90
__ZN3std3f6421_$LT$impl$u20$f64$GT$3exp17h44cafcbe2a22d0acE:
Lfunc_begin9:
	.loc	4 386 0 is_stmt 1
	.cfi_startproc
	pushq	%rbp
	.cfi_def_cfa_offset 16
	.cfi_offset %rbp, -16
	movq	%rsp, %rbp
	.cfi_def_cfa_register %rbp
	subq	$16, %rsp
	movsd	%xmm0, -16(%rbp)
Ltmp201:
	.loc	4 387 18 prologue_end
	callq	_exp
	movsd	%xmm0, -8(%rbp)
	movsd	-8(%rbp), %xmm0
	.loc	4 388 6
	addq	$16, %rsp
	popq	%rbp
	retq
Ltmp202:
Lfunc_end9:
	.cfi_endproc

	.p2align	4, 0x90
__ZN3std3f6421_$LT$impl$u20$f64$GT$4cbrt17h97010bd0b2b8398bE:
Lfunc_begin10:
	.loc	4 552 0
	.cfi_startproc
	pushq	%rbp
	.cfi_def_cfa_offset 16
	.cfi_offset %rbp, -16
	movq	%rsp, %rbp
	.cfi_def_cfa_register %rbp
	subq	$16, %rsp
	movsd	%xmm0, -8(%rbp)
Ltmp203:
	.loc	4 553 18 prologue_end
	callq	_cbrt
	.loc	4 554 6
	addq	$16, %rsp
	popq	%rbp
	retq
Ltmp204:
Lfunc_end10:
	.cfi_endproc

	.p2align	4, 0x90
__ZN3std3f6421_$LT$impl$u20$f64$GT$4sqrt17hca23f3649c6e275aE:
Lfunc_begin11:
	.loc	4 364 0
	.cfi_startproc
	pushq	%rbp
	.cfi_def_cfa_offset 16
	.cfi_offset %rbp, -16
	movq	%rsp, %rbp
	.cfi_def_cfa_register %rbp
	subq	$16, %rsp
	movsd	%xmm0, -16(%rbp)
Ltmp205:
	.loc	4 365 18 prologue_end
	sqrtsd	%xmm0, %xmm0
	movsd	%xmm0, -8(%rbp)
	movsd	-8(%rbp), %xmm0
	.loc	4 366 6
	addq	$16, %rsp
	popq	%rbp
	retq
Ltmp206:
Lfunc_end11:
	.cfi_endproc

	.p2align	4, 0x90
__ZN47_$LT$u32$u20$as$u20$core..iter..range..Step$GT$18backward_unchecked17hdfa6e86b4b6981f8E:
Lfunc_begin12:
	.file	5 "/rustc/2c8cc343237b8f7d5a3c3703e3a87f2eb2c54a74/library/core/src/iter" "range.rs"
	.loc	5 195 0
	.cfi_startproc
	pushq	%rbp
	.cfi_def_cfa_offset 16
	.cfi_offset %rbp, -16
	movq	%rsp, %rbp
	.cfi_def_cfa_register %rbp
	subq	$32, %rsp
	movl	%edi, -28(%rbp)
	movq	%rsi, -24(%rbp)
Ltmp207:
	.loc	5 197 22 prologue_end
	movl	%edi, -12(%rbp)
	.loc	5 197 42 is_stmt 0
	movl	%esi, %eax
	movl	%eax, -8(%rbp)
Ltmp208:
	.file	6 "/rustc/2c8cc343237b8f7d5a3c3703e3a87f2eb2c54a74/library/core/src/num" "uint_macros.rs"
	.loc	6 539 22 is_stmt 1
	subl	%eax, %edi
	movl	%edi, -4(%rbp)
	movl	-4(%rbp), %eax
Ltmp209:
	.loc	5 198 10
	addq	$32, %rsp
	popq	%rbp
	retq
Ltmp210:
Lfunc_end12:
	.cfi_endproc

	.p2align	4, 0x90
__ZN47_$LT$u8$u20$as$u20$num_traits..int..PrimInt$GT$13leading_zeros17hab97e374d25b0fe5E:
Lfunc_begin13:
	.file	7 "/Users/natalie/.cargo/registry/src/github.com-1ecc6299db9ec823/num-traits-0.2.15/src" "int.rs"
	.loc	7 414 0
	.cfi_startproc
	pushq	%rbp
	.cfi_def_cfa_offset 16
	.cfi_offset %rbp, -16
	movq	%rsp, %rbp
	.cfi_def_cfa_register %rbp
	subq	$3, %rsp
	movb	%dil, %al
	movb	%al, -3(%rbp)
	movb	%al, -2(%rbp)
Ltmp211:
	.loc	6 131 13 prologue_end
	movzbl	%al, %eax
	bsrl	%eax, %eax
	movl	$15, %ecx
	cmovel	%ecx, %eax
	xorl	$7, %eax
	movb	%al, -1(%rbp)
	movzbl	-1(%rbp), %eax
Ltmp212:
	.loc	7 416 14
	addq	$3, %rsp
	popq	%rbp
	retq
Ltmp213:
Lfunc_end13:
	.cfi_endproc

	.p2align	4, 0x90
__ZN48_$LT$u16$u20$as$u20$num_traits..int..PrimInt$GT$13leading_zeros17h98bc583ddeaf6ec7E:
Lfunc_begin14:
	.loc	7 414 0
	.cfi_startproc
	pushq	%rbp
	.cfi_def_cfa_offset 16
	.cfi_offset %rbp, -16
	movq	%rsp, %rbp
	.cfi_def_cfa_register %rbp
	subq	$6, %rsp
	movw	%di, %ax
	movw	%ax, -6(%rbp)
	movw	%ax, -4(%rbp)
Ltmp214:
	.loc	6 131 13 prologue_end
	bsrw	%ax, %cx
	movw	$31, %ax
	cmovew	%ax, %cx
	movw	%cx, %ax
	xorl	$15, %eax
	movw	%ax, -2(%rbp)
	movzwl	-2(%rbp), %eax
Ltmp215:
	.loc	7 416 14
	addq	$6, %rsp
	popq	%rbp
	retq
Ltmp216:
Lfunc_end14:
	.cfi_endproc

	.p2align	4, 0x90
__ZN48_$LT$u32$u20$as$u20$num_traits..int..PrimInt$GT$13leading_zeros17h03b02d22505dfc7fE:
Lfunc_begin15:
	.loc	7 414 0
	.cfi_startproc
	pushq	%rbp
	.cfi_def_cfa_offset 16
	.cfi_offset %rbp, -16
	movq	%rsp, %rbp
	.cfi_def_cfa_register %rbp
	subq	$12, %rsp
	movl	%edi, -12(%rbp)
	movl	%edi, -8(%rbp)
Ltmp217:
	.loc	6 131 13 prologue_end
	bsrl	%edi, %eax
	movl	$63, %ecx
	cmovel	%ecx, %eax
	xorl	$31, %eax
	movl	%eax, -4(%rbp)
	movl	-4(%rbp), %eax
Ltmp218:
	.loc	7 416 14
	addq	$12, %rsp
	popq	%rbp
	retq
Ltmp219:
Lfunc_end15:
	.cfi_endproc

	.p2align	4, 0x90
__ZN48_$LT$u64$u20$as$u20$num_traits..int..PrimInt$GT$13leading_zeros17hff210f9c77fa55a8E:
Lfunc_begin16:
	.loc	7 414 0
	.cfi_startproc
	pushq	%rbp
	.cfi_def_cfa_offset 16
	.cfi_offset %rbp, -16
	movq	%rsp, %rbp
	.cfi_def_cfa_register %rbp
	subq	$24, %rsp
	movq	%rdi, -24(%rbp)
	movq	%rdi, -16(%rbp)
Ltmp220:
	.loc	6 131 13 prologue_end
	bsrq	%rdi, %rax
	movl	$127, %ecx
	cmoveq	%rcx, %rax
	xorq	$63, %rax
	movq	%rax, -8(%rbp)
	movq	-8(%rbp), %rax
Ltmp221:
	.loc	7 416 14
	addq	$24, %rsp
	popq	%rbp
	retq
Ltmp222:
Lfunc_end16:
	.cfi_endproc

	.p2align	4, 0x90
__ZN49_$LT$u128$u20$as$u20$num_traits..int..PrimInt$GT$13leading_zeros17h8356f1f697a88121E:
Lfunc_begin17:
	.loc	7 414 0
	.cfi_startproc
	pushq	%rbp
	.cfi_def_cfa_offset 16
	.cfi_offset %rbp, -16
	movq	%rsp, %rbp
	.cfi_def_cfa_register %rbp
	subq	$48, %rsp
	movq	%rdi, -48(%rbp)
	movq	%rsi, -40(%rbp)
	movq	%rsi, -24(%rbp)
	movq	%rdi, -32(%rbp)
Ltmp223:
	.loc	6 131 13 prologue_end
	bsrq	%rdi, %rax
	movl	$127, %ecx
	cmoveq	%rcx, %rax
	xorq	$63, %rax
	addq	$64, %rax
	bsrq	%rsi, %rcx
	xorq	$63, %rcx
	testq	%rsi, %rsi
	cmovneq	%rcx, %rax
	movq	%rax, -16(%rbp)
	movq	$0, -8(%rbp)
	movl	-16(%rbp), %eax
Ltmp224:
	.loc	7 416 14
	addq	$48, %rsp
	popq	%rbp
	retq
Ltmp225:
Lfunc_end17:
	.cfi_endproc

	.p2align	4, 0x90
__ZN4core3cmp5impls54_$LT$impl$u20$core..cmp..PartialOrd$u20$for$u20$u8$GT$2gt17h51d1cc18db844a9dE:
Lfunc_begin18:
	.file	8 "/rustc/2c8cc343237b8f7d5a3c3703e3a87f2eb2c54a74/library/core/src" "cmp.rs"
	.loc	8 1447 0
	.cfi_startproc
	pushq	%rbp
	.cfi_def_cfa_offset 16
	.cfi_offset %rbp, -16
	movq	%rsp, %rbp
	.cfi_def_cfa_register %rbp
	subq	$16, %rsp
	movq	%rdi, -16(%rbp)
	movq	%rsi, -8(%rbp)
Ltmp226:
	.loc	8 1447 52 prologue_end
	movb	(%rdi), %al
	cmpb	(%rsi), %al
	seta	%al
	.loc	8 1447 72 is_stmt 0
	andb	$1, %al
	movzbl	%al, %eax
	addq	$16, %rsp
	popq	%rbp
	retq
Ltmp227:
Lfunc_end18:
	.cfi_endproc

	.p2align	4, 0x90
__ZN4core3cmp5impls54_$LT$impl$u20$core..cmp..PartialOrd$u20$for$u20$u8$GT$2lt17hba868800f154de7fE:
Lfunc_begin19:
	.loc	8 1441 0 is_stmt 1
	.cfi_startproc
	pushq	%rbp
	.cfi_def_cfa_offset 16
	.cfi_offset %rbp, -16
	movq	%rsp, %rbp
	.cfi_def_cfa_register %rbp
	subq	$16, %rsp
	movq	%rdi, -16(%rbp)
	movq	%rsi, -8(%rbp)
Ltmp228:
	.loc	8 1441 52 prologue_end
	movb	(%rdi), %al
	cmpb	(%rsi), %al
	setb	%al
	.loc	8 1441 72 is_stmt 0
	andb	$1, %al
	movzbl	%al, %eax
	addq	$16, %rsp
	popq	%rbp
	retq
Ltmp229:
Lfunc_end19:
	.cfi_endproc

	.p2align	4, 0x90
__ZN4core3cmp5impls55_$LT$impl$u20$core..cmp..PartialOrd$u20$for$u20$u16$GT$2gt17h7480489111cdc830E:
Lfunc_begin20:
	.loc	8 1447 0 is_stmt 1
	.cfi_startproc
	pushq	%rbp
	.cfi_def_cfa_offset 16
	.cfi_offset %rbp, -16
	movq	%rsp, %rbp
	.cfi_def_cfa_register %rbp
	subq	$16, %rsp
	movq	%rdi, -16(%rbp)
	movq	%rsi, -8(%rbp)
Ltmp230:
	.loc	8 1447 52 prologue_end
	movw	(%rdi), %ax
	cmpw	(%rsi), %ax
	seta	%al
	.loc	8 1447 72 is_stmt 0
	andb	$1, %al
	movzbl	%al, %eax
	addq	$16, %rsp
	popq	%rbp
	retq
Ltmp231:
Lfunc_end20:
	.cfi_endproc

	.p2align	4, 0x90
__ZN4core3cmp5impls55_$LT$impl$u20$core..cmp..PartialOrd$u20$for$u20$u16$GT$2lt17h9908771121570d45E:
Lfunc_begin21:
	.loc	8 1441 0 is_stmt 1
	.cfi_startproc
	pushq	%rbp
	.cfi_def_cfa_offset 16
	.cfi_offset %rbp, -16
	movq	%rsp, %rbp
	.cfi_def_cfa_register %rbp
	subq	$16, %rsp
	movq	%rdi, -16(%rbp)
	movq	%rsi, -8(%rbp)
Ltmp232:
	.loc	8 1441 52 prologue_end
	movw	(%rdi), %ax
	cmpw	(%rsi), %ax
	setb	%al
	.loc	8 1441 72 is_stmt 0
	andb	$1, %al
	movzbl	%al, %eax
	addq	$16, %rsp
	popq	%rbp
	retq
Ltmp233:
Lfunc_end21:
	.cfi_endproc

	.p2align	4, 0x90
__ZN4core3cmp5impls55_$LT$impl$u20$core..cmp..PartialOrd$u20$for$u20$u32$GT$2gt17h903e17aafd3ac95eE:
Lfunc_begin22:
	.loc	8 1447 0 is_stmt 1
	.cfi_startproc
	pushq	%rbp
	.cfi_def_cfa_offset 16
	.cfi_offset %rbp, -16
	movq	%rsp, %rbp
	.cfi_def_cfa_register %rbp
	subq	$16, %rsp
	movq	%rdi, -16(%rbp)
	movq	%rsi, -8(%rbp)
Ltmp234:
	.loc	8 1447 52 prologue_end
	movl	(%rdi), %eax
	cmpl	(%rsi), %eax
	seta	%al
	.loc	8 1447 72 is_stmt 0
	andb	$1, %al
	movzbl	%al, %eax
	addq	$16, %rsp
	popq	%rbp
	retq
Ltmp235:
Lfunc_end22:
	.cfi_endproc

	.p2align	4, 0x90
__ZN4core3cmp5impls55_$LT$impl$u20$core..cmp..PartialOrd$u20$for$u20$u32$GT$2lt17hc11d0a3e8e4b2ee9E:
Lfunc_begin23:
	.loc	8 1441 0 is_stmt 1
	.cfi_startproc
	pushq	%rbp
	.cfi_def_cfa_offset 16
	.cfi_offset %rbp, -16
	movq	%rsp, %rbp
	.cfi_def_cfa_register %rbp
	subq	$16, %rsp
	movq	%rdi, -16(%rbp)
	movq	%rsi, -8(%rbp)
Ltmp236:
	.loc	8 1441 52 prologue_end
	movl	(%rdi), %eax
	cmpl	(%rsi), %eax
	setb	%al
	.loc	8 1441 72 is_stmt 0
	andb	$1, %al
	movzbl	%al, %eax
	addq	$16, %rsp
	popq	%rbp
	retq
Ltmp237:
Lfunc_end23:
	.cfi_endproc

	.p2align	4, 0x90
__ZN4core3cmp5impls55_$LT$impl$u20$core..cmp..PartialOrd$u20$for$u20$u64$GT$2gt17heef776fa57c8b6bdE:
Lfunc_begin24:
	.loc	8 1447 0 is_stmt 1
	.cfi_startproc
	pushq	%rbp
	.cfi_def_cfa_offset 16
	.cfi_offset %rbp, -16
	movq	%rsp, %rbp
	.cfi_def_cfa_register %rbp
	subq	$16, %rsp
	movq	%rdi, -16(%rbp)
	movq	%rsi, -8(%rbp)
Ltmp238:
	.loc	8 1447 52 prologue_end
	movq	(%rdi), %rax
	cmpq	(%rsi), %rax
	seta	%al
	.loc	8 1447 72 is_stmt 0
	andb	$1, %al
	movzbl	%al, %eax
	addq	$16, %rsp
	popq	%rbp
	retq
Ltmp239:
Lfunc_end24:
	.cfi_endproc

	.p2align	4, 0x90
__ZN4core3cmp5impls55_$LT$impl$u20$core..cmp..PartialOrd$u20$for$u20$u64$GT$2lt17hd250d62dccd5e7cfE:
Lfunc_begin25:
	.loc	8 1441 0 is_stmt 1
	.cfi_startproc
	pushq	%rbp
	.cfi_def_cfa_offset 16
	.cfi_offset %rbp, -16
	movq	%rsp, %rbp
	.cfi_def_cfa_register %rbp
	subq	$16, %rsp
	movq	%rdi, -16(%rbp)
	movq	%rsi, -8(%rbp)
Ltmp240:
	.loc	8 1441 52 prologue_end
	movq	(%rdi), %rax
	cmpq	(%rsi), %rax
	setb	%al
	.loc	8 1441 72 is_stmt 0
	andb	$1, %al
	movzbl	%al, %eax
	addq	$16, %rsp
	popq	%rbp
	retq
Ltmp241:
Lfunc_end25:
	.cfi_endproc

	.p2align	4, 0x90
__ZN4core3cmp5impls56_$LT$impl$u20$core..cmp..PartialOrd$u20$for$u20$u128$GT$2gt17h26eb12e0cebf5470E:
Lfunc_begin26:
	.loc	8 1447 0 is_stmt 1
	.cfi_startproc
	pushq	%rbp
	.cfi_def_cfa_offset 16
	.cfi_offset %rbp, -16
	movq	%rsp, %rbp
	.cfi_def_cfa_register %rbp
	subq	$16, %rsp
	movq	%rsi, %rax
	movq	%rdi, -16(%rbp)
	movq	%rax, -8(%rbp)
Ltmp242:
	.loc	8 1447 52 prologue_end
	movq	(%rdi), %rsi
	movq	8(%rdi), %rcx
	.loc	8 1447 62 is_stmt 0
	movq	(%rax), %rdx
	movq	8(%rax), %rax
	.loc	8 1447 52
	subq	%rsi, %rdx
	sbbq	%rcx, %rax
	setb	%al
	.loc	8 1447 72
	andb	$1, %al
	movzbl	%al, %eax
	addq	$16, %rsp
	popq	%rbp
	retq
Ltmp243:
Lfunc_end26:
	.cfi_endproc

	.p2align	4, 0x90
__ZN4core3cmp5impls56_$LT$impl$u20$core..cmp..PartialOrd$u20$for$u20$u128$GT$2lt17h02528b3a523dde43E:
Lfunc_begin27:
	.loc	8 1441 0 is_stmt 1
	.cfi_startproc
	pushq	%rbp
	.cfi_def_cfa_offset 16
	.cfi_offset %rbp, -16
	movq	%rsp, %rbp
	.cfi_def_cfa_register %rbp
	subq	$16, %rsp
	movq	%rsi, %rcx
	movq	%rdi, -16(%rbp)
	movq	%rcx, -8(%rbp)
Ltmp244:
	.loc	8 1441 52 prologue_end
	movq	(%rdi), %rdx
	movq	8(%rdi), %rax
	.loc	8 1441 62 is_stmt 0
	movq	(%rcx), %rsi
	movq	8(%rcx), %rcx
	.loc	8 1441 52
	subq	%rsi, %rdx
	sbbq	%rcx, %rax
	setb	%al
	.loc	8 1441 72
	andb	$1, %al
	movzbl	%al, %eax
	addq	$16, %rsp
	popq	%rbp
	retq
Ltmp245:
Lfunc_end27:
	.cfi_endproc

	.p2align	4, 0x90
__ZN4core3cmp5impls57_$LT$impl$u20$core..cmp..PartialOrd$u20$for$u20$usize$GT$2gt17hee0b050ce1d4d1c3E:
Lfunc_begin28:
	.loc	8 1447 0 is_stmt 1
	.cfi_startproc
	pushq	%rbp
	.cfi_def_cfa_offset 16
	.cfi_offset %rbp, -16
	movq	%rsp, %rbp
	.cfi_def_cfa_register %rbp
	subq	$16, %rsp
	movq	%rdi, -16(%rbp)
	movq	%rsi, -8(%rbp)
Ltmp246:
	.loc	8 1447 52 prologue_end
	movq	(%rdi), %rax
	cmpq	(%rsi), %rax
	seta	%al
	.loc	8 1447 72 is_stmt 0
	andb	$1, %al
	movzbl	%al, %eax
	addq	$16, %rsp
	popq	%rbp
	retq
Ltmp247:
Lfunc_end28:
	.cfi_endproc

	.p2align	4, 0x90
__ZN4core3cmp5impls57_$LT$impl$u20$core..cmp..PartialOrd$u20$for$u20$usize$GT$2lt17hf1b4866872b3681dE:
Lfunc_begin29:
	.loc	8 1441 0 is_stmt 1
	.cfi_startproc
	pushq	%rbp
	.cfi_def_cfa_offset 16
	.cfi_offset %rbp, -16
	movq	%rsp, %rbp
	.cfi_def_cfa_register %rbp
	subq	$16, %rsp
	movq	%rdi, -16(%rbp)
	movq	%rsi, -8(%rbp)
Ltmp248:
	.loc	8 1441 52 prologue_end
	movq	(%rdi), %rax
	cmpq	(%rsi), %rax
	setb	%al
	.loc	8 1441 72 is_stmt 0
	andb	$1, %al
	movzbl	%al, %eax
	addq	$16, %rsp
	popq	%rbp
	retq
Ltmp249:
Lfunc_end29:
	.cfi_endproc

	.p2align	4, 0x90
__ZN4core3num20_$LT$impl$u20$u8$GT$11checked_mul17hb47c587eeb819dbfE:
Lfunc_begin30:
	.loc	6 558 0 is_stmt 1
	.cfi_startproc
	pushq	%rbp
	.cfi_def_cfa_offset 16
	.cfi_offset %rbp, -16
	movq	%rsp, %rbp
	.cfi_def_cfa_register %rbp
	subq	$32, %rsp
	movb	%sil, %cl
	movb	%dil, %al
	movb	%al, -12(%rbp)
	movb	%cl, -11(%rbp)
Ltmp250:
	.loc	6 559 26 prologue_end
	movb	%al, -10(%rbp)
	.loc	6 559 47 is_stmt 0
	movb	%cl, -9(%rbp)
Ltmp251:
	.loc	6 1677 26 is_stmt 1
	mulb	%cl
	movb	%al, %cl
	seto	%al
	andb	$1, %al
	movb	%cl, -8(%rbp)
	movb	%al, -7(%rbp)
	movb	-8(%rbp), %cl
	movb	-7(%rbp), %al
	.loc	6 1677 18 is_stmt 0
	movb	%cl, -5(%rbp)
	.loc	6 1677 21
	movb	%al, %dl
	andb	$1, %dl
	movb	%dl, -4(%rbp)
Ltmp252:
	.loc	6 1678 13 is_stmt 1
	movb	%cl, -16(%rbp)
	andb	$1, %al
	movb	%al, -15(%rbp)
Ltmp253:
	.loc	6 559 18
	movb	-16(%rbp), %al
	movb	%al, -25(%rbp)
	movb	%al, -3(%rbp)
	.loc	6 559 21 is_stmt 0
	movb	-15(%rbp), %al
	movb	%al, %cl
	andb	$1, %cl
	movb	%cl, -2(%rbp)
Ltmp254:
	.loc	6 560 16 is_stmt 1
	andb	$1, %al
	movb	%al, -1(%rbp)
	testb	$1, -1(%rbp)
	jne	LBB30_2
	.loc	6 0 16 is_stmt 0
	movb	-25(%rbp), %al
	.loc	6 560 42
	movb	%al, -23(%rbp)
	movb	$1, -24(%rbp)
	.loc	6 560 13
	jmp	LBB30_3
LBB30_2:
	.loc	6 560 30
	movb	$0, -24(%rbp)
Ltmp255:
LBB30_3:
	.loc	6 561 10 is_stmt 1
	movb	-24(%rbp), %al
	movb	-23(%rbp), %dl
	addq	$32, %rsp
	popq	%rbp
	retq
Ltmp256:
Lfunc_end30:
	.cfi_endproc

	.p2align	4, 0x90
__ZN4core3num20_$LT$impl$u20$u8$GT$17next_power_of_two17h5f41085db21f0275E:
Lfunc_begin31:
	.loc	6 2190 0
	.cfi_startproc
	pushq	%rbp
	.cfi_def_cfa_offset 16
	.cfi_offset %rbp, -16
	movq	%rsp, %rbp
	.cfi_def_cfa_register %rbp
	subq	$16, %rsp
	movb	%dil, %al
	movb	%al, -7(%rbp)
	movb	%al, -5(%rbp)
Ltmp257:
	.loc	6 2191 13 prologue_end
	movb	%al, -4(%rbp)
Ltmp258:
	.loc	6 2159 16
	cmpb	$1, %al
	jbe	LBB31_2
	.loc	6 0 16 is_stmt 0
	movb	-7(%rbp), %al
	.loc	6 2161 21 is_stmt 1
	subb	$1, %al
	movb	%al, -3(%rbp)
Ltmp259:
	.loc	6 2166 30
	movzbl	%al, %eax
	bsrl	%eax, %eax
	xorl	$7, %eax
	movb	%al, -2(%rbp)
	movb	-2(%rbp), %cl
	movb	%cl, -1(%rbp)
Ltmp260:
	.loc	6 2167 13
	andb	$7, %cl
	movb	$255, %al
	shrb	%cl, %al
	movb	%al, -6(%rbp)
Ltmp261:
	.loc	6 2168 10
	jmp	LBB31_3
LBB31_2:
	.loc	6 2159 35
	movb	$0, -6(%rbp)
Ltmp262:
LBB31_3:
	.loc	6 2191 13
	movb	-6(%rbp), %al
	addb	$1, %al
	movb	%al, -8(%rbp)
	setb	%al
	testb	$1, %al
	jne	LBB31_5
	.loc	6 0 13 is_stmt 0
	movb	-8(%rbp), %al
	.loc	6 2192 10 is_stmt 1
	addq	$16, %rsp
	popq	%rbp
	retq
LBB31_5:
	.loc	6 2191 13
	leaq	_str.0(%rip), %rdi
	leaq	l___unnamed_1(%rip), %rdx
	movl	$28, %esi
	callq	__ZN4core9panicking5panic17hc1bc45270cf64b03E
Ltmp263:
Lfunc_end31:
	.cfi_endproc

	.p2align	4, 0x90
__ZN4core3num20_$LT$impl$u20$u8$GT$3pow17h56ea136c74547ad1E:
Lfunc_begin32:
	.loc	6 1934 0
	.cfi_startproc
	pushq	%rbp
	.cfi_def_cfa_offset 16
	.cfi_offset %rbp, -16
	movq	%rsp, %rbp
	.cfi_def_cfa_register %rbp
	subq	$16, %rsp
	movb	%dil, %al
	movb	%al, -9(%rbp)
	movl	%esi, -8(%rbp)
	movb	%al, -1(%rbp)
Ltmp264:
	.loc	6 1935 16 prologue_end
	cmpl	$0, -8(%rbp)
	jne	LBB32_2
	.loc	6 1936 24
	movb	$1, -4(%rbp)
	.loc	6 1954 10
	jmp	LBB32_15
LBB32_2:
	.loc	6 0 10 is_stmt 0
	movb	-9(%rbp), %al
	.loc	6 1938 28 is_stmt 1
	movb	%al, -3(%rbp)
Ltmp265:
	.loc	6 1939 27
	movb	$1, -2(%rbp)
LBB32_3:
Ltmp266:
	.loc	6 1941 19
	cmpl	$1, -8(%rbp)
	ja	LBB32_5
	.loc	6 1953 13
	movb	-2(%rbp), %al
	mulb	-3(%rbp)
	movb	%al, -10(%rbp)
	seto	%al
	testb	$1, %al
	jne	LBB32_14
	jmp	LBB32_13
LBB32_5:
	.loc	6 1942 21
	movl	-8(%rbp), %eax
	.loc	6 1942 20 is_stmt 0
	andl	$1, %eax
	cmpl	$1, %eax
	jne	LBB32_7
	.loc	6 1943 27 is_stmt 1
	movb	-2(%rbp), %al
	mulb	-3(%rbp)
	movb	%al, -11(%rbp)
	seto	%al
	testb	$1, %al
	jne	LBB32_10
	jmp	LBB32_9
LBB32_7:
	.loc	6 1942 17
	jmp	LBB32_8
LBB32_8:
	.loc	6 1945 17
	movl	-8(%rbp), %eax
	shrl	$1, %eax
	movl	%eax, -8(%rbp)
	.loc	6 1946 24
	movb	-3(%rbp), %al
	mulb	-3(%rbp)
	movb	%al, -12(%rbp)
	seto	%al
	testb	$1, %al
	jne	LBB32_12
	jmp	LBB32_11
LBB32_9:
	.loc	6 0 24 is_stmt 0
	movb	-11(%rbp), %al
	.loc	6 1943 21 is_stmt 1
	movb	%al, -2(%rbp)
	.loc	6 1942 17
	jmp	LBB32_8
LBB32_10:
	.loc	6 1943 27
	leaq	_str.1(%rip), %rdi
	leaq	l___unnamed_1(%rip), %rdx
	movl	$33, %esi
	callq	__ZN4core9panicking5panic17hc1bc45270cf64b03E
LBB32_11:
	.loc	6 0 27 is_stmt 0
	movb	-12(%rbp), %al
	.loc	6 1946 17 is_stmt 1
	movb	%al, -3(%rbp)
	.loc	6 1941 13
	jmp	LBB32_3
LBB32_12:
	.loc	6 1946 24
	leaq	_str.1(%rip), %rdi
	leaq	l___unnamed_1(%rip), %rdx
	movl	$33, %esi
	callq	__ZN4core9panicking5panic17hc1bc45270cf64b03E
LBB32_13:
	.loc	6 0 24 is_stmt 0
	movb	-10(%rbp), %al
	.loc	6 1953 13 is_stmt 1
	movb	%al, -4(%rbp)
Ltmp267:
	.loc	6 1954 10
	jmp	LBB32_15
LBB32_14:
Ltmp268:
	.loc	6 1953 13
	leaq	_str.1(%rip), %rdi
	leaq	l___unnamed_1(%rip), %rdx
	movl	$33, %esi
	callq	__ZN4core9panicking5panic17hc1bc45270cf64b03E
Ltmp269:
LBB32_15:
	.loc	6 1954 10
	movb	-4(%rbp), %al
	addq	$16, %rsp
	popq	%rbp
	retq
Ltmp270:
Lfunc_end32:
	.cfi_endproc

	.p2align	4, 0x90
__ZN4core3num21_$LT$impl$u20$u16$GT$11checked_mul17h071b6a647d5208a1E:
Lfunc_begin33:
	.loc	6 558 0
	.cfi_startproc
	pushq	%rbp
	.cfi_def_cfa_offset 16
	.cfi_offset %rbp, -16
	movq	%rsp, %rbp
	.cfi_def_cfa_register %rbp
	subq	$48, %rsp
	movw	%si, %cx
	movw	%di, %ax
	movw	%ax, -24(%rbp)
	movw	%cx, -22(%rbp)
Ltmp271:
	.loc	6 559 26 prologue_end
	movw	%ax, -20(%rbp)
	.loc	6 559 47 is_stmt 0
	movw	%cx, -18(%rbp)
Ltmp272:
	.loc	6 1677 26 is_stmt 1
	mulw	%cx
	movw	%ax, %cx
	seto	%al
	andb	$1, %al
	movw	%cx, -16(%rbp)
	movb	%al, -14(%rbp)
	movw	-16(%rbp), %cx
	movb	-14(%rbp), %al
	.loc	6 1677 18 is_stmt 0
	movw	%cx, -8(%rbp)
	.loc	6 1677 21
	movb	%al, %dl
	andb	$1, %dl
	movb	%dl, -5(%rbp)
Ltmp273:
	.loc	6 1678 13 is_stmt 1
	movw	%cx, -32(%rbp)
	andb	$1, %al
	movb	%al, -30(%rbp)
Ltmp274:
	.loc	6 559 18
	movw	-32(%rbp), %ax
	movw	%ax, -42(%rbp)
	movw	%ax, -4(%rbp)
	.loc	6 559 21 is_stmt 0
	movb	-30(%rbp), %al
	movb	%al, %cl
	andb	$1, %cl
	movb	%cl, -2(%rbp)
Ltmp275:
	.loc	6 560 16 is_stmt 1
	andb	$1, %al
	movb	%al, -1(%rbp)
	testb	$1, -1(%rbp)
	jne	LBB33_2
	.loc	6 0 16 is_stmt 0
	movw	-42(%rbp), %ax
	.loc	6 560 42
	movw	%ax, -38(%rbp)
	movw	$1, -40(%rbp)
	.loc	6 560 13
	jmp	LBB33_3
LBB33_2:
	.loc	6 560 30
	movw	$0, -40(%rbp)
Ltmp276:
LBB33_3:
	.loc	6 561 10 is_stmt 1
	movw	-40(%rbp), %ax
	movw	-38(%rbp), %dx
	addq	$48, %rsp
	popq	%rbp
	retq
Ltmp277:
Lfunc_end33:
	.cfi_endproc

	.p2align	4, 0x90
__ZN4core3num21_$LT$impl$u20$u16$GT$17next_power_of_two17hc3db77f0f7f0b3d3E:
Lfunc_begin34:
	.loc	6 2190 0
	.cfi_startproc
	pushq	%rbp
	.cfi_def_cfa_offset 16
	.cfi_offset %rbp, -16
	movq	%rsp, %rbp
	.cfi_def_cfa_register %rbp
	subq	$16, %rsp
	movw	%di, %ax
	movw	%ax, -14(%rbp)
	movw	%ax, -10(%rbp)
Ltmp278:
	.loc	6 2191 13 prologue_end
	movw	%ax, -8(%rbp)
Ltmp279:
	.loc	6 2159 16
	cmpw	$1, %ax
	jbe	LBB34_2
	.loc	6 0 16 is_stmt 0
	movw	-14(%rbp), %ax
	.loc	6 2161 21 is_stmt 1
	subw	$1, %ax
	movw	%ax, -6(%rbp)
Ltmp280:
	.loc	6 2166 30
	bsrw	%ax, %cx
	movw	%cx, %ax
	xorl	$15, %eax
	movw	%ax, -4(%rbp)
	movw	-4(%rbp), %cx
	movw	%cx, -2(%rbp)
Ltmp281:
	.loc	6 2167 13
	andw	$15, %cx
	movw	$65535, %ax
	shrw	%cl, %ax
	movw	%ax, -12(%rbp)
Ltmp282:
	.loc	6 2168 10
	jmp	LBB34_3
LBB34_2:
	.loc	6 2159 35
	movw	$0, -12(%rbp)
Ltmp283:
LBB34_3:
	.loc	6 2191 13
	movw	-12(%rbp), %ax
	addw	$1, %ax
	movw	%ax, -16(%rbp)
	setb	%al
	testb	$1, %al
	jne	LBB34_5
	.loc	6 0 13 is_stmt 0
	movw	-16(%rbp), %ax
	.loc	6 2192 10 is_stmt 1
	addq	$16, %rsp
	popq	%rbp
	retq
LBB34_5:
	.loc	6 2191 13
	leaq	_str.0(%rip), %rdi
	leaq	l___unnamed_2(%rip), %rdx
	movl	$28, %esi
	callq	__ZN4core9panicking5panic17hc1bc45270cf64b03E
Ltmp284:
Lfunc_end34:
	.cfi_endproc

	.p2align	4, 0x90
__ZN4core3num21_$LT$impl$u20$u16$GT$3pow17h289633b47e552426E:
Lfunc_begin35:
	.loc	6 1934 0
	.cfi_startproc
	pushq	%rbp
	.cfi_def_cfa_offset 16
	.cfi_offset %rbp, -16
	movq	%rsp, %rbp
	.cfi_def_cfa_register %rbp
	subq	$32, %rsp
	movw	%di, %ax
	movw	%ax, -14(%rbp)
	movl	%esi, -12(%rbp)
	movw	%ax, -2(%rbp)
Ltmp285:
	.loc	6 1935 16 prologue_end
	cmpl	$0, -12(%rbp)
	jne	LBB35_2
	.loc	6 1936 24
	movw	$1, -8(%rbp)
	.loc	6 1954 10
	jmp	LBB35_15
LBB35_2:
	.loc	6 0 10 is_stmt 0
	movw	-14(%rbp), %ax
	.loc	6 1938 28 is_stmt 1
	movw	%ax, -6(%rbp)
Ltmp286:
	.loc	6 1939 27
	movw	$1, -4(%rbp)
LBB35_3:
Ltmp287:
	.loc	6 1941 19
	cmpl	$1, -12(%rbp)
	ja	LBB35_5
	.loc	6 1953 13
	movw	-4(%rbp), %ax
	mulw	-6(%rbp)
	movw	%ax, -16(%rbp)
	seto	%al
	testb	$1, %al
	jne	LBB35_14
	jmp	LBB35_13
LBB35_5:
	.loc	6 1942 21
	movl	-12(%rbp), %eax
	.loc	6 1942 20 is_stmt 0
	andl	$1, %eax
	cmpl	$1, %eax
	jne	LBB35_7
	.loc	6 1943 27 is_stmt 1
	movw	-4(%rbp), %ax
	mulw	-6(%rbp)
	movw	%ax, -18(%rbp)
	seto	%al
	testb	$1, %al
	jne	LBB35_10
	jmp	LBB35_9
LBB35_7:
	.loc	6 1942 17
	jmp	LBB35_8
LBB35_8:
	.loc	6 1945 17
	movl	-12(%rbp), %eax
	shrl	$1, %eax
	movl	%eax, -12(%rbp)
	.loc	6 1946 24
	movw	-6(%rbp), %ax
	mulw	-6(%rbp)
	movw	%ax, -20(%rbp)
	seto	%al
	testb	$1, %al
	jne	LBB35_12
	jmp	LBB35_11
LBB35_9:
	.loc	6 0 24 is_stmt 0
	movw	-18(%rbp), %ax
	.loc	6 1943 21 is_stmt 1
	movw	%ax, -4(%rbp)
	.loc	6 1942 17
	jmp	LBB35_8
LBB35_10:
	.loc	6 1943 27
	leaq	_str.1(%rip), %rdi
	leaq	l___unnamed_2(%rip), %rdx
	movl	$33, %esi
	callq	__ZN4core9panicking5panic17hc1bc45270cf64b03E
LBB35_11:
	.loc	6 0 27 is_stmt 0
	movw	-20(%rbp), %ax
	.loc	6 1946 17 is_stmt 1
	movw	%ax, -6(%rbp)
	.loc	6 1941 13
	jmp	LBB35_3
LBB35_12:
	.loc	6 1946 24
	leaq	_str.1(%rip), %rdi
	leaq	l___unnamed_2(%rip), %rdx
	movl	$33, %esi
	callq	__ZN4core9panicking5panic17hc1bc45270cf64b03E
LBB35_13:
	.loc	6 0 24 is_stmt 0
	movw	-16(%rbp), %ax
	.loc	6 1953 13 is_stmt 1
	movw	%ax, -8(%rbp)
Ltmp288:
	.loc	6 1954 10
	jmp	LBB35_15
LBB35_14:
Ltmp289:
	.loc	6 1953 13
	leaq	_str.1(%rip), %rdi
	leaq	l___unnamed_2(%rip), %rdx
	movl	$33, %esi
	callq	__ZN4core9panicking5panic17hc1bc45270cf64b03E
Ltmp290:
LBB35_15:
	.loc	6 1954 10
	movw	-8(%rbp), %ax
	addq	$32, %rsp
	popq	%rbp
	retq
Ltmp291:
Lfunc_end35:
	.cfi_endproc

	.p2align	4, 0x90
__ZN4core3num21_$LT$impl$u20$u32$GT$11checked_mul17hb90aa2568cbc9254E:
Lfunc_begin36:
	.loc	6 558 0
	.cfi_startproc
	pushq	%rbp
	.cfi_def_cfa_offset 16
	.cfi_offset %rbp, -16
	movq	%rsp, %rbp
	.cfi_def_cfa_register %rbp
	subq	$64, %rsp
	movl	%edi, %eax
	movl	%eax, -40(%rbp)
	movl	%esi, -36(%rbp)
Ltmp292:
	.loc	6 559 26 prologue_end
	movl	%eax, -32(%rbp)
	.loc	6 559 47 is_stmt 0
	movl	%esi, -28(%rbp)
Ltmp293:
	.loc	6 1677 26 is_stmt 1
	mull	%esi
	movl	%eax, %ecx
	seto	%al
	andb	$1, %al
	movl	%ecx, -24(%rbp)
	movb	%al, -20(%rbp)
	movl	-24(%rbp), %ecx
	movb	-20(%rbp), %al
	.loc	6 1677 18 is_stmt 0
	movl	%ecx, -16(%rbp)
	.loc	6 1677 21
	movb	%al, %dl
	andb	$1, %dl
	movb	%dl, -9(%rbp)
Ltmp294:
	.loc	6 1678 13 is_stmt 1
	movl	%ecx, -48(%rbp)
	andb	$1, %al
	movb	%al, -44(%rbp)
Ltmp295:
	.loc	6 559 18
	movl	-48(%rbp), %eax
	movl	%eax, -60(%rbp)
	movl	%eax, -8(%rbp)
	.loc	6 559 21 is_stmt 0
	movb	-44(%rbp), %al
	movb	%al, %cl
	andb	$1, %cl
	movb	%cl, -2(%rbp)
Ltmp296:
	.loc	6 560 16 is_stmt 1
	andb	$1, %al
	movb	%al, -1(%rbp)
	testb	$1, -1(%rbp)
	jne	LBB36_2
	.loc	6 0 16 is_stmt 0
	movl	-60(%rbp), %eax
	.loc	6 560 42
	movl	%eax, -52(%rbp)
	movl	$1, -56(%rbp)
	.loc	6 560 13
	jmp	LBB36_3
LBB36_2:
	.loc	6 560 30
	movl	$0, -56(%rbp)
Ltmp297:
LBB36_3:
	.loc	6 561 10 is_stmt 1
	movl	-56(%rbp), %eax
	movl	-52(%rbp), %edx
	addq	$64, %rsp
	popq	%rbp
	retq
Ltmp298:
Lfunc_end36:
	.cfi_endproc

	.p2align	4, 0x90
__ZN4core3num21_$LT$impl$u20$u32$GT$17next_power_of_two17hfe80ead803078716E:
Lfunc_begin37:
	.loc	6 2190 0
	.cfi_startproc
	pushq	%rbp
	.cfi_def_cfa_offset 16
	.cfi_offset %rbp, -16
	movq	%rsp, %rbp
	.cfi_def_cfa_register %rbp
	subq	$32, %rsp
	movl	%edi, -28(%rbp)
	movl	%edi, -20(%rbp)
Ltmp299:
	.loc	6 2191 13 prologue_end
	movl	%edi, -16(%rbp)
Ltmp300:
	.loc	6 2159 16
	cmpl	$1, %edi
	jbe	LBB37_2
	.loc	6 0 16 is_stmt 0
	movl	-28(%rbp), %eax
	.loc	6 2161 21 is_stmt 1
	subl	$1, %eax
	movl	%eax, -12(%rbp)
Ltmp301:
	.loc	6 2166 30
	bsrl	%eax, %eax
	xorl	$31, %eax
	movl	%eax, -8(%rbp)
	movl	-8(%rbp), %ecx
	movl	%ecx, -4(%rbp)
Ltmp302:
	.loc	6 2167 13
	andl	$31, %ecx
	movl	$4294967295, %eax
	shrl	%cl, %eax
	movl	%eax, -24(%rbp)
Ltmp303:
	.loc	6 2168 10
	jmp	LBB37_3
LBB37_2:
	.loc	6 2159 35
	movl	$0, -24(%rbp)
Ltmp304:
LBB37_3:
	.loc	6 2191 13
	movl	-24(%rbp), %eax
	addl	$1, %eax
	movl	%eax, -32(%rbp)
	setb	%al
	testb	$1, %al
	jne	LBB37_5
	.loc	6 0 13 is_stmt 0
	movl	-32(%rbp), %eax
	.loc	6 2192 10 is_stmt 1
	addq	$32, %rsp
	popq	%rbp
	retq
LBB37_5:
	.loc	6 2191 13
	leaq	_str.0(%rip), %rdi
	leaq	l___unnamed_3(%rip), %rdx
	movl	$28, %esi
	callq	__ZN4core9panicking5panic17hc1bc45270cf64b03E
Ltmp305:
Lfunc_end37:
	.cfi_endproc

	.p2align	4, 0x90
__ZN4core3num21_$LT$impl$u20$u32$GT$3pow17h44b6d34ffa9335b3E:
Lfunc_begin38:
	.loc	6 1934 0
	.cfi_startproc
	pushq	%rbp
	.cfi_def_cfa_offset 16
	.cfi_offset %rbp, -16
	movq	%rsp, %rbp
	.cfi_def_cfa_register %rbp
	subq	$48, %rsp
	movl	%edi, -24(%rbp)
	movl	%esi, -20(%rbp)
	movl	%edi, -4(%rbp)
Ltmp306:
	.loc	6 1935 16 prologue_end
	cmpl	$0, -20(%rbp)
	jne	LBB38_2
	.loc	6 1936 24
	movl	$1, -16(%rbp)
	.loc	6 1954 10
	jmp	LBB38_15
LBB38_2:
	.loc	6 0 10 is_stmt 0
	movl	-24(%rbp), %eax
	.loc	6 1938 28 is_stmt 1
	movl	%eax, -12(%rbp)
Ltmp307:
	.loc	6 1939 27
	movl	$1, -8(%rbp)
LBB38_3:
Ltmp308:
	.loc	6 1941 19
	cmpl	$1, -20(%rbp)
	ja	LBB38_5
	.loc	6 1953 13
	movl	-8(%rbp), %eax
	mull	-12(%rbp)
	movl	%eax, -28(%rbp)
	seto	%al
	testb	$1, %al
	jne	LBB38_14
	jmp	LBB38_13
LBB38_5:
	.loc	6 1942 21
	movl	-20(%rbp), %eax
	.loc	6 1942 20 is_stmt 0
	andl	$1, %eax
	cmpl	$1, %eax
	jne	LBB38_7
	.loc	6 1943 27 is_stmt 1
	movl	-8(%rbp), %eax
	mull	-12(%rbp)
	movl	%eax, -32(%rbp)
	seto	%al
	testb	$1, %al
	jne	LBB38_10
	jmp	LBB38_9
LBB38_7:
	.loc	6 1942 17
	jmp	LBB38_8
LBB38_8:
	.loc	6 1945 17
	movl	-20(%rbp), %eax
	shrl	$1, %eax
	movl	%eax, -20(%rbp)
	.loc	6 1946 24
	movl	-12(%rbp), %eax
	mull	-12(%rbp)
	movl	%eax, -36(%rbp)
	seto	%al
	testb	$1, %al
	jne	LBB38_12
	jmp	LBB38_11
LBB38_9:
	.loc	6 0 24 is_stmt 0
	movl	-32(%rbp), %eax
	.loc	6 1943 21 is_stmt 1
	movl	%eax, -8(%rbp)
	.loc	6 1942 17
	jmp	LBB38_8
LBB38_10:
	.loc	6 1943 27
	leaq	_str.1(%rip), %rdi
	leaq	l___unnamed_3(%rip), %rdx
	movl	$33, %esi
	callq	__ZN4core9panicking5panic17hc1bc45270cf64b03E
LBB38_11:
	.loc	6 0 27 is_stmt 0
	movl	-36(%rbp), %eax
	.loc	6 1946 17 is_stmt 1
	movl	%eax, -12(%rbp)
	.loc	6 1941 13
	jmp	LBB38_3
LBB38_12:
	.loc	6 1946 24
	leaq	_str.1(%rip), %rdi
	leaq	l___unnamed_3(%rip), %rdx
	movl	$33, %esi
	callq	__ZN4core9panicking5panic17hc1bc45270cf64b03E
LBB38_13:
	.loc	6 0 24 is_stmt 0
	movl	-28(%rbp), %eax
	.loc	6 1953 13 is_stmt 1
	movl	%eax, -16(%rbp)
Ltmp309:
	.loc	6 1954 10
	jmp	LBB38_15
LBB38_14:
Ltmp310:
	.loc	6 1953 13
	leaq	_str.1(%rip), %rdi
	leaq	l___unnamed_3(%rip), %rdx
	movl	$33, %esi
	callq	__ZN4core9panicking5panic17hc1bc45270cf64b03E
Ltmp311:
LBB38_15:
	.loc	6 1954 10
	movl	-16(%rbp), %eax
	addq	$48, %rsp
	popq	%rbp
	retq
Ltmp312:
Lfunc_end38:
	.cfi_endproc

	.p2align	4, 0x90
__ZN4core3num21_$LT$impl$u20$u64$GT$11checked_mul17haf9390b750a82242E:
Lfunc_begin39:
	.loc	6 558 0
	.cfi_startproc
	pushq	%rbp
	.cfi_def_cfa_offset 16
	.cfi_offset %rbp, -16
	movq	%rsp, %rbp
	.cfi_def_cfa_register %rbp
	subq	$120, %rsp
	movq	%rdi, %rax
	movq	%rax, -80(%rbp)
	movq	%rsi, -72(%rbp)
Ltmp313:
	.loc	6 559 26 prologue_end
	movq	%rax, -64(%rbp)
	.loc	6 559 47 is_stmt 0
	movq	%rsi, -56(%rbp)
Ltmp314:
	.loc	6 1677 26 is_stmt 1
	mulq	%rsi
	movq	%rax, %rcx
	seto	%al
	andb	$1, %al
	movq	%rcx, -48(%rbp)
	movb	%al, -40(%rbp)
	movq	-48(%rbp), %rcx
	movb	-40(%rbp), %al
	.loc	6 1677 18 is_stmt 0
	movq	%rcx, -32(%rbp)
	.loc	6 1677 21
	movb	%al, %dl
	andb	$1, %dl
	movb	%dl, -17(%rbp)
Ltmp315:
	.loc	6 1678 13 is_stmt 1
	movq	%rcx, -96(%rbp)
	andb	$1, %al
	movb	%al, -88(%rbp)
Ltmp316:
	.loc	6 559 18
	movq	-96(%rbp), %rax
	movq	%rax, -120(%rbp)
	movq	%rax, -16(%rbp)
	.loc	6 559 21 is_stmt 0
	movb	-88(%rbp), %al
	movb	%al, %cl
	andb	$1, %cl
	movb	%cl, -2(%rbp)
Ltmp317:
	.loc	6 560 16 is_stmt 1
	andb	$1, %al
	movb	%al, -1(%rbp)
	testb	$1, -1(%rbp)
	jne	LBB39_2
	.loc	6 0 16 is_stmt 0
	movq	-120(%rbp), %rax
	.loc	6 560 42
	movq	%rax, -104(%rbp)
	movq	$1, -112(%rbp)
	.loc	6 560 13
	jmp	LBB39_3
LBB39_2:
	.loc	6 560 30
	movq	$0, -112(%rbp)
Ltmp318:
LBB39_3:
	.loc	6 561 10 is_stmt 1
	movq	-112(%rbp), %rax
	movq	-104(%rbp), %rdx
	addq	$120, %rsp
	popq	%rbp
	retq
Ltmp319:
Lfunc_end39:
	.cfi_endproc

	.p2align	4, 0x90
__ZN4core3num21_$LT$impl$u20$u64$GT$17next_power_of_two17h04aea50f2834e570E:
Lfunc_begin40:
	.loc	6 2190 0
	.cfi_startproc
	pushq	%rbp
	.cfi_def_cfa_offset 16
	.cfi_offset %rbp, -16
	movq	%rsp, %rbp
	.cfi_def_cfa_register %rbp
	subq	$64, %rsp
	movq	%rdi, -56(%rbp)
	movq	%rdi, -40(%rbp)
Ltmp320:
	.loc	6 2191 13 prologue_end
	movq	%rdi, -32(%rbp)
Ltmp321:
	.loc	6 2159 16
	cmpq	$1, %rdi
	jbe	LBB40_2
	.loc	6 0 16 is_stmt 0
	movq	-56(%rbp), %rax
	.loc	6 2161 21 is_stmt 1
	subq	$1, %rax
	movq	%rax, -24(%rbp)
Ltmp322:
	.loc	6 2166 30
	bsrq	%rax, %rax
	xorq	$63, %rax
	movq	%rax, -16(%rbp)
	movq	-16(%rbp), %rcx
	movq	%rcx, -8(%rbp)
Ltmp323:
	.loc	6 2167 13
	andq	$63, %rcx
	movq	$-1, %rax
	shrq	%cl, %rax
	movq	%rax, -48(%rbp)
Ltmp324:
	.loc	6 2168 10
	jmp	LBB40_3
LBB40_2:
	.loc	6 2159 35
	movq	$0, -48(%rbp)
Ltmp325:
LBB40_3:
	.loc	6 2191 13
	movq	-48(%rbp), %rax
	addq	$1, %rax
	movq	%rax, -64(%rbp)
	setb	%al
	testb	$1, %al
	jne	LBB40_5
	.loc	6 0 13 is_stmt 0
	movq	-64(%rbp), %rax
	.loc	6 2192 10 is_stmt 1
	addq	$64, %rsp
	popq	%rbp
	retq
LBB40_5:
	.loc	6 2191 13
	leaq	_str.0(%rip), %rdi
	leaq	l___unnamed_4(%rip), %rdx
	movl	$28, %esi
	callq	__ZN4core9panicking5panic17hc1bc45270cf64b03E
Ltmp326:
Lfunc_end40:
	.cfi_endproc

	.p2align	4, 0x90
__ZN4core3num21_$LT$impl$u20$u64$GT$3pow17hbe0727ffd58896e9E:
Lfunc_begin41:
	.loc	6 1934 0
	.cfi_startproc
	pushq	%rbp
	.cfi_def_cfa_offset 16
	.cfi_offset %rbp, -16
	movq	%rsp, %rbp
	.cfi_def_cfa_register %rbp
	subq	$80, %rsp
	movq	%rdi, -48(%rbp)
	movl	%esi, -36(%rbp)
	movq	%rdi, -8(%rbp)
Ltmp327:
	.loc	6 1935 16 prologue_end
	cmpl	$0, -36(%rbp)
	jne	LBB41_2
	.loc	6 1936 24
	movq	$1, -32(%rbp)
	.loc	6 1954 10
	jmp	LBB41_15
LBB41_2:
	.loc	6 0 10 is_stmt 0
	movq	-48(%rbp), %rax
	.loc	6 1938 28 is_stmt 1
	movq	%rax, -24(%rbp)
Ltmp328:
	.loc	6 1939 27
	movq	$1, -16(%rbp)
LBB41_3:
Ltmp329:
	.loc	6 1941 19
	cmpl	$1, -36(%rbp)
	ja	LBB41_5
	.loc	6 1953 13
	movq	-16(%rbp), %rax
	mulq	-24(%rbp)
	movq	%rax, -56(%rbp)
	seto	%al
	testb	$1, %al
	jne	LBB41_14
	jmp	LBB41_13
LBB41_5:
	.loc	6 1942 21
	movl	-36(%rbp), %eax
	.loc	6 1942 20 is_stmt 0
	andl	$1, %eax
	cmpl	$1, %eax
	jne	LBB41_7
	.loc	6 1943 27 is_stmt 1
	movq	-16(%rbp), %rax
	mulq	-24(%rbp)
	movq	%rax, -64(%rbp)
	seto	%al
	testb	$1, %al
	jne	LBB41_10
	jmp	LBB41_9
LBB41_7:
	.loc	6 1942 17
	jmp	LBB41_8
LBB41_8:
	.loc	6 1945 17
	movl	-36(%rbp), %eax
	shrl	$1, %eax
	movl	%eax, -36(%rbp)
	.loc	6 1946 24
	movq	-24(%rbp), %rax
	mulq	-24(%rbp)
	movq	%rax, -72(%rbp)
	seto	%al
	testb	$1, %al
	jne	LBB41_12
	jmp	LBB41_11
LBB41_9:
	.loc	6 0 24 is_stmt 0
	movq	-64(%rbp), %rax
	.loc	6 1943 21 is_stmt 1
	movq	%rax, -16(%rbp)
	.loc	6 1942 17
	jmp	LBB41_8
LBB41_10:
	.loc	6 1943 27
	leaq	_str.1(%rip), %rdi
	leaq	l___unnamed_4(%rip), %rdx
	movl	$33, %esi
	callq	__ZN4core9panicking5panic17hc1bc45270cf64b03E
LBB41_11:
	.loc	6 0 27 is_stmt 0
	movq	-72(%rbp), %rax
	.loc	6 1946 17 is_stmt 1
	movq	%rax, -24(%rbp)
	.loc	6 1941 13
	jmp	LBB41_3
LBB41_12:
	.loc	6 1946 24
	leaq	_str.1(%rip), %rdi
	leaq	l___unnamed_4(%rip), %rdx
	movl	$33, %esi
	callq	__ZN4core9panicking5panic17hc1bc45270cf64b03E
LBB41_13:
	.loc	6 0 24 is_stmt 0
	movq	-56(%rbp), %rax
	.loc	6 1953 13 is_stmt 1
	movq	%rax, -32(%rbp)
Ltmp330:
	.loc	6 1954 10
	jmp	LBB41_15
LBB41_14:
Ltmp331:
	.loc	6 1953 13
	leaq	_str.1(%rip), %rdi
	leaq	l___unnamed_4(%rip), %rdx
	movl	$33, %esi
	callq	__ZN4core9panicking5panic17hc1bc45270cf64b03E
Ltmp332:
LBB41_15:
	.loc	6 1954 10
	movq	-32(%rbp), %rax
	addq	$80, %rsp
	popq	%rbp
	retq
Ltmp333:
Lfunc_end41:
	.cfi_endproc

	.p2align	4, 0x90
__ZN4core3num22_$LT$impl$u20$u128$GT$11checked_mul17ha8aba4d9bbdf1387E:
Lfunc_begin42:
	.loc	6 558 0
	.cfi_startproc
	pushq	%rbp
	.cfi_def_cfa_offset 16
	.cfi_offset %rbp, -16
	movq	%rsp, %rbp
	.cfi_def_cfa_register %rbp
	subq	$232, %rsp
	movq	%rsi, %rax
	movq	%rcx, -232(%rbp)
	movq	%rdx, -224(%rbp)
	movq	%rdi, -216(%rbp)
	movq	%rdi, -136(%rbp)
	movq	%rax, -128(%rbp)
	movq	%rcx, -112(%rbp)
	movq	%rdx, -120(%rbp)
Ltmp334:
	.loc	6 559 26 prologue_end
	movq	%rax, -96(%rbp)
	movq	%rdi, -104(%rbp)
	.loc	6 559 47 is_stmt 0
	movq	%rcx, -80(%rbp)
	movq	%rdx, -88(%rbp)
Ltmp335:
	.loc	6 1677 26 is_stmt 1
	testq	%rcx, %rcx
	setne	%cl
	testq	%rax, %rax
	setne	%dil
	andb	%cl, %dil
	mulq	%rdx
	movq	-216(%rbp), %rdx
	movq	%rax, %rcx
	movq	-232(%rbp), %rax
	seto	%sil
	orb	%sil, %dil
	mulq	%rdx
	movq	-224(%rbp), %rdx
	movq	%rax, %rsi
	movq	-216(%rbp), %rax
	seto	%r8b
	orb	%r8b, %dil
	movb	%dil, -201(%rbp)
	leaq	(%rcx,%rsi), %rsi
	mulq	%rdx
	movq	%rax, %rcx
	movb	-201(%rbp), %al
	addq	%rsi, %rdx
	setb	%sil
	orb	%sil, %al
	movq	%rdx, -64(%rbp)
	movq	%rcx, -72(%rbp)
	movb	%al, -56(%rbp)
	movq	-72(%rbp), %rcx
	movq	-64(%rbp), %rdx
	movb	-56(%rbp), %al
	.loc	6 1677 18 is_stmt 0
	movq	%rdx, -40(%rbp)
	movq	%rcx, -48(%rbp)
	.loc	6 1677 21
	movb	%al, -25(%rbp)
Ltmp336:
	.loc	6 1678 13 is_stmt 1
	movq	%rdx, -152(%rbp)
	movq	%rcx, -160(%rbp)
	movb	%al, -144(%rbp)
Ltmp337:
	.loc	6 559 18
	movq	-160(%rbp), %rax
	movq	%rax, -200(%rbp)
	movq	-152(%rbp), %rcx
	movq	%rcx, -192(%rbp)
	movq	%rcx, -16(%rbp)
	movq	%rax, -24(%rbp)
	.loc	6 559 21 is_stmt 0
	movb	-144(%rbp), %al
	movb	%al, %cl
	andb	$1, %cl
	movb	%cl, -2(%rbp)
Ltmp338:
	.loc	6 560 16 is_stmt 1
	andb	$1, %al
	movb	%al, -1(%rbp)
	testb	$1, -1(%rbp)
	jne	LBB42_2
	.loc	6 0 16 is_stmt 0
	movq	-192(%rbp), %rax
	movq	-200(%rbp), %rcx
	.loc	6 560 42
	movq	%rcx, -176(%rbp)
	movq	%rax, -168(%rbp)
	movq	$1, -184(%rbp)
	.loc	6 560 13
	jmp	LBB42_3
LBB42_2:
	.loc	6 560 30
	movq	$0, -184(%rbp)
Ltmp339:
LBB42_3:
	.loc	6 561 10 is_stmt 1
	movq	-184(%rbp), %rax
	movq	-176(%rbp), %rdx
	movq	-168(%rbp), %rcx
	addq	$232, %rsp
	popq	%rbp
	retq
Ltmp340:
Lfunc_end42:
	.cfi_endproc

	.p2align	4, 0x90
__ZN4core3num22_$LT$impl$u20$u128$GT$17next_power_of_two17h5913639f97cf1aa6E:
Lfunc_begin43:
	.loc	6 2190 0
	.cfi_startproc
	pushq	%rbp
	.cfi_def_cfa_offset 16
	.cfi_offset %rbp, -16
	movq	%rsp, %rbp
	.cfi_def_cfa_register %rbp
	subq	$128, %rsp
	movq	%rsi, -112(%rbp)
	movq	%rdi, -104(%rbp)
	movq	%rdi, -80(%rbp)
	movq	%rsi, -72(%rbp)
Ltmp341:
	.loc	6 2191 13 prologue_end
	movq	%rsi, -56(%rbp)
	movq	%rdi, -64(%rbp)
Ltmp342:
	.loc	6 2159 16
	subq	$2, %rdi
	sbbq	$0, %rsi
	jb	LBB43_2
	jmp	LBB43_1
LBB43_1:
	.loc	6 0 16 is_stmt 0
	movq	-112(%rbp), %rdx
	movq	-104(%rbp), %rax
	.loc	6 2161 21 is_stmt 1
	addq	$-1, %rax
	adcq	$-1, %rdx
	movq	%rax, -48(%rbp)
	movq	%rdx, -40(%rbp)
Ltmp343:
	.loc	6 2166 30
	bsrq	%rdx, %rcx
	xorq	$63, %rcx
	bsrq	%rax, %rax
	xorq	$63, %rax
	addq	$64, %rax
	testq	%rdx, %rdx
	cmovneq	%rcx, %rax
	movq	%rax, -32(%rbp)
	movq	$0, -24(%rbp)
	movq	-32(%rbp), %rax
	movq	-24(%rbp), %rcx
	movq	%rcx, -8(%rbp)
	movq	%rax, -16(%rbp)
Ltmp344:
	.loc	6 2167 13
	movb	%al, %sil
	movq	$-1, %rax
	movb	%sil, %cl
	movq	%rax, %rdx
	shrq	%cl, %rdx
	movq	%rdx, %rcx
	xorl	%edx, %edx
	testb	$64, %sil
	cmovneq	%rcx, %rax
	cmovneq	%rdx, %rcx
	movq	%rcx, -88(%rbp)
	movq	%rax, -96(%rbp)
Ltmp345:
	.loc	6 2168 10
	jmp	LBB43_3
LBB43_2:
	.loc	6 2159 35
	movq	$0, -88(%rbp)
	movq	$0, -96(%rbp)
Ltmp346:
LBB43_3:
	.loc	6 2191 13
	movq	-96(%rbp), %rdx
	movq	-88(%rbp), %rcx
	addq	$1, %rdx
	movq	%rdx, -128(%rbp)
	adcq	$0, %rcx
	setb	%al
	movq	%rcx, -120(%rbp)
	testb	$1, %al
	jne	LBB43_5
	.loc	6 0 13 is_stmt 0
	movq	-120(%rbp), %rdx
	movq	-128(%rbp), %rax
	.loc	6 2192 10 is_stmt 1
	addq	$128, %rsp
	popq	%rbp
	retq
LBB43_5:
	.loc	6 2191 13
	leaq	_str.0(%rip), %rdi
	leaq	l___unnamed_5(%rip), %rdx
	movl	$28, %esi
	callq	__ZN4core9panicking5panic17hc1bc45270cf64b03E
Ltmp347:
Lfunc_end43:
	.cfi_endproc

	.p2align	4, 0x90
__ZN4core3num22_$LT$impl$u20$u128$GT$3pow17h3e9cbe8a03392615E:
Lfunc_begin44:
	.loc	6 1934 0
	.cfi_startproc
	pushq	%rbp
	.cfi_def_cfa_offset 16
	.cfi_offset %rbp, -16
	movq	%rsp, %rbp
	.cfi_def_cfa_register %rbp
	subq	$224, %rsp
	movq	%rsi, -88(%rbp)
	movq	%rdi, -80(%rbp)
	movl	%edx, -68(%rbp)
	movq	%rsi, -8(%rbp)
	movq	%rdi, -16(%rbp)
Ltmp348:
	.loc	6 1935 16 prologue_end
	cmpl	$0, -68(%rbp)
	jne	LBB44_2
	.loc	6 1936 24
	movq	$0, -56(%rbp)
	movq	$1, -64(%rbp)
	.loc	6 1954 10
	jmp	LBB44_15
LBB44_2:
	.loc	6 0 10 is_stmt 0
	movq	-88(%rbp), %rax
	movq	-80(%rbp), %rcx
	.loc	6 1938 28 is_stmt 1
	movq	%rcx, -48(%rbp)
	movq	%rax, -40(%rbp)
Ltmp349:
	.loc	6 1939 27
	movq	$0, -24(%rbp)
	movq	$1, -32(%rbp)
LBB44_3:
Ltmp350:
	.loc	6 1941 19
	cmpl	$1, -68(%rbp)
	ja	LBB44_5
	.loc	6 1953 13
	movq	-32(%rbp), %rax
	movq	%rax, -120(%rbp)
	movq	-24(%rbp), %rax
	.loc	6 1953 19 is_stmt 0
	movq	-48(%rbp), %rcx
	movq	-40(%rbp), %rdx
	movq	%rdx, -136(%rbp)
	.loc	6 1953 13
	testq	%rdx, %rdx
	setne	%dl
	testq	%rax, %rax
	setne	%dil
	andb	%dl, %dil
	mulq	%rcx
	movq	-120(%rbp), %rdx
	movq	%rax, %rsi
	movq	-136(%rbp), %rax
	movq	%rsi, -128(%rbp)
	seto	%sil
	orb	%sil, %dil
	mulq	%rdx
	movq	-128(%rbp), %rdx
	movq	%rax, %rsi
	movq	-120(%rbp), %rax
	seto	%r8b
	orb	%r8b, %dil
	movb	%dil, -105(%rbp)
	leaq	(%rdx,%rsi), %rsi
	mulq	%rcx
	movq	%rax, %rcx
	movb	-105(%rbp), %al
	addq	%rsi, %rdx
	movq	%rdx, -104(%rbp)
	setb	%sil
	orb	%sil, %al
	movq	%rcx, -96(%rbp)
	testb	$1, %al
	jne	LBB44_14
	jmp	LBB44_13
LBB44_5:
	.loc	6 1942 21 is_stmt 1
	movl	-68(%rbp), %eax
	.loc	6 1942 20 is_stmt 0
	andl	$1, %eax
	cmpl	$1, %eax
	jne	LBB44_7
	.loc	6 1943 27 is_stmt 1
	movq	-32(%rbp), %rax
	movq	%rax, -168(%rbp)
	movq	-24(%rbp), %rax
	.loc	6 1943 33 is_stmt 0
	movq	-48(%rbp), %rcx
	movq	-40(%rbp), %rdx
	movq	%rdx, -184(%rbp)
	.loc	6 1943 27
	testq	%rdx, %rdx
	setne	%dl
	testq	%rax, %rax
	setne	%dil
	andb	%dl, %dil
	mulq	%rcx
	movq	-168(%rbp), %rdx
	movq	%rax, %rsi
	movq	-184(%rbp), %rax
	movq	%rsi, -176(%rbp)
	seto	%sil
	orb	%sil, %dil
	mulq	%rdx
	movq	-176(%rbp), %rdx
	movq	%rax, %rsi
	movq	-168(%rbp), %rax
	seto	%r8b
	orb	%r8b, %dil
	movb	%dil, -153(%rbp)
	leaq	(%rdx,%rsi), %rsi
	mulq	%rcx
	movq	%rax, %rcx
	movb	-153(%rbp), %al
	addq	%rsi, %rdx
	movq	%rdx, -152(%rbp)
	setb	%sil
	orb	%sil, %al
	movq	%rcx, -144(%rbp)
	testb	$1, %al
	jne	LBB44_10
	jmp	LBB44_9
LBB44_7:
	.loc	6 1942 17 is_stmt 1
	jmp	LBB44_8
LBB44_8:
	.loc	6 1945 17
	movl	-68(%rbp), %eax
	shrl	%eax
	movl	%eax, -68(%rbp)
	.loc	6 1946 24
	movq	-48(%rbp), %rcx
	movq	-40(%rbp), %rax
	movq	%rax, -216(%rbp)
	mulq	%rcx
	movq	%rax, %rsi
	movq	-216(%rbp), %rax
	seto	%dl
	testq	%rax, %rax
	setne	%al
	orb	%dl, %al
	movb	%al, -201(%rbp)
	movq	%rcx, %rax
	mulq	%rcx
	movq	%rax, %rcx
	movb	-201(%rbp), %al
	leaq	(%rsi,%rsi), %rsi
	addq	%rsi, %rdx
	movq	%rdx, -200(%rbp)
	setb	%sil
	orb	%sil, %al
	movq	%rcx, -192(%rbp)
	testb	$1, %al
	jne	LBB44_12
	jmp	LBB44_11
LBB44_9:
	.loc	6 0 24 is_stmt 0
	movq	-152(%rbp), %rax
	movq	-144(%rbp), %rcx
	.loc	6 1943 21 is_stmt 1
	movq	%rcx, -32(%rbp)
	movq	%rax, -24(%rbp)
	.loc	6 1942 17
	jmp	LBB44_8
LBB44_10:
	.loc	6 1943 27
	leaq	_str.1(%rip), %rdi
	leaq	l___unnamed_5(%rip), %rdx
	movl	$33, %esi
	callq	__ZN4core9panicking5panic17hc1bc45270cf64b03E
LBB44_11:
	.loc	6 0 27 is_stmt 0
	movq	-200(%rbp), %rax
	movq	-192(%rbp), %rcx
	.loc	6 1946 17 is_stmt 1
	movq	%rcx, -48(%rbp)
	movq	%rax, -40(%rbp)
	.loc	6 1941 13
	jmp	LBB44_3
LBB44_12:
	.loc	6 1946 24
	leaq	_str.1(%rip), %rdi
	leaq	l___unnamed_5(%rip), %rdx
	movl	$33, %esi
	callq	__ZN4core9panicking5panic17hc1bc45270cf64b03E
LBB44_13:
	.loc	6 0 24 is_stmt 0
	movq	-104(%rbp), %rax
	movq	-96(%rbp), %rcx
	.loc	6 1953 13 is_stmt 1
	movq	%rcx, -64(%rbp)
	movq	%rax, -56(%rbp)
Ltmp351:
	.loc	6 1954 10
	jmp	LBB44_15
LBB44_14:
Ltmp352:
	.loc	6 1953 13
	leaq	_str.1(%rip), %rdi
	leaq	l___unnamed_5(%rip), %rdx
	movl	$33, %esi
	callq	__ZN4core9panicking5panic17hc1bc45270cf64b03E
Ltmp353:
LBB44_15:
	.loc	6 1954 10
	movq	-64(%rbp), %rax
	movq	-56(%rbp), %rdx
	addq	$224, %rsp
	popq	%rbp
	retq
Ltmp354:
Lfunc_end44:
	.cfi_endproc

	.p2align	4, 0x90
__ZN4core3num23_$LT$impl$u20$usize$GT$11checked_mul17h86f1630dbdc8097aE:
Lfunc_begin45:
	.loc	6 558 0
	.cfi_startproc
	pushq	%rbp
	.cfi_def_cfa_offset 16
	.cfi_offset %rbp, -16
	movq	%rsp, %rbp
	.cfi_def_cfa_register %rbp
	subq	$120, %rsp
	movq	%rdi, %rax
	movq	%rax, -80(%rbp)
	movq	%rsi, -72(%rbp)
Ltmp355:
	.loc	6 559 26 prologue_end
	movq	%rax, -64(%rbp)
	.loc	6 559 47 is_stmt 0
	movq	%rsi, -56(%rbp)
Ltmp356:
	.loc	6 1677 26 is_stmt 1
	mulq	%rsi
	movq	%rax, %rcx
	seto	%al
	andb	$1, %al
	movq	%rcx, -48(%rbp)
	movb	%al, -40(%rbp)
	movq	-48(%rbp), %rcx
	movb	-40(%rbp), %al
	.loc	6 1677 18 is_stmt 0
	movq	%rcx, -32(%rbp)
	.loc	6 1677 21
	movb	%al, %dl
	andb	$1, %dl
	movb	%dl, -17(%rbp)
Ltmp357:
	.loc	6 1678 13 is_stmt 1
	movq	%rcx, -96(%rbp)
	andb	$1, %al
	movb	%al, -88(%rbp)
Ltmp358:
	.loc	6 559 18
	movq	-96(%rbp), %rax
	movq	%rax, -120(%rbp)
	movq	%rax, -16(%rbp)
	.loc	6 559 21 is_stmt 0
	movb	-88(%rbp), %al
	movb	%al, %cl
	andb	$1, %cl
	movb	%cl, -2(%rbp)
Ltmp359:
	.loc	6 560 16 is_stmt 1
	andb	$1, %al
	movb	%al, -1(%rbp)
	testb	$1, -1(%rbp)
	jne	LBB45_2
	.loc	6 0 16 is_stmt 0
	movq	-120(%rbp), %rax
	.loc	6 560 42
	movq	%rax, -104(%rbp)
	movq	$1, -112(%rbp)
	.loc	6 560 13
	jmp	LBB45_3
LBB45_2:
	.loc	6 560 30
	movq	$0, -112(%rbp)
Ltmp360:
LBB45_3:
	.loc	6 561 10 is_stmt 1
	movq	-112(%rbp), %rax
	movq	-104(%rbp), %rdx
	addq	$120, %rsp
	popq	%rbp
	retq
Ltmp361:
Lfunc_end45:
	.cfi_endproc

	.p2align	4, 0x90
__ZN4core3num23_$LT$impl$u20$usize$GT$17next_power_of_two17h7111d7e1e7005f29E:
Lfunc_begin46:
	.loc	6 2190 0
	.cfi_startproc
	pushq	%rbp
	.cfi_def_cfa_offset 16
	.cfi_offset %rbp, -16
	movq	%rsp, %rbp
	.cfi_def_cfa_register %rbp
	subq	$64, %rsp
	movq	%rdi, -56(%rbp)
	movq	%rdi, -40(%rbp)
Ltmp362:
	.loc	6 2191 13 prologue_end
	movq	%rdi, -32(%rbp)
Ltmp363:
	.loc	6 2159 16
	cmpq	$1, %rdi
	jbe	LBB46_2
	.loc	6 0 16 is_stmt 0
	movq	-56(%rbp), %rax
	.loc	6 2161 21 is_stmt 1
	subq	$1, %rax
	movq	%rax, -24(%rbp)
Ltmp364:
	.loc	6 2166 30
	bsrq	%rax, %rax
	xorq	$63, %rax
	movq	%rax, -16(%rbp)
	movq	-16(%rbp), %rcx
	movq	%rcx, -8(%rbp)
Ltmp365:
	.loc	6 2167 13
	andq	$63, %rcx
	movq	$-1, %rax
	shrq	%cl, %rax
	movq	%rax, -48(%rbp)
Ltmp366:
	.loc	6 2168 10
	jmp	LBB46_3
LBB46_2:
	.loc	6 2159 35
	movq	$0, -48(%rbp)
Ltmp367:
LBB46_3:
	.loc	6 2191 13
	movq	-48(%rbp), %rax
	addq	$1, %rax
	movq	%rax, -64(%rbp)
	setb	%al
	testb	$1, %al
	jne	LBB46_5
	.loc	6 0 13 is_stmt 0
	movq	-64(%rbp), %rax
	.loc	6 2192 10 is_stmt 1
	addq	$64, %rsp
	popq	%rbp
	retq
LBB46_5:
	.loc	6 2191 13
	leaq	_str.0(%rip), %rdi
	leaq	l___unnamed_6(%rip), %rdx
	movl	$28, %esi
	callq	__ZN4core9panicking5panic17hc1bc45270cf64b03E
Ltmp368:
Lfunc_end46:
	.cfi_endproc

	.p2align	4, 0x90
__ZN4core3num23_$LT$impl$u20$usize$GT$3pow17he9feb14db215ad84E:
Lfunc_begin47:
	.loc	6 1934 0
	.cfi_startproc
	pushq	%rbp
	.cfi_def_cfa_offset 16
	.cfi_offset %rbp, -16
	movq	%rsp, %rbp
	.cfi_def_cfa_register %rbp
	subq	$80, %rsp
	movq	%rdi, -48(%rbp)
	movl	%esi, -36(%rbp)
	movq	%rdi, -8(%rbp)
Ltmp369:
	.loc	6 1935 16 prologue_end
	cmpl	$0, -36(%rbp)
	jne	LBB47_2
	.loc	6 1936 24
	movq	$1, -32(%rbp)
	.loc	6 1954 10
	jmp	LBB47_15
LBB47_2:
	.loc	6 0 10 is_stmt 0
	movq	-48(%rbp), %rax
	.loc	6 1938 28 is_stmt 1
	movq	%rax, -24(%rbp)
Ltmp370:
	.loc	6 1939 27
	movq	$1, -16(%rbp)
LBB47_3:
Ltmp371:
	.loc	6 1941 19
	cmpl	$1, -36(%rbp)
	ja	LBB47_5
	.loc	6 1953 13
	movq	-16(%rbp), %rax
	mulq	-24(%rbp)
	movq	%rax, -56(%rbp)
	seto	%al
	testb	$1, %al
	jne	LBB47_14
	jmp	LBB47_13
LBB47_5:
	.loc	6 1942 21
	movl	-36(%rbp), %eax
	.loc	6 1942 20 is_stmt 0
	andl	$1, %eax
	cmpl	$1, %eax
	jne	LBB47_7
	.loc	6 1943 27 is_stmt 1
	movq	-16(%rbp), %rax
	mulq	-24(%rbp)
	movq	%rax, -64(%rbp)
	seto	%al
	testb	$1, %al
	jne	LBB47_10
	jmp	LBB47_9
LBB47_7:
	.loc	6 1942 17
	jmp	LBB47_8
LBB47_8:
	.loc	6 1945 17
	movl	-36(%rbp), %eax
	shrl	$1, %eax
	movl	%eax, -36(%rbp)
	.loc	6 1946 24
	movq	-24(%rbp), %rax
	mulq	-24(%rbp)
	movq	%rax, -72(%rbp)
	seto	%al
	testb	$1, %al
	jne	LBB47_12
	jmp	LBB47_11
LBB47_9:
	.loc	6 0 24 is_stmt 0
	movq	-64(%rbp), %rax
	.loc	6 1943 21 is_stmt 1
	movq	%rax, -16(%rbp)
	.loc	6 1942 17
	jmp	LBB47_8
LBB47_10:
	.loc	6 1943 27
	leaq	_str.1(%rip), %rdi
	leaq	l___unnamed_6(%rip), %rdx
	movl	$33, %esi
	callq	__ZN4core9panicking5panic17hc1bc45270cf64b03E
LBB47_11:
	.loc	6 0 27 is_stmt 0
	movq	-72(%rbp), %rax
	.loc	6 1946 17 is_stmt 1
	movq	%rax, -24(%rbp)
	.loc	6 1941 13
	jmp	LBB47_3
LBB47_12:
	.loc	6 1946 24
	leaq	_str.1(%rip), %rdi
	leaq	l___unnamed_6(%rip), %rdx
	movl	$33, %esi
	callq	__ZN4core9panicking5panic17hc1bc45270cf64b03E
LBB47_13:
	.loc	6 0 24 is_stmt 0
	movq	-56(%rbp), %rax
	.loc	6 1953 13 is_stmt 1
	movq	%rax, -32(%rbp)
Ltmp372:
	.loc	6 1954 10
	jmp	LBB47_15
LBB47_14:
Ltmp373:
	.loc	6 1953 13
	leaq	_str.1(%rip), %rdi
	leaq	l___unnamed_6(%rip), %rdx
	movl	$33, %esi
	callq	__ZN4core9panicking5panic17hc1bc45270cf64b03E
Ltmp374:
LBB47_15:
	.loc	6 1954 10
	movq	-32(%rbp), %rax
	addq	$80, %rsp
	popq	%rbp
	retq
Ltmp375:
Lfunc_end47:
	.cfi_endproc

	.globl	__ZN4core4iter5range116_$LT$impl$u20$core..iter..traits..double_ended..DoubleEndedIterator$u20$for$u20$core..ops..range..Range$LT$A$GT$$GT$9next_back17h9f2735dff9108563E
	.p2align	4, 0x90
__ZN4core4iter5range116_$LT$impl$u20$core..iter..traits..double_ended..DoubleEndedIterator$u20$for$u20$core..ops..range..Range$LT$A$GT$$GT$9next_back17h9f2735dff9108563E:
Lfunc_begin48:
	.loc	5 818 0
	.cfi_startproc
	pushq	%rbp
	.cfi_def_cfa_offset 16
	.cfi_offset %rbp, -16
	movq	%rsp, %rbp
	.cfi_def_cfa_register %rbp
	subq	$16, %rsp
	movq	%rdi, -8(%rbp)
Ltmp376:
	.loc	5 819 9 prologue_end
	callq	__ZN89_$LT$core..ops..range..Range$LT$T$GT$$u20$as$u20$core..iter..range..RangeIteratorImpl$GT$14spec_next_back17h4a6951ae55c774b1E
	.loc	5 820 6
	addq	$16, %rsp
	popq	%rbp
	retq
Ltmp377:
Lfunc_end48:
	.cfi_endproc

	.globl	__ZN4core4iter6traits8iterator8Iterator3rev17h11bc1558d551b1b9E
	.p2align	4, 0x90
__ZN4core4iter6traits8iterator8Iterator3rev17h11bc1558d551b1b9E:
Lfunc_begin49:
	.file	9 "/rustc/2c8cc343237b8f7d5a3c3703e3a87f2eb2c54a74/library/core/src/iter/traits" "iterator.rs"
	.loc	9 3179 0
	.cfi_startproc
	pushq	%rbp
	.cfi_def_cfa_offset 16
	.cfi_offset %rbp, -16
	movq	%rsp, %rbp
	.cfi_def_cfa_register %rbp
	subq	$16, %rsp
	movl	%edi, -8(%rbp)
	movl	%esi, -4(%rbp)
Ltmp378:
	.loc	9 3183 9 prologue_end
	callq	__ZN4core4iter8adapters3rev12Rev$LT$T$GT$3new17hcbbeca6994479b03E
	.loc	9 3184 6
	addq	$16, %rsp
	popq	%rbp
	retq
Ltmp379:
Lfunc_end49:
	.cfi_endproc

	.globl	__ZN4core4iter8adapters3rev12Rev$LT$T$GT$3new17hcbbeca6994479b03E
	.p2align	4, 0x90
__ZN4core4iter8adapters3rev12Rev$LT$T$GT$3new17hcbbeca6994479b03E:
Lfunc_begin50:
	.file	10 "/rustc/2c8cc343237b8f7d5a3c3703e3a87f2eb2c54a74/library/core/src/iter/adapters" "rev.rs"
	.loc	10 19 0
	.cfi_startproc
	pushq	%rbp
	.cfi_def_cfa_offset 16
	.cfi_offset %rbp, -16
	movq	%rsp, %rbp
	.cfi_def_cfa_register %rbp
	subq	$16, %rsp
	movl	%edi, -8(%rbp)
	movl	%esi, -4(%rbp)
Ltmp380:
	.loc	10 20 9 prologue_end
	movl	%edi, -16(%rbp)
	movl	%esi, -12(%rbp)
	.loc	10 21 6
	movl	-16(%rbp), %eax
	movl	-12(%rbp), %edx
	addq	$16, %rsp
	popq	%rbp
	retq
Ltmp381:
Lfunc_end50:
	.cfi_endproc

	.p2align	4, 0x90
__ZN50_$LT$u8$u20$as$u20$num_traits..identities..One$GT$3one17h31b57a0e9943b1caE:
Lfunc_begin51:
	.file	11 "/Users/natalie/.cargo/registry/src/github.com-1ecc6299db9ec823/num-traits-0.2.15/src" "identities.rs"
	.loc	11 124 0
	.cfi_startproc
	pushq	%rbp
	.cfi_def_cfa_offset 16
	.cfi_offset %rbp, -16
	movq	%rsp, %rbp
	.cfi_def_cfa_register %rbp
Ltmp382:
	.loc	11 126 14 prologue_end
	movb	$1, %al
	popq	%rbp
	retq
Ltmp383:
Lfunc_end51:
	.cfi_endproc

	.p2align	4, 0x90
__ZN50_$LT$usize$u20$as$u20$num_traits..int..PrimInt$GT$13leading_zeros17hf2fd7eea8ba4e520E:
Lfunc_begin52:
	.loc	7 414 0
	.cfi_startproc
	pushq	%rbp
	.cfi_def_cfa_offset 16
	.cfi_offset %rbp, -16
	movq	%rsp, %rbp
	.cfi_def_cfa_register %rbp
	subq	$24, %rsp
	movq	%rdi, -24(%rbp)
	movq	%rdi, -16(%rbp)
Ltmp384:
	.loc	6 131 13 prologue_end
	bsrq	%rdi, %rax
	movl	$127, %ecx
	cmoveq	%rcx, %rax
	xorq	$63, %rax
	movq	%rax, -8(%rbp)
	movq	-8(%rbp), %rax
Ltmp385:
	.loc	7 416 14
	addq	$24, %rsp
	popq	%rbp
	retq
Ltmp386:
Lfunc_end52:
	.cfi_endproc

	.p2align	4, 0x90
__ZN51_$LT$u16$u20$as$u20$num_traits..identities..One$GT$3one17h90e6934b5b1ac629E:
Lfunc_begin53:
	.loc	11 124 0
	.cfi_startproc
	pushq	%rbp
	.cfi_def_cfa_offset 16
	.cfi_offset %rbp, -16
	movq	%rsp, %rbp
	.cfi_def_cfa_register %rbp
Ltmp387:
	.loc	11 126 14 prologue_end
	movw	$1, %ax
	popq	%rbp
	retq
Ltmp388:
Lfunc_end53:
	.cfi_endproc

	.p2align	4, 0x90
__ZN51_$LT$u32$u20$as$u20$num_traits..identities..One$GT$3one17h234348009754deb2E:
Lfunc_begin54:
	.loc	11 124 0
	.cfi_startproc
	pushq	%rbp
	.cfi_def_cfa_offset 16
	.cfi_offset %rbp, -16
	movq	%rsp, %rbp
	.cfi_def_cfa_register %rbp
Ltmp389:
	.loc	11 126 14 prologue_end
	movl	$1, %eax
	popq	%rbp
	retq
Ltmp390:
Lfunc_end54:
	.cfi_endproc

	.p2align	4, 0x90
__ZN51_$LT$u64$u20$as$u20$num_traits..identities..One$GT$3one17hfa963e355a61e608E:
Lfunc_begin55:
	.loc	11 124 0
	.cfi_startproc
	pushq	%rbp
	.cfi_def_cfa_offset 16
	.cfi_offset %rbp, -16
	movq	%rsp, %rbp
	.cfi_def_cfa_register %rbp
Ltmp391:
	.loc	11 126 14 prologue_end
	movl	$1, %eax
	popq	%rbp
	retq
Ltmp392:
Lfunc_end55:
	.cfi_endproc

	.p2align	4, 0x90
__ZN51_$LT$u8$u20$as$u20$num_traits..identities..Zero$GT$4zero17h9be86ad28ff3c50fE:
Lfunc_begin56:
	.loc	11 35 0
	.cfi_startproc
	pushq	%rbp
	.cfi_def_cfa_offset 16
	.cfi_offset %rbp, -16
	movq	%rsp, %rbp
	.cfi_def_cfa_register %rbp
Ltmp393:
	.loc	11 37 14 prologue_end
	xorl	%eax, %eax
	popq	%rbp
	retq
Ltmp394:
Lfunc_end56:
	.cfi_endproc

	.p2align	4, 0x90
__ZN52_$LT$u128$u20$as$u20$num_traits..identities..One$GT$3one17h222ad9b6b4f5566eE:
Lfunc_begin57:
	.loc	11 124 0
	.cfi_startproc
	pushq	%rbp
	.cfi_def_cfa_offset 16
	.cfi_offset %rbp, -16
	movq	%rsp, %rbp
	.cfi_def_cfa_register %rbp
	xorl	%eax, %eax
	movl	%eax, %edx
	movl	$1, %eax
Ltmp395:
	.loc	11 126 14 prologue_end
	popq	%rbp
	retq
Ltmp396:
Lfunc_end57:
	.cfi_endproc

	.p2align	4, 0x90
__ZN52_$LT$u16$u20$as$u20$num_traits..identities..Zero$GT$4zero17hbaffa0d605bfb9c8E:
Lfunc_begin58:
	.loc	11 35 0
	.cfi_startproc
	pushq	%rbp
	.cfi_def_cfa_offset 16
	.cfi_offset %rbp, -16
	movq	%rsp, %rbp
	.cfi_def_cfa_register %rbp
Ltmp397:
	.loc	11 37 14 prologue_end
	xorl	%eax, %eax
	popq	%rbp
	retq
Ltmp398:
Lfunc_end58:
	.cfi_endproc

	.p2align	4, 0x90
__ZN52_$LT$u32$u20$as$u20$num_traits..identities..Zero$GT$4zero17hb3ad5755f15860c2E:
Lfunc_begin59:
	.loc	11 35 0
	.cfi_startproc
	pushq	%rbp
	.cfi_def_cfa_offset 16
	.cfi_offset %rbp, -16
	movq	%rsp, %rbp
	.cfi_def_cfa_register %rbp
Ltmp399:
	.loc	11 37 14 prologue_end
	xorl	%eax, %eax
	popq	%rbp
	retq
Ltmp400:
Lfunc_end59:
	.cfi_endproc

	.p2align	4, 0x90
__ZN52_$LT$u64$u20$as$u20$num_traits..identities..Zero$GT$4zero17h51ceef17f95eb573E:
Lfunc_begin60:
	.loc	11 35 0
	.cfi_startproc
	pushq	%rbp
	.cfi_def_cfa_offset 16
	.cfi_offset %rbp, -16
	movq	%rsp, %rbp
	.cfi_def_cfa_register %rbp
Ltmp401:
	.loc	11 37 14 prologue_end
	xorl	%eax, %eax
	popq	%rbp
	retq
Ltmp402:
Lfunc_end60:
	.cfi_endproc

	.p2align	4, 0x90
__ZN53_$LT$u128$u20$as$u20$num_traits..identities..Zero$GT$4zero17hf4a41882c3bfabceE:
Lfunc_begin61:
	.loc	11 35 0
	.cfi_startproc
	pushq	%rbp
	.cfi_def_cfa_offset 16
	.cfi_offset %rbp, -16
	movq	%rsp, %rbp
	.cfi_def_cfa_register %rbp
	xorl	%eax, %eax
	movl	%eax, %edx
Ltmp403:
	.loc	11 37 14 prologue_end
	movq	%rdx, %rax
	popq	%rbp
	retq
Ltmp404:
Lfunc_end61:
	.cfi_endproc

	.p2align	4, 0x90
__ZN53_$LT$usize$u20$as$u20$num_traits..identities..One$GT$3one17h0bc2e423408036d5E:
Lfunc_begin62:
	.loc	11 124 0
	.cfi_startproc
	pushq	%rbp
	.cfi_def_cfa_offset 16
	.cfi_offset %rbp, -16
	movq	%rsp, %rbp
	.cfi_def_cfa_register %rbp
Ltmp405:
	.loc	11 126 14 prologue_end
	movl	$1, %eax
	popq	%rbp
	retq
Ltmp406:
Lfunc_end62:
	.cfi_endproc

	.p2align	4, 0x90
__ZN54_$LT$usize$u20$as$u20$num_traits..identities..Zero$GT$4zero17h5758c148a4343da2E:
Lfunc_begin63:
	.loc	11 35 0
	.cfi_startproc
	pushq	%rbp
	.cfi_def_cfa_offset 16
	.cfi_offset %rbp, -16
	movq	%rsp, %rbp
	.cfi_def_cfa_register %rbp
Ltmp407:
	.loc	11 37 14 prologue_end
	xorl	%eax, %eax
	popq	%rbp
	retq
Ltmp408:
Lfunc_end63:
	.cfi_endproc

	.p2align	4, 0x90
__ZN59_$LT$u8$u20$as$u20$num_traits..ops..checked..CheckedMul$GT$11checked_mul17he2d5c9900aac3550E:
Lfunc_begin64:
	.file	12 "/Users/natalie/.cargo/registry/src/github.com-1ecc6299db9ec823/num-traits-0.2.15/src/ops" "checked.rs"
	.loc	12 15 0
	.cfi_startproc
	pushq	%rbp
	.cfi_def_cfa_offset 16
	.cfi_offset %rbp, -16
	movq	%rsp, %rbp
	.cfi_def_cfa_register %rbp
	subq	$16, %rsp
	movq	%rdi, -16(%rbp)
	movq	%rsi, -8(%rbp)
Ltmp409:
	.loc	12 16 23 prologue_end
	movzbl	(%rsi), %esi
	movzbl	(%rdi), %edi
	callq	__ZN4core3num20_$LT$impl$u20$u8$GT$11checked_mul17hb47c587eeb819dbfE
	.loc	12 17 14
	andb	$1, %al
	addq	$16, %rsp
	popq	%rbp
	retq
Ltmp410:
Lfunc_end64:
	.cfi_endproc

	.p2align	4, 0x90
__ZN60_$LT$u16$u20$as$u20$num_traits..ops..checked..CheckedMul$GT$11checked_mul17h8712e9ea7a0b6f2aE:
Lfunc_begin65:
	.loc	12 15 0
	.cfi_startproc
	pushq	%rbp
	.cfi_def_cfa_offset 16
	.cfi_offset %rbp, -16
	movq	%rsp, %rbp
	.cfi_def_cfa_register %rbp
	subq	$16, %rsp
	movq	%rdi, -16(%rbp)
	movq	%rsi, -8(%rbp)
Ltmp411:
	.loc	12 16 23 prologue_end
	movzwl	(%rsi), %esi
	movzwl	(%rdi), %edi
	callq	__ZN4core3num21_$LT$impl$u20$u16$GT$11checked_mul17h071b6a647d5208a1E
	.loc	12 17 14
	addq	$16, %rsp
	popq	%rbp
	retq
Ltmp412:
Lfunc_end65:
	.cfi_endproc

	.p2align	4, 0x90
__ZN60_$LT$u32$u20$as$u20$num_traits..ops..checked..CheckedMul$GT$11checked_mul17h1712f0e1663373d7E:
Lfunc_begin66:
	.loc	12 15 0
	.cfi_startproc
	pushq	%rbp
	.cfi_def_cfa_offset 16
	.cfi_offset %rbp, -16
	movq	%rsp, %rbp
	.cfi_def_cfa_register %rbp
	subq	$16, %rsp
	movq	%rdi, -16(%rbp)
	movq	%rsi, -8(%rbp)
Ltmp413:
	.loc	12 16 31 prologue_end
	movl	(%rdi), %edi
	.loc	12 16 38 is_stmt 0
	movl	(%rsi), %esi
	.loc	12 16 23
	callq	__ZN4core3num21_$LT$impl$u20$u32$GT$11checked_mul17hb90aa2568cbc9254E
	.loc	12 17 14 is_stmt 1
	addq	$16, %rsp
	popq	%rbp
	retq
Ltmp414:
Lfunc_end66:
	.cfi_endproc

	.p2align	4, 0x90
__ZN60_$LT$u64$u20$as$u20$num_traits..ops..checked..CheckedMul$GT$11checked_mul17h23806c60c2cb3841E:
Lfunc_begin67:
	.loc	12 15 0
	.cfi_startproc
	pushq	%rbp
	.cfi_def_cfa_offset 16
	.cfi_offset %rbp, -16
	movq	%rsp, %rbp
	.cfi_def_cfa_register %rbp
	subq	$16, %rsp
	movq	%rdi, -16(%rbp)
	movq	%rsi, -8(%rbp)
Ltmp415:
	.loc	12 16 31 prologue_end
	movq	(%rdi), %rdi
	.loc	12 16 38 is_stmt 0
	movq	(%rsi), %rsi
	.loc	12 16 23
	callq	__ZN4core3num21_$LT$impl$u20$u64$GT$11checked_mul17haf9390b750a82242E
	.loc	12 17 14 is_stmt 1
	addq	$16, %rsp
	popq	%rbp
	retq
Ltmp416:
Lfunc_end67:
	.cfi_endproc

	.p2align	4, 0x90
__ZN61_$LT$u128$u20$as$u20$num_traits..ops..checked..CheckedMul$GT$11checked_mul17hc5a391829a51000cE:
Lfunc_begin68:
	.loc	12 15 0
	.cfi_startproc
	pushq	%rbp
	.cfi_def_cfa_offset 16
	.cfi_offset %rbp, -16
	movq	%rsp, %rbp
	.cfi_def_cfa_register %rbp
	subq	$16, %rsp
	movq	%rsi, %rax
	movq	%rdi, %rcx
	movq	%rcx, -16(%rbp)
	movq	%rax, -8(%rbp)
Ltmp417:
	.loc	12 16 31 prologue_end
	movq	(%rcx), %rdi
	movq	8(%rcx), %rsi
	.loc	12 16 38 is_stmt 0
	movq	(%rax), %rdx
	movq	8(%rax), %rcx
	.loc	12 16 23
	callq	__ZN4core3num22_$LT$impl$u20$u128$GT$11checked_mul17ha8aba4d9bbdf1387E
	.loc	12 17 14 is_stmt 1
	addq	$16, %rsp
	popq	%rbp
	retq
Ltmp418:
Lfunc_end68:
	.cfi_endproc

	.p2align	4, 0x90
__ZN62_$LT$usize$u20$as$u20$num_traits..ops..checked..CheckedMul$GT$11checked_mul17h563b8e524064c187E:
Lfunc_begin69:
	.loc	12 15 0
	.cfi_startproc
	pushq	%rbp
	.cfi_def_cfa_offset 16
	.cfi_offset %rbp, -16
	movq	%rsp, %rbp
	.cfi_def_cfa_register %rbp
	subq	$16, %rsp
	movq	%rdi, -16(%rbp)
	movq	%rsi, -8(%rbp)
Ltmp419:
	.loc	12 16 31 prologue_end
	movq	(%rdi), %rdi
	.loc	12 16 38 is_stmt 0
	movq	(%rsi), %rsi
	.loc	12 16 23
	callq	__ZN4core3num23_$LT$impl$u20$usize$GT$11checked_mul17h86f1630dbdc8097aE
	.loc	12 17 14 is_stmt 1
	addq	$16, %rsp
	popq	%rbp
	retq
Ltmp420:
Lfunc_end69:
	.cfi_endproc

	.globl	__ZN63_$LT$I$u20$as$u20$core..iter..traits..collect..IntoIterator$GT$9into_iter17hb9cb3d6540f28b3bE
	.p2align	4, 0x90
__ZN63_$LT$I$u20$as$u20$core..iter..traits..collect..IntoIterator$GT$9into_iter17hb9cb3d6540f28b3bE:
Lfunc_begin70:
	.file	13 "/rustc/2c8cc343237b8f7d5a3c3703e3a87f2eb2c54a74/library/core/src/iter/traits" "collect.rs"
	.loc	13 272 0
	.cfi_startproc
	pushq	%rbp
	.cfi_def_cfa_offset 16
	.cfi_offset %rbp, -16
	movq	%rsp, %rbp
	.cfi_def_cfa_register %rbp
	pushq	%rax
	movl	%esi, %edx
	movl	%edi, %eax
	movl	%eax, -8(%rbp)
	movl	%edx, -4(%rbp)
Ltmp421:
	.loc	13 274 6 prologue_end
	addq	$8, %rsp
	popq	%rbp
	retq
Ltmp422:
Lfunc_end70:
	.cfi_endproc

	.globl	__ZN89_$LT$core..ops..range..Range$LT$T$GT$$u20$as$u20$core..iter..range..RangeIteratorImpl$GT$14spec_next_back17h4a6951ae55c774b1E
	.p2align	4, 0x90
__ZN89_$LT$core..ops..range..Range$LT$T$GT$$u20$as$u20$core..iter..range..RangeIteratorImpl$GT$14spec_next_back17h4a6951ae55c774b1E:
Lfunc_begin71:
	.loc	5 664 0
	.cfi_startproc
	pushq	%rbp
	.cfi_def_cfa_offset 16
	.cfi_offset %rbp, -16
	movq	%rsp, %rbp
	.cfi_def_cfa_register %rbp
	subq	$64, %rsp
	movq	%rdi, -56(%rbp)
	movq	%rdi, -40(%rbp)
Ltmp423:
	.loc	5 665 25 prologue_end
	movq	%rdi, %rsi
	addq	$4, %rsi
	.loc	5 665 12 is_stmt 0
	callq	__ZN4core3cmp5impls55_$LT$impl$u20$core..cmp..PartialOrd$u20$for$u20$u32$GT$2lt17hc11d0a3e8e4b2ee9E
	testb	$1, %al
	jne	LBB71_2
	.loc	5 670 13 is_stmt 1
	movl	$0, -48(%rbp)
	.loc	5 665 9
	jmp	LBB71_4
LBB71_2:
	.loc	5 0 9 is_stmt 0
	movq	-56(%rbp), %rax
	.loc	5 667 58 is_stmt 1
	movq	%rax, %rcx
	addq	$4, %rcx
	movq	%rcx, -8(%rbp)
Ltmp424:
	.loc	3 189 25
	movl	4(%rax), %edi
Ltmp425:
	.loc	5 667 33
	movl	$1, %esi
	callq	__ZN47_$LT$u32$u20$as$u20$core..iter..range..Step$GT$18backward_unchecked17hdfa6e86b4b6981f8E
	movl	%eax, -60(%rbp)
	.loc	5 0 33 is_stmt 0
	movq	-56(%rbp), %rax
	movl	-60(%rbp), %ecx
	.loc	5 667 13
	movl	%ecx, 4(%rax)
	.loc	5 668 18 is_stmt 1
	movq	%rax, %rcx
	addq	$4, %rcx
	movq	%rcx, -16(%rbp)
Ltmp426:
	.loc	3 189 25
	movl	4(%rax), %eax
Ltmp427:
	.loc	5 668 13
	movl	%eax, -44(%rbp)
	movl	$1, -48(%rbp)
LBB71_4:
	.loc	5 672 6
	movl	-48(%rbp), %eax
	movl	-44(%rbp), %edx
	addq	$64, %rsp
	popq	%rbp
	retq
Ltmp428:
Lfunc_end71:
	.cfi_endproc

	.globl	__ZN98_$LT$core..iter..adapters..rev..Rev$LT$I$GT$$u20$as$u20$core..iter..traits..iterator..Iterator$GT$4next17h2ffde2109c1e4ed7E
	.p2align	4, 0x90
__ZN98_$LT$core..iter..adapters..rev..Rev$LT$I$GT$$u20$as$u20$core..iter..traits..iterator..Iterator$GT$4next17h2ffde2109c1e4ed7E:
Lfunc_begin72:
	.loc	10 32 0
	.cfi_startproc
	pushq	%rbp
	.cfi_def_cfa_offset 16
	.cfi_offset %rbp, -16
	movq	%rsp, %rbp
	.cfi_def_cfa_register %rbp
	subq	$16, %rsp
	movq	%rdi, -8(%rbp)
Ltmp429:
	.loc	10 33 9 prologue_end
	callq	__ZN4core4iter5range116_$LT$impl$u20$core..iter..traits..double_ended..DoubleEndedIterator$u20$for$u20$core..ops..range..Range$LT$A$GT$$GT$9next_back17h9f2735dff9108563E
	.loc	10 34 6
	addq	$16, %rsp
	popq	%rbp
	retq
Ltmp430:
Lfunc_end72:
	.cfi_endproc

	.p2align	4, 0x90
__ZN11num_integer5roots8fixpoint17h12b17d17cd0c031eE:
Lfunc_begin73:
	.file	14 "/Users/natalie/.cargo/registry/src/github.com-1ecc6299db9ec823/num-integer-0.1.45" "src/roots.rs"
	.loc	14 174 0
	.cfi_startproc
	.cfi_personality 155, _rust_eh_personality
	.cfi_lsda 16, Lexception7
	pushq	%rbp
	.cfi_def_cfa_offset 16
	.cfi_offset %rbp, -16
	movq	%rsp, %rbp
	.cfi_def_cfa_register %rbp
	subq	$48, %rsp
	movb	%dil, %al
	movb	%al, -33(%rbp)
	movq	%rsi, -32(%rbp)
Ltmp442:
	.loc	14 179 20 prologue_end
	movb	-33(%rbp), %al
	.loc	14 179 18 is_stmt 0
	movb	%al, -19(%rbp)
	movzbl	-19(%rbp), %esi
Ltmp431:
	leaq	-32(%rbp), %rdi
	callq	__ZN48_$LT$u8$u20$as$u20$num_integer..roots..Roots$GT$4cbrt2go28_$u7b$$u7b$closure$u7d$$u7d$17hc5ead67199e975dfE
Ltmp432:
	movb	%al, -34(%rbp)
	jmp	LBB73_3
LBB73_1:
	.loc	14 174 1 is_stmt 1
	movq	-16(%rbp), %rdi
	callq	__Unwind_Resume
LBB73_2:
Ltmp441:
	.loc	14 0 1 is_stmt 0
	movq	%rax, %rcx
	movl	%edx, %eax
	movq	%rcx, -16(%rbp)
	movl	%eax, -8(%rbp)
	jmp	LBB73_1
LBB73_3:
	movb	-34(%rbp), %al
	.loc	14 179 18 is_stmt 1
	movb	%al, -20(%rbp)
LBB73_4:
Ltmp433:
	.loc	14 0 18 is_stmt 0
	leaq	-33(%rbp), %rdi
	leaq	-20(%rbp), %rsi
Ltmp443:
	.loc	14 180 11 is_stmt 1
	callq	__ZN4core3cmp5impls54_$LT$impl$u20$core..cmp..PartialOrd$u20$for$u20$u8$GT$2lt17hba868800f154de7fE
Ltmp434:
	movb	%al, -35(%rbp)
	jmp	LBB73_5
LBB73_5:
	.loc	14 0 11 is_stmt 0
	movb	-35(%rbp), %al
	.loc	14 180 11
	testb	$1, %al
	jne	LBB73_7
	jmp	LBB73_6
LBB73_6:
Ltmp435:
	.loc	14 0 11
	leaq	-33(%rbp), %rdi
	leaq	-20(%rbp), %rsi
	.loc	14 184 11 is_stmt 1
	callq	__ZN4core3cmp5impls54_$LT$impl$u20$core..cmp..PartialOrd$u20$for$u20$u8$GT$2gt17h51d1cc18db844a9dE
Ltmp436:
	movb	%al, -36(%rbp)
	jmp	LBB73_9
LBB73_7:
	.loc	14 181 13
	movb	-20(%rbp), %al
	.loc	14 181 9 is_stmt 0
	movb	%al, -33(%rbp)
	.loc	14 182 16 is_stmt 1
	movb	-33(%rbp), %al
	.loc	14 182 14 is_stmt 0
	movb	%al, -18(%rbp)
	movzbl	-18(%rbp), %esi
Ltmp439:
	leaq	-32(%rbp), %rdi
	callq	__ZN48_$LT$u8$u20$as$u20$num_integer..roots..Roots$GT$4cbrt2go28_$u7b$$u7b$closure$u7d$$u7d$17hc5ead67199e975dfE
Ltmp440:
	movb	%al, -37(%rbp)
	jmp	LBB73_8
LBB73_8:
	.loc	14 0 14
	movb	-37(%rbp), %al
	.loc	14 182 9
	movb	%al, -20(%rbp)
	.loc	14 180 5 is_stmt 1
	jmp	LBB73_4
LBB73_9:
	.loc	14 0 5 is_stmt 0
	movb	-36(%rbp), %al
	.loc	14 184 11 is_stmt 1
	testb	$1, %al
	jne	LBB73_11
	jmp	LBB73_10
LBB73_10:
	.loc	14 188 5
	movb	-33(%rbp), %al
Ltmp444:
	.loc	14 189 2
	addq	$48, %rsp
	popq	%rbp
	retq
LBB73_11:
Ltmp445:
	.loc	14 185 13
	movb	-20(%rbp), %al
	.loc	14 185 9 is_stmt 0
	movb	%al, -33(%rbp)
	.loc	14 186 16 is_stmt 1
	movb	-33(%rbp), %al
	.loc	14 186 14 is_stmt 0
	movb	%al, -17(%rbp)
	movzbl	-17(%rbp), %esi
Ltmp437:
	leaq	-32(%rbp), %rdi
	callq	__ZN48_$LT$u8$u20$as$u20$num_integer..roots..Roots$GT$4cbrt2go28_$u7b$$u7b$closure$u7d$$u7d$17hc5ead67199e975dfE
Ltmp438:
	movb	%al, -38(%rbp)
	jmp	LBB73_12
LBB73_12:
	.loc	14 0 14
	movb	-38(%rbp), %al
	.loc	14 186 9
	movb	%al, -20(%rbp)
	.loc	14 184 5 is_stmt 1
	jmp	LBB73_6
Ltmp446:
Lfunc_end73:
	.cfi_endproc
	.section	__TEXT,__gcc_except_tab
	.p2align	2
GCC_except_table73:
Lexception7:
	.byte	255
	.byte	255
	.byte	1
	.uleb128 Lcst_end7-Lcst_begin7
Lcst_begin7:
	.uleb128 Ltmp431-Lfunc_begin73
	.uleb128 Ltmp432-Ltmp431
	.uleb128 Ltmp441-Lfunc_begin73
	.byte	0
	.uleb128 Ltmp432-Lfunc_begin73
	.uleb128 Ltmp433-Ltmp432
	.byte	0
	.byte	0
	.uleb128 Ltmp433-Lfunc_begin73
	.uleb128 Ltmp438-Ltmp433
	.uleb128 Ltmp441-Lfunc_begin73
	.byte	0
Lcst_end7:
	.p2align	2

	.section	__TEXT,__text,regular,pure_instructions
	.p2align	4, 0x90
__ZN11num_integer5roots8fixpoint17h324e0200c157688bE:
Lfunc_begin74:
	.loc	14 174 0
	.cfi_startproc
	.cfi_personality 155, _rust_eh_personality
	.cfi_lsda 16, Lexception8
	pushq	%rbp
	.cfi_def_cfa_offset 16
	.cfi_offset %rbp, -16
	movq	%rsp, %rbp
	.cfi_def_cfa_register %rbp
	subq	$112, %rsp
	movq	%rsi, -80(%rbp)
	movq	%rdi, %rax
	movq	-80(%rbp), %rdi
	movq	%rdi, -72(%rbp)
Ltmp458:
	movq	%rax, -56(%rbp)
Ltmp459:
	.loc	14 179 20 prologue_end
	movq	-56(%rbp), %rax
	.loc	14 179 18 is_stmt 0
	movq	%rax, -40(%rbp)
	movq	-40(%rbp), %rsi
Ltmp447:
	callq	__ZN49_$LT$u64$u20$as$u20$num_integer..roots..Roots$GT$8nth_root2go28_$u7b$$u7b$closure$u7d$$u7d$17h22006eb850d90875E
Ltmp460:
Ltmp448:
	.loc	14 0 18
	movq	%rax, -64(%rbp)
Ltmp461:
	.loc	14 179 18
	jmp	LBB74_3
Ltmp462:
LBB74_1:
	.loc	14 174 1 is_stmt 1
	movq	-16(%rbp), %rdi
	callq	__Unwind_Resume
Ltmp463:
LBB74_2:
Ltmp457:
	.loc	14 0 1 is_stmt 0
	movq	%rax, %rcx
	movl	%edx, %eax
	movq	%rcx, -16(%rbp)
	movl	%eax, -8(%rbp)
	jmp	LBB74_1
Ltmp464:
LBB74_3:
	movq	-64(%rbp), %rax
	.loc	14 179 18 is_stmt 1
	movq	%rax, -48(%rbp)
Ltmp465:
LBB74_4:
Ltmp449:
	.loc	14 0 18 is_stmt 0
	leaq	-56(%rbp), %rdi
	leaq	-48(%rbp), %rsi
Ltmp466:
	.loc	14 180 11 is_stmt 1
	callq	__ZN4core3cmp5impls55_$LT$impl$u20$core..cmp..PartialOrd$u20$for$u20$u64$GT$2lt17hd250d62dccd5e7cfE
Ltmp450:
	movb	%al, -81(%rbp)
	jmp	LBB74_5
Ltmp467:
LBB74_5:
	.loc	14 0 11 is_stmt 0
	movb	-81(%rbp), %al
	.loc	14 180 11
	testb	$1, %al
	jne	LBB74_7
	jmp	LBB74_6
Ltmp468:
LBB74_6:
Ltmp451:
	.loc	14 0 11
	leaq	-56(%rbp), %rdi
	leaq	-48(%rbp), %rsi
	.loc	14 184 11 is_stmt 1
	callq	__ZN4core3cmp5impls55_$LT$impl$u20$core..cmp..PartialOrd$u20$for$u20$u64$GT$2gt17heef776fa57c8b6bdE
Ltmp452:
	movb	%al, -82(%rbp)
	jmp	LBB74_9
Ltmp469:
LBB74_7:
	.loc	14 0 11 is_stmt 0
	movq	-72(%rbp), %rdi
	.loc	14 181 13 is_stmt 1
	movq	-48(%rbp), %rax
	.loc	14 181 9 is_stmt 0
	movq	%rax, -56(%rbp)
	.loc	14 182 16 is_stmt 1
	movq	-56(%rbp), %rax
	.loc	14 182 14 is_stmt 0
	movq	%rax, -32(%rbp)
	movq	-32(%rbp), %rsi
Ltmp455:
	callq	__ZN49_$LT$u64$u20$as$u20$num_integer..roots..Roots$GT$8nth_root2go28_$u7b$$u7b$closure$u7d$$u7d$17h22006eb850d90875E
Ltmp456:
	movq	%rax, -96(%rbp)
	jmp	LBB74_8
Ltmp470:
LBB74_8:
	.loc	14 0 14
	movq	-96(%rbp), %rax
	.loc	14 182 9
	movq	%rax, -48(%rbp)
	.loc	14 180 5 is_stmt 1
	jmp	LBB74_4
Ltmp471:
LBB74_9:
	.loc	14 0 5 is_stmt 0
	movb	-82(%rbp), %al
	.loc	14 184 11 is_stmt 1
	testb	$1, %al
	jne	LBB74_11
	jmp	LBB74_10
Ltmp472:
LBB74_10:
	.loc	14 188 5
	movq	-56(%rbp), %rax
Ltmp473:
	.loc	14 189 2
	addq	$112, %rsp
	popq	%rbp
	retq
Ltmp474:
LBB74_11:
	.loc	14 0 2 is_stmt 0
	movq	-72(%rbp), %rdi
Ltmp475:
	.loc	14 185 13 is_stmt 1
	movq	-48(%rbp), %rax
	.loc	14 185 9 is_stmt 0
	movq	%rax, -56(%rbp)
	.loc	14 186 16 is_stmt 1
	movq	-56(%rbp), %rax
	.loc	14 186 14 is_stmt 0
	movq	%rax, -24(%rbp)
	movq	-24(%rbp), %rsi
Ltmp453:
	callq	__ZN49_$LT$u64$u20$as$u20$num_integer..roots..Roots$GT$8nth_root2go28_$u7b$$u7b$closure$u7d$$u7d$17h22006eb850d90875E
Ltmp454:
	movq	%rax, -104(%rbp)
	jmp	LBB74_12
Ltmp476:
LBB74_12:
	.loc	14 0 14
	movq	-104(%rbp), %rax
	.loc	14 186 9
	movq	%rax, -48(%rbp)
	.loc	14 184 5 is_stmt 1
	jmp	LBB74_6
Ltmp477:
Lfunc_end74:
	.cfi_endproc
	.section	__TEXT,__gcc_except_tab
	.p2align	2
GCC_except_table74:
Lexception8:
	.byte	255
	.byte	255
	.byte	1
	.uleb128 Lcst_end8-Lcst_begin8
Lcst_begin8:
	.uleb128 Ltmp447-Lfunc_begin74
	.uleb128 Ltmp448-Ltmp447
	.uleb128 Ltmp457-Lfunc_begin74
	.byte	0
	.uleb128 Ltmp448-Lfunc_begin74
	.uleb128 Ltmp449-Ltmp448
	.byte	0
	.byte	0
	.uleb128 Ltmp449-Lfunc_begin74
	.uleb128 Ltmp454-Ltmp449
	.uleb128 Ltmp457-Lfunc_begin74
	.byte	0
Lcst_end8:
	.p2align	2

	.section	__TEXT,__text,regular,pure_instructions
	.p2align	4, 0x90
__ZN11num_integer5roots8fixpoint17h44c818aabe882bc5E:
Lfunc_begin75:
	.loc	14 174 0
	.cfi_startproc
	.cfi_personality 155, _rust_eh_personality
	.cfi_lsda 16, Lexception9
	pushq	%rbp
	.cfi_def_cfa_offset 16
	.cfi_offset %rbp, -16
	movq	%rsp, %rbp
	.cfi_def_cfa_register %rbp
	subq	$64, %rsp
	movl	%edi, -44(%rbp)
	movq	%rsi, -40(%rbp)
Ltmp489:
	.loc	14 179 20 prologue_end
	movl	-44(%rbp), %eax
	.loc	14 179 18 is_stmt 0
	movl	%eax, -28(%rbp)
	movl	-28(%rbp), %esi
Ltmp478:
	leaq	-40(%rbp), %rdi
	callq	__ZN49_$LT$u32$u20$as$u20$num_integer..roots..Roots$GT$4cbrt2go28_$u7b$$u7b$closure$u7d$$u7d$17hab493bfba9664a92E
Ltmp479:
	movl	%eax, -48(%rbp)
	jmp	LBB75_3
LBB75_1:
	.loc	14 174 1 is_stmt 1
	movq	-16(%rbp), %rdi
	callq	__Unwind_Resume
LBB75_2:
Ltmp488:
	.loc	14 0 1 is_stmt 0
	movq	%rax, %rcx
	movl	%edx, %eax
	movq	%rcx, -16(%rbp)
	movl	%eax, -8(%rbp)
	jmp	LBB75_1
LBB75_3:
	movl	-48(%rbp), %eax
	.loc	14 179 18 is_stmt 1
	movl	%eax, -32(%rbp)
LBB75_4:
Ltmp480:
	.loc	14 0 18 is_stmt 0
	leaq	-44(%rbp), %rdi
	leaq	-32(%rbp), %rsi
Ltmp490:
	.loc	14 180 11 is_stmt 1
	callq	__ZN4core3cmp5impls55_$LT$impl$u20$core..cmp..PartialOrd$u20$for$u20$u32$GT$2lt17hc11d0a3e8e4b2ee9E
Ltmp481:
	movb	%al, -49(%rbp)
	jmp	LBB75_5
LBB75_5:
	.loc	14 0 11 is_stmt 0
	movb	-49(%rbp), %al
	.loc	14 180 11
	testb	$1, %al
	jne	LBB75_7
	jmp	LBB75_6
LBB75_6:
Ltmp482:
	.loc	14 0 11
	leaq	-44(%rbp), %rdi
	leaq	-32(%rbp), %rsi
	.loc	14 184 11 is_stmt 1
	callq	__ZN4core3cmp5impls55_$LT$impl$u20$core..cmp..PartialOrd$u20$for$u20$u32$GT$2gt17h903e17aafd3ac95eE
Ltmp483:
	movb	%al, -50(%rbp)
	jmp	LBB75_9
LBB75_7:
	.loc	14 181 13
	movl	-32(%rbp), %eax
	.loc	14 181 9 is_stmt 0
	movl	%eax, -44(%rbp)
	.loc	14 182 16 is_stmt 1
	movl	-44(%rbp), %eax
	.loc	14 182 14 is_stmt 0
	movl	%eax, -24(%rbp)
	movl	-24(%rbp), %esi
Ltmp486:
	leaq	-40(%rbp), %rdi
	callq	__ZN49_$LT$u32$u20$as$u20$num_integer..roots..Roots$GT$4cbrt2go28_$u7b$$u7b$closure$u7d$$u7d$17hab493bfba9664a92E
Ltmp487:
	movl	%eax, -56(%rbp)
	jmp	LBB75_8
LBB75_8:
	.loc	14 0 14
	movl	-56(%rbp), %eax
	.loc	14 182 9
	movl	%eax, -32(%rbp)
	.loc	14 180 5 is_stmt 1
	jmp	LBB75_4
LBB75_9:
	.loc	14 0 5 is_stmt 0
	movb	-50(%rbp), %al
	.loc	14 184 11 is_stmt 1
	testb	$1, %al
	jne	LBB75_11
	jmp	LBB75_10
LBB75_10:
	.loc	14 188 5
	movl	-44(%rbp), %eax
Ltmp491:
	.loc	14 189 2
	addq	$64, %rsp
	popq	%rbp
	retq
LBB75_11:
Ltmp492:
	.loc	14 185 13
	movl	-32(%rbp), %eax
	.loc	14 185 9 is_stmt 0
	movl	%eax, -44(%rbp)
	.loc	14 186 16 is_stmt 1
	movl	-44(%rbp), %eax
	.loc	14 186 14 is_stmt 0
	movl	%eax, -20(%rbp)
	movl	-20(%rbp), %esi
Ltmp484:
	leaq	-40(%rbp), %rdi
	callq	__ZN49_$LT$u32$u20$as$u20$num_integer..roots..Roots$GT$4cbrt2go28_$u7b$$u7b$closure$u7d$$u7d$17hab493bfba9664a92E
Ltmp485:
	movl	%eax, -60(%rbp)
	jmp	LBB75_12
LBB75_12:
	.loc	14 0 14
	movl	-60(%rbp), %eax
	.loc	14 186 9
	movl	%eax, -32(%rbp)
	.loc	14 184 5 is_stmt 1
	jmp	LBB75_6
Ltmp493:
Lfunc_end75:
	.cfi_endproc
	.section	__TEXT,__gcc_except_tab
	.p2align	2
GCC_except_table75:
Lexception9:
	.byte	255
	.byte	255
	.byte	1
	.uleb128 Lcst_end9-Lcst_begin9
Lcst_begin9:
	.uleb128 Ltmp478-Lfunc_begin75
	.uleb128 Ltmp479-Ltmp478
	.uleb128 Ltmp488-Lfunc_begin75
	.byte	0
	.uleb128 Ltmp479-Lfunc_begin75
	.uleb128 Ltmp480-Ltmp479
	.byte	0
	.byte	0
	.uleb128 Ltmp480-Lfunc_begin75
	.uleb128 Ltmp485-Ltmp480
	.uleb128 Ltmp488-Lfunc_begin75
	.byte	0
Lcst_end9:
	.p2align	2

	.section	__TEXT,__text,regular,pure_instructions
	.p2align	4, 0x90
__ZN11num_integer5roots8fixpoint17h4922b560bff001f6E:
Lfunc_begin76:
	.loc	14 174 0
	.cfi_startproc
	.cfi_personality 155, _rust_eh_personality
	.cfi_lsda 16, Lexception10
	pushq	%rbp
	.cfi_def_cfa_offset 16
	.cfi_offset %rbp, -16
	movq	%rsp, %rbp
	.cfi_def_cfa_register %rbp
	subq	$64, %rsp
	movl	%edi, -44(%rbp)
	movq	%rsi, -40(%rbp)
Ltmp505:
	.loc	14 179 20 prologue_end
	movl	-44(%rbp), %eax
	.loc	14 179 18 is_stmt 0
	movl	%eax, -28(%rbp)
	movl	-28(%rbp), %esi
Ltmp494:
	leaq	-40(%rbp), %rdi
	callq	__ZN49_$LT$u32$u20$as$u20$num_integer..roots..Roots$GT$4sqrt2go28_$u7b$$u7b$closure$u7d$$u7d$17hce36f7d7a128b32bE
Ltmp495:
	movl	%eax, -48(%rbp)
	jmp	LBB76_3
LBB76_1:
	.loc	14 174 1 is_stmt 1
	movq	-16(%rbp), %rdi
	callq	__Unwind_Resume
LBB76_2:
Ltmp504:
	.loc	14 0 1 is_stmt 0
	movq	%rax, %rcx
	movl	%edx, %eax
	movq	%rcx, -16(%rbp)
	movl	%eax, -8(%rbp)
	jmp	LBB76_1
LBB76_3:
	movl	-48(%rbp), %eax
	.loc	14 179 18 is_stmt 1
	movl	%eax, -32(%rbp)
LBB76_4:
Ltmp496:
	.loc	14 0 18 is_stmt 0
	leaq	-44(%rbp), %rdi
	leaq	-32(%rbp), %rsi
Ltmp506:
	.loc	14 180 11 is_stmt 1
	callq	__ZN4core3cmp5impls55_$LT$impl$u20$core..cmp..PartialOrd$u20$for$u20$u32$GT$2lt17hc11d0a3e8e4b2ee9E
Ltmp497:
	movb	%al, -49(%rbp)
	jmp	LBB76_5
LBB76_5:
	.loc	14 0 11 is_stmt 0
	movb	-49(%rbp), %al
	.loc	14 180 11
	testb	$1, %al
	jne	LBB76_7
	jmp	LBB76_6
LBB76_6:
Ltmp498:
	.loc	14 0 11
	leaq	-44(%rbp), %rdi
	leaq	-32(%rbp), %rsi
	.loc	14 184 11 is_stmt 1
	callq	__ZN4core3cmp5impls55_$LT$impl$u20$core..cmp..PartialOrd$u20$for$u20$u32$GT$2gt17h903e17aafd3ac95eE
Ltmp499:
	movb	%al, -50(%rbp)
	jmp	LBB76_9
LBB76_7:
	.loc	14 181 13
	movl	-32(%rbp), %eax
	.loc	14 181 9 is_stmt 0
	movl	%eax, -44(%rbp)
	.loc	14 182 16 is_stmt 1
	movl	-44(%rbp), %eax
	.loc	14 182 14 is_stmt 0
	movl	%eax, -24(%rbp)
	movl	-24(%rbp), %esi
Ltmp502:
	leaq	-40(%rbp), %rdi
	callq	__ZN49_$LT$u32$u20$as$u20$num_integer..roots..Roots$GT$4sqrt2go28_$u7b$$u7b$closure$u7d$$u7d$17hce36f7d7a128b32bE
Ltmp503:
	movl	%eax, -56(%rbp)
	jmp	LBB76_8
LBB76_8:
	.loc	14 0 14
	movl	-56(%rbp), %eax
	.loc	14 182 9
	movl	%eax, -32(%rbp)
	.loc	14 180 5 is_stmt 1
	jmp	LBB76_4
LBB76_9:
	.loc	14 0 5 is_stmt 0
	movb	-50(%rbp), %al
	.loc	14 184 11 is_stmt 1
	testb	$1, %al
	jne	LBB76_11
	jmp	LBB76_10
LBB76_10:
	.loc	14 188 5
	movl	-44(%rbp), %eax
Ltmp507:
	.loc	14 189 2
	addq	$64, %rsp
	popq	%rbp
	retq
LBB76_11:
Ltmp508:
	.loc	14 185 13
	movl	-32(%rbp), %eax
	.loc	14 185 9 is_stmt 0
	movl	%eax, -44(%rbp)
	.loc	14 186 16 is_stmt 1
	movl	-44(%rbp), %eax
	.loc	14 186 14 is_stmt 0
	movl	%eax, -20(%rbp)
	movl	-20(%rbp), %esi
Ltmp500:
	leaq	-40(%rbp), %rdi
	callq	__ZN49_$LT$u32$u20$as$u20$num_integer..roots..Roots$GT$4sqrt2go28_$u7b$$u7b$closure$u7d$$u7d$17hce36f7d7a128b32bE
Ltmp501:
	movl	%eax, -60(%rbp)
	jmp	LBB76_12
LBB76_12:
	.loc	14 0 14
	movl	-60(%rbp), %eax
	.loc	14 186 9
	movl	%eax, -32(%rbp)
	.loc	14 184 5 is_stmt 1
	jmp	LBB76_6
Ltmp509:
Lfunc_end76:
	.cfi_endproc
	.section	__TEXT,__gcc_except_tab
	.p2align	2
GCC_except_table76:
Lexception10:
	.byte	255
	.byte	255
	.byte	1
	.uleb128 Lcst_end10-Lcst_begin10
Lcst_begin10:
	.uleb128 Ltmp494-Lfunc_begin76
	.uleb128 Ltmp495-Ltmp494
	.uleb128 Ltmp504-Lfunc_begin76
	.byte	0
	.uleb128 Ltmp495-Lfunc_begin76
	.uleb128 Ltmp496-Ltmp495
	.byte	0
	.byte	0
	.uleb128 Ltmp496-Lfunc_begin76
	.uleb128 Ltmp501-Ltmp496
	.uleb128 Ltmp504-Lfunc_begin76
	.byte	0
Lcst_end10:
	.p2align	2

	.section	__TEXT,__text,regular,pure_instructions
	.p2align	4, 0x90
__ZN11num_integer5roots8fixpoint17h57b648f9730fef1cE:
Lfunc_begin77:
	.loc	14 174 0
	.cfi_startproc
	.cfi_personality 155, _rust_eh_personality
	.cfi_lsda 16, Lexception11
	pushq	%rbp
	.cfi_def_cfa_offset 16
	.cfi_offset %rbp, -16
	movq	%rsp, %rbp
	.cfi_def_cfa_register %rbp
	subq	$160, %rsp
	movq	%rdi, -104(%rbp)
	movq	%rsi, -96(%rbp)
	movq	%rdx, -88(%rbp)
Ltmp521:
	.loc	14 179 20 prologue_end
	movq	-104(%rbp), %rax
	movq	-96(%rbp), %rcx
	.loc	14 179 18 is_stmt 0
	movq	%rcx, -56(%rbp)
	movq	%rax, -64(%rbp)
	movq	-64(%rbp), %rsi
	movq	-56(%rbp), %rdx
Ltmp510:
	leaq	-88(%rbp), %rdi
	callq	__ZN50_$LT$u128$u20$as$u20$num_integer..roots..Roots$GT$4sqrt2go28_$u7b$$u7b$closure$u7d$$u7d$17ha96b95f6480d8794E
Ltmp511:
	movq	%rdx, -120(%rbp)
	movq	%rax, -112(%rbp)
	jmp	LBB77_3
LBB77_1:
	.loc	14 174 1 is_stmt 1
	movq	-16(%rbp), %rdi
	callq	__Unwind_Resume
LBB77_2:
Ltmp520:
	.loc	14 0 1 is_stmt 0
	movq	%rax, %rcx
	movl	%edx, %eax
	movq	%rcx, -16(%rbp)
	movl	%eax, -8(%rbp)
	jmp	LBB77_1
LBB77_3:
	movq	-120(%rbp), %rax
	movq	-112(%rbp), %rcx
	.loc	14 179 18 is_stmt 1
	movq	%rcx, -80(%rbp)
	movq	%rax, -72(%rbp)
LBB77_4:
Ltmp512:
	.loc	14 0 18 is_stmt 0
	leaq	-104(%rbp), %rdi
	leaq	-80(%rbp), %rsi
Ltmp522:
	.loc	14 180 11 is_stmt 1
	callq	__ZN4core3cmp5impls56_$LT$impl$u20$core..cmp..PartialOrd$u20$for$u20$u128$GT$2lt17h02528b3a523dde43E
Ltmp513:
	movb	%al, -121(%rbp)
	jmp	LBB77_5
LBB77_5:
	.loc	14 0 11 is_stmt 0
	movb	-121(%rbp), %al
	.loc	14 180 11
	testb	$1, %al
	jne	LBB77_7
	jmp	LBB77_6
LBB77_6:
Ltmp514:
	.loc	14 0 11
	leaq	-104(%rbp), %rdi
	leaq	-80(%rbp), %rsi
	.loc	14 184 11 is_stmt 1
	callq	__ZN4core3cmp5impls56_$LT$impl$u20$core..cmp..PartialOrd$u20$for$u20$u128$GT$2gt17h26eb12e0cebf5470E
Ltmp515:
	movb	%al, -122(%rbp)
	jmp	LBB77_9
LBB77_7:
	.loc	14 181 13
	movq	-80(%rbp), %rax
	movq	-72(%rbp), %rcx
	.loc	14 181 9 is_stmt 0
	movq	%rcx, -96(%rbp)
	movq	%rax, -104(%rbp)
	.loc	14 182 16 is_stmt 1
	movq	-104(%rbp), %rax
	movq	-96(%rbp), %rcx
	.loc	14 182 14 is_stmt 0
	movq	%rcx, -40(%rbp)
	movq	%rax, -48(%rbp)
	movq	-48(%rbp), %rsi
	movq	-40(%rbp), %rdx
Ltmp518:
	leaq	-88(%rbp), %rdi
	callq	__ZN50_$LT$u128$u20$as$u20$num_integer..roots..Roots$GT$4sqrt2go28_$u7b$$u7b$closure$u7d$$u7d$17ha96b95f6480d8794E
Ltmp519:
	movq	%rdx, -144(%rbp)
	movq	%rax, -136(%rbp)
	jmp	LBB77_8
LBB77_8:
	.loc	14 0 14
	movq	-144(%rbp), %rax
	movq	-136(%rbp), %rcx
	.loc	14 182 9
	movq	%rcx, -80(%rbp)
	movq	%rax, -72(%rbp)
	.loc	14 180 5 is_stmt 1
	jmp	LBB77_4
LBB77_9:
	.loc	14 0 5 is_stmt 0
	movb	-122(%rbp), %al
	.loc	14 184 11 is_stmt 1
	testb	$1, %al
	jne	LBB77_11
	jmp	LBB77_10
LBB77_10:
	.loc	14 188 5
	movq	-104(%rbp), %rax
	movq	-96(%rbp), %rdx
Ltmp523:
	.loc	14 189 2
	addq	$160, %rsp
	popq	%rbp
	retq
LBB77_11:
Ltmp524:
	.loc	14 185 13
	movq	-80(%rbp), %rax
	movq	-72(%rbp), %rcx
	.loc	14 185 9 is_stmt 0
	movq	%rcx, -96(%rbp)
	movq	%rax, -104(%rbp)
	.loc	14 186 16 is_stmt 1
	movq	-104(%rbp), %rax
	movq	-96(%rbp), %rcx
	.loc	14 186 14 is_stmt 0
	movq	%rcx, -24(%rbp)
	movq	%rax, -32(%rbp)
	movq	-32(%rbp), %rsi
	movq	-24(%rbp), %rdx
Ltmp516:
	leaq	-88(%rbp), %rdi
	callq	__ZN50_$LT$u128$u20$as$u20$num_integer..roots..Roots$GT$4sqrt2go28_$u7b$$u7b$closure$u7d$$u7d$17ha96b95f6480d8794E
Ltmp517:
	movq	%rdx, -160(%rbp)
	movq	%rax, -152(%rbp)
	jmp	LBB77_12
LBB77_12:
	.loc	14 0 14
	movq	-160(%rbp), %rax
	movq	-152(%rbp), %rcx
	.loc	14 186 9
	movq	%rcx, -80(%rbp)
	movq	%rax, -72(%rbp)
	.loc	14 184 5 is_stmt 1
	jmp	LBB77_6
Ltmp525:
Lfunc_end77:
	.cfi_endproc
	.section	__TEXT,__gcc_except_tab
	.p2align	2
GCC_except_table77:
Lexception11:
	.byte	255
	.byte	255
	.byte	1
	.uleb128 Lcst_end11-Lcst_begin11
Lcst_begin11:
	.uleb128 Ltmp510-Lfunc_begin77
	.uleb128 Ltmp511-Ltmp510
	.uleb128 Ltmp520-Lfunc_begin77
	.byte	0
	.uleb128 Ltmp511-Lfunc_begin77
	.uleb128 Ltmp512-Ltmp511
	.byte	0
	.byte	0
	.uleb128 Ltmp512-Lfunc_begin77
	.uleb128 Ltmp517-Ltmp512
	.uleb128 Ltmp520-Lfunc_begin77
	.byte	0
Lcst_end11:
	.p2align	2

	.section	__TEXT,__text,regular,pure_instructions
	.p2align	4, 0x90
__ZN11num_integer5roots8fixpoint17h584c355963cd03fdE:
Lfunc_begin78:
	.loc	14 174 0
	.cfi_startproc
	.cfi_personality 155, _rust_eh_personality
	.cfi_lsda 16, Lexception12
	pushq	%rbp
	.cfi_def_cfa_offset 16
	.cfi_offset %rbp, -16
	movq	%rsp, %rbp
	.cfi_def_cfa_register %rbp
	subq	$48, %rsp
	movq	%rsi, -32(%rbp)
Ltmp537:
	movl	%edi, %eax
	movq	-32(%rbp), %rdi
	movb	%al, -21(%rbp)
Ltmp538:
	.loc	14 179 20 prologue_end
	movb	-21(%rbp), %al
	.loc	14 179 18 is_stmt 0
	movb	%al, -19(%rbp)
	movzbl	-19(%rbp), %esi
Ltmp526:
	callq	__ZN48_$LT$u8$u20$as$u20$num_integer..roots..Roots$GT$8nth_root2go28_$u7b$$u7b$closure$u7d$$u7d$17h93666a086c7f39e0E
Ltmp527:
	movb	%al, -22(%rbp)
	jmp	LBB78_3
Ltmp539:
LBB78_1:
	.loc	14 174 1 is_stmt 1
	movq	-16(%rbp), %rdi
	callq	__Unwind_Resume
Ltmp540:
LBB78_2:
Ltmp536:
	.loc	14 0 1 is_stmt 0
	movq	%rax, %rcx
	movl	%edx, %eax
	movq	%rcx, -16(%rbp)
	movl	%eax, -8(%rbp)
	jmp	LBB78_1
Ltmp541:
LBB78_3:
	movb	-22(%rbp), %al
	.loc	14 179 18 is_stmt 1
	movb	%al, -20(%rbp)
Ltmp542:
LBB78_4:
Ltmp528:
	.loc	14 0 18 is_stmt 0
	leaq	-21(%rbp), %rdi
	leaq	-20(%rbp), %rsi
Ltmp543:
	.loc	14 180 11 is_stmt 1
	callq	__ZN4core3cmp5impls54_$LT$impl$u20$core..cmp..PartialOrd$u20$for$u20$u8$GT$2lt17hba868800f154de7fE
Ltmp529:
	movb	%al, -33(%rbp)
	jmp	LBB78_5
Ltmp544:
LBB78_5:
	.loc	14 0 11 is_stmt 0
	movb	-33(%rbp), %al
	.loc	14 180 11
	testb	$1, %al
	jne	LBB78_7
	jmp	LBB78_6
Ltmp545:
LBB78_6:
Ltmp530:
	.loc	14 0 11
	leaq	-21(%rbp), %rdi
	leaq	-20(%rbp), %rsi
	.loc	14 184 11 is_stmt 1
	callq	__ZN4core3cmp5impls54_$LT$impl$u20$core..cmp..PartialOrd$u20$for$u20$u8$GT$2gt17h51d1cc18db844a9dE
Ltmp531:
	movb	%al, -34(%rbp)
	jmp	LBB78_9
Ltmp546:
LBB78_7:
	.loc	14 0 11 is_stmt 0
	movq	-32(%rbp), %rdi
	.loc	14 181 13 is_stmt 1
	movb	-20(%rbp), %al
	.loc	14 181 9 is_stmt 0
	movb	%al, -21(%rbp)
	.loc	14 182 16 is_stmt 1
	movb	-21(%rbp), %al
	.loc	14 182 14 is_stmt 0
	movb	%al, -18(%rbp)
	movzbl	-18(%rbp), %esi
Ltmp534:
	callq	__ZN48_$LT$u8$u20$as$u20$num_integer..roots..Roots$GT$8nth_root2go28_$u7b$$u7b$closure$u7d$$u7d$17h93666a086c7f39e0E
Ltmp535:
	movb	%al, -35(%rbp)
	jmp	LBB78_8
Ltmp547:
LBB78_8:
	.loc	14 0 14
	movb	-35(%rbp), %al
	.loc	14 182 9
	movb	%al, -20(%rbp)
	.loc	14 180 5 is_stmt 1
	jmp	LBB78_4
Ltmp548:
LBB78_9:
	.loc	14 0 5 is_stmt 0
	movb	-34(%rbp), %al
	.loc	14 184 11 is_stmt 1
	testb	$1, %al
	jne	LBB78_11
	jmp	LBB78_10
Ltmp549:
LBB78_10:
	.loc	14 188 5
	movb	-21(%rbp), %al
Ltmp550:
	.loc	14 189 2
	addq	$48, %rsp
	popq	%rbp
	retq
Ltmp551:
LBB78_11:
	.loc	14 0 2 is_stmt 0
	movq	-32(%rbp), %rdi
Ltmp552:
	.loc	14 185 13 is_stmt 1
	movb	-20(%rbp), %al
	.loc	14 185 9 is_stmt 0
	movb	%al, -21(%rbp)
	.loc	14 186 16 is_stmt 1
	movb	-21(%rbp), %al
	.loc	14 186 14 is_stmt 0
	movb	%al, -17(%rbp)
	movzbl	-17(%rbp), %esi
Ltmp532:
	callq	__ZN48_$LT$u8$u20$as$u20$num_integer..roots..Roots$GT$8nth_root2go28_$u7b$$u7b$closure$u7d$$u7d$17h93666a086c7f39e0E
Ltmp533:
	movb	%al, -36(%rbp)
	jmp	LBB78_12
Ltmp553:
LBB78_12:
	.loc	14 0 14
	movb	-36(%rbp), %al
	.loc	14 186 9
	movb	%al, -20(%rbp)
	.loc	14 184 5 is_stmt 1
	jmp	LBB78_6
Ltmp554:
Lfunc_end78:
	.cfi_endproc
	.section	__TEXT,__gcc_except_tab
	.p2align	2
GCC_except_table78:
Lexception12:
	.byte	255
	.byte	255
	.byte	1
	.uleb128 Lcst_end12-Lcst_begin12
Lcst_begin12:
	.uleb128 Ltmp526-Lfunc_begin78
	.uleb128 Ltmp527-Ltmp526
	.uleb128 Ltmp536-Lfunc_begin78
	.byte	0
	.uleb128 Ltmp527-Lfunc_begin78
	.uleb128 Ltmp528-Ltmp527
	.byte	0
	.byte	0
	.uleb128 Ltmp528-Lfunc_begin78
	.uleb128 Ltmp533-Ltmp528
	.uleb128 Ltmp536-Lfunc_begin78
	.byte	0
Lcst_end12:
	.p2align	2

	.section	__TEXT,__text,regular,pure_instructions
	.p2align	4, 0x90
__ZN11num_integer5roots8fixpoint17h6c701cd9c2b707deE:
Lfunc_begin79:
	.loc	14 174 0
	.cfi_startproc
	.cfi_personality 155, _rust_eh_personality
	.cfi_lsda 16, Lexception13
	pushq	%rbp
	.cfi_def_cfa_offset 16
	.cfi_offset %rbp, -16
	movq	%rsp, %rbp
	.cfi_def_cfa_register %rbp
	subq	$80, %rsp
	movq	%rsi, -56(%rbp)
	movl	%edi, %eax
	movq	-56(%rbp), %rdi
	movq	%rdi, -48(%rbp)
Ltmp566:
	movl	%eax, -36(%rbp)
Ltmp567:
	.loc	14 179 20 prologue_end
	movl	-36(%rbp), %eax
	.loc	14 179 18 is_stmt 0
	movl	%eax, -28(%rbp)
	movl	-28(%rbp), %esi
Ltmp555:
	callq	__ZN49_$LT$u32$u20$as$u20$num_integer..roots..Roots$GT$8nth_root2go28_$u7b$$u7b$closure$u7d$$u7d$17hc072a7b8489e10beE
Ltmp568:
Ltmp556:
	.loc	14 0 18
	movl	%eax, -40(%rbp)
Ltmp569:
	.loc	14 179 18
	jmp	LBB79_3
Ltmp570:
LBB79_1:
	.loc	14 174 1 is_stmt 1
	movq	-16(%rbp), %rdi
	callq	__Unwind_Resume
Ltmp571:
LBB79_2:
Ltmp565:
	.loc	14 0 1 is_stmt 0
	movq	%rax, %rcx
	movl	%edx, %eax
	movq	%rcx, -16(%rbp)
	movl	%eax, -8(%rbp)
	jmp	LBB79_1
Ltmp572:
LBB79_3:
	movl	-40(%rbp), %eax
	.loc	14 179 18 is_stmt 1
	movl	%eax, -32(%rbp)
Ltmp573:
LBB79_4:
Ltmp557:
	.loc	14 0 18 is_stmt 0
	leaq	-36(%rbp), %rdi
	leaq	-32(%rbp), %rsi
Ltmp574:
	.loc	14 180 11 is_stmt 1
	callq	__ZN4core3cmp5impls55_$LT$impl$u20$core..cmp..PartialOrd$u20$for$u20$u32$GT$2lt17hc11d0a3e8e4b2ee9E
Ltmp558:
	movb	%al, -57(%rbp)
	jmp	LBB79_5
Ltmp575:
LBB79_5:
	.loc	14 0 11 is_stmt 0
	movb	-57(%rbp), %al
	.loc	14 180 11
	testb	$1, %al
	jne	LBB79_7
	jmp	LBB79_6
Ltmp576:
LBB79_6:
Ltmp559:
	.loc	14 0 11
	leaq	-36(%rbp), %rdi
	leaq	-32(%rbp), %rsi
	.loc	14 184 11 is_stmt 1
	callq	__ZN4core3cmp5impls55_$LT$impl$u20$core..cmp..PartialOrd$u20$for$u20$u32$GT$2gt17h903e17aafd3ac95eE
Ltmp560:
	movb	%al, -58(%rbp)
	jmp	LBB79_9
Ltmp577:
LBB79_7:
	.loc	14 0 11 is_stmt 0
	movq	-48(%rbp), %rdi
	.loc	14 181 13 is_stmt 1
	movl	-32(%rbp), %eax
	.loc	14 181 9 is_stmt 0
	movl	%eax, -36(%rbp)
	.loc	14 182 16 is_stmt 1
	movl	-36(%rbp), %eax
	.loc	14 182 14 is_stmt 0
	movl	%eax, -24(%rbp)
	movl	-24(%rbp), %esi
Ltmp563:
	callq	__ZN49_$LT$u32$u20$as$u20$num_integer..roots..Roots$GT$8nth_root2go28_$u7b$$u7b$closure$u7d$$u7d$17hc072a7b8489e10beE
Ltmp564:
	movl	%eax, -64(%rbp)
	jmp	LBB79_8
Ltmp578:
LBB79_8:
	.loc	14 0 14
	movl	-64(%rbp), %eax
	.loc	14 182 9
	movl	%eax, -32(%rbp)
	.loc	14 180 5 is_stmt 1
	jmp	LBB79_4
Ltmp579:
LBB79_9:
	.loc	14 0 5 is_stmt 0
	movb	-58(%rbp), %al
	.loc	14 184 11 is_stmt 1
	testb	$1, %al
	jne	LBB79_11
	jmp	LBB79_10
Ltmp580:
LBB79_10:
	.loc	14 188 5
	movl	-36(%rbp), %eax
Ltmp581:
	.loc	14 189 2
	addq	$80, %rsp
	popq	%rbp
	retq
Ltmp582:
LBB79_11:
	.loc	14 0 2 is_stmt 0
	movq	-48(%rbp), %rdi
Ltmp583:
	.loc	14 185 13 is_stmt 1
	movl	-32(%rbp), %eax
	.loc	14 185 9 is_stmt 0
	movl	%eax, -36(%rbp)
	.loc	14 186 16 is_stmt 1
	movl	-36(%rbp), %eax
	.loc	14 186 14 is_stmt 0
	movl	%eax, -20(%rbp)
	movl	-20(%rbp), %esi
Ltmp561:
	callq	__ZN49_$LT$u32$u20$as$u20$num_integer..roots..Roots$GT$8nth_root2go28_$u7b$$u7b$closure$u7d$$u7d$17hc072a7b8489e10beE
Ltmp562:
	movl	%eax, -68(%rbp)
	jmp	LBB79_12
Ltmp584:
LBB79_12:
	.loc	14 0 14
	movl	-68(%rbp), %eax
	.loc	14 186 9
	movl	%eax, -32(%rbp)
	.loc	14 184 5 is_stmt 1
	jmp	LBB79_6
Ltmp585:
Lfunc_end79:
	.cfi_endproc
	.section	__TEXT,__gcc_except_tab
	.p2align	2
GCC_except_table79:
Lexception13:
	.byte	255
	.byte	255
	.byte	1
	.uleb128 Lcst_end13-Lcst_begin13
Lcst_begin13:
	.uleb128 Ltmp555-Lfunc_begin79
	.uleb128 Ltmp556-Ltmp555
	.uleb128 Ltmp565-Lfunc_begin79
	.byte	0
	.uleb128 Ltmp556-Lfunc_begin79
	.uleb128 Ltmp557-Ltmp556
	.byte	0
	.byte	0
	.uleb128 Ltmp557-Lfunc_begin79
	.uleb128 Ltmp562-Ltmp557
	.uleb128 Ltmp565-Lfunc_begin79
	.byte	0
Lcst_end13:
	.p2align	2

	.section	__TEXT,__text,regular,pure_instructions
	.p2align	4, 0x90
__ZN11num_integer5roots8fixpoint17h8b35c5551d3eea92E:
Lfunc_begin80:
	.loc	14 174 0
	.cfi_startproc
	.cfi_personality 155, _rust_eh_personality
	.cfi_lsda 16, Lexception14
	pushq	%rbp
	.cfi_def_cfa_offset 16
	.cfi_offset %rbp, -16
	movq	%rsp, %rbp
	.cfi_def_cfa_register %rbp
	subq	$160, %rsp
	movq	%rdi, -104(%rbp)
	movq	%rsi, -96(%rbp)
	movq	%rdx, -88(%rbp)
Ltmp597:
	.loc	14 179 20 prologue_end
	movq	-104(%rbp), %rax
	movq	-96(%rbp), %rcx
	.loc	14 179 18 is_stmt 0
	movq	%rcx, -56(%rbp)
	movq	%rax, -64(%rbp)
	movq	-64(%rbp), %rsi
	movq	-56(%rbp), %rdx
Ltmp586:
	leaq	-88(%rbp), %rdi
	callq	__ZN50_$LT$u128$u20$as$u20$num_integer..roots..Roots$GT$4cbrt2go28_$u7b$$u7b$closure$u7d$$u7d$17h485256e5efcbaf4eE
Ltmp587:
	movq	%rdx, -120(%rbp)
	movq	%rax, -112(%rbp)
	jmp	LBB80_3
LBB80_1:
	.loc	14 174 1 is_stmt 1
	movq	-16(%rbp), %rdi
	callq	__Unwind_Resume
LBB80_2:
Ltmp596:
	.loc	14 0 1 is_stmt 0
	movq	%rax, %rcx
	movl	%edx, %eax
	movq	%rcx, -16(%rbp)
	movl	%eax, -8(%rbp)
	jmp	LBB80_1
LBB80_3:
	movq	-120(%rbp), %rax
	movq	-112(%rbp), %rcx
	.loc	14 179 18 is_stmt 1
	movq	%rcx, -80(%rbp)
	movq	%rax, -72(%rbp)
LBB80_4:
Ltmp588:
	.loc	14 0 18 is_stmt 0
	leaq	-104(%rbp), %rdi
	leaq	-80(%rbp), %rsi
Ltmp598:
	.loc	14 180 11 is_stmt 1
	callq	__ZN4core3cmp5impls56_$LT$impl$u20$core..cmp..PartialOrd$u20$for$u20$u128$GT$2lt17h02528b3a523dde43E
Ltmp589:
	movb	%al, -121(%rbp)
	jmp	LBB80_5
LBB80_5:
	.loc	14 0 11 is_stmt 0
	movb	-121(%rbp), %al
	.loc	14 180 11
	testb	$1, %al
	jne	LBB80_7
	jmp	LBB80_6
LBB80_6:
Ltmp590:
	.loc	14 0 11
	leaq	-104(%rbp), %rdi
	leaq	-80(%rbp), %rsi
	.loc	14 184 11 is_stmt 1
	callq	__ZN4core3cmp5impls56_$LT$impl$u20$core..cmp..PartialOrd$u20$for$u20$u128$GT$2gt17h26eb12e0cebf5470E
Ltmp591:
	movb	%al, -122(%rbp)
	jmp	LBB80_9
LBB80_7:
	.loc	14 181 13
	movq	-80(%rbp), %rax
	movq	-72(%rbp), %rcx
	.loc	14 181 9 is_stmt 0
	movq	%rcx, -96(%rbp)
	movq	%rax, -104(%rbp)
	.loc	14 182 16 is_stmt 1
	movq	-104(%rbp), %rax
	movq	-96(%rbp), %rcx
	.loc	14 182 14 is_stmt 0
	movq	%rcx, -40(%rbp)
	movq	%rax, -48(%rbp)
	movq	-48(%rbp), %rsi
	movq	-40(%rbp), %rdx
Ltmp594:
	leaq	-88(%rbp), %rdi
	callq	__ZN50_$LT$u128$u20$as$u20$num_integer..roots..Roots$GT$4cbrt2go28_$u7b$$u7b$closure$u7d$$u7d$17h485256e5efcbaf4eE
Ltmp595:
	movq	%rdx, -144(%rbp)
	movq	%rax, -136(%rbp)
	jmp	LBB80_8
LBB80_8:
	.loc	14 0 14
	movq	-144(%rbp), %rax
	movq	-136(%rbp), %rcx
	.loc	14 182 9
	movq	%rcx, -80(%rbp)
	movq	%rax, -72(%rbp)
	.loc	14 180 5 is_stmt 1
	jmp	LBB80_4
LBB80_9:
	.loc	14 0 5 is_stmt 0
	movb	-122(%rbp), %al
	.loc	14 184 11 is_stmt 1
	testb	$1, %al
	jne	LBB80_11
	jmp	LBB80_10
LBB80_10:
	.loc	14 188 5
	movq	-104(%rbp), %rax
	movq	-96(%rbp), %rdx
Ltmp599:
	.loc	14 189 2
	addq	$160, %rsp
	popq	%rbp
	retq
LBB80_11:
Ltmp600:
	.loc	14 185 13
	movq	-80(%rbp), %rax
	movq	-72(%rbp), %rcx
	.loc	14 185 9 is_stmt 0
	movq	%rcx, -96(%rbp)
	movq	%rax, -104(%rbp)
	.loc	14 186 16 is_stmt 1
	movq	-104(%rbp), %rax
	movq	-96(%rbp), %rcx
	.loc	14 186 14 is_stmt 0
	movq	%rcx, -24(%rbp)
	movq	%rax, -32(%rbp)
	movq	-32(%rbp), %rsi
	movq	-24(%rbp), %rdx
Ltmp592:
	leaq	-88(%rbp), %rdi
	callq	__ZN50_$LT$u128$u20$as$u20$num_integer..roots..Roots$GT$4cbrt2go28_$u7b$$u7b$closure$u7d$$u7d$17h485256e5efcbaf4eE
Ltmp593:
	movq	%rdx, -160(%rbp)
	movq	%rax, -152(%rbp)
	jmp	LBB80_12
LBB80_12:
	.loc	14 0 14
	movq	-160(%rbp), %rax
	movq	-152(%rbp), %rcx
	.loc	14 186 9
	movq	%rcx, -80(%rbp)
	movq	%rax, -72(%rbp)
	.loc	14 184 5 is_stmt 1
	jmp	LBB80_6
Ltmp601:
Lfunc_end80:
	.cfi_endproc
	.section	__TEXT,__gcc_except_tab
	.p2align	2
GCC_except_table80:
Lexception14:
	.byte	255
	.byte	255
	.byte	1
	.uleb128 Lcst_end14-Lcst_begin14
Lcst_begin14:
	.uleb128 Ltmp586-Lfunc_begin80
	.uleb128 Ltmp587-Ltmp586
	.uleb128 Ltmp596-Lfunc_begin80
	.byte	0
	.uleb128 Ltmp587-Lfunc_begin80
	.uleb128 Ltmp588-Ltmp587
	.byte	0
	.byte	0
	.uleb128 Ltmp588-Lfunc_begin80
	.uleb128 Ltmp593-Ltmp588
	.uleb128 Ltmp596-Lfunc_begin80
	.byte	0
Lcst_end14:
	.p2align	2

	.section	__TEXT,__text,regular,pure_instructions
	.p2align	4, 0x90
__ZN11num_integer5roots8fixpoint17h8f5d96671ffbe41eE:
Lfunc_begin81:
	.loc	14 174 0
	.cfi_startproc
	.cfi_personality 155, _rust_eh_personality
	.cfi_lsda 16, Lexception15
	pushq	%rbp
	.cfi_def_cfa_offset 16
	.cfi_offset %rbp, -16
	movq	%rsp, %rbp
	.cfi_def_cfa_register %rbp
	subq	$112, %rsp
	movq	%rsi, -80(%rbp)
	movq	%rdi, %rax
	movq	-80(%rbp), %rdi
	movq	%rdi, -72(%rbp)
Ltmp613:
	movq	%rax, -56(%rbp)
Ltmp614:
	.loc	14 179 20 prologue_end
	movq	-56(%rbp), %rax
	.loc	14 179 18 is_stmt 0
	movq	%rax, -40(%rbp)
	movq	-40(%rbp), %rsi
Ltmp602:
	callq	__ZN51_$LT$usize$u20$as$u20$num_integer..roots..Roots$GT$8nth_root2go28_$u7b$$u7b$closure$u7d$$u7d$17h98d5081529527746E
Ltmp615:
Ltmp603:
	.loc	14 0 18
	movq	%rax, -64(%rbp)
Ltmp616:
	.loc	14 179 18
	jmp	LBB81_3
Ltmp617:
LBB81_1:
	.loc	14 174 1 is_stmt 1
	movq	-16(%rbp), %rdi
	callq	__Unwind_Resume
Ltmp618:
LBB81_2:
Ltmp612:
	.loc	14 0 1 is_stmt 0
	movq	%rax, %rcx
	movl	%edx, %eax
	movq	%rcx, -16(%rbp)
	movl	%eax, -8(%rbp)
	jmp	LBB81_1
Ltmp619:
LBB81_3:
	movq	-64(%rbp), %rax
	.loc	14 179 18 is_stmt 1
	movq	%rax, -48(%rbp)
Ltmp620:
LBB81_4:
Ltmp604:
	.loc	14 0 18 is_stmt 0
	leaq	-56(%rbp), %rdi
	leaq	-48(%rbp), %rsi
Ltmp621:
	.loc	14 180 11 is_stmt 1
	callq	__ZN4core3cmp5impls57_$LT$impl$u20$core..cmp..PartialOrd$u20$for$u20$usize$GT$2lt17hf1b4866872b3681dE
Ltmp605:
	movb	%al, -81(%rbp)
	jmp	LBB81_5
Ltmp622:
LBB81_5:
	.loc	14 0 11 is_stmt 0
	movb	-81(%rbp), %al
	.loc	14 180 11
	testb	$1, %al
	jne	LBB81_7
	jmp	LBB81_6
Ltmp623:
LBB81_6:
Ltmp606:
	.loc	14 0 11
	leaq	-56(%rbp), %rdi
	leaq	-48(%rbp), %rsi
	.loc	14 184 11 is_stmt 1
	callq	__ZN4core3cmp5impls57_$LT$impl$u20$core..cmp..PartialOrd$u20$for$u20$usize$GT$2gt17hee0b050ce1d4d1c3E
Ltmp607:
	movb	%al, -82(%rbp)
	jmp	LBB81_9
Ltmp624:
LBB81_7:
	.loc	14 0 11 is_stmt 0
	movq	-72(%rbp), %rdi
	.loc	14 181 13 is_stmt 1
	movq	-48(%rbp), %rax
	.loc	14 181 9 is_stmt 0
	movq	%rax, -56(%rbp)
	.loc	14 182 16 is_stmt 1
	movq	-56(%rbp), %rax
	.loc	14 182 14 is_stmt 0
	movq	%rax, -32(%rbp)
	movq	-32(%rbp), %rsi
Ltmp610:
	callq	__ZN51_$LT$usize$u20$as$u20$num_integer..roots..Roots$GT$8nth_root2go28_$u7b$$u7b$closure$u7d$$u7d$17h98d5081529527746E
Ltmp611:
	movq	%rax, -96(%rbp)
	jmp	LBB81_8
Ltmp625:
LBB81_8:
	.loc	14 0 14
	movq	-96(%rbp), %rax
	.loc	14 182 9
	movq	%rax, -48(%rbp)
	.loc	14 180 5 is_stmt 1
	jmp	LBB81_4
Ltmp626:
LBB81_9:
	.loc	14 0 5 is_stmt 0
	movb	-82(%rbp), %al
	.loc	14 184 11 is_stmt 1
	testb	$1, %al
	jne	LBB81_11
	jmp	LBB81_10
Ltmp627:
LBB81_10:
	.loc	14 188 5
	movq	-56(%rbp), %rax
Ltmp628:
	.loc	14 189 2
	addq	$112, %rsp
	popq	%rbp
	retq
Ltmp629:
LBB81_11:
	.loc	14 0 2 is_stmt 0
	movq	-72(%rbp), %rdi
Ltmp630:
	.loc	14 185 13 is_stmt 1
	movq	-48(%rbp), %rax
	.loc	14 185 9 is_stmt 0
	movq	%rax, -56(%rbp)
	.loc	14 186 16 is_stmt 1
	movq	-56(%rbp), %rax
	.loc	14 186 14 is_stmt 0
	movq	%rax, -24(%rbp)
	movq	-24(%rbp), %rsi
Ltmp608:
	callq	__ZN51_$LT$usize$u20$as$u20$num_integer..roots..Roots$GT$8nth_root2go28_$u7b$$u7b$closure$u7d$$u7d$17h98d5081529527746E
Ltmp609:
	movq	%rax, -104(%rbp)
	jmp	LBB81_12
Ltmp631:
LBB81_12:
	.loc	14 0 14
	movq	-104(%rbp), %rax
	.loc	14 186 9
	movq	%rax, -48(%rbp)
	.loc	14 184 5 is_stmt 1
	jmp	LBB81_6
Ltmp632:
Lfunc_end81:
	.cfi_endproc
	.section	__TEXT,__gcc_except_tab
	.p2align	2
GCC_except_table81:
Lexception15:
	.byte	255
	.byte	255
	.byte	1
	.uleb128 Lcst_end15-Lcst_begin15
Lcst_begin15:
	.uleb128 Ltmp602-Lfunc_begin81
	.uleb128 Ltmp603-Ltmp602
	.uleb128 Ltmp612-Lfunc_begin81
	.byte	0
	.uleb128 Ltmp603-Lfunc_begin81
	.uleb128 Ltmp604-Ltmp603
	.byte	0
	.byte	0
	.uleb128 Ltmp604-Lfunc_begin81
	.uleb128 Ltmp609-Ltmp604
	.uleb128 Ltmp612-Lfunc_begin81
	.byte	0
Lcst_end15:
	.p2align	2

	.section	__TEXT,__text,regular,pure_instructions
	.p2align	4, 0x90
__ZN11num_integer5roots8fixpoint17h99ef5e85f5f7ca47E:
Lfunc_begin82:
	.loc	14 174 0
	.cfi_startproc
	.cfi_personality 155, _rust_eh_personality
	.cfi_lsda 16, Lexception16
	pushq	%rbp
	.cfi_def_cfa_offset 16
	.cfi_offset %rbp, -16
	movq	%rsp, %rbp
	.cfi_def_cfa_register %rbp
	subq	$48, %rsp
	movw	%di, %ax
	movw	%ax, -34(%rbp)
	movq	%rsi, -32(%rbp)
Ltmp644:
	.loc	14 179 20 prologue_end
	movw	-34(%rbp), %ax
	.loc	14 179 18 is_stmt 0
	movw	%ax, -22(%rbp)
	movzwl	-22(%rbp), %esi
Ltmp633:
	leaq	-32(%rbp), %rdi
	callq	__ZN49_$LT$u16$u20$as$u20$num_integer..roots..Roots$GT$4sqrt2go28_$u7b$$u7b$closure$u7d$$u7d$17h70f30f17aea1b792E
Ltmp634:
	movw	%ax, -36(%rbp)
	jmp	LBB82_3
LBB82_1:
	.loc	14 174 1 is_stmt 1
	movq	-16(%rbp), %rdi
	callq	__Unwind_Resume
LBB82_2:
Ltmp643:
	.loc	14 0 1 is_stmt 0
	movq	%rax, %rcx
	movl	%edx, %eax
	movq	%rcx, -16(%rbp)
	movl	%eax, -8(%rbp)
	jmp	LBB82_1
LBB82_3:
	movw	-36(%rbp), %ax
	.loc	14 179 18 is_stmt 1
	movw	%ax, -24(%rbp)
LBB82_4:
Ltmp635:
	.loc	14 0 18 is_stmt 0
	leaq	-34(%rbp), %rdi
	leaq	-24(%rbp), %rsi
Ltmp645:
	.loc	14 180 11 is_stmt 1
	callq	__ZN4core3cmp5impls55_$LT$impl$u20$core..cmp..PartialOrd$u20$for$u20$u16$GT$2lt17h9908771121570d45E
Ltmp636:
	movb	%al, -37(%rbp)
	jmp	LBB82_5
LBB82_5:
	.loc	14 0 11 is_stmt 0
	movb	-37(%rbp), %al
	.loc	14 180 11
	testb	$1, %al
	jne	LBB82_7
	jmp	LBB82_6
LBB82_6:
Ltmp637:
	.loc	14 0 11
	leaq	-34(%rbp), %rdi
	leaq	-24(%rbp), %rsi
	.loc	14 184 11 is_stmt 1
	callq	__ZN4core3cmp5impls55_$LT$impl$u20$core..cmp..PartialOrd$u20$for$u20$u16$GT$2gt17h7480489111cdc830E
Ltmp638:
	movb	%al, -38(%rbp)
	jmp	LBB82_9
LBB82_7:
	.loc	14 181 13
	movw	-24(%rbp), %ax
	.loc	14 181 9 is_stmt 0
	movw	%ax, -34(%rbp)
	.loc	14 182 16 is_stmt 1
	movw	-34(%rbp), %ax
	.loc	14 182 14 is_stmt 0
	movw	%ax, -20(%rbp)
	movzwl	-20(%rbp), %esi
Ltmp641:
	leaq	-32(%rbp), %rdi
	callq	__ZN49_$LT$u16$u20$as$u20$num_integer..roots..Roots$GT$4sqrt2go28_$u7b$$u7b$closure$u7d$$u7d$17h70f30f17aea1b792E
Ltmp642:
	movw	%ax, -40(%rbp)
	jmp	LBB82_8
LBB82_8:
	.loc	14 0 14
	movw	-40(%rbp), %ax
	.loc	14 182 9
	movw	%ax, -24(%rbp)
	.loc	14 180 5 is_stmt 1
	jmp	LBB82_4
LBB82_9:
	.loc	14 0 5 is_stmt 0
	movb	-38(%rbp), %al
	.loc	14 184 11 is_stmt 1
	testb	$1, %al
	jne	LBB82_11
	jmp	LBB82_10
LBB82_10:
	.loc	14 188 5
	movw	-34(%rbp), %ax
Ltmp646:
	.loc	14 189 2
	addq	$48, %rsp
	popq	%rbp
	retq
LBB82_11:
Ltmp647:
	.loc	14 185 13
	movw	-24(%rbp), %ax
	.loc	14 185 9 is_stmt 0
	movw	%ax, -34(%rbp)
	.loc	14 186 16 is_stmt 1
	movw	-34(%rbp), %ax
	.loc	14 186 14 is_stmt 0
	movw	%ax, -18(%rbp)
	movzwl	-18(%rbp), %esi
Ltmp639:
	leaq	-32(%rbp), %rdi
	callq	__ZN49_$LT$u16$u20$as$u20$num_integer..roots..Roots$GT$4sqrt2go28_$u7b$$u7b$closure$u7d$$u7d$17h70f30f17aea1b792E
Ltmp640:
	movw	%ax, -42(%rbp)
	jmp	LBB82_12
LBB82_12:
	.loc	14 0 14
	movw	-42(%rbp), %ax
	.loc	14 186 9
	movw	%ax, -24(%rbp)
	.loc	14 184 5 is_stmt 1
	jmp	LBB82_6
Ltmp648:
Lfunc_end82:
	.cfi_endproc
	.section	__TEXT,__gcc_except_tab
	.p2align	2
GCC_except_table82:
Lexception16:
	.byte	255
	.byte	255
	.byte	1
	.uleb128 Lcst_end16-Lcst_begin16
Lcst_begin16:
	.uleb128 Ltmp633-Lfunc_begin82
	.uleb128 Ltmp634-Ltmp633
	.uleb128 Ltmp643-Lfunc_begin82
	.byte	0
	.uleb128 Ltmp634-Lfunc_begin82
	.uleb128 Ltmp635-Ltmp634
	.byte	0
	.byte	0
	.uleb128 Ltmp635-Lfunc_begin82
	.uleb128 Ltmp640-Ltmp635
	.uleb128 Ltmp643-Lfunc_begin82
	.byte	0
Lcst_end16:
	.p2align	2

	.section	__TEXT,__text,regular,pure_instructions
	.p2align	4, 0x90
__ZN11num_integer5roots8fixpoint17ha32f5eea149ab15fE:
Lfunc_begin83:
	.loc	14 174 0
	.cfi_startproc
	.cfi_personality 155, _rust_eh_personality
	.cfi_lsda 16, Lexception17
	pushq	%rbp
	.cfi_def_cfa_offset 16
	.cfi_offset %rbp, -16
	movq	%rsp, %rbp
	.cfi_def_cfa_register %rbp
	subq	$48, %rsp
	movq	%rsi, -40(%rbp)
Ltmp660:
	movl	%edi, %eax
	movq	-40(%rbp), %rdi
	movw	%ax, -26(%rbp)
Ltmp661:
	.loc	14 179 20 prologue_end
	movw	-26(%rbp), %ax
	.loc	14 179 18 is_stmt 0
	movw	%ax, -22(%rbp)
	movzwl	-22(%rbp), %esi
Ltmp649:
	callq	__ZN49_$LT$u16$u20$as$u20$num_integer..roots..Roots$GT$8nth_root2go28_$u7b$$u7b$closure$u7d$$u7d$17h27b2a460f79e6abaE
Ltmp650:
	movw	%ax, -28(%rbp)
	jmp	LBB83_3
Ltmp662:
LBB83_1:
	.loc	14 174 1 is_stmt 1
	movq	-16(%rbp), %rdi
	callq	__Unwind_Resume
Ltmp663:
LBB83_2:
Ltmp659:
	.loc	14 0 1 is_stmt 0
	movq	%rax, %rcx
	movl	%edx, %eax
	movq	%rcx, -16(%rbp)
	movl	%eax, -8(%rbp)
	jmp	LBB83_1
Ltmp664:
LBB83_3:
	movw	-28(%rbp), %ax
	.loc	14 179 18 is_stmt 1
	movw	%ax, -24(%rbp)
Ltmp665:
LBB83_4:
Ltmp651:
	.loc	14 0 18 is_stmt 0
	leaq	-26(%rbp), %rdi
	leaq	-24(%rbp), %rsi
Ltmp666:
	.loc	14 180 11 is_stmt 1
	callq	__ZN4core3cmp5impls55_$LT$impl$u20$core..cmp..PartialOrd$u20$for$u20$u16$GT$2lt17h9908771121570d45E
Ltmp652:
	movb	%al, -41(%rbp)
	jmp	LBB83_5
Ltmp667:
LBB83_5:
	.loc	14 0 11 is_stmt 0
	movb	-41(%rbp), %al
	.loc	14 180 11
	testb	$1, %al
	jne	LBB83_7
	jmp	LBB83_6
Ltmp668:
LBB83_6:
Ltmp653:
	.loc	14 0 11
	leaq	-26(%rbp), %rdi
	leaq	-24(%rbp), %rsi
	.loc	14 184 11 is_stmt 1
	callq	__ZN4core3cmp5impls55_$LT$impl$u20$core..cmp..PartialOrd$u20$for$u20$u16$GT$2gt17h7480489111cdc830E
Ltmp654:
	movb	%al, -42(%rbp)
	jmp	LBB83_9
Ltmp669:
LBB83_7:
	.loc	14 0 11 is_stmt 0
	movq	-40(%rbp), %rdi
	.loc	14 181 13 is_stmt 1
	movw	-24(%rbp), %ax
	.loc	14 181 9 is_stmt 0
	movw	%ax, -26(%rbp)
	.loc	14 182 16 is_stmt 1
	movw	-26(%rbp), %ax
	.loc	14 182 14 is_stmt 0
	movw	%ax, -20(%rbp)
	movzwl	-20(%rbp), %esi
Ltmp657:
	callq	__ZN49_$LT$u16$u20$as$u20$num_integer..roots..Roots$GT$8nth_root2go28_$u7b$$u7b$closure$u7d$$u7d$17h27b2a460f79e6abaE
Ltmp658:
	movw	%ax, -44(%rbp)
	jmp	LBB83_8
Ltmp670:
LBB83_8:
	.loc	14 0 14
	movw	-44(%rbp), %ax
	.loc	14 182 9
	movw	%ax, -24(%rbp)
	.loc	14 180 5 is_stmt 1
	jmp	LBB83_4
Ltmp671:
LBB83_9:
	.loc	14 0 5 is_stmt 0
	movb	-42(%rbp), %al
	.loc	14 184 11 is_stmt 1
	testb	$1, %al
	jne	LBB83_11
	jmp	LBB83_10
Ltmp672:
LBB83_10:
	.loc	14 188 5
	movw	-26(%rbp), %ax
Ltmp673:
	.loc	14 189 2
	addq	$48, %rsp
	popq	%rbp
	retq
Ltmp674:
LBB83_11:
	.loc	14 0 2 is_stmt 0
	movq	-40(%rbp), %rdi
Ltmp675:
	.loc	14 185 13 is_stmt 1
	movw	-24(%rbp), %ax
	.loc	14 185 9 is_stmt 0
	movw	%ax, -26(%rbp)
	.loc	14 186 16 is_stmt 1
	movw	-26(%rbp), %ax
	.loc	14 186 14 is_stmt 0
	movw	%ax, -18(%rbp)
	movzwl	-18(%rbp), %esi
Ltmp655:
	callq	__ZN49_$LT$u16$u20$as$u20$num_integer..roots..Roots$GT$8nth_root2go28_$u7b$$u7b$closure$u7d$$u7d$17h27b2a460f79e6abaE
Ltmp656:
	movw	%ax, -46(%rbp)
	jmp	LBB83_12
Ltmp676:
LBB83_12:
	.loc	14 0 14
	movw	-46(%rbp), %ax
	.loc	14 186 9
	movw	%ax, -24(%rbp)
	.loc	14 184 5 is_stmt 1
	jmp	LBB83_6
Ltmp677:
Lfunc_end83:
	.cfi_endproc
	.section	__TEXT,__gcc_except_tab
	.p2align	2
GCC_except_table83:
Lexception17:
	.byte	255
	.byte	255
	.byte	1
	.uleb128 Lcst_end17-Lcst_begin17
Lcst_begin17:
	.uleb128 Ltmp649-Lfunc_begin83
	.uleb128 Ltmp650-Ltmp649
	.uleb128 Ltmp659-Lfunc_begin83
	.byte	0
	.uleb128 Ltmp650-Lfunc_begin83
	.uleb128 Ltmp651-Ltmp650
	.byte	0
	.byte	0
	.uleb128 Ltmp651-Lfunc_begin83
	.uleb128 Ltmp656-Ltmp651
	.uleb128 Ltmp659-Lfunc_begin83
	.byte	0
Lcst_end17:
	.p2align	2

	.section	__TEXT,__text,regular,pure_instructions
	.p2align	4, 0x90
__ZN11num_integer5roots8fixpoint17ha698d3a6584f697bE:
Lfunc_begin84:
	.loc	14 174 0
	.cfi_startproc
	.cfi_personality 155, _rust_eh_personality
	.cfi_lsda 16, Lexception18
	pushq	%rbp
	.cfi_def_cfa_offset 16
	.cfi_offset %rbp, -16
	movq	%rsp, %rbp
	.cfi_def_cfa_register %rbp
	subq	$48, %rsp
	movb	%dil, %al
	movb	%al, -33(%rbp)
	movq	%rsi, -32(%rbp)
Ltmp689:
	.loc	14 179 20 prologue_end
	movb	-33(%rbp), %al
	.loc	14 179 18 is_stmt 0
	movb	%al, -19(%rbp)
	movzbl	-19(%rbp), %esi
Ltmp678:
	leaq	-32(%rbp), %rdi
	callq	__ZN48_$LT$u8$u20$as$u20$num_integer..roots..Roots$GT$4sqrt2go28_$u7b$$u7b$closure$u7d$$u7d$17h4c066279d4d3a880E
Ltmp679:
	movb	%al, -34(%rbp)
	jmp	LBB84_3
LBB84_1:
	.loc	14 174 1 is_stmt 1
	movq	-16(%rbp), %rdi
	callq	__Unwind_Resume
LBB84_2:
Ltmp688:
	.loc	14 0 1 is_stmt 0
	movq	%rax, %rcx
	movl	%edx, %eax
	movq	%rcx, -16(%rbp)
	movl	%eax, -8(%rbp)
	jmp	LBB84_1
LBB84_3:
	movb	-34(%rbp), %al
	.loc	14 179 18 is_stmt 1
	movb	%al, -20(%rbp)
LBB84_4:
Ltmp680:
	.loc	14 0 18 is_stmt 0
	leaq	-33(%rbp), %rdi
	leaq	-20(%rbp), %rsi
Ltmp690:
	.loc	14 180 11 is_stmt 1
	callq	__ZN4core3cmp5impls54_$LT$impl$u20$core..cmp..PartialOrd$u20$for$u20$u8$GT$2lt17hba868800f154de7fE
Ltmp681:
	movb	%al, -35(%rbp)
	jmp	LBB84_5
LBB84_5:
	.loc	14 0 11 is_stmt 0
	movb	-35(%rbp), %al
	.loc	14 180 11
	testb	$1, %al
	jne	LBB84_7
	jmp	LBB84_6
LBB84_6:
Ltmp682:
	.loc	14 0 11
	leaq	-33(%rbp), %rdi
	leaq	-20(%rbp), %rsi
	.loc	14 184 11 is_stmt 1
	callq	__ZN4core3cmp5impls54_$LT$impl$u20$core..cmp..PartialOrd$u20$for$u20$u8$GT$2gt17h51d1cc18db844a9dE
Ltmp683:
	movb	%al, -36(%rbp)
	jmp	LBB84_9
LBB84_7:
	.loc	14 181 13
	movb	-20(%rbp), %al
	.loc	14 181 9 is_stmt 0
	movb	%al, -33(%rbp)
	.loc	14 182 16 is_stmt 1
	movb	-33(%rbp), %al
	.loc	14 182 14 is_stmt 0
	movb	%al, -18(%rbp)
	movzbl	-18(%rbp), %esi
Ltmp686:
	leaq	-32(%rbp), %rdi
	callq	__ZN48_$LT$u8$u20$as$u20$num_integer..roots..Roots$GT$4sqrt2go28_$u7b$$u7b$closure$u7d$$u7d$17h4c066279d4d3a880E
Ltmp687:
	movb	%al, -37(%rbp)
	jmp	LBB84_8
LBB84_8:
	.loc	14 0 14
	movb	-37(%rbp), %al
	.loc	14 182 9
	movb	%al, -20(%rbp)
	.loc	14 180 5 is_stmt 1
	jmp	LBB84_4
LBB84_9:
	.loc	14 0 5 is_stmt 0
	movb	-36(%rbp), %al
	.loc	14 184 11 is_stmt 1
	testb	$1, %al
	jne	LBB84_11
	jmp	LBB84_10
LBB84_10:
	.loc	14 188 5
	movb	-33(%rbp), %al
Ltmp691:
	.loc	14 189 2
	addq	$48, %rsp
	popq	%rbp
	retq
LBB84_11:
Ltmp692:
	.loc	14 185 13
	movb	-20(%rbp), %al
	.loc	14 185 9 is_stmt 0
	movb	%al, -33(%rbp)
	.loc	14 186 16 is_stmt 1
	movb	-33(%rbp), %al
	.loc	14 186 14 is_stmt 0
	movb	%al, -17(%rbp)
	movzbl	-17(%rbp), %esi
Ltmp684:
	leaq	-32(%rbp), %rdi
	callq	__ZN48_$LT$u8$u20$as$u20$num_integer..roots..Roots$GT$4sqrt2go28_$u7b$$u7b$closure$u7d$$u7d$17h4c066279d4d3a880E
Ltmp685:
	movb	%al, -38(%rbp)
	jmp	LBB84_12
LBB84_12:
	.loc	14 0 14
	movb	-38(%rbp), %al
	.loc	14 186 9
	movb	%al, -20(%rbp)
	.loc	14 184 5 is_stmt 1
	jmp	LBB84_6
Ltmp693:
Lfunc_end84:
	.cfi_endproc
	.section	__TEXT,__gcc_except_tab
	.p2align	2
GCC_except_table84:
Lexception18:
	.byte	255
	.byte	255
	.byte	1
	.uleb128 Lcst_end18-Lcst_begin18
Lcst_begin18:
	.uleb128 Ltmp678-Lfunc_begin84
	.uleb128 Ltmp679-Ltmp678
	.uleb128 Ltmp688-Lfunc_begin84
	.byte	0
	.uleb128 Ltmp679-Lfunc_begin84
	.uleb128 Ltmp680-Ltmp679
	.byte	0
	.byte	0
	.uleb128 Ltmp680-Lfunc_begin84
	.uleb128 Ltmp685-Ltmp680
	.uleb128 Ltmp688-Lfunc_begin84
	.byte	0
Lcst_end18:
	.p2align	2

	.section	__TEXT,__text,regular,pure_instructions
	.p2align	4, 0x90
__ZN11num_integer5roots8fixpoint17hb81e86dcd7ddfe69E:
Lfunc_begin85:
	.loc	14 174 0
	.cfi_startproc
	.cfi_personality 155, _rust_eh_personality
	.cfi_lsda 16, Lexception19
	pushq	%rbp
	.cfi_def_cfa_offset 16
	.cfi_offset %rbp, -16
	movq	%rsp, %rbp
	.cfi_def_cfa_register %rbp
	subq	$48, %rsp
	movw	%di, %ax
	movw	%ax, -34(%rbp)
	movq	%rsi, -32(%rbp)
Ltmp705:
	.loc	14 179 20 prologue_end
	movw	-34(%rbp), %ax
	.loc	14 179 18 is_stmt 0
	movw	%ax, -22(%rbp)
	movzwl	-22(%rbp), %esi
Ltmp694:
	leaq	-32(%rbp), %rdi
	callq	__ZN49_$LT$u16$u20$as$u20$num_integer..roots..Roots$GT$4cbrt2go28_$u7b$$u7b$closure$u7d$$u7d$17hab6d55d30cebee82E
Ltmp695:
	movw	%ax, -36(%rbp)
	jmp	LBB85_3
LBB85_1:
	.loc	14 174 1 is_stmt 1
	movq	-16(%rbp), %rdi
	callq	__Unwind_Resume
LBB85_2:
Ltmp704:
	.loc	14 0 1 is_stmt 0
	movq	%rax, %rcx
	movl	%edx, %eax
	movq	%rcx, -16(%rbp)
	movl	%eax, -8(%rbp)
	jmp	LBB85_1
LBB85_3:
	movw	-36(%rbp), %ax
	.loc	14 179 18 is_stmt 1
	movw	%ax, -24(%rbp)
LBB85_4:
Ltmp696:
	.loc	14 0 18 is_stmt 0
	leaq	-34(%rbp), %rdi
	leaq	-24(%rbp), %rsi
Ltmp706:
	.loc	14 180 11 is_stmt 1
	callq	__ZN4core3cmp5impls55_$LT$impl$u20$core..cmp..PartialOrd$u20$for$u20$u16$GT$2lt17h9908771121570d45E
Ltmp697:
	movb	%al, -37(%rbp)
	jmp	LBB85_5
LBB85_5:
	.loc	14 0 11 is_stmt 0
	movb	-37(%rbp), %al
	.loc	14 180 11
	testb	$1, %al
	jne	LBB85_7
	jmp	LBB85_6
LBB85_6:
Ltmp698:
	.loc	14 0 11
	leaq	-34(%rbp), %rdi
	leaq	-24(%rbp), %rsi
	.loc	14 184 11 is_stmt 1
	callq	__ZN4core3cmp5impls55_$LT$impl$u20$core..cmp..PartialOrd$u20$for$u20$u16$GT$2gt17h7480489111cdc830E
Ltmp699:
	movb	%al, -38(%rbp)
	jmp	LBB85_9
LBB85_7:
	.loc	14 181 13
	movw	-24(%rbp), %ax
	.loc	14 181 9 is_stmt 0
	movw	%ax, -34(%rbp)
	.loc	14 182 16 is_stmt 1
	movw	-34(%rbp), %ax
	.loc	14 182 14 is_stmt 0
	movw	%ax, -20(%rbp)
	movzwl	-20(%rbp), %esi
Ltmp702:
	leaq	-32(%rbp), %rdi
	callq	__ZN49_$LT$u16$u20$as$u20$num_integer..roots..Roots$GT$4cbrt2go28_$u7b$$u7b$closure$u7d$$u7d$17hab6d55d30cebee82E
Ltmp703:
	movw	%ax, -40(%rbp)
	jmp	LBB85_8
LBB85_8:
	.loc	14 0 14
	movw	-40(%rbp), %ax
	.loc	14 182 9
	movw	%ax, -24(%rbp)
	.loc	14 180 5 is_stmt 1
	jmp	LBB85_4
LBB85_9:
	.loc	14 0 5 is_stmt 0
	movb	-38(%rbp), %al
	.loc	14 184 11 is_stmt 1
	testb	$1, %al
	jne	LBB85_11
	jmp	LBB85_10
LBB85_10:
	.loc	14 188 5
	movw	-34(%rbp), %ax
Ltmp707:
	.loc	14 189 2
	addq	$48, %rsp
	popq	%rbp
	retq
LBB85_11:
Ltmp708:
	.loc	14 185 13
	movw	-24(%rbp), %ax
	.loc	14 185 9 is_stmt 0
	movw	%ax, -34(%rbp)
	.loc	14 186 16 is_stmt 1
	movw	-34(%rbp), %ax
	.loc	14 186 14 is_stmt 0
	movw	%ax, -18(%rbp)
	movzwl	-18(%rbp), %esi
Ltmp700:
	leaq	-32(%rbp), %rdi
	callq	__ZN49_$LT$u16$u20$as$u20$num_integer..roots..Roots$GT$4cbrt2go28_$u7b$$u7b$closure$u7d$$u7d$17hab6d55d30cebee82E
Ltmp701:
	movw	%ax, -42(%rbp)
	jmp	LBB85_12
LBB85_12:
	.loc	14 0 14
	movw	-42(%rbp), %ax
	.loc	14 186 9
	movw	%ax, -24(%rbp)
	.loc	14 184 5 is_stmt 1
	jmp	LBB85_6
Ltmp709:
Lfunc_end85:
	.cfi_endproc
	.section	__TEXT,__gcc_except_tab
	.p2align	2
GCC_except_table85:
Lexception19:
	.byte	255
	.byte	255
	.byte	1
	.uleb128 Lcst_end19-Lcst_begin19
Lcst_begin19:
	.uleb128 Ltmp694-Lfunc_begin85
	.uleb128 Ltmp695-Ltmp694
	.uleb128 Ltmp704-Lfunc_begin85
	.byte	0
	.uleb128 Ltmp695-Lfunc_begin85
	.uleb128 Ltmp696-Ltmp695
	.byte	0
	.byte	0
	.uleb128 Ltmp696-Lfunc_begin85
	.uleb128 Ltmp701-Ltmp696
	.uleb128 Ltmp704-Lfunc_begin85
	.byte	0
Lcst_end19:
	.p2align	2

	.section	__TEXT,__text,regular,pure_instructions
	.p2align	4, 0x90
__ZN11num_integer5roots8fixpoint17hc12c5b49c54e5e2bE:
Lfunc_begin86:
	.loc	14 174 0
	.cfi_startproc
	.cfi_personality 155, _rust_eh_personality
	.cfi_lsda 16, Lexception20
	pushq	%rbp
	.cfi_def_cfa_offset 16
	.cfi_offset %rbp, -16
	movq	%rsp, %rbp
	.cfi_def_cfa_register %rbp
	subq	$96, %rsp
	movq	%rdi, -64(%rbp)
	movq	%rsi, -56(%rbp)
Ltmp721:
	.loc	14 179 20 prologue_end
	movq	-64(%rbp), %rax
	.loc	14 179 18 is_stmt 0
	movq	%rax, -40(%rbp)
	movq	-40(%rbp), %rsi
Ltmp710:
	leaq	-56(%rbp), %rdi
	callq	__ZN51_$LT$usize$u20$as$u20$num_integer..roots..Roots$GT$4sqrt2go28_$u7b$$u7b$closure$u7d$$u7d$17h37e9911a5eeba930E
Ltmp711:
	movq	%rax, -72(%rbp)
	jmp	LBB86_3
LBB86_1:
	.loc	14 174 1 is_stmt 1
	movq	-16(%rbp), %rdi
	callq	__Unwind_Resume
LBB86_2:
Ltmp720:
	.loc	14 0 1 is_stmt 0
	movq	%rax, %rcx
	movl	%edx, %eax
	movq	%rcx, -16(%rbp)
	movl	%eax, -8(%rbp)
	jmp	LBB86_1
LBB86_3:
	movq	-72(%rbp), %rax
	.loc	14 179 18 is_stmt 1
	movq	%rax, -48(%rbp)
LBB86_4:
Ltmp712:
	.loc	14 0 18 is_stmt 0
	leaq	-64(%rbp), %rdi
	leaq	-48(%rbp), %rsi
Ltmp722:
	.loc	14 180 11 is_stmt 1
	callq	__ZN4core3cmp5impls57_$LT$impl$u20$core..cmp..PartialOrd$u20$for$u20$usize$GT$2lt17hf1b4866872b3681dE
Ltmp713:
	movb	%al, -73(%rbp)
	jmp	LBB86_5
LBB86_5:
	.loc	14 0 11 is_stmt 0
	movb	-73(%rbp), %al
	.loc	14 180 11
	testb	$1, %al
	jne	LBB86_7
	jmp	LBB86_6
LBB86_6:
Ltmp714:
	.loc	14 0 11
	leaq	-64(%rbp), %rdi
	leaq	-48(%rbp), %rsi
	.loc	14 184 11 is_stmt 1
	callq	__ZN4core3cmp5impls57_$LT$impl$u20$core..cmp..PartialOrd$u20$for$u20$usize$GT$2gt17hee0b050ce1d4d1c3E
Ltmp715:
	movb	%al, -74(%rbp)
	jmp	LBB86_9
LBB86_7:
	.loc	14 181 13
	movq	-48(%rbp), %rax
	.loc	14 181 9 is_stmt 0
	movq	%rax, -64(%rbp)
	.loc	14 182 16 is_stmt 1
	movq	-64(%rbp), %rax
	.loc	14 182 14 is_stmt 0
	movq	%rax, -32(%rbp)
	movq	-32(%rbp), %rsi
Ltmp718:
	leaq	-56(%rbp), %rdi
	callq	__ZN51_$LT$usize$u20$as$u20$num_integer..roots..Roots$GT$4sqrt2go28_$u7b$$u7b$closure$u7d$$u7d$17h37e9911a5eeba930E
Ltmp719:
	movq	%rax, -88(%rbp)
	jmp	LBB86_8
LBB86_8:
	.loc	14 0 14
	movq	-88(%rbp), %rax
	.loc	14 182 9
	movq	%rax, -48(%rbp)
	.loc	14 180 5 is_stmt 1
	jmp	LBB86_4
LBB86_9:
	.loc	14 0 5 is_stmt 0
	movb	-74(%rbp), %al
	.loc	14 184 11 is_stmt 1
	testb	$1, %al
	jne	LBB86_11
	jmp	LBB86_10
LBB86_10:
	.loc	14 188 5
	movq	-64(%rbp), %rax
Ltmp723:
	.loc	14 189 2
	addq	$96, %rsp
	popq	%rbp
	retq
LBB86_11:
Ltmp724:
	.loc	14 185 13
	movq	-48(%rbp), %rax
	.loc	14 185 9 is_stmt 0
	movq	%rax, -64(%rbp)
	.loc	14 186 16 is_stmt 1
	movq	-64(%rbp), %rax
	.loc	14 186 14 is_stmt 0
	movq	%rax, -24(%rbp)
	movq	-24(%rbp), %rsi
Ltmp716:
	leaq	-56(%rbp), %rdi
	callq	__ZN51_$LT$usize$u20$as$u20$num_integer..roots..Roots$GT$4sqrt2go28_$u7b$$u7b$closure$u7d$$u7d$17h37e9911a5eeba930E
Ltmp717:
	movq	%rax, -96(%rbp)
	jmp	LBB86_12
LBB86_12:
	.loc	14 0 14
	movq	-96(%rbp), %rax
	.loc	14 186 9
	movq	%rax, -48(%rbp)
	.loc	14 184 5 is_stmt 1
	jmp	LBB86_6
Ltmp725:
Lfunc_end86:
	.cfi_endproc
	.section	__TEXT,__gcc_except_tab
	.p2align	2
GCC_except_table86:
Lexception20:
	.byte	255
	.byte	255
	.byte	1
	.uleb128 Lcst_end20-Lcst_begin20
Lcst_begin20:
	.uleb128 Ltmp710-Lfunc_begin86
	.uleb128 Ltmp711-Ltmp710
	.uleb128 Ltmp720-Lfunc_begin86
	.byte	0
	.uleb128 Ltmp711-Lfunc_begin86
	.uleb128 Ltmp712-Ltmp711
	.byte	0
	.byte	0
	.uleb128 Ltmp712-Lfunc_begin86
	.uleb128 Ltmp717-Ltmp712
	.uleb128 Ltmp720-Lfunc_begin86
	.byte	0
Lcst_end20:
	.p2align	2

	.section	__TEXT,__text,regular,pure_instructions
	.p2align	4, 0x90
__ZN11num_integer5roots8fixpoint17hcdc4c45c2ef0cfeeE:
Lfunc_begin87:
	.loc	14 174 0
	.cfi_startproc
	.cfi_personality 155, _rust_eh_personality
	.cfi_lsda 16, Lexception21
	pushq	%rbp
	.cfi_def_cfa_offset 16
	.cfi_offset %rbp, -16
	movq	%rsp, %rbp
	.cfi_def_cfa_register %rbp
	subq	$160, %rsp
	movq	%rdx, -120(%rbp)
Ltmp737:
	movq	%rdi, %rax
	movq	-120(%rbp), %rdi
	movq	%rax, -96(%rbp)
	movq	%rsi, -88(%rbp)
Ltmp738:
	.loc	14 179 20 prologue_end
	movq	-96(%rbp), %rax
	movq	-88(%rbp), %rcx
	.loc	14 179 18 is_stmt 0
	movq	%rcx, -56(%rbp)
	movq	%rax, -64(%rbp)
	movq	-64(%rbp), %rsi
	movq	-56(%rbp), %rdx
Ltmp726:
	callq	__ZN50_$LT$u128$u20$as$u20$num_integer..roots..Roots$GT$8nth_root2go28_$u7b$$u7b$closure$u7d$$u7d$17he61fce888e709751E
Ltmp727:
	movq	%rdx, -112(%rbp)
	movq	%rax, -104(%rbp)
	jmp	LBB87_3
Ltmp739:
LBB87_1:
	.loc	14 174 1 is_stmt 1
	movq	-16(%rbp), %rdi
	callq	__Unwind_Resume
Ltmp740:
LBB87_2:
Ltmp736:
	.loc	14 0 1 is_stmt 0
	movq	%rax, %rcx
	movl	%edx, %eax
	movq	%rcx, -16(%rbp)
	movl	%eax, -8(%rbp)
	jmp	LBB87_1
Ltmp741:
LBB87_3:
	movq	-112(%rbp), %rax
	movq	-104(%rbp), %rcx
	.loc	14 179 18 is_stmt 1
	movq	%rcx, -80(%rbp)
	movq	%rax, -72(%rbp)
Ltmp742:
LBB87_4:
Ltmp728:
	.loc	14 0 18 is_stmt 0
	leaq	-96(%rbp), %rdi
	leaq	-80(%rbp), %rsi
Ltmp743:
	.loc	14 180 11 is_stmt 1
	callq	__ZN4core3cmp5impls56_$LT$impl$u20$core..cmp..PartialOrd$u20$for$u20$u128$GT$2lt17h02528b3a523dde43E
Ltmp729:
	movb	%al, -121(%rbp)
	jmp	LBB87_5
Ltmp744:
LBB87_5:
	.loc	14 0 11 is_stmt 0
	movb	-121(%rbp), %al
	.loc	14 180 11
	testb	$1, %al
	jne	LBB87_7
	jmp	LBB87_6
Ltmp745:
LBB87_6:
Ltmp730:
	.loc	14 0 11
	leaq	-96(%rbp), %rdi
	leaq	-80(%rbp), %rsi
	.loc	14 184 11 is_stmt 1
	callq	__ZN4core3cmp5impls56_$LT$impl$u20$core..cmp..PartialOrd$u20$for$u20$u128$GT$2gt17h26eb12e0cebf5470E
Ltmp731:
	movb	%al, -122(%rbp)
	jmp	LBB87_9
Ltmp746:
LBB87_7:
	.loc	14 0 11 is_stmt 0
	movq	-120(%rbp), %rdi
	.loc	14 181 13 is_stmt 1
	movq	-80(%rbp), %rax
	movq	-72(%rbp), %rcx
	.loc	14 181 9 is_stmt 0
	movq	%rcx, -88(%rbp)
	movq	%rax, -96(%rbp)
	.loc	14 182 16 is_stmt 1
	movq	-96(%rbp), %rax
	movq	-88(%rbp), %rcx
	.loc	14 182 14 is_stmt 0
	movq	%rcx, -40(%rbp)
	movq	%rax, -48(%rbp)
	movq	-48(%rbp), %rsi
	movq	-40(%rbp), %rdx
Ltmp734:
	callq	__ZN50_$LT$u128$u20$as$u20$num_integer..roots..Roots$GT$8nth_root2go28_$u7b$$u7b$closure$u7d$$u7d$17he61fce888e709751E
Ltmp735:
	movq	%rdx, -144(%rbp)
	movq	%rax, -136(%rbp)
	jmp	LBB87_8
Ltmp747:
LBB87_8:
	.loc	14 0 14
	movq	-144(%rbp), %rax
	movq	-136(%rbp), %rcx
	.loc	14 182 9
	movq	%rcx, -80(%rbp)
	movq	%rax, -72(%rbp)
	.loc	14 180 5 is_stmt 1
	jmp	LBB87_4
Ltmp748:
LBB87_9:
	.loc	14 0 5 is_stmt 0
	movb	-122(%rbp), %al
	.loc	14 184 11 is_stmt 1
	testb	$1, %al
	jne	LBB87_11
	jmp	LBB87_10
Ltmp749:
LBB87_10:
	.loc	14 188 5
	movq	-96(%rbp), %rax
	movq	-88(%rbp), %rdx
Ltmp750:
	.loc	14 189 2
	addq	$160, %rsp
	popq	%rbp
	retq
Ltmp751:
LBB87_11:
	.loc	14 0 2 is_stmt 0
	movq	-120(%rbp), %rdi
Ltmp752:
	.loc	14 185 13 is_stmt 1
	movq	-80(%rbp), %rax
	movq	-72(%rbp), %rcx
	.loc	14 185 9 is_stmt 0
	movq	%rcx, -88(%rbp)
	movq	%rax, -96(%rbp)
	.loc	14 186 16 is_stmt 1
	movq	-96(%rbp), %rax
	movq	-88(%rbp), %rcx
	.loc	14 186 14 is_stmt 0
	movq	%rcx, -24(%rbp)
	movq	%rax, -32(%rbp)
	movq	-32(%rbp), %rsi
	movq	-24(%rbp), %rdx
Ltmp732:
	callq	__ZN50_$LT$u128$u20$as$u20$num_integer..roots..Roots$GT$8nth_root2go28_$u7b$$u7b$closure$u7d$$u7d$17he61fce888e709751E
Ltmp733:
	movq	%rdx, -160(%rbp)
	movq	%rax, -152(%rbp)
	jmp	LBB87_12
Ltmp753:
LBB87_12:
	.loc	14 0 14
	movq	-160(%rbp), %rax
	movq	-152(%rbp), %rcx
	.loc	14 186 9
	movq	%rcx, -80(%rbp)
	movq	%rax, -72(%rbp)
	.loc	14 184 5 is_stmt 1
	jmp	LBB87_6
Ltmp754:
Lfunc_end87:
	.cfi_endproc
	.section	__TEXT,__gcc_except_tab
	.p2align	2
GCC_except_table87:
Lexception21:
	.byte	255
	.byte	255
	.byte	1
	.uleb128 Lcst_end21-Lcst_begin21
Lcst_begin21:
	.uleb128 Ltmp726-Lfunc_begin87
	.uleb128 Ltmp727-Ltmp726
	.uleb128 Ltmp736-Lfunc_begin87
	.byte	0
	.uleb128 Ltmp727-Lfunc_begin87
	.uleb128 Ltmp728-Ltmp727
	.byte	0
	.byte	0
	.uleb128 Ltmp728-Lfunc_begin87
	.uleb128 Ltmp733-Ltmp728
	.uleb128 Ltmp736-Lfunc_begin87
	.byte	0
Lcst_end21:
	.p2align	2

	.section	__TEXT,__text,regular,pure_instructions
	.p2align	4, 0x90
__ZN11num_integer5roots8fixpoint17hd08220fc1b9475f2E:
Lfunc_begin88:
	.loc	14 174 0
	.cfi_startproc
	.cfi_personality 155, _rust_eh_personality
	.cfi_lsda 16, Lexception22
	pushq	%rbp
	.cfi_def_cfa_offset 16
	.cfi_offset %rbp, -16
	movq	%rsp, %rbp
	.cfi_def_cfa_register %rbp
	subq	$96, %rsp
	movq	%rdi, -64(%rbp)
	movq	%rsi, -56(%rbp)
Ltmp766:
	.loc	14 179 20 prologue_end
	movq	-64(%rbp), %rax
	.loc	14 179 18 is_stmt 0
	movq	%rax, -40(%rbp)
	movq	-40(%rbp), %rsi
Ltmp755:
	leaq	-56(%rbp), %rdi
	callq	__ZN49_$LT$u64$u20$as$u20$num_integer..roots..Roots$GT$4sqrt2go28_$u7b$$u7b$closure$u7d$$u7d$17h256a800eb02bf38dE
Ltmp756:
	movq	%rax, -72(%rbp)
	jmp	LBB88_3
LBB88_1:
	.loc	14 174 1 is_stmt 1
	movq	-16(%rbp), %rdi
	callq	__Unwind_Resume
LBB88_2:
Ltmp765:
	.loc	14 0 1 is_stmt 0
	movq	%rax, %rcx
	movl	%edx, %eax
	movq	%rcx, -16(%rbp)
	movl	%eax, -8(%rbp)
	jmp	LBB88_1
LBB88_3:
	movq	-72(%rbp), %rax
	.loc	14 179 18 is_stmt 1
	movq	%rax, -48(%rbp)
LBB88_4:
Ltmp757:
	.loc	14 0 18 is_stmt 0
	leaq	-64(%rbp), %rdi
	leaq	-48(%rbp), %rsi
Ltmp767:
	.loc	14 180 11 is_stmt 1
	callq	__ZN4core3cmp5impls55_$LT$impl$u20$core..cmp..PartialOrd$u20$for$u20$u64$GT$2lt17hd250d62dccd5e7cfE
Ltmp758:
	movb	%al, -73(%rbp)
	jmp	LBB88_5
LBB88_5:
	.loc	14 0 11 is_stmt 0
	movb	-73(%rbp), %al
	.loc	14 180 11
	testb	$1, %al
	jne	LBB88_7
	jmp	LBB88_6
LBB88_6:
Ltmp759:
	.loc	14 0 11
	leaq	-64(%rbp), %rdi
	leaq	-48(%rbp), %rsi
	.loc	14 184 11 is_stmt 1
	callq	__ZN4core3cmp5impls55_$LT$impl$u20$core..cmp..PartialOrd$u20$for$u20$u64$GT$2gt17heef776fa57c8b6bdE
Ltmp760:
	movb	%al, -74(%rbp)
	jmp	LBB88_9
LBB88_7:
	.loc	14 181 13
	movq	-48(%rbp), %rax
	.loc	14 181 9 is_stmt 0
	movq	%rax, -64(%rbp)
	.loc	14 182 16 is_stmt 1
	movq	-64(%rbp), %rax
	.loc	14 182 14 is_stmt 0
	movq	%rax, -32(%rbp)
	movq	-32(%rbp), %rsi
Ltmp763:
	leaq	-56(%rbp), %rdi
	callq	__ZN49_$LT$u64$u20$as$u20$num_integer..roots..Roots$GT$4sqrt2go28_$u7b$$u7b$closure$u7d$$u7d$17h256a800eb02bf38dE
Ltmp764:
	movq	%rax, -88(%rbp)
	jmp	LBB88_8
LBB88_8:
	.loc	14 0 14
	movq	-88(%rbp), %rax
	.loc	14 182 9
	movq	%rax, -48(%rbp)
	.loc	14 180 5 is_stmt 1
	jmp	LBB88_4
LBB88_9:
	.loc	14 0 5 is_stmt 0
	movb	-74(%rbp), %al
	.loc	14 184 11 is_stmt 1
	testb	$1, %al
	jne	LBB88_11
	jmp	LBB88_10
LBB88_10:
	.loc	14 188 5
	movq	-64(%rbp), %rax
Ltmp768:
	.loc	14 189 2
	addq	$96, %rsp
	popq	%rbp
	retq
LBB88_11:
Ltmp769:
	.loc	14 185 13
	movq	-48(%rbp), %rax
	.loc	14 185 9 is_stmt 0
	movq	%rax, -64(%rbp)
	.loc	14 186 16 is_stmt 1
	movq	-64(%rbp), %rax
	.loc	14 186 14 is_stmt 0
	movq	%rax, -24(%rbp)
	movq	-24(%rbp), %rsi
Ltmp761:
	leaq	-56(%rbp), %rdi
	callq	__ZN49_$LT$u64$u20$as$u20$num_integer..roots..Roots$GT$4sqrt2go28_$u7b$$u7b$closure$u7d$$u7d$17h256a800eb02bf38dE
Ltmp762:
	movq	%rax, -96(%rbp)
	jmp	LBB88_12
LBB88_12:
	.loc	14 0 14
	movq	-96(%rbp), %rax
	.loc	14 186 9
	movq	%rax, -48(%rbp)
	.loc	14 184 5 is_stmt 1
	jmp	LBB88_6
Ltmp770:
Lfunc_end88:
	.cfi_endproc
	.section	__TEXT,__gcc_except_tab
	.p2align	2
GCC_except_table88:
Lexception22:
	.byte	255
	.byte	255
	.byte	1
	.uleb128 Lcst_end22-Lcst_begin22
Lcst_begin22:
	.uleb128 Ltmp755-Lfunc_begin88
	.uleb128 Ltmp756-Ltmp755
	.uleb128 Ltmp765-Lfunc_begin88
	.byte	0
	.uleb128 Ltmp756-Lfunc_begin88
	.uleb128 Ltmp757-Ltmp756
	.byte	0
	.byte	0
	.uleb128 Ltmp757-Lfunc_begin88
	.uleb128 Ltmp762-Ltmp757
	.uleb128 Ltmp765-Lfunc_begin88
	.byte	0
Lcst_end22:
	.p2align	2

	.section	__TEXT,__text,regular,pure_instructions
	.p2align	4, 0x90
__ZN11num_integer5roots8fixpoint17hdace0f12ddffa0efE:
Lfunc_begin89:
	.loc	14 174 0
	.cfi_startproc
	.cfi_personality 155, _rust_eh_personality
	.cfi_lsda 16, Lexception23
	pushq	%rbp
	.cfi_def_cfa_offset 16
	.cfi_offset %rbp, -16
	movq	%rsp, %rbp
	.cfi_def_cfa_register %rbp
	subq	$96, %rsp
	movq	%rdi, -64(%rbp)
	movq	%rsi, -56(%rbp)
Ltmp782:
	.loc	14 179 20 prologue_end
	movq	-64(%rbp), %rax
	.loc	14 179 18 is_stmt 0
	movq	%rax, -40(%rbp)
	movq	-40(%rbp), %rsi
Ltmp771:
	leaq	-56(%rbp), %rdi
	callq	__ZN51_$LT$usize$u20$as$u20$num_integer..roots..Roots$GT$4cbrt2go28_$u7b$$u7b$closure$u7d$$u7d$17he6f352306d664e62E
Ltmp772:
	movq	%rax, -72(%rbp)
	jmp	LBB89_3
LBB89_1:
	.loc	14 174 1 is_stmt 1
	movq	-16(%rbp), %rdi
	callq	__Unwind_Resume
LBB89_2:
Ltmp781:
	.loc	14 0 1 is_stmt 0
	movq	%rax, %rcx
	movl	%edx, %eax
	movq	%rcx, -16(%rbp)
	movl	%eax, -8(%rbp)
	jmp	LBB89_1
LBB89_3:
	movq	-72(%rbp), %rax
	.loc	14 179 18 is_stmt 1
	movq	%rax, -48(%rbp)
LBB89_4:
Ltmp773:
	.loc	14 0 18 is_stmt 0
	leaq	-64(%rbp), %rdi
	leaq	-48(%rbp), %rsi
Ltmp783:
	.loc	14 180 11 is_stmt 1
	callq	__ZN4core3cmp5impls57_$LT$impl$u20$core..cmp..PartialOrd$u20$for$u20$usize$GT$2lt17hf1b4866872b3681dE
Ltmp774:
	movb	%al, -73(%rbp)
	jmp	LBB89_5
LBB89_5:
	.loc	14 0 11 is_stmt 0
	movb	-73(%rbp), %al
	.loc	14 180 11
	testb	$1, %al
	jne	LBB89_7
	jmp	LBB89_6
LBB89_6:
Ltmp775:
	.loc	14 0 11
	leaq	-64(%rbp), %rdi
	leaq	-48(%rbp), %rsi
	.loc	14 184 11 is_stmt 1
	callq	__ZN4core3cmp5impls57_$LT$impl$u20$core..cmp..PartialOrd$u20$for$u20$usize$GT$2gt17hee0b050ce1d4d1c3E
Ltmp776:
	movb	%al, -74(%rbp)
	jmp	LBB89_9
LBB89_7:
	.loc	14 181 13
	movq	-48(%rbp), %rax
	.loc	14 181 9 is_stmt 0
	movq	%rax, -64(%rbp)
	.loc	14 182 16 is_stmt 1
	movq	-64(%rbp), %rax
	.loc	14 182 14 is_stmt 0
	movq	%rax, -32(%rbp)
	movq	-32(%rbp), %rsi
Ltmp779:
	leaq	-56(%rbp), %rdi
	callq	__ZN51_$LT$usize$u20$as$u20$num_integer..roots..Roots$GT$4cbrt2go28_$u7b$$u7b$closure$u7d$$u7d$17he6f352306d664e62E
Ltmp780:
	movq	%rax, -88(%rbp)
	jmp	LBB89_8
LBB89_8:
	.loc	14 0 14
	movq	-88(%rbp), %rax
	.loc	14 182 9
	movq	%rax, -48(%rbp)
	.loc	14 180 5 is_stmt 1
	jmp	LBB89_4
LBB89_9:
	.loc	14 0 5 is_stmt 0
	movb	-74(%rbp), %al
	.loc	14 184 11 is_stmt 1
	testb	$1, %al
	jne	LBB89_11
	jmp	LBB89_10
LBB89_10:
	.loc	14 188 5
	movq	-64(%rbp), %rax
Ltmp784:
	.loc	14 189 2
	addq	$96, %rsp
	popq	%rbp
	retq
LBB89_11:
Ltmp785:
	.loc	14 185 13
	movq	-48(%rbp), %rax
	.loc	14 185 9 is_stmt 0
	movq	%rax, -64(%rbp)
	.loc	14 186 16 is_stmt 1
	movq	-64(%rbp), %rax
	.loc	14 186 14 is_stmt 0
	movq	%rax, -24(%rbp)
	movq	-24(%rbp), %rsi
Ltmp777:
	leaq	-56(%rbp), %rdi
	callq	__ZN51_$LT$usize$u20$as$u20$num_integer..roots..Roots$GT$4cbrt2go28_$u7b$$u7b$closure$u7d$$u7d$17he6f352306d664e62E
Ltmp778:
	movq	%rax, -96(%rbp)
	jmp	LBB89_12
LBB89_12:
	.loc	14 0 14
	movq	-96(%rbp), %rax
	.loc	14 186 9
	movq	%rax, -48(%rbp)
	.loc	14 184 5 is_stmt 1
	jmp	LBB89_6
Ltmp786:
Lfunc_end89:
	.cfi_endproc
	.section	__TEXT,__gcc_except_tab
	.p2align	2
GCC_except_table89:
Lexception23:
	.byte	255
	.byte	255
	.byte	1
	.uleb128 Lcst_end23-Lcst_begin23
Lcst_begin23:
	.uleb128 Ltmp771-Lfunc_begin89
	.uleb128 Ltmp772-Ltmp771
	.uleb128 Ltmp781-Lfunc_begin89
	.byte	0
	.uleb128 Ltmp772-Lfunc_begin89
	.uleb128 Ltmp773-Ltmp772
	.byte	0
	.byte	0
	.uleb128 Ltmp773-Lfunc_begin89
	.uleb128 Ltmp778-Ltmp773
	.uleb128 Ltmp781-Lfunc_begin89
	.byte	0
Lcst_end23:
	.p2align	2

	.section	__TEXT,__text,regular,pure_instructions
	.p2align	4, 0x90
__ZN11num_integer5roots8fixpoint17he7ac603a6dd3fcd5E:
Lfunc_begin90:
	.loc	14 174 0
	.cfi_startproc
	.cfi_personality 155, _rust_eh_personality
	.cfi_lsda 16, Lexception24
	pushq	%rbp
	.cfi_def_cfa_offset 16
	.cfi_offset %rbp, -16
	movq	%rsp, %rbp
	.cfi_def_cfa_register %rbp
	subq	$96, %rsp
	movq	%rdi, -64(%rbp)
	movq	%rsi, -56(%rbp)
Ltmp798:
	.loc	14 179 20 prologue_end
	movq	-64(%rbp), %rax
	.loc	14 179 18 is_stmt 0
	movq	%rax, -40(%rbp)
	movq	-40(%rbp), %rsi
Ltmp787:
	leaq	-56(%rbp), %rdi
	callq	__ZN49_$LT$u64$u20$as$u20$num_integer..roots..Roots$GT$4cbrt2go28_$u7b$$u7b$closure$u7d$$u7d$17h82caf2720dc0971eE
Ltmp788:
	movq	%rax, -72(%rbp)
	jmp	LBB90_3
LBB90_1:
	.loc	14 174 1 is_stmt 1
	movq	-16(%rbp), %rdi
	callq	__Unwind_Resume
LBB90_2:
Ltmp797:
	.loc	14 0 1 is_stmt 0
	movq	%rax, %rcx
	movl	%edx, %eax
	movq	%rcx, -16(%rbp)
	movl	%eax, -8(%rbp)
	jmp	LBB90_1
LBB90_3:
	movq	-72(%rbp), %rax
	.loc	14 179 18 is_stmt 1
	movq	%rax, -48(%rbp)
LBB90_4:
Ltmp789:
	.loc	14 0 18 is_stmt 0
	leaq	-64(%rbp), %rdi
	leaq	-48(%rbp), %rsi
Ltmp799:
	.loc	14 180 11 is_stmt 1
	callq	__ZN4core3cmp5impls55_$LT$impl$u20$core..cmp..PartialOrd$u20$for$u20$u64$GT$2lt17hd250d62dccd5e7cfE
Ltmp790:
	movb	%al, -73(%rbp)
	jmp	LBB90_5
LBB90_5:
	.loc	14 0 11 is_stmt 0
	movb	-73(%rbp), %al
	.loc	14 180 11
	testb	$1, %al
	jne	LBB90_7
	jmp	LBB90_6
LBB90_6:
Ltmp791:
	.loc	14 0 11
	leaq	-64(%rbp), %rdi
	leaq	-48(%rbp), %rsi
	.loc	14 184 11 is_stmt 1
	callq	__ZN4core3cmp5impls55_$LT$impl$u20$core..cmp..PartialOrd$u20$for$u20$u64$GT$2gt17heef776fa57c8b6bdE
Ltmp792:
	movb	%al, -74(%rbp)
	jmp	LBB90_9
LBB90_7:
	.loc	14 181 13
	movq	-48(%rbp), %rax
	.loc	14 181 9 is_stmt 0
	movq	%rax, -64(%rbp)
	.loc	14 182 16 is_stmt 1
	movq	-64(%rbp), %rax
	.loc	14 182 14 is_stmt 0
	movq	%rax, -32(%rbp)
	movq	-32(%rbp), %rsi
Ltmp795:
	leaq	-56(%rbp), %rdi
	callq	__ZN49_$LT$u64$u20$as$u20$num_integer..roots..Roots$GT$4cbrt2go28_$u7b$$u7b$closure$u7d$$u7d$17h82caf2720dc0971eE
Ltmp796:
	movq	%rax, -88(%rbp)
	jmp	LBB90_8
LBB90_8:
	.loc	14 0 14
	movq	-88(%rbp), %rax
	.loc	14 182 9
	movq	%rax, -48(%rbp)
	.loc	14 180 5 is_stmt 1
	jmp	LBB90_4
LBB90_9:
	.loc	14 0 5 is_stmt 0
	movb	-74(%rbp), %al
	.loc	14 184 11 is_stmt 1
	testb	$1, %al
	jne	LBB90_11
	jmp	LBB90_10
LBB90_10:
	.loc	14 188 5
	movq	-64(%rbp), %rax
Ltmp800:
	.loc	14 189 2
	addq	$96, %rsp
	popq	%rbp
	retq
LBB90_11:
Ltmp801:
	.loc	14 185 13
	movq	-48(%rbp), %rax
	.loc	14 185 9 is_stmt 0
	movq	%rax, -64(%rbp)
	.loc	14 186 16 is_stmt 1
	movq	-64(%rbp), %rax
	.loc	14 186 14 is_stmt 0
	movq	%rax, -24(%rbp)
	movq	-24(%rbp), %rsi
Ltmp793:
	leaq	-56(%rbp), %rdi
	callq	__ZN49_$LT$u64$u20$as$u20$num_integer..roots..Roots$GT$4cbrt2go28_$u7b$$u7b$closure$u7d$$u7d$17h82caf2720dc0971eE
Ltmp794:
	movq	%rax, -96(%rbp)
	jmp	LBB90_12
LBB90_12:
	.loc	14 0 14
	movq	-96(%rbp), %rax
	.loc	14 186 9
	movq	%rax, -48(%rbp)
	.loc	14 184 5 is_stmt 1
	jmp	LBB90_6
Ltmp802:
Lfunc_end90:
	.cfi_endproc
	.section	__TEXT,__gcc_except_tab
	.p2align	2
GCC_except_table90:
Lexception24:
	.byte	255
	.byte	255
	.byte	1
	.uleb128 Lcst_end24-Lcst_begin24
Lcst_begin24:
	.uleb128 Ltmp787-Lfunc_begin90
	.uleb128 Ltmp788-Ltmp787
	.uleb128 Ltmp797-Lfunc_begin90
	.byte	0
	.uleb128 Ltmp788-Lfunc_begin90
	.uleb128 Ltmp789-Ltmp788
	.byte	0
	.byte	0
	.uleb128 Ltmp789-Lfunc_begin90
	.uleb128 Ltmp794-Ltmp789
	.uleb128 Ltmp797-Lfunc_begin90
	.byte	0
Lcst_end24:
	.p2align	2

	.section	__TEXT,__text,regular,pure_instructions
	.p2align	4, 0x90
__ZN11num_integer5roots4bits17h1ded38e1629f79e0E:
Lfunc_begin91:
	.loc	14 192 0
	.cfi_startproc
	pushq	%rbp
	.cfi_def_cfa_offset 16
	.cfi_offset %rbp, -16
	movq	%rsp, %rbp
	.cfi_def_cfa_register %rbp
	subq	$16, %rsp
Ltmp803:
	.loc	14 193 9 prologue_end
	movl	$2, %eax
	.loc	14 193 5 is_stmt 0
	movl	$8, %ecx
	mull	%ecx
	movl	%eax, -4(%rbp)
	seto	%al
	testb	$1, %al
	jne	LBB91_2
	.loc	14 0 5
	movl	-4(%rbp), %eax
	.loc	14 194 2 is_stmt 1
	addq	$16, %rsp
	popq	%rbp
	retq
LBB91_2:
	.loc	14 193 5
	leaq	_str.1(%rip), %rdi
	leaq	l___unnamed_7(%rip), %rdx
	movl	$33, %esi
	callq	__ZN4core9panicking5panic17hc1bc45270cf64b03E
Ltmp804:
Lfunc_end91:
	.cfi_endproc

	.p2align	4, 0x90
__ZN11num_integer5roots4bits17h4dd6b2e728f8d35bE:
Lfunc_begin92:
	.loc	14 192 0
	.cfi_startproc
	pushq	%rbp
	.cfi_def_cfa_offset 16
	.cfi_offset %rbp, -16
	movq	%rsp, %rbp
	.cfi_def_cfa_register %rbp
	subq	$16, %rsp
Ltmp805:
	.loc	14 193 9 prologue_end
	movl	$16, %eax
	.loc	14 193 5 is_stmt 0
	movl	$8, %ecx
	mull	%ecx
	movl	%eax, -4(%rbp)
	seto	%al
	testb	$1, %al
	jne	LBB92_2
	.loc	14 0 5
	movl	-4(%rbp), %eax
	.loc	14 194 2 is_stmt 1
	addq	$16, %rsp
	popq	%rbp
	retq
LBB92_2:
	.loc	14 193 5
	leaq	_str.1(%rip), %rdi
	leaq	l___unnamed_7(%rip), %rdx
	movl	$33, %esi
	callq	__ZN4core9panicking5panic17hc1bc45270cf64b03E
Ltmp806:
Lfunc_end92:
	.cfi_endproc

	.p2align	4, 0x90
__ZN11num_integer5roots4bits17h5eac34dcc9336d20E:
Lfunc_begin93:
	.loc	14 192 0
	.cfi_startproc
	pushq	%rbp
	.cfi_def_cfa_offset 16
	.cfi_offset %rbp, -16
	movq	%rsp, %rbp
	.cfi_def_cfa_register %rbp
	subq	$16, %rsp
Ltmp807:
	.loc	14 193 9 prologue_end
	movl	$1, %eax
	.loc	14 193 5 is_stmt 0
	movl	$8, %ecx
	mull	%ecx
	movl	%eax, -4(%rbp)
	seto	%al
	testb	$1, %al
	jne	LBB93_2
	.loc	14 0 5
	movl	-4(%rbp), %eax
	.loc	14 194 2 is_stmt 1
	addq	$16, %rsp
	popq	%rbp
	retq
LBB93_2:
	.loc	14 193 5
	leaq	_str.1(%rip), %rdi
	leaq	l___unnamed_7(%rip), %rdx
	movl	$33, %esi
	callq	__ZN4core9panicking5panic17hc1bc45270cf64b03E
Ltmp808:
Lfunc_end93:
	.cfi_endproc

	.p2align	4, 0x90
__ZN11num_integer5roots4bits17hac7618e73959a011E:
Lfunc_begin94:
	.loc	14 192 0
	.cfi_startproc
	pushq	%rbp
	.cfi_def_cfa_offset 16
	.cfi_offset %rbp, -16
	movq	%rsp, %rbp
	.cfi_def_cfa_register %rbp
	subq	$16, %rsp
Ltmp809:
	.loc	14 193 9 prologue_end
	movl	$8, %eax
	.loc	14 193 5 is_stmt 0
	movl	$8, %ecx
	mull	%ecx
	movl	%eax, -4(%rbp)
	seto	%al
	testb	$1, %al
	jne	LBB94_2
	.loc	14 0 5
	movl	-4(%rbp), %eax
	.loc	14 194 2 is_stmt 1
	addq	$16, %rsp
	popq	%rbp
	retq
LBB94_2:
	.loc	14 193 5
	leaq	_str.1(%rip), %rdi
	leaq	l___unnamed_7(%rip), %rdx
	movl	$33, %esi
	callq	__ZN4core9panicking5panic17hc1bc45270cf64b03E
Ltmp810:
Lfunc_end94:
	.cfi_endproc

	.p2align	4, 0x90
__ZN11num_integer5roots4bits17haf623c0be55f7c91E:
Lfunc_begin95:
	.loc	14 192 0
	.cfi_startproc
	pushq	%rbp
	.cfi_def_cfa_offset 16
	.cfi_offset %rbp, -16
	movq	%rsp, %rbp
	.cfi_def_cfa_register %rbp
	subq	$16, %rsp
Ltmp811:
	.loc	14 193 9 prologue_end
	movl	$8, %eax
	.loc	14 193 5 is_stmt 0
	movl	$8, %ecx
	mull	%ecx
	movl	%eax, -4(%rbp)
	seto	%al
	testb	$1, %al
	jne	LBB95_2
	.loc	14 0 5
	movl	-4(%rbp), %eax
	.loc	14 194 2 is_stmt 1
	addq	$16, %rsp
	popq	%rbp
	retq
LBB95_2:
	.loc	14 193 5
	leaq	_str.1(%rip), %rdi
	leaq	l___unnamed_7(%rip), %rdx
	movl	$33, %esi
	callq	__ZN4core9panicking5panic17hc1bc45270cf64b03E
Ltmp812:
Lfunc_end95:
	.cfi_endproc

	.p2align	4, 0x90
__ZN11num_integer5roots4bits17hd9c05fa0a7862afbE:
Lfunc_begin96:
	.loc	14 192 0
	.cfi_startproc
	pushq	%rbp
	.cfi_def_cfa_offset 16
	.cfi_offset %rbp, -16
	movq	%rsp, %rbp
	.cfi_def_cfa_register %rbp
	subq	$16, %rsp
Ltmp813:
	.loc	14 193 9 prologue_end
	movl	$4, %eax
	.loc	14 193 5 is_stmt 0
	movl	$8, %ecx
	mull	%ecx
	movl	%eax, -4(%rbp)
	seto	%al
	testb	$1, %al
	jne	LBB96_2
	.loc	14 0 5
	movl	-4(%rbp), %eax
	.loc	14 194 2 is_stmt 1
	addq	$16, %rsp
	popq	%rbp
	retq
LBB96_2:
	.loc	14 193 5
	leaq	_str.1(%rip), %rdi
	leaq	l___unnamed_7(%rip), %rdx
	movl	$33, %esi
	callq	__ZN4core9panicking5panic17hc1bc45270cf64b03E
Ltmp814:
Lfunc_end96:
	.cfi_endproc

	.p2align	4, 0x90
__ZN11num_integer5roots4log217h0a9df6ef2f94c1d0E:
Lfunc_begin97:
	.loc	14 197 0
	.cfi_startproc
	pushq	%rbp
	.cfi_def_cfa_offset 16
	.cfi_offset %rbp, -16
	movq	%rsp, %rbp
	.cfi_def_cfa_register %rbp
	subq	$48, %rsp
	movq	%rdi, -32(%rbp)
	movq	%rsi, -24(%rbp)
Ltmp815:
	.loc	14 198 23 prologue_end
	callq	__ZN53_$LT$u128$u20$as$u20$num_traits..identities..Zero$GT$4zero17hf4a41882c3bfabceE
	movq	%rdx, -8(%rbp)
	movq	%rax, -16(%rbp)
	.loc	14 198 19 is_stmt 0
	leaq	-32(%rbp), %rdi
	leaq	-16(%rbp), %rsi
	callq	__ZN4core3cmp5impls56_$LT$impl$u20$core..cmp..PartialOrd$u20$for$u20$u128$GT$2gt17h26eb12e0cebf5470E
	.loc	14 198 5
	xorb	$-1, %al
	testb	$1, %al
	jne	LBB97_2
	.loc	14 199 5 is_stmt 1
	callq	__ZN11num_integer5roots4bits17h4dd6b2e728f8d35bE
	movl	%eax, %ecx
	subl	$1, %ecx
	movl	%ecx, -36(%rbp)
	cmpl	$1, %eax
	setb	%al
	testb	$1, %al
	jne	LBB97_4
	jmp	LBB97_3
LBB97_2:
	.loc	14 198 5
	leaq	l___unnamed_8(%rip), %rdi
	leaq	l___unnamed_9(%rip), %rdx
	movl	$31, %esi
	callq	__ZN4core9panicking5panic17hc1bc45270cf64b03E
LBB97_3:
	.loc	14 199 23
	movq	-32(%rbp), %rdi
	movq	-24(%rbp), %rsi
	callq	__ZN49_$LT$u128$u20$as$u20$num_traits..int..PrimInt$GT$13leading_zeros17h8356f1f697a88121E
	movl	%eax, %ecx
	movl	-36(%rbp), %eax
	.loc	14 199 5 is_stmt 0
	movl	%eax, %edx
	subl	%ecx, %edx
	movl	%edx, -40(%rbp)
	cmpl	%ecx, %eax
	setb	%al
	testb	$1, %al
	jne	LBB97_6
	jmp	LBB97_5
LBB97_4:
	leaq	_str.2(%rip), %rdi
	leaq	l___unnamed_10(%rip), %rdx
	movl	$33, %esi
	callq	__ZN4core9panicking5panic17hc1bc45270cf64b03E
LBB97_5:
	.loc	14 0 5
	movl	-40(%rbp), %eax
	.loc	14 200 2 is_stmt 1
	addq	$48, %rsp
	popq	%rbp
	retq
LBB97_6:
	.loc	14 199 5
	leaq	_str.2(%rip), %rdi
	leaq	l___unnamed_10(%rip), %rdx
	movl	$33, %esi
	callq	__ZN4core9panicking5panic17hc1bc45270cf64b03E
Ltmp816:
Lfunc_end97:
	.cfi_endproc

	.p2align	4, 0x90
__ZN11num_integer5roots4log217h1735f90f80edd94eE:
Lfunc_begin98:
	.loc	14 197 0
	.cfi_startproc
	pushq	%rbp
	.cfi_def_cfa_offset 16
	.cfi_offset %rbp, -16
	movq	%rsp, %rbp
	.cfi_def_cfa_register %rbp
	subq	$16, %rsp
	movw	%di, %ax
	movw	%ax, -4(%rbp)
Ltmp817:
	.loc	14 198 23 prologue_end
	callq	__ZN52_$LT$u16$u20$as$u20$num_traits..identities..Zero$GT$4zero17hbaffa0d605bfb9c8E
	movw	%ax, -2(%rbp)
	.loc	14 198 19 is_stmt 0
	leaq	-4(%rbp), %rdi
	leaq	-2(%rbp), %rsi
	callq	__ZN4core3cmp5impls55_$LT$impl$u20$core..cmp..PartialOrd$u20$for$u20$u16$GT$2gt17h7480489111cdc830E
	.loc	14 198 5
	xorb	$-1, %al
	testb	$1, %al
	jne	LBB98_2
	.loc	14 199 5 is_stmt 1
	callq	__ZN11num_integer5roots4bits17h1ded38e1629f79e0E
	movl	%eax, %ecx
	subl	$1, %ecx
	movl	%ecx, -8(%rbp)
	cmpl	$1, %eax
	setb	%al
	testb	$1, %al
	jne	LBB98_4
	jmp	LBB98_3
LBB98_2:
	.loc	14 198 5
	leaq	l___unnamed_8(%rip), %rdi
	leaq	l___unnamed_9(%rip), %rdx
	movl	$31, %esi
	callq	__ZN4core9panicking5panic17hc1bc45270cf64b03E
LBB98_3:
	.loc	14 199 23
	movzwl	-4(%rbp), %edi
	callq	__ZN48_$LT$u16$u20$as$u20$num_traits..int..PrimInt$GT$13leading_zeros17h98bc583ddeaf6ec7E
	movl	%eax, %ecx
	movl	-8(%rbp), %eax
	.loc	14 199 5 is_stmt 0
	movl	%eax, %edx
	subl	%ecx, %edx
	movl	%edx, -12(%rbp)
	cmpl	%ecx, %eax
	setb	%al
	testb	$1, %al
	jne	LBB98_6
	jmp	LBB98_5
LBB98_4:
	leaq	_str.2(%rip), %rdi
	leaq	l___unnamed_10(%rip), %rdx
	movl	$33, %esi
	callq	__ZN4core9panicking5panic17hc1bc45270cf64b03E
LBB98_5:
	.loc	14 0 5
	movl	-12(%rbp), %eax
	.loc	14 200 2 is_stmt 1
	addq	$16, %rsp
	popq	%rbp
	retq
LBB98_6:
	.loc	14 199 5
	leaq	_str.2(%rip), %rdi
	leaq	l___unnamed_10(%rip), %rdx
	movl	$33, %esi
	callq	__ZN4core9panicking5panic17hc1bc45270cf64b03E
Ltmp818:
Lfunc_end98:
	.cfi_endproc

	.p2align	4, 0x90
__ZN11num_integer5roots4log217ha76400fa6f604449E:
Lfunc_begin99:
	.loc	14 197 0
	.cfi_startproc
	pushq	%rbp
	.cfi_def_cfa_offset 16
	.cfi_offset %rbp, -16
	movq	%rsp, %rbp
	.cfi_def_cfa_register %rbp
	subq	$16, %rsp
	movl	%edi, -8(%rbp)
Ltmp819:
	.loc	14 198 23 prologue_end
	callq	__ZN52_$LT$u32$u20$as$u20$num_traits..identities..Zero$GT$4zero17hb3ad5755f15860c2E
	movl	%eax, -4(%rbp)
	.loc	14 198 19 is_stmt 0
	leaq	-8(%rbp), %rdi
	leaq	-4(%rbp), %rsi
	callq	__ZN4core3cmp5impls55_$LT$impl$u20$core..cmp..PartialOrd$u20$for$u20$u32$GT$2gt17h903e17aafd3ac95eE
	.loc	14 198 5
	xorb	$-1, %al
	testb	$1, %al
	jne	LBB99_2
	.loc	14 199 5 is_stmt 1
	callq	__ZN11num_integer5roots4bits17hd9c05fa0a7862afbE
	movl	%eax, %ecx
	subl	$1, %ecx
	movl	%ecx, -12(%rbp)
	cmpl	$1, %eax
	setb	%al
	testb	$1, %al
	jne	LBB99_4
	jmp	LBB99_3
LBB99_2:
	.loc	14 198 5
	leaq	l___unnamed_8(%rip), %rdi
	leaq	l___unnamed_9(%rip), %rdx
	movl	$31, %esi
	callq	__ZN4core9panicking5panic17hc1bc45270cf64b03E
LBB99_3:
	.loc	14 199 23
	movl	-8(%rbp), %edi
	callq	__ZN48_$LT$u32$u20$as$u20$num_traits..int..PrimInt$GT$13leading_zeros17h03b02d22505dfc7fE
	movl	%eax, %ecx
	movl	-12(%rbp), %eax
	.loc	14 199 5 is_stmt 0
	movl	%eax, %edx
	subl	%ecx, %edx
	movl	%edx, -16(%rbp)
	cmpl	%ecx, %eax
	setb	%al
	testb	$1, %al
	jne	LBB99_6
	jmp	LBB99_5
LBB99_4:
	leaq	_str.2(%rip), %rdi
	leaq	l___unnamed_10(%rip), %rdx
	movl	$33, %esi
	callq	__ZN4core9panicking5panic17hc1bc45270cf64b03E
LBB99_5:
	.loc	14 0 5
	movl	-16(%rbp), %eax
	.loc	14 200 2 is_stmt 1
	addq	$16, %rsp
	popq	%rbp
	retq
LBB99_6:
	.loc	14 199 5
	leaq	_str.2(%rip), %rdi
	leaq	l___unnamed_10(%rip), %rdx
	movl	$33, %esi
	callq	__ZN4core9panicking5panic17hc1bc45270cf64b03E
Ltmp820:
Lfunc_end99:
	.cfi_endproc

	.p2align	4, 0x90
__ZN11num_integer5roots4log217hd8d98c06363932c0E:
Lfunc_begin100:
	.loc	14 197 0
	.cfi_startproc
	pushq	%rbp
	.cfi_def_cfa_offset 16
	.cfi_offset %rbp, -16
	movq	%rsp, %rbp
	.cfi_def_cfa_register %rbp
	subq	$32, %rsp
	movq	%rdi, -16(%rbp)
Ltmp821:
	.loc	14 198 23 prologue_end
	callq	__ZN52_$LT$u64$u20$as$u20$num_traits..identities..Zero$GT$4zero17h51ceef17f95eb573E
	movq	%rax, -8(%rbp)
	.loc	14 198 19 is_stmt 0
	leaq	-16(%rbp), %rdi
	leaq	-8(%rbp), %rsi
	callq	__ZN4core3cmp5impls55_$LT$impl$u20$core..cmp..PartialOrd$u20$for$u20$u64$GT$2gt17heef776fa57c8b6bdE
	.loc	14 198 5
	xorb	$-1, %al
	testb	$1, %al
	jne	LBB100_2
	.loc	14 199 5 is_stmt 1
	callq	__ZN11num_integer5roots4bits17haf623c0be55f7c91E
	movl	%eax, %ecx
	subl	$1, %ecx
	movl	%ecx, -20(%rbp)
	cmpl	$1, %eax
	setb	%al
	testb	$1, %al
	jne	LBB100_4
	jmp	LBB100_3
LBB100_2:
	.loc	14 198 5
	leaq	l___unnamed_8(%rip), %rdi
	leaq	l___unnamed_9(%rip), %rdx
	movl	$31, %esi
	callq	__ZN4core9panicking5panic17hc1bc45270cf64b03E
LBB100_3:
	.loc	14 199 23
	movq	-16(%rbp), %rdi
	callq	__ZN48_$LT$u64$u20$as$u20$num_traits..int..PrimInt$GT$13leading_zeros17hff210f9c77fa55a8E
	movl	%eax, %ecx
	movl	-20(%rbp), %eax
	.loc	14 199 5 is_stmt 0
	movl	%eax, %edx
	subl	%ecx, %edx
	movl	%edx, -24(%rbp)
	cmpl	%ecx, %eax
	setb	%al
	testb	$1, %al
	jne	LBB100_6
	jmp	LBB100_5
LBB100_4:
	leaq	_str.2(%rip), %rdi
	leaq	l___unnamed_10(%rip), %rdx
	movl	$33, %esi
	callq	__ZN4core9panicking5panic17hc1bc45270cf64b03E
LBB100_5:
	.loc	14 0 5
	movl	-24(%rbp), %eax
	.loc	14 200 2 is_stmt 1
	addq	$32, %rsp
	popq	%rbp
	retq
LBB100_6:
	.loc	14 199 5
	leaq	_str.2(%rip), %rdi
	leaq	l___unnamed_10(%rip), %rdx
	movl	$33, %esi
	callq	__ZN4core9panicking5panic17hc1bc45270cf64b03E
Ltmp822:
Lfunc_end100:
	.cfi_endproc

	.p2align	4, 0x90
__ZN11num_integer5roots4log217hf4dd34490943bf04E:
Lfunc_begin101:
	.loc	14 197 0
	.cfi_startproc
	pushq	%rbp
	.cfi_def_cfa_offset 16
	.cfi_offset %rbp, -16
	movq	%rsp, %rbp
	.cfi_def_cfa_register %rbp
	subq	$32, %rsp
	movq	%rdi, -16(%rbp)
Ltmp823:
	.loc	14 198 23 prologue_end
	callq	__ZN54_$LT$usize$u20$as$u20$num_traits..identities..Zero$GT$4zero17h5758c148a4343da2E
	movq	%rax, -8(%rbp)
	.loc	14 198 19 is_stmt 0
	leaq	-16(%rbp), %rdi
	leaq	-8(%rbp), %rsi
	callq	__ZN4core3cmp5impls57_$LT$impl$u20$core..cmp..PartialOrd$u20$for$u20$usize$GT$2gt17hee0b050ce1d4d1c3E
	.loc	14 198 5
	xorb	$-1, %al
	testb	$1, %al
	jne	LBB101_2
	.loc	14 199 5 is_stmt 1
	callq	__ZN11num_integer5roots4bits17hac7618e73959a011E
	movl	%eax, %ecx
	subl	$1, %ecx
	movl	%ecx, -20(%rbp)
	cmpl	$1, %eax
	setb	%al
	testb	$1, %al
	jne	LBB101_4
	jmp	LBB101_3
LBB101_2:
	.loc	14 198 5
	leaq	l___unnamed_8(%rip), %rdi
	leaq	l___unnamed_9(%rip), %rdx
	movl	$31, %esi
	callq	__ZN4core9panicking5panic17hc1bc45270cf64b03E
LBB101_3:
	.loc	14 199 23
	movq	-16(%rbp), %rdi
	callq	__ZN50_$LT$usize$u20$as$u20$num_traits..int..PrimInt$GT$13leading_zeros17hf2fd7eea8ba4e520E
	movl	%eax, %ecx
	movl	-20(%rbp), %eax
	.loc	14 199 5 is_stmt 0
	movl	%eax, %edx
	subl	%ecx, %edx
	movl	%edx, -24(%rbp)
	cmpl	%ecx, %eax
	setb	%al
	testb	$1, %al
	jne	LBB101_6
	jmp	LBB101_5
LBB101_4:
	leaq	_str.2(%rip), %rdi
	leaq	l___unnamed_10(%rip), %rdx
	movl	$33, %esi
	callq	__ZN4core9panicking5panic17hc1bc45270cf64b03E
LBB101_5:
	.loc	14 0 5
	movl	-24(%rbp), %eax
	.loc	14 200 2 is_stmt 1
	addq	$32, %rsp
	popq	%rbp
	retq
LBB101_6:
	.loc	14 199 5
	leaq	_str.2(%rip), %rdi
	leaq	l___unnamed_10(%rip), %rdx
	movl	$33, %esi
	callq	__ZN4core9panicking5panic17hc1bc45270cf64b03E
Ltmp824:
Lfunc_end101:
	.cfi_endproc

	.p2align	4, 0x90
__ZN11num_integer5roots4log217hf9b00ff41b5b3869E:
Lfunc_begin102:
	.loc	14 197 0
	.cfi_startproc
	pushq	%rbp
	.cfi_def_cfa_offset 16
	.cfi_offset %rbp, -16
	movq	%rsp, %rbp
	.cfi_def_cfa_register %rbp
	subq	$16, %rsp
	movb	%dil, %al
	movb	%al, -2(%rbp)
Ltmp825:
	.loc	14 198 23 prologue_end
	callq	__ZN51_$LT$u8$u20$as$u20$num_traits..identities..Zero$GT$4zero17h9be86ad28ff3c50fE
	movb	%al, -1(%rbp)
	.loc	14 198 19 is_stmt 0
	leaq	-2(%rbp), %rdi
	leaq	-1(%rbp), %rsi
	callq	__ZN4core3cmp5impls54_$LT$impl$u20$core..cmp..PartialOrd$u20$for$u20$u8$GT$2gt17h51d1cc18db844a9dE
	.loc	14 198 5
	xorb	$-1, %al
	testb	$1, %al
	jne	LBB102_2
	.loc	14 199 5 is_stmt 1
	callq	__ZN11num_integer5roots4bits17h5eac34dcc9336d20E
	movl	%eax, %ecx
	subl	$1, %ecx
	movl	%ecx, -8(%rbp)
	cmpl	$1, %eax
	setb	%al
	testb	$1, %al
	jne	LBB102_4
	jmp	LBB102_3
LBB102_2:
	.loc	14 198 5
	leaq	l___unnamed_8(%rip), %rdi
	leaq	l___unnamed_9(%rip), %rdx
	movl	$31, %esi
	callq	__ZN4core9panicking5panic17hc1bc45270cf64b03E
LBB102_3:
	.loc	14 199 23
	movzbl	-2(%rbp), %edi
	callq	__ZN47_$LT$u8$u20$as$u20$num_traits..int..PrimInt$GT$13leading_zeros17hab97e374d25b0fe5E
	movl	%eax, %ecx
	movl	-8(%rbp), %eax
	.loc	14 199 5 is_stmt 0
	movl	%eax, %edx
	subl	%ecx, %edx
	movl	%edx, -12(%rbp)
	cmpl	%ecx, %eax
	setb	%al
	testb	$1, %al
	jne	LBB102_6
	jmp	LBB102_5
LBB102_4:
	leaq	_str.2(%rip), %rdi
	leaq	l___unnamed_10(%rip), %rdx
	movl	$33, %esi
	callq	__ZN4core9panicking5panic17hc1bc45270cf64b03E
LBB102_5:
	.loc	14 0 5
	movl	-12(%rbp), %eax
	.loc	14 200 2 is_stmt 1
	addq	$16, %rsp
	popq	%rbp
	retq
LBB102_6:
	.loc	14 199 5
	leaq	_str.2(%rip), %rdi
	leaq	l___unnamed_10(%rip), %rdx
	movl	$33, %esi
	callq	__ZN4core9panicking5panic17hc1bc45270cf64b03E
Ltmp826:
Lfunc_end102:
	.cfi_endproc

	.p2align	4, 0x90
__ZN48_$LT$u8$u20$as$u20$num_integer..roots..Roots$GT$8nth_root17h55523cd2492062f1E:
Lfunc_begin103:
	.loc	14 206 0
	.cfi_startproc
	pushq	%rbp
	.cfi_def_cfa_offset 16
	.cfi_offset %rbp, -16
	movq	%rsp, %rbp
	.cfi_def_cfa_register %rbp
	subq	$16, %rsp
	movq	%rdi, -16(%rbp)
	movl	%esi, -4(%rbp)
Ltmp827:
	.loc	14 274 17 prologue_end
	movzbl	(%rdi), %edi
	callq	__ZN48_$LT$u8$u20$as$u20$num_integer..roots..Roots$GT$8nth_root2go17haaed02898d90640cE
	.loc	14 275 14
	addq	$16, %rsp
	popq	%rbp
	retq
Ltmp828:
Lfunc_end103:
	.cfi_endproc

	.globl	__ZN48_$LT$u8$u20$as$u20$num_integer..roots..Roots$GT$8nth_root2go17haaed02898d90640cE
	.p2align	4, 0x90
__ZN48_$LT$u8$u20$as$u20$num_integer..roots..Roots$GT$8nth_root2go17haaed02898d90640cE:
Lfunc_begin104:
	.loc	14 207 0
	.cfi_startproc
	pushq	%rbp
	.cfi_def_cfa_offset 16
	.cfi_offset %rbp, -16
	movq	%rsp, %rbp
	.cfi_def_cfa_register %rbp
	subq	$144, %rsp
	movb	%dil, %al
	movb	%al, -105(%rbp)
	movl	%esi, -104(%rbp)
Ltmp829:
	.loc	14 209 21 prologue_end
	movl	-104(%rbp), %eax
	movq	%rax, -120(%rbp)
	subq	$3, %rax
	ja	LBB104_1
	.loc	14 0 21 is_stmt 0
	movq	-120(%rbp), %rax
	leaq	LJTI104_0(%rip), %rcx
	movslq	(%rcx,%rax,4), %rax
	addq	%rcx, %rax
	jmpq	*%rax
LBB104_1:
	.loc	14 218 24 is_stmt 1
	callq	__ZN11num_integer5roots4bits17h5eac34dcc9336d20E
	cmpl	-104(%rbp), %eax
	jbe	LBB104_7
	jmp	LBB104_6
LBB104_2:
	.loc	14 210 30
	leaq	l___unnamed_11(%rip), %rdi
	leaq	l___unnamed_12(%rip), %rdx
	movl	$30, %esi
	callq	__ZN4core9panicking5panic17hc1bc45270cf64b03E
LBB104_3:
	.loc	14 211 37
	movb	-105(%rbp), %al
	movb	%al, -98(%rbp)
	.loc	14 211 30 is_stmt 0
	jmp	LBB104_13
LBB104_4:
	.loc	14 212 37 is_stmt 1
	leaq	-105(%rbp), %rdi
	callq	__ZN48_$LT$u8$u20$as$u20$num_integer..roots..Roots$GT$4sqrt17h5370e74f5b41d371E
	movb	%al, -98(%rbp)
	jmp	LBB104_13
LBB104_5:
	.loc	14 213 37
	leaq	-105(%rbp), %rdi
	callq	__ZN48_$LT$u8$u20$as$u20$num_integer..roots..Roots$GT$4cbrt17h1bea9f6cf38c5008E
	movb	%al, -98(%rbp)
	jmp	LBB104_13
LBB104_6:
	.loc	14 218 45
	movb	-105(%rbp), %al
	movb	%al, -122(%rbp)
	.loc	14 218 55 is_stmt 0
	movl	-104(%rbp), %ecx
	.loc	14 218 49
	movl	%ecx, %eax
	andl	$-8, %eax
	cmpl	$0, %eax
	setne	%al
	andb	$7, %cl
	movb	$1, %dl
	shlb	%cl, %dl
	movb	%dl, -121(%rbp)
	testb	$1, %al
	jne	LBB104_10
	jmp	LBB104_9
LBB104_7:
	.loc	14 218 24
	movb	$1, -97(%rbp)
LBB104_8:
	testb	$1, -97(%rbp)
	jne	LBB104_12
	jmp	LBB104_11
LBB104_9:
	.loc	14 0 24
	movb	-122(%rbp), %al
	movb	-121(%rbp), %cl
	.loc	14 218 45
	cmpb	%cl, %al
	setb	%al
	.loc	14 218 24
	andb	$1, %al
	movb	%al, -97(%rbp)
	jmp	LBB104_8
LBB104_10:
	.loc	14 218 49
	leaq	_str.3(%rip), %rdi
	leaq	l___unnamed_12(%rip), %rdx
	movl	$35, %esi
	callq	__ZN4core9panicking5panic17hc1bc45270cf64b03E
LBB104_11:
	.loc	14 222 24 is_stmt 1
	callq	__ZN11num_integer5roots4bits17h5eac34dcc9336d20E
	cmpl	$64, %eax
	ja	LBB104_15
	jmp	LBB104_14
LBB104_12:
	.loc	14 219 32
	cmpb	$0, -105(%rbp)
	seta	%al
	andb	$1, %al
	movb	%al, -98(%rbp)
LBB104_13:
	.loc	14 273 18
	movb	-98(%rbp), %al
	addq	$144, %rsp
	popq	%rbp
	retq
LBB104_14:
	.loc	14 264 30
	movl	-104(%rbp), %eax
	movl	%eax, %ecx
	subl	$1, %ecx
	movl	%ecx, -128(%rbp)
	cmpl	$1, %eax
	setb	%al
	testb	$1, %al
	jne	LBB104_32
	jmp	LBB104_31
LBB104_15:
	.loc	14 224 35
	cmpb	$-1, -105(%rbp)
	jbe	LBB104_17
	.loc	14 227 39
	movb	-105(%rbp), %dl
	.loc	14 227 44 is_stmt 0
	movl	-104(%rbp), %ecx
	.loc	14 227 38
	movl	%ecx, %eax
	andl	$-8, %eax
	cmpl	$0, %eax
	setne	%al
	andb	$7, %cl
	shrb	%cl, %dl
	movb	%dl, -129(%rbp)
	testb	$1, %al
	jne	LBB104_19
	jmp	LBB104_18
LBB104_17:
	.loc	14 225 29 is_stmt 1
	movzbl	-105(%rbp), %eax
	movq	%rax, -96(%rbp)
	.loc	14 225 49 is_stmt 0
	movl	-104(%rbp), %esi
	.loc	14 225 29
	leaq	-96(%rbp), %rdi
	callq	__ZN49_$LT$u64$u20$as$u20$num_integer..roots..Roots$GT$8nth_root17h949ee7009794be4aE
	movb	%al, -98(%rbp)
	.loc	14 224 32 is_stmt 1
	jmp	LBB104_13
LBB104_18:
	.loc	14 0 32 is_stmt 0
	movb	-129(%rbp), %al
	.loc	14 227 38 is_stmt 1
	movb	%al, -81(%rbp)
	.loc	14 227 56 is_stmt 0
	movl	-104(%rbp), %esi
	.loc	14 227 38
	leaq	-81(%rbp), %rdi
	callq	__ZN48_$LT$u8$u20$as$u20$num_integer..roots..Roots$GT$8nth_root17h55523cd2492062f1E
	shlb	$1, %al
	movb	%al, -131(%rbp)
	movb	%al, -18(%rbp)
Ltmp830:
	.loc	14 228 38 is_stmt 1
	addb	$1, %al
	movb	%al, -130(%rbp)
	setb	%al
	testb	$1, %al
	jne	LBB104_21
	jmp	LBB104_20
Ltmp831:
LBB104_19:
	.loc	14 227 38
	leaq	_str.4(%rip), %rdi
	leaq	l___unnamed_12(%rip), %rdx
	movl	$36, %esi
	callq	__ZN4core9panicking5panic17hc1bc45270cf64b03E
LBB104_20:
	.loc	14 0 38 is_stmt 0
	movb	-130(%rbp), %al
Ltmp832:
	.loc	14 228 38 is_stmt 1
	movb	%al, -17(%rbp)
Ltmp833:
	.loc	14 231 32
	movzbl	%al, %edi
	callq	__ZN4core3num20_$LT$impl$u20$u8$GT$17next_power_of_two17h5f41085db21f0275E
	movb	%al, -2(%rbp)
Ltmp834:
	.loc	6 152 13
	movzbl	%al, %eax
	orl	$256, %eax
	bsfl	%eax, %eax
	movl	$32, %ecx
	cmovel	%ecx, %eax
	movb	%al, -1(%rbp)
	movzbl	-1(%rbp), %eax
Ltmp835:
	.loc	14 231 32
	mull	-104(%rbp)
	movl	%eax, -136(%rbp)
	seto	%al
	testb	$1, %al
	jne	LBB104_23
	jmp	LBB104_22
Ltmp836:
LBB104_21:
	.loc	14 228 38
	leaq	_str.0(%rip), %rdi
	leaq	l___unnamed_12(%rip), %rdx
	movl	$28, %esi
	callq	__ZN4core9panicking5panic17hc1bc45270cf64b03E
LBB104_22:
Ltmp837:
	.loc	14 231 79
	callq	__ZN11num_integer5roots4bits17h5eac34dcc9336d20E
	movl	%eax, %ecx
	movl	-136(%rbp), %eax
	.loc	14 231 32 is_stmt 0
	cmpl	%ecx, %eax
	jae	LBB104_25
	jmp	LBB104_24
LBB104_23:
	leaq	_str.1(%rip), %rdi
	leaq	l___unnamed_12(%rip), %rdx
	movl	$33, %esi
	callq	__ZN4core9panicking5panic17hc1bc45270cf64b03E
LBB104_24:
	.loc	14 0 32
	movb	-130(%rbp), %al
	.loc	14 237 43 is_stmt 1
	movl	-104(%rbp), %esi
	.loc	14 237 36 is_stmt 0
	movzbl	%al, %edi
	callq	__ZN4core3num20_$LT$impl$u20$u8$GT$3pow17h56ea136c74547ad1E
	cmpb	-105(%rbp), %al
	jbe	LBB104_30
	jmp	LBB104_29
LBB104_25:
	.loc	14 0 36
	movb	-130(%rbp), %al
	.loc	14 232 55 is_stmt 1
	movl	-104(%rbp), %ecx
	movl	%ecx, %esi
	.loc	14 232 39 is_stmt 0
	movzbl	%al, %edi
	callq	__ZN10num_traits3pow11checked_pow17haca3634b98bbc213E
	movb	%dl, -79(%rbp)
	movb	%al, -80(%rbp)
	movb	-80(%rbp), %al
	andb	$1, %al
	movzbl	%al, %eax
	.loc	14 232 33
	cmpq	$1, %rax
	jne	LBB104_27
	.loc	14 233 42 is_stmt 1
	leaq	-80(%rbp), %rax
	addq	$1, %rax
	movq	%rax, -16(%rbp)
	.loc	14 233 48 is_stmt 0
	movb	-79(%rbp), %al
	cmpb	-105(%rbp), %al
	jbe	LBB104_28
LBB104_27:
	.loc	14 0 48
	movb	-131(%rbp), %al
	.loc	14 234 42 is_stmt 1
	movb	%al, -98(%rbp)
	jmp	LBB104_13
LBB104_28:
	.loc	14 0 42 is_stmt 0
	movb	-130(%rbp), %al
	.loc	14 233 42 is_stmt 1
	movb	-79(%rbp), %cl
	movb	%cl, -3(%rbp)
Ltmp838:
	.loc	14 233 58 is_stmt 0
	movb	%al, -98(%rbp)
Ltmp839:
	.loc	14 233 59
	jmp	LBB104_13
LBB104_29:
	.loc	14 0 59
	movb	-131(%rbp), %al
	.loc	14 240 37 is_stmt 1
	movb	%al, -98(%rbp)
	.loc	14 237 33
	jmp	LBB104_13
LBB104_30:
	.loc	14 0 33 is_stmt 0
	movb	-130(%rbp), %al
	.loc	14 238 37 is_stmt 1
	movb	%al, -98(%rbp)
	.loc	14 237 33
	jmp	LBB104_13
Ltmp840:
LBB104_31:
	.loc	14 0 33 is_stmt 0
	movl	-128(%rbp), %eax
	.loc	14 264 30 is_stmt 1
	movl	%eax, -76(%rbp)
Ltmp841:
	.loc	14 265 32
	leaq	-76(%rbp), %rax
	movq	%rax, -72(%rbp)
	leaq	-105(%rbp), %rax
	movq	%rax, -64(%rbp)
	leaq	-104(%rbp), %rax
	movq	%rax, -56(%rbp)
Ltmp842:
	.loc	14 272 36
	movb	-105(%rbp), %al
	.loc	14 272 39 is_stmt 0
	movl	-104(%rbp), %esi
	.loc	14 272 30
	movzbl	%al, %edi
	callq	__ZN48_$LT$u8$u20$as$u20$num_integer..roots..Roots$GT$8nth_root2go5guess17h1ea4142523abab4dE
	.loc	14 272 43
	movq	-72(%rbp), %rcx
	movq	%rcx, -48(%rbp)
	movq	-64(%rbp), %rcx
	movq	%rcx, -40(%rbp)
	movq	-56(%rbp), %rcx
	movq	%rcx, -32(%rbp)
	.loc	14 272 21
	leaq	-48(%rbp), %rsi
	movzbl	%al, %edi
	callq	__ZN11num_integer5roots8fixpoint17h584c355963cd03fdE
	movb	%al, -98(%rbp)
	jmp	LBB104_13
Ltmp843:
LBB104_32:
	.loc	14 264 30 is_stmt 1
	leaq	_str.2(%rip), %rdi
	leaq	l___unnamed_12(%rip), %rdx
	movl	$33, %esi
	callq	__ZN4core9panicking5panic17hc1bc45270cf64b03E
Ltmp844:
Lfunc_end104:
	.cfi_endproc
	.p2align	2, 0x90
	.data_region jt32
.set L104_0_set_2, LBB104_2-LJTI104_0
.set L104_0_set_3, LBB104_3-LJTI104_0
.set L104_0_set_4, LBB104_4-LJTI104_0
.set L104_0_set_5, LBB104_5-LJTI104_0
LJTI104_0:
	.long	L104_0_set_2
	.long	L104_0_set_3
	.long	L104_0_set_4
	.long	L104_0_set_5
	.end_data_region

	.section	__TEXT,__literal8,8byte_literals
	.p2align	3
LCPI105_0:
	.quad	0x406fe00000000000
	.section	__TEXT,__text,regular,pure_instructions
	.p2align	4, 0x90
__ZN48_$LT$u8$u20$as$u20$num_integer..roots..Roots$GT$8nth_root2go5guess17h1ea4142523abab4dE:
Lfunc_begin105:
	.loc	14 248 0
	.cfi_startproc
	pushq	%rbp
	.cfi_def_cfa_offset 16
	.cfi_offset %rbp, -16
	movq	%rsp, %rbp
	.cfi_def_cfa_register %rbp
	subq	$32, %rsp
	movl	%esi, -16(%rbp)
	movb	%dil, %al
	movb	%al, -12(%rbp)
	movb	%al, -9(%rbp)
	movl	%esi, -8(%rbp)
Ltmp845:
	.loc	14 250 28 prologue_end
	callq	__ZN11num_integer5roots4bits17h5eac34dcc9336d20E
	cmpl	$32, %eax
	jbe	LBB105_2
	.loc	14 0 28 is_stmt 0
	movb	-12(%rbp), %al
	.loc	14 250 50
	cmpb	$-1, %al
	setbe	%al
	.loc	14 250 28
	andb	$1, %al
	movb	%al, -10(%rbp)
	jmp	LBB105_3
LBB105_2:
	movb	$1, -10(%rbp)
LBB105_3:
	testb	$1, -10(%rbp)
	jne	LBB105_5
	.loc	14 0 28
	movb	-12(%rbp), %al
	.loc	14 253 30 is_stmt 1
	movzbl	%al, %eax
	cvtsi2sd	%eax, %xmm0
	callq	__ZN3std3f6421_$LT$impl$u20$f64$GT$2ln17hc783eb7542d15b5cE
	movl	-16(%rbp), %eax
	movl	%eax, -4(%rbp)
Ltmp846:
	.file	15 "/rustc/2c8cc343237b8f7d5a3c3703e3a87f2eb2c54a74/library/core/src/convert" "num.rs"
	.loc	15 54 17
	movl	%eax, %eax
	cvtsi2sd	%rax, %xmm1
Ltmp847:
	.loc	14 253 29
	divsd	%xmm1, %xmm0
	callq	__ZN3std3f6421_$LT$impl$u20$f64$GT$3exp17h44cafcbe2a22d0acE
	xorps	%xmm1, %xmm1
	maxsd	%xmm0, %xmm1
	movsd	LCPI105_0(%rip), %xmm0
	minsd	%xmm1, %xmm0
	cvttsd2si	%xmm0, %eax
	movb	%al, -11(%rbp)
	.loc	14 250 25
	jmp	LBB105_14
LBB105_5:
	.loc	14 0 25 is_stmt 0
	movb	-12(%rbp), %al
	.loc	14 251 36 is_stmt 1
	movzbl	%al, %edi
	callq	__ZN11num_integer5roots4log217hf9b00ff41b5b3869E
	movl	-16(%rbp), %ecx
	addl	%ecx, %eax
	movl	%eax, -20(%rbp)
	setb	%al
	testb	$1, %al
	jne	LBB105_7
	.loc	14 0 36 is_stmt 0
	movl	-20(%rbp), %eax
	.loc	14 251 35
	movl	%eax, %ecx
	subl	$1, %ecx
	movl	%ecx, -24(%rbp)
	cmpl	$1, %eax
	setb	%al
	testb	$1, %al
	jne	LBB105_9
	jmp	LBB105_8
LBB105_7:
	.loc	14 251 36
	leaq	_str.0(%rip), %rdi
	leaq	l___unnamed_12(%rip), %rdx
	movl	$28, %esi
	callq	__ZN4core9panicking5panic17hc1bc45270cf64b03E
LBB105_8:
	.loc	14 0 36
	movl	-16(%rbp), %eax
	.loc	14 251 34
	cmpl	$0, %eax
	sete	%al
	testb	$1, %al
	jne	LBB105_11
	jmp	LBB105_10
LBB105_9:
	.loc	14 251 35
	leaq	_str.2(%rip), %rdi
	leaq	l___unnamed_12(%rip), %rdx
	movl	$33, %esi
	callq	__ZN4core9panicking5panic17hc1bc45270cf64b03E
LBB105_10:
	.loc	14 0 35
	movl	-16(%rbp), %ecx
	movl	-24(%rbp), %eax
	.loc	14 251 34
	xorl	%edx, %edx
	divl	%ecx
	movl	%eax, %ecx
	.loc	14 251 29
	movl	%ecx, %eax
	andl	$-8, %eax
	cmpl	$0, %eax
	setne	%al
	andb	$7, %cl
	movb	$1, %dl
	shlb	%cl, %dl
	movb	%dl, -25(%rbp)
	testb	$1, %al
	jne	LBB105_13
	jmp	LBB105_12
LBB105_11:
	.loc	14 251 34
	leaq	_str.5(%rip), %rdi
	leaq	l___unnamed_12(%rip), %rdx
	movl	$25, %esi
	callq	__ZN4core9panicking5panic17hc1bc45270cf64b03E
LBB105_12:
	.loc	14 0 34
	movb	-25(%rbp), %al
	.loc	14 251 29
	movb	%al, -11(%rbp)
	.loc	14 250 25 is_stmt 1
	jmp	LBB105_14
LBB105_13:
	.loc	14 251 29
	leaq	_str.3(%rip), %rdi
	leaq	l___unnamed_12(%rip), %rdx
	movl	$35, %esi
	callq	__ZN4core9panicking5panic17hc1bc45270cf64b03E
LBB105_14:
	.loc	14 255 22
	movb	-11(%rbp), %al
	addq	$32, %rsp
	popq	%rbp
	retq
Ltmp848:
Lfunc_end105:
	.cfi_endproc

	.p2align	4, 0x90
__ZN48_$LT$u8$u20$as$u20$num_integer..roots..Roots$GT$8nth_root2go28_$u7b$$u7b$closure$u7d$$u7d$17h93666a086c7f39e0E:
Lfunc_begin106:
	.loc	14 265 0
	.cfi_startproc
	pushq	%rbp
	.cfi_def_cfa_offset 16
	.cfi_offset %rbp, -16
	movq	%rsp, %rbp
	.cfi_def_cfa_register %rbp
	subq	$48, %rsp
	movq	%rdi, -40(%rbp)
	movb	%sil, %al
	movb	%al, -26(%rbp)
	movq	%rdi, -16(%rbp)
	movb	%al, -2(%rbp)
Ltmp849:
	.loc	14 266 54 prologue_end
	movq	(%rdi), %rcx
	movl	(%rcx), %ecx
	movl	%ecx, %esi
	.loc	14 266 39 is_stmt 0
	movzbl	%al, %edi
	callq	__ZN10num_traits3pow11checked_pow17haca3634b98bbc213E
	movb	%dl, -23(%rbp)
	movb	%al, -24(%rbp)
	movb	-24(%rbp), %al
	andb	$1, %al
	movzbl	%al, %eax
	.loc	14 266 33
	cmpq	$0, %rax
	jne	LBB106_2
	.loc	14 268 37 is_stmt 1
	movb	$0, -25(%rbp)
	jmp	LBB106_5
LBB106_2:
	.loc	14 0 37 is_stmt 0
	movq	-40(%rbp), %rcx
	.loc	14 267 34 is_stmt 1
	movb	-23(%rbp), %al
	movb	%al, -42(%rbp)
	movb	%al, -1(%rbp)
Ltmp850:
	.loc	14 267 41 is_stmt 0
	movq	8(%rcx), %rcx
	movb	(%rcx), %cl
	movb	%cl, -41(%rbp)
	cmpb	$0, %al
	sete	%al
	testb	$1, %al
	jne	LBB106_4
	.loc	14 0 41
	movb	-42(%rbp), %cl
	movb	-41(%rbp), %al
	.loc	14 267 41
	movzbw	%al, %ax
	divb	%cl
	movb	%al, -25(%rbp)
Ltmp851:
	.loc	14 267 46
	jmp	LBB106_5
LBB106_4:
Ltmp852:
	.loc	14 267 41
	leaq	_str.5(%rip), %rdi
	leaq	l___unnamed_12(%rip), %rdx
	movl	$25, %esi
	callq	__ZN4core9panicking5panic17hc1bc45270cf64b03E
Ltmp853:
LBB106_5:
	.loc	14 0 41
	movb	-26(%rbp), %al
	movq	-40(%rbp), %rcx
Ltmp854:
	.loc	14 270 26 is_stmt 1
	movb	-25(%rbp), %dl
	movb	%dl, -44(%rbp)
	.loc	14 270 34 is_stmt 0
	movq	(%rcx), %rcx
	movl	(%rcx), %ecx
	.loc	14 270 30
	mulb	%cl
	movb	%al, -43(%rbp)
	seto	%al
	testb	$1, %al
	jne	LBB106_7
	.loc	14 0 30
	movb	-43(%rbp), %cl
	movb	-44(%rbp), %al
	.loc	14 270 25
	addb	%cl, %al
	movb	%al, -45(%rbp)
	setb	%al
	testb	$1, %al
	jne	LBB106_9
	jmp	LBB106_8
LBB106_7:
	.loc	14 270 30
	leaq	_str.1(%rip), %rdi
	leaq	l___unnamed_12(%rip), %rdx
	movl	$33, %esi
	callq	__ZN4core9panicking5panic17hc1bc45270cf64b03E
LBB106_8:
	.loc	14 0 30
	movq	-40(%rbp), %rax
	.loc	14 270 46
	movq	16(%rax), %rax
	movl	(%rax), %eax
	movb	%al, -46(%rbp)
	.loc	14 270 25
	cmpb	$0, %al
	sete	%al
	testb	$1, %al
	jne	LBB106_11
	jmp	LBB106_10
LBB106_9:
	leaq	_str.0(%rip), %rdi
	leaq	l___unnamed_12(%rip), %rdx
	movl	$28, %esi
	callq	__ZN4core9panicking5panic17hc1bc45270cf64b03E
LBB106_10:
	.loc	14 0 25
	movb	-46(%rbp), %cl
	movb	-45(%rbp), %al
	.loc	14 270 25
	movzbw	%al, %ax
	divb	%cl
Ltmp855:
	.loc	14 271 22 is_stmt 1
	addq	$48, %rsp
	popq	%rbp
	retq
LBB106_11:
Ltmp856:
	.loc	14 270 25
	leaq	_str.5(%rip), %rdi
	leaq	l___unnamed_12(%rip), %rdx
	movl	$25, %esi
	callq	__ZN4core9panicking5panic17hc1bc45270cf64b03E
Ltmp857:
Lfunc_end106:
	.cfi_endproc

	.p2align	4, 0x90
__ZN48_$LT$u8$u20$as$u20$num_integer..roots..Roots$GT$4sqrt17h5370e74f5b41d371E:
Lfunc_begin107:
	.loc	14 278 0
	.cfi_startproc
	pushq	%rbp
	.cfi_def_cfa_offset 16
	.cfi_offset %rbp, -16
	movq	%rsp, %rbp
	.cfi_def_cfa_register %rbp
	subq	$16, %rsp
	movq	%rdi, -8(%rbp)
Ltmp858:
	.loc	14 315 17 prologue_end
	movzbl	(%rdi), %edi
	callq	__ZN48_$LT$u8$u20$as$u20$num_integer..roots..Roots$GT$4sqrt2go17h6d3f01eb45e5e399E
	.loc	14 316 14
	addq	$16, %rsp
	popq	%rbp
	retq
Ltmp859:
Lfunc_end107:
	.cfi_endproc

	.globl	__ZN48_$LT$u8$u20$as$u20$num_integer..roots..Roots$GT$4sqrt2go17h6d3f01eb45e5e399E
	.p2align	4, 0x90
__ZN48_$LT$u8$u20$as$u20$num_integer..roots..Roots$GT$4sqrt2go17h6d3f01eb45e5e399E:
Lfunc_begin108:
	.loc	14 279 0
	.cfi_startproc
	pushq	%rbp
	.cfi_def_cfa_offset 16
	.cfi_offset %rbp, -16
	movq	%rsp, %rbp
	.cfi_def_cfa_register %rbp
	subq	$48, %rsp
	movb	%dil, %al
	movb	%al, -34(%rbp)
Ltmp860:
	.loc	14 280 24 prologue_end
	callq	__ZN11num_integer5roots4bits17h5eac34dcc9336d20E
	cmpl	$64, %eax
	ja	LBB108_2
	.loc	14 295 24
	cmpb	$4, -34(%rbp)
	jb	LBB108_13
	jmp	LBB108_12
LBB108_2:
	.loc	14 282 35
	cmpb	$-1, -34(%rbp)
	jbe	LBB108_4
	.loc	14 285 39
	movb	-34(%rbp), %al
	.loc	14 285 38 is_stmt 0
	shrb	$2, %al
	movb	%al, -17(%rbp)
	leaq	-17(%rbp), %rdi
	callq	__ZN48_$LT$u8$u20$as$u20$num_integer..roots..Roots$GT$4sqrt17h5370e74f5b41d371E
	shlb	$1, %al
	movb	%al, -36(%rbp)
	movb	%al, -2(%rbp)
Ltmp861:
	.loc	14 286 38 is_stmt 1
	addb	$1, %al
	movb	%al, -35(%rbp)
	setb	%al
	testb	$1, %al
	jne	LBB108_7
	jmp	LBB108_6
Ltmp862:
LBB108_4:
	.loc	14 283 29
	movzbl	-34(%rbp), %eax
	movq	%rax, -32(%rbp)
	leaq	-32(%rbp), %rdi
	callq	__ZN49_$LT$u64$u20$as$u20$num_integer..roots..Roots$GT$4sqrt17haf01f18efd096d53E
	movb	%al, -33(%rbp)
LBB108_5:
	.loc	14 314 18
	movb	-33(%rbp), %al
	addq	$48, %rsp
	popq	%rbp
	retq
LBB108_6:
	.loc	14 0 18 is_stmt 0
	movb	-35(%rbp), %cl
Ltmp863:
	.loc	14 286 38 is_stmt 1
	movb	%cl, -1(%rbp)
Ltmp864:
	.loc	14 287 32
	movb	%cl, %al
	mulb	%cl
	movb	%al, -37(%rbp)
	seto	%al
	testb	$1, %al
	jne	LBB108_9
	jmp	LBB108_8
Ltmp865:
LBB108_7:
	.loc	14 286 38
	leaq	_str.0(%rip), %rdi
	leaq	l___unnamed_12(%rip), %rdx
	movl	$28, %esi
	callq	__ZN4core9panicking5panic17hc1bc45270cf64b03E
LBB108_8:
	.loc	14 0 38 is_stmt 0
	movb	-37(%rbp), %al
Ltmp866:
	.loc	14 287 32 is_stmt 1
	cmpb	-34(%rbp), %al
	jbe	LBB108_11
	jmp	LBB108_10
LBB108_9:
	leaq	_str.1(%rip), %rdi
	leaq	l___unnamed_12(%rip), %rdx
	movl	$33, %esi
	callq	__ZN4core9panicking5panic17hc1bc45270cf64b03E
LBB108_10:
	.loc	14 0 32 is_stmt 0
	movb	-36(%rbp), %al
	.loc	14 290 33 is_stmt 1
	movb	%al, -33(%rbp)
	.loc	14 287 29
	jmp	LBB108_5
LBB108_11:
	.loc	14 0 29 is_stmt 0
	movb	-35(%rbp), %al
	.loc	14 288 33 is_stmt 1
	movb	%al, -33(%rbp)
	.loc	14 287 29
	jmp	LBB108_5
Ltmp867:
LBB108_12:
	.loc	14 312 32
	leaq	-34(%rbp), %rax
	movq	%rax, -16(%rbp)
Ltmp868:
	.loc	14 313 30
	movzbl	-34(%rbp), %edi
	callq	__ZN48_$LT$u8$u20$as$u20$num_integer..roots..Roots$GT$4sqrt2go5guess17h4e48b8aaa815a9ebE
	.loc	14 313 40 is_stmt 0
	movq	-16(%rbp), %rsi
	.loc	14 313 21
	movzbl	%al, %edi
	callq	__ZN11num_integer5roots8fixpoint17ha698d3a6584f697bE
	movb	%al, -33(%rbp)
	jmp	LBB108_5
Ltmp869:
LBB108_13:
	.loc	14 296 32 is_stmt 1
	cmpb	$0, -34(%rbp)
	seta	%al
	andb	$1, %al
	movb	%al, -33(%rbp)
	.loc	2 1 1
	jmp	LBB108_5
Ltmp870:
Lfunc_end108:
	.cfi_endproc

	.section	__TEXT,__literal8,8byte_literals
	.p2align	3
LCPI109_0:
	.quad	0x406fe00000000000
	.section	__TEXT,__text,regular,pure_instructions
	.p2align	4, 0x90
__ZN48_$LT$u8$u20$as$u20$num_integer..roots..Roots$GT$4sqrt2go5guess17h4e48b8aaa815a9ebE:
Lfunc_begin109:
	.loc	14 301 0
	.cfi_startproc
	pushq	%rbp
	.cfi_def_cfa_offset 16
	.cfi_offset %rbp, -16
	movq	%rsp, %rbp
	.cfi_def_cfa_register %rbp
	subq	$16, %rsp
	movb	%dil, %al
	movb	%al, -1(%rbp)
Ltmp871:
	.loc	14 302 25 prologue_end
	movzbl	%al, %eax
	cvtsi2sd	%eax, %xmm0
	callq	__ZN3std3f6421_$LT$impl$u20$f64$GT$4sqrt17hca23f3649c6e275aE
	xorps	%xmm1, %xmm1
	maxsd	%xmm0, %xmm1
	movsd	LCPI109_0(%rip), %xmm0
	minsd	%xmm1, %xmm0
	cvttsd2si	%xmm0, %eax
	.loc	14 303 22
	addq	$16, %rsp
	popq	%rbp
	retq
Ltmp872:
Lfunc_end109:
	.cfi_endproc

	.p2align	4, 0x90
__ZN48_$LT$u8$u20$as$u20$num_integer..roots..Roots$GT$4sqrt2go28_$u7b$$u7b$closure$u7d$$u7d$17h4c066279d4d3a880E:
Lfunc_begin110:
	.loc	14 312 0
	.cfi_startproc
	pushq	%rbp
	.cfi_def_cfa_offset 16
	.cfi_offset %rbp, -16
	movq	%rsp, %rbp
	.cfi_def_cfa_register %rbp
	subq	$32, %rsp
	movb	%sil, %al
	movb	%al, -18(%rbp)
	movq	%rdi, -16(%rbp)
	movb	%al, -1(%rbp)
Ltmp873:
	.loc	14 312 41 prologue_end
	movq	(%rdi), %rcx
	movb	(%rcx), %cl
	movb	%cl, -17(%rbp)
	cmpb	$0, %al
	sete	%al
	testb	$1, %al
	jne	LBB110_2
	.loc	14 0 41 is_stmt 0
	movb	-18(%rbp), %cl
	movb	-17(%rbp), %al
	.loc	14 312 41
	movzbw	%al, %ax
	divb	%cl
	.loc	14 312 40
	addb	%cl, %al
	movb	%al, -19(%rbp)
	setb	%al
	testb	$1, %al
	jne	LBB110_4
	jmp	LBB110_3
LBB110_2:
	.loc	14 312 41
	leaq	_str.5(%rip), %rdi
	leaq	l___unnamed_12(%rip), %rdx
	movl	$25, %esi
	callq	__ZN4core9panicking5panic17hc1bc45270cf64b03E
LBB110_3:
	.loc	14 0 41
	movb	-19(%rbp), %al
	.loc	14 312 40
	shrb	$1, %al
	.loc	14 312 56
	addq	$32, %rsp
	popq	%rbp
	retq
LBB110_4:
	.loc	14 312 40
	leaq	_str.0(%rip), %rdi
	leaq	l___unnamed_12(%rip), %rdx
	movl	$28, %esi
	callq	__ZN4core9panicking5panic17hc1bc45270cf64b03E
Ltmp874:
Lfunc_end110:
	.cfi_endproc

	.p2align	4, 0x90
__ZN48_$LT$u8$u20$as$u20$num_integer..roots..Roots$GT$4cbrt17h1bea9f6cf38c5008E:
Lfunc_begin111:
	.loc	14 319 0 is_stmt 1
	.cfi_startproc
	pushq	%rbp
	.cfi_def_cfa_offset 16
	.cfi_offset %rbp, -16
	movq	%rsp, %rbp
	.cfi_def_cfa_register %rbp
	subq	$16, %rsp
	movq	%rdi, -8(%rbp)
Ltmp875:
	.loc	14 379 17 prologue_end
	movzbl	(%rdi), %edi
	callq	__ZN48_$LT$u8$u20$as$u20$num_integer..roots..Roots$GT$4cbrt2go17h870570b494652ce4E
	.loc	14 380 14
	addq	$16, %rsp
	popq	%rbp
	retq
Ltmp876:
Lfunc_end111:
	.cfi_endproc

	.globl	__ZN48_$LT$u8$u20$as$u20$num_integer..roots..Roots$GT$4cbrt2go17h870570b494652ce4E
	.p2align	4, 0x90
__ZN48_$LT$u8$u20$as$u20$num_integer..roots..Roots$GT$4cbrt2go17h870570b494652ce4E:
Lfunc_begin112:
	.loc	14 320 0
	.cfi_startproc
	pushq	%rbp
	.cfi_def_cfa_offset 16
	.cfi_offset %rbp, -16
	movq	%rsp, %rbp
	.cfi_def_cfa_register %rbp
	subq	$112, %rsp
	movb	%dil, %al
	movb	%al, -82(%rbp)
Ltmp877:
	.loc	14 321 24 prologue_end
	callq	__ZN11num_integer5roots4bits17h5eac34dcc9336d20E
	cmpl	$64, %eax
	ja	LBB112_2
	.loc	14 336 24
	callq	__ZN11num_integer5roots4bits17h5eac34dcc9336d20E
	cmpl	$32, %eax
	jbe	LBB112_15
	jmp	LBB112_14
LBB112_2:
	.loc	14 323 35
	cmpb	$-1, -82(%rbp)
	jbe	LBB112_4
	.loc	14 326 39
	movb	-82(%rbp), %al
	.loc	14 326 38 is_stmt 0
	shrb	$3, %al
	movb	%al, -68(%rbp)
	leaq	-68(%rbp), %rdi
	callq	__ZN48_$LT$u8$u20$as$u20$num_integer..roots..Roots$GT$4cbrt17h1bea9f6cf38c5008E
	shlb	$1, %al
	movb	%al, -84(%rbp)
	movb	%al, -18(%rbp)
Ltmp878:
	.loc	14 327 38 is_stmt 1
	addb	$1, %al
	movb	%al, -83(%rbp)
	setb	%al
	testb	$1, %al
	jne	LBB112_7
	jmp	LBB112_6
Ltmp879:
LBB112_4:
	.loc	14 324 29
	movzbl	-82(%rbp), %eax
	movq	%rax, -80(%rbp)
	leaq	-80(%rbp), %rdi
	callq	__ZN49_$LT$u64$u20$as$u20$num_integer..roots..Roots$GT$4cbrt17h02a48b5c04852cb4E
	movb	%al, -81(%rbp)
LBB112_5:
	.loc	14 378 18
	movb	-81(%rbp), %al
	addq	$112, %rsp
	popq	%rbp
	retq
LBB112_6:
	.loc	14 0 18 is_stmt 0
	movb	-83(%rbp), %cl
Ltmp880:
	.loc	14 327 38 is_stmt 1
	movb	%cl, -17(%rbp)
Ltmp881:
	.loc	14 328 32
	movb	%cl, %al
	mulb	%cl
	movb	%al, -85(%rbp)
	seto	%al
	testb	$1, %al
	jne	LBB112_9
	jmp	LBB112_8
Ltmp882:
LBB112_7:
	.loc	14 327 38
	leaq	_str.0(%rip), %rdi
	leaq	l___unnamed_12(%rip), %rdx
	movl	$28, %esi
	callq	__ZN4core9panicking5panic17hc1bc45270cf64b03E
LBB112_8:
	.loc	14 0 38 is_stmt 0
	movb	-83(%rbp), %cl
	movb	-85(%rbp), %al
Ltmp883:
	.loc	14 328 32 is_stmt 1
	mulb	%cl
	movb	%al, -86(%rbp)
	seto	%al
	testb	$1, %al
	jne	LBB112_11
	jmp	LBB112_10
LBB112_9:
	leaq	_str.1(%rip), %rdi
	leaq	l___unnamed_12(%rip), %rdx
	movl	$33, %esi
	callq	__ZN4core9panicking5panic17hc1bc45270cf64b03E
LBB112_10:
	.loc	14 0 32 is_stmt 0
	movb	-86(%rbp), %al
	.loc	14 328 32
	cmpb	-82(%rbp), %al
	jbe	LBB112_13
	jmp	LBB112_12
LBB112_11:
	leaq	_str.1(%rip), %rdi
	leaq	l___unnamed_12(%rip), %rdx
	movl	$33, %esi
	callq	__ZN4core9panicking5panic17hc1bc45270cf64b03E
LBB112_12:
	.loc	14 0 32
	movb	-84(%rbp), %al
	.loc	14 331 33 is_stmt 1
	movb	%al, -81(%rbp)
	.loc	14 328 29
	jmp	LBB112_5
LBB112_13:
	.loc	14 0 29 is_stmt 0
	movb	-83(%rbp), %al
	.loc	14 329 33 is_stmt 1
	movb	%al, -81(%rbp)
	.loc	14 328 29
	jmp	LBB112_5
Ltmp884:
LBB112_14:
	.loc	14 356 24
	cmpb	$8, -82(%rbp)
	jb	LBB112_49
	jmp	LBB112_48
LBB112_15:
	.loc	14 338 37
	movb	-82(%rbp), %al
	movb	%al, -67(%rbp)
Ltmp885:
	.loc	14 339 38
	movb	$0, -66(%rbp)
Ltmp886:
	.loc	14 340 37
	movb	$0, -65(%rbp)
Ltmp887:
	.loc	14 341 36
	callq	__ZN11num_integer5roots4bits17h5eac34dcc9336d20E
	movl	$3, %ecx
	xorl	%edx, %edx
	divl	%ecx
	movl	%eax, -16(%rbp)
Ltmp888:
	.loc	14 342 38
	addl	$1, %eax
	movl	%eax, -92(%rbp)
	setb	%al
	testb	$1, %al
	jne	LBB112_17
	.loc	14 0 38 is_stmt 0
	movl	-92(%rbp), %eax
	.loc	14 342 34
	movl	$0, -64(%rbp)
	movl	%eax, -60(%rbp)
	movl	-64(%rbp), %edi
	movl	-60(%rbp), %esi
	callq	__ZN4core4iter6traits8iterator8Iterator3rev17h11bc1558d551b1b9E
	movl	%eax, %edi
	movl	%edx, %esi
	callq	__ZN63_$LT$I$u20$as$u20$core..iter..traits..collect..IntoIterator$GT$9into_iter17hb9cb3d6540f28b3bE
	movl	%eax, -56(%rbp)
	movl	%edx, -52(%rbp)
Ltmp889:
	.loc	14 342 25
	jmp	LBB112_18
Ltmp890:
LBB112_17:
	.loc	14 342 38
	leaq	_str.0(%rip), %rdi
	leaq	l___unnamed_12(%rip), %rdx
	movl	$28, %esi
	callq	__ZN4core9panicking5panic17hc1bc45270cf64b03E
LBB112_18:
	.loc	14 0 38
	leaq	-56(%rbp), %rdi
Ltmp891:
	.loc	14 342 34
	callq	__ZN98_$LT$core..iter..adapters..rev..Rev$LT$I$GT$$u20$as$u20$core..iter..traits..iterator..Iterator$GT$4next17h2ffde2109c1e4ed7E
	movl	%edx, -44(%rbp)
	movl	%eax, -48(%rbp)
	movl	-48(%rbp), %eax
	cmpq	$0, %rax
	jne	LBB112_20
Ltmp892:
	.loc	14 353 32 is_stmt 1
	movb	-65(%rbp), %al
	movb	%al, -81(%rbp)
Ltmp893:
	.loc	2 1 1
	jmp	LBB112_5
LBB112_20:
Ltmp894:
	.loc	14 342 29
	movl	-44(%rbp), %eax
	movl	%eax, -12(%rbp)
Ltmp895:
	.loc	14 343 37
	movl	$3, %ecx
	mull	%ecx
	movl	%eax, -96(%rbp)
	seto	%al
	testb	$1, %al
	jne	LBB112_22
	.loc	14 0 37 is_stmt 0
	movl	-96(%rbp), %eax
	.loc	14 343 37
	movl	%eax, -8(%rbp)
Ltmp896:
	.loc	14 344 29 is_stmt 1
	movb	-66(%rbp), %al
	movb	$4, %cl
	mulb	%cl
	movb	%al, -97(%rbp)
	seto	%al
	testb	$1, %al
	jne	LBB112_24
	jmp	LBB112_23
Ltmp897:
LBB112_22:
	.loc	14 343 37
	leaq	_str.1(%rip), %rdi
	leaq	l___unnamed_12(%rip), %rdx
	movl	$33, %esi
	callq	__ZN4core9panicking5panic17hc1bc45270cf64b03E
LBB112_23:
	.loc	14 0 37 is_stmt 0
	movb	-97(%rbp), %al
Ltmp898:
	.loc	14 344 29 is_stmt 1
	movb	%al, -66(%rbp)
	.loc	14 345 29
	movb	-65(%rbp), %al
	movb	$2, %cl
	mulb	%cl
	movb	%al, -98(%rbp)
	seto	%al
	testb	$1, %al
	jne	LBB112_26
	jmp	LBB112_25
LBB112_24:
	.loc	14 344 29
	leaq	_str.1(%rip), %rdi
	leaq	l___unnamed_12(%rip), %rdx
	movl	$33, %esi
	callq	__ZN4core9panicking5panic17hc1bc45270cf64b03E
LBB112_25:
	.loc	14 0 29 is_stmt 0
	movb	-98(%rbp), %al
	.loc	14 345 29 is_stmt 1
	movb	%al, -65(%rbp)
	.loc	14 346 42
	movb	-66(%rbp), %al
	.loc	14 346 41 is_stmt 0
	addb	-65(%rbp), %al
	movb	%al, -99(%rbp)
	setb	%al
	testb	$1, %al
	jne	LBB112_28
	jmp	LBB112_27
LBB112_26:
	.loc	14 345 29 is_stmt 1
	leaq	_str.1(%rip), %rdi
	leaq	l___unnamed_12(%rip), %rdx
	movl	$33, %esi
	callq	__ZN4core9panicking5panic17hc1bc45270cf64b03E
LBB112_27:
	.loc	14 0 29 is_stmt 0
	movb	-99(%rbp), %al
	.loc	14 346 37 is_stmt 1
	movb	$3, %cl
	mulb	%cl
	movb	%al, -100(%rbp)
	seto	%al
	testb	$1, %al
	jne	LBB112_30
	jmp	LBB112_29
LBB112_28:
	.loc	14 346 41 is_stmt 0
	leaq	_str.0(%rip), %rdi
	leaq	l___unnamed_12(%rip), %rdx
	movl	$28, %esi
	callq	__ZN4core9panicking5panic17hc1bc45270cf64b03E
LBB112_29:
	.loc	14 0 41
	movb	-100(%rbp), %al
	.loc	14 346 37
	addb	$1, %al
	movb	%al, -101(%rbp)
	setb	%al
	testb	$1, %al
	jne	LBB112_32
	jmp	LBB112_31
LBB112_30:
	leaq	_str.1(%rip), %rdi
	leaq	l___unnamed_12(%rip), %rdx
	movl	$33, %esi
	callq	__ZN4core9panicking5panic17hc1bc45270cf64b03E
LBB112_31:
	.loc	14 0 37
	movl	-96(%rbp), %ecx
	movb	-101(%rbp), %al
	.loc	14 346 37
	movb	%al, -1(%rbp)
Ltmp899:
	.loc	14 347 32 is_stmt 1
	movb	-67(%rbp), %dl
	movl	%ecx, %eax
	andl	$-8, %eax
	cmpl	$0, %eax
	setne	%al
	andb	$7, %cl
	shrb	%cl, %dl
	movb	%dl, -102(%rbp)
	testb	$1, %al
	jne	LBB112_34
	jmp	LBB112_33
Ltmp900:
LBB112_32:
	.loc	14 346 37
	leaq	_str.0(%rip), %rdi
	leaq	l___unnamed_12(%rip), %rdx
	movl	$28, %esi
	callq	__ZN4core9panicking5panic17hc1bc45270cf64b03E
LBB112_33:
	.loc	14 0 37 is_stmt 0
	movb	-102(%rbp), %al
	movb	-101(%rbp), %cl
Ltmp901:
	.loc	14 347 32 is_stmt 1
	cmpb	%cl, %al
	jae	LBB112_35
	jmp	LBB112_18
LBB112_34:
	leaq	_str.4(%rip), %rdi
	leaq	l___unnamed_12(%rip), %rdx
	movl	$36, %esi
	callq	__ZN4core9panicking5panic17hc1bc45270cf64b03E
LBB112_35:
	.loc	14 0 32 is_stmt 0
	movb	-101(%rbp), %dl
	movl	-96(%rbp), %ecx
	.loc	14 348 38 is_stmt 1
	movl	%ecx, %eax
	andl	$-8, %eax
	cmpl	$0, %eax
	setne	%al
	andb	$7, %cl
	shlb	%cl, %dl
	movb	%dl, -103(%rbp)
	testb	$1, %al
	jne	LBB112_37
	.loc	14 0 38 is_stmt 0
	movb	-103(%rbp), %cl
	.loc	14 348 33
	movb	-67(%rbp), %al
	movb	%al, %dl
	subb	%cl, %dl
	movb	%dl, -104(%rbp)
	cmpb	%cl, %al
	setb	%al
	testb	$1, %al
	jne	LBB112_39
	jmp	LBB112_38
LBB112_37:
	.loc	14 348 38
	leaq	_str.3(%rip), %rdi
	leaq	l___unnamed_12(%rip), %rdx
	movl	$35, %esi
	callq	__ZN4core9panicking5panic17hc1bc45270cf64b03E
LBB112_38:
	.loc	14 0 38
	movb	-104(%rbp), %al
	.loc	14 348 33
	movb	%al, -67(%rbp)
	.loc	14 349 43 is_stmt 1
	movb	-65(%rbp), %al
	.loc	14 349 39 is_stmt 0
	movb	$2, %cl
	mulb	%cl
	movb	%al, -105(%rbp)
	seto	%al
	testb	$1, %al
	jne	LBB112_41
	jmp	LBB112_40
LBB112_39:
	.loc	14 348 33 is_stmt 1
	leaq	_str.2(%rip), %rdi
	leaq	l___unnamed_12(%rip), %rdx
	movl	$33, %esi
	callq	__ZN4core9panicking5panic17hc1bc45270cf64b03E
LBB112_40:
	.loc	14 0 33 is_stmt 0
	movb	-105(%rbp), %al
	.loc	14 349 39 is_stmt 1
	addb	$1, %al
	movb	%al, -106(%rbp)
	setb	%al
	testb	$1, %al
	jne	LBB112_43
	jmp	LBB112_42
LBB112_41:
	leaq	_str.1(%rip), %rdi
	leaq	l___unnamed_12(%rip), %rdx
	movl	$33, %esi
	callq	__ZN4core9panicking5panic17hc1bc45270cf64b03E
LBB112_42:
	.loc	14 0 39 is_stmt 0
	movb	-106(%rbp), %al
	.loc	14 349 33
	addb	-66(%rbp), %al
	movb	%al, -107(%rbp)
	setb	%al
	testb	$1, %al
	jne	LBB112_45
	jmp	LBB112_44
LBB112_43:
	.loc	14 349 39
	leaq	_str.0(%rip), %rdi
	leaq	l___unnamed_12(%rip), %rdx
	movl	$28, %esi
	callq	__ZN4core9panicking5panic17hc1bc45270cf64b03E
LBB112_44:
	.loc	14 0 39
	movb	-107(%rbp), %al
	.loc	14 349 33
	movb	%al, -66(%rbp)
	.loc	14 350 33 is_stmt 1
	movb	-65(%rbp), %al
	addb	$1, %al
	movb	%al, -108(%rbp)
	setb	%al
	testb	$1, %al
	jne	LBB112_47
	jmp	LBB112_46
LBB112_45:
	.loc	14 349 33
	leaq	_str.0(%rip), %rdi
	leaq	l___unnamed_12(%rip), %rdx
	movl	$28, %esi
	callq	__ZN4core9panicking5panic17hc1bc45270cf64b03E
LBB112_46:
	.loc	14 0 33 is_stmt 0
	movb	-108(%rbp), %al
	.loc	14 350 33 is_stmt 1
	movb	%al, -65(%rbp)
	.loc	14 347 29
	jmp	LBB112_18
LBB112_47:
	.loc	14 350 33
	leaq	_str.0(%rip), %rdi
	leaq	l___unnamed_12(%rip), %rdx
	movl	$28, %esi
	callq	__ZN4core9panicking5panic17hc1bc45270cf64b03E
Ltmp902:
LBB112_48:
	.loc	14 359 24
	cmpb	$-1, -82(%rbp)
	jbe	LBB112_51
	jmp	LBB112_50
LBB112_49:
	.loc	14 357 32
	cmpb	$0, -82(%rbp)
	seta	%al
	andb	$1, %al
	movb	%al, -81(%rbp)
	.loc	2 1 1
	jmp	LBB112_5
LBB112_50:
	.loc	14 376 32
	leaq	-82(%rbp), %rax
	movq	%rax, -32(%rbp)
Ltmp903:
	.loc	14 377 30
	movzbl	-82(%rbp), %edi
	callq	__ZN48_$LT$u8$u20$as$u20$num_integer..roots..Roots$GT$4cbrt2go5guess17h973cf59e7f7cd76cE
	.loc	14 377 40 is_stmt 0
	movq	-32(%rbp), %rsi
	.loc	14 377 21
	movzbl	%al, %edi
	callq	__ZN11num_integer5roots8fixpoint17h12b17d17cd0c031eE
	movb	%al, -81(%rbp)
	jmp	LBB112_5
Ltmp904:
LBB112_51:
	.loc	14 360 32 is_stmt 1
	movzbl	-82(%rbp), %eax
	movl	%eax, -36(%rbp)
	leaq	-36(%rbp), %rdi
	callq	__ZN49_$LT$u32$u20$as$u20$num_integer..roots..Roots$GT$4cbrt17h78ec85fa2d62855aE
	movb	%al, -81(%rbp)
	.loc	2 1 1
	jmp	LBB112_5
Ltmp905:
Lfunc_end112:
	.cfi_endproc

	.section	__TEXT,__literal8,8byte_literals
	.p2align	3
LCPI113_0:
	.quad	0x406fe00000000000
	.section	__TEXT,__text,regular,pure_instructions
	.p2align	4, 0x90
__ZN48_$LT$u8$u20$as$u20$num_integer..roots..Roots$GT$4cbrt2go5guess17h973cf59e7f7cd76cE:
Lfunc_begin113:
	.loc	14 365 0
	.cfi_startproc
	pushq	%rbp
	.cfi_def_cfa_offset 16
	.cfi_offset %rbp, -16
	movq	%rsp, %rbp
	.cfi_def_cfa_register %rbp
	subq	$16, %rsp
	movb	%dil, %al
	movb	%al, -1(%rbp)
Ltmp906:
	.loc	14 366 25 prologue_end
	movzbl	%al, %eax
	cvtsi2sd	%eax, %xmm0
	callq	__ZN3std3f6421_$LT$impl$u20$f64$GT$4cbrt17h97010bd0b2b8398bE
	xorps	%xmm1, %xmm1
	maxsd	%xmm0, %xmm1
	movsd	LCPI113_0(%rip), %xmm0
	minsd	%xmm1, %xmm0
	cvttsd2si	%xmm0, %eax
	.loc	14 367 22
	addq	$16, %rsp
	popq	%rbp
	retq
Ltmp907:
Lfunc_end113:
	.cfi_endproc

	.p2align	4, 0x90
__ZN48_$LT$u8$u20$as$u20$num_integer..roots..Roots$GT$4cbrt2go28_$u7b$$u7b$closure$u7d$$u7d$17hc5ead67199e975dfE:
Lfunc_begin114:
	.loc	14 376 0
	.cfi_startproc
	pushq	%rbp
	.cfi_def_cfa_offset 16
	.cfi_offset %rbp, -16
	movq	%rsp, %rbp
	.cfi_def_cfa_register %rbp
	subq	$32, %rsp
	movb	%sil, %cl
	movb	%cl, -19(%rbp)
	movq	%rdi, -16(%rbp)
	movb	%cl, -1(%rbp)
Ltmp908:
	.loc	14 376 41 prologue_end
	movq	(%rdi), %rax
	movb	(%rax), %al
	movb	%al, -18(%rbp)
	.loc	14 376 45 is_stmt 0
	movb	%cl, %al
	mulb	%cl
	movb	%al, -17(%rbp)
	seto	%al
	testb	$1, %al
	jne	LBB114_2
	.loc	14 0 45
	movb	-17(%rbp), %al
	.loc	14 376 41
	cmpb	$0, %al
	sete	%al
	testb	$1, %al
	jne	LBB114_4
	jmp	LBB114_3
LBB114_2:
	.loc	14 376 45
	leaq	_str.1(%rip), %rdi
	leaq	l___unnamed_12(%rip), %rdx
	movl	$33, %esi
	callq	__ZN4core9panicking5panic17hc1bc45270cf64b03E
LBB114_3:
	.loc	14 0 45
	movb	-17(%rbp), %cl
	movb	-18(%rbp), %al
	.loc	14 376 41
	movzbw	%al, %ax
	divb	%cl
	movb	%al, %cl
	movb	-19(%rbp), %al
	movb	%cl, -21(%rbp)
	.loc	14 376 55
	movb	$2, %cl
	mulb	%cl
	movb	%al, -20(%rbp)
	seto	%al
	testb	$1, %al
	jne	LBB114_6
	jmp	LBB114_5
LBB114_4:
	.loc	14 376 41
	leaq	_str.5(%rip), %rdi
	leaq	l___unnamed_12(%rip), %rdx
	movl	$25, %esi
	callq	__ZN4core9panicking5panic17hc1bc45270cf64b03E
LBB114_5:
	.loc	14 0 41
	movb	-20(%rbp), %cl
	movb	-21(%rbp), %al
	.loc	14 376 40
	addb	%cl, %al
	movb	%al, -22(%rbp)
	setb	%al
	testb	$1, %al
	jne	LBB114_8
	jmp	LBB114_7
LBB114_6:
	.loc	14 376 55
	leaq	_str.1(%rip), %rdi
	leaq	l___unnamed_12(%rip), %rdx
	movl	$33, %esi
	callq	__ZN4core9panicking5panic17hc1bc45270cf64b03E
LBB114_7:
	.loc	14 0 55
	movb	-22(%rbp), %al
	.loc	14 376 40
	movb	$3, %cl
	movzbw	%al, %ax
	divb	%cl
	.loc	14 376 65
	addq	$32, %rsp
	popq	%rbp
	retq
LBB114_8:
	.loc	14 376 40
	leaq	_str.0(%rip), %rdi
	leaq	l___unnamed_12(%rip), %rdx
	movl	$28, %esi
	callq	__ZN4core9panicking5panic17hc1bc45270cf64b03E
Ltmp909:
Lfunc_end114:
	.cfi_endproc

	.p2align	4, 0x90
__ZN49_$LT$u16$u20$as$u20$num_integer..roots..Roots$GT$8nth_root17h9214b6170cf0a768E:
Lfunc_begin115:
	.loc	14 206 0 is_stmt 1
	.cfi_startproc
	pushq	%rbp
	.cfi_def_cfa_offset 16
	.cfi_offset %rbp, -16
	movq	%rsp, %rbp
	.cfi_def_cfa_register %rbp
	subq	$16, %rsp
	movq	%rdi, -16(%rbp)
	movl	%esi, -4(%rbp)
Ltmp910:
	.loc	14 274 17 prologue_end
	movzwl	(%rdi), %edi
	callq	__ZN49_$LT$u16$u20$as$u20$num_integer..roots..Roots$GT$8nth_root2go17h7efeb9bbeede6b92E
	.loc	14 275 14
	addq	$16, %rsp
	popq	%rbp
	retq
Ltmp911:
Lfunc_end115:
	.cfi_endproc

	.globl	__ZN49_$LT$u16$u20$as$u20$num_integer..roots..Roots$GT$8nth_root2go17h7efeb9bbeede6b92E
	.p2align	4, 0x90
__ZN49_$LT$u16$u20$as$u20$num_integer..roots..Roots$GT$8nth_root2go17h7efeb9bbeede6b92E:
Lfunc_begin116:
	.loc	14 207 0
	.cfi_startproc
	pushq	%rbp
	.cfi_def_cfa_offset 16
	.cfi_offset %rbp, -16
	movq	%rsp, %rbp
	.cfi_def_cfa_register %rbp
	subq	$144, %rsp
	movw	%di, %ax
	movw	%ax, -106(%rbp)
	movl	%esi, -104(%rbp)
Ltmp912:
	.loc	14 209 21 prologue_end
	movl	-104(%rbp), %eax
	movq	%rax, -120(%rbp)
	subq	$3, %rax
	ja	LBB116_1
	.loc	14 0 21 is_stmt 0
	movq	-120(%rbp), %rax
	leaq	LJTI116_0(%rip), %rcx
	movslq	(%rcx,%rax,4), %rax
	addq	%rcx, %rax
	jmpq	*%rax
LBB116_1:
	.loc	14 218 24 is_stmt 1
	callq	__ZN11num_integer5roots4bits17h1ded38e1629f79e0E
	cmpl	-104(%rbp), %eax
	jbe	LBB116_7
	jmp	LBB116_6
LBB116_2:
	.loc	14 210 30
	leaq	l___unnamed_11(%rip), %rdi
	leaq	l___unnamed_13(%rip), %rdx
	movl	$30, %esi
	callq	__ZN4core9panicking5panic17hc1bc45270cf64b03E
LBB116_3:
	.loc	14 211 37
	movw	-106(%rbp), %ax
	movw	%ax, -100(%rbp)
	.loc	14 211 30 is_stmt 0
	jmp	LBB116_13
LBB116_4:
	.loc	14 212 37 is_stmt 1
	leaq	-106(%rbp), %rdi
	callq	__ZN49_$LT$u16$u20$as$u20$num_integer..roots..Roots$GT$4sqrt17hf0843f897d1ea79cE
	movw	%ax, -100(%rbp)
	jmp	LBB116_13
LBB116_5:
	.loc	14 213 37
	leaq	-106(%rbp), %rdi
	callq	__ZN49_$LT$u16$u20$as$u20$num_integer..roots..Roots$GT$4cbrt17h3d23e729e6c8cf8dE
	movw	%ax, -100(%rbp)
	jmp	LBB116_13
LBB116_6:
	.loc	14 218 45
	movw	-106(%rbp), %ax
	movw	%ax, -124(%rbp)
	.loc	14 218 55 is_stmt 0
	movl	-104(%rbp), %ecx
	.loc	14 218 49
	movl	%ecx, %eax
	andl	$-16, %eax
	cmpl	$0, %eax
	setne	%al
	andw	$15, %cx
	movw	$1, %dx
	shlw	%cl, %dx
	movw	%dx, -122(%rbp)
	testb	$1, %al
	jne	LBB116_10
	jmp	LBB116_9
LBB116_7:
	.loc	14 218 24
	movb	$1, -97(%rbp)
LBB116_8:
	testb	$1, -97(%rbp)
	jne	LBB116_12
	jmp	LBB116_11
LBB116_9:
	.loc	14 0 24
	movw	-124(%rbp), %ax
	movw	-122(%rbp), %cx
	.loc	14 218 45
	cmpw	%cx, %ax
	setb	%al
	.loc	14 218 24
	andb	$1, %al
	movb	%al, -97(%rbp)
	jmp	LBB116_8
LBB116_10:
	.loc	14 218 49
	leaq	_str.3(%rip), %rdi
	leaq	l___unnamed_13(%rip), %rdx
	movl	$35, %esi
	callq	__ZN4core9panicking5panic17hc1bc45270cf64b03E
LBB116_11:
	.loc	14 222 24 is_stmt 1
	callq	__ZN11num_integer5roots4bits17h1ded38e1629f79e0E
	cmpl	$64, %eax
	ja	LBB116_15
	jmp	LBB116_14
LBB116_12:
	.loc	14 219 32
	cmpw	$0, -106(%rbp)
	seta	%al
	andb	$1, %al
	movzbl	%al, %eax
	movw	%ax, -100(%rbp)
LBB116_13:
	.loc	14 273 18
	movw	-100(%rbp), %ax
	addq	$144, %rsp
	popq	%rbp
	retq
LBB116_14:
	.loc	14 264 30
	movl	-104(%rbp), %eax
	movl	%eax, %ecx
	subl	$1, %ecx
	movl	%ecx, -128(%rbp)
	cmpl	$1, %eax
	setb	%al
	testb	$1, %al
	jne	LBB116_32
	jmp	LBB116_31
LBB116_15:
	.loc	14 224 35
	cmpw	$-1, -106(%rbp)
	jbe	LBB116_17
	.loc	14 227 39
	movw	-106(%rbp), %dx
	.loc	14 227 44 is_stmt 0
	movl	-104(%rbp), %ecx
	.loc	14 227 38
	movl	%ecx, %eax
	andl	$-16, %eax
	cmpl	$0, %eax
	setne	%al
	andw	$15, %cx
	shrw	%cl, %dx
	movw	%dx, -130(%rbp)
	testb	$1, %al
	jne	LBB116_19
	jmp	LBB116_18
LBB116_17:
	.loc	14 225 29 is_stmt 1
	movzwl	-106(%rbp), %eax
	movq	%rax, -96(%rbp)
	.loc	14 225 49 is_stmt 0
	movl	-104(%rbp), %esi
	.loc	14 225 29
	leaq	-96(%rbp), %rdi
	callq	__ZN49_$LT$u64$u20$as$u20$num_integer..roots..Roots$GT$8nth_root17h949ee7009794be4aE
	movw	%ax, -100(%rbp)
	.loc	14 224 32 is_stmt 1
	jmp	LBB116_13
LBB116_18:
	.loc	14 0 32 is_stmt 0
	movw	-130(%rbp), %ax
	.loc	14 227 38 is_stmt 1
	movw	%ax, -82(%rbp)
	.loc	14 227 56 is_stmt 0
	movl	-104(%rbp), %esi
	.loc	14 227 38
	leaq	-82(%rbp), %rdi
	callq	__ZN49_$LT$u16$u20$as$u20$num_integer..roots..Roots$GT$8nth_root17h9214b6170cf0a768E
	shlw	$1, %ax
	movw	%ax, -134(%rbp)
	movw	%ax, -20(%rbp)
Ltmp913:
	.loc	14 228 38 is_stmt 1
	addw	$1, %ax
	movw	%ax, -132(%rbp)
	setb	%al
	testb	$1, %al
	jne	LBB116_21
	jmp	LBB116_20
Ltmp914:
LBB116_19:
	.loc	14 227 38
	leaq	_str.4(%rip), %rdi
	leaq	l___unnamed_13(%rip), %rdx
	movl	$36, %esi
	callq	__ZN4core9panicking5panic17hc1bc45270cf64b03E
LBB116_20:
	.loc	14 0 38 is_stmt 0
	movw	-132(%rbp), %ax
Ltmp915:
	.loc	14 228 38 is_stmt 1
	movw	%ax, -18(%rbp)
Ltmp916:
	.loc	14 231 32
	movzwl	%ax, %edi
	callq	__ZN4core3num21_$LT$impl$u20$u16$GT$17next_power_of_two17hc3db77f0f7f0b3d3E
	movw	%ax, -4(%rbp)
Ltmp917:
	.loc	6 152 13
	bsfw	%ax, %ax
	movw	$16, %cx
	cmovew	%cx, %ax
	movw	%ax, -2(%rbp)
	movzwl	-2(%rbp), %eax
Ltmp918:
	.loc	14 231 32
	mull	-104(%rbp)
	movl	%eax, -140(%rbp)
	seto	%al
	testb	$1, %al
	jne	LBB116_23
	jmp	LBB116_22
Ltmp919:
LBB116_21:
	.loc	14 228 38
	leaq	_str.0(%rip), %rdi
	leaq	l___unnamed_13(%rip), %rdx
	movl	$28, %esi
	callq	__ZN4core9panicking5panic17hc1bc45270cf64b03E
LBB116_22:
Ltmp920:
	.loc	14 231 79
	callq	__ZN11num_integer5roots4bits17h1ded38e1629f79e0E
	movl	%eax, %ecx
	movl	-140(%rbp), %eax
	.loc	14 231 32 is_stmt 0
	cmpl	%ecx, %eax
	jae	LBB116_25
	jmp	LBB116_24
LBB116_23:
	leaq	_str.1(%rip), %rdi
	leaq	l___unnamed_13(%rip), %rdx
	movl	$33, %esi
	callq	__ZN4core9panicking5panic17hc1bc45270cf64b03E
LBB116_24:
	.loc	14 0 32
	movw	-132(%rbp), %ax
	.loc	14 237 43 is_stmt 1
	movl	-104(%rbp), %esi
	.loc	14 237 36 is_stmt 0
	movzwl	%ax, %edi
	callq	__ZN4core3num21_$LT$impl$u20$u16$GT$3pow17h289633b47e552426E
	cmpw	-106(%rbp), %ax
	jbe	LBB116_30
	jmp	LBB116_29
LBB116_25:
	.loc	14 0 36
	movw	-132(%rbp), %ax
	.loc	14 232 55 is_stmt 1
	movl	-104(%rbp), %ecx
	movl	%ecx, %esi
	.loc	14 232 39 is_stmt 0
	movw	%ax, %di
	callq	__ZN10num_traits3pow11checked_pow17he57603677d306a0eE
	movw	%dx, -78(%rbp)
	movw	%ax, -80(%rbp)
	movzwl	-80(%rbp), %eax
	.loc	14 232 33
	cmpq	$1, %rax
	jne	LBB116_27
	.loc	14 233 42 is_stmt 1
	leaq	-80(%rbp), %rax
	addq	$2, %rax
	movq	%rax, -16(%rbp)
	.loc	14 233 48 is_stmt 0
	movw	-78(%rbp), %ax
	cmpw	-106(%rbp), %ax
	jbe	LBB116_28
LBB116_27:
	.loc	14 0 48
	movw	-134(%rbp), %ax
	.loc	14 234 42 is_stmt 1
	movw	%ax, -100(%rbp)
	jmp	LBB116_13
LBB116_28:
	.loc	14 0 42 is_stmt 0
	movw	-132(%rbp), %ax
	.loc	14 233 42 is_stmt 1
	movw	-78(%rbp), %cx
	movw	%cx, -6(%rbp)
Ltmp921:
	.loc	14 233 58 is_stmt 0
	movw	%ax, -100(%rbp)
Ltmp922:
	.loc	14 233 59
	jmp	LBB116_13
LBB116_29:
	.loc	14 0 59
	movw	-134(%rbp), %ax
	.loc	14 240 37 is_stmt 1
	movw	%ax, -100(%rbp)
	.loc	14 237 33
	jmp	LBB116_13
LBB116_30:
	.loc	14 0 33 is_stmt 0
	movw	-132(%rbp), %ax
	.loc	14 238 37 is_stmt 1
	movw	%ax, -100(%rbp)
	.loc	14 237 33
	jmp	LBB116_13
Ltmp923:
LBB116_31:
	.loc	14 0 33 is_stmt 0
	movl	-128(%rbp), %eax
	.loc	14 264 30 is_stmt 1
	movl	%eax, -76(%rbp)
Ltmp924:
	.loc	14 265 32
	leaq	-76(%rbp), %rax
	movq	%rax, -72(%rbp)
	leaq	-106(%rbp), %rax
	movq	%rax, -64(%rbp)
	leaq	-104(%rbp), %rax
	movq	%rax, -56(%rbp)
Ltmp925:
	.loc	14 272 36
	movw	-106(%rbp), %ax
	.loc	14 272 39 is_stmt 0
	movl	-104(%rbp), %esi
	.loc	14 272 30
	movzwl	%ax, %edi
	callq	__ZN49_$LT$u16$u20$as$u20$num_integer..roots..Roots$GT$8nth_root2go5guess17h14c5ff02b4816ad7E
	.loc	14 272 43
	movq	-72(%rbp), %rcx
	movq	%rcx, -48(%rbp)
	movq	-64(%rbp), %rcx
	movq	%rcx, -40(%rbp)
	movq	-56(%rbp), %rcx
	movq	%rcx, -32(%rbp)
	.loc	14 272 21
	leaq	-48(%rbp), %rsi
	movzwl	%ax, %edi
	callq	__ZN11num_integer5roots8fixpoint17ha32f5eea149ab15fE
	movw	%ax, -100(%rbp)
	jmp	LBB116_13
Ltmp926:
LBB116_32:
	.loc	14 264 30 is_stmt 1
	leaq	_str.2(%rip), %rdi
	leaq	l___unnamed_13(%rip), %rdx
	movl	$33, %esi
	callq	__ZN4core9panicking5panic17hc1bc45270cf64b03E
Ltmp927:
Lfunc_end116:
	.cfi_endproc
	.p2align	2, 0x90
	.data_region jt32
.set L116_0_set_2, LBB116_2-LJTI116_0
.set L116_0_set_3, LBB116_3-LJTI116_0
.set L116_0_set_4, LBB116_4-LJTI116_0
.set L116_0_set_5, LBB116_5-LJTI116_0
LJTI116_0:
	.long	L116_0_set_2
	.long	L116_0_set_3
	.long	L116_0_set_4
	.long	L116_0_set_5
	.end_data_region

	.section	__TEXT,__literal8,8byte_literals
	.p2align	3
LCPI117_0:
	.quad	0x40efffe000000000
	.section	__TEXT,__text,regular,pure_instructions
	.p2align	4, 0x90
__ZN49_$LT$u16$u20$as$u20$num_integer..roots..Roots$GT$8nth_root2go5guess17h14c5ff02b4816ad7E:
Lfunc_begin117:
	.loc	14 248 0
	.cfi_startproc
	pushq	%rbp
	.cfi_def_cfa_offset 16
	.cfi_offset %rbp, -16
	movq	%rsp, %rbp
	.cfi_def_cfa_register %rbp
	subq	$32, %rsp
	movl	%esi, -20(%rbp)
	movw	%di, %ax
	movw	%ax, -16(%rbp)
	movw	%ax, -10(%rbp)
	movl	%esi, -8(%rbp)
Ltmp928:
	.loc	14 250 28 prologue_end
	callq	__ZN11num_integer5roots4bits17h1ded38e1629f79e0E
	cmpl	$32, %eax
	jbe	LBB117_2
	.loc	14 0 28 is_stmt 0
	movw	-16(%rbp), %ax
	.loc	14 250 50
	cmpw	$-1, %ax
	setbe	%al
	.loc	14 250 28
	andb	$1, %al
	movb	%al, -11(%rbp)
	jmp	LBB117_3
LBB117_2:
	movb	$1, -11(%rbp)
LBB117_3:
	testb	$1, -11(%rbp)
	jne	LBB117_5
	.loc	14 0 28
	movw	-16(%rbp), %ax
	.loc	14 253 30 is_stmt 1
	movzwl	%ax, %eax
	cvtsi2sd	%eax, %xmm0
	callq	__ZN3std3f6421_$LT$impl$u20$f64$GT$2ln17hc783eb7542d15b5cE
	movl	-20(%rbp), %eax
	movl	%eax, -4(%rbp)
Ltmp929:
	.loc	15 54 17
	movl	%eax, %eax
	cvtsi2sd	%rax, %xmm1
Ltmp930:
	.loc	14 253 29
	divsd	%xmm1, %xmm0
	callq	__ZN3std3f6421_$LT$impl$u20$f64$GT$3exp17h44cafcbe2a22d0acE
	xorps	%xmm1, %xmm1
	maxsd	%xmm0, %xmm1
	movsd	LCPI117_0(%rip), %xmm0
	minsd	%xmm1, %xmm0
	cvttsd2si	%xmm0, %eax
	movw	%ax, -14(%rbp)
	.loc	14 250 25
	jmp	LBB117_14
LBB117_5:
	.loc	14 0 25 is_stmt 0
	movw	-16(%rbp), %ax
	.loc	14 251 36 is_stmt 1
	movzwl	%ax, %edi
	callq	__ZN11num_integer5roots4log217h1735f90f80edd94eE
	movl	-20(%rbp), %ecx
	addl	%ecx, %eax
	movl	%eax, -24(%rbp)
	setb	%al
	testb	$1, %al
	jne	LBB117_7
	.loc	14 0 36 is_stmt 0
	movl	-24(%rbp), %eax
	.loc	14 251 35
	movl	%eax, %ecx
	subl	$1, %ecx
	movl	%ecx, -28(%rbp)
	cmpl	$1, %eax
	setb	%al
	testb	$1, %al
	jne	LBB117_9
	jmp	LBB117_8
LBB117_7:
	.loc	14 251 36
	leaq	_str.0(%rip), %rdi
	leaq	l___unnamed_13(%rip), %rdx
	movl	$28, %esi
	callq	__ZN4core9panicking5panic17hc1bc45270cf64b03E
LBB117_8:
	.loc	14 0 36
	movl	-20(%rbp), %eax
	.loc	14 251 34
	cmpl	$0, %eax
	sete	%al
	testb	$1, %al
	jne	LBB117_11
	jmp	LBB117_10
LBB117_9:
	.loc	14 251 35
	leaq	_str.2(%rip), %rdi
	leaq	l___unnamed_13(%rip), %rdx
	movl	$33, %esi
	callq	__ZN4core9panicking5panic17hc1bc45270cf64b03E
LBB117_10:
	.loc	14 0 35
	movl	-20(%rbp), %ecx
	movl	-28(%rbp), %eax
	.loc	14 251 34
	xorl	%edx, %edx
	divl	%ecx
	movl	%eax, %ecx
	.loc	14 251 29
	movl	%ecx, %eax
	andl	$-16, %eax
	cmpl	$0, %eax
	setne	%al
	andw	$15, %cx
	movw	$1, %dx
	shlw	%cl, %dx
	movw	%dx, -30(%rbp)
	testb	$1, %al
	jne	LBB117_13
	jmp	LBB117_12
LBB117_11:
	.loc	14 251 34
	leaq	_str.5(%rip), %rdi
	leaq	l___unnamed_13(%rip), %rdx
	movl	$25, %esi
	callq	__ZN4core9panicking5panic17hc1bc45270cf64b03E
LBB117_12:
	.loc	14 0 34
	movw	-30(%rbp), %ax
	.loc	14 251 29
	movw	%ax, -14(%rbp)
	.loc	14 250 25 is_stmt 1
	jmp	LBB117_14
LBB117_13:
	.loc	14 251 29
	leaq	_str.3(%rip), %rdi
	leaq	l___unnamed_13(%rip), %rdx
	movl	$35, %esi
	callq	__ZN4core9panicking5panic17hc1bc45270cf64b03E
LBB117_14:
	.loc	14 255 22
	movw	-14(%rbp), %ax
	addq	$32, %rsp
	popq	%rbp
	retq
Ltmp931:
Lfunc_end117:
	.cfi_endproc

	.p2align	4, 0x90
__ZN49_$LT$u16$u20$as$u20$num_integer..roots..Roots$GT$8nth_root2go28_$u7b$$u7b$closure$u7d$$u7d$17h27b2a460f79e6abaE:
Lfunc_begin118:
	.loc	14 265 0
	.cfi_startproc
	pushq	%rbp
	.cfi_def_cfa_offset 16
	.cfi_offset %rbp, -16
	movq	%rsp, %rbp
	.cfi_def_cfa_register %rbp
	subq	$64, %rsp
	movq	%rdi, -40(%rbp)
	movw	%si, %ax
	movw	%ax, -28(%rbp)
	movq	%rdi, -16(%rbp)
	movw	%ax, -4(%rbp)
Ltmp932:
	.loc	14 266 54 prologue_end
	movq	(%rdi), %rcx
	movl	(%rcx), %ecx
	movl	%ecx, %esi
	.loc	14 266 39 is_stmt 0
	movw	%ax, %di
	callq	__ZN10num_traits3pow11checked_pow17he57603677d306a0eE
	movw	%dx, -22(%rbp)
	movw	%ax, -24(%rbp)
	movzwl	-24(%rbp), %eax
	.loc	14 266 33
	cmpq	$0, %rax
	jne	LBB118_2
	.loc	14 268 37 is_stmt 1
	movw	$0, -26(%rbp)
	jmp	LBB118_5
LBB118_2:
	.loc	14 0 37 is_stmt 0
	movq	-40(%rbp), %rcx
	.loc	14 267 34 is_stmt 1
	movw	-22(%rbp), %ax
	movw	%ax, -44(%rbp)
	movw	%ax, -2(%rbp)
Ltmp933:
	.loc	14 267 41 is_stmt 0
	movq	8(%rcx), %rcx
	movw	(%rcx), %cx
	movw	%cx, -42(%rbp)
	cmpw	$0, %ax
	sete	%al
	testb	$1, %al
	jne	LBB118_4
	.loc	14 0 41
	movw	-44(%rbp), %cx
	movw	-42(%rbp), %ax
	.loc	14 267 41
	xorl	%edx, %edx
	divw	%cx
	movw	%ax, -26(%rbp)
Ltmp934:
	.loc	14 267 46
	jmp	LBB118_5
LBB118_4:
Ltmp935:
	.loc	14 267 41
	leaq	_str.5(%rip), %rdi
	leaq	l___unnamed_13(%rip), %rdx
	movl	$25, %esi
	callq	__ZN4core9panicking5panic17hc1bc45270cf64b03E
Ltmp936:
LBB118_5:
	.loc	14 0 41
	movw	-28(%rbp), %ax
	movq	-40(%rbp), %rcx
Ltmp937:
	.loc	14 270 26 is_stmt 1
	movw	-26(%rbp), %dx
	movw	%dx, -48(%rbp)
	.loc	14 270 34 is_stmt 0
	movq	(%rcx), %rcx
	movl	(%rcx), %ecx
	.loc	14 270 30
	mulw	%cx
	movw	%ax, -46(%rbp)
	seto	%al
	testb	$1, %al
	jne	LBB118_7
	.loc	14 0 30
	movw	-46(%rbp), %cx
	movw	-48(%rbp), %ax
	.loc	14 270 25
	addw	%cx, %ax
	movw	%ax, -50(%rbp)
	setb	%al
	testb	$1, %al
	jne	LBB118_9
	jmp	LBB118_8
LBB118_7:
	.loc	14 270 30
	leaq	_str.1(%rip), %rdi
	leaq	l___unnamed_13(%rip), %rdx
	movl	$33, %esi
	callq	__ZN4core9panicking5panic17hc1bc45270cf64b03E
LBB118_8:
	.loc	14 0 30
	movq	-40(%rbp), %rax
	.loc	14 270 46
	movq	16(%rax), %rax
	movl	(%rax), %eax
	movw	%ax, -52(%rbp)
	.loc	14 270 25
	cmpw	$0, %ax
	sete	%al
	testb	$1, %al
	jne	LBB118_11
	jmp	LBB118_10
LBB118_9:
	leaq	_str.0(%rip), %rdi
	leaq	l___unnamed_13(%rip), %rdx
	movl	$28, %esi
	callq	__ZN4core9panicking5panic17hc1bc45270cf64b03E
LBB118_10:
	.loc	14 0 25
	movw	-52(%rbp), %cx
	movw	-50(%rbp), %ax
	.loc	14 270 25
	xorl	%edx, %edx
	divw	%cx
Ltmp938:
	.loc	14 271 22 is_stmt 1
	addq	$64, %rsp
	popq	%rbp
	retq
LBB118_11:
Ltmp939:
	.loc	14 270 25
	leaq	_str.5(%rip), %rdi
	leaq	l___unnamed_13(%rip), %rdx
	movl	$25, %esi
	callq	__ZN4core9panicking5panic17hc1bc45270cf64b03E
Ltmp940:
Lfunc_end118:
	.cfi_endproc

	.p2align	4, 0x90
__ZN49_$LT$u16$u20$as$u20$num_integer..roots..Roots$GT$4sqrt17hf0843f897d1ea79cE:
Lfunc_begin119:
	.loc	14 278 0
	.cfi_startproc
	pushq	%rbp
	.cfi_def_cfa_offset 16
	.cfi_offset %rbp, -16
	movq	%rsp, %rbp
	.cfi_def_cfa_register %rbp
	subq	$16, %rsp
	movq	%rdi, -8(%rbp)
Ltmp941:
	.loc	14 315 17 prologue_end
	movzwl	(%rdi), %edi
	callq	__ZN49_$LT$u16$u20$as$u20$num_integer..roots..Roots$GT$4sqrt2go17hb172df6b511d53b0E
	.loc	14 316 14
	addq	$16, %rsp
	popq	%rbp
	retq
Ltmp942:
Lfunc_end119:
	.cfi_endproc

	.globl	__ZN49_$LT$u16$u20$as$u20$num_integer..roots..Roots$GT$4sqrt2go17hb172df6b511d53b0E
	.p2align	4, 0x90
__ZN49_$LT$u16$u20$as$u20$num_integer..roots..Roots$GT$4sqrt2go17hb172df6b511d53b0E:
Lfunc_begin120:
	.loc	14 279 0
	.cfi_startproc
	pushq	%rbp
	.cfi_def_cfa_offset 16
	.cfi_offset %rbp, -16
	movq	%rsp, %rbp
	.cfi_def_cfa_register %rbp
	subq	$48, %rsp
	movw	%di, %ax
	movw	%ax, -36(%rbp)
Ltmp943:
	.loc	14 280 24 prologue_end
	callq	__ZN11num_integer5roots4bits17h1ded38e1629f79e0E
	cmpl	$64, %eax
	ja	LBB120_2
	.loc	14 295 24
	cmpw	$4, -36(%rbp)
	jb	LBB120_13
	jmp	LBB120_12
LBB120_2:
	.loc	14 282 35
	cmpw	$-1, -36(%rbp)
	jbe	LBB120_4
	.loc	14 285 39
	movw	-36(%rbp), %ax
	.loc	14 285 38 is_stmt 0
	shrw	$2, %ax
	movw	%ax, -18(%rbp)
	leaq	-18(%rbp), %rdi
	callq	__ZN49_$LT$u16$u20$as$u20$num_integer..roots..Roots$GT$4sqrt17hf0843f897d1ea79cE
	shlw	$1, %ax
	movw	%ax, -40(%rbp)
	movw	%ax, -4(%rbp)
Ltmp944:
	.loc	14 286 38 is_stmt 1
	addw	$1, %ax
	movw	%ax, -38(%rbp)
	setb	%al
	testb	$1, %al
	jne	LBB120_7
	jmp	LBB120_6
Ltmp945:
LBB120_4:
	.loc	14 283 29
	movzwl	-36(%rbp), %eax
	movq	%rax, -32(%rbp)
	leaq	-32(%rbp), %rdi
	callq	__ZN49_$LT$u64$u20$as$u20$num_integer..roots..Roots$GT$4sqrt17haf01f18efd096d53E
	movw	%ax, -34(%rbp)
LBB120_5:
	.loc	14 314 18
	movw	-34(%rbp), %ax
	addq	$48, %rsp
	popq	%rbp
	retq
LBB120_6:
	.loc	14 0 18 is_stmt 0
	movw	-38(%rbp), %cx
Ltmp946:
	.loc	14 286 38 is_stmt 1
	movw	%cx, -2(%rbp)
Ltmp947:
	.loc	14 287 32
	movw	%cx, %ax
	mulw	%cx
	movw	%ax, -42(%rbp)
	seto	%al
	testb	$1, %al
	jne	LBB120_9
	jmp	LBB120_8
Ltmp948:
LBB120_7:
	.loc	14 286 38
	leaq	_str.0(%rip), %rdi
	leaq	l___unnamed_13(%rip), %rdx
	movl	$28, %esi
	callq	__ZN4core9panicking5panic17hc1bc45270cf64b03E
LBB120_8:
	.loc	14 0 38 is_stmt 0
	movw	-42(%rbp), %ax
Ltmp949:
	.loc	14 287 32 is_stmt 1
	cmpw	-36(%rbp), %ax
	jbe	LBB120_11
	jmp	LBB120_10
LBB120_9:
	leaq	_str.1(%rip), %rdi
	leaq	l___unnamed_13(%rip), %rdx
	movl	$33, %esi
	callq	__ZN4core9panicking5panic17hc1bc45270cf64b03E
LBB120_10:
	.loc	14 0 32 is_stmt 0
	movw	-40(%rbp), %ax
	.loc	14 290 33 is_stmt 1
	movw	%ax, -34(%rbp)
	.loc	14 287 29
	jmp	LBB120_5
LBB120_11:
	.loc	14 0 29 is_stmt 0
	movw	-38(%rbp), %ax
	.loc	14 288 33 is_stmt 1
	movw	%ax, -34(%rbp)
	.loc	14 287 29
	jmp	LBB120_5
Ltmp950:
LBB120_12:
	.loc	14 312 32
	leaq	-36(%rbp), %rax
	movq	%rax, -16(%rbp)
Ltmp951:
	.loc	14 313 30
	movzwl	-36(%rbp), %edi
	callq	__ZN49_$LT$u16$u20$as$u20$num_integer..roots..Roots$GT$4sqrt2go5guess17h14d60e49dc16832cE
	.loc	14 313 40 is_stmt 0
	movq	-16(%rbp), %rsi
	.loc	14 313 21
	movzwl	%ax, %edi
	callq	__ZN11num_integer5roots8fixpoint17h99ef5e85f5f7ca47E
	movw	%ax, -34(%rbp)
	jmp	LBB120_5
Ltmp952:
LBB120_13:
	.loc	14 296 32 is_stmt 1
	cmpw	$0, -36(%rbp)
	seta	%al
	andb	$1, %al
	movzbl	%al, %eax
	movw	%ax, -34(%rbp)
	.loc	2 1 1
	jmp	LBB120_5
Ltmp953:
Lfunc_end120:
	.cfi_endproc

	.section	__TEXT,__literal8,8byte_literals
	.p2align	3
LCPI121_0:
	.quad	0x40efffe000000000
	.section	__TEXT,__text,regular,pure_instructions
	.p2align	4, 0x90
__ZN49_$LT$u16$u20$as$u20$num_integer..roots..Roots$GT$4sqrt2go5guess17h14d60e49dc16832cE:
Lfunc_begin121:
	.loc	14 301 0
	.cfi_startproc
	pushq	%rbp
	.cfi_def_cfa_offset 16
	.cfi_offset %rbp, -16
	movq	%rsp, %rbp
	.cfi_def_cfa_register %rbp
	subq	$16, %rsp
	movw	%di, %ax
	movw	%ax, -2(%rbp)
Ltmp954:
	.loc	14 302 25 prologue_end
	movzwl	%ax, %eax
	cvtsi2sd	%eax, %xmm0
	callq	__ZN3std3f6421_$LT$impl$u20$f64$GT$4sqrt17hca23f3649c6e275aE
	xorps	%xmm1, %xmm1
	maxsd	%xmm0, %xmm1
	movsd	LCPI121_0(%rip), %xmm0
	minsd	%xmm1, %xmm0
	cvttsd2si	%xmm0, %eax
	.loc	14 303 22
	addq	$16, %rsp
	popq	%rbp
	retq
Ltmp955:
Lfunc_end121:
	.cfi_endproc

	.p2align	4, 0x90
__ZN49_$LT$u16$u20$as$u20$num_integer..roots..Roots$GT$4sqrt2go28_$u7b$$u7b$closure$u7d$$u7d$17h70f30f17aea1b792E:
Lfunc_begin122:
	.loc	14 312 0
	.cfi_startproc
	pushq	%rbp
	.cfi_def_cfa_offset 16
	.cfi_offset %rbp, -16
	movq	%rsp, %rbp
	.cfi_def_cfa_register %rbp
	subq	$32, %rsp
	movw	%si, %ax
	movw	%ax, -20(%rbp)
	movq	%rdi, -16(%rbp)
	movw	%ax, -2(%rbp)
Ltmp956:
	.loc	14 312 41 prologue_end
	movq	(%rdi), %rcx
	movw	(%rcx), %cx
	movw	%cx, -18(%rbp)
	cmpw	$0, %ax
	sete	%al
	testb	$1, %al
	jne	LBB122_2
	.loc	14 0 41 is_stmt 0
	movw	-20(%rbp), %cx
	movw	-18(%rbp), %ax
	.loc	14 312 41
	xorl	%edx, %edx
	divw	%cx
	.loc	14 312 40
	addw	%cx, %ax
	movw	%ax, -22(%rbp)
	setb	%al
	testb	$1, %al
	jne	LBB122_4
	jmp	LBB122_3
LBB122_2:
	.loc	14 312 41
	leaq	_str.5(%rip), %rdi
	leaq	l___unnamed_13(%rip), %rdx
	movl	$25, %esi
	callq	__ZN4core9panicking5panic17hc1bc45270cf64b03E
LBB122_3:
	.loc	14 0 41
	movw	-22(%rbp), %ax
	.loc	14 312 40
	shrw	$1, %ax
	.loc	14 312 56
	addq	$32, %rsp
	popq	%rbp
	retq
LBB122_4:
	.loc	14 312 40
	leaq	_str.0(%rip), %rdi
	leaq	l___unnamed_13(%rip), %rdx
	movl	$28, %esi
	callq	__ZN4core9panicking5panic17hc1bc45270cf64b03E
Ltmp957:
Lfunc_end122:
	.cfi_endproc

	.p2align	4, 0x90
__ZN49_$LT$u16$u20$as$u20$num_integer..roots..Roots$GT$4cbrt17h3d23e729e6c8cf8dE:
Lfunc_begin123:
	.loc	14 319 0 is_stmt 1
	.cfi_startproc
	pushq	%rbp
	.cfi_def_cfa_offset 16
	.cfi_offset %rbp, -16
	movq	%rsp, %rbp
	.cfi_def_cfa_register %rbp
	subq	$16, %rsp
	movq	%rdi, -8(%rbp)
Ltmp958:
	.loc	14 379 17 prologue_end
	movzwl	(%rdi), %edi
	callq	__ZN49_$LT$u16$u20$as$u20$num_integer..roots..Roots$GT$4cbrt2go17h6ff9d556488fe1a8E
	.loc	14 380 14
	addq	$16, %rsp
	popq	%rbp
	retq
Ltmp959:
Lfunc_end123:
	.cfi_endproc

	.globl	__ZN49_$LT$u16$u20$as$u20$num_integer..roots..Roots$GT$4cbrt2go17h6ff9d556488fe1a8E
	.p2align	4, 0x90
__ZN49_$LT$u16$u20$as$u20$num_integer..roots..Roots$GT$4cbrt2go17h6ff9d556488fe1a8E:
Lfunc_begin124:
	.loc	14 320 0
	.cfi_startproc
	pushq	%rbp
	.cfi_def_cfa_offset 16
	.cfi_offset %rbp, -16
	movq	%rsp, %rbp
	.cfi_def_cfa_register %rbp
	subq	$128, %rsp
	movw	%di, %ax
	movw	%ax, -84(%rbp)
Ltmp960:
	.loc	14 321 24 prologue_end
	callq	__ZN11num_integer5roots4bits17h1ded38e1629f79e0E
	cmpl	$64, %eax
	ja	LBB124_2
	.loc	14 336 24
	callq	__ZN11num_integer5roots4bits17h1ded38e1629f79e0E
	cmpl	$32, %eax
	jbe	LBB124_15
	jmp	LBB124_14
LBB124_2:
	.loc	14 323 35
	cmpw	$-1, -84(%rbp)
	jbe	LBB124_4
	.loc	14 326 39
	movw	-84(%rbp), %ax
	.loc	14 326 38 is_stmt 0
	shrw	$3, %ax
	movw	%ax, -72(%rbp)
	leaq	-72(%rbp), %rdi
	callq	__ZN49_$LT$u16$u20$as$u20$num_integer..roots..Roots$GT$4cbrt17h3d23e729e6c8cf8dE
	shlw	$1, %ax
	movw	%ax, -88(%rbp)
	movw	%ax, -20(%rbp)
Ltmp961:
	.loc	14 327 38 is_stmt 1
	addw	$1, %ax
	movw	%ax, -86(%rbp)
	setb	%al
	testb	$1, %al
	jne	LBB124_7
	jmp	LBB124_6
Ltmp962:
LBB124_4:
	.loc	14 324 29
	movzwl	-84(%rbp), %eax
	movq	%rax, -80(%rbp)
	leaq	-80(%rbp), %rdi
	callq	__ZN49_$LT$u64$u20$as$u20$num_integer..roots..Roots$GT$4cbrt17h02a48b5c04852cb4E
	movw	%ax, -82(%rbp)
LBB124_5:
	.loc	14 378 18
	movw	-82(%rbp), %ax
	addq	$128, %rsp
	popq	%rbp
	retq
LBB124_6:
	.loc	14 0 18 is_stmt 0
	movw	-86(%rbp), %cx
Ltmp963:
	.loc	14 327 38 is_stmt 1
	movw	%cx, -18(%rbp)
Ltmp964:
	.loc	14 328 32
	movw	%cx, %ax
	mulw	%cx
	movw	%ax, -90(%rbp)
	seto	%al
	testb	$1, %al
	jne	LBB124_9
	jmp	LBB124_8
Ltmp965:
LBB124_7:
	.loc	14 327 38
	leaq	_str.0(%rip), %rdi
	leaq	l___unnamed_13(%rip), %rdx
	movl	$28, %esi
	callq	__ZN4core9panicking5panic17hc1bc45270cf64b03E
LBB124_8:
	.loc	14 0 38 is_stmt 0
	movw	-86(%rbp), %cx
	movw	-90(%rbp), %ax
Ltmp966:
	.loc	14 328 32 is_stmt 1
	mulw	%cx
	movw	%ax, -92(%rbp)
	seto	%al
	testb	$1, %al
	jne	LBB124_11
	jmp	LBB124_10
LBB124_9:
	leaq	_str.1(%rip), %rdi
	leaq	l___unnamed_13(%rip), %rdx
	movl	$33, %esi
	callq	__ZN4core9panicking5panic17hc1bc45270cf64b03E
LBB124_10:
	.loc	14 0 32 is_stmt 0
	movw	-92(%rbp), %ax
	.loc	14 328 32
	cmpw	-84(%rbp), %ax
	jbe	LBB124_13
	jmp	LBB124_12
LBB124_11:
	leaq	_str.1(%rip), %rdi
	leaq	l___unnamed_13(%rip), %rdx
	movl	$33, %esi
	callq	__ZN4core9panicking5panic17hc1bc45270cf64b03E
LBB124_12:
	.loc	14 0 32
	movw	-88(%rbp), %ax
	.loc	14 331 33 is_stmt 1
	movw	%ax, -82(%rbp)
	.loc	14 328 29
	jmp	LBB124_5
LBB124_13:
	.loc	14 0 29 is_stmt 0
	movw	-86(%rbp), %ax
	.loc	14 329 33 is_stmt 1
	movw	%ax, -82(%rbp)
	.loc	14 328 29
	jmp	LBB124_5
Ltmp967:
LBB124_14:
	.loc	14 356 24
	cmpw	$8, -84(%rbp)
	jb	LBB124_49
	jmp	LBB124_48
LBB124_15:
	.loc	14 338 37
	movw	-84(%rbp), %ax
	movw	%ax, -70(%rbp)
Ltmp968:
	.loc	14 339 38
	movw	$0, -68(%rbp)
Ltmp969:
	.loc	14 340 37
	movw	$0, -66(%rbp)
Ltmp970:
	.loc	14 341 36
	callq	__ZN11num_integer5roots4bits17h1ded38e1629f79e0E
	movl	$3, %ecx
	xorl	%edx, %edx
	divl	%ecx
	movl	%eax, -16(%rbp)
Ltmp971:
	.loc	14 342 38
	addl	$1, %eax
	movl	%eax, -96(%rbp)
	setb	%al
	testb	$1, %al
	jne	LBB124_17
	.loc	14 0 38 is_stmt 0
	movl	-96(%rbp), %eax
	.loc	14 342 34
	movl	$0, -64(%rbp)
	movl	%eax, -60(%rbp)
	movl	-64(%rbp), %edi
	movl	-60(%rbp), %esi
	callq	__ZN4core4iter6traits8iterator8Iterator3rev17h11bc1558d551b1b9E
	movl	%eax, %edi
	movl	%edx, %esi
	callq	__ZN63_$LT$I$u20$as$u20$core..iter..traits..collect..IntoIterator$GT$9into_iter17hb9cb3d6540f28b3bE
	movl	%eax, -56(%rbp)
	movl	%edx, -52(%rbp)
Ltmp972:
	.loc	14 342 25
	jmp	LBB124_18
Ltmp973:
LBB124_17:
	.loc	14 342 38
	leaq	_str.0(%rip), %rdi
	leaq	l___unnamed_13(%rip), %rdx
	movl	$28, %esi
	callq	__ZN4core9panicking5panic17hc1bc45270cf64b03E
LBB124_18:
	.loc	14 0 38
	leaq	-56(%rbp), %rdi
Ltmp974:
	.loc	14 342 34
	callq	__ZN98_$LT$core..iter..adapters..rev..Rev$LT$I$GT$$u20$as$u20$core..iter..traits..iterator..Iterator$GT$4next17h2ffde2109c1e4ed7E
	movl	%edx, -44(%rbp)
	movl	%eax, -48(%rbp)
	movl	-48(%rbp), %eax
	cmpq	$0, %rax
	jne	LBB124_20
Ltmp975:
	.loc	14 353 32 is_stmt 1
	movw	-66(%rbp), %ax
	movw	%ax, -82(%rbp)
Ltmp976:
	.loc	2 1 1
	jmp	LBB124_5
LBB124_20:
Ltmp977:
	.loc	14 342 29
	movl	-44(%rbp), %eax
	movl	%eax, -12(%rbp)
Ltmp978:
	.loc	14 343 37
	movl	$3, %ecx
	mull	%ecx
	movl	%eax, -100(%rbp)
	seto	%al
	testb	$1, %al
	jne	LBB124_22
	.loc	14 0 37 is_stmt 0
	movl	-100(%rbp), %eax
	.loc	14 343 37
	movl	%eax, -8(%rbp)
Ltmp979:
	.loc	14 344 29 is_stmt 1
	movw	-68(%rbp), %ax
	movw	$4, %cx
	mulw	%cx
	movw	%ax, -102(%rbp)
	seto	%al
	testb	$1, %al
	jne	LBB124_24
	jmp	LBB124_23
Ltmp980:
LBB124_22:
	.loc	14 343 37
	leaq	_str.1(%rip), %rdi
	leaq	l___unnamed_13(%rip), %rdx
	movl	$33, %esi
	callq	__ZN4core9panicking5panic17hc1bc45270cf64b03E
LBB124_23:
	.loc	14 0 37 is_stmt 0
	movw	-102(%rbp), %ax
Ltmp981:
	.loc	14 344 29 is_stmt 1
	movw	%ax, -68(%rbp)
	.loc	14 345 29
	movw	-66(%rbp), %ax
	movw	$2, %cx
	mulw	%cx
	movw	%ax, -104(%rbp)
	seto	%al
	testb	$1, %al
	jne	LBB124_26
	jmp	LBB124_25
LBB124_24:
	.loc	14 344 29
	leaq	_str.1(%rip), %rdi
	leaq	l___unnamed_13(%rip), %rdx
	movl	$33, %esi
	callq	__ZN4core9panicking5panic17hc1bc45270cf64b03E
LBB124_25:
	.loc	14 0 29 is_stmt 0
	movw	-104(%rbp), %ax
	.loc	14 345 29 is_stmt 1
	movw	%ax, -66(%rbp)
	.loc	14 346 42
	movw	-68(%rbp), %ax
	.loc	14 346 41 is_stmt 0
	addw	-66(%rbp), %ax
	movw	%ax, -106(%rbp)
	setb	%al
	testb	$1, %al
	jne	LBB124_28
	jmp	LBB124_27
LBB124_26:
	.loc	14 345 29 is_stmt 1
	leaq	_str.1(%rip), %rdi
	leaq	l___unnamed_13(%rip), %rdx
	movl	$33, %esi
	callq	__ZN4core9panicking5panic17hc1bc45270cf64b03E
LBB124_27:
	.loc	14 0 29 is_stmt 0
	movw	-106(%rbp), %ax
	.loc	14 346 37 is_stmt 1
	movw	$3, %cx
	mulw	%cx
	movw	%ax, -108(%rbp)
	seto	%al
	testb	$1, %al
	jne	LBB124_30
	jmp	LBB124_29
LBB124_28:
	.loc	14 346 41 is_stmt 0
	leaq	_str.0(%rip), %rdi
	leaq	l___unnamed_13(%rip), %rdx
	movl	$28, %esi
	callq	__ZN4core9panicking5panic17hc1bc45270cf64b03E
LBB124_29:
	.loc	14 0 41
	movw	-108(%rbp), %ax
	.loc	14 346 37
	addw	$1, %ax
	movw	%ax, -110(%rbp)
	setb	%al
	testb	$1, %al
	jne	LBB124_32
	jmp	LBB124_31
LBB124_30:
	leaq	_str.1(%rip), %rdi
	leaq	l___unnamed_13(%rip), %rdx
	movl	$33, %esi
	callq	__ZN4core9panicking5panic17hc1bc45270cf64b03E
LBB124_31:
	.loc	14 0 37
	movl	-100(%rbp), %ecx
	movw	-110(%rbp), %ax
	.loc	14 346 37
	movw	%ax, -2(%rbp)
Ltmp982:
	.loc	14 347 32 is_stmt 1
	movw	-70(%rbp), %dx
	movl	%ecx, %eax
	andl	$-16, %eax
	cmpl	$0, %eax
	setne	%al
	andw	$15, %cx
	shrw	%cl, %dx
	movw	%dx, -112(%rbp)
	testb	$1, %al
	jne	LBB124_34
	jmp	LBB124_33
Ltmp983:
LBB124_32:
	.loc	14 346 37
	leaq	_str.0(%rip), %rdi
	leaq	l___unnamed_13(%rip), %rdx
	movl	$28, %esi
	callq	__ZN4core9panicking5panic17hc1bc45270cf64b03E
LBB124_33:
	.loc	14 0 37 is_stmt 0
	movw	-112(%rbp), %ax
	movw	-110(%rbp), %cx
Ltmp984:
	.loc	14 347 32 is_stmt 1
	cmpw	%cx, %ax
	jae	LBB124_35
	jmp	LBB124_18
LBB124_34:
	leaq	_str.4(%rip), %rdi
	leaq	l___unnamed_13(%rip), %rdx
	movl	$36, %esi
	callq	__ZN4core9panicking5panic17hc1bc45270cf64b03E
LBB124_35:
	.loc	14 0 32 is_stmt 0
	movw	-110(%rbp), %dx
	movl	-100(%rbp), %ecx
	.loc	14 348 38 is_stmt 1
	movl	%ecx, %eax
	andl	$-16, %eax
	cmpl	$0, %eax
	setne	%al
	andw	$15, %cx
	shlw	%cl, %dx
	movw	%dx, -114(%rbp)
	testb	$1, %al
	jne	LBB124_37
	.loc	14 0 38 is_stmt 0
	movw	-114(%rbp), %cx
	.loc	14 348 33
	movw	-70(%rbp), %ax
	movw	%ax, %dx
	subw	%cx, %dx
	movw	%dx, -116(%rbp)
	cmpw	%cx, %ax
	setb	%al
	testb	$1, %al
	jne	LBB124_39
	jmp	LBB124_38
LBB124_37:
	.loc	14 348 38
	leaq	_str.3(%rip), %rdi
	leaq	l___unnamed_13(%rip), %rdx
	movl	$35, %esi
	callq	__ZN4core9panicking5panic17hc1bc45270cf64b03E
LBB124_38:
	.loc	14 0 38
	movw	-116(%rbp), %ax
	.loc	14 348 33
	movw	%ax, -70(%rbp)
	.loc	14 349 43 is_stmt 1
	movw	-66(%rbp), %ax
	.loc	14 349 39 is_stmt 0
	movw	$2, %cx
	mulw	%cx
	movw	%ax, -118(%rbp)
	seto	%al
	testb	$1, %al
	jne	LBB124_41
	jmp	LBB124_40
LBB124_39:
	.loc	14 348 33 is_stmt 1
	leaq	_str.2(%rip), %rdi
	leaq	l___unnamed_13(%rip), %rdx
	movl	$33, %esi
	callq	__ZN4core9panicking5panic17hc1bc45270cf64b03E
LBB124_40:
	.loc	14 0 33 is_stmt 0
	movw	-118(%rbp), %ax
	.loc	14 349 39 is_stmt 1
	addw	$1, %ax
	movw	%ax, -120(%rbp)
	setb	%al
	testb	$1, %al
	jne	LBB124_43
	jmp	LBB124_42
LBB124_41:
	leaq	_str.1(%rip), %rdi
	leaq	l___unnamed_13(%rip), %rdx
	movl	$33, %esi
	callq	__ZN4core9panicking5panic17hc1bc45270cf64b03E
LBB124_42:
	.loc	14 0 39 is_stmt 0
	movw	-120(%rbp), %ax
	.loc	14 349 33
	addw	-68(%rbp), %ax
	movw	%ax, -122(%rbp)
	setb	%al
	testb	$1, %al
	jne	LBB124_45
	jmp	LBB124_44
LBB124_43:
	.loc	14 349 39
	leaq	_str.0(%rip), %rdi
	leaq	l___unnamed_13(%rip), %rdx
	movl	$28, %esi
	callq	__ZN4core9panicking5panic17hc1bc45270cf64b03E
LBB124_44:
	.loc	14 0 39
	movw	-122(%rbp), %ax
	.loc	14 349 33
	movw	%ax, -68(%rbp)
	.loc	14 350 33 is_stmt 1
	movw	-66(%rbp), %ax
	addw	$1, %ax
	movw	%ax, -124(%rbp)
	setb	%al
	testb	$1, %al
	jne	LBB124_47
	jmp	LBB124_46
LBB124_45:
	.loc	14 349 33
	leaq	_str.0(%rip), %rdi
	leaq	l___unnamed_13(%rip), %rdx
	movl	$28, %esi
	callq	__ZN4core9panicking5panic17hc1bc45270cf64b03E
LBB124_46:
	.loc	14 0 33 is_stmt 0
	movw	-124(%rbp), %ax
	.loc	14 350 33 is_stmt 1
	movw	%ax, -66(%rbp)
	.loc	14 347 29
	jmp	LBB124_18
LBB124_47:
	.loc	14 350 33
	leaq	_str.0(%rip), %rdi
	leaq	l___unnamed_13(%rip), %rdx
	movl	$28, %esi
	callq	__ZN4core9panicking5panic17hc1bc45270cf64b03E
Ltmp985:
LBB124_48:
	.loc	14 359 24
	cmpw	$-1, -84(%rbp)
	jbe	LBB124_51
	jmp	LBB124_50
LBB124_49:
	.loc	14 357 32
	cmpw	$0, -84(%rbp)
	seta	%al
	andb	$1, %al
	movzbl	%al, %eax
	movw	%ax, -82(%rbp)
	.loc	2 1 1
	jmp	LBB124_5
LBB124_50:
	.loc	14 376 32
	leaq	-84(%rbp), %rax
	movq	%rax, -32(%rbp)
Ltmp986:
	.loc	14 377 30
	movzwl	-84(%rbp), %edi
	callq	__ZN49_$LT$u16$u20$as$u20$num_integer..roots..Roots$GT$4cbrt2go5guess17hc4864e68488a7e62E
	.loc	14 377 40 is_stmt 0
	movq	-32(%rbp), %rsi
	.loc	14 377 21
	movzwl	%ax, %edi
	callq	__ZN11num_integer5roots8fixpoint17hb81e86dcd7ddfe69E
	movw	%ax, -82(%rbp)
	jmp	LBB124_5
Ltmp987:
LBB124_51:
	.loc	14 360 32 is_stmt 1
	movzwl	-84(%rbp), %eax
	movl	%eax, -36(%rbp)
	leaq	-36(%rbp), %rdi
	callq	__ZN49_$LT$u32$u20$as$u20$num_integer..roots..Roots$GT$4cbrt17h78ec85fa2d62855aE
	movw	%ax, -82(%rbp)
	.loc	2 1 1
	jmp	LBB124_5
Ltmp988:
Lfunc_end124:
	.cfi_endproc

	.section	__TEXT,__literal8,8byte_literals
	.p2align	3
LCPI125_0:
	.quad	0x40efffe000000000
	.section	__TEXT,__text,regular,pure_instructions
	.p2align	4, 0x90
__ZN49_$LT$u16$u20$as$u20$num_integer..roots..Roots$GT$4cbrt2go5guess17hc4864e68488a7e62E:
Lfunc_begin125:
	.loc	14 365 0
	.cfi_startproc
	pushq	%rbp
	.cfi_def_cfa_offset 16
	.cfi_offset %rbp, -16
	movq	%rsp, %rbp
	.cfi_def_cfa_register %rbp
	subq	$16, %rsp
	movw	%di, %ax
	movw	%ax, -2(%rbp)
Ltmp989:
	.loc	14 366 25 prologue_end
	movzwl	%ax, %eax
	cvtsi2sd	%eax, %xmm0
	callq	__ZN3std3f6421_$LT$impl$u20$f64$GT$4cbrt17h97010bd0b2b8398bE
	xorps	%xmm1, %xmm1
	maxsd	%xmm0, %xmm1
	movsd	LCPI125_0(%rip), %xmm0
	minsd	%xmm1, %xmm0
	cvttsd2si	%xmm0, %eax
	.loc	14 367 22
	addq	$16, %rsp
	popq	%rbp
	retq
Ltmp990:
Lfunc_end125:
	.cfi_endproc

	.p2align	4, 0x90
__ZN49_$LT$u16$u20$as$u20$num_integer..roots..Roots$GT$4cbrt2go28_$u7b$$u7b$closure$u7d$$u7d$17hab6d55d30cebee82E:
Lfunc_begin126:
	.loc	14 376 0
	.cfi_startproc
	pushq	%rbp
	.cfi_def_cfa_offset 16
	.cfi_offset %rbp, -16
	movq	%rsp, %rbp
	.cfi_def_cfa_register %rbp
	subq	$32, %rsp
	movw	%si, %cx
	movw	%cx, -22(%rbp)
	movq	%rdi, -16(%rbp)
	movw	%cx, -2(%rbp)
Ltmp991:
	.loc	14 376 41 prologue_end
	movq	(%rdi), %rax
	movw	(%rax), %ax
	movw	%ax, -20(%rbp)
	.loc	14 376 45 is_stmt 0
	movw	%cx, %ax
	mulw	%cx
	movw	%ax, -18(%rbp)
	seto	%al
	testb	$1, %al
	jne	LBB126_2
	.loc	14 0 45
	movw	-18(%rbp), %ax
	.loc	14 376 41
	cmpw	$0, %ax
	sete	%al
	testb	$1, %al
	jne	LBB126_4
	jmp	LBB126_3
LBB126_2:
	.loc	14 376 45
	leaq	_str.1(%rip), %rdi
	leaq	l___unnamed_13(%rip), %rdx
	movl	$33, %esi
	callq	__ZN4core9panicking5panic17hc1bc45270cf64b03E
LBB126_3:
	.loc	14 0 45
	movw	-18(%rbp), %cx
	movw	-20(%rbp), %ax
	.loc	14 376 41
	xorl	%edx, %edx
	divw	%cx
	movw	%ax, %cx
	movw	-22(%rbp), %ax
	movw	%cx, -26(%rbp)
	.loc	14 376 55
	movw	$2, %cx
	mulw	%cx
	movw	%ax, -24(%rbp)
	seto	%al
	testb	$1, %al
	jne	LBB126_6
	jmp	LBB126_5
LBB126_4:
	.loc	14 376 41
	leaq	_str.5(%rip), %rdi
	leaq	l___unnamed_13(%rip), %rdx
	movl	$25, %esi
	callq	__ZN4core9panicking5panic17hc1bc45270cf64b03E
LBB126_5:
	.loc	14 0 41
	movw	-24(%rbp), %cx
	movw	-26(%rbp), %ax
	.loc	14 376 40
	addw	%cx, %ax
	movw	%ax, -28(%rbp)
	setb	%al
	testb	$1, %al
	jne	LBB126_8
	jmp	LBB126_7
LBB126_6:
	.loc	14 376 55
	leaq	_str.1(%rip), %rdi
	leaq	l___unnamed_13(%rip), %rdx
	movl	$33, %esi
	callq	__ZN4core9panicking5panic17hc1bc45270cf64b03E
LBB126_7:
	.loc	14 0 55
	movw	-28(%rbp), %ax
	.loc	14 376 40
	movw	$3, %cx
	xorl	%edx, %edx
	divw	%cx
	.loc	14 376 65
	addq	$32, %rsp
	popq	%rbp
	retq
LBB126_8:
	.loc	14 376 40
	leaq	_str.0(%rip), %rdi
	leaq	l___unnamed_13(%rip), %rdx
	movl	$28, %esi
	callq	__ZN4core9panicking5panic17hc1bc45270cf64b03E
Ltmp992:
Lfunc_end126:
	.cfi_endproc

	.p2align	4, 0x90
__ZN49_$LT$u32$u20$as$u20$num_integer..roots..Roots$GT$8nth_root17h7edf7aa9c03a6f89E:
Lfunc_begin127:
	.loc	14 206 0 is_stmt 1
	.cfi_startproc
	pushq	%rbp
	.cfi_def_cfa_offset 16
	.cfi_offset %rbp, -16
	movq	%rsp, %rbp
	.cfi_def_cfa_register %rbp
	subq	$16, %rsp
	movq	%rdi, -16(%rbp)
	movl	%esi, -4(%rbp)
Ltmp993:
	.loc	14 274 20 prologue_end
	movl	(%rdi), %edi
	.loc	14 274 17 is_stmt 0
	callq	__ZN49_$LT$u32$u20$as$u20$num_integer..roots..Roots$GT$8nth_root2go17h1ecdcf945b8fa039E
	.loc	14 275 14 is_stmt 1
	addq	$16, %rsp
	popq	%rbp
	retq
Ltmp994:
Lfunc_end127:
	.cfi_endproc

	.globl	__ZN49_$LT$u32$u20$as$u20$num_integer..roots..Roots$GT$8nth_root2go17h1ecdcf945b8fa039E
	.p2align	4, 0x90
__ZN49_$LT$u32$u20$as$u20$num_integer..roots..Roots$GT$8nth_root2go17h1ecdcf945b8fa039E:
Lfunc_begin128:
	.loc	14 207 0
	.cfi_startproc
	pushq	%rbp
	.cfi_def_cfa_offset 16
	.cfi_offset %rbp, -16
	movq	%rsp, %rbp
	.cfi_def_cfa_register %rbp
	subq	$176, %rsp
	movl	%edi, -128(%rbp)
	movl	%esi, -124(%rbp)
Ltmp995:
	.loc	14 209 21 prologue_end
	movl	-124(%rbp), %eax
	movq	%rax, -136(%rbp)
	subq	$3, %rax
	ja	LBB128_1
	.loc	14 0 21 is_stmt 0
	movq	-136(%rbp), %rax
	leaq	LJTI128_0(%rip), %rcx
	movslq	(%rcx,%rax,4), %rax
	addq	%rcx, %rax
	jmpq	*%rax
LBB128_1:
	.loc	14 218 24 is_stmt 1
	callq	__ZN11num_integer5roots4bits17hd9c05fa0a7862afbE
	cmpl	-124(%rbp), %eax
	jbe	LBB128_7
	jmp	LBB128_6
LBB128_2:
	.loc	14 210 30
	leaq	l___unnamed_11(%rip), %rdi
	leaq	l___unnamed_14(%rip), %rdx
	movl	$30, %esi
	callq	__ZN4core9panicking5panic17hc1bc45270cf64b03E
LBB128_3:
	.loc	14 211 37
	movl	-128(%rbp), %eax
	movl	%eax, -120(%rbp)
	.loc	14 211 30 is_stmt 0
	jmp	LBB128_13
LBB128_4:
	.loc	14 212 37 is_stmt 1
	leaq	-128(%rbp), %rdi
	callq	__ZN49_$LT$u32$u20$as$u20$num_integer..roots..Roots$GT$4sqrt17h2b92f052a7666e4bE
	movl	%eax, -120(%rbp)
	jmp	LBB128_13
LBB128_5:
	.loc	14 213 37
	leaq	-128(%rbp), %rdi
	callq	__ZN49_$LT$u32$u20$as$u20$num_integer..roots..Roots$GT$4cbrt17h78ec85fa2d62855aE
	movl	%eax, -120(%rbp)
	jmp	LBB128_13
LBB128_6:
	.loc	14 218 45
	movl	-128(%rbp), %eax
	movl	%eax, -144(%rbp)
	.loc	14 218 55 is_stmt 0
	movl	-124(%rbp), %ecx
	.loc	14 218 49
	movl	%ecx, %eax
	andl	$-32, %eax
	cmpl	$0, %eax
	setne	%al
	andl	$31, %ecx
	movl	$1, %edx
	shll	%cl, %edx
	movl	%edx, -140(%rbp)
	testb	$1, %al
	jne	LBB128_10
	jmp	LBB128_9
LBB128_7:
	.loc	14 218 24
	movb	$1, -113(%rbp)
LBB128_8:
	testb	$1, -113(%rbp)
	jne	LBB128_12
	jmp	LBB128_11
LBB128_9:
	.loc	14 0 24
	movl	-144(%rbp), %eax
	movl	-140(%rbp), %ecx
	.loc	14 218 45
	cmpl	%ecx, %eax
	setb	%al
	.loc	14 218 24
	andb	$1, %al
	movb	%al, -113(%rbp)
	jmp	LBB128_8
LBB128_10:
	.loc	14 218 49
	leaq	_str.3(%rip), %rdi
	leaq	l___unnamed_14(%rip), %rdx
	movl	$35, %esi
	callq	__ZN4core9panicking5panic17hc1bc45270cf64b03E
LBB128_11:
	.loc	14 222 24 is_stmt 1
	callq	__ZN11num_integer5roots4bits17hd9c05fa0a7862afbE
	cmpl	$64, %eax
	ja	LBB128_15
	jmp	LBB128_14
LBB128_12:
	.loc	14 219 32
	cmpl	$0, -128(%rbp)
	seta	%al
	andb	$1, %al
	movzbl	%al, %eax
	movl	%eax, -120(%rbp)
LBB128_13:
	.loc	14 273 18
	movl	-120(%rbp), %eax
	addq	$176, %rsp
	popq	%rbp
	retq
LBB128_14:
	.loc	14 264 30
	movl	-124(%rbp), %eax
	movl	%eax, %ecx
	subl	$1, %ecx
	movl	%ecx, -148(%rbp)
	cmpl	$1, %eax
	setb	%al
	testb	$1, %al
	jne	LBB128_32
	jmp	LBB128_31
LBB128_15:
	.loc	14 224 35
	cmpl	$-1, -128(%rbp)
	jbe	LBB128_17
	.loc	14 227 39
	movl	-128(%rbp), %edx
	.loc	14 227 44 is_stmt 0
	movl	-124(%rbp), %ecx
	.loc	14 227 38
	movl	%ecx, %eax
	andl	$-32, %eax
	cmpl	$0, %eax
	setne	%al
	andl	$31, %ecx
	shrl	%cl, %edx
	movl	%edx, -152(%rbp)
	testb	$1, %al
	jne	LBB128_19
	jmp	LBB128_18
LBB128_17:
	.loc	14 225 29 is_stmt 1
	movl	-128(%rbp), %eax
	movq	%rax, -112(%rbp)
	.loc	14 225 49 is_stmt 0
	movl	-124(%rbp), %esi
	.loc	14 225 29
	leaq	-112(%rbp), %rdi
	callq	__ZN49_$LT$u64$u20$as$u20$num_integer..roots..Roots$GT$8nth_root17h949ee7009794be4aE
	movl	%eax, -120(%rbp)
	.loc	14 224 32 is_stmt 1
	jmp	LBB128_13
LBB128_18:
	.loc	14 0 32 is_stmt 0
	movl	-152(%rbp), %eax
	.loc	14 227 38 is_stmt 1
	movl	%eax, -100(%rbp)
	.loc	14 227 56 is_stmt 0
	movl	-124(%rbp), %esi
	.loc	14 227 38
	leaq	-100(%rbp), %rdi
	callq	__ZN49_$LT$u32$u20$as$u20$num_integer..roots..Roots$GT$8nth_root17h7edf7aa9c03a6f89E
	shll	$1, %eax
	movl	%eax, -160(%rbp)
	movl	%eax, -32(%rbp)
Ltmp996:
	.loc	14 228 38 is_stmt 1
	addl	$1, %eax
	movl	%eax, -156(%rbp)
	setb	%al
	testb	$1, %al
	jne	LBB128_21
	jmp	LBB128_20
Ltmp997:
LBB128_19:
	.loc	14 227 38
	leaq	_str.4(%rip), %rdi
	leaq	l___unnamed_14(%rip), %rdx
	movl	$36, %esi
	callq	__ZN4core9panicking5panic17hc1bc45270cf64b03E
LBB128_20:
	.loc	14 0 38 is_stmt 0
	movl	-156(%rbp), %edi
Ltmp998:
	.loc	14 228 38 is_stmt 1
	movl	%edi, -28(%rbp)
Ltmp999:
	.loc	14 231 32
	callq	__ZN4core3num21_$LT$impl$u20$u32$GT$17next_power_of_two17hfe80ead803078716E
	movl	%eax, -8(%rbp)
Ltmp1000:
	.loc	6 152 13
	bsfl	%eax, %eax
	movl	$32, %ecx
	cmovel	%ecx, %eax
	movl	%eax, -4(%rbp)
	movl	-4(%rbp), %eax
Ltmp1001:
	.loc	14 231 32
	mull	-124(%rbp)
	movl	%eax, -164(%rbp)
	seto	%al
	testb	$1, %al
	jne	LBB128_23
	jmp	LBB128_22
Ltmp1002:
LBB128_21:
	.loc	14 228 38
	leaq	_str.0(%rip), %rdi
	leaq	l___unnamed_14(%rip), %rdx
	movl	$28, %esi
	callq	__ZN4core9panicking5panic17hc1bc45270cf64b03E
LBB128_22:
Ltmp1003:
	.loc	14 231 79
	callq	__ZN11num_integer5roots4bits17hd9c05fa0a7862afbE
	movl	%eax, %ecx
	movl	-164(%rbp), %eax
	.loc	14 231 32 is_stmt 0
	cmpl	%ecx, %eax
	jae	LBB128_25
	jmp	LBB128_24
LBB128_23:
	leaq	_str.1(%rip), %rdi
	leaq	l___unnamed_14(%rip), %rdx
	movl	$33, %esi
	callq	__ZN4core9panicking5panic17hc1bc45270cf64b03E
LBB128_24:
	.loc	14 0 32
	movl	-156(%rbp), %edi
	.loc	14 237 43 is_stmt 1
	movl	-124(%rbp), %esi
	.loc	14 237 36 is_stmt 0
	callq	__ZN4core3num21_$LT$impl$u20$u32$GT$3pow17h44b6d34ffa9335b3E
	cmpl	-128(%rbp), %eax
	jbe	LBB128_30
	jmp	LBB128_29
LBB128_25:
	.loc	14 0 36
	movl	-156(%rbp), %edi
	.loc	14 232 55 is_stmt 1
	movl	-124(%rbp), %eax
	movl	%eax, %esi
	.loc	14 232 39 is_stmt 0
	callq	__ZN10num_traits3pow11checked_pow17hbbabdc9e3e240148E
	movl	%edx, -92(%rbp)
	movl	%eax, -96(%rbp)
	movl	-96(%rbp), %eax
	.loc	14 232 33
	cmpq	$1, %rax
	jne	LBB128_27
	.loc	14 233 42 is_stmt 1
	leaq	-96(%rbp), %rax
	addq	$4, %rax
	movq	%rax, -24(%rbp)
	.loc	14 233 48 is_stmt 0
	movl	-92(%rbp), %eax
	cmpl	-128(%rbp), %eax
	jbe	LBB128_28
LBB128_27:
	.loc	14 0 48
	movl	-160(%rbp), %eax
	.loc	14 234 42 is_stmt 1
	movl	%eax, -120(%rbp)
	jmp	LBB128_13
LBB128_28:
	.loc	14 0 42 is_stmt 0
	movl	-156(%rbp), %eax
	.loc	14 233 42 is_stmt 1
	movl	-92(%rbp), %ecx
	movl	%ecx, -12(%rbp)
Ltmp1004:
	.loc	14 233 58 is_stmt 0
	movl	%eax, -120(%rbp)
Ltmp1005:
	.loc	14 233 59
	jmp	LBB128_13
LBB128_29:
	.loc	14 0 59
	movl	-160(%rbp), %eax
	.loc	14 240 37 is_stmt 1
	movl	%eax, -120(%rbp)
	.loc	14 237 33
	jmp	LBB128_13
LBB128_30:
	.loc	14 0 33 is_stmt 0
	movl	-156(%rbp), %eax
	.loc	14 238 37 is_stmt 1
	movl	%eax, -120(%rbp)
	.loc	14 237 33
	jmp	LBB128_13
Ltmp1006:
LBB128_31:
	.loc	14 0 33 is_stmt 0
	movl	-148(%rbp), %eax
	.loc	14 264 30 is_stmt 1
	movl	%eax, -84(%rbp)
Ltmp1007:
	.loc	14 265 32
	leaq	-84(%rbp), %rax
	movq	%rax, -80(%rbp)
	leaq	-128(%rbp), %rax
	movq	%rax, -72(%rbp)
	leaq	-124(%rbp), %rax
	movq	%rax, -64(%rbp)
Ltmp1008:
	.loc	14 272 36
	movl	-128(%rbp), %edi
	.loc	14 272 39 is_stmt 0
	movl	-124(%rbp), %esi
	.loc	14 272 30
	callq	__ZN49_$LT$u32$u20$as$u20$num_integer..roots..Roots$GT$8nth_root2go5guess17h6b604f661ca1253aE
	movl	%eax, %edi
	.loc	14 272 43
	movq	-80(%rbp), %rax
	movq	%rax, -56(%rbp)
	movq	-72(%rbp), %rax
	movq	%rax, -48(%rbp)
	movq	-64(%rbp), %rax
	movq	%rax, -40(%rbp)
	.loc	14 272 21
	leaq	-56(%rbp), %rsi
