	.section	__TEXT,__text,regular,pure_instructions
	.macosx_version_min 10, 7
	.globl	__ZN106_$LT$core..ops..range..Range$LT$usize$GT$$u20$as$u20$core..slice..index..SliceIndex$LT$$u5b$T$u5d$$GT$$GT$17get_unchecked_mut17hf537e83db8bb2243E
	.p2align	4, 0x90
__ZN106_$LT$core..ops..range..Range$LT$usize$GT$$u20$as$u20$core..slice..index..SliceIndex$LT$$u5b$T$u5d$$GT$$GT$17get_unchecked_mut17hf537e83db8bb2243E:
Lfunc_begin0:
	.file	1 "/rustc/2c8cc343237b8f7d5a3c3703e3a87f2eb2c54a74/library/core/src/slice" "index.rs"
	.loc	1 391 0
	.cfi_startproc
	pushq	%rbp
	.cfi_def_cfa_offset 16
	.cfi_offset %rbp, -16
	movq	%rsp, %rbp
	.cfi_def_cfa_register %rbp
	subq	$160, %rsp
	movq	%rdi, -128(%rbp)
	movq	%rsi, -120(%rbp)
	movq	%rdx, -112(%rbp)
	movq	%rcx, -104(%rbp)
Ltmp0:
	.loc	1 400 43 prologue_end
	movq	%rdx, -96(%rbp)
	movq	%rcx, -88(%rbp)
Ltmp1:
	.file	2 "/rustc/2c8cc343237b8f7d5a3c3703e3a87f2eb2c54a74/library/core/src/ptr" "mut_ptr.rs"
	.loc	2 2037 9
	movq	%rdx, -80(%rbp)
Ltmp2:
	.loc	1 400 66
	movq	%rdi, -72(%rbp)
Ltmp3:
	.loc	2 1034 18
	movq	%rdx, -64(%rbp)
	.loc	2 1034 30 is_stmt 0
	movq	%rdi, -56(%rbp)
Ltmp4:
	.loc	2 487 18 is_stmt 1
	addq	%rdi, %rdx
	movq	%rdx, -48(%rbp)
	movq	-48(%rbp), %rax
	movq	%rax, -40(%rbp)
Ltmp5:
	.loc	1 400 79
	subq	%rdi, %rsi
	movq	%rsi, -32(%rbp)
Ltmp6:
	.file	3 "/rustc/2c8cc343237b8f7d5a3c3703e3a87f2eb2c54a74/library/core/src/ptr" "mod.rs"
	.loc	3 766 24
	movq	%rax, -24(%rbp)
Ltmp7:
	.loc	2 60 9
	movq	%rax, -16(%rbp)
Ltmp8:
	.loc	3 766 37
	movq	%rsi, -8(%rbp)
Ltmp9:
	.file	4 "/rustc/2c8cc343237b8f7d5a3c3703e3a87f2eb2c54a74/library/core/src/ptr" "metadata.rs"
	.loc	4 135 36
	movq	%rax, -144(%rbp)
	movq	%rsi, -136(%rbp)
	.loc	4 135 14 is_stmt 0
	movq	-144(%rbp), %rcx
	movq	-136(%rbp), %rax
	movq	%rcx, -160(%rbp)
	movq	%rax, -152(%rbp)
	movq	-160(%rbp), %rax
	movq	-152(%rbp), %rdx
Ltmp10:
	.loc	1 402 6 is_stmt 1
	addq	$160, %rsp
	popq	%rbp
	retq
Ltmp11:
Lfunc_end0:
	.cfi_endproc

	.globl	__ZN106_$LT$core..ops..range..Range$LT$usize$GT$$u20$as$u20$core..slice..index..SliceIndex$LT$$u5b$T$u5d$$GT$$GT$9index_mut17hb36e6ab3ab83d3f3E
	.p2align	4, 0x90
__ZN106_$LT$core..ops..range..Range$LT$usize$GT$$u20$as$u20$core..slice..index..SliceIndex$LT$$u5b$T$u5d$$GT$$GT$9index_mut17hb36e6ab3ab83d3f3E:
Lfunc_begin1:
	.loc	1 416 0
	.cfi_startproc
	pushq	%rbp
	.cfi_def_cfa_offset 16
	.cfi_offset %rbp, -16
	movq	%rsp, %rbp
	.cfi_def_cfa_register %rbp
	subq	$80, %rsp
	movq	%rdi, -72(%rbp)
	movq	%rsi, -64(%rbp)
	movq	%rdx, -56(%rbp)
	movq	%rcx, -48(%rbp)
	movq	%r8, -40(%rbp)
	movq	%rdi, -32(%rbp)
	movq	%rsi, -24(%rbp)
	movq	%rdx, -16(%rbp)
	movq	%rcx, -8(%rbp)
Ltmp12:
	.loc	1 417 12 prologue_end
	cmpq	%rsi, %rdi
	ja	LBB1_2
	.loc	1 0 12 is_stmt 0
	movq	-64(%rbp), %rax
	movq	-48(%rbp), %rcx
	.loc	1 419 19 is_stmt 1
	cmpq	%rcx, %rax
	ja	LBB1_4
	jmp	LBB1_3
LBB1_2:
	.loc	1 0 19 is_stmt 0
	movq	-40(%rbp), %rdx
	movq	-64(%rbp), %rsi
	movq	-72(%rbp), %rdi
	.loc	1 418 13 is_stmt 1
	callq	__ZN4core5slice5index22slice_index_order_fail17h0d8f800a07d5f26eE
LBB1_3:
	.loc	1 0 13 is_stmt 0
	movq	-48(%rbp), %rcx
	movq	-56(%rbp), %rdx
	movq	-64(%rbp), %rsi
	movq	-72(%rbp), %rdi
	.loc	1 423 24 is_stmt 1
	callq	__ZN106_$LT$core..ops..range..Range$LT$usize$GT$$u20$as$u20$core..slice..index..SliceIndex$LT$$u5b$T$u5d$$GT$$GT$17get_unchecked_mut17hf537e83db8bb2243E
	.loc	1 424 6
	addq	$80, %rsp
	popq	%rbp
	retq
LBB1_4:
	.loc	1 0 6 is_stmt 0
	movq	-40(%rbp), %rdx
	movq	-48(%rbp), %rsi
	movq	-64(%rbp), %rdi
	.loc	1 420 13 is_stmt 1
	callq	__ZN4core5slice5index24slice_end_index_len_fail17hc921cb2f1513645aE
Ltmp13:
Lfunc_end1:
	.cfi_endproc

	.globl	__ZN119_$LT$core..ptr..non_null..NonNull$LT$T$GT$$u20$as$u20$core..convert..From$LT$core..ptr..unique..Unique$LT$T$GT$$GT$$GT$4from17h64f1e67f330258efE
	.p2align	4, 0x90
__ZN119_$LT$core..ptr..non_null..NonNull$LT$T$GT$$u20$as$u20$core..convert..From$LT$core..ptr..unique..Unique$LT$T$GT$$GT$$GT$4from17h64f1e67f330258efE:
Lfunc_begin2:
	.file	5 "/rustc/2c8cc343237b8f7d5a3c3703e3a87f2eb2c54a74/library/core/src/ptr" "non_null.rs"
	.loc	5 765 0
	.cfi_startproc
	pushq	%rbp
	.cfi_def_cfa_offset 16
	.cfi_offset %rbp, -16
	movq	%rsp, %rbp
	.cfi_def_cfa_register %rbp
	subq	$40, %rsp
	movq	%rdi, -32(%rbp)
Ltmp14:
	.loc	5 768 41 prologue_end
	movq	%rdi, -24(%rbp)
Ltmp15:
	.file	6 "/rustc/2c8cc343237b8f7d5a3c3703e3a87f2eb2c54a74/library/core/src/ptr" "unique.rs"
	.loc	6 104 9
	movq	%rdi, -16(%rbp)
Ltmp16:
	.loc	5 326 9
	movq	%rdi, -8(%rbp)
Ltmp17:
	.loc	5 201 13
	movq	%rdi, -40(%rbp)
Ltmp18:
	.loc	5 769 6
	movq	-40(%rbp), %rax
	addq	$40, %rsp
	popq	%rbp
	retq
Ltmp19:
Lfunc_end2:
	.cfi_endproc

	.p2align	4, 0x90
__ZN122_$LT$alloc..collections..TryReserveError$u20$as$u20$core..convert..From$LT$alloc..collections..TryReserveErrorKind$GT$$GT$4from17h509d66b2e3fa1849E:
Lfunc_begin3:
	.file	7 "/rustc/2c8cc343237b8f7d5a3c3703e3a87f2eb2c54a74/library/alloc/src/collections" "mod.rs"
	.loc	7 116 0
	.cfi_startproc
	pushq	%rbp
	.cfi_def_cfa_offset 16
	.cfi_offset %rbp, -16
	movq	%rsp, %rbp
	.cfi_def_cfa_register %rbp
	subq	$32, %rsp
	movq	%rdi, -16(%rbp)
	movq	%rsi, -8(%rbp)
Ltmp20:
	.loc	7 117 9 prologue_end
	movq	%rdi, -32(%rbp)
	movq	%rsi, -24(%rbp)
	.loc	7 118 6
	movq	-32(%rbp), %rax
	movq	-24(%rbp), %rdx
	addq	$32, %rsp
	popq	%rbp
	retq
Ltmp21:
Lfunc_end3:
	.cfi_endproc

	.globl	__ZN132_$LT$alloc..vec..Vec$LT$T$C$A$GT$$u20$as$u20$alloc..vec..spec_extend..SpecExtend$LT$$RF$T$C$core..slice..iter..Iter$LT$T$GT$$GT$$GT$11spec_extend17hb6f085e35ea5aa53E
	.p2align	4, 0x90
__ZN132_$LT$alloc..vec..Vec$LT$T$C$A$GT$$u20$as$u20$alloc..vec..spec_extend..SpecExtend$LT$$RF$T$C$core..slice..iter..Iter$LT$T$GT$$GT$$GT$11spec_extend17hb6f085e35ea5aa53E:
Lfunc_begin4:
	.file	8 "/rustc/2c8cc343237b8f7d5a3c3703e3a87f2eb2c54a74/library/alloc/src/vec" "spec_extend.rs"
	.loc	8 53 0
	.cfi_startproc
	pushq	%rbp
	.cfi_def_cfa_offset 16
	.cfi_offset %rbp, -16
	movq	%rsp, %rbp
	.cfi_def_cfa_register %rbp
	subq	$48, %rsp
	movq	%rdi, -48(%rbp)
	movq	%rsi, -40(%rbp)
	movq	%rdx, -32(%rbp)
	movq	%rdi, -24(%rbp)
Ltmp22:
	.loc	8 54 21 prologue_end
	leaq	-40(%rbp), %rdi
	callq	__ZN4core5slice4iter13Iter$LT$T$GT$8as_slice17hfefd804d1d382fefE
	movq	-48(%rbp), %rdi
	movq	%rax, %rsi
	movq	%rsi, -16(%rbp)
	movq	%rdx, -8(%rbp)
Ltmp23:
	.loc	8 55 18
	callq	__ZN5alloc3vec16Vec$LT$T$C$A$GT$15append_elements17hea7c317763b1feb6E
Ltmp24:
	.loc	8 56 6
	addq	$48, %rsp
	popq	%rbp
	retq
Ltmp25:
Lfunc_end4:
	.cfi_endproc

	.globl	__ZN44_$LT$$RF$T$u20$as$u20$core..fmt..Display$GT$3fmt17hf632dd1389a7a5f1E
	.p2align	4, 0x90
__ZN44_$LT$$RF$T$u20$as$u20$core..fmt..Display$GT$3fmt17hf632dd1389a7a5f1E:
Lfunc_begin5:
	.file	9 "/rustc/2c8cc343237b8f7d5a3c3703e3a87f2eb2c54a74/library/core/src/fmt" "mod.rs"
	.loc	9 2377 0
	.cfi_startproc
	pushq	%rbp
	.cfi_def_cfa_offset 16
	.cfi_offset %rbp, -16
	movq	%rsp, %rbp
	.cfi_def_cfa_register %rbp
	subq	$16, %rsp
	movq	%rsi, %rdx
	movq	%rdi, %rax
	movq	%rax, -16(%rbp)
	movq	%rdx, -8(%rbp)
Ltmp26:
	.loc	9 2377 71 prologue_end
	movq	(%rax), %rdi
	movq	8(%rax), %rsi
	.loc	9 2377 62 is_stmt 0
	callq	__ZN42_$LT$str$u20$as$u20$core..fmt..Display$GT$3fmt17hd1cabce055ea2fbdE
	.loc	9 2377 84
	andb	$1, %al
	movzbl	%al, %eax
	addq	$16, %rsp
	popq	%rbp
	retq
Ltmp27:
Lfunc_end5:
	.cfi_endproc

	.globl	__ZN45_$LT$T$u20$as$u20$alloc..string..ToString$GT$9to_string17h57ed4b6d419e4989E
	.p2align	4, 0x90
__ZN45_$LT$T$u20$as$u20$alloc..string..ToString$GT$9to_string17h57ed4b6d419e4989E:
Lfunc_begin6:
	.file	10 "/rustc/2c8cc343237b8f7d5a3c3703e3a87f2eb2c54a74/library/alloc/src" "string.rs"
	.loc	10 2532 0 is_stmt 1
	.cfi_startproc
	.cfi_personality 155, _rust_eh_personality
	.cfi_lsda 16, Lexception0
	pushq	%rbp
	.cfi_def_cfa_offset 16
	.cfi_offset %rbp, -16
	movq	%rsp, %rbp
	.cfi_def_cfa_register %rbp
	subq	$144, %rsp
	movq	%rsi, %rax
	movq	%rax, -136(%rbp)
	movq	%rdi, %rsi
	movq	%rsi, -128(%rbp)
Ltmp38:
	movq	%rsi, %rdi
	movq	%rdi, -120(%rbp)
	movq	%rax, -24(%rbp)
Ltmp39:
	.file	11 "/rustc/2c8cc343237b8f7d5a3c3703e3a87f2eb2c54a74/library/alloc/src/vec" "mod.rs"
	.loc	11 425 20 prologue_end
	movq	L___unnamed_4(%rip), %rcx
	movq	L___unnamed_4+8(%rip), %rax
	.loc	11 425 9 is_stmt 0
	movq	%rcx, -48(%rbp)
	movq	%rax, -40(%rbp)
	movq	$0, -32(%rbp)
Ltmp40:
	.loc	10 456 9 is_stmt 1
	movq	-32(%rbp), %rax
	movq	%rax, 16(%rsi)
	movq	-48(%rbp), %rax
	movq	-40(%rbp), %rcx
	movq	%rcx, 8(%rsi)
	movq	%rax, (%rsi)
Ltmp41:
Ltmp28:
	.loc	10 2534 29
	leaq	l___unnamed_1(%rip), %rdx
	leaq	-112(%rbp), %rdi
	callq	__ZN4core3fmt9Formatter3new17h7f05d885df8ba719E
Ltmp42:
Ltmp29:
	jmp	LBB6_3
Ltmp43:
LBB6_1:
Ltmp35:
	.loc	10 0 29 is_stmt 0
	movq	-128(%rbp), %rdi
	.loc	10 2539 5 is_stmt 1
	callq	__ZN4core3ptr42drop_in_place$LT$alloc..string..String$GT$17hab7414df8e531398E
Ltmp36:
	jmp	LBB6_7
LBB6_2:
Ltmp34:
	.loc	10 0 5 is_stmt 0
	movq	%rax, %rcx
	movl	%edx, %eax
	movq	%rcx, -16(%rbp)
	movl	%eax, -8(%rbp)
	jmp	LBB6_1
LBB6_3:
Ltmp44:
Ltmp30:
	movq	-136(%rbp), %rdi
	leaq	-112(%rbp), %rsi
Ltmp45:
	.loc	10 2536 9 is_stmt 1
	callq	__ZN59_$LT$core..fmt..Arguments$u20$as$u20$core..fmt..Display$GT$3fmt17h99a13c0e04235e08E
Ltmp31:
	movb	%al, -137(%rbp)
	jmp	LBB6_4
Ltmp46:
LBB6_4:
Ltmp32:
	.loc	10 0 9 is_stmt 0
	movb	-137(%rbp), %al
	.loc	10 2536 9
	movzbl	%al, %edi
	andl	$1, %edi
	leaq	l___unnamed_5(%rip), %rsi
	leaq	l___unnamed_6(%rip), %rcx
	movl	$55, %edx
	callq	__ZN4core6result19Result$LT$T$C$E$GT$6expect17hc4664afac288c5b4E
Ltmp33:
	jmp	LBB6_5
Ltmp47:
LBB6_5:
	.loc	10 0 9
	movq	-120(%rbp), %rax
	.loc	10 2539 6 is_stmt 1
	addq	$144, %rsp
	popq	%rbp
	retq
LBB6_6:
Ltmp37:
	.loc	10 2532 5
	callq	__ZN4core9panicking19panic_cannot_unwind17h1fbca7e1d7f56ae1E
LBB6_7:
	movq	-16(%rbp), %rdi
	callq	__Unwind_Resume
Ltmp48:
Lfunc_end6:
	.cfi_endproc
	.section	__TEXT,__gcc_except_tab
	.p2align	2
GCC_except_table6:
Lexception0:
	.byte	255
	.byte	255
	.byte	1
	.uleb128 Lcst_end0-Lcst_begin0
Lcst_begin0:
	.uleb128 Ltmp28-Lfunc_begin6
	.uleb128 Ltmp29-Ltmp28
	.uleb128 Ltmp34-Lfunc_begin6
	.byte	0
	.uleb128 Ltmp35-Lfunc_begin6
	.uleb128 Ltmp36-Ltmp35
	.uleb128 Ltmp37-Lfunc_begin6
	.byte	0
	.uleb128 Ltmp30-Lfunc_begin6
	.uleb128 Ltmp33-Ltmp30
	.uleb128 Ltmp34-Lfunc_begin6
	.byte	0
	.uleb128 Ltmp33-Lfunc_begin6
	.uleb128 Lfunc_end6-Ltmp33
	.byte	0
	.byte	0
Lcst_end0:
	.p2align	2

	.section	__TEXT,__text,regular,pure_instructions
	.p2align	4, 0x90
__ZN4core3cmp5impls50_$LT$impl$u20$core..cmp..Ord$u20$for$u20$usize$GT$3cmp17h7ac315f67035208aE:
Lfunc_begin7:
	.file	12 "/rustc/2c8cc343237b8f7d5a3c3703e3a87f2eb2c54a74/library/core/src" "cmp.rs"
	.loc	12 1454 0
	.cfi_startproc
	pushq	%rbp
	.cfi_def_cfa_offset 16
	.cfi_offset %rbp, -16
	movq	%rsp, %rbp
	.cfi_def_cfa_register %rbp
	subq	$40, %rsp
	movq	%rdi, -40(%rbp)
	movq	%rsi, -32(%rbp)
	movq	%rdi, -16(%rbp)
	movq	%rsi, -8(%rbp)
Ltmp49:
	.loc	12 1457 24 prologue_end
	movq	(%rdi), %rax
	cmpq	(%rsi), %rax
	jb	LBB7_2
	.loc	12 0 24 is_stmt 0
	movq	-32(%rbp), %rcx
	movq	-40(%rbp), %rax
	.loc	12 1458 29 is_stmt 1
	movq	(%rax), %rax
	cmpq	(%rcx), %rax
	je	LBB7_5
	jmp	LBB7_4
LBB7_2:
	.loc	12 1457 41
	movb	$-1, -17(%rbp)
LBB7_3:
	.loc	12 1460 18
	movb	-17(%rbp), %al
	addq	$40, %rsp
	popq	%rbp
	retq
LBB7_4:
	.loc	12 1459 28
	movb	$1, -17(%rbp)
	.loc	12 1458 26
	jmp	LBB7_6
LBB7_5:
	.loc	12 1458 47 is_stmt 0
	movb	$0, -17(%rbp)
LBB7_6:
	.loc	12 1457 21 is_stmt 1
	jmp	LBB7_3
Ltmp50:
Lfunc_end7:
	.cfi_endproc

	.globl	__ZN4core3cmp6max_by17heaaf175c7ee2470dE
	.p2align	4, 0x90
__ZN4core3cmp6max_by17heaaf175c7ee2470dE:
Lfunc_begin8:
	.loc	12 1295 0
	.cfi_startproc
	.cfi_personality 155, _rust_eh_personality
	.cfi_lsda 16, Lexception1
	pushq	%rbp
	.cfi_def_cfa_offset 16
	.cfi_offset %rbp, -16
	movq	%rsp, %rbp
	.cfi_def_cfa_register %rbp
	subq	$96, %rsp
	movq	%rdi, -80(%rbp)
	movq	%rsi, -72(%rbp)
Ltmp54:
	.loc	12 1300 11 prologue_end
	movb	$1, -25(%rbp)
	movb	$1, -26(%rbp)
	leaq	-80(%rbp), %rax
	movq	%rax, -48(%rbp)
	leaq	-72(%rbp), %rax
	movq	%rax, -40(%rbp)
	movq	-48(%rbp), %rdi
	movq	-40(%rbp), %rsi
Ltmp51:
	callq	__ZN4core3ops8function6FnOnce9call_once17hfe91b7f8634c3867E
Ltmp52:
	movb	%al, -81(%rbp)
	jmp	LBB8_3
LBB8_1:
	.loc	12 1304 1
	jmp	LBB8_4
LBB8_2:
Ltmp53:
	.loc	12 0 1 is_stmt 0
	movq	%rax, %rcx
	movl	%edx, %eax
	movq	%rcx, -16(%rbp)
	movl	%eax, -8(%rbp)
	jmp	LBB8_1
LBB8_3:
	movb	-81(%rbp), %al
	.loc	12 1300 11 is_stmt 1
	movb	%al, -49(%rbp)
	movb	-49(%rbp), %al
	.loc	12 1300 5 is_stmt 0
	incb	%al
	subb	$2, %al
	jb	LBB8_6
	jmp	LBB8_15
LBB8_15:
	jmp	LBB8_7
LBB8_4:
	.loc	12 1304 1 is_stmt 1
	testb	$1, -25(%rbp)
	jne	LBB8_12
	jmp	LBB8_11
	.loc	12 1300 11
	ud2
LBB8_6:
	.loc	12 1301 45
	movb	$0, -26(%rbp)
	movq	-72(%rbp), %rax
	movq	%rax, -64(%rbp)
	jmp	LBB8_8
LBB8_7:
	.loc	12 1302 30
	movb	$0, -25(%rbp)
	movq	-80(%rbp), %rax
	movq	%rax, -64(%rbp)
LBB8_8:
	.loc	12 1304 1
	testb	$1, -26(%rbp)
	jne	LBB8_10
LBB8_9:
	testb	$1, -25(%rbp)
	jne	LBB8_14
	jmp	LBB8_13
LBB8_10:
	jmp	LBB8_9
LBB8_11:
	.loc	12 1295 1
	movq	-16(%rbp), %rdi
	callq	__Unwind_Resume
LBB8_12:
	.loc	12 1304 1
	jmp	LBB8_11
LBB8_13:
	.loc	12 1304 2 is_stmt 0
	movq	-64(%rbp), %rax
	addq	$96, %rsp
	popq	%rbp
	retq
LBB8_14:
	.loc	12 1304 1
	jmp	LBB8_13
Ltmp55:
Lfunc_end8:
	.cfi_endproc
	.section	__TEXT,__gcc_except_tab
	.p2align	2
GCC_except_table8:
Lexception1:
	.byte	255
	.byte	255
	.byte	1
	.uleb128 Lcst_end1-Lcst_begin1
Lcst_begin1:
	.uleb128 Ltmp51-Lfunc_begin8
	.uleb128 Ltmp52-Ltmp51
	.uleb128 Ltmp53-Lfunc_begin8
	.byte	0
	.uleb128 Ltmp52-Lfunc_begin8
	.uleb128 Lfunc_end8-Ltmp52
	.byte	0
	.byte	0
Lcst_end1:
	.p2align	2

	.section	__TEXT,__text,regular,pure_instructions
	.globl	__ZN4core3fmt10ArgumentV111new_display17h6537807991185c45E
	.p2align	4, 0x90
__ZN4core3fmt10ArgumentV111new_display17h6537807991185c45E:
Lfunc_begin9:
	.loc	9 327 0 is_stmt 1
	.cfi_startproc
	pushq	%rbp
	.cfi_def_cfa_offset 16
	.cfi_offset %rbp, -16
	movq	%rsp, %rbp
	.cfi_def_cfa_register %rbp
	subq	$56, %rsp
	movq	%rdi, -40(%rbp)
Ltmp56:
	.loc	9 328 23 prologue_end
	movq	%rdi, -32(%rbp)
	.loc	9 328 26 is_stmt 0
	movq	__ZN59_$LT$core..fmt..Arguments$u20$as$u20$core..fmt..Display$GT$3fmt17h99a13c0e04235e08E@GOTPCREL(%rip), %rax
	movq	%rax, -24(%rbp)
Ltmp57:
	.loc	9 347 42 is_stmt 1
	movq	%rax, -16(%rbp)
	movq	-16(%rbp), %rax
	.loc	9 347 68 is_stmt 0
	movq	%rdi, -8(%rbp)
	movq	-8(%rbp), %rcx
	.loc	9 347 18
	movq	%rcx, -56(%rbp)
	movq	%rax, -48(%rbp)
Ltmp58:
	.loc	9 329 10 is_stmt 1
	movq	-56(%rbp), %rax
	movq	-48(%rbp), %rdx
	addq	$56, %rsp
	popq	%rbp
	retq
Ltmp59:
Lfunc_end9:
	.cfi_endproc

	.globl	__ZN4core3fmt10ArgumentV111new_display17h90f2e198741c63bbE
	.p2align	4, 0x90
__ZN4core3fmt10ArgumentV111new_display17h90f2e198741c63bbE:
Lfunc_begin10:
	.loc	9 327 0
	.cfi_startproc
	pushq	%rbp
	.cfi_def_cfa_offset 16
	.cfi_offset %rbp, -16
	movq	%rsp, %rbp
	.cfi_def_cfa_register %rbp
	subq	$56, %rsp
	movq	%rdi, -40(%rbp)
Ltmp60:
	.loc	9 328 23 prologue_end
	movq	%rdi, -32(%rbp)
	.loc	9 328 26 is_stmt 0
	leaq	__ZN44_$LT$$RF$T$u20$as$u20$core..fmt..Display$GT$3fmt17hf632dd1389a7a5f1E(%rip), %rax
	movq	%rax, -24(%rbp)
Ltmp61:
	.loc	9 347 42 is_stmt 1
	movq	%rax, -16(%rbp)
	movq	-16(%rbp), %rax
	.loc	9 347 68 is_stmt 0
	movq	%rdi, -8(%rbp)
	movq	-8(%rbp), %rcx
	.loc	9 347 18
	movq	%rcx, -56(%rbp)
	movq	%rax, -48(%rbp)
Ltmp62:
	.loc	9 329 10 is_stmt 1
	movq	-56(%rbp), %rax
	movq	-48(%rbp), %rdx
	addq	$56, %rsp
	popq	%rbp
	retq
Ltmp63:
Lfunc_end10:
	.cfi_endproc

	.globl	__ZN4core3fmt10ArgumentV111new_display17hfae033710a238110E
	.p2align	4, 0x90
__ZN4core3fmt10ArgumentV111new_display17hfae033710a238110E:
Lfunc_begin11:
	.loc	9 327 0
	.cfi_startproc
	pushq	%rbp
	.cfi_def_cfa_offset 16
	.cfi_offset %rbp, -16
	movq	%rsp, %rbp
	.cfi_def_cfa_register %rbp
	subq	$56, %rsp
	movq	%rdi, -40(%rbp)
Ltmp64:
	.loc	9 328 23 prologue_end
	movq	%rdi, -32(%rbp)
	.loc	9 328 26 is_stmt 0
	leaq	__ZN60_$LT$alloc..string..String$u20$as$u20$core..fmt..Display$GT$3fmt17h8245685eca3fa026E(%rip), %rax
	movq	%rax, -24(%rbp)
Ltmp65:
	.loc	9 347 42 is_stmt 1
	movq	%rax, -16(%rbp)
	movq	-16(%rbp), %rax
	.loc	9 347 68 is_stmt 0
	movq	%rdi, -8(%rbp)
	movq	-8(%rbp), %rcx
	.loc	9 347 18
	movq	%rcx, -56(%rbp)
	movq	%rax, -48(%rbp)
Ltmp66:
	.loc	9 329 10 is_stmt 1
	movq	-56(%rbp), %rax
	movq	-48(%rbp), %rdx
	addq	$56, %rsp
	popq	%rbp
	retq
Ltmp67:
Lfunc_end11:
	.cfi_endproc

	.globl	__ZN4core3fmt5Write9write_fmt17h2d09a1e9fc54107fE
	.p2align	4, 0x90
__ZN4core3fmt5Write9write_fmt17h2d09a1e9fc54107fE:
Lfunc_begin12:
	.loc	9 196 0
	.cfi_startproc
	pushq	%rbp
	.cfi_def_cfa_offset 16
	.cfi_offset %rbp, -16
	movq	%rsp, %rbp
	.cfi_def_cfa_register %rbp
	subq	$64, %rsp
	movq	%rdi, -56(%rbp)
Ltmp68:
	.loc	9 197 26 prologue_end
	leaq	-48(%rbp), %rdi
	movl	$48, %edx
	callq	_memcpy
Ltmp69:
	.loc	9 197 9 is_stmt 0
	leaq	-56(%rbp), %rdi
	leaq	l___unnamed_2(%rip), %rsi
	leaq	-48(%rbp), %rdx
	callq	__ZN4core3fmt5write17hfa389e524187f2c6E
	.loc	9 198 6 is_stmt 1
	andb	$1, %al
	movzbl	%al, %eax
	addq	$64, %rsp
	popq	%rbp
	retq
Ltmp70:
Lfunc_end12:
	.cfi_endproc

	.p2align	4, 0x90
__ZN4core3fmt9Arguments16new_v1_formatted17hf4e592764145e6f3E:
Lfunc_begin13:
	.loc	9 419 0
	.cfi_startproc
	pushq	%rbp
	.cfi_def_cfa_offset 16
	.cfi_offset %rbp, -16
	movq	%rsp, %rbp
	.cfi_def_cfa_register %rbp
	subq	$72, %rsp
	movq	%r9, %r10
	movq	%rdi, %rax
	movq	16(%rbp), %r9
	movq	%rsi, -56(%rbp)
	movq	%rdx, -48(%rbp)
	movq	%rcx, -40(%rbp)
	movq	%r8, -32(%rbp)
	movq	%r10, -24(%rbp)
	movq	%r9, -16(%rbp)
Ltmp71:
	.loc	9 425 34 prologue_end
	movq	%r10, -72(%rbp)
	movq	%r9, -64(%rbp)
	.loc	9 425 9 is_stmt 0
	movq	%rsi, 16(%rdi)
	movq	%rdx, 24(%rdi)
	movq	-72(%rbp), %rsi
	movq	-64(%rbp), %rdx
	movq	%rsi, (%rdi)
	movq	%rdx, 8(%rdi)
	movq	%rcx, 32(%rdi)
	movq	%r8, 40(%rdi)
	.loc	9 426 6 is_stmt 1
	addq	$72, %rsp
	popq	%rbp
	retq
Ltmp72:
Lfunc_end13:
	.cfi_endproc

	.p2align	4, 0x90
__ZN4core3fmt9Arguments6new_v117h812b3b80b41cd525E:
Lfunc_begin14:
	.loc	9 399 0
	.cfi_startproc
	pushq	%rbp
	.cfi_def_cfa_offset 16
	.cfi_offset %rbp, -16
	movq	%rsp, %rbp
	.cfi_def_cfa_register %rbp
	subq	$160, %rsp
	movq	%r8, -152(%rbp)
	movq	%rcx, -144(%rbp)
	movq	%rdx, -136(%rbp)
	movq	%rsi, -128(%rbp)
	movq	%rdi, -120(%rbp)
	movq	%rdi, -112(%rbp)
	movq	%rsi, -32(%rbp)
	movq	%rdx, -24(%rbp)
	movq	%rcx, -16(%rbp)
	movq	%r8, -8(%rbp)
Ltmp73:
	.loc	9 400 12 prologue_end
	cmpq	%r8, %rdx
	jb	LBB14_2
	.loc	9 0 12 is_stmt 0
	movq	-136(%rbp), %rax
	movq	-152(%rbp), %rcx
	.loc	9 400 56
	addq	$1, %rcx
	.loc	9 400 41
	cmpq	%rcx, %rax
	seta	%al
	.loc	9 400 12
	andb	$1, %al
	movb	%al, -97(%rbp)
	jmp	LBB14_3
LBB14_2:
	movb	$1, -97(%rbp)
LBB14_3:
	testb	$1, -97(%rbp)
	jne	LBB14_5
	.loc	9 0 12
	movq	-112(%rbp), %rax
	movq	-120(%rbp), %rcx
	movq	-152(%rbp), %rdx
	movq	-144(%rbp), %rsi
	movq	-136(%rbp), %rdi
	movq	-128(%rbp), %r8
	.loc	9 403 34 is_stmt 1
	movq	$0, -48(%rbp)
	.loc	9 403 9 is_stmt 0
	movq	%r8, 16(%rcx)
	movq	%rdi, 24(%rcx)
	movq	-48(%rbp), %r8
	movq	-40(%rbp), %rdi
	movq	%r8, (%rcx)
	movq	%rdi, 8(%rcx)
	movq	%rsi, 32(%rcx)
	movq	%rdx, 40(%rcx)
	.loc	9 404 6 is_stmt 1
	addq	$160, %rsp
	popq	%rbp
	retq
LBB14_5:
	.loc	9 401 13
	leaq	l___unnamed_7(%rip), %rsi
	leaq	l___unnamed_8(%rip), %rcx
	xorl	%eax, %eax
	movl	%eax, %r8d
	leaq	-96(%rbp), %rdi
	movq	%rdi, -160(%rbp)
	movl	$1, %edx
	callq	__ZN4core3fmt9Arguments6new_v117h812b3b80b41cd525E
	movq	-160(%rbp), %rdi
	leaq	l___unnamed_9(%rip), %rsi
	callq	__ZN4core9panicking9panic_fmt17h9b5d807e24bcaaedE
Ltmp74:
Lfunc_end14:
	.cfi_endproc

	.p2align	4, 0x90
__ZN4core3num23_$LT$impl$u20$usize$GT$11checked_add17h7249a58d3d695118E:
Lfunc_begin15:
	.file	13 "/rustc/2c8cc343237b8f7d5a3c3703e3a87f2eb2c54a74/library/core/src/num" "uint_macros.rs"
	.loc	13 442 0
	.cfi_startproc
	pushq	%rbp
	.cfi_def_cfa_offset 16
	.cfi_offset %rbp, -16
	movq	%rsp, %rbp
	.cfi_def_cfa_register %rbp
	subq	$120, %rsp
	movq	%rdi, -80(%rbp)
	movq	%rsi, -72(%rbp)
Ltmp75:
	.loc	13 443 26 prologue_end
	movq	%rdi, -64(%rbp)
	.loc	13 443 47 is_stmt 0
	movq	%rsi, -56(%rbp)
Ltmp76:
	.loc	13 1479 26 is_stmt 1
	addq	%rsi, %rdi
	setb	%al
	andb	$1, %al
	movq	%rdi, -48(%rbp)
	movb	%al, -40(%rbp)
	movq	-48(%rbp), %rcx
	movb	-40(%rbp), %al
	.loc	13 1479 18 is_stmt 0
	movq	%rcx, -32(%rbp)
	.loc	13 1479 21
	movb	%al, %dl
	andb	$1, %dl
	movb	%dl, -17(%rbp)
Ltmp77:
	.loc	13 1480 13 is_stmt 1
	movq	%rcx, -96(%rbp)
	andb	$1, %al
	movb	%al, -88(%rbp)
Ltmp78:
	.loc	13 443 18
	movq	-96(%rbp), %rax
	movq	%rax, -120(%rbp)
	movq	%rax, -16(%rbp)
	.loc	13 443 21 is_stmt 0
	movb	-88(%rbp), %al
	movb	%al, %cl
	andb	$1, %cl
	movb	%cl, -2(%rbp)
Ltmp79:
	.loc	13 444 16 is_stmt 1
	andb	$1, %al
	movb	%al, -1(%rbp)
	testb	$1, -1(%rbp)
	jne	LBB15_2
	.loc	13 0 16 is_stmt 0
	movq	-120(%rbp), %rax
	.loc	13 444 42
	movq	%rax, -104(%rbp)
	movq	$1, -112(%rbp)
	.loc	13 444 13
	jmp	LBB15_3
LBB15_2:
	.loc	13 444 30
	movq	$0, -112(%rbp)
Ltmp80:
LBB15_3:
	.loc	13 445 10 is_stmt 1
	movq	-112(%rbp), %rax
	movq	-104(%rbp), %rdx
	addq	$120, %rsp
	popq	%rbp
	retq
Ltmp81:
Lfunc_end15:
	.cfi_endproc

	.p2align	4, 0x90
__ZN4core3ops8function6FnOnce9call_once17hfe91b7f8634c3867E:
Lfunc_begin16:
	.file	14 "/rustc/2c8cc343237b8f7d5a3c3703e3a87f2eb2c54a74/library/core/src/ops" "function.rs"
	.loc	14 250 0
	.cfi_startproc
	pushq	%rbp
	.cfi_def_cfa_offset 16
	.cfi_offset %rbp, -16
	movq	%rsp, %rbp
	.cfi_def_cfa_register %rbp
	subq	$32, %rsp
	movq	%rdi, -24(%rbp)
	movq	%rsi, -16(%rbp)
Ltmp82:
	.loc	14 250 5 prologue_end
	movq	-24(%rbp), %rdi
	movq	-16(%rbp), %rsi
	callq	__ZN4core3cmp5impls50_$LT$impl$u20$core..cmp..Ord$u20$for$u20$usize$GT$3cmp17h7ac315f67035208aE
	addq	$32, %rsp
	popq	%rbp
	retq
Ltmp83:
Lfunc_end16:
	.cfi_endproc

	.p2align	4, 0x90
__ZN4core3ptr37drop_in_place$LT$core..fmt..Error$GT$17h778114983b624736E:
Lfunc_begin17:
	.loc	3 490 0
	.cfi_startproc
	pushq	%rbp
	.cfi_def_cfa_offset 16
	.cfi_offset %rbp, -16
	movq	%rsp, %rbp
	.cfi_def_cfa_register %rbp
	pushq	%rax
	movq	%rdi, -8(%rbp)
Ltmp84:
	.loc	3 490 1 prologue_end
	addq	$8, %rsp
	popq	%rbp
	retq
Ltmp85:
Lfunc_end17:
	.cfi_endproc

	.globl	__ZN4core3ptr42drop_in_place$LT$alloc..string..String$GT$17hab7414df8e531398E
	.p2align	4, 0x90
__ZN4core3ptr42drop_in_place$LT$alloc..string..String$GT$17hab7414df8e531398E:
Lfunc_begin18:
	.loc	3 490 0
	.cfi_startproc
	pushq	%rbp
	.cfi_def_cfa_offset 16
	.cfi_offset %rbp, -16
	movq	%rsp, %rbp
	.cfi_def_cfa_register %rbp
	subq	$16, %rsp
	movq	%rdi, -8(%rbp)
Ltmp86:
	.loc	3 490 1 prologue_end
	callq	__ZN4core3ptr46drop_in_place$LT$alloc..vec..Vec$LT$u8$GT$$GT$17h417cecb9687f4639E
	addq	$16, %rsp
	popq	%rbp
	retq
Ltmp87:
Lfunc_end18:
	.cfi_endproc

	.globl	__ZN4core3ptr46drop_in_place$LT$alloc..vec..Vec$LT$u8$GT$$GT$17h417cecb9687f4639E
	.p2align	4, 0x90
__ZN4core3ptr46drop_in_place$LT$alloc..vec..Vec$LT$u8$GT$$GT$17h417cecb9687f4639E:
Lfunc_begin19:
	.loc	3 490 0
	.cfi_startproc
	.cfi_personality 155, _rust_eh_personality
	.cfi_lsda 16, Lexception2
	pushq	%rbp
	.cfi_def_cfa_offset 16
	.cfi_offset %rbp, -16
	movq	%rsp, %rbp
	.cfi_def_cfa_register %rbp
	subq	$32, %rsp
	movq	%rdi, -32(%rbp)
	movq	%rdi, -24(%rbp)
Ltmp88:
Ltmp94:
	.loc	3 490 1 prologue_end
	callq	__ZN70_$LT$alloc..vec..Vec$LT$T$C$A$GT$$u20$as$u20$core..ops..drop..Drop$GT$4drop17h44345d51823567e8E
Ltmp89:
	jmp	LBB19_3
LBB19_1:
Ltmp91:
	.loc	3 0 1 is_stmt 0
	movq	-32(%rbp), %rdi
	.loc	3 490 1
	callq	__ZN4core3ptr53drop_in_place$LT$alloc..raw_vec..RawVec$LT$u8$GT$$GT$17hf4b4b362a64fc94eE
Ltmp92:
	jmp	LBB19_5
LBB19_2:
Ltmp90:
	.loc	3 0 1
	movq	%rax, %rcx
	movl	%edx, %eax
	movq	%rcx, -16(%rbp)
	movl	%eax, -8(%rbp)
	jmp	LBB19_1
LBB19_3:
	movq	-32(%rbp), %rdi
	.loc	3 490 1
	callq	__ZN4core3ptr53drop_in_place$LT$alloc..raw_vec..RawVec$LT$u8$GT$$GT$17hf4b4b362a64fc94eE
	addq	$32, %rsp
	popq	%rbp
	retq
LBB19_4:
Ltmp93:
	callq	__ZN4core9panicking19panic_cannot_unwind17h1fbca7e1d7f56ae1E
LBB19_5:
	movq	-16(%rbp), %rdi
	callq	__Unwind_Resume
Ltmp95:
Lfunc_end19:
	.cfi_endproc
	.section	__TEXT,__gcc_except_tab
	.p2align	2
GCC_except_table19:
Lexception2:
	.byte	255
	.byte	255
	.byte	1
	.uleb128 Lcst_end2-Lcst_begin2
Lcst_begin2:
	.uleb128 Ltmp88-Lfunc_begin19
	.uleb128 Ltmp89-Ltmp88
	.uleb128 Ltmp90-Lfunc_begin19
	.byte	0
	.uleb128 Ltmp91-Lfunc_begin19
	.uleb128 Ltmp92-Ltmp91
	.uleb128 Ltmp93-Lfunc_begin19
	.byte	0
	.uleb128 Ltmp92-Lfunc_begin19
	.uleb128 Lfunc_end19-Ltmp92
	.byte	0
	.byte	0
Lcst_end2:
	.p2align	2

	.section	__TEXT,__text,regular,pure_instructions
	.globl	__ZN4core3ptr53drop_in_place$LT$alloc..raw_vec..RawVec$LT$u8$GT$$GT$17hf4b4b362a64fc94eE
	.p2align	4, 0x90
__ZN4core3ptr53drop_in_place$LT$alloc..raw_vec..RawVec$LT$u8$GT$$GT$17hf4b4b362a64fc94eE:
Lfunc_begin20:
	.loc	3 490 0 is_stmt 1
	.cfi_startproc
	pushq	%rbp
	.cfi_def_cfa_offset 16
	.cfi_offset %rbp, -16
	movq	%rsp, %rbp
	.cfi_def_cfa_register %rbp
	subq	$16, %rsp
	movq	%rdi, -8(%rbp)
Ltmp96:
	.loc	3 490 1 prologue_end
	callq	__ZN77_$LT$alloc..raw_vec..RawVec$LT$T$C$A$GT$$u20$as$u20$core..ops..drop..Drop$GT$4drop17h0f940f28887100c6E
	addq	$16, %rsp
	popq	%rbp
	retq
Ltmp97:
Lfunc_end20:
	.cfi_endproc

	.p2align	4, 0x90
__ZN4core3ptr54drop_in_place$LT$$RF$mut$u20$alloc..string..String$GT$17hcbc771e5de0bf2cfE:
Lfunc_begin21:
	.loc	3 490 0
	.cfi_startproc
	pushq	%rbp
	.cfi_def_cfa_offset 16
	.cfi_offset %rbp, -16
	movq	%rsp, %rbp
	.cfi_def_cfa_register %rbp
	pushq	%rax
	movq	%rdi, -8(%rbp)
Ltmp98:
	.loc	3 490 1 prologue_end
	addq	$8, %rsp
	popq	%rbp
	retq
Ltmp99:
Lfunc_end21:
	.cfi_endproc

	.globl	__ZN4core3ptr8non_null16NonNull$LT$T$GT$3new17hd906aafb15d62b96E
	.p2align	4, 0x90
__ZN4core3ptr8non_null16NonNull$LT$T$GT$3new17hd906aafb15d62b96E:
Lfunc_begin22:
	.loc	5 222 0
	.cfi_startproc
	pushq	%rbp
	.cfi_def_cfa_offset 16
	.cfi_offset %rbp, -16
	movq	%rsp, %rbp
	.cfi_def_cfa_register %rbp
	subq	$88, %rsp
	movq	%rdi, -88(%rbp)
	movq	%rdi, -56(%rbp)
Ltmp100:
	.loc	5 223 13 prologue_end
	movq	%rdi, -48(%rbp)
Ltmp101:
	.loc	2 52 36
	movq	%rdi, -64(%rbp)
	.loc	2 52 18 is_stmt 0
	movq	-64(%rbp), %rax
	movq	%rax, -40(%rbp)
Ltmp102:
	.loc	2 38 13 is_stmt 1
	movq	%rax, -32(%rbp)
Ltmp103:
	.loc	2 215 33
	movq	%rax, -24(%rbp)
	.loc	2 215 18 is_stmt 0
	movq	%rax, -16(%rbp)
Ltmp104:
	.loc	2 38 13 is_stmt 1
	cmpq	$0, -16(%rbp)
	sete	%al
Ltmp105:
	.loc	5 223 12
	xorb	$-1, %al
	testb	$1, %al
	jne	LBB22_2
	.loc	5 227 13
	movq	$0, -80(%rbp)
	.loc	5 223 9
	jmp	LBB22_3
LBB22_2:
	.loc	5 0 9 is_stmt 0
	movq	-88(%rbp), %rax
	.loc	5 225 47 is_stmt 1
	movq	%rax, -8(%rbp)
Ltmp106:
	.loc	5 201 13
	movq	%rax, -72(%rbp)
Ltmp107:
	.loc	5 225 13
	movq	-72(%rbp), %rax
	movq	%rax, -80(%rbp)
LBB22_3:
	.loc	5 229 6
	movq	-80(%rbp), %rax
	addq	$88, %rsp
	popq	%rbp
	retq
Ltmp108:
Lfunc_end22:
	.cfi_endproc

	.globl	__ZN4core3ptr8non_null26NonNull$LT$$u5b$T$u5d$$GT$20slice_from_raw_parts17hc245afad43fb556cE
	.p2align	4, 0x90
__ZN4core3ptr8non_null26NonNull$LT$$u5b$T$u5d$$GT$20slice_from_raw_parts17hc245afad43fb556cE:
Lfunc_begin23:
	.loc	5 482 0
	.cfi_startproc
	pushq	%rbp
	.cfi_def_cfa_offset 16
	.cfi_offset %rbp, -16
	movq	%rsp, %rbp
	.cfi_def_cfa_register %rbp
	subq	$128, %rsp
	movq	%rdi, -80(%rbp)
	movq	%rsi, -72(%rbp)
Ltmp109:
	.loc	5 484 70 prologue_end
	movq	%rdi, -64(%rbp)
Ltmp110:
	.loc	5 326 9
	movq	%rdi, -56(%rbp)
Ltmp111:
	.loc	5 484 85
	movq	%rsi, -48(%rbp)
Ltmp112:
	.loc	3 766 24
	movq	%rdi, -40(%rbp)
Ltmp113:
	.loc	2 60 9
	movq	%rdi, -32(%rbp)
Ltmp114:
	.loc	3 766 37
	movq	%rsi, -24(%rbp)
Ltmp115:
	.loc	4 135 36
	movq	%rdi, -96(%rbp)
	movq	%rsi, -88(%rbp)
	.loc	4 135 14 is_stmt 0
	movq	-96(%rbp), %rcx
	movq	-88(%rbp), %rax
	movq	%rcx, -112(%rbp)
	movq	%rax, -104(%rbp)
	movq	-112(%rbp), %rcx
	movq	-104(%rbp), %rax
	movq	%rcx, -16(%rbp)
	movq	%rax, -8(%rbp)
Ltmp116:
	.loc	5 201 13 is_stmt 1
	movq	%rcx, -128(%rbp)
	movq	%rax, -120(%rbp)
Ltmp117:
	.loc	5 485 6
	movq	-128(%rbp), %rax
	movq	-120(%rbp), %rdx
	addq	$128, %rsp
	popq	%rbp
	retq
Ltmp118:
Lfunc_end23:
	.cfi_endproc

	.p2align	4, 0x90
__ZN4core4char7methods15encode_utf8_raw17h68e2a66a35940b09E:
Lfunc_begin24:
	.file	15 "/rustc/2c8cc343237b8f7d5a3c3703e3a87f2eb2c54a74/library/core/src/char" "methods.rs"
	.loc	15 1729 0
	.cfi_startproc
	pushq	%rbp
	.cfi_def_cfa_offset 16
	.cfi_offset %rbp, -16
	movq	%rsp, %rbp
	.cfi_def_cfa_register %rbp
	subq	$560, %rsp
	movq	%rsi, -544(%rbp)
	movq	%rdx, -536(%rbp)
	movl	%edi, -516(%rbp)
	movq	%rsi, -304(%rbp)
	movq	%rdx, -296(%rbp)
Ltmp119:
	.loc	15 1730 24 prologue_end
	movl	-516(%rbp), %edi
	.loc	15 1730 15 is_stmt 0
	callq	__ZN4core4char7methods8len_utf817h688753f75003f1afE
	movq	-544(%rbp), %rsi
	movq	-536(%rbp), %rdx
	movq	%rax, -512(%rbp)
Ltmp120:
	.loc	15 1731 12 is_stmt 1
	movq	-512(%rbp), %rax
	.loc	15 1731 22 is_stmt 0
	movq	%rsi, -272(%rbp)
	movq	%rdx, -264(%rbp)
Ltmp121:
	.loc	1 30 25 is_stmt 1
	movq	%rsi, -256(%rbp)
	movq	%rdx, -248(%rbp)
Ltmp122:
	.loc	15 1731 11
	movq	%rax, -504(%rbp)
	movq	%rsi, -496(%rbp)
	movq	%rdx, -488(%rbp)
	.loc	15 1731 5 is_stmt 0
	movq	-504(%rbp), %rax
	decq	%rax
	movq	%rax, -528(%rbp)
	subq	$3, %rax
	ja	LBB24_1
	.loc	15 0 5
	movq	-528(%rbp), %rax
	leaq	LJTI24_0(%rip), %rcx
	movslq	(%rcx,%rax,4), %rax
	addq	%rcx, %rax
	jmpq	*%rax
LBB24_1:
	movq	-536(%rbp), %rcx
	leaq	-512(%rbp), %rsi
	.loc	15 1750 14 is_stmt 1
	movq	%rsi, -120(%rbp)
Ltmp123:
	.loc	9 328 23
	movq	%rsi, -112(%rbp)
	.loc	9 328 26 is_stmt 0
	movq	__ZN4core3fmt3num3imp54_$LT$impl$u20$core..fmt..Display$u20$for$u20$usize$GT$3fmt17ha5c925fcd7ed33faE@GOTPCREL(%rip), %rax
	movq	%rax, -104(%rbp)
Ltmp124:
	.loc	9 347 42 is_stmt 1
	movq	%rax, -96(%rbp)
	movq	-96(%rbp), %rdx
	.loc	9 347 68 is_stmt 0
	movq	%rsi, -88(%rbp)
	movq	-88(%rbp), %rsi
	.loc	9 347 18
	movq	%rsi, -384(%rbp)
	movq	%rdx, -376(%rbp)
	leaq	-516(%rbp), %rsi
Ltmp125:
	.loc	15 1750 14 is_stmt 1
	movq	%rsi, -80(%rbp)
Ltmp126:
	.loc	9 328 23
	movq	%rsi, -72(%rbp)
	.loc	9 328 26 is_stmt 0
	movq	__ZN4core3fmt3num53_$LT$impl$u20$core..fmt..UpperHex$u20$for$u20$u32$GT$3fmt17ha96bbefe8f663d11E@GOTPCREL(%rip), %rdx
	movq	%rdx, -64(%rbp)
Ltmp127:
	.loc	9 347 42 is_stmt 1
	movq	%rdx, -56(%rbp)
	movq	-56(%rbp), %rdx
	.loc	9 347 68 is_stmt 0
	movq	%rsi, -48(%rbp)
	movq	-48(%rbp), %rsi
	.loc	9 347 18
	movq	%rsi, -368(%rbp)
	movq	%rdx, -360(%rbp)
Ltmp128:
	.loc	15 1754 13 is_stmt 1
	movq	%rcx, -336(%rbp)
	leaq	-336(%rbp), %rcx
	.loc	15 1750 14
	movq	%rcx, -40(%rbp)
Ltmp129:
	.loc	9 328 23
	movq	%rcx, -32(%rbp)
	.loc	9 328 26 is_stmt 0
	movq	%rax, -24(%rbp)
Ltmp130:
	.loc	9 347 42 is_stmt 1
	movq	%rax, -16(%rbp)
	movq	-16(%rbp), %rax
	.loc	9 347 68 is_stmt 0
	movq	%rcx, -8(%rbp)
	movq	-8(%rbp), %rcx
	.loc	9 347 18
	movq	%rcx, -352(%rbp)
	movq	%rax, -344(%rbp)
Ltmp131:
	.loc	15 1750 14 is_stmt 1
	movq	-384(%rbp), %rcx
	movq	-376(%rbp), %rax
	movq	%rcx, -432(%rbp)
	movq	%rax, -424(%rbp)
	movq	-368(%rbp), %rcx
	movq	-360(%rbp), %rax
	movq	%rcx, -416(%rbp)
	movq	%rax, -408(%rbp)
	movq	-352(%rbp), %rcx
	movq	-344(%rbp), %rax
	movq	%rcx, -400(%rbp)
	movq	%rax, -392(%rbp)
	leaq	l___unnamed_10(%rip), %rsi
	leaq	-480(%rbp), %rdi
	movq	%rdi, -552(%rbp)
	leaq	-432(%rbp), %rcx
	movl	$3, %r8d
	movq	%r8, %rdx
	callq	__ZN4core3fmt9Arguments6new_v117h812b3b80b41cd525E
	movq	-552(%rbp), %rdi
	leaq	l___unnamed_11(%rip), %rsi
	callq	__ZN4core9panicking9panic_fmt17h9b5d807e24bcaaedE
LBB24_2:
	.loc	15 1732 13
	cmpq	$1, -488(%rbp)
	jae	LBB24_10
	jmp	LBB24_1
LBB24_3:
	.loc	15 1735 13
	cmpq	$2, -488(%rbp)
	jae	LBB24_9
	jmp	LBB24_1
LBB24_4:
	.loc	15 1739 13
	cmpq	$3, -488(%rbp)
	jae	LBB24_8
	jmp	LBB24_1
LBB24_5:
	.loc	15 1744 13
	cmpq	$4, -488(%rbp)
	jb	LBB24_1
	.loc	15 1744 14 is_stmt 0
	movq	-496(%rbp), %rsi
	movq	%rsi, -240(%rbp)
	.loc	15 1744 17
	movq	-496(%rbp), %rdx
	movq	%rdx, %rax
	addq	$1, %rax
	movq	%rax, -232(%rbp)
	.loc	15 1744 20
	movq	-496(%rbp), %rcx
	movq	%rcx, %rax
	addq	$2, %rax
	movq	%rax, -224(%rbp)
	.loc	15 1744 23
	movq	-496(%rbp), %rax
	movq	%rax, %rdi
	addq	$3, %rdi
	movq	%rdi, -216(%rbp)
Ltmp132:
	.loc	15 1745 19 is_stmt 1
	movl	-516(%rbp), %edi
	shrl	$18, %edi
	.loc	15 1745 18 is_stmt 0
	andl	$7, %edi
	.loc	15 1745 13
	orb	$-16, %dil
	movb	%dil, (%rsi)
	.loc	15 1746 19 is_stmt 1
	movl	-516(%rbp), %esi
	shrl	$12, %esi
	.loc	15 1746 18 is_stmt 0
	andl	$63, %esi
	.loc	15 1746 13
	orb	$-128, %sil
	movb	%sil, 1(%rdx)
	.loc	15 1747 19 is_stmt 1
	movl	-516(%rbp), %edx
	shrl	$6, %edx
	.loc	15 1747 18 is_stmt 0
	andl	$63, %edx
	.loc	15 1747 13
	orb	$-128, %dl
	movb	%dl, 2(%rcx)
	.loc	15 1748 19 is_stmt 1
	movl	-516(%rbp), %ecx
	.loc	15 1748 18 is_stmt 0
	andl	$63, %ecx
	.loc	15 1748 13
	orb	$-128, %cl
	movb	%cl, 3(%rax)
Ltmp133:
LBB24_7:
	.loc	15 0 13
	movq	-536(%rbp), %rcx
	movq	-544(%rbp), %rdx
	.loc	15 1757 10 is_stmt 1
	movq	%rdx, -160(%rbp)
	movq	%rcx, -152(%rbp)
	.loc	15 1757 16 is_stmt 0
	movq	-512(%rbp), %rax
	.loc	15 1757 14
	movq	%rax, -328(%rbp)
Ltmp134:
	.loc	1 30 9 is_stmt 1
	movq	-328(%rbp), %rax
	movq	%rax, -144(%rbp)
	.loc	1 30 25 is_stmt 0
	movq	%rdx, -136(%rbp)
	movq	%rcx, -128(%rbp)
Ltmp135:
	.loc	1 461 9 is_stmt 1
	movq	$0, -320(%rbp)
	movq	%rax, -312(%rbp)
	movq	-320(%rbp), %rdi
	movq	-312(%rbp), %rsi
	leaq	l___unnamed_12(%rip), %r8
	callq	__ZN106_$LT$core..ops..range..Range$LT$usize$GT$$u20$as$u20$core..slice..index..SliceIndex$LT$$u5b$T$u5d$$GT$$GT$9index_mut17hb36e6ab3ab83d3f3E
Ltmp136:
	.loc	15 1758 2
	addq	$560, %rsp
	popq	%rbp
	retq
LBB24_8:
Ltmp137:
	.loc	15 1739 14
	movq	-496(%rbp), %rdx
	movq	%rdx, -208(%rbp)
	.loc	15 1739 17 is_stmt 0
	movq	-496(%rbp), %rcx
	movq	%rcx, %rax
	addq	$1, %rax
	movq	%rax, -200(%rbp)
	.loc	15 1739 20
	movq	-496(%rbp), %rax
	movq	%rax, %rsi
	addq	$2, %rsi
	movq	%rsi, -192(%rbp)
Ltmp138:
	.loc	15 1740 19 is_stmt 1
	movl	-516(%rbp), %esi
	shrl	$12, %esi
	.loc	15 1740 18 is_stmt 0
	andl	$15, %esi
	.loc	15 1740 13
	orb	$-32, %sil
	movb	%sil, (%rdx)
	.loc	15 1741 19 is_stmt 1
	movl	-516(%rbp), %edx
	shrl	$6, %edx
	.loc	15 1741 18 is_stmt 0
	andl	$63, %edx
	.loc	15 1741 13
	orb	$-128, %dl
	movb	%dl, 1(%rcx)
	.loc	15 1742 19 is_stmt 1
	movl	-516(%rbp), %ecx
	.loc	15 1742 18 is_stmt 0
	andl	$63, %ecx
	.loc	15 1742 13
	orb	$-128, %cl
	movb	%cl, 2(%rax)
Ltmp139:
	.loc	15 1743 9 is_stmt 1
	jmp	LBB24_7
LBB24_9:
	.loc	15 1735 14
	movq	-496(%rbp), %rcx
	movq	%rcx, -184(%rbp)
	.loc	15 1735 17 is_stmt 0
	movq	-496(%rbp), %rax
	movq	%rax, %rdx
	addq	$1, %rdx
	movq	%rdx, -176(%rbp)
Ltmp140:
	.loc	15 1736 19 is_stmt 1
	movl	-516(%rbp), %edx
	shrl	$6, %edx
	.loc	15 1736 18 is_stmt 0
	andl	$31, %edx
	.loc	15 1736 13
	orb	$-64, %dl
	movb	%dl, (%rcx)
	.loc	15 1737 19 is_stmt 1
	movl	-516(%rbp), %ecx
	.loc	15 1737 18 is_stmt 0
	andl	$63, %ecx
	.loc	15 1737 13
	orb	$-128, %cl
	movb	%cl, 1(%rax)
Ltmp141:
	.loc	15 1738 9 is_stmt 1
	jmp	LBB24_7
LBB24_10:
	.loc	15 1732 14
	movq	-496(%rbp), %rax
	movq	%rax, -168(%rbp)
Ltmp142:
	.loc	15 1733 18
	movl	-516(%rbp), %ecx
	.loc	15 1733 13 is_stmt 0
	movb	%cl, (%rax)
Ltmp143:
	.loc	15 1734 9 is_stmt 1
	jmp	LBB24_7
Ltmp144:
Lfunc_end24:
	.cfi_endproc
	.p2align	2, 0x90
	.data_region jt32
.set L24_0_set_2, LBB24_2-LJTI24_0
.set L24_0_set_3, LBB24_3-LJTI24_0
.set L24_0_set_4, LBB24_4-LJTI24_0
.set L24_0_set_5, LBB24_5-LJTI24_0
LJTI24_0:
	.long	L24_0_set_2
	.long	L24_0_set_3
	.long	L24_0_set_4
	.long	L24_0_set_5
	.end_data_region

	.p2align	4, 0x90
__ZN4core4char7methods8len_utf817h688753f75003f1afE:
Lfunc_begin25:
	.loc	15 1701 0
	.cfi_startproc
	pushq	%rbp
	.cfi_def_cfa_offset 16
	.cfi_offset %rbp, -16
	movq	%rsp, %rbp
	.cfi_def_cfa_register %rbp
	subq	$24, %rsp
	movl	%edi, -20(%rbp)
	movl	%edi, -4(%rbp)
Ltmp145:
	.loc	15 1702 8 prologue_end
	cmpl	$128, %edi
	jb	LBB25_2
	.loc	15 0 8 is_stmt 0
	movl	-20(%rbp), %eax
	.loc	15 1704 15 is_stmt 1
	cmpl	$2048, %eax
	jb	LBB25_5
	jmp	LBB25_4
LBB25_2:
	.loc	15 1703 9
	movq	$1, -16(%rbp)
LBB25_3:
	.loc	15 1711 2
	movq	-16(%rbp), %rax
	addq	$24, %rsp
	popq	%rbp
	retq
LBB25_4:
	.loc	15 0 2 is_stmt 0
	movl	-20(%rbp), %eax
	.loc	15 1706 15 is_stmt 1
	cmpl	$65536, %eax
	jb	LBB25_8
	jmp	LBB25_7
LBB25_5:
	.loc	15 1705 9
	movq	$2, -16(%rbp)
LBB25_6:
	.loc	15 1702 5
	jmp	LBB25_3
LBB25_7:
	.loc	15 1709 9
	movq	$4, -16(%rbp)
	.loc	15 1706 12
	jmp	LBB25_9
LBB25_8:
	.loc	15 1707 9
	movq	$3, -16(%rbp)
LBB25_9:
	.loc	15 1704 12
	jmp	LBB25_6
Ltmp146:
Lfunc_end25:
	.cfi_endproc

	.p2align	4, 0x90
__ZN4core4hint21unreachable_unchecked17h7120179538b5d34cE:
Lfunc_begin26:
	.file	16 "/rustc/2c8cc343237b8f7d5a3c3703e3a87f2eb2c54a74/library/core/src" "hint.rs"
	.loc	16 100 0
	.cfi_startproc
	pushq	%rbp
	.cfi_def_cfa_offset 16
	.cfi_offset %rbp, -16
	movq	%rsp, %rbp
	.cfi_def_cfa_register %rbp
Ltmp147:
	.loc	16 104 9 prologue_end
	ud2
Ltmp148:
Lfunc_end26:
	.cfi_endproc

	.p2align	4, 0x90
__ZN4core5alloc6layout6Layout5array5inner17h3ded8b9e09af2743E:
Lfunc_begin27:
	.file	17 "/rustc/2c8cc343237b8f7d5a3c3703e3a87f2eb2c54a74/library/core/src/alloc" "layout.rs"
	.loc	17 441 0
	.cfi_startproc
	pushq	%rbp
	.cfi_def_cfa_offset 16
	.cfi_offset %rbp, -16
	movq	%rsp, %rbp
	.cfi_def_cfa_register %rbp
	subq	$176, %rsp
	movq	%rdi, -168(%rbp)
	movq	%rsi, -160(%rbp)
	movq	%rdx, -152(%rbp)
	movq	%rdi, -88(%rbp)
	movq	%rsi, -80(%rbp)
	movq	%rdx, -72(%rbp)
Ltmp149:
	.loc	17 452 16 prologue_end
	cmpq	$0, %rdi
	jne	LBB27_2
	movb	$0, -121(%rbp)
	jmp	LBB27_5
LBB27_2:
	.loc	17 0 16 is_stmt 0
	movq	-168(%rbp), %rax
	movq	-160(%rbp), %rcx
	.loc	17 452 68
	movq	%rcx, -64(%rbp)
Ltmp150:
	.loc	17 93 32 is_stmt 1
	movq	%rcx, -56(%rbp)
Ltmp151:
	.file	18 "/rustc/2c8cc343237b8f7d5a3c3703e3a87f2eb2c54a74/library/core/src/ptr" "alignment.rs"
	.loc	18 97 9
	movq	%rcx, -104(%rbp)
	movq	-104(%rbp), %rdx
Ltmp152:
	.loc	17 93 31
	subq	$1, %rdx
	.loc	17 93 9 is_stmt 0
	movabsq	$9223372036854775807, %rcx
	subq	%rdx, %rcx
	movq	%rcx, -176(%rbp)
Ltmp153:
	.loc	17 452 41 is_stmt 1
	cmpq	$0, %rax
	sete	%al
	testb	$1, %al
	jne	LBB27_4
	.loc	17 0 41 is_stmt 0
	movq	-168(%rbp), %rcx
	movq	-176(%rbp), %rax
	.loc	17 452 41
	xorl	%edx, %edx
	divq	%rcx
	movq	%rax, %rcx
	movq	-152(%rbp), %rax
	.loc	17 452 37
	cmpq	%rcx, %rax
	seta	%al
	.loc	17 452 16
	andb	$1, %al
	movb	%al, -121(%rbp)
	jmp	LBB27_5
LBB27_4:
	.loc	17 452 41
	leaq	_str.0(%rip), %rdi
	leaq	l___unnamed_13(%rip), %rdx
	movl	$25, %esi
	callq	__ZN4core9panicking5panic17hc1bc45270cf64b03E
LBB27_5:
	.loc	17 452 16
	testb	$1, -121(%rbp)
	jne	LBB27_7
	.loc	17 0 16
	movq	-160(%rbp), %rax
	movq	-152(%rbp), %rdx
	movq	-168(%rbp), %rcx
	.loc	17 456 30 is_stmt 1
	imulq	%rdx, %rcx
	movq	%rcx, -48(%rbp)
Ltmp154:
	.loc	17 461 59
	movq	%rcx, -40(%rbp)
	.loc	17 461 71 is_stmt 0
	movq	%rax, -32(%rbp)
Ltmp155:
	.loc	18 97 9 is_stmt 1
	movq	%rax, -96(%rbp)
	movq	-96(%rbp), %rax
	movq	%rax, -24(%rbp)
Ltmp156:
	.loc	17 120 65
	movq	%rax, -16(%rbp)
Ltmp157:
	.loc	18 89 18
	movq	%rax, -8(%rbp)
	movq	-8(%rbp), %rax
Ltmp158:
	.loc	17 120 18
	movq	%rcx, -120(%rbp)
	movq	%rax, -112(%rbp)
Ltmp159:
	.loc	17 461 22
	movq	-120(%rbp), %rcx
	movq	-112(%rbp), %rax
	movq	%rcx, -144(%rbp)
	movq	%rax, -136(%rbp)
Ltmp160:
	.loc	17 462 10
	jmp	LBB27_8
LBB27_7:
	.loc	17 453 24
	movq	$0, -136(%rbp)
LBB27_8:
	.loc	17 462 10
	movq	-144(%rbp), %rax
	movq	-136(%rbp), %rdx
	addq	$176, %rsp
	popq	%rbp
	retq
Ltmp161:
Lfunc_end27:
	.cfi_endproc

	.globl	__ZN4core6result19Result$LT$T$C$E$GT$16unwrap_unchecked17h486b7e2afa5af26cE
	.p2align	4, 0x90
__ZN4core6result19Result$LT$T$C$E$GT$16unwrap_unchecked17h486b7e2afa5af26cE:
Lfunc_begin28:
	.file	19 "/rustc/2c8cc343237b8f7d5a3c3703e3a87f2eb2c54a74/library/core/src" "result.rs"
	.loc	19 1530 0
	.cfi_startproc
	.cfi_personality 155, _rust_eh_personality
	.cfi_lsda 16, Lexception3
	pushq	%rbp
	.cfi_def_cfa_offset 16
	.cfi_offset %rbp, -16
	movq	%rsp, %rbp
	.cfi_def_cfa_register %rbp
	subq	$64, %rsp
	movq	%rdi, -48(%rbp)
	movq	%rsi, -40(%rbp)
Ltmp165:
	.loc	19 1532 15 prologue_end
	xorl	%eax, %eax
	movl	$1, %ecx
	cmpq	$0, -40(%rbp)
	cmoveq	%rcx, %rax
	.loc	19 1532 9 is_stmt 0
	cmpq	$0, %rax
	jne	LBB28_2
	.loc	19 1533 16 is_stmt 1
	movq	-48(%rbp), %rcx
	movq	%rcx, -64(%rbp)
	movq	-40(%rbp), %rax
	movq	%rax, -56(%rbp)
	movq	%rcx, -16(%rbp)
	movq	%rax, -8(%rbp)
	.loc	19 1537 5
	xorl	%eax, %eax
	movl	$1, %ecx
	cmpq	$0, -40(%rbp)
	cmoveq	%rcx, %rax
	cmpq	$0, %rax
	je	LBB28_10
	jmp	LBB28_11
LBB28_2:
Ltmp162:
	.loc	19 1535 32
	callq	__ZN4core4hint21unreachable_unchecked17h7120179538b5d34cE
Ltmp163:
	jmp	LBB28_5
LBB28_3:
	.loc	19 1537 5
	xorl	%eax, %eax
	movl	$1, %ecx
	cmpq	$0, -40(%rbp)
	cmoveq	%rcx, %rax
	cmpq	$0, %rax
	je	LBB28_6
	jmp	LBB28_7
LBB28_4:
Ltmp164:
	.loc	19 0 5 is_stmt 0
	movq	%rax, %rcx
	movl	%edx, %eax
	movq	%rcx, -32(%rbp)
	movl	%eax, -24(%rbp)
	jmp	LBB28_3
LBB28_5:
	ud2
LBB28_6:
	.loc	19 1537 5
	movb	$1, %al
	testb	$1, %al
	jne	LBB28_9
	jmp	LBB28_8
LBB28_7:
	jmp	LBB28_8
LBB28_8:
	.loc	19 1530 5 is_stmt 1
	movq	-32(%rbp), %rdi
	callq	__Unwind_Resume
LBB28_9:
	.loc	19 1537 5
	jmp	LBB28_8
LBB28_10:
	.loc	19 0 5 is_stmt 0
	movq	-56(%rbp), %rdx
	movq	-64(%rbp), %rax
	.loc	19 1537 6
	addq	$64, %rsp
	popq	%rbp
	retq
LBB28_11:
	.loc	19 1537 5
	jmp	LBB28_10
Ltmp166:
Lfunc_end28:
	.cfi_endproc
	.section	__TEXT,__gcc_except_tab
	.p2align	2
GCC_except_table28:
Lexception3:
	.byte	255
	.byte	255
	.byte	1
	.uleb128 Lcst_end3-Lcst_begin3
Lcst_begin3:
	.uleb128 Ltmp162-Lfunc_begin28
	.uleb128 Ltmp163-Ltmp162
	.uleb128 Ltmp164-Lfunc_begin28
	.byte	0
	.uleb128 Ltmp163-Lfunc_begin28
	.uleb128 Lfunc_end28-Ltmp163
	.byte	0
	.byte	0
Lcst_end3:
	.p2align	2

	.section	__TEXT,__text,regular,pure_instructions
	.globl	__ZN4core6result19Result$LT$T$C$E$GT$6expect17hc4664afac288c5b4E
	.p2align	4, 0x90
__ZN4core6result19Result$LT$T$C$E$GT$6expect17hc4664afac288c5b4E:
Lfunc_begin29:
	.loc	19 1063 0 is_stmt 1
	.cfi_startproc
	.cfi_personality 155, _rust_eh_personality
	.cfi_lsda 16, Lexception4
	pushq	%rbp
	.cfi_def_cfa_offset 16
	.cfi_offset %rbp, -16
	movq	%rsp, %rbp
	.cfi_def_cfa_register %rbp
	subq	$80, %rsp
	movq	%rcx, -80(%rbp)
	movq	%rdx, -72(%rbp)
	movq	%rsi, -64(%rbp)
	movb	%dil, %al
	andb	$1, %al
	movb	%al, -49(%rbp)
	movq	%rsi, -32(%rbp)
	movq	%rdx, -24(%rbp)
Ltmp170:
	.loc	19 1067 15 prologue_end
	movb	-49(%rbp), %al
	andb	$1, %al
	movzbl	%al, %eax
	.loc	19 1067 9 is_stmt 0
	cmpq	$0, %rax
	jne	LBB29_2
	.loc	19 1071 6 is_stmt 1
	addq	$80, %rsp
	popq	%rbp
	retq
LBB29_2:
Ltmp167:
	.loc	19 0 6 is_stmt 0
	movq	-80(%rbp), %r8
	movq	-72(%rbp), %rsi
	movq	-64(%rbp), %rdi
Ltmp171:
	.loc	19 1069 23 is_stmt 1
	leaq	l___unnamed_3(%rip), %rcx
	leaq	-48(%rbp), %rdx
	callq	__ZN4core6result13unwrap_failed17h533573e6d3b6061cE
Ltmp168:
	jmp	LBB29_5
Ltmp172:
LBB29_3:
	.loc	19 1063 5
	movq	-16(%rbp), %rdi
	callq	__Unwind_Resume
Ltmp173:
LBB29_4:
Ltmp169:
	.loc	19 0 5 is_stmt 0
	movq	%rax, %rcx
	movl	%edx, %eax
	movq	%rcx, -16(%rbp)
	movl	%eax, -8(%rbp)
	jmp	LBB29_3
LBB29_5:
	ud2
Lfunc_end29:
	.cfi_endproc
	.section	__TEXT,__gcc_except_tab
	.p2align	2
GCC_except_table29:
Lexception4:
	.byte	255
	.byte	255
	.byte	1
	.uleb128 Lcst_end4-Lcst_begin4
Lcst_begin4:
	.uleb128 Ltmp167-Lfunc_begin29
	.uleb128 Ltmp168-Ltmp167
	.uleb128 Ltmp169-Lfunc_begin29
	.byte	0
	.uleb128 Ltmp168-Lfunc_begin29
	.uleb128 Lfunc_end29-Ltmp168
	.byte	0
	.byte	0
Lcst_end4:
	.p2align	2

	.section	__TEXT,__text,regular,pure_instructions
	.globl	__ZN4core6result19Result$LT$T$C$E$GT$7map_err17h1fa4b2ea7ac29bb6E
	.p2align	4, 0x90
__ZN4core6result19Result$LT$T$C$E$GT$7map_err17h1fa4b2ea7ac29bb6E:
Lfunc_begin30:
	.loc	19 857 0 is_stmt 1
	.cfi_startproc
	pushq	%rbp
	.cfi_def_cfa_offset 16
	.cfi_offset %rbp, -16
	movq	%rsp, %rbp
	.cfi_def_cfa_register %rbp
	subq	$80, %rsp
	movq	%rdi, -72(%rbp)
	movq	%rdi, -64(%rbp)
	movq	%rsi, -56(%rbp)
	movq	%rdx, -48(%rbp)
Ltmp174:
	.loc	19 858 15 prologue_end
	movb	$1, -33(%rbp)
	xorl	%eax, %eax
	movl	$1, %ecx
	cmpq	$0, -48(%rbp)
	cmoveq	%rcx, %rax
	.loc	19 858 9 is_stmt 0
	cmpq	$0, %rax
	jne	LBB30_2
	.loc	19 0 9
	movq	-72(%rbp), %rax
	.loc	19 859 16 is_stmt 1
	movq	-56(%rbp), %rdx
	movq	-48(%rbp), %rcx
	movq	%rdx, -16(%rbp)
	movq	%rcx, -8(%rbp)
Ltmp175:
	.loc	19 859 22 is_stmt 0
	movq	%rdx, 8(%rax)
	movq	%rcx, 16(%rax)
	movq	$0, (%rax)
Ltmp176:
	.loc	19 859 26
	jmp	LBB30_3
LBB30_2:
Ltmp177:
	.loc	19 860 27 is_stmt 1
	movb	$0, -33(%rbp)
	callq	__ZN5alloc7raw_vec11finish_grow28_$u7b$$u7b$closure$u7d$$u7d$17hda5d2e5fcba15269E
	movq	%rax, %rcx
	movq	-72(%rbp), %rax
	.loc	19 860 23 is_stmt 0
	movq	%rcx, 8(%rax)
	movq	%rdx, 16(%rax)
	movq	$1, (%rax)
Ltmp178:
LBB30_3:
	.loc	19 862 5 is_stmt 1
	testb	$1, -33(%rbp)
	jne	LBB30_5
LBB30_4:
	.loc	19 0 5 is_stmt 0
	movq	-64(%rbp), %rax
	.loc	19 862 6
	addq	$80, %rsp
	popq	%rbp
	retq
LBB30_5:
	.loc	19 862 5
	jmp	LBB30_4
Ltmp179:
Lfunc_end30:
	.cfi_endproc

	.globl	__ZN4core6result19Result$LT$T$C$E$GT$7map_err17hba7f10f7dd57e3a5E
	.p2align	4, 0x90
__ZN4core6result19Result$LT$T$C$E$GT$7map_err17hba7f10f7dd57e3a5E:
Lfunc_begin31:
	.loc	19 857 0 is_stmt 1
	.cfi_startproc
	pushq	%rbp
	.cfi_def_cfa_offset 16
	.cfi_offset %rbp, -16
	movq	%rsp, %rbp
	.cfi_def_cfa_register %rbp
	subq	$96, %rsp
	movq	%rdi, -88(%rbp)
	movq	%rsi, -80(%rbp)
Ltmp180:
	.loc	19 858 15 prologue_end
	movb	$1, -33(%rbp)
	movabsq	$-9223372036854775807, %rdx
	movl	$1, %eax
	xorl	%ecx, %ecx
	cmpq	%rdx, -80(%rbp)
	cmoveq	%rcx, %rax
	.loc	19 858 9 is_stmt 0
	cmpq	$0, %rax
	jne	LBB31_2
Ltmp181:
	.loc	19 859 22 is_stmt 1
	movabsq	$-9223372036854775807, %rax
	movq	%rax, -64(%rbp)
Ltmp182:
	.loc	19 859 26 is_stmt 0
	jmp	LBB31_3
LBB31_2:
	.loc	19 860 17 is_stmt 1
	movq	-88(%rbp), %rcx
	movq	-80(%rbp), %rax
	movq	%rcx, -16(%rbp)
	movq	%rax, -8(%rbp)
Ltmp183:
	.loc	19 860 27 is_stmt 0
	movb	$0, -33(%rbp)
	movq	%rcx, -56(%rbp)
	movq	%rax, -48(%rbp)
	movq	-56(%rbp), %rdi
	movq	-48(%rbp), %rsi
	callq	__ZN5alloc7raw_vec14handle_reserve28_$u7b$$u7b$closure$u7d$$u7d$17h8afedf257970e879E
	.loc	19 860 23
	movq	%rax, -72(%rbp)
	movq	%rdx, -64(%rbp)
Ltmp184:
LBB31_3:
	.loc	19 862 5 is_stmt 1
	testb	$1, -33(%rbp)
	jne	LBB31_5
LBB31_4:
	.loc	19 862 6 is_stmt 0
	movq	-72(%rbp), %rax
	movq	-64(%rbp), %rdx
	addq	$96, %rsp
	popq	%rbp
	retq
LBB31_5:
	.loc	19 862 5
	jmp	LBB31_4
Ltmp185:
Lfunc_end31:
	.cfi_endproc

	.globl	__ZN4core6result19Result$LT$T$C$E$GT$7map_err17hc425c872651cae0fE
	.p2align	4, 0x90
__ZN4core6result19Result$LT$T$C$E$GT$7map_err17hc425c872651cae0fE:
Lfunc_begin32:
	.loc	19 857 0 is_stmt 1
	.cfi_startproc
	pushq	%rbp
	.cfi_def_cfa_offset 16
	.cfi_offset %rbp, -16
	movq	%rsp, %rbp
	.cfi_def_cfa_register %rbp
	subq	$80, %rsp
	movq	%rcx, -80(%rbp)
	movq	%rdi, -72(%rbp)
	movq	%rdi, -64(%rbp)
	movq	%rsi, -56(%rbp)
	movq	%rdx, -48(%rbp)
	movq	%rcx, -32(%rbp)
Ltmp186:
	.loc	19 858 15 prologue_end
	movb	$1, -33(%rbp)
	movq	-56(%rbp), %rdx
	xorl	%eax, %eax
	movl	$1, %ecx
	cmpq	$0, %rdx
	cmoveq	%rcx, %rax
	.loc	19 858 9 is_stmt 0
	cmpq	$0, %rax
	jne	LBB32_2
	.loc	19 0 9
	movq	-72(%rbp), %rax
	.loc	19 859 16 is_stmt 1
	movq	-56(%rbp), %rdx
	movq	-48(%rbp), %rcx
	movq	%rdx, -16(%rbp)
	movq	%rcx, -8(%rbp)
Ltmp187:
	.loc	19 859 22 is_stmt 0
	movq	%rdx, 8(%rax)
	movq	%rcx, 16(%rax)
	movq	$0, (%rax)
Ltmp188:
	.loc	19 859 26
	jmp	LBB32_3
LBB32_2:
	.loc	19 0 26
	movq	-80(%rbp), %rdi
Ltmp189:
	.loc	19 860 27 is_stmt 1
	movb	$0, -33(%rbp)
	callq	__ZN5alloc7raw_vec11finish_grow28_$u7b$$u7b$closure$u7d$$u7d$17h8d7111a55372a28fE
	movq	%rax, %rcx
	movq	-72(%rbp), %rax
	.loc	19 860 23 is_stmt 0
	movq	%rcx, 8(%rax)
	movq	%rdx, 16(%rax)
	movq	$1, (%rax)
Ltmp190:
LBB32_3:
	.loc	19 862 5 is_stmt 1
	testb	$1, -33(%rbp)
	jne	LBB32_5
LBB32_4:
	.loc	19 0 5 is_stmt 0
	movq	-64(%rbp), %rax
	.loc	19 862 6
	addq	$80, %rsp
	popq	%rbp
	retq
LBB32_5:
	.loc	19 862 5
	jmp	LBB32_4
Ltmp191:
Lfunc_end32:
	.cfi_endproc

	.globl	__ZN50_$LT$$RF$mut$u20$W$u20$as$u20$core..fmt..Write$GT$10write_char17hb67b72ddf6e1dad3E
	.p2align	4, 0x90
__ZN50_$LT$$RF$mut$u20$W$u20$as$u20$core..fmt..Write$GT$10write_char17hb67b72ddf6e1dad3E:
Lfunc_begin33:
	.loc	9 207 0 is_stmt 1
	.cfi_startproc
	pushq	%rbp
	.cfi_def_cfa_offset 16
	.cfi_offset %rbp, -16
	movq	%rsp, %rbp
	.cfi_def_cfa_register %rbp
	subq	$16, %rsp
	movq	%rdi, -16(%rbp)
	movl	%esi, -4(%rbp)
Ltmp192:
	.loc	9 208 9 prologue_end
	movq	(%rdi), %rdi
	callq	__ZN58_$LT$alloc..string..String$u20$as$u20$core..fmt..Write$GT$10write_char17ha8f23b806611accaE
	.loc	9 209 6
	andb	$1, %al
	movzbl	%al, %eax
	addq	$16, %rsp
	popq	%rbp
	retq
Ltmp193:
Lfunc_end33:
	.cfi_endproc

	.globl	__ZN50_$LT$$RF$mut$u20$W$u20$as$u20$core..fmt..Write$GT$9write_fmt17h4122d909f2cefbc4E
	.p2align	4, 0x90
__ZN50_$LT$$RF$mut$u20$W$u20$as$u20$core..fmt..Write$GT$9write_fmt17h4122d909f2cefbc4E:
Lfunc_begin34:
	.loc	9 211 0
	.cfi_startproc
	pushq	%rbp
	.cfi_def_cfa_offset 16
	.cfi_offset %rbp, -16
	movq	%rsp, %rbp
	.cfi_def_cfa_register %rbp
	subq	$64, %rsp
	movq	%rdi, -8(%rbp)
Ltmp194:
	.loc	9 212 9 prologue_end
	movq	(%rdi), %rax
	movq	%rax, -64(%rbp)
	.loc	9 212 28 is_stmt 0
	leaq	-56(%rbp), %rdi
	movl	$48, %edx
	callq	_memcpy
Ltmp195:
	.loc	9 0 28
	movq	-64(%rbp), %rdi
	.loc	9 212 9
	leaq	-56(%rbp), %rsi
	callq	__ZN4core3fmt5Write9write_fmt17h2d09a1e9fc54107fE
	.loc	9 213 6 is_stmt 1
	andb	$1, %al
	movzbl	%al, %eax
	addq	$64, %rsp
	popq	%rbp
	retq
Ltmp196:
Lfunc_end34:
	.cfi_endproc

	.globl	__ZN50_$LT$$RF$mut$u20$W$u20$as$u20$core..fmt..Write$GT$9write_str17h7248abcc0d1d125fE
	.p2align	4, 0x90
__ZN50_$LT$$RF$mut$u20$W$u20$as$u20$core..fmt..Write$GT$9write_str17h7248abcc0d1d125fE:
Lfunc_begin35:
	.loc	9 203 0
	.cfi_startproc
	pushq	%rbp
	.cfi_def_cfa_offset 16
	.cfi_offset %rbp, -16
	movq	%rsp, %rbp
	.cfi_def_cfa_register %rbp
	subq	$32, %rsp
	movq	%rdi, -24(%rbp)
	movq	%rsi, -16(%rbp)
	movq	%rdx, -8(%rbp)
Ltmp197:
	.loc	9 204 9 prologue_end
	movq	(%rdi), %rdi
	callq	__ZN58_$LT$alloc..string..String$u20$as$u20$core..fmt..Write$GT$9write_str17hb97ed28f2a5441e6E
	.loc	9 205 6
	andb	$1, %al
	movzbl	%al, %eax
	addq	$32, %rsp
	popq	%rbp
	retq
Ltmp198:
Lfunc_end35:
	.cfi_endproc

	.globl	__ZN50_$LT$T$u20$as$u20$core..convert..Into$LT$U$GT$$GT$4into17h1531a595d6d51a78E
	.p2align	4, 0x90
__ZN50_$LT$T$u20$as$u20$core..convert..Into$LT$U$GT$$GT$4into17h1531a595d6d51a78E:
Lfunc_begin36:
	.file	20 "/rustc/2c8cc343237b8f7d5a3c3703e3a87f2eb2c54a74/library/core/src/convert" "mod.rs"
	.loc	20 725 0
	.cfi_startproc
	pushq	%rbp
	.cfi_def_cfa_offset 16
	.cfi_offset %rbp, -16
	movq	%rsp, %rbp
	.cfi_def_cfa_register %rbp
	subq	$16, %rsp
	movq	%rdi, -16(%rbp)
	movq	%rsi, -8(%rbp)
Ltmp199:
	.loc	20 726 9 prologue_end
	callq	__ZN122_$LT$alloc..collections..TryReserveError$u20$as$u20$core..convert..From$LT$alloc..collections..TryReserveErrorKind$GT$$GT$4from17h509d66b2e3fa1849E
	.loc	20 727 6
	addq	$16, %rsp
	popq	%rbp
	retq
Ltmp200:
Lfunc_end36:
	.cfi_endproc

	.globl	__ZN50_$LT$T$u20$as$u20$core..convert..Into$LT$U$GT$$GT$4into17hf5f394f472dfa2f2E
	.p2align	4, 0x90
__ZN50_$LT$T$u20$as$u20$core..convert..Into$LT$U$GT$$GT$4into17hf5f394f472dfa2f2E:
Lfunc_begin37:
	.loc	20 725 0
	.cfi_startproc
	pushq	%rbp
	.cfi_def_cfa_offset 16
	.cfi_offset %rbp, -16
	movq	%rsp, %rbp
	.cfi_def_cfa_register %rbp
	subq	$16, %rsp
	movq	%rdi, -8(%rbp)
Ltmp201:
	.loc	20 726 9 prologue_end
	callq	__ZN119_$LT$core..ptr..non_null..NonNull$LT$T$GT$$u20$as$u20$core..convert..From$LT$core..ptr..unique..Unique$LT$T$GT$$GT$$GT$4from17h64f1e67f330258efE
	.loc	20 727 6
	addq	$16, %rsp
	popq	%rbp
	retq
Ltmp202:
Lfunc_end37:
	.cfi_endproc

	.p2align	4, 0x90
__ZN58_$LT$alloc..string..String$u20$as$u20$core..fmt..Write$GT$10write_char17ha8f23b806611accaE:
Lfunc_begin38:
	.loc	10 2879 0
	.cfi_startproc
	pushq	%rbp
	.cfi_def_cfa_offset 16
	.cfi_offset %rbp, -16
	movq	%rsp, %rbp
	.cfi_def_cfa_register %rbp
	subq	$32, %rsp
	movq	%rdi, -16(%rbp)
	movl	%esi, -4(%rbp)
Ltmp203:
	.loc	10 2880 9 prologue_end
	callq	__ZN5alloc6string6String4push17h76fd3676e9d43ac7E
	.loc	10 2881 9
	movb	$0, -17(%rbp)
	.loc	10 2882 6
	movb	-17(%rbp), %al
	andb	$1, %al
	movzbl	%al, %eax
	addq	$32, %rsp
	popq	%rbp
	retq
Ltmp204:
Lfunc_end38:
	.cfi_endproc

	.p2align	4, 0x90
__ZN58_$LT$alloc..string..String$u20$as$u20$core..fmt..Write$GT$9write_str17hb97ed28f2a5441e6E:
Lfunc_begin39:
	.loc	10 2873 0
	.cfi_startproc
	pushq	%rbp
	.cfi_def_cfa_offset 16
	.cfi_offset %rbp, -16
	movq	%rsp, %rbp
	.cfi_def_cfa_register %rbp
	subq	$96, %rsp
	movq	%rdi, -80(%rbp)
	movq	%rsi, -72(%rbp)
	movq	%rdx, -64(%rbp)
Ltmp205:
	.loc	10 2874 9 prologue_end
	movq	%rdi, -56(%rbp)
	.loc	10 2874 23 is_stmt 0
	movq	%rsi, -48(%rbp)
	movq	%rdx, -40(%rbp)
Ltmp206:
	.loc	10 926 36 is_stmt 1
	movq	%rsi, -32(%rbp)
	movq	%rdx, -24(%rbp)
Ltmp207:
	.file	21 "/rustc/2c8cc343237b8f7d5a3c3703e3a87f2eb2c54a74/library/core/src/str" "mod.rs"
	.loc	21 327 18
	movq	%rsi, -16(%rbp)
	movq	%rdx, -8(%rbp)
	movq	-16(%rbp), %rsi
	movq	-8(%rbp), %rdx
Ltmp208:
	.loc	10 926 9
	callq	__ZN5alloc3vec16Vec$LT$T$C$A$GT$17extend_from_slice17h4a3b72f998629893E
Ltmp209:
	.loc	10 2875 9
	movb	$0, -81(%rbp)
	.loc	10 2876 6
	movb	-81(%rbp), %al
	andb	$1, %al
	movzbl	%al, %eax
	addq	$96, %rsp
	popq	%rbp
	retq
Ltmp210:
Lfunc_end39:
	.cfi_endproc

	.globl	__ZN5alloc3vec16Vec$LT$T$C$A$GT$15append_elements17hea7c317763b1feb6E
	.p2align	4, 0x90
__ZN5alloc3vec16Vec$LT$T$C$A$GT$15append_elements17hea7c317763b1feb6E:
Lfunc_begin40:
	.loc	11 1950 0
	.cfi_startproc
	pushq	%rbp
	.cfi_def_cfa_offset 16
	.cfi_offset %rbp, -16
	movq	%rsp, %rbp
	.cfi_def_cfa_register %rbp
	subq	$224, %rsp
	movq	%rdx, -224(%rbp)
	movq	%rsi, %rax
	movq	-224(%rbp), %rsi
	movq	%rdi, -200(%rbp)
	movq	%rax, -216(%rbp)
	movq	%rsi, -208(%rbp)
	movq	%rdi, -184(%rbp)
	movq	%rax, -176(%rbp)
	movq	%rsi, -168(%rbp)
Ltmp211:
	.loc	11 1951 30 prologue_end
	movq	%rsi, -160(%rbp)
Ltmp212:
	.loc	11 1952 9
	callq	__ZN5alloc3vec16Vec$LT$T$C$A$GT$7reserve17hcdeebbea71df2178E
	movq	-216(%rbp), %rsi
	movq	-208(%rbp), %rdx
	movq	-200(%rbp), %rdi
	.loc	11 1953 19
	movq	%rdi, -152(%rbp)
Ltmp213:
	.loc	11 2062 9
	movq	16(%rdi), %rcx
	movq	%rcx, -144(%rbp)
Ltmp214:
	.loc	11 1954 43
	movq	%rsi, -136(%rbp)
	.loc	11 1954 62 is_stmt 0
	movq	%rdi, -128(%rbp)
Ltmp215:
	.loc	11 1280 19 is_stmt 1
	movq	%rdi, -120(%rbp)
Ltmp216:
	.file	22 "/rustc/2c8cc343237b8f7d5a3c3703e3a87f2eb2c54a74/library/alloc/src" "raw_vec.rs"
	.loc	22 224 9
	movq	8(%rdi), %rax
	movq	%rax, -112(%rbp)
Ltmp217:
	.loc	6 104 9
	movq	%rax, -104(%rbp)
Ltmp218:
	.loc	5 326 9
	movq	%rax, -96(%rbp)
Ltmp219:
	.loc	11 1282 21
	movq	%rax, -88(%rbp)
Ltmp220:
	.loc	2 52 36
	movq	%rax, -192(%rbp)
	.loc	2 52 18 is_stmt 0
	movq	-192(%rbp), %rdi
	movq	%rdi, -80(%rbp)
Ltmp221:
	.loc	2 38 13 is_stmt 1
	movq	%rdi, -72(%rbp)
Ltmp222:
	.loc	2 215 33
	movq	%rdi, -64(%rbp)
	.loc	2 215 18 is_stmt 0
	movq	%rdi, -56(%rbp)
Ltmp223:
	.loc	11 1954 84 is_stmt 1
	movq	%rcx, -48(%rbp)
Ltmp224:
	.loc	2 1034 18
	movq	%rax, -40(%rbp)
	.loc	2 1034 30 is_stmt 0
	movq	%rcx, -32(%rbp)
Ltmp225:
	.loc	2 487 18 is_stmt 1
	addq	%rcx, %rax
	movq	%rax, -24(%rbp)
	movq	-24(%rbp), %rdi
	movq	%rdi, -16(%rbp)
Ltmp226:
	.loc	11 1954 90
	movq	%rdx, -8(%rbp)
Ltmp227:
	.file	23 "/rustc/2c8cc343237b8f7d5a3c3703e3a87f2eb2c54a74/library/core/src" "intrinsics.rs"
	.loc	23 2372 9
	shlq	$0, %rdx
	callq	_memcpy
	movq	-208(%rbp), %rdx
	movq	-200(%rbp), %rdi
Ltmp228:
	.loc	11 1955 9
	addq	16(%rdi), %rdx
	movq	%rdx, 16(%rdi)
Ltmp229:
	.loc	11 1956 6
	addq	$224, %rsp
	popq	%rbp
	retq
Ltmp230:
Lfunc_end40:
	.cfi_endproc

	.globl	__ZN5alloc3vec16Vec$LT$T$C$A$GT$17extend_from_slice17h4a3b72f998629893E
	.p2align	4, 0x90
__ZN5alloc3vec16Vec$LT$T$C$A$GT$17extend_from_slice17h4a3b72f998629893E:
Lfunc_begin41:
	.loc	11 2397 0
	.cfi_startproc
	pushq	%rbp
	.cfi_def_cfa_offset 16
	.cfi_offset %rbp, -16
	movq	%rsp, %rbp
	.cfi_def_cfa_register %rbp
	subq	$64, %rsp
	movq	%rdx, -64(%rbp)
	movq	%rsi, %rax
	movq	-64(%rbp), %rsi
	movq	%rax, -56(%rbp)
	movq	%rdi, %rax
	movq	-56(%rbp), %rdi
	movq	%rax, -48(%rbp)
	movq	%rax, -40(%rbp)
	movq	%rdi, -32(%rbp)
	movq	%rsi, -24(%rbp)
Ltmp231:
	.loc	11 2398 26 prologue_end
	movq	%rdi, -16(%rbp)
	movq	%rsi, -8(%rbp)
Ltmp232:
	.file	24 "/rustc/2c8cc343237b8f7d5a3c3703e3a87f2eb2c54a74/library/core/src/slice" "mod.rs"
	.loc	24 742 9
	callq	__ZN4core5slice4iter13Iter$LT$T$GT$3new17hdeeaf60433ad8842E
	movq	-48(%rbp), %rdi
	movq	%rax, %rsi
Ltmp233:
	.loc	11 2398 9
	callq	__ZN132_$LT$alloc..vec..Vec$LT$T$C$A$GT$$u20$as$u20$alloc..vec..spec_extend..SpecExtend$LT$$RF$T$C$core..slice..iter..Iter$LT$T$GT$$GT$$GT$11spec_extend17hb6f085e35ea5aa53E
	.loc	11 2399 6
	addq	$64, %rsp
	popq	%rbp
	retq
Ltmp234:
Lfunc_end41:
	.cfi_endproc

	.globl	__ZN5alloc3vec16Vec$LT$T$C$A$GT$4push17h6f80135ed6d9ebadE
	.p2align	4, 0x90
__ZN5alloc3vec16Vec$LT$T$C$A$GT$4push17h6f80135ed6d9ebadE:
Lfunc_begin42:
	.loc	11 1836 0
	.cfi_startproc
	.cfi_personality 155, _rust_eh_personality
	.cfi_lsda 16, Lexception5
	pushq	%rbp
	.cfi_def_cfa_offset 16
	.cfi_offset %rbp, -16
	movq	%rsp, %rbp
	.cfi_def_cfa_register %rbp
	subq	$240, %rsp
	movq	%rdi, -216(%rbp)
	movb	%sil, %al
	movb	%al, -201(%rbp)
	movq	%rdi, -168(%rbp)
	movb	%al, -153(%rbp)
Ltmp238:
	.loc	11 1839 12 prologue_end
	movq	16(%rdi), %rax
	movq	%rax, -200(%rbp)
	.loc	11 1839 24 is_stmt 0
	movq	%rdi, -152(%rbp)
Ltmp239:
	.loc	22 232 12 is_stmt 1
	xorl	%eax, %eax
	testb	$1, %al
	jne	LBB42_2
	.loc	22 0 12 is_stmt 0
	movq	-216(%rbp), %rax
	.loc	22 232 44
	movq	(%rax), %rax
	movq	%rax, -192(%rbp)
	.loc	22 232 9
	jmp	LBB42_3
LBB42_2:
	.loc	22 232 24
	movq	$-1, -192(%rbp)
Ltmp240:
LBB42_3:
	.loc	22 0 24
	movq	-200(%rbp), %rax
	.loc	11 1839 12 is_stmt 1
	cmpq	-192(%rbp), %rax
	je	LBB42_5
LBB42_4:
	.loc	11 0 12 is_stmt 0
	movq	-216(%rbp), %rax
	.loc	11 1843 23 is_stmt 1
	movq	%rax, -128(%rbp)
Ltmp241:
	.loc	11 1280 19
	movq	%rax, -120(%rbp)
Ltmp242:
	.loc	22 224 9
	movq	8(%rax), %rax
	movq	%rax, -224(%rbp)
	movq	%rax, -112(%rbp)
Ltmp243:
	.loc	6 104 9
	movq	%rax, -104(%rbp)
Ltmp244:
	.loc	5 326 9
	movq	%rax, -96(%rbp)
Ltmp245:
	.loc	11 1282 21
	movq	%rax, -88(%rbp)
Ltmp246:
	.loc	2 52 36
	movq	%rax, -176(%rbp)
	.loc	2 52 18 is_stmt 0
	movq	-176(%rbp), %rax
	movq	%rax, -80(%rbp)
Ltmp247:
	.loc	2 38 13 is_stmt 1
	movq	%rax, -72(%rbp)
Ltmp248:
	.loc	2 215 33
	movq	%rax, -64(%rbp)
	.loc	2 215 18 is_stmt 0
	movq	%rax, -56(%rbp)
	movq	-56(%rbp), %rax
	jmp	LBB42_9
Ltmp249:
LBB42_5:
	.loc	2 0 18
	movq	-216(%rbp), %rdi
	.loc	11 1840 39 is_stmt 1
	movq	16(%rdi), %rsi
Ltmp235:
	.loc	11 1840 13 is_stmt 0
	callq	__ZN5alloc7raw_vec19RawVec$LT$T$C$A$GT$16reserve_for_push17h8bfa77d7f4732594E
Ltmp236:
	jmp	LBB42_8
LBB42_6:
	.loc	11 1847 5 is_stmt 1
	movb	$1, %al
	testb	$1, %al
	jne	LBB42_12
	jmp	LBB42_11
LBB42_7:
Ltmp237:
	.loc	11 0 5 is_stmt 0
	movq	%rax, %rcx
	movl	%edx, %eax
	movq	%rcx, -144(%rbp)
	movl	%eax, -136(%rbp)
	jmp	LBB42_6
LBB42_8:
	.loc	11 1839 9 is_stmt 1
	jmp	LBB42_4
LBB42_9:
	.loc	11 0 9 is_stmt 0
	movq	-224(%rbp), %rax
	movq	-216(%rbp), %rcx
	.loc	11 1843 45 is_stmt 1
	movq	16(%rcx), %rcx
	movq	%rcx, -48(%rbp)
Ltmp250:
	.loc	2 1034 18
	movq	%rax, -40(%rbp)
	.loc	2 1034 30 is_stmt 0
	movq	%rcx, -32(%rbp)
Ltmp251:
	.loc	2 487 18 is_stmt 1
	addq	%rcx, %rax
	movq	%rax, -24(%rbp)
	movq	-24(%rbp), %rax
	movq	%rax, -232(%rbp)
	.loc	2 0 18 is_stmt 0
	movq	-216(%rbp), %rax
	movq	-232(%rbp), %rcx
	movb	-201(%rbp), %dl
	.loc	2 487 18
	movq	%rcx, -16(%rbp)
Ltmp252:
	.loc	11 1844 24 is_stmt 1
	movq	%rcx, -8(%rbp)
	.loc	11 1844 29 is_stmt 0
	movb	%dl, -177(%rbp)
Ltmp253:
	.loc	3 1354 9 is_stmt 1
	movb	-177(%rbp), %dl
	movb	%dl, (%rcx)
Ltmp254:
	.loc	11 1845 13
	movq	16(%rax), %rcx
	addq	$1, %rcx
	movq	%rcx, 16(%rax)
Ltmp255:
	.loc	11 1847 6
	addq	$240, %rsp
	popq	%rbp
	retq
LBB42_11:
	.loc	11 1836 5
	movq	-144(%rbp), %rdi
	callq	__Unwind_Resume
LBB42_12:
	.loc	11 1847 5
	jmp	LBB42_11
Ltmp256:
Lfunc_end42:
	.cfi_endproc
	.section	__TEXT,__gcc_except_tab
	.p2align	2
GCC_except_table42:
Lexception5:
	.byte	255
	.byte	255
	.byte	1
	.uleb128 Lcst_end5-Lcst_begin5
Lcst_begin5:
	.uleb128 Ltmp235-Lfunc_begin42
	.uleb128 Ltmp236-Ltmp235
	.uleb128 Ltmp237-Lfunc_begin42
	.byte	0
	.uleb128 Ltmp236-Lfunc_begin42
	.uleb128 Lfunc_end42-Ltmp236
	.byte	0
	.byte	0
Lcst_end5:
	.p2align	2

	.section	__TEXT,__text,regular,pure_instructions
	.globl	__ZN5alloc3vec16Vec$LT$T$C$A$GT$7reserve17hcdeebbea71df2178E
	.p2align	4, 0x90
__ZN5alloc3vec16Vec$LT$T$C$A$GT$7reserve17hcdeebbea71df2178E:
Lfunc_begin43:
	.loc	11 911 0
	.cfi_startproc
	pushq	%rbp
	.cfi_def_cfa_offset 16
	.cfi_offset %rbp, -16
	movq	%rsp, %rbp
	.cfi_def_cfa_register %rbp
	subq	$16, %rsp
	movq	%rsi, %rdx
	movq	%rdi, -16(%rbp)
	movq	%rdx, -8(%rbp)
Ltmp257:
	.loc	11 912 26 prologue_end
	movq	16(%rdi), %rsi
	.loc	11 912 9 is_stmt 0
	callq	__ZN5alloc7raw_vec19RawVec$LT$T$C$A$GT$7reserve17hab672a3aaaf161ccE
	.loc	11 913 6 is_stmt 1
	addq	$16, %rsp
	popq	%rbp
	retq
Ltmp258:
Lfunc_end43:
	.cfi_endproc

	.p2align	4, 0x90
__ZN5alloc5alloc6Global10alloc_impl17h6d763db28114451cE:
Lfunc_begin44:
	.file	25 "/rustc/2c8cc343237b8f7d5a3c3703e3a87f2eb2c54a74/library/alloc/src" "alloc.rs"
	.loc	25 172 0
	.cfi_startproc
	pushq	%rbp
	.cfi_def_cfa_offset 16
	.cfi_offset %rbp, -16
	movq	%rsp, %rbp
	.cfi_def_cfa_register %rbp
	subq	$352, %rsp
	movb	%cl, %al
	movb	%al, -345(%rbp)
	movq	%rsi, -336(%rbp)
	movq	%rdx, -328(%rbp)
	movq	%rdi, -208(%rbp)
	andb	$1, %al
	movb	%al, -193(%rbp)
Ltmp259:
	.loc	25 173 15 prologue_end
	leaq	-336(%rbp), %rax
	movq	%rax, -144(%rbp)
Ltmp260:
	.loc	17 129 9
	movq	-336(%rbp), %rax
	movq	%rax, -344(%rbp)
Ltmp261:
	.loc	25 173 9
	cmpq	$0, %rax
	jne	LBB44_2
	.loc	25 174 51
	leaq	-336(%rbp), %rax
	movq	%rax, -48(%rbp)
Ltmp262:
	.loc	17 216 71
	leaq	-336(%rbp), %rax
	movq	%rax, -40(%rbp)
Ltmp263:
	.loc	17 140 9
	movq	-328(%rbp), %rax
	movq	%rax, -32(%rbp)
Ltmp264:
	.loc	18 97 9
	movq	%rax, -232(%rbp)
	movq	-232(%rbp), %rax
	movq	%rax, -24(%rbp)
Ltmp265:
	.loc	3 599 14
	movq	%rax, -16(%rbp)
	movq	-16(%rbp), %rax
	movq	%rax, -8(%rbp)
Ltmp266:
	.loc	5 201 13
	movq	%rax, -304(%rbp)
Ltmp267:
	.loc	25 174 21
	movq	-304(%rbp), %rdi
	xorl	%eax, %eax
	movl	%eax, %esi
	callq	__ZN4core3ptr8non_null26NonNull$LT$$u5b$T$u5d$$GT$20slice_from_raw_parts17hc245afad43fb556cE
	.loc	25 174 18 is_stmt 0
	movq	%rax, -320(%rbp)
	movq	%rdx, -312(%rbp)
	.loc	25 174 72
	jmp	LBB44_15
LBB44_2:
	.loc	25 0 72
	movb	-345(%rbp), %al
	movq	-344(%rbp), %rcx
	.loc	25 176 13 is_stmt 1
	movq	%rcx, -136(%rbp)
Ltmp268:
	.loc	25 177 34
	testb	$1, %al
	jne	LBB44_4
	.loc	25 177 79 is_stmt 0
	movq	-336(%rbp), %rcx
	movq	-328(%rbp), %rax
	movq	%rcx, -272(%rbp)
	movq	%rax, -264(%rbp)
Ltmp269:
	.loc	25 95 27 is_stmt 1
	leaq	-272(%rbp), %rax
	movq	%rax, -104(%rbp)
Ltmp270:
	.loc	17 129 9
	movq	-272(%rbp), %rdi
Ltmp271:
	.loc	25 95 42
	leaq	-272(%rbp), %rax
	movq	%rax, -96(%rbp)
Ltmp272:
	.loc	17 140 9
	movq	-264(%rbp), %rax
	movq	%rax, -88(%rbp)
Ltmp273:
	.loc	18 97 9
	movq	%rax, -216(%rbp)
	movq	-216(%rbp), %rsi
Ltmp274:
	.loc	25 95 14
	callq	___rust_alloc
	movq	%rax, -296(%rbp)
Ltmp275:
	.loc	25 177 31
	jmp	LBB44_5
LBB44_4:
	.loc	25 177 56 is_stmt 0
	movq	-336(%rbp), %rcx
	movq	-328(%rbp), %rax
	movq	%rcx, -288(%rbp)
	movq	%rax, -280(%rbp)
Ltmp276:
	.loc	25 166 34 is_stmt 1
	leaq	-288(%rbp), %rax
	movq	%rax, -128(%rbp)
Ltmp277:
	.loc	17 129 9
	movq	-288(%rbp), %rdi
Ltmp278:
	.loc	25 166 49
	leaq	-288(%rbp), %rax
	movq	%rax, -120(%rbp)
Ltmp279:
	.loc	17 140 9
	movq	-280(%rbp), %rax
	movq	%rax, -112(%rbp)
Ltmp280:
	.loc	18 97 9
	movq	%rax, -224(%rbp)
	movq	-224(%rbp), %rsi
Ltmp281:
	.loc	25 166 14
	callq	___rust_alloc_zeroed
	movq	%rax, -296(%rbp)
Ltmp282:
LBB44_5:
	.loc	25 178 40
	movq	-296(%rbp), %rdi
	.loc	25 178 27 is_stmt 0
	callq	__ZN4core3ptr8non_null16NonNull$LT$T$GT$3new17hd906aafb15d62b96E
	movq	%rax, -240(%rbp)
Ltmp283:
	.file	26 "/rustc/2c8cc343237b8f7d5a3c3703e3a87f2eb2c54a74/library/core/src" "option.rs"
	.loc	26 1096 15 is_stmt 1
	movq	-240(%rbp), %rdx
	movl	$1, %eax
	xorl	%ecx, %ecx
	cmpq	$0, %rdx
	cmoveq	%rcx, %rax
	.loc	26 1096 9 is_stmt 0
	cmpq	$0, %rax
	jne	LBB44_7
	.loc	26 1098 21 is_stmt 1
	movq	$0, -248(%rbp)
	.loc	26 1098 28 is_stmt 0
	jmp	LBB44_8
LBB44_7:
	.loc	26 1097 18 is_stmt 1
	movq	-240(%rbp), %rax
	movq	%rax, -80(%rbp)
Ltmp284:
	.loc	26 1097 24 is_stmt 0
	movq	%rax, -248(%rbp)
Ltmp285:
LBB44_8:
	.loc	19 2091 15 is_stmt 1
	movq	-248(%rbp), %rdx
	xorl	%eax, %eax
	movl	$1, %ecx
	cmpq	$0, %rdx
	cmoveq	%rcx, %rax
	.loc	19 2091 9 is_stmt 0
	cmpq	$0, %rax
	jne	LBB44_10
	.loc	19 2092 16 is_stmt 1
	movq	-248(%rbp), %rax
	movq	%rax, -72(%rbp)
Ltmp286:
	.loc	19 2092 22 is_stmt 0
	movq	%rax, -256(%rbp)
Ltmp287:
	.loc	19 2092 45
	jmp	LBB44_11
LBB44_10:
Ltmp288:
	.loc	19 2093 23 is_stmt 1
	movq	$0, -256(%rbp)
Ltmp289:
LBB44_11:
	.loc	25 178 27
	movq	-256(%rbp), %rdx
	xorl	%eax, %eax
	movl	$1, %ecx
	cmpq	$0, %rdx
	cmoveq	%rcx, %rax
	cmpq	$0, %rax
	jne	LBB44_13
	.loc	25 0 27 is_stmt 0
	movq	-344(%rbp), %rsi
	.loc	25 178 27
	movq	-256(%rbp), %rdi
	movq	%rdi, -64(%rbp)
Ltmp290:
	.loc	25 178 27
	movq	%rdi, -56(%rbp)
Ltmp291:
	.loc	25 179 20 is_stmt 1
	callq	__ZN4core3ptr8non_null26NonNull$LT$$u5b$T$u5d$$GT$20slice_from_raw_parts17hc245afad43fb556cE
	.loc	25 179 17 is_stmt 0
	movq	%rax, -320(%rbp)
	movq	%rdx, -312(%rbp)
Ltmp292:
	.loc	25 180 13 is_stmt 1
	jmp	LBB44_15
LBB44_13:
Ltmp293:
	.loc	19 2107 23
	movq	$0, -320(%rbp)
Ltmp294:
LBB44_14:
	.loc	25 182 6
	movq	-320(%rbp), %rax
	movq	-312(%rbp), %rdx
	addq	$352, %rsp
	popq	%rbp
	retq
LBB44_15:
	jmp	LBB44_14
Ltmp295:
Lfunc_end44:
	.cfi_endproc

	.p2align	4, 0x90
__ZN5alloc5alloc6Global9grow_impl17hfb6e521085dcf0b0E:
Lfunc_begin45:
	.loc	25 186 0
	.cfi_startproc
	pushq	%rbp
	.cfi_def_cfa_offset 16
	.cfi_offset %rbp, -16
	movq	%rsp, %rbp
	.cfi_def_cfa_register %rbp
	subq	$736, %rsp
	movq	%rsi, -688(%rbp)
	movq	%rdi, -680(%rbp)
	movb	16(%rbp), %al
	movb	%al, -665(%rbp)
	movq	%rdx, -656(%rbp)
	movq	%rcx, -648(%rbp)
	movq	%r8, -640(%rbp)
	movq	%r9, -632(%rbp)
	movq	%rdi, -504(%rbp)
	movq	%rsi, -496(%rbp)
	andb	$1, %al
	movb	%al, -481(%rbp)
Ltmp296:
	.loc	25 198 15 prologue_end
	leaq	-656(%rbp), %rax
	movq	%rax, -392(%rbp)
Ltmp297:
	.loc	17 129 9
	movq	-656(%rbp), %rax
	movq	%rax, -664(%rbp)
Ltmp298:
	.loc	25 198 9
	cmpq	$0, %rax
	jne	LBB45_2
	.loc	25 0 9 is_stmt 0
	movq	-680(%rbp), %rdi
	movb	-665(%rbp), %al
	.loc	25 199 34 is_stmt 1
	movq	-640(%rbp), %rsi
	movq	-632(%rbp), %rdx
	.loc	25 199 18 is_stmt 0
	movzbl	%al, %ecx
	andl	$1, %ecx
	callq	__ZN5alloc5alloc6Global10alloc_impl17h6d763db28114451cE
	movq	%rdx, -616(%rbp)
	movq	%rax, -624(%rbp)
	.loc	25 199 52
	jmp	LBB45_16
LBB45_2:
	.loc	25 203 25 is_stmt 1
	leaq	-656(%rbp), %rax
	movq	%rax, -384(%rbp)
Ltmp299:
	.loc	17 140 9
	movq	-648(%rbp), %rax
	movq	%rax, -376(%rbp)
Ltmp300:
	.loc	18 97 9
	movq	%rax, -536(%rbp)
	movq	-536(%rbp), %rax
Ltmp301:
	.loc	25 203 47
	leaq	-640(%rbp), %rcx
	movq	%rcx, -368(%rbp)
Ltmp302:
	.loc	17 140 9
	movq	-632(%rbp), %rcx
	movq	%rcx, -360(%rbp)
Ltmp303:
	.loc	18 97 9
	movq	%rcx, -528(%rbp)
	movq	-528(%rbp), %rcx
Ltmp304:
	.loc	25 203 25
	cmpq	%rcx, %rax
	je	LBB45_4
	.loc	25 0 25 is_stmt 0
	movq	-680(%rbp), %rdi
	movb	-665(%rbp), %al
	movq	-664(%rbp), %rcx
	.loc	25 222 13 is_stmt 1
	movq	%rcx, -160(%rbp)
Ltmp305:
	.loc	25 223 47
	movq	-640(%rbp), %rsi
	movq	-632(%rbp), %rdx
	.loc	25 223 31 is_stmt 0
	movzbl	%al, %ecx
	andl	$1, %ecx
	callq	__ZN5alloc5alloc6Global10alloc_impl17h6d763db28114451cE
	movq	%rdx, -544(%rbp)
	movq	%rax, -552(%rbp)
Ltmp306:
	.loc	19 2091 15 is_stmt 1
	movq	-552(%rbp), %rdx
	xorl	%eax, %eax
	movl	$1, %ecx
	cmpq	$0, %rdx
	cmoveq	%rcx, %rax
	.loc	19 2091 9 is_stmt 0
	cmpq	$0, %rax
	je	LBB45_17
	jmp	LBB45_18
Ltmp307:
LBB45_4:
	.loc	19 0 9
	movq	-688(%rbp), %rdi
	movq	-664(%rbp), %rax
	.loc	25 203 13 is_stmt 1
	movq	%rax, -352(%rbp)
Ltmp308:
	.loc	25 204 32
	leaq	-640(%rbp), %rax
	movq	%rax, -344(%rbp)
Ltmp309:
	.loc	17 129 9
	movq	-640(%rbp), %rcx
	movq	%rcx, -704(%rbp)
	movq	%rcx, -336(%rbp)
Ltmp310:
	.loc	25 207 48
	leaq	-656(%rbp), %rax
	movq	%rax, -328(%rbp)
	.loc	25 209 39
	movq	%rdi, -320(%rbp)
Ltmp311:
	.loc	5 326 9
	movq	%rdi, -312(%rbp)
Ltmp312:
	.loc	25 209 53
	movq	-656(%rbp), %rdx
	movq	-648(%rbp), %rax
	movq	%rdx, -608(%rbp)
	movq	%rax, -600(%rbp)
	.loc	25 209 65 is_stmt 0
	movq	%rcx, -304(%rbp)
Ltmp313:
	.loc	25 132 34 is_stmt 1
	leaq	-608(%rbp), %rax
	movq	%rax, -296(%rbp)
Ltmp314:
	.loc	17 129 9
	movq	-608(%rbp), %rsi
Ltmp315:
	.loc	25 132 49
	leaq	-608(%rbp), %rax
	movq	%rax, -288(%rbp)
Ltmp316:
	.loc	17 140 9
	movq	-600(%rbp), %rax
	movq	%rax, -280(%rbp)
Ltmp317:
	.loc	18 97 9
	movq	%rax, -520(%rbp)
	movq	-520(%rbp), %rdx
Ltmp318:
	.loc	25 132 14
	callq	___rust_realloc
	movq	%rax, %rdi
	movq	%rdi, -696(%rbp)
	movq	%rdi, -272(%rbp)
Ltmp319:
	.loc	25 210 27
	callq	__ZN4core3ptr8non_null16NonNull$LT$T$GT$3new17hd906aafb15d62b96E
	movq	%rax, -576(%rbp)
Ltmp320:
	.loc	26 1096 15
	movq	-576(%rbp), %rdx
	movl	$1, %eax
	xorl	%ecx, %ecx
	cmpq	$0, %rdx
	cmoveq	%rcx, %rax
	.loc	26 1096 9 is_stmt 0
	cmpq	$0, %rax
	jne	LBB45_6
	.loc	26 1098 21 is_stmt 1
	movq	$0, -584(%rbp)
	.loc	26 1098 28 is_stmt 0
	jmp	LBB45_7
LBB45_6:
	.loc	26 1097 18 is_stmt 1
	movq	-576(%rbp), %rax
	movq	%rax, -264(%rbp)
Ltmp321:
	.loc	26 1097 24 is_stmt 0
	movq	%rax, -584(%rbp)
Ltmp322:
LBB45_7:
	.loc	19 2091 15 is_stmt 1
	movq	-584(%rbp), %rdx
	xorl	%eax, %eax
	movl	$1, %ecx
	cmpq	$0, %rdx
	cmoveq	%rcx, %rax
	.loc	19 2091 9 is_stmt 0
	cmpq	$0, %rax
	jne	LBB45_9
	.loc	19 2092 16 is_stmt 1
	movq	-584(%rbp), %rax
	movq	%rax, -256(%rbp)
Ltmp323:
	.loc	19 2092 22 is_stmt 0
	movq	%rax, -592(%rbp)
Ltmp324:
	.loc	19 2092 45
	jmp	LBB45_10
LBB45_9:
Ltmp325:
	.loc	19 2093 23 is_stmt 1
	movq	$0, -592(%rbp)
Ltmp326:
LBB45_10:
	.loc	25 210 27
	movq	-592(%rbp), %rdx
	xorl	%eax, %eax
	movl	$1, %ecx
	cmpq	$0, %rdx
	cmoveq	%rcx, %rax
	cmpq	$0, %rax
	jne	LBB45_12
	.loc	25 0 27 is_stmt 0
	movb	-665(%rbp), %al
	.loc	25 210 27
	movq	-592(%rbp), %rcx
	movq	%rcx, -712(%rbp)
	movq	%rcx, -248(%rbp)
Ltmp327:
	.loc	25 210 27
	movq	%rcx, -240(%rbp)
Ltmp328:
	.loc	25 211 20 is_stmt 1
	testb	$1, %al
	jne	LBB45_15
	jmp	LBB45_14
Ltmp329:
LBB45_12:
	.loc	19 2107 23
	movq	$0, -624(%rbp)
Ltmp330:
LBB45_13:
	.loc	25 229 6
	jmp	LBB45_22
LBB45_14:
	.loc	25 0 6 is_stmt 0
	movq	-704(%rbp), %rsi
	movq	-712(%rbp), %rdi
Ltmp331:
	.loc	25 214 20 is_stmt 1
	callq	__ZN4core3ptr8non_null26NonNull$LT$$u5b$T$u5d$$GT$20slice_from_raw_parts17hc245afad43fb556cE
	.loc	25 214 17 is_stmt 0
	movq	%rax, -624(%rbp)
	movq	%rdx, -616(%rbp)
Ltmp332:
	.loc	25 215 13 is_stmt 1
	jmp	LBB45_16
LBB45_15:
	.loc	25 0 13 is_stmt 0
	movq	-664(%rbp), %rax
	movq	-704(%rbp), %rdx
	movq	-696(%rbp), %rcx
Ltmp333:
	.loc	25 212 21 is_stmt 1
	movq	%rcx, -232(%rbp)
	.loc	25 212 33 is_stmt 0
	movq	%rax, -224(%rbp)
Ltmp334:
	.loc	2 1034 18 is_stmt 1
	movq	%rcx, -216(%rbp)
	.loc	2 1034 30 is_stmt 0
	movq	%rax, -208(%rbp)
Ltmp335:
	.loc	2 487 18 is_stmt 1
	addq	%rax, %rcx
	movq	%rcx, -200(%rbp)
	movq	-200(%rbp), %rdi
	movq	%rdi, -192(%rbp)
Ltmp336:
	.loc	25 212 58
	subq	%rax, %rdx
	movq	%rdx, -184(%rbp)
Ltmp337:
	.loc	2 1488 30
	movq	%rdi, -176(%rbp)
	.loc	2 1488 41 is_stmt 0
	movq	%rdx, -168(%rbp)
Ltmp338:
	.loc	23 2529 9 is_stmt 1
	shlq	$0, %rdx
	xorl	%esi, %esi
	callq	_memset
Ltmp339:
	.loc	25 211 17
	jmp	LBB45_14
Ltmp340:
LBB45_16:
	.loc	25 229 6
	jmp	LBB45_22
LBB45_17:
Ltmp341:
	.loc	19 2092 16
	movq	-552(%rbp), %rcx
	movq	-544(%rbp), %rax
	movq	%rcx, -152(%rbp)
	movq	%rax, -144(%rbp)
Ltmp342:
	.loc	19 2092 22 is_stmt 0
	movq	%rcx, -568(%rbp)
	movq	%rax, -560(%rbp)
Ltmp343:
	.loc	19 2092 45
	jmp	LBB45_19
LBB45_18:
Ltmp344:
	.loc	19 2093 23 is_stmt 1
	movq	$0, -568(%rbp)
Ltmp345:
LBB45_19:
	.loc	25 223 31
	movq	-568(%rbp), %rdx
	xorl	%eax, %eax
	movl	$1, %ecx
	cmpq	$0, %rdx
	cmoveq	%rcx, %rax
	cmpq	$0, %rax
	jne	LBB45_21
	.loc	25 0 31 is_stmt 0
	movq	-688(%rbp), %rsi
	movq	-664(%rbp), %rdx
	.loc	25 223 31
	movq	-568(%rbp), %rax
	movq	%rax, -728(%rbp)
	movq	-560(%rbp), %rcx
	movq	%rcx, -720(%rbp)
	movq	%rax, -136(%rbp)
	movq	%rcx, -128(%rbp)
Ltmp346:
	.loc	25 223 31
	movq	%rax, -120(%rbp)
	movq	%rcx, -112(%rbp)
Ltmp347:
	.loc	25 224 42 is_stmt 1
	movq	%rsi, -104(%rbp)
	movq	%rsi, -96(%rbp)
	.loc	25 224 56 is_stmt 0
	movq	%rax, -88(%rbp)
	movq	%rcx, -80(%rbp)
Ltmp348:
	.loc	5 548 9 is_stmt 1
	movq	%rax, -72(%rbp)
	movq	%rcx, -64(%rbp)
Ltmp349:
	.loc	5 529 41
	movq	%rax, -56(%rbp)
	movq	%rcx, -48(%rbp)
Ltmp350:
	.loc	5 326 9
	movq	%rax, -40(%rbp)
	movq	%rcx, -32(%rbp)
Ltmp351:
	.loc	2 2037 9
	movq	%rax, -24(%rbp)
Ltmp352:
	.loc	5 201 13
	movq	%rax, -512(%rbp)
Ltmp353:
	.loc	5 326 9
	movq	-512(%rbp), %rdi
	movq	%rdi, -16(%rbp)
Ltmp354:
	.loc	25 224 78
	movq	%rdx, -8(%rbp)
Ltmp355:
	.loc	23 2372 9
	shlq	$0, %rdx
	callq	_memcpy
	movq	-680(%rbp), %rdi
	movq	-688(%rbp), %rsi
Ltmp356:
	.loc	25 225 38
	movq	-656(%rbp), %rdx
	movq	-648(%rbp), %rcx
	.loc	25 225 17 is_stmt 0
	callq	__ZN63_$LT$alloc..alloc..Global$u20$as$u20$core..alloc..Allocator$GT$10deallocate17h1214806d0f2a85cfE
	movq	-728(%rbp), %rcx
	movq	-720(%rbp), %rax
	.loc	25 226 17 is_stmt 1
	movq	%rcx, -624(%rbp)
	movq	%rax, -616(%rbp)
Ltmp357:
	.loc	25 227 13
	jmp	LBB45_16
LBB45_21:
Ltmp358:
	.loc	19 2107 23
	movq	$0, -624(%rbp)
Ltmp359:
	.file	27 "/Users/natalie/.cargo/registry/src/github.com-1ecc6299db9ec823/num-complex-0.4.2" "src/lib.rs"
	.loc	27 1 1
	jmp	LBB45_13
LBB45_22:
	.loc	25 229 6
	movq	-624(%rbp), %rax
	movq	-616(%rbp), %rdx
	addq	$736, %rsp
	popq	%rbp
	retq
Ltmp360:
Lfunc_end45:
	.cfi_endproc

	.p2align	4, 0x90
__ZN5alloc6string6String4push17h76fd3676e9d43ac7E:
Lfunc_begin46:
	.loc	10 1223 0
	.cfi_startproc
	pushq	%rbp
	.cfi_def_cfa_offset 16
	.cfi_offset %rbp, -16
	movq	%rsp, %rbp
	.cfi_def_cfa_register %rbp
	subq	$112, %rsp
	movl	%esi, -108(%rbp)
	movq	%rdi, %rax
	movl	-108(%rbp), %edi
	movq	%rax, -104(%rbp)
	movl	%edi, -96(%rbp)
	movq	%rax, -88(%rbp)
	movl	%edi, -76(%rbp)
Ltmp361:
	.loc	10 1224 15 prologue_end
	movl	%edi, -72(%rbp)
Ltmp362:
	.loc	15 594 9
	callq	__ZN4core4char7methods8len_utf817h688753f75003f1afE
Ltmp363:
	.loc	10 1224 9
	cmpq	$1, %rax
	jne	LBB46_2
	.loc	10 0 9 is_stmt 0
	movq	-104(%rbp), %rdi
	movl	-96(%rbp), %eax
	.loc	10 1225 18 is_stmt 1
	movzbl	%al, %esi
	callq	__ZN5alloc3vec16Vec$LT$T$C$A$GT$4push17h6f80135ed6d9ebadE
	.loc	10 1225 40 is_stmt 0
	jmp	LBB46_3
LBB46_2:
	.loc	10 0 40
	movl	-96(%rbp), %eax
	.loc	10 1226 45 is_stmt 1
	movl	%eax, -68(%rbp)
	.loc	10 1226 65 is_stmt 0
	leaq	-92(%rbp), %rdi
	xorl	%esi, %esi
	movl	$4, %edx
	callq	_memset
	movl	-96(%rbp), %edi
	.loc	10 1226 60
	leaq	-92(%rbp), %rax
	movq	%rax, -64(%rbp)
	movq	$4, -56(%rbp)
Ltmp364:
	.loc	15 663 42 is_stmt 1
	leaq	-92(%rbp), %rsi
	movl	$4, %edx
	callq	__ZN4core4char7methods15encode_utf8_raw17h68e2a66a35940b09E
	movq	-104(%rbp), %rdi
	movq	%rax, -48(%rbp)
	movq	%rdx, -40(%rbp)
Ltmp365:
	.loc	10 1226 45
	movq	%rax, -32(%rbp)
	movq	%rdx, -24(%rbp)
Ltmp366:
	.loc	21 327 18
	movq	%rax, -16(%rbp)
	movq	%rdx, -8(%rbp)
	movq	-16(%rbp), %rsi
	movq	-8(%rbp), %rdx
Ltmp367:
	.loc	10 1226 18
	callq	__ZN5alloc3vec16Vec$LT$T$C$A$GT$17extend_from_slice17h4a3b72f998629893E
LBB46_3:
	.loc	10 1228 6
	addq	$112, %rsp
	popq	%rbp
	retq
Ltmp368:
Lfunc_end46:
	.cfi_endproc

	.globl	__ZN5alloc7raw_vec11finish_grow17h1ab34ef4e150b5a8E
	.p2align	4, 0x90
__ZN5alloc7raw_vec11finish_grow17h1ab34ef4e150b5a8E:
Lfunc_begin47:
	.loc	22 448 0
	.cfi_startproc
	pushq	%rbp
	.cfi_def_cfa_offset 16
	.cfi_offset %rbp, -16
	movq	%rsp, %rbp
	.cfi_def_cfa_register %rbp
	subq	$512, %rsp
	movq	%r8, -504(%rbp)
	movq	%rcx, -496(%rbp)
Ltmp369:
	movq	%rdi, -488(%rbp)
	movq	%rdi, -480(%rbp)
	movq	%rsi, -240(%rbp)
	movq	%rdx, -232(%rbp)
Ltmp370:
	movq	%r8, -224(%rbp)
Ltmp371:
	.loc	22 457 22 prologue_end
	leaq	-432(%rbp), %rdi
	callq	__ZN4core6result19Result$LT$T$C$E$GT$7map_err17h1fa4b2ea7ac29bb6E
Ltmp372:
	.loc	19 2091 9
	cmpq	$0, -432(%rbp)
Ltmp373:
	jne	LBB47_2
Ltmp374:
	.loc	19 2092 16
	movq	-424(%rbp), %rcx
	movq	-416(%rbp), %rax
	movq	%rcx, -184(%rbp)
	movq	%rax, -176(%rbp)
Ltmp375:
	.loc	19 2092 22 is_stmt 0
	movq	%rcx, -448(%rbp)
	movq	%rax, -440(%rbp)
	movq	$0, -456(%rbp)
Ltmp376:
	.loc	19 2092 45
	jmp	LBB47_3
Ltmp377:
LBB47_2:
	.loc	19 2093 17 is_stmt 1
	movq	-424(%rbp), %rcx
	movq	-416(%rbp), %rax
	movq	%rcx, -200(%rbp)
	movq	%rax, -192(%rbp)
Ltmp378:
	.loc	19 2093 42 is_stmt 0
	movq	%rcx, -304(%rbp)
	movq	%rax, -296(%rbp)
	.loc	19 2093 23
	movq	-304(%rbp), %rcx
	movq	-296(%rbp), %rax
	movq	%rcx, -448(%rbp)
	movq	%rax, -440(%rbp)
	movq	$1, -456(%rbp)
Ltmp379:
LBB47_3:
	.loc	22 457 22 is_stmt 1
	cmpq	$0, -456(%rbp)
	jne	LBB47_5
Ltmp380:
	movq	-448(%rbp), %rcx
	movq	-440(%rbp), %rax
	movq	%rcx, -120(%rbp)
	movq	%rax, -112(%rbp)
Ltmp381:
	.loc	22 457 22 is_stmt 0
	movq	%rcx, -472(%rbp)
	movq	%rax, -464(%rbp)
Ltmp382:
	.loc	22 509 9 is_stmt 1
	movabsq	$-9223372036854775807, %rax
	movq	%rax, -368(%rbp)
Ltmp383:
	.loc	19 2091 15
	movabsq	$-9223372036854775807, %rdx
	movl	$1, %eax
	xorl	%ecx, %ecx
	cmpq	%rdx, -368(%rbp)
	cmoveq	%rcx, %rax
	.loc	19 2091 9 is_stmt 0
	cmpq	$0, %rax
	je	LBB47_7
	jmp	LBB47_8
Ltmp384:
LBB47_5:
	.loc	19 0 9
	movq	-488(%rbp), %rax
	.loc	22 457 62 is_stmt 1
	movq	-448(%rbp), %rdx
	movq	-440(%rbp), %rcx
	movq	%rdx, -168(%rbp)
	movq	%rcx, -160(%rbp)
Ltmp385:
	.loc	22 457 62 is_stmt 0
	movq	%rdx, -408(%rbp)
	movq	%rcx, -400(%rbp)
Ltmp386:
	.loc	19 2107 17 is_stmt 1
	movq	-408(%rbp), %rdx
	movq	-400(%rbp), %rcx
	movq	%rdx, -152(%rbp)
	movq	%rcx, -144(%rbp)
Ltmp387:
	.loc	19 2107 38 is_stmt 0
	movq	%rdx, -136(%rbp)
	movq	%rcx, -128(%rbp)
Ltmp388:
	.loc	7 117 9 is_stmt 1
	movq	%rdx, -288(%rbp)
	movq	%rcx, -280(%rbp)
Ltmp389:
	.loc	19 2107 23
	movq	-288(%rbp), %rdx
	movq	-280(%rbp), %rcx
	movq	%rdx, 8(%rax)
	movq	%rcx, 16(%rax)
	movq	$1, (%rax)
Ltmp390:
LBB47_6:
	.loc	22 473 2
	jmp	LBB47_12
Ltmp391:
LBB47_7:
	.loc	19 2092 22
	movabsq	$-9223372036854775807, %rax
	movq	%rax, -384(%rbp)
Ltmp392:
	.loc	19 2092 45 is_stmt 0
	jmp	LBB47_9
Ltmp393:
LBB47_8:
	.loc	19 2093 17 is_stmt 1
	movq	-376(%rbp), %rcx
	movq	-368(%rbp), %rax
	movq	%rcx, -104(%rbp)
	movq	%rax, -96(%rbp)
Ltmp394:
	.loc	19 2093 42 is_stmt 0
	movq	%rcx, -272(%rbp)
	movq	%rax, -264(%rbp)
	.loc	19 2093 23
	movq	-272(%rbp), %rcx
	movq	-264(%rbp), %rax
	movq	%rcx, -392(%rbp)
	movq	%rax, -384(%rbp)
Ltmp395:
LBB47_9:
	.loc	22 459 5 is_stmt 1
	movabsq	$-9223372036854775807, %rdx
	movl	$1, %eax
	xorl	%ecx, %ecx
	cmpq	%rdx, -384(%rbp)
	cmoveq	%rcx, %rax
	cmpq	$0, %rax
	jne	LBB47_11
Ltmp396:
	.loc	22 0 5 is_stmt 0
	movq	-496(%rbp), %rdx
Ltmp397:
	.loc	22 461 25 is_stmt 1
	movl	$1, %eax
	xorl	%ecx, %ecx
	cmpq	$0, 16(%rdx)
	cmoveq	%rcx, %rax
	cmpq	$1, %rax
	je	LBB47_13
	jmp	LBB47_14
Ltmp398:
LBB47_11:
	.loc	22 0 25 is_stmt 0
	movq	-488(%rbp), %rax
	.loc	22 459 35 is_stmt 1
	movq	-392(%rbp), %rdx
	movq	-384(%rbp), %rcx
	movq	%rdx, -88(%rbp)
	movq	%rcx, -80(%rbp)
Ltmp399:
	.loc	22 459 35 is_stmt 0
	movq	%rdx, -360(%rbp)
	movq	%rcx, -352(%rbp)
Ltmp400:
	.loc	19 2107 17 is_stmt 1
	movq	-360(%rbp), %rdx
	movq	-352(%rbp), %rcx
	movq	%rdx, -72(%rbp)
	movq	%rcx, -64(%rbp)
Ltmp401:
	.loc	19 2107 38 is_stmt 0
	movq	%rdx, -56(%rbp)
	movq	%rcx, -48(%rbp)
	.loc	19 2107 23
	movq	%rdx, 8(%rax)
	movq	%rcx, 16(%rax)
	movq	$1, (%rax)
Ltmp402:
	.loc	27 1 1 is_stmt 1
	jmp	LBB47_6
Ltmp403:
LBB47_12:
	.loc	27 0 1 is_stmt 0
	movq	-480(%rbp), %rax
	.loc	22 473 2 is_stmt 1
	addq	$512, %rsp
	popq	%rbp
	retq
Ltmp404:
LBB47_13:
	.loc	22 0 2 is_stmt 0
	movq	-504(%rbp), %rdi
	movq	-496(%rbp), %rax
Ltmp405:
	.loc	22 461 31 is_stmt 1
	movq	(%rax), %rsi
	movq	%rsi, -40(%rbp)
	.loc	22 461 36 is_stmt 0
	movq	8(%rax), %rcx
	movq	16(%rax), %rax
	movq	%rcx, -328(%rbp)
	movq	%rax, -320(%rbp)
	leaq	-328(%rbp), %rax
	.loc	22 465 32 is_stmt 1
	movq	%rax, -32(%rbp)
Ltmp406:
	.loc	17 140 9
	movq	-320(%rbp), %rax
	movq	%rax, -24(%rbp)
Ltmp407:
	.loc	18 97 9
	movq	%rax, -256(%rbp)
	leaq	-472(%rbp), %rax
Ltmp408:
	.loc	22 465 54
	movq	%rax, -16(%rbp)
Ltmp409:
	.loc	17 140 9
	movq	-464(%rbp), %rax
	movq	%rax, -8(%rbp)
Ltmp410:
	.loc	18 97 9
	movq	%rax, -248(%rbp)
Ltmp411:
	.loc	22 466 29
	movq	-328(%rbp), %rdx
	movq	-320(%rbp), %rcx
	.loc	22 466 41 is_stmt 0
	movq	-472(%rbp), %r8
	movq	-464(%rbp), %r9
	.loc	22 466 13
	callq	__ZN63_$LT$alloc..alloc..Global$u20$as$u20$core..alloc..Allocator$GT$4grow17hfd9d2da0cf1510edE
	movq	%rdx, -336(%rbp)
	movq	%rax, -344(%rbp)
Ltmp412:
	.loc	22 461 18 is_stmt 1
	jmp	LBB47_15
Ltmp413:
LBB47_14:
	.loc	22 0 18 is_stmt 0
	movq	-504(%rbp), %rdi
	.loc	22 469 24 is_stmt 1
	movq	-472(%rbp), %rsi
	movq	-464(%rbp), %rdx
	.loc	22 469 9 is_stmt 0
	callq	__ZN63_$LT$alloc..alloc..Global$u20$as$u20$core..alloc..Allocator$GT$8allocate17hd9a676cc94e4215bE
	movq	%rdx, -336(%rbp)
	movq	%rax, -344(%rbp)
Ltmp414:
LBB47_15:
	.loc	22 0 9
	movq	-488(%rbp), %rdi
Ltmp415:
	.loc	22 472 5 is_stmt 1
	movq	-344(%rbp), %rsi
	movq	-336(%rbp), %rdx
	.loc	22 472 20 is_stmt 0
	leaq	-472(%rbp), %rax
	movq	%rax, -312(%rbp)
	.loc	22 472 5
	movq	-312(%rbp), %rcx
	callq	__ZN4core6result19Result$LT$T$C$E$GT$7map_err17hc425c872651cae0fE
Ltmp416:
	.loc	22 473 2 is_stmt 1
	jmp	LBB47_12
Ltmp417:
Lfunc_end47:
	.cfi_endproc

	.globl	__ZN5alloc7raw_vec11finish_grow28_$u7b$$u7b$closure$u7d$$u7d$17h8d7111a55372a28fE
	.p2align	4, 0x90
__ZN5alloc7raw_vec11finish_grow28_$u7b$$u7b$closure$u7d$$u7d$17h8d7111a55372a28fE:
Lfunc_begin48:
	.loc	22 472 0
	.cfi_startproc
	pushq	%rbp
	.cfi_def_cfa_offset 16
	.cfi_offset %rbp, -16
	movq	%rsp, %rbp
	.cfi_def_cfa_register %rbp
	subq	$32, %rsp
	movq	%rdi, -32(%rbp)
Ltmp418:
	.loc	22 472 45 prologue_end
	movq	-32(%rbp), %rax
	movq	(%rax), %rcx
	movq	8(%rax), %rax
	.loc	22 472 24 is_stmt 0
	movq	%rcx, -24(%rbp)
	movq	%rax, -16(%rbp)
	movq	-24(%rbp), %rdi
	movq	-16(%rbp), %rsi
	callq	__ZN50_$LT$T$u20$as$u20$core..convert..Into$LT$U$GT$$GT$4into17h1531a595d6d51a78E
	.loc	22 472 84
	addq	$32, %rsp
	popq	%rbp
	retq
Ltmp419:
Lfunc_end48:
	.cfi_endproc

	.globl	__ZN5alloc7raw_vec11finish_grow28_$u7b$$u7b$closure$u7d$$u7d$17hda5d2e5fcba15269E
	.p2align	4, 0x90
__ZN5alloc7raw_vec11finish_grow28_$u7b$$u7b$closure$u7d$$u7d$17hda5d2e5fcba15269E:
Lfunc_begin49:
	.loc	22 457 0 is_stmt 1
	.cfi_startproc
	pushq	%rbp
	.cfi_def_cfa_offset 16
	.cfi_offset %rbp, -16
	movq	%rsp, %rbp
	.cfi_def_cfa_register %rbp
	subq	$32, %rsp
Ltmp420:
	.loc	22 457 45 prologue_end
	movq	$0, -24(%rbp)
	.loc	22 457 61 is_stmt 0
	movq	-32(%rbp), %rax
	movq	-24(%rbp), %rdx
	addq	$32, %rsp
	popq	%rbp
	retq
Ltmp421:
Lfunc_end49:
	.cfi_endproc

	.p2align	4, 0x90
__ZN5alloc7raw_vec14handle_reserve17hf1af5555dc1b3e2cE:
Lfunc_begin50:
	.loc	22 487 0 is_stmt 1
	.cfi_startproc
	pushq	%rbp
	.cfi_def_cfa_offset 16
	.cfi_offset %rbp, -16
	movq	%rsp, %rbp
	.cfi_def_cfa_register %rbp
	subq	$48, %rsp
	movq	%rdi, -32(%rbp)
	movq	%rsi, -24(%rbp)
Ltmp422:
	.loc	22 488 11 prologue_end
	callq	__ZN4core6result19Result$LT$T$C$E$GT$7map_err17hba7f10f7dd57e3a5E
	movq	%rdx, -40(%rbp)
	movq	%rax, -48(%rbp)
	movabsq	$-9223372036854775807, %rdx
	movl	$1, %eax
	xorl	%ecx, %ecx
	cmpq	%rdx, -40(%rbp)
	cmoveq	%rcx, %rax
	.loc	22 488 5 is_stmt 0
	cmpq	$0, %rax
	jne	LBB50_2
	.loc	22 493 2 is_stmt 1
	addq	$48, %rsp
	popq	%rbp
	retq
LBB50_2:
	.loc	22 488 11
	movl	$1, %eax
	xorl	%ecx, %ecx
	cmpq	$0, -40(%rbp)
	cmoveq	%rcx, %rax
	.loc	22 488 5 is_stmt 0
	cmpq	$0, %rax
	jne	LBB50_4
	.loc	22 489 34 is_stmt 1
	callq	__ZN5alloc7raw_vec17capacity_overflow17h082ee8492f253a0eE
LBB50_4:
	.loc	22 490 26
	movq	-48(%rbp), %rdi
	movq	-40(%rbp), %rsi
	movq	%rdi, -16(%rbp)
	movq	%rsi, -8(%rbp)
Ltmp423:
	.loc	22 490 43 is_stmt 0
	callq	__ZN5alloc5alloc18handle_alloc_error17hb5f6ff255f23ea4dE
Ltmp424:
Lfunc_end50:
	.cfi_endproc

	.globl	__ZN5alloc7raw_vec14handle_reserve28_$u7b$$u7b$closure$u7d$$u7d$17h8afedf257970e879E
	.p2align	4, 0x90
__ZN5alloc7raw_vec14handle_reserve28_$u7b$$u7b$closure$u7d$$u7d$17h8afedf257970e879E:
Lfunc_begin51:
	.loc	22 488 0 is_stmt 1
	.cfi_startproc
	pushq	%rbp
	.cfi_def_cfa_offset 16
	.cfi_offset %rbp, -16
	movq	%rsp, %rbp
	.cfi_def_cfa_register %rbp
	subq	$72, %rsp
	movq	%rdi, -72(%rbp)
	movq	%rsi, -64(%rbp)
Ltmp425:
	.loc	22 488 30 prologue_end
	leaq	-72(%rbp), %rax
	movq	%rax, -32(%rbp)
Ltmp426:
	.loc	7 75 9
	leaq	-72(%rbp), %rax
	movq	%rax, -24(%rbp)
Ltmp427:
	.loc	7 80 10
	movl	$1, %eax
	xorl	%ecx, %ecx
	cmpq	$0, -64(%rbp)
	cmoveq	%rcx, %rax
	cmpq	$0, %rax
	jne	LBB51_2
	movq	$0, -48(%rbp)
	jmp	LBB51_3
LBB51_2:
	.loc	7 94 9
	leaq	-72(%rbp), %rax
	movq	%rax, -16(%rbp)
Ltmp428:
	.loc	7 94 9 is_stmt 0
	leaq	-72(%rbp), %rax
	movq	%rax, -8(%rbp)
Ltmp429:
	.loc	17 36 16 is_stmt 1
	movq	-72(%rbp), %rcx
	movq	-64(%rbp), %rax
Ltmp430:
	.loc	7 80 10
	movq	%rcx, -56(%rbp)
	movq	%rax, -48(%rbp)
Ltmp431:
LBB51_3:
	.loc	22 488 38
	movq	-56(%rbp), %rax
	movq	-48(%rbp), %rdx
	addq	$72, %rsp
	popq	%rbp
	retq
Ltmp432:
Lfunc_end51:
	.cfi_endproc

	.globl	__ZN5alloc7raw_vec19RawVec$LT$T$C$A$GT$13needs_to_grow17h54dd5674971ccc01E
	.p2align	4, 0x90
__ZN5alloc7raw_vec19RawVec$LT$T$C$A$GT$13needs_to_grow17h54dd5674971ccc01E:
Lfunc_begin52:
	.loc	22 360 0
	.cfi_startproc
	pushq	%rbp
	.cfi_def_cfa_offset 16
	.cfi_offset %rbp, -16
	movq	%rsp, %rbp
	.cfi_def_cfa_register %rbp
	subq	$72, %rsp
	movq	%rdi, -72(%rbp)
	movq	%rsi, -64(%rbp)
	movq	%rdx, -56(%rbp)
	movq	%rdi, -40(%rbp)
	movq	%rsi, -32(%rbp)
	movq	%rdx, -24(%rbp)
Ltmp433:
	.loc	22 361 22 prologue_end
	movq	%rdi, -16(%rbp)
Ltmp434:
	.loc	22 232 12
	xorl	%eax, %eax
	testb	$1, %al
	jne	LBB52_2
	.loc	22 0 12 is_stmt 0
	movq	-72(%rbp), %rax
	.loc	22 232 44
	movq	(%rax), %rax
	movq	%rax, -48(%rbp)
	.loc	22 232 9
	jmp	LBB52_3
LBB52_2:
	.loc	22 232 24
	movq	$-1, -48(%rbp)
Ltmp435:
LBB52_3:
	.loc	22 0 24
	movq	-56(%rbp), %rax
	movq	-64(%rbp), %rdx
	.loc	22 361 51 is_stmt 1
	movq	%rdx, -8(%rbp)
Ltmp436:
	.loc	13 1203 38
	movq	-48(%rbp), %rcx
	.loc	13 1203 13 is_stmt 0
	subq	%rdx, %rcx
Ltmp437:
	.loc	22 361 9 is_stmt 1
	cmpq	%rcx, %rax
	seta	%al
	.loc	22 362 6
	andb	$1, %al
	movzbl	%al, %eax
	addq	$72, %rsp
	popq	%rbp
	retq
Ltmp438:
Lfunc_end52:
	.cfi_endproc

	.globl	__ZN5alloc7raw_vec19RawVec$LT$T$C$A$GT$14current_memory17h23371ab57dc37c50E
	.p2align	4, 0x90
__ZN5alloc7raw_vec19RawVec$LT$T$C$A$GT$14current_memory17h23371ab57dc37c50E:
Lfunc_begin53:
	.loc	22 240 0
	.cfi_startproc
	pushq	%rbp
	.cfi_def_cfa_offset 16
	.cfi_offset %rbp, -16
	movq	%rsp, %rbp
	.cfi_def_cfa_register %rbp
	subq	$176, %rsp
	movq	%rsi, -152(%rbp)
	movq	%rdi, -144(%rbp)
	movq	%rdi, -136(%rbp)
	movq	%rsi, -80(%rbp)
Ltmp439:
	.loc	22 241 12 prologue_end
	xorl	%eax, %eax
	testb	$1, %al
	jne	LBB53_2
	.loc	22 0 12 is_stmt 0
	movq	-152(%rbp), %rax
	.loc	22 241 25
	cmpq	$0, (%rax)
	sete	%al
	.loc	22 241 12
	andb	$1, %al
	movb	%al, -121(%rbp)
	jmp	LBB53_3
LBB53_2:
	movb	$1, -121(%rbp)
LBB53_3:
	testb	$1, -121(%rbp)
	jne	LBB53_5
	.loc	22 0 12
	movq	-152(%rbp), %rax
	.loc	22 247 49 is_stmt 1
	movq	(%rax), %rdx
	movq	%rdx, -72(%rbp)
Ltmp440:
	.file	28 "/rustc/2c8cc343237b8f7d5a3c3703e3a87f2eb2c54a74/library/core/src/mem" "mod.rs"
	.loc	28 459 5
	movq	$1, -64(%rbp)
Ltmp441:
	.loc	18 89 18
	movq	$1, -56(%rbp)
	movq	-56(%rbp), %rsi
Ltmp442:
	.loc	17 438 16
	movl	$1, %edi
	callq	__ZN4core5alloc6layout6Layout5array5inner17h3ded8b9e09af2743E
	movq	%rax, %rdi
	movq	%rdx, %rsi
Ltmp443:
	.loc	22 247 30
	leaq	l___unnamed_14(%rip), %rdx
	callq	__ZN4core6result19Result$LT$T$C$E$GT$16unwrap_unchecked17h486b7e2afa5af26cE
	movq	%rax, %rcx
	movq	-152(%rbp), %rax
	movq	%rcx, -168(%rbp)
	movq	%rdx, -160(%rbp)
	movq	%rcx, -48(%rbp)
	movq	%rdx, -40(%rbp)
Ltmp444:
	.loc	22 248 23
	movq	8(%rax), %rax
	movq	%rax, -32(%rbp)
Ltmp445:
	.loc	6 137 22
	movq	%rax, -24(%rbp)
Ltmp446:
	.loc	5 450 41
	movq	%rax, -16(%rbp)
	movq	%rax, -8(%rbp)
Ltmp447:
	.loc	5 201 13
	movq	%rax, -88(%rbp)
Ltmp448:
	.loc	6 191 18
	movq	-88(%rbp), %rax
	.loc	6 191 9 is_stmt 0
	movq	%rax, -96(%rbp)
Ltmp449:
	.loc	22 248 23 is_stmt 1
	movq	-96(%rbp), %rdi
	callq	__ZN50_$LT$T$u20$as$u20$core..convert..Into$LT$U$GT$$GT$4into17hf5f394f472dfa2f2E
	movq	-168(%rbp), %rcx
	movq	-160(%rbp), %rdx
	movq	%rax, %rsi
	movq	-144(%rbp), %rax
	.loc	22 248 22 is_stmt 0
	movq	%rsi, -120(%rbp)
	movq	%rcx, -112(%rbp)
	movq	%rdx, -104(%rbp)
	.loc	22 248 17
	movq	-120(%rbp), %rcx
	movq	%rcx, (%rax)
	movq	-112(%rbp), %rcx
	movq	%rcx, 8(%rax)
	movq	-104(%rbp), %rcx
	movq	%rcx, 16(%rax)
Ltmp450:
	.loc	22 241 9 is_stmt 1
	jmp	LBB53_6
LBB53_5:
	.loc	22 0 9 is_stmt 0
	movq	-144(%rbp), %rax
	.loc	22 242 13 is_stmt 1
	movq	$0, 16(%rax)
LBB53_6:
	.loc	22 0 13 is_stmt 0
	movq	-136(%rbp), %rax
	.loc	22 251 6 is_stmt 1
	addq	$176, %rsp
	popq	%rbp
	retq
Ltmp451:
Lfunc_end53:
	.cfi_endproc

	.globl	__ZN5alloc7raw_vec19RawVec$LT$T$C$A$GT$14grow_amortized17h6e9f174e163cb593E
	.p2align	4, 0x90
__ZN5alloc7raw_vec19RawVec$LT$T$C$A$GT$14grow_amortized17h6e9f174e163cb593E:
Lfunc_begin54:
	.loc	22 379 0
	.cfi_startproc
	pushq	%rbp
	.cfi_def_cfa_offset 16
	.cfi_offset %rbp, -16
	movq	%rsp, %rbp
	.cfi_def_cfa_register %rbp
	subq	$656, %rsp
	movq	%rdi, -624(%rbp)
	movq	%rsi, -616(%rbp)
	movq	%rdx, -608(%rbp)
	movq	%rdi, -352(%rbp)
	movq	%rsi, -344(%rbp)
	movq	%rdx, -336(%rbp)
Ltmp452:
	.loc	22 383 12 prologue_end
	xorl	%eax, %eax
	testb	$1, %al
	jne	LBB54_2
	.loc	22 0 12 is_stmt 0
	movq	-608(%rbp), %rsi
	movq	-616(%rbp), %rdi
	.loc	22 390 28 is_stmt 1
	callq	__ZN4core3num23_$LT$impl$u20$usize$GT$11checked_add17h7249a58d3d695118E
	movq	%rdx, -528(%rbp)
	movq	%rax, -536(%rbp)
	.loc	22 390 62 is_stmt 0
	movq	$0, -512(%rbp)
Ltmp453:
	.loc	26 1096 9 is_stmt 1
	cmpq	$0, -536(%rbp)
	je	LBB54_4
	jmp	LBB54_5
Ltmp454:
LBB54_2:
	.loc	22 386 24
	movq	$0, -576(%rbp)
	movq	-584(%rbp), %rdi
	movq	-576(%rbp), %rsi
	callq	__ZN50_$LT$T$u20$as$u20$core..convert..Into$LT$U$GT$$GT$4into17h1531a595d6d51a78E
	.loc	22 386 20 is_stmt 0
	movq	%rax, -600(%rbp)
	movq	%rdx, -592(%rbp)
LBB54_3:
	.loc	22 403 6 is_stmt 1
	movq	-600(%rbp), %rax
	movq	-592(%rbp), %rdx
	addq	$656, %rsp
	popq	%rbp
	retq
LBB54_4:
Ltmp455:
	.loc	26 1098 25
	movq	-520(%rbp), %rcx
	movq	-512(%rbp), %rax
	.loc	26 1098 21 is_stmt 0
	movq	%rcx, -552(%rbp)
	movq	%rax, -544(%rbp)
	.loc	26 1098 28
	jmp	LBB54_6
LBB54_5:
	.loc	26 1097 18 is_stmt 1
	movq	-528(%rbp), %rax
	movq	%rax, -328(%rbp)
Ltmp456:
	.loc	26 1097 24 is_stmt 0
	movq	%rax, -552(%rbp)
	movabsq	$-9223372036854775807, %rax
	movq	%rax, -544(%rbp)
Ltmp457:
LBB54_6:
	.loc	19 2091 15 is_stmt 1
	movabsq	$-9223372036854775807, %rdx
	movl	$1, %eax
	xorl	%ecx, %ecx
	cmpq	%rdx, -544(%rbp)
	cmoveq	%rcx, %rax
	.loc	19 2091 9 is_stmt 0
	cmpq	$0, %rax
	jne	LBB54_8
	.loc	19 2092 16 is_stmt 1
	movq	-552(%rbp), %rax
	movq	%rax, -304(%rbp)
Ltmp458:
	.loc	19 2092 22 is_stmt 0
	movq	%rax, -568(%rbp)
	movabsq	$-9223372036854775807, %rax
	movq	%rax, -560(%rbp)
Ltmp459:
	.loc	19 2092 45
	jmp	LBB54_9
LBB54_8:
	.loc	19 2093 17 is_stmt 1
	movq	-552(%rbp), %rcx
	movq	-544(%rbp), %rax
	movq	%rcx, -320(%rbp)
	movq	%rax, -312(%rbp)
Ltmp460:
	.loc	19 2093 42 is_stmt 0
	movq	%rcx, -400(%rbp)
	movq	%rax, -392(%rbp)
	.loc	19 2093 23
	movq	-400(%rbp), %rcx
	movq	-392(%rbp), %rax
	movq	%rcx, -568(%rbp)
	movq	%rax, -560(%rbp)
Ltmp461:
LBB54_9:
	.loc	22 390 28 is_stmt 1
	movabsq	$-9223372036854775807, %rdx
	movl	$1, %eax
	xorl	%ecx, %ecx
	cmpq	%rdx, -560(%rbp)
	cmoveq	%rcx, %rax
	cmpq	$0, %rax
	jne	LBB54_11
	.loc	22 0 28 is_stmt 0
	movq	-624(%rbp), %rax
	.loc	22 390 28
	movq	-568(%rbp), %rsi
	movq	%rsi, -248(%rbp)
Ltmp462:
	.loc	22 390 28
	movq	%rsi, -240(%rbp)
Ltmp463:
	.loc	22 394 28 is_stmt 1
	movq	(%rax), %rdi
	shlq	$1, %rdi
	movq	%rdi, -232(%rbp)
	.loc	22 394 42 is_stmt 0
	movq	%rsi, -224(%rbp)
Ltmp464:
	.loc	12 1276 5 is_stmt 1
	movq	%rdi, -216(%rbp)
	.loc	12 1276 12 is_stmt 0
	movq	%rsi, -208(%rbp)
Ltmp465:
	.loc	12 803 13 is_stmt 1
	callq	__ZN4core3cmp6max_by17heaaf175c7ee2470dE
	movq	%rax, %rsi
	movq	%rsi, -200(%rbp)
Ltmp466:
	.loc	22 395 52
	movq	%rsi, -192(%rbp)
	.loc	22 395 19 is_stmt 0
	movq	$8, -184(%rbp)
Ltmp467:
	.loc	12 1276 5 is_stmt 1
	movq	$8, -176(%rbp)
	.loc	12 1276 12 is_stmt 0
	movq	%rsi, -168(%rbp)
Ltmp468:
	.loc	12 803 13 is_stmt 1
	movl	$8, %edi
	callq	__ZN4core3cmp6max_by17heaaf175c7ee2470dE
	movq	%rax, %rdx
	movq	%rdx, -648(%rbp)
	movq	%rdx, -160(%rbp)
Ltmp469:
	.loc	22 397 45
	movq	%rdx, -152(%rbp)
Ltmp470:
	.loc	28 459 5
	movq	$1, -144(%rbp)
Ltmp471:
	.loc	18 89 18
	movq	$1, -136(%rbp)
	movq	-136(%rbp), %rsi
Ltmp472:
	.loc	17 438 16
	movl	$1, %edi
	callq	__ZN4core5alloc6layout6Layout5array5inner17h3ded8b9e09af2743E
	movq	-624(%rbp), %rsi
	movq	%rax, -640(%rbp)
	movq	%rdx, -632(%rbp)
	movq	%rax, -128(%rbp)
	movq	%rdx, -120(%rbp)
Ltmp473:
	.loc	22 400 43
	leaq	-440(%rbp), %rdi
	callq	__ZN5alloc7raw_vec19RawVec$LT$T$C$A$GT$14current_memory17h23371ab57dc37c50E
	movq	-640(%rbp), %rsi
	movq	-632(%rbp), %rdx
	movq	-624(%rbp), %r8
	.loc	22 400 19 is_stmt 0
	leaq	-464(%rbp), %rdi
	leaq	-440(%rbp), %rcx
	callq	__ZN5alloc7raw_vec11finish_grow17h1ab34ef4e150b5a8E
Ltmp474:
	.loc	19 2091 9 is_stmt 1
	cmpq	$0, -464(%rbp)
	je	LBB54_13
	jmp	LBB54_14
Ltmp475:
LBB54_11:
	.loc	22 390 79
	movq	-568(%rbp), %rcx
	movq	-560(%rbp), %rax
	movq	%rcx, -296(%rbp)
	movq	%rax, -288(%rbp)
Ltmp476:
	.loc	22 390 79 is_stmt 0
	movq	%rcx, -504(%rbp)
	movq	%rax, -496(%rbp)
Ltmp477:
	.loc	19 2107 17 is_stmt 1
	movq	-504(%rbp), %rcx
	movq	-496(%rbp), %rax
	movq	%rcx, -280(%rbp)
	movq	%rax, -272(%rbp)
Ltmp478:
	.loc	19 2107 38 is_stmt 0
	movq	%rcx, -264(%rbp)
	movq	%rax, -256(%rbp)
Ltmp479:
	.loc	7 117 9 is_stmt 1
	movq	%rcx, -384(%rbp)
	movq	%rax, -376(%rbp)
Ltmp480:
	.loc	19 2107 23
	movq	-384(%rbp), %rcx
	movq	-376(%rbp), %rax
	movq	%rcx, -600(%rbp)
	movq	%rax, -592(%rbp)
Ltmp481:
LBB54_12:
	.loc	27 1 1
	jmp	LBB54_3
LBB54_13:
Ltmp482:
	.loc	19 2092 16
	movq	-456(%rbp), %rcx
	movq	-448(%rbp), %rax
	movq	%rcx, -96(%rbp)
	movq	%rax, -88(%rbp)
Ltmp483:
	.loc	19 2092 22 is_stmt 0
	movq	%rcx, -480(%rbp)
	movq	%rax, -472(%rbp)
	movq	$0, -488(%rbp)
Ltmp484:
	.loc	19 2092 45
	jmp	LBB54_15
LBB54_14:
	.loc	19 2093 17 is_stmt 1
	movq	-456(%rbp), %rcx
	movq	-448(%rbp), %rax
	movq	%rcx, -112(%rbp)
	movq	%rax, -104(%rbp)
Ltmp485:
	.loc	19 2093 42 is_stmt 0
	movq	%rcx, -368(%rbp)
	movq	%rax, -360(%rbp)
	.loc	19 2093 23
	movq	-368(%rbp), %rcx
	movq	-360(%rbp), %rax
	movq	%rcx, -480(%rbp)
	movq	%rax, -472(%rbp)
	movq	$1, -488(%rbp)
Ltmp486:
LBB54_15:
	.loc	22 400 19 is_stmt 1
	cmpq	$0, -488(%rbp)
	jne	LBB54_17
	.loc	22 0 19 is_stmt 0
	movq	-648(%rbp), %rcx
	movq	-624(%rbp), %rdi
	.loc	22 400 19
	movq	-480(%rbp), %rsi
	movq	-472(%rbp), %rdx
	movq	%rsi, -32(%rbp)
	movq	%rdx, -24(%rbp)
Ltmp487:
	.loc	22 400 19
	movq	%rsi, -16(%rbp)
	movq	%rdx, -8(%rbp)
Ltmp488:
	.loc	22 401 9 is_stmt 1
	callq	__ZN5alloc7raw_vec19RawVec$LT$T$C$A$GT$15set_ptr_and_cap17hd139495d0b983656E
	.loc	22 402 9
	movabsq	$-9223372036854775807, %rax
	movq	%rax, -592(%rbp)
Ltmp489:
	.loc	22 403 6
	jmp	LBB54_3
LBB54_17:
Ltmp490:
	.loc	22 400 82
	movq	-480(%rbp), %rcx
	movq	-472(%rbp), %rax
	movq	%rcx, -80(%rbp)
	movq	%rax, -72(%rbp)
Ltmp491:
	.loc	22 400 82 is_stmt 0
	movq	%rcx, -416(%rbp)
	movq	%rax, -408(%rbp)
Ltmp492:
	.loc	19 2107 17 is_stmt 1
	movq	-416(%rbp), %rcx
	movq	-408(%rbp), %rax
	movq	%rcx, -64(%rbp)
	movq	%rax, -56(%rbp)
Ltmp493:
	.loc	19 2107 38 is_stmt 0
	movq	%rcx, -48(%rbp)
	movq	%rax, -40(%rbp)
	.loc	19 2107 23
	movq	%rcx, -600(%rbp)
	movq	%rax, -592(%rbp)
Ltmp494:
	.loc	27 1 1 is_stmt 1
	jmp	LBB54_12
Ltmp495:
Lfunc_end54:
	.cfi_endproc

	.globl	__ZN5alloc7raw_vec19RawVec$LT$T$C$A$GT$15set_ptr_and_cap17hd139495d0b983656E
	.p2align	4, 0x90
__ZN5alloc7raw_vec19RawVec$LT$T$C$A$GT$15set_ptr_and_cap17hd139495d0b983656E:
Lfunc_begin55:
	.loc	22 364 0
	.cfi_startproc
	pushq	%rbp
	.cfi_def_cfa_offset 16
	.cfi_offset %rbp, -16
	movq	%rsp, %rbp
	.cfi_def_cfa_register %rbp
	subq	$112, %rsp
	movq	%rdi, -88(%rbp)
	movq	%rsi, -80(%rbp)
	movq	%rdx, -72(%rbp)
	movq	%rcx, -64(%rbp)
Ltmp496:
	.loc	22 368 51 prologue_end
	movq	%rsi, -56(%rbp)
	movq	%rdx, -48(%rbp)
Ltmp497:
	.loc	5 450 41
	movq	%rsi, -40(%rbp)
	movq	%rdx, -32(%rbp)
	movq	%rsi, -24(%rbp)
Ltmp498:
	.loc	5 201 13
	movq	%rsi, -104(%rbp)
Ltmp499:
	.loc	5 326 9
	movq	-104(%rbp), %rax
	movq	%rax, -16(%rbp)
Ltmp500:
	.loc	6 87 59
	movq	%rax, -8(%rbp)
Ltmp501:
	.loc	5 201 13
	movq	%rax, -96(%rbp)
Ltmp502:
	.loc	6 87 18
	movq	-96(%rbp), %rax
	movq	%rax, -112(%rbp)
Ltmp503:
	.loc	22 368 9
	movq	-112(%rbp), %rax
	movq	%rax, 8(%rdi)
	.loc	22 369 9
	movq	%rcx, (%rdi)
	.loc	22 370 6
	addq	$112, %rsp
	popq	%rbp
	retq
Ltmp504:
Lfunc_end55:
	.cfi_endproc

	.globl	__ZN5alloc7raw_vec19RawVec$LT$T$C$A$GT$16reserve_for_push17h8bfa77d7f4732594E
	.p2align	4, 0x90
__ZN5alloc7raw_vec19RawVec$LT$T$C$A$GT$16reserve_for_push17h8bfa77d7f4732594E:
Lfunc_begin56:
	.loc	22 297 0
	.cfi_startproc
	pushq	%rbp
	.cfi_def_cfa_offset 16
	.cfi_offset %rbp, -16
	movq	%rsp, %rbp
	.cfi_def_cfa_register %rbp
	subq	$16, %rsp
	movq	%rdi, -16(%rbp)
	movq	%rsi, -8(%rbp)
Ltmp505:
	.loc	22 298 24 prologue_end
	movl	$1, %edx
	callq	__ZN5alloc7raw_vec19RawVec$LT$T$C$A$GT$14grow_amortized17h6e9f174e163cb593E
	movq	%rax, %rdi
	movq	%rdx, %rsi
	.loc	22 298 9 is_stmt 0
	callq	__ZN5alloc7raw_vec14handle_reserve17hf1af5555dc1b3e2cE
	.loc	22 299 6 is_stmt 1
	addq	$16, %rsp
	popq	%rbp
	retq
Ltmp506:
Lfunc_end56:
	.cfi_endproc

	.globl	__ZN5alloc7raw_vec19RawVec$LT$T$C$A$GT$7reserve17hab672a3aaaf161ccE
	.p2align	4, 0x90
__ZN5alloc7raw_vec19RawVec$LT$T$C$A$GT$7reserve17hab672a3aaaf161ccE:
Lfunc_begin57:
	.loc	22 274 0
	.cfi_startproc
	pushq	%rbp
	.cfi_def_cfa_offset 16
	.cfi_offset %rbp, -16
	movq	%rsp, %rbp
	.cfi_def_cfa_register %rbp
	subq	$48, %rsp
	movq	%rdi, -48(%rbp)
	movq	%rsi, -40(%rbp)
	movq	%rdx, -32(%rbp)
	movq	%rdi, -24(%rbp)
	movq	%rsi, -16(%rbp)
	movq	%rdx, -8(%rbp)
Ltmp507:
	.loc	22 288 12 prologue_end
	callq	__ZN5alloc7raw_vec19RawVec$LT$T$C$A$GT$13needs_to_grow17h54dd5674971ccc01E
	testb	$1, %al
	jne	LBB57_2
LBB57_1:
	.loc	22 291 6
	addq	$48, %rsp
	popq	%rbp
	retq
LBB57_2:
	.loc	22 0 6 is_stmt 0
	movq	-32(%rbp), %rdx
	movq	-40(%rbp), %rsi
	movq	-48(%rbp), %rdi
	.loc	22 289 13 is_stmt 1
	callq	__ZN5alloc7raw_vec19RawVec$LT$T$C$A$GT$7reserve21do_reserve_and_handle17hee63775f3b448505E
	.loc	22 288 9
	jmp	LBB57_1
Ltmp508:
Lfunc_end57:
	.cfi_endproc

	.globl	__ZN5alloc7raw_vec19RawVec$LT$T$C$A$GT$7reserve21do_reserve_and_handle17hee63775f3b448505E
	.p2align	4, 0x90
__ZN5alloc7raw_vec19RawVec$LT$T$C$A$GT$7reserve21do_reserve_and_handle17hee63775f3b448505E:
Lfunc_begin58:
	.loc	22 280 0
	.cfi_startproc
	pushq	%rbp
	.cfi_def_cfa_offset 16
	.cfi_offset %rbp, -16
	movq	%rsp, %rbp
	.cfi_def_cfa_register %rbp
	subq	$32, %rsp
	movq	%rdi, -24(%rbp)
	movq	%rsi, -16(%rbp)
	movq	%rdx, -8(%rbp)
Ltmp509:
	.loc	22 285 28 prologue_end
	callq	__ZN5alloc7raw_vec19RawVec$LT$T$C$A$GT$14grow_amortized17h6e9f174e163cb593E
	movq	%rax, %rdi
	movq	%rdx, %rsi
	.loc	22 285 13 is_stmt 0
	callq	__ZN5alloc7raw_vec14handle_reserve17hf1af5555dc1b3e2cE
	.loc	22 286 10 is_stmt 1
	addq	$32, %rsp
	popq	%rbp
	retq
Ltmp510:
Lfunc_end58:
	.cfi_endproc

	.p2align	4, 0x90
__ZN60_$LT$alloc..string..String$u20$as$u20$core..fmt..Display$GT$3fmt17h8245685eca3fa026E:
Lfunc_begin59:
	.loc	10 2274 0
	.cfi_startproc
	pushq	%rbp
	.cfi_def_cfa_offset 16
	.cfi_offset %rbp, -16
	movq	%rsp, %rbp
	.cfi_def_cfa_register %rbp
	subq	$64, %rsp
	movq	%rsi, -64(%rbp)
	movq	%rdi, -56(%rbp)
	movq	%rsi, -48(%rbp)
Ltmp511:
	.loc	10 2275 29 prologue_end
	movq	%rdi, -40(%rbp)
Ltmp512:
	.loc	10 2460 43
	callq	__ZN72_$LT$alloc..vec..Vec$LT$T$C$A$GT$$u20$as$u20$core..ops..deref..Deref$GT$5deref17h64af661593421a68E
	movq	%rax, %rcx
	movq	%rdx, %rax
	movq	-64(%rbp), %rdx
	movq	%rcx, -32(%rbp)
	movq	%rax, -24(%rbp)
Ltmp513:
	.file	29 "/rustc/2c8cc343237b8f7d5a3c3703e3a87f2eb2c54a74/library/core/src/str" "converts.rs"
	.loc	29 173 14
	movq	%rcx, -16(%rbp)
	movq	%rax, -8(%rbp)
	movq	-16(%rbp), %rdi
	movq	-8(%rbp), %rsi
Ltmp514:
	.loc	10 2275 9
	callq	__ZN42_$LT$str$u20$as$u20$core..fmt..Display$GT$3fmt17hd1cabce055ea2fbdE
	.loc	10 2276 6
	andb	$1, %al
	movzbl	%al, %eax
	addq	$64, %rsp
	popq	%rbp
	retq
Ltmp515:
Lfunc_end59:
	.cfi_endproc

	.p2align	4, 0x90
__ZN63_$LT$alloc..alloc..Global$u20$as$u20$core..alloc..Allocator$GT$10deallocate17h1214806d0f2a85cfE:
Lfunc_begin60:
	.loc	25 246 0
	.cfi_startproc
	pushq	%rbp
	.cfi_def_cfa_offset 16
	.cfi_offset %rbp, -16
	movq	%rsp, %rbp
	.cfi_def_cfa_register %rbp
	subq	$112, %rsp
	movq	%rsi, -112(%rbp)
	movq	%rdx, -104(%rbp)
	movq	%rcx, -96(%rbp)
	movq	%rdi, -64(%rbp)
	movq	%rsi, -56(%rbp)
Ltmp516:
	.loc	25 247 12 prologue_end
	leaq	-104(%rbp), %rax
	movq	%rax, -48(%rbp)
	cmpq	$0, -104(%rbp)
	jne	LBB60_2
	.loc	25 247 9 is_stmt 0
	jmp	LBB60_3
LBB60_2:
	.loc	25 0 9
	movq	-112(%rbp), %rdi
	.loc	25 250 30 is_stmt 1
	movq	%rdi, -40(%rbp)
Ltmp517:
	.loc	5 326 9
	movq	%rdi, -32(%rbp)
Ltmp518:
	.loc	25 250 44
	movq	-104(%rbp), %rcx
	movq	-96(%rbp), %rax
	movq	%rcx, -88(%rbp)
	movq	%rax, -80(%rbp)
Ltmp519:
	.loc	25 113 34
	leaq	-88(%rbp), %rax
	movq	%rax, -24(%rbp)
Ltmp520:
	.loc	17 129 9
	movq	-88(%rbp), %rsi
Ltmp521:
	.loc	25 113 49
	leaq	-88(%rbp), %rax
	movq	%rax, -16(%rbp)
Ltmp522:
	.loc	17 140 9
	movq	-80(%rbp), %rax
	movq	%rax, -8(%rbp)
Ltmp523:
	.loc	18 97 9
	movq	%rax, -72(%rbp)
	movq	-72(%rbp), %rdx
Ltmp524:
	.loc	25 113 14
	callq	___rust_dealloc
Ltmp525:
LBB60_3:
	.loc	25 252 6
	addq	$112, %rsp
	popq	%rbp
	retq
Ltmp526:
Lfunc_end60:
	.cfi_endproc

	.p2align	4, 0x90
__ZN63_$LT$alloc..alloc..Global$u20$as$u20$core..alloc..Allocator$GT$4grow17hfd9d2da0cf1510edE:
Lfunc_begin61:
	.loc	25 255 0
	.cfi_startproc
	pushq	%rbp
	.cfi_def_cfa_offset 16
	.cfi_offset %rbp, -16
	movq	%rsp, %rbp
	.cfi_def_cfa_register %rbp
	subq	$64, %rsp
	movq	%rdi, -48(%rbp)
	movq	%rsi, -40(%rbp)
	movq	%rdx, -32(%rbp)
	movq	%rcx, -24(%rbp)
	movq	%r8, -16(%rbp)
	movq	%r9, -8(%rbp)
Ltmp527:
	.loc	25 262 18 prologue_end
	movq	%rsp, %rax
	movl	$0, (%rax)
	callq	__ZN5alloc5alloc6Global9grow_impl17hfb6e521085dcf0b0E
	.loc	25 263 6
	addq	$64, %rsp
	popq	%rbp
	retq
Ltmp528:
Lfunc_end61:
	.cfi_endproc

	.p2align	4, 0x90
__ZN63_$LT$alloc..alloc..Global$u20$as$u20$core..alloc..Allocator$GT$8allocate17hd9a676cc94e4215bE:
Lfunc_begin62:
	.loc	25 236 0
	.cfi_startproc
	pushq	%rbp
	.cfi_def_cfa_offset 16
	.cfi_offset %rbp, -16
	movq	%rsp, %rbp
	.cfi_def_cfa_register %rbp
	subq	$32, %rsp
	movq	%rdi, -24(%rbp)
	movq	%rsi, -16(%rbp)
	movq	%rdx, -8(%rbp)
	xorl	%ecx, %ecx
Ltmp529:
	.loc	25 237 9 prologue_end
	callq	__ZN5alloc5alloc6Global10alloc_impl17h6d763db28114451cE
	.loc	25 238 6
	addq	$32, %rsp
	popq	%rbp
	retq
Ltmp530:
Lfunc_end62:
	.cfi_endproc

	.globl	__ZN70_$LT$alloc..vec..Vec$LT$T$C$A$GT$$u20$as$u20$core..ops..drop..Drop$GT$4drop17h44345d51823567e8E
	.p2align	4, 0x90
__ZN70_$LT$alloc..vec..Vec$LT$T$C$A$GT$$u20$as$u20$core..ops..drop..Drop$GT$4drop17h44345d51823567e8E:
Lfunc_begin63:
	.loc	11 3054 0
	.cfi_startproc
	pushq	%rbp
	.cfi_def_cfa_offset 16
	.cfi_offset %rbp, -16
	movq	%rsp, %rbp
	.cfi_def_cfa_register %rbp
	subq	$160, %rsp
	movq	%rdi, -120(%rbp)
Ltmp531:
	.loc	11 3059 62 prologue_end
	movq	%rdi, -112(%rbp)
Ltmp532:
	.loc	11 1280 19
	movq	%rdi, -104(%rbp)
Ltmp533:
	.loc	22 224 9
	movq	8(%rdi), %rcx
	movq	%rcx, -96(%rbp)
Ltmp534:
	.loc	6 104 9
	movq	%rcx, -88(%rbp)
Ltmp535:
	.loc	5 326 9
	movq	%rcx, -80(%rbp)
Ltmp536:
	.loc	11 1282 21
	movq	%rcx, -72(%rbp)
Ltmp537:
	.loc	2 52 36
	movq	%rcx, -160(%rbp)
	.loc	2 52 18 is_stmt 0
	movq	-160(%rbp), %rax
	movq	%rax, -64(%rbp)
Ltmp538:
	.loc	2 38 13 is_stmt 1
	movq	%rax, -56(%rbp)
Ltmp539:
	.loc	2 215 33
	movq	%rax, -48(%rbp)
	.loc	2 215 18 is_stmt 0
	movq	%rax, -40(%rbp)
Ltmp540:
	.loc	11 3059 81 is_stmt 1
	movq	16(%rdi), %rax
	movq	%rax, -32(%rbp)
Ltmp541:
	.loc	3 766 24
	movq	%rcx, -24(%rbp)
Ltmp542:
	.loc	2 60 9
	movq	%rcx, -16(%rbp)
Ltmp543:
	.loc	3 766 37
	movq	%rax, -8(%rbp)
Ltmp544:
	.loc	4 135 36
	movq	%rcx, -136(%rbp)
	movq	%rax, -128(%rbp)
	.loc	4 135 14 is_stmt 0
	movq	-136(%rbp), %rcx
	movq	-128(%rbp), %rax
	movq	%rcx, -152(%rbp)
	movq	%rax, -144(%rbp)
Ltmp545:
	.loc	11 3062 6 is_stmt 1
	addq	$160, %rsp
	popq	%rbp
	retq
Ltmp546:
Lfunc_end63:
	.cfi_endproc

	.globl	__ZN72_$LT$alloc..vec..Vec$LT$T$C$A$GT$$u20$as$u20$core..ops..deref..Deref$GT$5deref17h64af661593421a68E
	.p2align	4, 0x90
__ZN72_$LT$alloc..vec..Vec$LT$T$C$A$GT$$u20$as$u20$core..ops..deref..Deref$GT$5deref17h64af661593421a68E:
Lfunc_begin64:
	.loc	11 2636 0
	.cfi_startproc
	pushq	%rbp
	.cfi_def_cfa_offset 16
	.cfi_offset %rbp, -16
	movq	%rsp, %rbp
	.cfi_def_cfa_register %rbp
	subq	$184, %rsp
	movq	%rdi, -144(%rbp)
Ltmp547:
	.loc	11 2637 40 prologue_end
	movq	%rdi, -136(%rbp)
Ltmp548:
	.loc	11 1243 19
	movq	%rdi, -128(%rbp)
Ltmp549:
	.loc	22 224 9
	movq	8(%rdi), %rcx
	movq	%rcx, -120(%rbp)
Ltmp550:
	.loc	6 104 9
	movq	%rcx, -112(%rbp)
Ltmp551:
	.loc	5 326 9
	movq	%rcx, -104(%rbp)
Ltmp552:
	.loc	11 1245 21
	movq	%rcx, -96(%rbp)
Ltmp553:
	.loc	2 52 36
	movq	%rcx, -184(%rbp)
	.loc	2 52 18 is_stmt 0
	movq	-184(%rbp), %rax
	movq	%rax, -88(%rbp)
Ltmp554:
	.loc	2 38 13 is_stmt 1
	movq	%rax, -80(%rbp)
Ltmp555:
	.loc	2 215 33
	movq	%rax, -72(%rbp)
	.loc	2 215 18 is_stmt 0
	movq	%rax, -64(%rbp)
Ltmp556:
	.loc	11 1247 9 is_stmt 1
	movq	%rcx, -56(%rbp)
Ltmp557:
	.loc	11 2637 55
	movq	16(%rdi), %rax
	movq	%rax, -48(%rbp)
Ltmp558:
	.file	30 "/rustc/2c8cc343237b8f7d5a3c3703e3a87f2eb2c54a74/library/core/src/slice" "raw.rs"
	.loc	30 100 37
	movq	%rcx, -40(%rbp)
	.loc	30 100 43 is_stmt 0
	movq	%rax, -32(%rbp)
Ltmp559:
	.loc	3 734 20 is_stmt 1
	movq	%rcx, -24(%rbp)
Ltmp560:
	.file	31 "/rustc/2c8cc343237b8f7d5a3c3703e3a87f2eb2c54a74/library/core/src/ptr" "const_ptr.rs"
	.loc	31 61 9
	movq	%rcx, -16(%rbp)
Ltmp561:
	.loc	3 734 33
	movq	%rax, -8(%rbp)
Ltmp562:
	.loc	4 118 36
	movq	%rcx, -160(%rbp)
	movq	%rax, -152(%rbp)
	.loc	4 118 14 is_stmt 0
	movq	-160(%rbp), %rcx
	movq	-152(%rbp), %rax
	movq	%rcx, -176(%rbp)
	movq	%rax, -168(%rbp)
	movq	-176(%rbp), %rax
	movq	-168(%rbp), %rdx
Ltmp563:
	.loc	11 2638 6 is_stmt 1
	addq	$184, %rsp
	popq	%rbp
	retq
Ltmp564:
Lfunc_end64:
	.cfi_endproc

	.globl	__ZN77_$LT$alloc..raw_vec..RawVec$LT$T$C$A$GT$$u20$as$u20$core..ops..drop..Drop$GT$4drop17h0f940f28887100c6E
	.p2align	4, 0x90
__ZN77_$LT$alloc..raw_vec..RawVec$LT$T$C$A$GT$$u20$as$u20$core..ops..drop..Drop$GT$4drop17h0f940f28887100c6E:
Lfunc_begin65:
	.loc	22 477 0
	.cfi_startproc
	pushq	%rbp
	.cfi_def_cfa_offset 16
	.cfi_offset %rbp, -16
	movq	%rsp, %rbp
	.cfi_def_cfa_register %rbp
	subq	$64, %rsp
	movq	%rdi, %rsi
	movq	%rsi, -64(%rbp)
	movq	%rsi, -32(%rbp)
Ltmp565:
	.loc	22 478 38 prologue_end
	leaq	-56(%rbp), %rdi
	callq	__ZN5alloc7raw_vec19RawVec$LT$T$C$A$GT$14current_memory17h23371ab57dc37c50E
	.loc	22 478 16 is_stmt 0
	movl	$1, %eax
	xorl	%ecx, %ecx
	cmpq	$0, -40(%rbp)
	cmoveq	%rcx, %rax
	cmpq	$1, %rax
	jne	LBB65_2
	.loc	22 0 16
	movq	-64(%rbp), %rdi
	.loc	22 478 22
	movq	-56(%rbp), %rsi
	movq	%rsi, -24(%rbp)
	.loc	22 478 27
	movq	-48(%rbp), %rdx
	movq	-40(%rbp), %rcx
	movq	%rdx, -16(%rbp)
	movq	%rcx, -8(%rbp)
	.loc	22 479 22 is_stmt 1
	callq	__ZN63_$LT$alloc..alloc..Global$u20$as$u20$core..alloc..Allocator$GT$10deallocate17h1214806d0f2a85cfE
Ltmp566:
LBB65_2:
	.loc	22 481 6
	addq	$64, %rsp
	popq	%rbp
	retq
Ltmp567:
Lfunc_end65:
	.cfi_endproc

	.globl	__ZN68_$LT$num_complex..Complex$LT$T$GT$$u20$as$u20$core..fmt..Display$GT$3fmt9fmt_re_im17h730ac56b202d4dfbE
	.p2align	4, 0x90
__ZN68_$LT$num_complex..Complex$LT$T$GT$$u20$as$u20$core..fmt..Display$GT$3fmt9fmt_re_im17h730ac56b202d4dfbE:
Lfunc_begin66:
	.loc	27 1220 0
	.cfi_startproc
	pushq	%rbp
	.cfi_def_cfa_offset 16
	.cfi_offset %rbp, -16
	movq	%rsp, %rbp
	.cfi_def_cfa_register %rbp
	subq	$560, %rsp
	movq	%r8, -448(%rbp)
Ltmp568:
	movq	%rcx, -440(%rbp)
Ltmp569:
	movq	%rdi, -432(%rbp)
	movb	%dl, %al
	movb	%al, -419(%rbp)
	movb	%sil, %cl
	movb	%cl, -418(%rbp)
	movq	%rdi, -16(%rbp)
	andb	$1, %cl
	movb	%cl, -2(%rbp)
	andb	$1, %al
	movb	%al, -1(%rbp)
Ltmp570:
	.loc	27 1227 29 prologue_end
	callq	__ZN4core3fmt9Formatter9alternate17hfdc18037c6b4846fE
Ltmp571:
	testb	$1, %al
Ltmp572:
	jne	LBB66_2
Ltmp573:
	.loc	27 1227 62 is_stmt 0
	leaq	l___unnamed_8(%rip), %rax
	movq	%rax, -416(%rbp)
	movq	$0, -408(%rbp)
	.loc	27 1227 26
	jmp	LBB66_3
Ltmp574:
LBB66_2:
	.loc	27 1285 31 is_stmt 1
	leaq	l___unnamed_8(%rip), %rax
	movq	%rax, -416(%rbp)
	movq	$0, -408(%rbp)
Ltmp575:
LBB66_3:
	.loc	27 0 31 is_stmt 0
	movb	-418(%rbp), %al
Ltmp576:
	.loc	27 1228 27 is_stmt 1
	testb	$1, %al
	jne	LBB66_5
	jmp	LBB66_4
Ltmp577:
LBB66_4:
	.loc	27 0 27 is_stmt 0
	movq	-432(%rbp), %rdi
	.loc	27 1230 23 is_stmt 1
	callq	__ZN4core3fmt9Formatter9sign_plus17h432aa8f859170509E
	testb	$1, %al
	jne	LBB66_8
	jmp	LBB66_7
Ltmp578:
LBB66_5:
	.loc	27 1229 17
	leaq	l___unnamed_15(%rip), %rax
	movq	%rax, -400(%rbp)
	movq	$1, -392(%rbp)
Ltmp579:
LBB66_6:
	.loc	27 0 17 is_stmt 0
	movb	-419(%rbp), %al
Ltmp580:
	.loc	27 1236 16 is_stmt 1
	testb	$1, %al
	jne	LBB66_11
	jmp	LBB66_10
Ltmp581:
LBB66_7:
	.loc	27 1233 17
	leaq	l___unnamed_8(%rip), %rax
	movq	%rax, -384(%rbp)
	movq	$0, -376(%rbp)
	.loc	27 1230 20
	jmp	LBB66_9
Ltmp582:
LBB66_8:
	.loc	27 1231 17
	leaq	l___unnamed_16(%rip), %rax
	movq	%rax, -384(%rbp)
	movq	$1, -376(%rbp)
Ltmp583:
LBB66_9:
	.loc	27 1230 20
	movq	-384(%rbp), %rcx
	movq	-376(%rbp), %rax
	movq	%rcx, -400(%rbp)
	movq	%rax, -392(%rbp)
	.loc	27 1228 24
	jmp	LBB66_6
Ltmp584:
LBB66_10:
	.loc	27 0 24 is_stmt 0
	movq	-448(%rbp), %rax
	movq	-440(%rbp), %rcx
Ltmp585:
	.loc	27 1250 21 is_stmt 1
	leaq	-400(%rbp), %rdx
	movq	%rdx, -80(%rbp)
	movq	%rcx, -72(%rbp)
	movq	%rax, -64(%rbp)
	leaq	-416(%rbp), %rax
	movq	%rax, -56(%rbp)
	movq	-80(%rbp), %rax
	movq	%rax, -48(%rbp)
	movq	-72(%rbp), %rax
	movq	%rax, -40(%rbp)
	movq	-64(%rbp), %rax
	movq	%rax, -32(%rbp)
	movq	-56(%rbp), %rax
	movq	%rax, -24(%rbp)
Ltmp586:
	.loc	27 1250 21 is_stmt 0
	movq	-48(%rbp), %rdi
	callq	__ZN4core3fmt10ArgumentV111new_display17h90f2e198741c63bbE
	movq	%rax, -496(%rbp)
	movq	%rdx, -488(%rbp)
	movq	-24(%rbp), %rdi
	callq	__ZN4core3fmt10ArgumentV111new_display17h90f2e198741c63bbE
	movq	%rax, -480(%rbp)
	movq	%rdx, -472(%rbp)
	movq	-40(%rbp), %rdi
	callq	__ZN4core3fmt10ArgumentV111new_display17h6537807991185c45E
	movq	%rax, -464(%rbp)
	movq	%rdx, -456(%rbp)
	movq	-32(%rbp), %rdi
	callq	__ZN4core3fmt10ArgumentV111new_display17h6537807991185c45E
	movq	-496(%rbp), %r10
	movq	-488(%rbp), %r9
	movq	-480(%rbp), %r8
	movq	-472(%rbp), %rdi
	movq	-464(%rbp), %rsi
	movq	-456(%rbp), %rcx
	movq	%r10, -144(%rbp)
	movq	%r9, -136(%rbp)
	movq	%r8, -128(%rbp)
	movq	%rdi, -120(%rbp)
	movq	%rsi, -112(%rbp)
	movq	%rcx, -104(%rbp)
	movq	%rax, -96(%rbp)
	movq	%rdx, -88(%rbp)
Ltmp587:
	.loc	27 1250 21
	leaq	-192(%rbp), %rdi
	leaq	l___unnamed_17(%rip), %rsi
	movl	$6, %edx
	leaq	-144(%rbp), %rcx
	movl	$4, %r8d
	leaq	l___unnamed_18(%rip), %r9
	movq	$5, (%rsp)
	callq	__ZN4core3fmt9Arguments16new_v1_formatted17hf4e592764145e6f3E
	movq	-432(%rbp), %rdi
	.loc	27 1248 17 is_stmt 1
	leaq	-192(%rbp), %rsi
	callq	__ZN68_$LT$num_complex..Complex$LT$T$GT$$u20$as$u20$core..fmt..Display$GT$3fmt11fmt_complex17hf631d96ebee3554dE
	andb	$1, %al
	movb	%al, -417(%rbp)
	jmp	LBB66_12
Ltmp588:
LBB66_11:
	.loc	27 0 17 is_stmt 0
	movq	-448(%rbp), %rax
	movq	-440(%rbp), %rcx
	.loc	27 1239 21 is_stmt 1
	leaq	-400(%rbp), %rdx
	movq	%rdx, -256(%rbp)
	movq	%rcx, -248(%rbp)
	movq	%rax, -240(%rbp)
	leaq	-416(%rbp), %rax
	movq	%rax, -232(%rbp)
	movq	-256(%rbp), %rax
	movq	%rax, -224(%rbp)
	movq	-248(%rbp), %rax
	movq	%rax, -216(%rbp)
	movq	-240(%rbp), %rax
	movq	%rax, -208(%rbp)
	movq	-232(%rbp), %rax
	movq	%rax, -200(%rbp)
Ltmp589:
	.loc	27 1239 21 is_stmt 0
	movq	-224(%rbp), %rdi
	callq	__ZN4core3fmt10ArgumentV111new_display17h90f2e198741c63bbE
	movq	%rax, -544(%rbp)
	movq	%rdx, -536(%rbp)
	movq	-200(%rbp), %rdi
	callq	__ZN4core3fmt10ArgumentV111new_display17h90f2e198741c63bbE
	movq	%rax, -528(%rbp)
	movq	%rdx, -520(%rbp)
	movq	-216(%rbp), %rdi
	callq	__ZN4core3fmt10ArgumentV111new_display17h6537807991185c45E
	movq	%rax, -512(%rbp)
	movq	%rdx, -504(%rbp)
	movq	-208(%rbp), %rdi
	callq	__ZN4core3fmt10ArgumentV111new_display17h6537807991185c45E
	movq	-544(%rbp), %r10
	movq	-536(%rbp), %r9
	movq	-528(%rbp), %r8
	movq	-520(%rbp), %rdi
	movq	-512(%rbp), %rsi
	movq	-504(%rbp), %rcx
	movq	%r10, -320(%rbp)
	movq	%r9, -312(%rbp)
	movq	%r8, -304(%rbp)
	movq	%rdi, -296(%rbp)
	movq	%rsi, -288(%rbp)
	movq	%rcx, -280(%rbp)
	movq	%rax, -272(%rbp)
	movq	%rdx, -264(%rbp)
Ltmp590:
	.loc	27 1239 21
	leaq	-368(%rbp), %rdi
	leaq	l___unnamed_19(%rip), %rsi
	movl	$6, %edx
	leaq	-320(%rbp), %rcx
	movl	$4, %r8d
	leaq	l___unnamed_18(%rip), %r9
	movq	$5, (%rsp)
	callq	__ZN4core3fmt9Arguments16new_v1_formatted17hf4e592764145e6f3E
	movq	-432(%rbp), %rdi
	.loc	27 1237 17 is_stmt 1
	leaq	-368(%rbp), %rsi
	callq	__ZN68_$LT$num_complex..Complex$LT$T$GT$$u20$as$u20$core..fmt..Display$GT$3fmt11fmt_complex17hf631d96ebee3554dE
	andb	$1, %al
	movb	%al, -417(%rbp)
Ltmp591:
LBB66_12:
	.loc	27 1259 10
	movb	-417(%rbp), %al
	andb	$1, %al
	movzbl	%al, %eax
	addq	$560, %rsp
	popq	%rbp
	retq
Ltmp592:
Lfunc_end66:
	.cfi_endproc

	.p2align	4, 0x90
__ZN68_$LT$num_complex..Complex$LT$T$GT$$u20$as$u20$core..fmt..Display$GT$3fmt11fmt_complex17hf631d96ebee3554dE:
Lfunc_begin67:
	.loc	27 1263 0
	.cfi_startproc
	.cfi_personality 155, _rust_eh_personality
	.cfi_lsda 16, Lexception6
	pushq	%rbp
	.cfi_def_cfa_offset 16
	.cfi_offset %rbp, -16
	movq	%rsp, %rbp
	.cfi_def_cfa_register %rbp
	subq	$320, %rsp
	movq	%rdi, -240(%rbp)
	movq	%rsi, -232(%rbp)
Ltmp605:
	movq	%rdi, -24(%rbp)
Ltmp606:
	.loc	27 1265 34 prologue_end
	callq	__ZN4core3fmt9Formatter5width17hf2280918eebfdaceE
Ltmp607:
	movq	%rdx, -208(%rbp)
	movq	%rax, -216(%rbp)
	.loc	27 1265 20 is_stmt 0
	cmpq	$1, -216(%rbp)
Ltmp608:
	jne	LBB67_2
Ltmp609:
	.loc	27 0 20
	movq	-232(%rbp), %rsi
	.loc	27 1265 25
	movq	-208(%rbp), %rax
	movq	%rax, -200(%rbp)
	leaq	-112(%rbp), %rdi
	movq	%rdi, -264(%rbp)
	.loc	27 1266 39 is_stmt 1
	callq	__ZN45_$LT$T$u20$as$u20$alloc..string..ToString$GT$9to_string17h57ed4b6d419e4989E
	movq	-264(%rbp), %rdi
Ltmp593:
	.loc	27 1266 17 is_stmt 0
	callq	__ZN4core3fmt10ArgumentV111new_display17hfae033710a238110E
Ltmp594:
	movq	%rdx, -256(%rbp)
	movq	%rax, -248(%rbp)
	jmp	LBB67_6
Ltmp610:
LBB67_2:
	.loc	27 0 17
	movq	-232(%rbp), %rdi
	.loc	27 1268 17 is_stmt 1
	callq	__ZN4core3fmt10ArgumentV111new_display17h6537807991185c45E
	movq	%rax, -40(%rbp)
	movq	%rdx, -32(%rbp)
	leaq	-88(%rbp), %rdi
	leaq	l___unnamed_20(%rip), %rsi
	movl	$1, %r8d
	leaq	-40(%rbp), %rcx
	movq	%r8, %rdx
	callq	__ZN4core3fmt9Arguments6new_v117h812b3b80b41cd525E
	movq	-240(%rbp), %rdi
	leaq	-88(%rbp), %rsi
	callq	__ZN4core3fmt9Formatter9write_fmt17h9bb7721c944aee26E
	andb	$1, %al
	movb	%al, -217(%rbp)
Ltmp611:
LBB67_3:
	.loc	27 1270 10
	movb	-217(%rbp), %al
	andb	$1, %al
	movzbl	%al, %eax
	addq	$320, %rsp
	popq	%rbp
	retq
Ltmp612:
LBB67_4:
Ltmp602:
	.loc	27 0 10 is_stmt 0
	leaq	-112(%rbp), %rdi
Ltmp613:
	.loc	27 1267 13 is_stmt 1
	callq	__ZN4core3ptr42drop_in_place$LT$alloc..string..String$GT$17hab7414df8e531398E
Ltmp603:
	jmp	LBB67_12
Ltmp614:
LBB67_5:
Ltmp601:
	.loc	27 0 13 is_stmt 0
	movq	%rax, %rcx
	movl	%edx, %eax
	movq	%rcx, -16(%rbp)
	movl	%eax, -8(%rbp)
	jmp	LBB67_4
Ltmp615:
LBB67_6:
	movq	-256(%rbp), %rax
	movq	-248(%rbp), %rcx
	movq	%rcx, -296(%rbp)
	movq	%rax, -288(%rbp)
Ltmp595:
	leaq	-200(%rbp), %rdi
	.loc	27 1266 17 is_stmt 1
	callq	__ZN4core3fmt10ArgumentV110from_usize17h666f241ed1303d7dE
Ltmp596:
	movq	%rdx, -280(%rbp)
	movq	%rax, -272(%rbp)
	jmp	LBB67_7
Ltmp616:
LBB67_7:
	.loc	27 0 17 is_stmt 0
	movq	-280(%rbp), %rax
	movq	-272(%rbp), %rcx
	movq	-288(%rbp), %rdx
	movq	-296(%rbp), %rsi
	.loc	27 1266 17
	movq	%rsi, -144(%rbp)
	movq	%rdx, -136(%rbp)
	movq	%rcx, -128(%rbp)
	movq	%rax, -120(%rbp)
Ltmp617:
Ltmp597:
	movq	%rsp, %rax
	movq	$1, (%rax)
	leaq	l___unnamed_20(%rip), %rsi
	leaq	l___unnamed_21(%rip), %r9
	leaq	-192(%rbp), %rdi
	movl	$1, %edx
	leaq	-144(%rbp), %rcx
	movl	$2, %r8d
	callq	__ZN4core3fmt9Arguments16new_v1_formatted17hf4e592764145e6f3E
Ltmp598:
	jmp	LBB67_9
Ltmp618:
LBB67_9:
Ltmp599:
	.loc	27 0 17
	movq	-240(%rbp), %rdi
	leaq	-192(%rbp), %rsi
	.loc	27 1266 17
	callq	__ZN4core3fmt9Formatter9write_fmt17h9bb7721c944aee26E
Ltmp600:
	movb	%al, -297(%rbp)
	jmp	LBB67_10
Ltmp619:
LBB67_10:
	.loc	27 0 17
	movb	-297(%rbp), %al
	.loc	27 1266 17
	andb	$1, %al
	movb	%al, -217(%rbp)
	.loc	27 1267 13 is_stmt 1
	leaq	-112(%rbp), %rdi
	callq	__ZN4core3ptr42drop_in_place$LT$alloc..string..String$GT$17hab7414df8e531398E
	jmp	LBB67_3
Ltmp620:
LBB67_11:
Ltmp604:
	.loc	27 1263 9
	callq	__ZN4core9panicking19panic_cannot_unwind17h1fbca7e1d7f56ae1E
Ltmp621:
LBB67_12:
	movq	-16(%rbp), %rdi
	callq	__Unwind_Resume
Ltmp622:
Lfunc_end67:
	.cfi_endproc
	.section	__TEXT,__gcc_except_tab
	.p2align	2
GCC_except_table67:
Lexception6:
	.byte	255
	.byte	255
	.byte	1
	.uleb128 Lcst_end6-Lcst_begin6
Lcst_begin6:
	.uleb128 Lfunc_begin67-Lfunc_begin67
	.uleb128 Ltmp593-Lfunc_begin67
	.byte	0
	.byte	0
	.uleb128 Ltmp593-Lfunc_begin67
	.uleb128 Ltmp594-Ltmp593
	.uleb128 Ltmp601-Lfunc_begin67
	.byte	0
	.uleb128 Ltmp594-Lfunc_begin67
	.uleb128 Ltmp602-Ltmp594
	.byte	0
	.byte	0
	.uleb128 Ltmp602-Lfunc_begin67
	.uleb128 Ltmp603-Ltmp602
	.uleb128 Ltmp604-Lfunc_begin67
	.byte	0
	.uleb128 Ltmp595-Lfunc_begin67
	.uleb128 Ltmp600-Ltmp595
	.uleb128 Ltmp601-Lfunc_begin67
	.byte	0
	.uleb128 Ltmp600-Lfunc_begin67
	.uleb128 Lfunc_end67-Ltmp600
	.byte	0
	.byte	0
Lcst_end6:
	.p2align	2

	.section	__TEXT,__text,regular,pure_instructions
	.globl	__ZN69_$LT$num_complex..Complex$LT$T$GT$$u20$as$u20$core..fmt..LowerExp$GT$3fmt9fmt_re_im17h2a225f803c984e63E
	.p2align	4, 0x90
__ZN69_$LT$num_complex..Complex$LT$T$GT$$u20$as$u20$core..fmt..LowerExp$GT$3fmt9fmt_re_im17h2a225f803c984e63E:
Lfunc_begin68:
	.loc	27 1220 0
	.cfi_startproc
	pushq	%rbp
	.cfi_def_cfa_offset 16
	.cfi_offset %rbp, -16
	movq	%rsp, %rbp
	.cfi_def_cfa_register %rbp
	subq	$560, %rsp
	movq	%r8, -448(%rbp)
Ltmp623:
	movq	%rcx, -440(%rbp)
Ltmp624:
	movq	%rdi, -432(%rbp)
	movb	%dl, %al
	movb	%al, -419(%rbp)
	movb	%sil, %cl
	movb	%cl, -418(%rbp)
	movq	%rdi, -16(%rbp)
	andb	$1, %cl
	movb	%cl, -2(%rbp)
	andb	$1, %al
	movb	%al, -1(%rbp)
Ltmp625:
	.loc	27 1227 29 prologue_end
	callq	__ZN4core3fmt9Formatter9alternate17hfdc18037c6b4846fE
Ltmp626:
	testb	$1, %al
Ltmp627:
	jne	LBB68_2
Ltmp628:
	.loc	27 1227 62 is_stmt 0
	leaq	l___unnamed_8(%rip), %rax
	movq	%rax, -416(%rbp)
	movq	$0, -408(%rbp)
	.loc	27 1227 26
	jmp	LBB68_3
Ltmp629:
LBB68_2:
	.loc	27 1294 32 is_stmt 1
	leaq	l___unnamed_8(%rip), %rax
	movq	%rax, -416(%rbp)
	movq	$0, -408(%rbp)
Ltmp630:
LBB68_3:
	.loc	27 0 32 is_stmt 0
	movb	-418(%rbp), %al
Ltmp631:
	.loc	27 1228 27 is_stmt 1
	testb	$1, %al
	jne	LBB68_5
	jmp	LBB68_4
Ltmp632:
LBB68_4:
	.loc	27 0 27 is_stmt 0
	movq	-432(%rbp), %rdi
	.loc	27 1230 23 is_stmt 1
	callq	__ZN4core3fmt9Formatter9sign_plus17h432aa8f859170509E
	testb	$1, %al
	jne	LBB68_8
	jmp	LBB68_7
Ltmp633:
LBB68_5:
	.loc	27 1229 17
	leaq	l___unnamed_15(%rip), %rax
	movq	%rax, -400(%rbp)
	movq	$1, -392(%rbp)
Ltmp634:
LBB68_6:
	.loc	27 0 17 is_stmt 0
	movb	-419(%rbp), %al
Ltmp635:
	.loc	27 1236 16 is_stmt 1
	testb	$1, %al
	jne	LBB68_11
	jmp	LBB68_10
Ltmp636:
LBB68_7:
	.loc	27 1233 17
	leaq	l___unnamed_8(%rip), %rax
	movq	%rax, -384(%rbp)
	movq	$0, -376(%rbp)
	.loc	27 1230 20
	jmp	LBB68_9
Ltmp637:
LBB68_8:
	.loc	27 1231 17
	leaq	l___unnamed_16(%rip), %rax
	movq	%rax, -384(%rbp)
	movq	$1, -376(%rbp)
Ltmp638:
LBB68_9:
	.loc	27 1230 20
	movq	-384(%rbp), %rcx
	movq	-376(%rbp), %rax
	movq	%rcx, -400(%rbp)
	movq	%rax, -392(%rbp)
	.loc	27 1228 24
	jmp	LBB68_6
Ltmp639:
LBB68_10:
	.loc	27 0 24 is_stmt 0
	movq	-448(%rbp), %rax
	movq	-440(%rbp), %rcx
Ltmp640:
	.loc	27 1250 21 is_stmt 1
	leaq	-400(%rbp), %rdx
	movq	%rdx, -80(%rbp)
	movq	%rcx, -72(%rbp)
	movq	%rax, -64(%rbp)
	leaq	-416(%rbp), %rax
	movq	%rax, -56(%rbp)
	movq	-80(%rbp), %rax
	movq	%rax, -48(%rbp)
	movq	-72(%rbp), %rax
	movq	%rax, -40(%rbp)
	movq	-64(%rbp), %rax
	movq	%rax, -32(%rbp)
	movq	-56(%rbp), %rax
	movq	%rax, -24(%rbp)
Ltmp641:
	.loc	27 1250 21 is_stmt 0
	movq	-48(%rbp), %rdi
	callq	__ZN4core3fmt10ArgumentV111new_display17h90f2e198741c63bbE
	movq	%rax, -496(%rbp)
	movq	%rdx, -488(%rbp)
	movq	-24(%rbp), %rdi
	callq	__ZN4core3fmt10ArgumentV111new_display17h90f2e198741c63bbE
	movq	%rax, -480(%rbp)
	movq	%rdx, -472(%rbp)
	movq	-40(%rbp), %rdi
	callq	__ZN4core3fmt10ArgumentV111new_display17h6537807991185c45E
	movq	%rax, -464(%rbp)
	movq	%rdx, -456(%rbp)
	movq	-32(%rbp), %rdi
	callq	__ZN4core3fmt10ArgumentV111new_display17h6537807991185c45E
	movq	-496(%rbp), %r10
	movq	-488(%rbp), %r9
	movq	-480(%rbp), %r8
	movq	-472(%rbp), %rdi
	movq	-464(%rbp), %rsi
	movq	-456(%rbp), %rcx
	movq	%r10, -144(%rbp)
	movq	%r9, -136(%rbp)
	movq	%r8, -128(%rbp)
	movq	%rdi, -120(%rbp)
	movq	%rsi, -112(%rbp)
	movq	%rcx, -104(%rbp)
	movq	%rax, -96(%rbp)
	movq	%rdx, -88(%rbp)
Ltmp642:
	.loc	27 1250 21
	leaq	-192(%rbp), %rdi
	leaq	l___unnamed_17(%rip), %rsi
	movl	$6, %edx
	leaq	-144(%rbp), %rcx
	movl	$4, %r8d
	leaq	l___unnamed_18(%rip), %r9
	movq	$5, (%rsp)
	callq	__ZN4core3fmt9Arguments16new_v1_formatted17hf4e592764145e6f3E
	movq	-432(%rbp), %rdi
	.loc	27 1248 17 is_stmt 1
	leaq	-192(%rbp), %rsi
	callq	__ZN69_$LT$num_complex..Complex$LT$T$GT$$u20$as$u20$core..fmt..LowerExp$GT$3fmt11fmt_complex17h66400021d0c525a9E
	andb	$1, %al
	movb	%al, -417(%rbp)
	jmp	LBB68_12
Ltmp643:
LBB68_11:
	.loc	27 0 17 is_stmt 0
	movq	-448(%rbp), %rax
	movq	-440(%rbp), %rcx
	.loc	27 1239 21 is_stmt 1
	leaq	-400(%rbp), %rdx
	movq	%rdx, -256(%rbp)
	movq	%rcx, -248(%rbp)
	movq	%rax, -240(%rbp)
	leaq	-416(%rbp), %rax
	movq	%rax, -232(%rbp)
	movq	-256(%rbp), %rax
	movq	%rax, -224(%rbp)
	movq	-248(%rbp), %rax
	movq	%rax, -216(%rbp)
	movq	-240(%rbp), %rax
	movq	%rax, -208(%rbp)
	movq	-232(%rbp), %rax
	movq	%rax, -200(%rbp)
Ltmp644:
	.loc	27 1239 21 is_stmt 0
	movq	-224(%rbp), %rdi
	callq	__ZN4core3fmt10ArgumentV111new_display17h90f2e198741c63bbE
	movq	%rax, -544(%rbp)
	movq	%rdx, -536(%rbp)
	movq	-200(%rbp), %rdi
	callq	__ZN4core3fmt10ArgumentV111new_display17h90f2e198741c63bbE
	movq	%rax, -528(%rbp)
	movq	%rdx, -520(%rbp)
	movq	-216(%rbp), %rdi
	callq	__ZN4core3fmt10ArgumentV111new_display17h6537807991185c45E
	movq	%rax, -512(%rbp)
	movq	%rdx, -504(%rbp)
	movq	-208(%rbp), %rdi
	callq	__ZN4core3fmt10ArgumentV111new_display17h6537807991185c45E
	movq	-544(%rbp), %r10
	movq	-536(%rbp), %r9
	movq	-528(%rbp), %r8
	movq	-520(%rbp), %rdi
	movq	-512(%rbp), %rsi
	movq	-504(%rbp), %rcx
	movq	%r10, -320(%rbp)
	movq	%r9, -312(%rbp)
	movq	%r8, -304(%rbp)
	movq	%rdi, -296(%rbp)
	movq	%rsi, -288(%rbp)
	movq	%rcx, -280(%rbp)
	movq	%rax, -272(%rbp)
	movq	%rdx, -264(%rbp)
Ltmp645:
	.loc	27 1239 21
	leaq	-368(%rbp), %rdi
	leaq	l___unnamed_19(%rip), %rsi
	movl	$6, %edx
	leaq	-320(%rbp), %rcx
	movl	$4, %r8d
	leaq	l___unnamed_18(%rip), %r9
	movq	$5, (%rsp)
	callq	__ZN4core3fmt9Arguments16new_v1_formatted17hf4e592764145e6f3E
	movq	-432(%rbp), %rdi
	.loc	27 1237 17 is_stmt 1
	leaq	-368(%rbp), %rsi
	callq	__ZN69_$LT$num_complex..Complex$LT$T$GT$$u20$as$u20$core..fmt..LowerExp$GT$3fmt11fmt_complex17h66400021d0c525a9E
	andb	$1, %al
	movb	%al, -417(%rbp)
Ltmp646:
LBB68_12:
	.loc	27 1259 10
	movb	-417(%rbp), %al
	andb	$1, %al
	movzbl	%al, %eax
	addq	$560, %rsp
	popq	%rbp
	retq
Ltmp647:
Lfunc_end68:
	.cfi_endproc

	.p2align	4, 0x90
__ZN69_$LT$num_complex..Complex$LT$T$GT$$u20$as$u20$core..fmt..LowerExp$GT$3fmt11fmt_complex17h66400021d0c525a9E:
Lfunc_begin69:
	.loc	27 1263 0
	.cfi_startproc
	.cfi_personality 155, _rust_eh_personality
	.cfi_lsda 16, Lexception7
	pushq	%rbp
	.cfi_def_cfa_offset 16
	.cfi_offset %rbp, -16
	movq	%rsp, %rbp
	.cfi_def_cfa_register %rbp
	subq	$320, %rsp
	movq	%rdi, -240(%rbp)
	movq	%rsi, -232(%rbp)
Ltmp660:
	movq	%rdi, -24(%rbp)
Ltmp661:
	.loc	27 1265 34 prologue_end
	callq	__ZN4core3fmt9Formatter5width17hf2280918eebfdaceE
Ltmp662:
	movq	%rdx, -208(%rbp)
	movq	%rax, -216(%rbp)
	.loc	27 1265 20 is_stmt 0
	cmpq	$1, -216(%rbp)
Ltmp663:
	jne	LBB69_2
Ltmp664:
	.loc	27 0 20
	movq	-232(%rbp), %rsi
	.loc	27 1265 25
	movq	-208(%rbp), %rax
	movq	%rax, -200(%rbp)
	leaq	-112(%rbp), %rdi
	movq	%rdi, -264(%rbp)
	.loc	27 1266 39 is_stmt 1
	callq	__ZN45_$LT$T$u20$as$u20$alloc..string..ToString$GT$9to_string17h57ed4b6d419e4989E
	movq	-264(%rbp), %rdi
Ltmp648:
	.loc	27 1266 17 is_stmt 0
	callq	__ZN4core3fmt10ArgumentV111new_display17hfae033710a238110E
Ltmp649:
	movq	%rdx, -256(%rbp)
	movq	%rax, -248(%rbp)
	jmp	LBB69_6
Ltmp665:
LBB69_2:
	.loc	27 0 17
	movq	-232(%rbp), %rdi
	.loc	27 1268 17 is_stmt 1
	callq	__ZN4core3fmt10ArgumentV111new_display17h6537807991185c45E
	movq	%rax, -40(%rbp)
	movq	%rdx, -32(%rbp)
	leaq	-88(%rbp), %rdi
	leaq	l___unnamed_20(%rip), %rsi
	movl	$1, %r8d
	leaq	-40(%rbp), %rcx
	movq	%r8, %rdx
	callq	__ZN4core3fmt9Arguments6new_v117h812b3b80b41cd525E
	movq	-240(%rbp), %rdi
	leaq	-88(%rbp), %rsi
	callq	__ZN4core3fmt9Formatter9write_fmt17h9bb7721c944aee26E
	andb	$1, %al
	movb	%al, -217(%rbp)
Ltmp666:
LBB69_3:
	.loc	27 1270 10
	movb	-217(%rbp), %al
	andb	$1, %al
	movzbl	%al, %eax
	addq	$320, %rsp
	popq	%rbp
	retq
Ltmp667:
LBB69_4:
Ltmp657:
	.loc	27 0 10 is_stmt 0
	leaq	-112(%rbp), %rdi
Ltmp668:
	.loc	27 1267 13 is_stmt 1
	callq	__ZN4core3ptr42drop_in_place$LT$alloc..string..String$GT$17hab7414df8e531398E
Ltmp658:
	jmp	LBB69_12
Ltmp669:
LBB69_5:
Ltmp656:
	.loc	27 0 13 is_stmt 0
	movq	%rax, %rcx
	movl	%edx, %eax
	movq	%rcx, -16(%rbp)
	movl	%eax, -8(%rbp)
	jmp	LBB69_4
Ltmp670:
LBB69_6:
	movq	-256(%rbp), %rax
	movq	-248(%rbp), %rcx
	movq	%rcx, -296(%rbp)
	movq	%rax, -288(%rbp)
Ltmp650:
	leaq	-200(%rbp), %rdi
	.loc	27 1266 17 is_stmt 1
	callq	__ZN4core3fmt10ArgumentV110from_usize17h666f241ed1303d7dE
Ltmp651:
	movq	%rdx, -280(%rbp)
	movq	%rax, -272(%rbp)
	jmp	LBB69_7
Ltmp671:
LBB69_7:
	.loc	27 0 17 is_stmt 0
	movq	-280(%rbp), %rax
	movq	-272(%rbp), %rcx
	movq	-288(%rbp), %rdx
	movq	-296(%rbp), %rsi
	.loc	27 1266 17
	movq	%rsi, -144(%rbp)
	movq	%rdx, -136(%rbp)
	movq	%rcx, -128(%rbp)
	movq	%rax, -120(%rbp)
Ltmp672:
Ltmp652:
	movq	%rsp, %rax
	movq	$1, (%rax)
	leaq	l___unnamed_20(%rip), %rsi
	leaq	l___unnamed_21(%rip), %r9
	leaq	-192(%rbp), %rdi
	movl	$1, %edx
	leaq	-144(%rbp), %rcx
	movl	$2, %r8d
	callq	__ZN4core3fmt9Arguments16new_v1_formatted17hf4e592764145e6f3E
Ltmp653:
	jmp	LBB69_9
Ltmp673:
LBB69_9:
Ltmp654:
	.loc	27 0 17
	movq	-240(%rbp), %rdi
	leaq	-192(%rbp), %rsi
	.loc	27 1266 17
	callq	__ZN4core3fmt9Formatter9write_fmt17h9bb7721c944aee26E
Ltmp655:
	movb	%al, -297(%rbp)
	jmp	LBB69_10
Ltmp674:
LBB69_10:
	.loc	27 0 17
	movb	-297(%rbp), %al
	.loc	27 1266 17
	andb	$1, %al
	movb	%al, -217(%rbp)
	.loc	27 1267 13 is_stmt 1
	leaq	-112(%rbp), %rdi
	callq	__ZN4core3ptr42drop_in_place$LT$alloc..string..String$GT$17hab7414df8e531398E
	jmp	LBB69_3
Ltmp675:
LBB69_11:
Ltmp659:
	.loc	27 1263 9
	callq	__ZN4core9panicking19panic_cannot_unwind17h1fbca7e1d7f56ae1E
Ltmp676:
LBB69_12:
	movq	-16(%rbp), %rdi
	callq	__Unwind_Resume
Ltmp677:
Lfunc_end69:
	.cfi_endproc
	.section	__TEXT,__gcc_except_tab
	.p2align	2
GCC_except_table69:
Lexception7:
	.byte	255
	.byte	255
	.byte	1
	.uleb128 Lcst_end7-Lcst_begin7
Lcst_begin7:
	.uleb128 Lfunc_begin69-Lfunc_begin69
	.uleb128 Ltmp648-Lfunc_begin69
	.byte	0
	.byte	0
	.uleb128 Ltmp648-Lfunc_begin69
	.uleb128 Ltmp649-Ltmp648
	.uleb128 Ltmp656-Lfunc_begin69
	.byte	0
	.uleb128 Ltmp649-Lfunc_begin69
	.uleb128 Ltmp657-Ltmp649
	.byte	0
	.byte	0
	.uleb128 Ltmp657-Lfunc_begin69
	.uleb128 Ltmp658-Ltmp657
	.uleb128 Ltmp659-Lfunc_begin69
	.byte	0
	.uleb128 Ltmp650-Lfunc_begin69
	.uleb128 Ltmp655-Ltmp650
	.uleb128 Ltmp656-Lfunc_begin69
	.byte	0
	.uleb128 Ltmp655-Lfunc_begin69
	.uleb128 Lfunc_end69-Ltmp655
	.byte	0
	.byte	0
Lcst_end7:
	.p2align	2

	.section	__TEXT,__text,regular,pure_instructions
	.globl	__ZN69_$LT$num_complex..Complex$LT$T$GT$$u20$as$u20$core..fmt..UpperExp$GT$3fmt9fmt_re_im17h2fcabfef69abb6f5E
	.p2align	4, 0x90
__ZN69_$LT$num_complex..Complex$LT$T$GT$$u20$as$u20$core..fmt..UpperExp$GT$3fmt9fmt_re_im17h2fcabfef69abb6f5E:
Lfunc_begin70:
	.loc	27 1220 0
	.cfi_startproc
	pushq	%rbp
	.cfi_def_cfa_offset 16
	.cfi_offset %rbp, -16
	movq	%rsp, %rbp
	.cfi_def_cfa_register %rbp
	subq	$560, %rsp
	movq	%r8, -448(%rbp)
Ltmp678:
	movq	%rcx, -440(%rbp)
Ltmp679:
	movq	%rdi, -432(%rbp)
	movb	%dl, %al
	movb	%al, -419(%rbp)
	movb	%sil, %cl
	movb	%cl, -418(%rbp)
	movq	%rdi, -16(%rbp)
	andb	$1, %cl
	movb	%cl, -2(%rbp)
	andb	$1, %al
	movb	%al, -1(%rbp)
Ltmp680:
	.loc	27 1227 29 prologue_end
	callq	__ZN4core3fmt9Formatter9alternate17hfdc18037c6b4846fE
Ltmp681:
	testb	$1, %al
Ltmp682:
	jne	LBB70_2
Ltmp683:
	.loc	27 1227 62 is_stmt 0
	leaq	l___unnamed_8(%rip), %rax
	movq	%rax, -416(%rbp)
	movq	$0, -408(%rbp)
	.loc	27 1227 26
	jmp	LBB70_3
Ltmp684:
LBB70_2:
	.loc	27 1303 32 is_stmt 1
	leaq	l___unnamed_8(%rip), %rax
	movq	%rax, -416(%rbp)
	movq	$0, -408(%rbp)
Ltmp685:
LBB70_3:
	.loc	27 0 32 is_stmt 0
	movb	-418(%rbp), %al
Ltmp686:
	.loc	27 1228 27 is_stmt 1
	testb	$1, %al
	jne	LBB70_5
	jmp	LBB70_4
Ltmp687:
LBB70_4:
	.loc	27 0 27 is_stmt 0
	movq	-432(%rbp), %rdi
	.loc	27 1230 23 is_stmt 1
	callq	__ZN4core3fmt9Formatter9sign_plus17h432aa8f859170509E
	testb	$1, %al
	jne	LBB70_8
	jmp	LBB70_7
Ltmp688:
LBB70_5:
	.loc	27 1229 17
	leaq	l___unnamed_15(%rip), %rax
	movq	%rax, -400(%rbp)
	movq	$1, -392(%rbp)
Ltmp689:
LBB70_6:
	.loc	27 0 17 is_stmt 0
	movb	-419(%rbp), %al
Ltmp690:
	.loc	27 1236 16 is_stmt 1
	testb	$1, %al
	jne	LBB70_11
	jmp	LBB70_10
Ltmp691:
LBB70_7:
	.loc	27 1233 17
	leaq	l___unnamed_8(%rip), %rax
	movq	%rax, -384(%rbp)
	movq	$0, -376(%rbp)
	.loc	27 1230 20
	jmp	LBB70_9
Ltmp692:
LBB70_8:
	.loc	27 1231 17
	leaq	l___unnamed_16(%rip), %rax
	movq	%rax, -384(%rbp)
	movq	$1, -376(%rbp)
Ltmp693:
LBB70_9:
	.loc	27 1230 20
	movq	-384(%rbp), %rcx
	movq	-376(%rbp), %rax
	movq	%rcx, -400(%rbp)
	movq	%rax, -392(%rbp)
	.loc	27 1228 24
	jmp	LBB70_6
Ltmp694:
LBB70_10:
	.loc	27 0 24 is_stmt 0
	movq	-448(%rbp), %rax
	movq	-440(%rbp), %rcx
Ltmp695:
	.loc	27 1250 21 is_stmt 1
	leaq	-400(%rbp), %rdx
	movq	%rdx, -80(%rbp)
	movq	%rcx, -72(%rbp)
	movq	%rax, -64(%rbp)
	leaq	-416(%rbp), %rax
	movq	%rax, -56(%rbp)
	movq	-80(%rbp), %rax
	movq	%rax, -48(%rbp)
	movq	-72(%rbp), %rax
	movq	%rax, -40(%rbp)
	movq	-64(%rbp), %rax
	movq	%rax, -32(%rbp)
	movq	-56(%rbp), %rax
	movq	%rax, -24(%rbp)
Ltmp696:
	.loc	27 1250 21 is_stmt 0
	movq	-48(%rbp), %rdi
	callq	__ZN4core3fmt10ArgumentV111new_display17h90f2e198741c63bbE
	movq	%rax, -496(%rbp)
	movq	%rdx, -488(%rbp)
	movq	-24(%rbp), %rdi
	callq	__ZN4core3fmt10ArgumentV111new_display17h90f2e198741c63bbE
	movq	%rax, -480(%rbp)
	movq	%rdx, -472(%rbp)
	movq	-40(%rbp), %rdi
	callq	__ZN4core3fmt10ArgumentV111new_display17h6537807991185c45E
	movq	%rax, -464(%rbp)
	movq	%rdx, -456(%rbp)
	movq	-32(%rbp), %rdi
	callq	__ZN4core3fmt10ArgumentV111new_display17h6537807991185c45E
	movq	-496(%rbp), %r10
	movq	-488(%rbp), %r9
	movq	-480(%rbp), %r8
	movq	-472(%rbp), %rdi
	movq	-464(%rbp), %rsi
	movq	-456(%rbp), %rcx
	movq	%r10, -144(%rbp)
	movq	%r9, -136(%rbp)
	movq	%r8, -128(%rbp)
	movq	%rdi, -120(%rbp)
	movq	%rsi, -112(%rbp)
	movq	%rcx, -104(%rbp)
	movq	%rax, -96(%rbp)
	movq	%rdx, -88(%rbp)
Ltmp697:
	.loc	27 1250 21
	leaq	-192(%rbp), %rdi
	leaq	l___unnamed_17(%rip), %rsi
	movl	$6, %edx
	leaq	-144(%rbp), %rcx
	movl	$4, %r8d
	leaq	l___unnamed_18(%rip), %r9
	movq	$5, (%rsp)
	callq	__ZN4core3fmt9Arguments16new_v1_formatted17hf4e592764145e6f3E
	movq	-432(%rbp), %rdi
	.loc	27 1248 17 is_stmt 1
	leaq	-192(%rbp), %rsi
	callq	__ZN69_$LT$num_complex..Complex$LT$T$GT$$u20$as$u20$core..fmt..UpperExp$GT$3fmt11fmt_complex17h61c502004943478cE
	andb	$1, %al
	movb	%al, -417(%rbp)
	jmp	LBB70_12
Ltmp698:
LBB70_11:
	.loc	27 0 17 is_stmt 0
	movq	-448(%rbp), %rax
	movq	-440(%rbp), %rcx
	.loc	27 1239 21 is_stmt 1
	leaq	-400(%rbp), %rdx
	movq	%rdx, -256(%rbp)
	movq	%rcx, -248(%rbp)
	movq	%rax, -240(%rbp)
	leaq	-416(%rbp), %rax
	movq	%rax, -232(%rbp)
	movq	-256(%rbp), %rax
	movq	%rax, -224(%rbp)
	movq	-248(%rbp), %rax
	movq	%rax, -216(%rbp)
	movq	-240(%rbp), %rax
	movq	%rax, -208(%rbp)
	movq	-232(%rbp), %rax
	movq	%rax, -200(%rbp)
Ltmp699:
	.loc	27 1239 21 is_stmt 0
	movq	-224(%rbp), %rdi
	callq	__ZN4core3fmt10ArgumentV111new_display17h90f2e198741c63bbE
	movq	%rax, -544(%rbp)
	movq	%rdx, -536(%rbp)
	movq	-200(%rbp), %rdi
	callq	__ZN4core3fmt10ArgumentV111new_display17h90f2e198741c63bbE
	movq	%rax, -528(%rbp)
	movq	%rdx, -520(%rbp)
	movq	-216(%rbp), %rdi
	callq	__ZN4core3fmt10ArgumentV111new_display17h6537807991185c45E
	movq	%rax, -512(%rbp)
	movq	%rdx, -504(%rbp)
	movq	-208(%rbp), %rdi
	callq	__ZN4core3fmt10ArgumentV111new_display17h6537807991185c45E
	movq	-544(%rbp), %r10
	movq	-536(%rbp), %r9
	movq	-528(%rbp), %r8
	movq	-520(%rbp), %rdi
	movq	-512(%rbp), %rsi
	movq	-504(%rbp), %rcx
	movq	%r10, -320(%rbp)
	movq	%r9, -312(%rbp)
	movq	%r8, -304(%rbp)
	movq	%rdi, -296(%rbp)
	movq	%rsi, -288(%rbp)
	movq	%rcx, -280(%rbp)
	movq	%rax, -272(%rbp)
	movq	%rdx, -264(%rbp)
Ltmp700:
	.loc	27 1239 21
	leaq	-368(%rbp), %rdi
	leaq	l___unnamed_19(%rip), %rsi
	movl	$6, %edx
	leaq	-320(%rbp), %rcx
	movl	$4, %r8d
	leaq	l___unnamed_18(%rip), %r9
	movq	$5, (%rsp)
	callq	__ZN4core3fmt9Arguments16new_v1_formatted17hf4e592764145e6f3E
	movq	-432(%rbp), %rdi
	.loc	27 1237 17 is_stmt 1
	leaq	-368(%rbp), %rsi
	callq	__ZN69_$LT$num_complex..Complex$LT$T$GT$$u20$as$u20$core..fmt..UpperExp$GT$3fmt11fmt_complex17h61c502004943478cE
	andb	$1, %al
	movb	%al, -417(%rbp)
Ltmp701:
LBB70_12:
	.loc	27 1259 10
	movb	-417(%rbp), %al
	andb	$1, %al
	movzbl	%al, %eax
	addq	$560, %rsp
	popq	%rbp
	retq
Ltmp702:
Lfunc_end70:
	.cfi_endproc

	.p2align	4, 0x90
__ZN69_$LT$num_complex..Complex$LT$T$GT$$u20$as$u20$core..fmt..UpperExp$GT$3fmt11fmt_complex17h61c502004943478cE:
Lfunc_begin71:
	.loc	27 1263 0
	.cfi_startproc
	.cfi_personality 155, _rust_eh_personality
	.cfi_lsda 16, Lexception8
	pushq	%rbp
	.cfi_def_cfa_offset 16
	.cfi_offset %rbp, -16
	movq	%rsp, %rbp
	.cfi_def_cfa_register %rbp
	subq	$320, %rsp
	movq	%rdi, -240(%rbp)
	movq	%rsi, -232(%rbp)
Ltmp715:
	movq	%rdi, -24(%rbp)
Ltmp716:
	.loc	27 1265 34 prologue_end
	callq	__ZN4core3fmt9Formatter5width17hf2280918eebfdaceE
Ltmp717:
	movq	%rdx, -208(%rbp)
	movq	%rax, -216(%rbp)
	.loc	27 1265 20 is_stmt 0
	cmpq	$1, -216(%rbp)
Ltmp718:
	jne	LBB71_2
Ltmp719:
	.loc	27 0 20
	movq	-232(%rbp), %rsi
	.loc	27 1265 25
	movq	-208(%rbp), %rax
	movq	%rax, -200(%rbp)
	leaq	-112(%rbp), %rdi
	movq	%rdi, -264(%rbp)
	.loc	27 1266 39 is_stmt 1
	callq	__ZN45_$LT$T$u20$as$u20$alloc..string..ToString$GT$9to_string17h57ed4b6d419e4989E
	movq	-264(%rbp), %rdi
Ltmp703:
	.loc	27 1266 17 is_stmt 0
	callq	__ZN4core3fmt10ArgumentV111new_display17hfae033710a238110E
Ltmp704:
	movq	%rdx, -256(%rbp)
	movq	%rax, -248(%rbp)
	jmp	LBB71_6
Ltmp720:
LBB71_2:
	.loc	27 0 17
	movq	-232(%rbp), %rdi
	.loc	27 1268 17 is_stmt 1
	callq	__ZN4core3fmt10ArgumentV111new_display17h6537807991185c45E
	movq	%rax, -40(%rbp)
	movq	%rdx, -32(%rbp)
	leaq	-88(%rbp), %rdi
	leaq	l___unnamed_20(%rip), %rsi
	movl	$1, %r8d
	leaq	-40(%rbp), %rcx
	movq	%r8, %rdx
	callq	__ZN4core3fmt9Arguments6new_v117h812b3b80b41cd525E
	movq	-240(%rbp), %rdi
	leaq	-88(%rbp), %rsi
	callq	__ZN4core3fmt9Formatter9write_fmt17h9bb7721c944aee26E
	andb	$1, %al
	movb	%al, -217(%rbp)
Ltmp721:
LBB71_3:
	.loc	27 1270 10
	movb	-217(%rbp), %al
	andb	$1, %al
	movzbl	%al, %eax
	addq	$320, %rsp
	popq	%rbp
	retq
Ltmp722:
LBB71_4:
Ltmp712:
	.loc	27 0 10 is_stmt 0
	leaq	-112(%rbp), %rdi
Ltmp723:
	.loc	27 1267 13 is_stmt 1
	callq	__ZN4core3ptr42drop_in_place$LT$alloc..string..String$GT$17hab7414df8e531398E
Ltmp713:
	jmp	LBB71_12
Ltmp724:
LBB71_5:
Ltmp711:
	.loc	27 0 13 is_stmt 0
	movq	%rax, %rcx
	movl	%edx, %eax
	movq	%rcx, -16(%rbp)
	movl	%eax, -8(%rbp)
	jmp	LBB71_4
Ltmp725:
LBB71_6:
	movq	-256(%rbp), %rax
	movq	-248(%rbp), %rcx
	movq	%rcx, -296(%rbp)
	movq	%rax, -288(%rbp)
Ltmp705:
	leaq	-200(%rbp), %rdi
	.loc	27 1266 17 is_stmt 1
	callq	__ZN4core3fmt10ArgumentV110from_usize17h666f241ed1303d7dE
Ltmp706:
	movq	%rdx, -280(%rbp)
	movq	%rax, -272(%rbp)
	jmp	LBB71_7
Ltmp726:
LBB71_7:
	.loc	27 0 17 is_stmt 0
	movq	-280(%rbp), %rax
	movq	-272(%rbp), %rcx
	movq	-288(%rbp), %rdx
	movq	-296(%rbp), %rsi
	.loc	27 1266 17
	movq	%rsi, -144(%rbp)
	movq	%rdx, -136(%rbp)
	movq	%rcx, -128(%rbp)
	movq	%rax, -120(%rbp)
Ltmp727:
Ltmp707:
	movq	%rsp, %rax
	movq	$1, (%rax)
	leaq	l___unnamed_20(%rip), %rsi
	leaq	l___unnamed_21(%rip), %r9
	leaq	-192(%rbp), %rdi
	movl	$1, %edx
	leaq	-144(%rbp), %rcx
	movl	$2, %r8d
	callq	__ZN4core3fmt9Arguments16new_v1_formatted17hf4e592764145e6f3E
Ltmp708:
	jmp	LBB71_9
Ltmp728:
LBB71_9:
Ltmp709:
	.loc	27 0 17
	movq	-240(%rbp), %rdi
	leaq	-192(%rbp), %rsi
	.loc	27 1266 17
	callq	__ZN4core3fmt9Formatter9write_fmt17h9bb7721c944aee26E
Ltmp710:
	movb	%al, -297(%rbp)
	jmp	LBB71_10
Ltmp729:
LBB71_10:
	.loc	27 0 17
	movb	-297(%rbp), %al
	.loc	27 1266 17
	andb	$1, %al
	movb	%al, -217(%rbp)
	.loc	27 1267 13 is_stmt 1
	leaq	-112(%rbp), %rdi
	callq	__ZN4core3ptr42drop_in_place$LT$alloc..string..String$GT$17hab7414df8e531398E
	jmp	LBB71_3
Ltmp730:
LBB71_11:
Ltmp714:
	.loc	27 1263 9
	callq	__ZN4core9panicking19panic_cannot_unwind17h1fbca7e1d7f56ae1E
Ltmp731:
LBB71_12:
	movq	-16(%rbp), %rdi
	callq	__Unwind_Resume
Ltmp732:
Lfunc_end71:
	.cfi_endproc
	.section	__TEXT,__gcc_except_tab
	.p2align	2
GCC_except_table71:
Lexception8:
	.byte	255
	.byte	255
	.byte	1
	.uleb128 Lcst_end8-Lcst_begin8
Lcst_begin8:
	.uleb128 Lfunc_begin71-Lfunc_begin71
	.uleb128 Ltmp703-Lfunc_begin71
	.byte	0
	.byte	0
	.uleb128 Ltmp703-Lfunc_begin71
	.uleb128 Ltmp704-Ltmp703
	.uleb128 Ltmp711-Lfunc_begin71
	.byte	0
	.uleb128 Ltmp704-Lfunc_begin71
	.uleb128 Ltmp712-Ltmp704
	.byte	0
	.byte	0
	.uleb128 Ltmp712-Lfunc_begin71
	.uleb128 Ltmp713-Ltmp712
	.uleb128 Ltmp714-Lfunc_begin71
	.byte	0
	.uleb128 Ltmp705-Lfunc_begin71
	.uleb128 Ltmp710-Ltmp705
	.uleb128 Ltmp711-Lfunc_begin71
	.byte	0
	.uleb128 Ltmp710-Lfunc_begin71
	.uleb128 Lfunc_end71-Ltmp710
	.byte	0
	.byte	0
Lcst_end8:
	.p2align	2

	.section	__TEXT,__text,regular,pure_instructions
	.globl	__ZN69_$LT$num_complex..Complex$LT$T$GT$$u20$as$u20$core..fmt..LowerHex$GT$3fmt9fmt_re_im17h3380e458ce0f8fceE
	.p2align	4, 0x90
__ZN69_$LT$num_complex..Complex$LT$T$GT$$u20$as$u20$core..fmt..LowerHex$GT$3fmt9fmt_re_im17h3380e458ce0f8fceE:
Lfunc_begin72:
	.loc	27 1220 0
	.cfi_startproc
	pushq	%rbp
	.cfi_def_cfa_offset 16
	.cfi_offset %rbp, -16
	movq	%rsp, %rbp
	.cfi_def_cfa_register %rbp
	subq	$560, %rsp
	movq	%r8, -448(%rbp)
Ltmp733:
	movq	%rcx, -440(%rbp)
Ltmp734:
	movq	%rdi, -432(%rbp)
	movb	%dl, %al
	movb	%al, -419(%rbp)
	movb	%sil, %cl
	movb	%cl, -418(%rbp)
	movq	%rdi, -16(%rbp)
	andb	$1, %cl
	movb	%cl, -2(%rbp)
	andb	$1, %al
	movb	%al, -1(%rbp)
Ltmp735:
	.loc	27 1227 29 prologue_end
	callq	__ZN4core3fmt9Formatter9alternate17hfdc18037c6b4846fE
Ltmp736:
	testb	$1, %al
Ltmp737:
	jne	LBB72_2
Ltmp738:
	.loc	27 1227 62 is_stmt 0
	leaq	l___unnamed_8(%rip), %rax
	movq	%rax, -416(%rbp)
	movq	$0, -408(%rbp)
	.loc	27 1227 26
	jmp	LBB72_3
Ltmp739:
LBB72_2:
	.loc	27 1312 32 is_stmt 1
	leaq	l___unnamed_22(%rip), %rax
	movq	%rax, -416(%rbp)
	movq	$2, -408(%rbp)
Ltmp740:
LBB72_3:
	.loc	27 0 32 is_stmt 0
	movb	-418(%rbp), %al
Ltmp741:
	.loc	27 1228 27 is_stmt 1
	testb	$1, %al
	jne	LBB72_5
	jmp	LBB72_4
Ltmp742:
LBB72_4:
	.loc	27 0 27 is_stmt 0
	movq	-432(%rbp), %rdi
	.loc	27 1230 23 is_stmt 1
	callq	__ZN4core3fmt9Formatter9sign_plus17h432aa8f859170509E
	testb	$1, %al
	jne	LBB72_8
	jmp	LBB72_7
Ltmp743:
LBB72_5:
	.loc	27 1229 17
	leaq	l___unnamed_15(%rip), %rax
	movq	%rax, -400(%rbp)
	movq	$1, -392(%rbp)
Ltmp744:
LBB72_6:
	.loc	27 0 17 is_stmt 0
	movb	-419(%rbp), %al
Ltmp745:
	.loc	27 1236 16 is_stmt 1
	testb	$1, %al
	jne	LBB72_11
	jmp	LBB72_10
Ltmp746:
LBB72_7:
	.loc	27 1233 17
	leaq	l___unnamed_8(%rip), %rax
	movq	%rax, -384(%rbp)
	movq	$0, -376(%rbp)
	.loc	27 1230 20
	jmp	LBB72_9
Ltmp747:
LBB72_8:
	.loc	27 1231 17
	leaq	l___unnamed_16(%rip), %rax
	movq	%rax, -384(%rbp)
	movq	$1, -376(%rbp)
Ltmp748:
LBB72_9:
	.loc	27 1230 20
	movq	-384(%rbp), %rcx
	movq	-376(%rbp), %rax
	movq	%rcx, -400(%rbp)
	movq	%rax, -392(%rbp)
	.loc	27 1228 24
	jmp	LBB72_6
Ltmp749:
LBB72_10:
	.loc	27 0 24 is_stmt 0
	movq	-448(%rbp), %rax
	movq	-440(%rbp), %rcx
Ltmp750:
	.loc	27 1250 21 is_stmt 1
	leaq	-400(%rbp), %rdx
	movq	%rdx, -80(%rbp)
	movq	%rcx, -72(%rbp)
	movq	%rax, -64(%rbp)
	leaq	-416(%rbp), %rax
	movq	%rax, -56(%rbp)
	movq	-80(%rbp), %rax
	movq	%rax, -48(%rbp)
	movq	-72(%rbp), %rax
	movq	%rax, -40(%rbp)
	movq	-64(%rbp), %rax
	movq	%rax, -32(%rbp)
	movq	-56(%rbp), %rax
	movq	%rax, -24(%rbp)
Ltmp751:
	.loc	27 1250 21 is_stmt 0
	movq	-48(%rbp), %rdi
	callq	__ZN4core3fmt10ArgumentV111new_display17h90f2e198741c63bbE
	movq	%rax, -496(%rbp)
	movq	%rdx, -488(%rbp)
	movq	-24(%rbp), %rdi
	callq	__ZN4core3fmt10ArgumentV111new_display17h90f2e198741c63bbE
	movq	%rax, -480(%rbp)
	movq	%rdx, -472(%rbp)
	movq	-40(%rbp), %rdi
	callq	__ZN4core3fmt10ArgumentV111new_display17h6537807991185c45E
	movq	%rax, -464(%rbp)
	movq	%rdx, -456(%rbp)
	movq	-32(%rbp), %rdi
	callq	__ZN4core3fmt10ArgumentV111new_display17h6537807991185c45E
	movq	-496(%rbp), %r10
	movq	-488(%rbp), %r9
	movq	-480(%rbp), %r8
	movq	-472(%rbp), %rdi
	movq	-464(%rbp), %rsi
	movq	-456(%rbp), %rcx
	movq	%r10, -144(%rbp)
	movq	%r9, -136(%rbp)
	movq	%r8, -128(%rbp)
	movq	%rdi, -120(%rbp)
	movq	%rsi, -112(%rbp)
	movq	%rcx, -104(%rbp)
	movq	%rax, -96(%rbp)
	movq	%rdx, -88(%rbp)
Ltmp752:
	.loc	27 1250 21
	leaq	-192(%rbp), %rdi
	leaq	l___unnamed_17(%rip), %rsi
	movl	$6, %edx
	leaq	-144(%rbp), %rcx
	movl	$4, %r8d
	leaq	l___unnamed_18(%rip), %r9
	movq	$5, (%rsp)
	callq	__ZN4core3fmt9Arguments16new_v1_formatted17hf4e592764145e6f3E
	movq	-432(%rbp), %rdi
	.loc	27 1248 17 is_stmt 1
	leaq	-192(%rbp), %rsi
	callq	__ZN69_$LT$num_complex..Complex$LT$T$GT$$u20$as$u20$core..fmt..LowerHex$GT$3fmt11fmt_complex17h1fe3c03d6c05867eE
	andb	$1, %al
	movb	%al, -417(%rbp)
	jmp	LBB72_12
Ltmp753:
LBB72_11:
	.loc	27 0 17 is_stmt 0
	movq	-448(%rbp), %rax
	movq	-440(%rbp), %rcx
	.loc	27 1239 21 is_stmt 1
	leaq	-400(%rbp), %rdx
	movq	%rdx, -256(%rbp)
	movq	%rcx, -248(%rbp)
	movq	%rax, -240(%rbp)
	leaq	-416(%rbp), %rax
	movq	%rax, -232(%rbp)
	movq	-256(%rbp), %rax
	movq	%rax, -224(%rbp)
	movq	-248(%rbp), %rax
	movq	%rax, -216(%rbp)
	movq	-240(%rbp), %rax
	movq	%rax, -208(%rbp)
	movq	-232(%rbp), %rax
	movq	%rax, -200(%rbp)
Ltmp754:
	.loc	27 1239 21 is_stmt 0
	movq	-224(%rbp), %rdi
	callq	__ZN4core3fmt10ArgumentV111new_display17h90f2e198741c63bbE
	movq	%rax, -544(%rbp)
	movq	%rdx, -536(%rbp)
	movq	-200(%rbp), %rdi
	callq	__ZN4core3fmt10ArgumentV111new_display17h90f2e198741c63bbE
	movq	%rax, -528(%rbp)
	movq	%rdx, -520(%rbp)
	movq	-216(%rbp), %rdi
	callq	__ZN4core3fmt10ArgumentV111new_display17h6537807991185c45E
	movq	%rax, -512(%rbp)
	movq	%rdx, -504(%rbp)
	movq	-208(%rbp), %rdi
	callq	__ZN4core3fmt10ArgumentV111new_display17h6537807991185c45E
	movq	-544(%rbp), %r10
	movq	-536(%rbp), %r9
	movq	-528(%rbp), %r8
	movq	-520(%rbp), %rdi
	movq	-512(%rbp), %rsi
	movq	-504(%rbp), %rcx
	movq	%r10, -320(%rbp)
	movq	%r9, -312(%rbp)
	movq	%r8, -304(%rbp)
	movq	%rdi, -296(%rbp)
	movq	%rsi, -288(%rbp)
	movq	%rcx, -280(%rbp)
	movq	%rax, -272(%rbp)
	movq	%rdx, -264(%rbp)
Ltmp755:
	.loc	27 1239 21
	leaq	-368(%rbp), %rdi
	leaq	l___unnamed_19(%rip), %rsi
	movl	$6, %edx
	leaq	-320(%rbp), %rcx
	movl	$4, %r8d
	leaq	l___unnamed_18(%rip), %r9
	movq	$5, (%rsp)
	callq	__ZN4core3fmt9Arguments16new_v1_formatted17hf4e592764145e6f3E
	movq	-432(%rbp), %rdi
	.loc	27 1237 17 is_stmt 1
	leaq	-368(%rbp), %rsi
	callq	__ZN69_$LT$num_complex..Complex$LT$T$GT$$u20$as$u20$core..fmt..LowerHex$GT$3fmt11fmt_complex17h1fe3c03d6c05867eE
	andb	$1, %al
	movb	%al, -417(%rbp)
Ltmp756:
LBB72_12:
	.loc	27 1259 10
	movb	-417(%rbp), %al
	andb	$1, %al
	movzbl	%al, %eax
	addq	$560, %rsp
	popq	%rbp
	retq
Ltmp757:
Lfunc_end72:
	.cfi_endproc

	.p2align	4, 0x90
__ZN69_$LT$num_complex..Complex$LT$T$GT$$u20$as$u20$core..fmt..LowerHex$GT$3fmt11fmt_complex17h1fe3c03d6c05867eE:
Lfunc_begin73:
	.loc	27 1263 0
	.cfi_startproc
	.cfi_personality 155, _rust_eh_personality
	.cfi_lsda 16, Lexception9
	pushq	%rbp
	.cfi_def_cfa_offset 16
	.cfi_offset %rbp, -16
	movq	%rsp, %rbp
	.cfi_def_cfa_register %rbp
	subq	$320, %rsp
	movq	%rdi, -240(%rbp)
	movq	%rsi, -232(%rbp)
Ltmp770:
	movq	%rdi, -24(%rbp)
Ltmp771:
	.loc	27 1265 34 prologue_end
	callq	__ZN4core3fmt9Formatter5width17hf2280918eebfdaceE
Ltmp772:
	movq	%rdx, -208(%rbp)
	movq	%rax, -216(%rbp)
	.loc	27 1265 20 is_stmt 0
	cmpq	$1, -216(%rbp)
Ltmp773:
	jne	LBB73_2
Ltmp774:
	.loc	27 0 20
	movq	-232(%rbp), %rsi
	.loc	27 1265 25
	movq	-208(%rbp), %rax
	movq	%rax, -200(%rbp)
	leaq	-112(%rbp), %rdi
	movq	%rdi, -264(%rbp)
	.loc	27 1266 39 is_stmt 1
	callq	__ZN45_$LT$T$u20$as$u20$alloc..string..ToString$GT$9to_string17h57ed4b6d419e4989E
	movq	-264(%rbp), %rdi
Ltmp758:
	.loc	27 1266 17 is_stmt 0
	callq	__ZN4core3fmt10ArgumentV111new_display17hfae033710a238110E
Ltmp759:
	movq	%rdx, -256(%rbp)
	movq	%rax, -248(%rbp)
	jmp	LBB73_6
Ltmp775:
LBB73_2:
	.loc	27 0 17
	movq	-232(%rbp), %rdi
	.loc	27 1268 17 is_stmt 1
	callq	__ZN4core3fmt10ArgumentV111new_display17h6537807991185c45E
	movq	%rax, -40(%rbp)
	movq	%rdx, -32(%rbp)
	leaq	-88(%rbp), %rdi
	leaq	l___unnamed_20(%rip), %rsi
	movl	$1, %r8d
	leaq	-40(%rbp), %rcx
	movq	%r8, %rdx
	callq	__ZN4core3fmt9Arguments6new_v117h812b3b80b41cd525E
	movq	-240(%rbp), %rdi
	leaq	-88(%rbp), %rsi
	callq	__ZN4core3fmt9Formatter9write_fmt17h9bb7721c944aee26E
	andb	$1, %al
	movb	%al, -217(%rbp)
Ltmp776:
LBB73_3:
	.loc	27 1270 10
	movb	-217(%rbp), %al
	andb	$1, %al
	movzbl	%al, %eax
	addq	$320, %rsp
	popq	%rbp
	retq
Ltmp777:
LBB73_4:
Ltmp767:
	.loc	27 0 10 is_stmt 0
	leaq	-112(%rbp), %rdi
Ltmp778:
	.loc	27 1267 13 is_stmt 1
	callq	__ZN4core3ptr42drop_in_place$LT$alloc..string..String$GT$17hab7414df8e531398E
Ltmp768:
	jmp	LBB73_12
Ltmp779:
LBB73_5:
Ltmp766:
	.loc	27 0 13 is_stmt 0
	movq	%rax, %rcx
	movl	%edx, %eax
	movq	%rcx, -16(%rbp)
	movl	%eax, -8(%rbp)
	jmp	LBB73_4
Ltmp780:
LBB73_6:
	movq	-256(%rbp), %rax
	movq	-248(%rbp), %rcx
	movq	%rcx, -296(%rbp)
	movq	%rax, -288(%rbp)
Ltmp760:
	leaq	-200(%rbp), %rdi
	.loc	27 1266 17 is_stmt 1
	callq	__ZN4core3fmt10ArgumentV110from_usize17h666f241ed1303d7dE
Ltmp761:
	movq	%rdx, -280(%rbp)
	movq	%rax, -272(%rbp)
	jmp	LBB73_7
Ltmp781:
LBB73_7:
	.loc	27 0 17 is_stmt 0
	movq	-280(%rbp), %rax
	movq	-272(%rbp), %rcx
	movq	-288(%rbp), %rdx
	movq	-296(%rbp), %rsi
	.loc	27 1266 17
	movq	%rsi, -144(%rbp)
	movq	%rdx, -136(%rbp)
	movq	%rcx, -128(%rbp)
	movq	%rax, -120(%rbp)
Ltmp782:
Ltmp762:
	movq	%rsp, %rax
	movq	$1, (%rax)
	leaq	l___unnamed_20(%rip), %rsi
	leaq	l___unnamed_21(%rip), %r9
	leaq	-192(%rbp), %rdi
	movl	$1, %edx
	leaq	-144(%rbp), %rcx
	movl	$2, %r8d
	callq	__ZN4core3fmt9Arguments16new_v1_formatted17hf4e592764145e6f3E
Ltmp763:
	jmp	LBB73_9
Ltmp783:
LBB73_9:
Ltmp764:
	.loc	27 0 17
	movq	-240(%rbp), %rdi
	leaq	-192(%rbp), %rsi
	.loc	27 1266 17
	callq	__ZN4core3fmt9Formatter9write_fmt17h9bb7721c944aee26E
Ltmp765:
	movb	%al, -297(%rbp)
	jmp	LBB73_10
Ltmp784:
LBB73_10:
	.loc	27 0 17
	movb	-297(%rbp), %al
	.loc	27 1266 17
	andb	$1, %al
	movb	%al, -217(%rbp)
	.loc	27 1267 13 is_stmt 1
	leaq	-112(%rbp), %rdi
	callq	__ZN4core3ptr42drop_in_place$LT$alloc..string..String$GT$17hab7414df8e531398E
	jmp	LBB73_3
Ltmp785:
LBB73_11:
Ltmp769:
	.loc	27 1263 9
	callq	__ZN4core9panicking19panic_cannot_unwind17h1fbca7e1d7f56ae1E
Ltmp786:
LBB73_12:
	movq	-16(%rbp), %rdi
	callq	__Unwind_Resume
Ltmp787:
Lfunc_end73:
	.cfi_endproc
	.section	__TEXT,__gcc_except_tab
	.p2align	2
GCC_except_table73:
Lexception9:
	.byte	255
	.byte	255
	.byte	1
	.uleb128 Lcst_end9-Lcst_begin9
Lcst_begin9:
	.uleb128 Lfunc_begin73-Lfunc_begin73
	.uleb128 Ltmp758-Lfunc_begin73
	.byte	0
	.byte	0
	.uleb128 Ltmp758-Lfunc_begin73
	.uleb128 Ltmp759-Ltmp758
	.uleb128 Ltmp766-Lfunc_begin73
	.byte	0
	.uleb128 Ltmp759-Lfunc_begin73
	.uleb128 Ltmp767-Ltmp759
	.byte	0
	.byte	0
	.uleb128 Ltmp767-Lfunc_begin73
	.uleb128 Ltmp768-Ltmp767
	.uleb128 Ltmp769-Lfunc_begin73
	.byte	0
	.uleb128 Ltmp760-Lfunc_begin73
	.uleb128 Ltmp765-Ltmp760
	.uleb128 Ltmp766-Lfunc_begin73
	.byte	0
	.uleb128 Ltmp765-Lfunc_begin73
	.uleb128 Lfunc_end73-Ltmp765
	.byte	0
	.byte	0
Lcst_end9:
	.p2align	2

	.section	__TEXT,__text,regular,pure_instructions
	.globl	__ZN69_$LT$num_complex..Complex$LT$T$GT$$u20$as$u20$core..fmt..UpperHex$GT$3fmt9fmt_re_im17h43d923c8e2d086dfE
	.p2align	4, 0x90
__ZN69_$LT$num_complex..Complex$LT$T$GT$$u20$as$u20$core..fmt..UpperHex$GT$3fmt9fmt_re_im17h43d923c8e2d086dfE:
Lfunc_begin74:
	.loc	27 1220 0
	.cfi_startproc
	pushq	%rbp
	.cfi_def_cfa_offset 16
	.cfi_offset %rbp, -16
	movq	%rsp, %rbp
	.cfi_def_cfa_register %rbp
	subq	$560, %rsp
	movq	%r8, -448(%rbp)
Ltmp788:
	movq	%rcx, -440(%rbp)
Ltmp789:
	movq	%rdi, -432(%rbp)
	movb	%dl, %al
	movb	%al, -419(%rbp)
	movb	%sil, %cl
	movb	%cl, -418(%rbp)
	movq	%rdi, -16(%rbp)
	andb	$1, %cl
	movb	%cl, -2(%rbp)
	andb	$1, %al
	movb	%al, -1(%rbp)
Ltmp790:
	.loc	27 1227 29 prologue_end
	callq	__ZN4core3fmt9Formatter9alternate17hfdc18037c6b4846fE
Ltmp791:
	testb	$1, %al
Ltmp792:
	jne	LBB74_2
Ltmp793:
	.loc	27 1227 62 is_stmt 0
	leaq	l___unnamed_8(%rip), %rax
	movq	%rax, -416(%rbp)
	movq	$0, -408(%rbp)
	.loc	27 1227 26
	jmp	LBB74_3
Ltmp794:
LBB74_2:
	.loc	27 1321 32 is_stmt 1
	leaq	l___unnamed_22(%rip), %rax
	movq	%rax, -416(%rbp)
	movq	$2, -408(%rbp)
Ltmp795:
LBB74_3:
	.loc	27 0 32 is_stmt 0
	movb	-418(%rbp), %al
Ltmp796:
	.loc	27 1228 27 is_stmt 1
	testb	$1, %al
	jne	LBB74_5
	jmp	LBB74_4
Ltmp797:
LBB74_4:
	.loc	27 0 27 is_stmt 0
	movq	-432(%rbp), %rdi
	.loc	27 1230 23 is_stmt 1
	callq	__ZN4core3fmt9Formatter9sign_plus17h432aa8f859170509E
	testb	$1, %al
	jne	LBB74_8
	jmp	LBB74_7
Ltmp798:
LBB74_5:
	.loc	27 1229 17
	leaq	l___unnamed_15(%rip), %rax
	movq	%rax, -400(%rbp)
	movq	$1, -392(%rbp)
Ltmp799:
LBB74_6:
	.loc	27 0 17 is_stmt 0
	movb	-419(%rbp), %al
Ltmp800:
	.loc	27 1236 16 is_stmt 1
	testb	$1, %al
	jne	LBB74_11
	jmp	LBB74_10
Ltmp801:
LBB74_7:
	.loc	27 1233 17
	leaq	l___unnamed_8(%rip), %rax
	movq	%rax, -384(%rbp)
	movq	$0, -376(%rbp)
	.loc	27 1230 20
	jmp	LBB74_9
Ltmp802:
LBB74_8:
	.loc	27 1231 17
	leaq	l___unnamed_16(%rip), %rax
	movq	%rax, -384(%rbp)
	movq	$1, -376(%rbp)
Ltmp803:
LBB74_9:
	.loc	27 1230 20
	movq	-384(%rbp), %rcx
	movq	-376(%rbp), %rax
	movq	%rcx, -400(%rbp)
	movq	%rax, -392(%rbp)
	.loc	27 1228 24
	jmp	LBB74_6
Ltmp804:
LBB74_10:
	.loc	27 0 24 is_stmt 0
	movq	-448(%rbp), %rax
	movq	-440(%rbp), %rcx
Ltmp805:
	.loc	27 1250 21 is_stmt 1
	leaq	-400(%rbp), %rdx
	movq	%rdx, -80(%rbp)
	movq	%rcx, -72(%rbp)
	movq	%rax, -64(%rbp)
	leaq	-416(%rbp), %rax
	movq	%rax, -56(%rbp)
	movq	-80(%rbp), %rax
	movq	%rax, -48(%rbp)
	movq	-72(%rbp), %rax
	movq	%rax, -40(%rbp)
	movq	-64(%rbp), %rax
	movq	%rax, -32(%rbp)
	movq	-56(%rbp), %rax
	movq	%rax, -24(%rbp)
Ltmp806:
	.loc	27 1250 21 is_stmt 0
	movq	-48(%rbp), %rdi
	callq	__ZN4core3fmt10ArgumentV111new_display17h90f2e198741c63bbE
	movq	%rax, -496(%rbp)
	movq	%rdx, -488(%rbp)
	movq	-24(%rbp), %rdi
	callq	__ZN4core3fmt10ArgumentV111new_display17h90f2e198741c63bbE
	movq	%rax, -480(%rbp)
	movq	%rdx, -472(%rbp)
	movq	-40(%rbp), %rdi
	callq	__ZN4core3fmt10ArgumentV111new_display17h6537807991185c45E
	movq	%rax, -464(%rbp)
	movq	%rdx, -456(%rbp)
	movq	-32(%rbp), %rdi
	callq	__ZN4core3fmt10ArgumentV111new_display17h6537807991185c45E
	movq	-496(%rbp), %r10
	movq	-488(%rbp), %r9
	movq	-480(%rbp), %r8
	movq	-472(%rbp), %rdi
	movq	-464(%rbp), %rsi
	movq	-456(%rbp), %rcx
	movq	%r10, -144(%rbp)
	movq	%r9, -136(%rbp)
	movq	%r8, -128(%rbp)
	movq	%rdi, -120(%rbp)
	movq	%rsi, -112(%rbp)
	movq	%rcx, -104(%rbp)
	movq	%rax, -96(%rbp)
	movq	%rdx, -88(%rbp)
Ltmp807:
	.loc	27 1250 21
	leaq	-192(%rbp), %rdi
	leaq	l___unnamed_17(%rip), %rsi
	movl	$6, %edx
	leaq	-144(%rbp), %rcx
	movl	$4, %r8d
	leaq	l___unnamed_18(%rip), %r9
	movq	$5, (%rsp)
	callq	__ZN4core3fmt9Arguments16new_v1_formatted17hf4e592764145e6f3E
	movq	-432(%rbp), %rdi
	.loc	27 1248 17 is_stmt 1
	leaq	-192(%rbp), %rsi
	callq	__ZN69_$LT$num_complex..Complex$LT$T$GT$$u20$as$u20$core..fmt..UpperHex$GT$3fmt11fmt_complex17h697ae60cdd30e3bfE
	andb	$1, %al
	movb	%al, -417(%rbp)
	jmp	LBB74_12
Ltmp808:
LBB74_11:
	.loc	27 0 17 is_stmt 0
	movq	-448(%rbp), %rax
	movq	-440(%rbp), %rcx
	.loc	27 1239 21 is_stmt 1
	leaq	-400(%rbp), %rdx
	movq	%rdx, -256(%rbp)
	movq	%rcx, -248(%rbp)
	movq	%rax, -240(%rbp)
	leaq	-416(%rbp), %rax
	movq	%rax, -232(%rbp)
	movq	-256(%rbp), %rax
	movq	%rax, -224(%rbp)
	movq	-248(%rbp), %rax
	movq	%rax, -216(%rbp)
	movq	-240(%rbp), %rax
	movq	%rax, -208(%rbp)
	movq	-232(%rbp), %rax
	movq	%rax, -200(%rbp)
Ltmp809:
	.loc	27 1239 21 is_stmt 0
	movq	-224(%rbp), %rdi
	callq	__ZN4core3fmt10ArgumentV111new_display17h90f2e198741c63bbE
	movq	%rax, -544(%rbp)
	movq	%rdx, -536(%rbp)
	movq	-200(%rbp), %rdi
	callq	__ZN4core3fmt10ArgumentV111new_display17h90f2e198741c63bbE
	movq	%rax, -528(%rbp)
	movq	%rdx, -520(%rbp)
	movq	-216(%rbp), %rdi
	callq	__ZN4core3fmt10ArgumentV111new_display17h6537807991185c45E
	movq	%rax, -512(%rbp)
	movq	%rdx, -504(%rbp)
	movq	-208(%rbp), %rdi
	callq	__ZN4core3fmt10ArgumentV111new_display17h6537807991185c45E
	movq	-544(%rbp), %r10
	movq	-536(%rbp), %r9
	movq	-528(%rbp), %r8
	movq	-520(%rbp), %rdi
	movq	-512(%rbp), %rsi
	movq	-504(%rbp), %rcx
	movq	%r10, -320(%rbp)
	movq	%r9, -312(%rbp)
	movq	%r8, -304(%rbp)
	movq	%rdi, -296(%rbp)
	movq	%rsi, -288(%rbp)
	movq	%rcx, -280(%rbp)
	movq	%rax, -272(%rbp)
	movq	%rdx, -264(%rbp)
Ltmp810:
	.loc	27 1239 21
	leaq	-368(%rbp), %rdi
	leaq	l___unnamed_19(%rip), %rsi
	movl	$6, %edx
	leaq	-320(%rbp), %rcx
	movl	$4, %r8d
	leaq	l___unnamed_18(%rip), %r9
	movq	$5, (%rsp)
	callq	__ZN4core3fmt9Arguments16new_v1_formatted17hf4e592764145e6f3E
	movq	-432(%rbp), %rdi
	.loc	27 1237 17 is_stmt 1
	leaq	-368(%rbp), %rsi
	callq	__ZN69_$LT$num_complex..Complex$LT$T$GT$$u20$as$u20$core..fmt..UpperHex$GT$3fmt11fmt_complex17h697ae60cdd30e3bfE
	andb	$1, %al
	movb	%al, -417(%rbp)
Ltmp811:
LBB74_12:
	.loc	27 1259 10
	movb	-417(%rbp), %al
	andb	$1, %al
	movzbl	%al, %eax
	addq	$560, %rsp
	popq	%rbp
	retq
Ltmp812:
Lfunc_end74:
	.cfi_endproc

	.p2align	4, 0x90
__ZN69_$LT$num_complex..Complex$LT$T$GT$$u20$as$u20$core..fmt..UpperHex$GT$3fmt11fmt_complex17h697ae60cdd30e3bfE:
Lfunc_begin75:
	.loc	27 1263 0
	.cfi_startproc
	.cfi_personality 155, _rust_eh_personality
	.cfi_lsda 16, Lexception10
	pushq	%rbp
	.cfi_def_cfa_offset 16
	.cfi_offset %rbp, -16
	movq	%rsp, %rbp
	.cfi_def_cfa_register %rbp
	subq	$320, %rsp
	movq	%rdi, -240(%rbp)
	movq	%rsi, -232(%rbp)
Ltmp825:
	movq	%rdi, -24(%rbp)
Ltmp826:
	.loc	27 1265 34 prologue_end
	callq	__ZN4core3fmt9Formatter5width17hf2280918eebfdaceE
Ltmp827:
	movq	%rdx, -208(%rbp)
	movq	%rax, -216(%rbp)
	.loc	27 1265 20 is_stmt 0
	cmpq	$1, -216(%rbp)
Ltmp828:
	jne	LBB75_2
Ltmp829:
	.loc	27 0 20
	movq	-232(%rbp), %rsi
	.loc	27 1265 25
	movq	-208(%rbp), %rax
	movq	%rax, -200(%rbp)
	leaq	-112(%rbp), %rdi
	movq	%rdi, -264(%rbp)
	.loc	27 1266 39 is_stmt 1
	callq	__ZN45_$LT$T$u20$as$u20$alloc..string..ToString$GT$9to_string17h57ed4b6d419e4989E
	movq	-264(%rbp), %rdi
Ltmp813:
	.loc	27 1266 17 is_stmt 0
	callq	__ZN4core3fmt10ArgumentV111new_display17hfae033710a238110E
Ltmp814:
	movq	%rdx, -256(%rbp)
	movq	%rax, -248(%rbp)
	jmp	LBB75_6
Ltmp830:
LBB75_2:
	.loc	27 0 17
	movq	-232(%rbp), %rdi
	.loc	27 1268 17 is_stmt 1
	callq	__ZN4core3fmt10ArgumentV111new_display17h6537807991185c45E
	movq	%rax, -40(%rbp)
	movq	%rdx, -32(%rbp)
	leaq	-88(%rbp), %rdi
	leaq	l___unnamed_20(%rip), %rsi
	movl	$1, %r8d
	leaq	-40(%rbp), %rcx
	movq	%r8, %rdx
	callq	__ZN4core3fmt9Arguments6new_v117h812b3b80b41cd525E
	movq	-240(%rbp), %rdi
	leaq	-88(%rbp), %rsi
	callq	__ZN4core3fmt9Formatter9write_fmt17h9bb7721c944aee26E
	andb	$1, %al
	movb	%al, -217(%rbp)
Ltmp831:
LBB75_3:
	.loc	27 1270 10
	movb	-217(%rbp), %al
	andb	$1, %al
	movzbl	%al, %eax
	addq	$320, %rsp
	popq	%rbp
	retq
Ltmp832:
LBB75_4:
Ltmp822:
	.loc	27 0 10 is_stmt 0
	leaq	-112(%rbp), %rdi
Ltmp833:
	.loc	27 1267 13 is_stmt 1
	callq	__ZN4core3ptr42drop_in_place$LT$alloc..string..String$GT$17hab7414df8e531398E
Ltmp823:
	jmp	LBB75_12
Ltmp834:
LBB75_5:
Ltmp821:
	.loc	27 0 13 is_stmt 0
	movq	%rax, %rcx
	movl	%edx, %eax
	movq	%rcx, -16(%rbp)
	movl	%eax, -8(%rbp)
	jmp	LBB75_4
Ltmp835:
LBB75_6:
	movq	-256(%rbp), %rax
	movq	-248(%rbp), %rcx
	movq	%rcx, -296(%rbp)
	movq	%rax, -288(%rbp)
Ltmp815:
	leaq	-200(%rbp), %rdi
	.loc	27 1266 17 is_stmt 1
	callq	__ZN4core3fmt10ArgumentV110from_usize17h666f241ed1303d7dE
Ltmp816:
	movq	%rdx, -280(%rbp)
	movq	%rax, -272(%rbp)
	jmp	LBB75_7
Ltmp836:
LBB75_7:
	.loc	27 0 17 is_stmt 0
	movq	-280(%rbp), %rax
	movq	-272(%rbp), %rcx
	movq	-288(%rbp), %rdx
	movq	-296(%rbp), %rsi
	.loc	27 1266 17
	movq	%rsi, -144(%rbp)
	movq	%rdx, -136(%rbp)
	movq	%rcx, -128(%rbp)
	movq	%rax, -120(%rbp)
Ltmp837:
Ltmp817:
	movq	%rsp, %rax
	movq	$1, (%rax)
	leaq	l___unnamed_20(%rip), %rsi
	leaq	l___unnamed_21(%rip), %r9
	leaq	-192(%rbp), %rdi
	movl	$1, %edx
	leaq	-144(%rbp), %rcx
	movl	$2, %r8d
	callq	__ZN4core3fmt9Arguments16new_v1_formatted17hf4e592764145e6f3E
Ltmp818:
	jmp	LBB75_9
Ltmp838:
LBB75_9:
Ltmp819:
	.loc	27 0 17
	movq	-240(%rbp), %rdi
	leaq	-192(%rbp), %rsi
	.loc	27 1266 17
	callq	__ZN4core3fmt9Formatter9write_fmt17h9bb7721c944aee26E
Ltmp820:
	movb	%al, -297(%rbp)
	jmp	LBB75_10
Ltmp839:
LBB75_10:
	.loc	27 0 17
	movb	-297(%rbp), %al
	.loc	27 1266 17
	andb	$1, %al
	movb	%al, -217(%rbp)
	.loc	27 1267 13 is_stmt 1
	leaq	-112(%rbp), %rdi
	callq	__ZN4core3ptr42drop_in_place$LT$alloc..string..String$GT$17hab7414df8e531398E
	jmp	LBB75_3
Ltmp840:
LBB75_11:
Ltmp824:
	.loc	27 1263 9
	callq	__ZN4core9panicking19panic_cannot_unwind17h1fbca7e1d7f56ae1E
Ltmp841:
LBB75_12:
	movq	-16(%rbp), %rdi
	callq	__Unwind_Resume
Ltmp842:
Lfunc_end75:
	.cfi_endproc
	.section	__TEXT,__gcc_except_tab
	.p2align	2
GCC_except_table75:
Lexception10:
	.byte	255
	.byte	255
	.byte	1
	.uleb128 Lcst_end10-Lcst_begin10
Lcst_begin10:
	.uleb128 Lfunc_begin75-Lfunc_begin75
	.uleb128 Ltmp813-Lfunc_begin75
	.byte	0
	.byte	0
	.uleb128 Ltmp813-Lfunc_begin75
	.uleb128 Ltmp814-Ltmp813
	.uleb128 Ltmp821-Lfunc_begin75
	.byte	0
	.uleb128 Ltmp814-Lfunc_begin75
	.uleb128 Ltmp822-Ltmp814
	.byte	0
	.byte	0
	.uleb128 Ltmp822-Lfunc_begin75
	.uleb128 Ltmp823-Ltmp822
	.uleb128 Ltmp824-Lfunc_begin75
	.byte	0
	.uleb128 Ltmp815-Lfunc_begin75
	.uleb128 Ltmp820-Ltmp815
	.uleb128 Ltmp821-Lfunc_begin75
	.byte	0
	.uleb128 Ltmp820-Lfunc_begin75
	.uleb128 Lfunc_end75-Ltmp820
	.byte	0
	.byte	0
Lcst_end10:
	.p2align	2

	.section	__TEXT,__text,regular,pure_instructions
	.globl	__ZN66_$LT$num_complex..Complex$LT$T$GT$$u20$as$u20$core..fmt..Octal$GT$3fmt9fmt_re_im17hcb50f53153f5bb99E
	.p2align	4, 0x90
__ZN66_$LT$num_complex..Complex$LT$T$GT$$u20$as$u20$core..fmt..Octal$GT$3fmt9fmt_re_im17hcb50f53153f5bb99E:
Lfunc_begin76:
	.loc	27 1220 0
	.cfi_startproc
	pushq	%rbp
	.cfi_def_cfa_offset 16
	.cfi_offset %rbp, -16
	movq	%rsp, %rbp
	.cfi_def_cfa_register %rbp
	subq	$560, %rsp
	movq	%r8, -448(%rbp)
Ltmp843:
	movq	%rcx, -440(%rbp)
Ltmp844:
	movq	%rdi, -432(%rbp)
	movb	%dl, %al
	movb	%al, -419(%rbp)
	movb	%sil, %cl
	movb	%cl, -418(%rbp)
	movq	%rdi, -16(%rbp)
	andb	$1, %cl
	movb	%cl, -2(%rbp)
	andb	$1, %al
	movb	%al, -1(%rbp)
Ltmp845:
	.loc	27 1227 29 prologue_end
	callq	__ZN4core3fmt9Formatter9alternate17hfdc18037c6b4846fE
Ltmp846:
	testb	$1, %al
Ltmp847:
	jne	LBB76_2
Ltmp848:
	.loc	27 1227 62 is_stmt 0
	leaq	l___unnamed_8(%rip), %rax
	movq	%rax, -416(%rbp)
	movq	$0, -408(%rbp)
	.loc	27 1227 26
	jmp	LBB76_3
Ltmp849:
LBB76_2:
	.loc	27 1330 32 is_stmt 1
	leaq	l___unnamed_23(%rip), %rax
	movq	%rax, -416(%rbp)
	movq	$2, -408(%rbp)
Ltmp850:
LBB76_3:
	.loc	27 0 32 is_stmt 0
	movb	-418(%rbp), %al
Ltmp851:
	.loc	27 1228 27 is_stmt 1
	testb	$1, %al
	jne	LBB76_5
	jmp	LBB76_4
Ltmp852:
LBB76_4:
	.loc	27 0 27 is_stmt 0
	movq	-432(%rbp), %rdi
	.loc	27 1230 23 is_stmt 1
	callq	__ZN4core3fmt9Formatter9sign_plus17h432aa8f859170509E
	testb	$1, %al
	jne	LBB76_8
	jmp	LBB76_7
Ltmp853:
LBB76_5:
	.loc	27 1229 17
	leaq	l___unnamed_15(%rip), %rax
	movq	%rax, -400(%rbp)
	movq	$1, -392(%rbp)
Ltmp854:
LBB76_6:
	.loc	27 0 17 is_stmt 0
	movb	-419(%rbp), %al
Ltmp855:
	.loc	27 1236 16 is_stmt 1
	testb	$1, %al
	jne	LBB76_11
	jmp	LBB76_10
Ltmp856:
LBB76_7:
	.loc	27 1233 17
	leaq	l___unnamed_8(%rip), %rax
	movq	%rax, -384(%rbp)
	movq	$0, -376(%rbp)
	.loc	27 1230 20
	jmp	LBB76_9
Ltmp857:
LBB76_8:
	.loc	27 1231 17
	leaq	l___unnamed_16(%rip), %rax
	movq	%rax, -384(%rbp)
	movq	$1, -376(%rbp)
Ltmp858:
LBB76_9:
	.loc	27 1230 20
	movq	-384(%rbp), %rcx
	movq	-376(%rbp), %rax
	movq	%rcx, -400(%rbp)
	movq	%rax, -392(%rbp)
	.loc	27 1228 24
	jmp	LBB76_6
Ltmp859:
LBB76_10:
	.loc	27 0 24 is_stmt 0
	movq	-448(%rbp), %rax
	movq	-440(%rbp), %rcx
Ltmp860:
	.loc	27 1250 21 is_stmt 1
	leaq	-400(%rbp), %rdx
	movq	%rdx, -80(%rbp)
	movq	%rcx, -72(%rbp)
	movq	%rax, -64(%rbp)
	leaq	-416(%rbp), %rax
	movq	%rax, -56(%rbp)
	movq	-80(%rbp), %rax
	movq	%rax, -48(%rbp)
	movq	-72(%rbp), %rax
	movq	%rax, -40(%rbp)
	movq	-64(%rbp), %rax
	movq	%rax, -32(%rbp)
	movq	-56(%rbp), %rax
	movq	%rax, -24(%rbp)
Ltmp861:
	.loc	27 1250 21 is_stmt 0
	movq	-48(%rbp), %rdi
	callq	__ZN4core3fmt10ArgumentV111new_display17h90f2e198741c63bbE
	movq	%rax, -496(%rbp)
	movq	%rdx, -488(%rbp)
	movq	-24(%rbp), %rdi
	callq	__ZN4core3fmt10ArgumentV111new_display17h90f2e198741c63bbE
	movq	%rax, -480(%rbp)
	movq	%rdx, -472(%rbp)
	movq	-40(%rbp), %rdi
	callq	__ZN4core3fmt10ArgumentV111new_display17h6537807991185c45E
	movq	%rax, -464(%rbp)
	movq	%rdx, -456(%rbp)
	movq	-32(%rbp), %rdi
	callq	__ZN4core3fmt10ArgumentV111new_display17h6537807991185c45E
	movq	-496(%rbp), %r10
	movq	-488(%rbp), %r9
	movq	-480(%rbp), %r8
	movq	-472(%rbp), %rdi
	movq	-464(%rbp), %rsi
	movq	-456(%rbp), %rcx
	movq	%r10, -144(%rbp)
	movq	%r9, -136(%rbp)
	movq	%r8, -128(%rbp)
	movq	%rdi, -120(%rbp)
	movq	%rsi, -112(%rbp)
	movq	%rcx, -104(%rbp)
	movq	%rax, -96(%rbp)
	movq	%rdx, -88(%rbp)
Ltmp862:
	.loc	27 1250 21
	leaq	-192(%rbp), %rdi
	leaq	l___unnamed_17(%rip), %rsi
	movl	$6, %edx
	leaq	-144(%rbp), %rcx
	movl	$4, %r8d
	leaq	l___unnamed_18(%rip), %r9
	movq	$5, (%rsp)
	callq	__ZN4core3fmt9Arguments16new_v1_formatted17hf4e592764145e6f3E
	movq	-432(%rbp), %rdi
	.loc	27 1248 17 is_stmt 1
	leaq	-192(%rbp), %rsi
	callq	__ZN66_$LT$num_complex..Complex$LT$T$GT$$u20$as$u20$core..fmt..Octal$GT$3fmt11fmt_complex17h0abe9f8163ac946aE
	andb	$1, %al
	movb	%al, -417(%rbp)
	jmp	LBB76_12
Ltmp863:
LBB76_11:
	.loc	27 0 17 is_stmt 0
	movq	-448(%rbp), %rax
	movq	-440(%rbp), %rcx
	.loc	27 1239 21 is_stmt 1
	leaq	-400(%rbp), %rdx
	movq	%rdx, -256(%rbp)
	movq	%rcx, -248(%rbp)
	movq	%rax, -240(%rbp)
	leaq	-416(%rbp), %rax
	movq	%rax, -232(%rbp)
	movq	-256(%rbp), %rax
	movq	%rax, -224(%rbp)
	movq	-248(%rbp), %rax
	movq	%rax, -216(%rbp)
	movq	-240(%rbp), %rax
	movq	%rax, -208(%rbp)
	movq	-232(%rbp), %rax
	movq	%rax, -200(%rbp)
Ltmp864:
	.loc	27 1239 21 is_stmt 0
	movq	-224(%rbp), %rdi
	callq	__ZN4core3fmt10ArgumentV111new_display17h90f2e198741c63bbE
	movq	%rax, -544(%rbp)
	movq	%rdx, -536(%rbp)
	movq	-200(%rbp), %rdi
	callq	__ZN4core3fmt10ArgumentV111new_display17h90f2e198741c63bbE
	movq	%rax, -528(%rbp)
	movq	%rdx, -520(%rbp)
	movq	-216(%rbp), %rdi
	callq	__ZN4core3fmt10ArgumentV111new_display17h6537807991185c45E
	movq	%rax, -512(%rbp)
	movq	%rdx, -504(%rbp)
	movq	-208(%rbp), %rdi
	callq	__ZN4core3fmt10ArgumentV111new_display17h6537807991185c45E
	movq	-544(%rbp), %r10
	movq	-536(%rbp), %r9
	movq	-528(%rbp), %r8
	movq	-520(%rbp), %rdi
	movq	-512(%rbp), %rsi
	movq	-504(%rbp), %rcx
	movq	%r10, -320(%rbp)
	movq	%r9, -312(%rbp)
	movq	%r8, -304(%rbp)
	movq	%rdi, -296(%rbp)
	movq	%rsi, -288(%rbp)
	movq	%rcx, -280(%rbp)
	movq	%rax, -272(%rbp)
	movq	%rdx, -264(%rbp)
Ltmp865:
	.loc	27 1239 21
	leaq	-368(%rbp), %rdi
	leaq	l___unnamed_19(%rip), %rsi
	movl	$6, %edx
	leaq	-320(%rbp), %rcx
	movl	$4, %r8d
	leaq	l___unnamed_18(%rip), %r9
	movq	$5, (%rsp)
	callq	__ZN4core3fmt9Arguments16new_v1_formatted17hf4e592764145e6f3E
	movq	-432(%rbp), %rdi
	.loc	27 1237 17 is_stmt 1
	leaq	-368(%rbp), %rsi
	callq	__ZN66_$LT$num_complex..Complex$LT$T$GT$$u20$as$u20$core..fmt..Octal$GT$3fmt11fmt_complex17h0abe9f8163ac946aE
	andb	$1, %al
	movb	%al, -417(%rbp)
Ltmp866:
LBB76_12:
	.loc	27 1259 10
	movb	-417(%rbp), %al
	andb	$1, %al
	movzbl	%al, %eax
	addq	$560, %rsp
	popq	%rbp
	retq
Ltmp867:
Lfunc_end76:
	.cfi_endproc

	.p2align	4, 0x90
__ZN66_$LT$num_complex..Complex$LT$T$GT$$u20$as$u20$core..fmt..Octal$GT$3fmt11fmt_complex17h0abe9f8163ac946aE:
Lfunc_begin77:
	.loc	27 1263 0
	.cfi_startproc
	.cfi_personality 155, _rust_eh_personality
	.cfi_lsda 16, Lexception11
	pushq	%rbp
	.cfi_def_cfa_offset 16
	.cfi_offset %rbp, -16
	movq	%rsp, %rbp
	.cfi_def_cfa_register %rbp
	subq	$320, %rsp
	movq	%rdi, -240(%rbp)
	movq	%rsi, -232(%rbp)
Ltmp880:
	movq	%rdi, -24(%rbp)
Ltmp881:
	.loc	27 1265 34 prologue_end
	callq	__ZN4core3fmt9Formatter5width17hf2280918eebfdaceE
Ltmp882:
	movq	%rdx, -208(%rbp)
	movq	%rax, -216(%rbp)
	.loc	27 1265 20 is_stmt 0
	cmpq	$1, -216(%rbp)
Ltmp883:
	jne	LBB77_2
Ltmp884:
	.loc	27 0 20
	movq	-232(%rbp), %rsi
	.loc	27 1265 25
	movq	-208(%rbp), %rax
	movq	%rax, -200(%rbp)
	leaq	-112(%rbp), %rdi
	movq	%rdi, -264(%rbp)
	.loc	27 1266 39 is_stmt 1
	callq	__ZN45_$LT$T$u20$as$u20$alloc..string..ToString$GT$9to_string17h57ed4b6d419e4989E
	movq	-264(%rbp), %rdi
Ltmp868:
	.loc	27 1266 17 is_stmt 0
	callq	__ZN4core3fmt10ArgumentV111new_display17hfae033710a238110E
Ltmp869:
	movq	%rdx, -256(%rbp)
	movq	%rax, -248(%rbp)
	jmp	LBB77_6
Ltmp885:
LBB77_2:
	.loc	27 0 17
	movq	-232(%rbp), %rdi
	.loc	27 1268 17 is_stmt 1
	callq	__ZN4core3fmt10ArgumentV111new_display17h6537807991185c45E
	movq	%rax, -40(%rbp)
	movq	%rdx, -32(%rbp)
	leaq	-88(%rbp), %rdi
	leaq	l___unnamed_20(%rip), %rsi
	movl	$1, %r8d
	leaq	-40(%rbp), %rcx
	movq	%r8, %rdx
	callq	__ZN4core3fmt9Arguments6new_v117h812b3b80b41cd525E
	movq	-240(%rbp), %rdi
	leaq	-88(%rbp), %rsi
	callq	__ZN4core3fmt9Formatter9write_fmt17h9bb7721c944aee26E
	andb	$1, %al
	movb	%al, -217(%rbp)
Ltmp886:
LBB77_3:
	.loc	27 1270 10
	movb	-217(%rbp), %al
	andb	$1, %al
	movzbl	%al, %eax
	addq	$320, %rsp
	popq	%rbp
	retq
Ltmp887:
LBB77_4:
Ltmp877:
	.loc	27 0 10 is_stmt 0
	leaq	-112(%rbp), %rdi
Ltmp888:
	.loc	27 1267 13 is_stmt 1
	callq	__ZN4core3ptr42drop_in_place$LT$alloc..string..String$GT$17hab7414df8e531398E
Ltmp878:
	jmp	LBB77_12
Ltmp889:
LBB77_5:
Ltmp876:
	.loc	27 0 13 is_stmt 0
	movq	%rax, %rcx
	movl	%edx, %eax
	movq	%rcx, -16(%rbp)
	movl	%eax, -8(%rbp)
	jmp	LBB77_4
Ltmp890:
LBB77_6:
	movq	-256(%rbp), %rax
	movq	-248(%rbp), %rcx
	movq	%rcx, -296(%rbp)
	movq	%rax, -288(%rbp)
Ltmp870:
	leaq	-200(%rbp), %rdi
	.loc	27 1266 17 is_stmt 1
	callq	__ZN4core3fmt10ArgumentV110from_usize17h666f241ed1303d7dE
Ltmp871:
	movq	%rdx, -280(%rbp)
	movq	%rax, -272(%rbp)
	jmp	LBB77_7
Ltmp891:
LBB77_7:
	.loc	27 0 17 is_stmt 0
	movq	-280(%rbp), %rax
	movq	-272(%rbp), %rcx
	movq	-288(%rbp), %rdx
	movq	-296(%rbp), %rsi
	.loc	27 1266 17
	movq	%rsi, -144(%rbp)
	movq	%rdx, -136(%rbp)
	movq	%rcx, -128(%rbp)
	movq	%rax, -120(%rbp)
Ltmp892:
Ltmp872:
	movq	%rsp, %rax
	movq	$1, (%rax)
	leaq	l___unnamed_20(%rip), %rsi
	leaq	l___unnamed_21(%rip), %r9
	leaq	-192(%rbp), %rdi
	movl	$1, %edx
	leaq	-144(%rbp), %rcx
	movl	$2, %r8d
	callq	__ZN4core3fmt9Arguments16new_v1_formatted17hf4e592764145e6f3E
Ltmp873:
	jmp	LBB77_9
Ltmp893:
LBB77_9:
Ltmp874:
	.loc	27 0 17
	movq	-240(%rbp), %rdi
	leaq	-192(%rbp), %rsi
	.loc	27 1266 17
	callq	__ZN4core3fmt9Formatter9write_fmt17h9bb7721c944aee26E
Ltmp875:
	movb	%al, -297(%rbp)
	jmp	LBB77_10
Ltmp894:
LBB77_10:
	.loc	27 0 17
	movb	-297(%rbp), %al
	.loc	27 1266 17
	andb	$1, %al
	movb	%al, -217(%rbp)
	.loc	27 1267 13 is_stmt 1
	leaq	-112(%rbp), %rdi
	callq	__ZN4core3ptr42drop_in_place$LT$alloc..string..String$GT$17hab7414df8e531398E
	jmp	LBB77_3
Ltmp895:
LBB77_11:
Ltmp879:
	.loc	27 1263 9
	callq	__ZN4core9panicking19panic_cannot_unwind17h1fbca7e1d7f56ae1E
Ltmp896:
LBB77_12:
	movq	-16(%rbp), %rdi
	callq	__Unwind_Resume
Ltmp897:
Lfunc_end77:
	.cfi_endproc
	.section	__TEXT,__gcc_except_tab
	.p2align	2
GCC_except_table77:
Lexception11:
	.byte	255
	.byte	255
	.byte	1
	.uleb128 Lcst_end11-Lcst_begin11
Lcst_begin11:
	.uleb128 Lfunc_begin77-Lfunc_begin77
	.uleb128 Ltmp868-Lfunc_begin77
	.byte	0
	.byte	0
	.uleb128 Ltmp868-Lfunc_begin77
	.uleb128 Ltmp869-Ltmp868
	.uleb128 Ltmp876-Lfunc_begin77
	.byte	0
	.uleb128 Ltmp869-Lfunc_begin77
	.uleb128 Ltmp877-Ltmp869
	.byte	0
	.byte	0
	.uleb128 Ltmp877-Lfunc_begin77
	.uleb128 Ltmp878-Ltmp877
	.uleb128 Ltmp879-Lfunc_begin77
	.byte	0
	.uleb128 Ltmp870-Lfunc_begin77
	.uleb128 Ltmp875-Ltmp870
	.uleb128 Ltmp876-Lfunc_begin77
	.byte	0
	.uleb128 Ltmp875-Lfunc_begin77
	.uleb128 Lfunc_end77-Ltmp875
	.byte	0
	.byte	0
Lcst_end11:
	.p2align	2

	.section	__TEXT,__text,regular,pure_instructions
	.globl	__ZN67_$LT$num_complex..Complex$LT$T$GT$$u20$as$u20$core..fmt..Binary$GT$3fmt9fmt_re_im17hcf283bb59d3de64cE
	.p2align	4, 0x90
__ZN67_$LT$num_complex..Complex$LT$T$GT$$u20$as$u20$core..fmt..Binary$GT$3fmt9fmt_re_im17hcf283bb59d3de64cE:
Lfunc_begin78:
	.loc	27 1220 0
	.cfi_startproc
	pushq	%rbp
	.cfi_def_cfa_offset 16
	.cfi_offset %rbp, -16
	movq	%rsp, %rbp
	.cfi_def_cfa_register %rbp
	subq	$560, %rsp
	movq	%r8, -448(%rbp)
Ltmp898:
	movq	%rcx, -440(%rbp)
Ltmp899:
	movq	%rdi, -432(%rbp)
	movb	%dl, %al
	movb	%al, -419(%rbp)
	movb	%sil, %cl
	movb	%cl, -418(%rbp)
	movq	%rdi, -16(%rbp)
	andb	$1, %cl
	movb	%cl, -2(%rbp)
	andb	$1, %al
	movb	%al, -1(%rbp)
Ltmp900:
	.loc	27 1227 29 prologue_end
	callq	__ZN4core3fmt9Formatter9alternate17hfdc18037c6b4846fE
Ltmp901:
	testb	$1, %al
Ltmp902:
	jne	LBB78_2
Ltmp903:
	.loc	27 1227 62 is_stmt 0
	leaq	l___unnamed_8(%rip), %rax
	movq	%rax, -416(%rbp)
	movq	$0, -408(%rbp)
	.loc	27 1227 26
	jmp	LBB78_3
Ltmp904:
LBB78_2:
	.loc	27 1339 32 is_stmt 1
	leaq	l___unnamed_24(%rip), %rax
	movq	%rax, -416(%rbp)
	movq	$2, -408(%rbp)
Ltmp905:
LBB78_3:
	.loc	27 0 32 is_stmt 0
	movb	-418(%rbp), %al
Ltmp906:
	.loc	27 1228 27 is_stmt 1
	testb	$1, %al
	jne	LBB78_5
	jmp	LBB78_4
Ltmp907:
LBB78_4:
	.loc	27 0 27 is_stmt 0
	movq	-432(%rbp), %rdi
	.loc	27 1230 23 is_stmt 1
	callq	__ZN4core3fmt9Formatter9sign_plus17h432aa8f859170509E
	testb	$1, %al
	jne	LBB78_8
	jmp	LBB78_7
Ltmp908:
LBB78_5:
	.loc	27 1229 17
	leaq	l___unnamed_15(%rip), %rax
	movq	%rax, -400(%rbp)
	movq	$1, -392(%rbp)
Ltmp909:
LBB78_6:
	.loc	27 0 17 is_stmt 0
	movb	-419(%rbp), %al
Ltmp910:
	.loc	27 1236 16 is_stmt 1
	testb	$1, %al
	jne	LBB78_11
	jmp	LBB78_10
Ltmp911:
LBB78_7:
	.loc	27 1233 17
	leaq	l___unnamed_8(%rip), %rax
	movq	%rax, -384(%rbp)
	movq	$0, -376(%rbp)
	.loc	27 1230 20
	jmp	LBB78_9
Ltmp912:
LBB78_8:
	.loc	27 1231 17
	leaq	l___unnamed_16(%rip), %rax
	movq	%rax, -384(%rbp)
	movq	$1, -376(%rbp)
Ltmp913:
LBB78_9:
	.loc	27 1230 20
	movq	-384(%rbp), %rcx
	movq	-376(%rbp), %rax
	movq	%rcx, -400(%rbp)
	movq	%rax, -392(%rbp)
	.loc	27 1228 24
	jmp	LBB78_6
Ltmp914:
LBB78_10:
	.loc	27 0 24 is_stmt 0
	movq	-448(%rbp), %rax
	movq	-440(%rbp), %rcx
Ltmp915:
	.loc	27 1250 21 is_stmt 1
	leaq	-400(%rbp), %rdx
	movq	%rdx, -80(%rbp)
	movq	%rcx, -72(%rbp)
	movq	%rax, -64(%rbp)
	leaq	-416(%rbp), %rax
	movq	%rax, -56(%rbp)
	movq	-80(%rbp), %rax
	movq	%rax, -48(%rbp)
	movq	-72(%rbp), %rax
	movq	%rax, -40(%rbp)
	movq	-64(%rbp), %rax
	movq	%rax, -32(%rbp)
	movq	-56(%rbp), %rax
	movq	%rax, -24(%rbp)
Ltmp916:
	.loc	27 1250 21 is_stmt 0
	movq	-48(%rbp), %rdi
	callq	__ZN4core3fmt10ArgumentV111new_display17h90f2e198741c63bbE
	movq	%rax, -496(%rbp)
	movq	%rdx, -488(%rbp)
	movq	-24(%rbp), %rdi
	callq	__ZN4core3fmt10ArgumentV111new_display17h90f2e198741c63bbE
	movq	%rax, -480(%rbp)
	movq	%rdx, -472(%rbp)
	movq	-40(%rbp), %rdi
	callq	__ZN4core3fmt10ArgumentV111new_display17h6537807991185c45E
	movq	%rax, -464(%rbp)
	movq	%rdx, -456(%rbp)
	movq	-32(%rbp), %rdi
	callq	__ZN4core3fmt10ArgumentV111new_display17h6537807991185c45E
	movq	-496(%rbp), %r10
	movq	-488(%rbp), %r9
	movq	-480(%rbp), %r8
	movq	-472(%rbp), %rdi
	movq	-464(%rbp), %rsi
	movq	-456(%rbp), %rcx
	movq	%r10, -144(%rbp)
	movq	%r9, -136(%rbp)
	movq	%r8, -128(%rbp)
	movq	%rdi, -120(%rbp)
	movq	%rsi, -112(%rbp)
	movq	%rcx, -104(%rbp)
	movq	%rax, -96(%rbp)
	movq	%rdx, -88(%rbp)
Ltmp917:
	.loc	27 1250 21
	leaq	-192(%rbp), %rdi
	leaq	l___unnamed_17(%rip), %rsi
	movl	$6, %edx
	leaq	-144(%rbp), %rcx
	movl	$4, %r8d
	leaq	l___unnamed_18(%rip), %r9
	movq	$5, (%rsp)
	callq	__ZN4core3fmt9Arguments16new_v1_formatted17hf4e592764145e6f3E
	movq	-432(%rbp), %rdi
	.loc	27 1248 17 is_stmt 1
	leaq	-192(%rbp), %rsi
	callq	__ZN67_$LT$num_complex..Complex$LT$T$GT$$u20$as$u20$core..fmt..Binary$GT$3fmt11fmt_complex17hefca51ad635f9fbfE
	andb	$1, %al
	movb	%al, -417(%rbp)
	jmp	LBB78_12
Ltmp918:
LBB78_11:
	.loc	27 0 17 is_stmt 0
	movq	-448(%rbp), %rax
	movq	-440(%rbp), %rcx
	.loc	27 1239 21 is_stmt 1
	leaq	-400(%rbp), %rdx
	movq	%rdx, -256(%rbp)
	movq	%rcx, -248(%rbp)
	movq	%rax, -240(%rbp)
	leaq	-416(%rbp), %rax
	movq	%rax, -232(%rbp)
	movq	-256(%rbp), %rax
	movq	%rax, -224(%rbp)
	movq	-248(%rbp), %rax
	movq	%rax, -216(%rbp)
	movq	-240(%rbp), %rax
	movq	%rax, -208(%rbp)
	movq	-232(%rbp), %rax
	movq	%rax, -200(%rbp)
Ltmp919:
	.loc	27 1239 21 is_stmt 0
	movq	-224(%rbp), %rdi
	callq	__ZN4core3fmt10ArgumentV111new_display17h90f2e198741c63bbE
	movq	%rax, -544(%rbp)
	movq	%rdx, -536(%rbp)
	movq	-200(%rbp), %rdi
	callq	__ZN4core3fmt10ArgumentV111new_display17h90f2e198741c63bbE
	movq	%rax, -528(%rbp)
	movq	%rdx, -520(%rbp)
	movq	-216(%rbp), %rdi
	callq	__ZN4core3fmt10ArgumentV111new_display17h6537807991185c45E
	movq	%rax, -512(%rbp)
	movq	%rdx, -504(%rbp)
	movq	-208(%rbp), %rdi
	callq	__ZN4core3fmt10ArgumentV111new_display17h6537807991185c45E
	movq	-544(%rbp), %r10
	movq	-536(%rbp), %r9
	movq	-528(%rbp), %r8
	movq	-520(%rbp), %rdi
	movq	-512(%rbp), %rsi
	movq	-504(%rbp), %rcx
	movq	%r10, -320(%rbp)
	movq	%r9, -312(%rbp)
	movq	%r8, -304(%rbp)
	movq	%rdi, -296(%rbp)
	movq	%rsi, -288(%rbp)
	movq	%rcx, -280(%rbp)
	movq	%rax, -272(%rbp)
	movq	%rdx, -264(%rbp)
Ltmp920:
	.loc	27 1239 21
	leaq	-368(%rbp), %rdi
	leaq	l___unnamed_19(%rip), %rsi
	movl	$6, %edx
	leaq	-320(%rbp), %rcx
	movl	$4, %r8d
	leaq	l___unnamed_18(%rip), %r9
	movq	$5, (%rsp)
	callq	__ZN4core3fmt9Arguments16new_v1_formatted17hf4e592764145e6f3E
	movq	-432(%rbp), %rdi
	.loc	27 1237 17 is_stmt 1
	leaq	-368(%rbp), %rsi
	callq	__ZN67_$LT$num_complex..Complex$LT$T$GT$$u20$as$u20$core..fmt..Binary$GT$3fmt11fmt_complex17hefca51ad635f9fbfE
	andb	$1, %al
	movb	%al, -417(%rbp)
Ltmp921:
LBB78_12:
	.loc	27 1259 10
	movb	-417(%rbp), %al
	andb	$1, %al
	movzbl	%al, %eax
	addq	$560, %rsp
	popq	%rbp
	retq
Ltmp922:
Lfunc_end78:
	.cfi_endproc

	.p2align	4, 0x90
__ZN67_$LT$num_complex..Complex$LT$T$GT$$u20$as$u20$core..fmt..Binary$GT$3fmt11fmt_complex17hefca51ad635f9fbfE:
Lfunc_begin79:
	.loc	27 1263 0
	.cfi_startproc
	.cfi_personality 155, _rust_eh_personality
	.cfi_lsda 16, Lexception12
	pushq	%rbp
	.cfi_def_cfa_offset 16
	.cfi_offset %rbp, -16
	movq	%rsp, %rbp
	.cfi_def_cfa_register %rbp
	subq	$320, %rsp
	movq	%rdi, -240(%rbp)
	movq	%rsi, -232(%rbp)
Ltmp935:
	movq	%rdi, -24(%rbp)
Ltmp936:
	.loc	27 1265 34 prologue_end
	callq	__ZN4core3fmt9Formatter5width17hf2280918eebfdaceE
Ltmp937:
	movq	%rdx, -208(%rbp)
	movq	%rax, -216(%rbp)
	.loc	27 1265 20 is_stmt 0
	cmpq	$1, -216(%rbp)
Ltmp938:
	jne	LBB79_2
Ltmp939:
	.loc	27 0 20
	movq	-232(%rbp), %rsi
	.loc	27 1265 25
	movq	-208(%rbp), %rax
	movq	%rax, -200(%rbp)
	leaq	-112(%rbp), %rdi
	movq	%rdi, -264(%rbp)
	.loc	27 1266 39 is_stmt 1
	callq	__ZN45_$LT$T$u20$as$u20$alloc..string..ToString$GT$9to_string17h57ed4b6d419e4989E
	movq	-264(%rbp), %rdi
Ltmp923:
	.loc	27 1266 17 is_stmt 0
	callq	__ZN4core3fmt10ArgumentV111new_display17hfae033710a238110E
Ltmp924:
	movq	%rdx, -256(%rbp)
	movq	%rax, -248(%rbp)
	jmp	LBB79_6
Ltmp940:
LBB79_2:
	.loc	27 0 17
	movq	-232(%rbp), %rdi
	.loc	27 1268 17 is_stmt 1
	callq	__ZN4core3fmt10ArgumentV111new_display17h6537807991185c45E
	movq	%rax, -40(%rbp)
	movq	%rdx, -32(%rbp)
	leaq	-88(%rbp), %rdi
	leaq	l___unnamed_20(%rip), %rsi
	movl	$1, %r8d
	leaq	-40(%rbp), %rcx
	movq	%r8, %rdx
	callq	__ZN4core3fmt9Arguments6new_v117h812b3b80b41cd525E
	movq	-240(%rbp), %rdi
	leaq	-88(%rbp), %rsi
	callq	__ZN4core3fmt9Formatter9write_fmt17h9bb7721c944aee26E
	andb	$1, %al
	movb	%al, -217(%rbp)
Ltmp941:
LBB79_3:
	.loc	27 1270 10
	movb	-217(%rbp), %al
	andb	$1, %al
	movzbl	%al, %eax
	addq	$320, %rsp
	popq	%rbp
	retq
Ltmp942:
LBB79_4:
Ltmp932:
	.loc	27 0 10 is_stmt 0
	leaq	-112(%rbp), %rdi
Ltmp943:
	.loc	27 1267 13 is_stmt 1
	callq	__ZN4core3ptr42drop_in_place$LT$alloc..string..String$GT$17hab7414df8e531398E
Ltmp933:
	jmp	LBB79_12
Ltmp944:
LBB79_5:
Ltmp931:
	.loc	27 0 13 is_stmt 0
	movq	%rax, %rcx
	movl	%edx, %eax
	movq	%rcx, -16(%rbp)
	movl	%eax, -8(%rbp)
	jmp	LBB79_4
Ltmp945:
LBB79_6:
	movq	-256(%rbp), %rax
	movq	-248(%rbp), %rcx
	movq	%rcx, -296(%rbp)
	movq	%rax, -288(%rbp)
Ltmp925:
	leaq	-200(%rbp), %rdi
	.loc	27 1266 17 is_stmt 1
	callq	__ZN4core3fmt10ArgumentV110from_usize17h666f241ed1303d7dE
Ltmp926:
	movq	%rdx, -280(%rbp)
	movq	%rax, -272(%rbp)
	jmp	LBB79_7
Ltmp946:
LBB79_7:
	.loc	27 0 17 is_stmt 0
	movq	-280(%rbp), %rax
	movq	-272(%rbp), %rcx
	movq	-288(%rbp), %rdx
	movq	-296(%rbp), %rsi
	.loc	27 1266 17
	movq	%rsi, -144(%rbp)
	movq	%rdx, -136(%rbp)
	movq	%rcx, -128(%rbp)
	movq	%rax, -120(%rbp)
Ltmp947:
Ltmp927:
	movq	%rsp, %rax
	movq	$1, (%rax)
	leaq	l___unnamed_20(%rip), %rsi
	leaq	l___unnamed_21(%rip), %r9
	leaq	-192(%rbp), %rdi
	movl	$1, %edx
	leaq	-144(%rbp), %rcx
	movl	$2, %r8d
	callq	__ZN4core3fmt9Arguments16new_v1_formatted17hf4e592764145e6f3E
Ltmp928:
	jmp	LBB79_9
Ltmp948:
LBB79_9:
Ltmp929:
	.loc	27 0 17
	movq	-240(%rbp), %rdi
	leaq	-192(%rbp), %rsi
	.loc	27 1266 17
	callq	__ZN4core3fmt9Formatter9write_fmt17h9bb7721c944aee26E
Ltmp930:
	movb	%al, -297(%rbp)
	jmp	LBB79_10
Ltmp949:
LBB79_10:
	.loc	27 0 17
	movb	-297(%rbp), %al
	.loc	27 1266 17
	andb	$1, %al
	movb	%al, -217(%rbp)
	.loc	27 1267 13 is_stmt 1
	leaq	-112(%rbp), %rdi
	callq	__ZN4core3ptr42drop_in_place$LT$alloc..string..String$GT$17hab7414df8e531398E
	jmp	LBB79_3
Ltmp950:
LBB79_11:
Ltmp934:
	.loc	27 1263 9
	callq	__ZN4core9panicking19panic_cannot_unwind17h1fbca7e1d7f56ae1E
Ltmp951:
LBB79_12:
	movq	-16(%rbp), %rdi
	callq	__Unwind_Resume
Ltmp952:
Lfunc_end79:
	.cfi_endproc
	.section	__TEXT,__gcc_except_tab
	.p2align	2
GCC_except_table79:
Lexception12:
	.byte	255
	.byte	255
	.byte	1
	.uleb128 Lcst_end12-Lcst_begin12
Lcst_begin12:
	.uleb128 Lfunc_begin79-Lfunc_begin79
	.uleb128 Ltmp923-Lfunc_begin79
	.byte	0
	.byte	0
	.uleb128 Ltmp923-Lfunc_begin79
	.uleb128 Ltmp924-Ltmp923
	.uleb128 Ltmp931-Lfunc_begin79
	.byte	0
	.uleb128 Ltmp924-Lfunc_begin79
	.uleb128 Ltmp932-Ltmp924
	.byte	0
	.byte	0
	.uleb128 Ltmp932-Lfunc_begin79
	.uleb128 Ltmp933-Ltmp932
	.uleb128 Ltmp934-Lfunc_begin79
	.byte	0
	.uleb128 Ltmp925-Lfunc_begin79
	.uleb128 Ltmp930-Ltmp925
	.uleb128 Ltmp931-Lfunc_begin79
	.byte	0
	.uleb128 Ltmp930-Lfunc_begin79
	.uleb128 Lfunc_end79-Ltmp930
	.byte	0
	.byte	0
Lcst_end12:
	.p2align	2

	.section	__TEXT,__literal16,16byte_literals
	.p2align	3
L___unnamed_4:
	.asciz	"\000\000\000\000\000\000\000\000\001\000\000\000\000\000\000"

	.section	__DATA,__const
	.p2align	3
l___unnamed_1:
	.quad	__ZN4core3ptr42drop_in_place$LT$alloc..string..String$GT$17hab7414df8e531398E
	.asciz	"\030\000\000\000\000\000\000\000\b\000\000\000\000\000\000"
	.quad	__ZN58_$LT$alloc..string..String$u20$as$u20$core..fmt..Write$GT$9write_str17hb97ed28f2a5441e6E
	.quad	__ZN58_$LT$alloc..string..String$u20$as$u20$core..fmt..Write$GT$10write_char17ha8f23b806611accaE
	.quad	__ZN4core3fmt5Write9write_fmt17h2d09a1e9fc54107fE

	.section	__TEXT,__const
l___unnamed_5:
	.ascii	"a Display implementation returned an error unexpectedly"

l___unnamed_25:
	.ascii	"/rustc/2c8cc343237b8f7d5a3c3703e3a87f2eb2c54a74/library/alloc/src/string.rs"

	.section	__DATA,__const
	.p2align	3
l___unnamed_6:
	.quad	l___unnamed_25
	.asciz	"K\000\000\000\000\000\000\000\351\t\000\000\016\000\000"

	.p2align	3
l___unnamed_2:
	.quad	__ZN4core3ptr54drop_in_place$LT$$RF$mut$u20$alloc..string..String$GT$17hcbc771e5de0bf2cfE
	.asciz	"\b\000\000\000\000\000\000\000\b\000\000\000\000\000\000"
	.quad	__ZN50_$LT$$RF$mut$u20$W$u20$as$u20$core..fmt..Write$GT$9write_str17h7248abcc0d1d125fE
	.quad	__ZN50_$LT$$RF$mut$u20$W$u20$as$u20$core..fmt..Write$GT$10write_char17hb67b72ddf6e1dad3E
	.quad	__ZN50_$LT$$RF$mut$u20$W$u20$as$u20$core..fmt..Write$GT$9write_fmt17h4122d909f2cefbc4E

	.section	__TEXT,__const
l___unnamed_26:
	.ascii	"invalid args"

	.section	__DATA,__const
	.p2align	3
l___unnamed_7:
	.quad	l___unnamed_26
	.asciz	"\f\000\000\000\000\000\000"

	.section	__TEXT,__const
	.p2align	3
l___unnamed_8:
	.byte	0

l___unnamed_27:
	.ascii	"/rustc/2c8cc343237b8f7d5a3c3703e3a87f2eb2c54a74/library/core/src/fmt/mod.rs"

	.section	__DATA,__const
	.p2align	3
l___unnamed_9:
	.quad	l___unnamed_27
	.asciz	"K\000\000\000\000\000\000\000\221\001\000\000\r\000\000"

	.section	__TEXT,__const
l___unnamed_28:
	.ascii	"/rustc/2c8cc343237b8f7d5a3c3703e3a87f2eb2c54a74/library/core/src/char/methods.rs"

	.section	__DATA,__const
	.p2align	3
l___unnamed_12:
	.quad	l___unnamed_28
	.asciz	"P\000\000\000\000\000\000\000\335\006\000\000\n\000\000"

	.section	__TEXT,__const
l___unnamed_29:
	.ascii	"encode_utf8: need "

l___unnamed_30:
	.ascii	" bytes to encode U+"

l___unnamed_31:
	.ascii	", but the buffer has "

	.section	__DATA,__const
	.p2align	3
l___unnamed_10:
	.quad	l___unnamed_29
	.asciz	"\022\000\000\000\000\000\000"
	.quad	l___unnamed_30
	.asciz	"\023\000\000\000\000\000\000"
	.quad	l___unnamed_31
	.asciz	"\025\000\000\000\000\000\000"

	.p2align	3
l___unnamed_11:
	.quad	l___unnamed_28
	.asciz	"P\000\000\000\000\000\000\000\326\006\000\000\016\000\000"

	.section	__TEXT,__const
l___unnamed_32:
	.ascii	"/rustc/2c8cc343237b8f7d5a3c3703e3a87f2eb2c54a74/library/core/src/alloc/layout.rs"

	.section	__DATA,__const
	.p2align	3
l___unnamed_13:
	.quad	l___unnamed_32
	.asciz	"P\000\000\000\000\000\000\000\304\001\000\000)\000\000"

	.section	__TEXT,__const
	.p2align	4
_str.0:
	.ascii	"attempt to divide by zero"

	.section	__DATA,__const
	.p2align	3
l___unnamed_3:
	.quad	__ZN4core3ptr37drop_in_place$LT$core..fmt..Error$GT$17h778114983b624736E
	.asciz	"\000\000\000\000\000\000\000\000\001\000\000\000\000\000\000"
	.quad	__ZN53_$LT$core..fmt..Error$u20$as$u20$core..fmt..Debug$GT$3fmt17h5ad2695b3de7d92dE

	.section	__TEXT,__const
l___unnamed_33:
	.ascii	"/rustc/2c8cc343237b8f7d5a3c3703e3a87f2eb2c54a74/library/alloc/src/raw_vec.rs"

	.section	__DATA,__const
	.p2align	3
l___unnamed_14:
	.quad	l___unnamed_33
	.asciz	"L\000\000\000\000\000\000\000\367\000\000\000;\000\000"

	.section	__TEXT,__const
l___unnamed_15:
	.byte	45

l___unnamed_16:
	.byte	43

l___unnamed_34:
	.byte	105

	.section	__DATA,__const
	.p2align	3
l___unnamed_19:
	.quad	l___unnamed_8
	.space	8
	.quad	l___unnamed_8
	.space	8
	.quad	l___unnamed_8
	.space	8
	.quad	l___unnamed_15
	.asciz	"\001\000\000\000\000\000\000"
	.quad	l___unnamed_8
	.space	8
	.quad	l___unnamed_34
	.asciz	"\001\000\000\000\000\000\000"

	.section	__TEXT,__const
	.p2align	3
l___unnamed_18:
	.asciz	"\002\000\000\000\000\000\000\000\000\000\000\000\000\000\000\000\002\000\000\000\000\000\000\000\000\000\000\000\000\000\000\000\000\000\000\000 \000\000\000\003\000\000\000\000\000\000\000\000\000\000\000\000\000\000\000\002\000\000\000\000\000\000\000\000\000\000\000\000\000\000\000\002\000\000\000\000\000\000\000\000\000\000\000\000\000\000\000\000\000\000\000 \000\000\000\003\000\000\000\000\000\000\000\001\000\000\000\000\000\000\000\002\000\000\000\000\000\000\000\000\000\000\000\000\000\000\000\002\000\000\000\000\000\000\000\000\000\000\000\000\000\000\000\000\000\000\000 \000\000\000\003\000\000\000\000\000\000\000\002\000\000\000\000\000\000\000\002\000\000\000\000\000\000\000\000\000\000\000\000\000\000\000\002\000\000\000\000\000\000\000\000\000\000\000\000\000\000\000\000\000\000\000 \000\000\000\003\000\000\000\000\000\000\000\001\000\000\000\000\000\000\000\002\000\000\000\000\000\000\000\000\000\000\000\000\000\000\000\002\000\000\000\000\000\000\000\000\000\000\000\000\000\000\000\000\000\000\000 \000\000\000\003\000\000\000\000\000\000\000\003\000\000\000\000\000\000"

	.section	__DATA,__const
	.p2align	3
l___unnamed_17:
	.quad	l___unnamed_8
	.space	8
	.quad	l___unnamed_8
	.space	8
	.quad	l___unnamed_8
	.space	8
	.quad	l___unnamed_16
	.asciz	"\001\000\000\000\000\000\000"
	.quad	l___unnamed_8
	.space	8
	.quad	l___unnamed_34
	.asciz	"\001\000\000\000\000\000\000"

	.p2align	3
l___unnamed_20:
	.quad	l___unnamed_8
	.space	8

	.section	__TEXT,__const
	.p2align	3
l___unnamed_21:
	.asciz	"\002\000\000\000\000\000\000"
	.space	8
	.ascii	"\001\000\000\000\000\000\000\000\001\000\000\000\000\000\000\000\000\000\000\000 \000\000\000\001"
	.space	7
	.space	8

l___unnamed_22:
	.ascii	"0x"

l___unnamed_23:
	.ascii	"0o"

l___unnamed_24:
	.ascii	"0b"

	.section	__DATA,__const
Lsec_end0:
	.section	__TEXT,__text,regular,pure_instructions
Lsec_end1: