	.section	__TEXT,__text,regular,pure_instructions
	.macosx_version_min 10, 7
	.p2align	4, 0x90
__ZN10num_bigint6bigint11subtraction78_$LT$impl$u20$core..ops..arith..Sub$u20$for$u20$num_bigint..bigint..BigInt$GT$3sub17hcdba725290b3a174E:
Lfunc_begin0:
	.file	1 "/Users/natalie/.cargo/registry/src/github.com-1ecc6299db9ec823/num-bigint-0.4.3/src/bigint" "subtraction.rs"
	.loc	1 70 0
	.cfi_startproc
	.cfi_personality 155, _rust_eh_personality
	.cfi_lsda 16, Lexception0
	pushq	%rbp
	.cfi_def_cfa_offset 16
	.cfi_offset %rbp, -16
	movq	%rsp, %rbp
	.cfi_def_cfa_register %rbp
	subq	$336, %rsp
	movq	%rdx, -320(%rbp)
Ltmp29:
	movq	%rsi, -312(%rbp)
Ltmp30:
	movq	%rdi, -304(%rbp)
	movq	%rdi, -296(%rbp)
Ltmp31:
	.loc	1 71 9 prologue_end
	movb	$0, -17(%rbp)
	movb	$0, -18(%rbp)
	movb	$1, -17(%rbp)
	movb	$1, -18(%rbp)
	movb	24(%rsi), %cl
	movb	24(%rdx), %al
	movb	%cl, -288(%rbp)
	movb	%al, -287(%rbp)
	movzbl	-287(%rbp), %eax
	cmpq	$1, %rax
Ltmp32:
	jne	LBB0_2
Ltmp33:
	.loc	1 0 9 is_stmt 0
	movq	-304(%rbp), %rax
	movq	-312(%rbp), %rcx
	.loc	1 71 27
	movb	$0, -17(%rbp)
	movq	(%rcx), %rdx
	movq	%rdx, (%rax)
	movq	8(%rcx), %rdx
	movq	%rdx, 8(%rax)
	movq	16(%rcx), %rdx
	movq	%rdx, 16(%rax)
	movq	24(%rcx), %rcx
	movq	%rcx, 24(%rax)
	jmp	LBB0_12
Ltmp34:
LBB0_2:
	.loc	1 71 9
	movzbl	-288(%rbp), %eax
	movq	%rax, -328(%rbp)
	testq	%rax, %rax
	je	LBB0_4
	jmp	LBB0_36
Ltmp35:
LBB0_36:
	.loc	1 0 9
	movq	-328(%rbp), %rax
	.loc	1 71 9
	subq	$1, %rax
	je	LBB0_5
	jmp	LBB0_37
Ltmp36:
LBB0_37:
	jmp	LBB0_6
Ltmp37:
	ud2
LBB0_4:
Ltmp38:
	movzbl	-287(%rbp), %eax
	cmpq	$0, %rax
	je	LBB0_8
	jmp	LBB0_7
Ltmp39:
LBB0_5:
	.loc	1 0 9
	movq	-304(%rbp), %rdi
	movq	-320(%rbp), %rcx
	.loc	1 71 51
	movb	$0, -18(%rbp)
	movq	24(%rcx), %rax
	movq	%rax, -256(%rbp)
	movq	16(%rcx), %rax
	movq	%rax, -264(%rbp)
	movq	(%rcx), %rax
	movq	8(%rcx), %rcx
	movq	%rcx, -272(%rbp)
	movq	%rax, -280(%rbp)
Ltmp0:
	leaq	-280(%rbp), %rsi
	.loc	1 71 9
	callq	__ZN68_$LT$num_bigint..bigint..BigInt$u20$as$u20$core..ops..arith..Neg$GT$3neg17h9f20a6c1af7cbc92E
Ltmp1:
	jmp	LBB0_11
Ltmp40:
LBB0_6:
	movzbl	-287(%rbp), %eax
	cmpq	$0, %rax
	jne	LBB0_8
Ltmp41:
LBB0_7:
	.loc	1 0 9
	movq	-320(%rbp), %rcx
	movq	-312(%rbp), %rdx
	.loc	1 71 9
	movb	24(%rdx), %al
	movb	%al, -329(%rbp)
	.loc	1 71 33
	movb	$0, -17(%rbp)
	movq	16(%rdx), %rax
	movq	%rax, -208(%rbp)
	movq	(%rdx), %rax
	movq	8(%rdx), %rdx
	movq	%rdx, -216(%rbp)
	movq	%rax, -224(%rbp)
	.loc	1 71 58
	movb	$0, -18(%rbp)
	movq	16(%rcx), %rax
	movq	%rax, -184(%rbp)
	movq	(%rcx), %rax
	movq	8(%rcx), %rcx
	movq	%rcx, -192(%rbp)
	movq	%rax, -200(%rbp)
Ltmp2:
	leaq	-248(%rbp), %rdi
	leaq	-224(%rbp), %rsi
	leaq	-200(%rbp), %rdx
	.loc	1 71 9
	callq	__ZN10num_bigint7biguint8addition80_$LT$impl$u20$core..ops..arith..Add$u20$for$u20$num_bigint..biguint..BigUint$GT$3add17hed149832d123bea3E
Ltmp3:
	jmp	LBB0_13
Ltmp42:
LBB0_8:
Ltmp6:
	.loc	1 0 9
	movq	-320(%rbp), %rsi
	movq	-312(%rbp), %rdi
	.loc	1 71 9
	callq	__ZN63_$LT$num_bigint..biguint..BigUint$u20$as$u20$core..cmp..Ord$GT$3cmp17h7dd22f02fb7177c2E
Ltmp7:
	movb	%al, -330(%rbp)
	jmp	LBB0_15
Ltmp43:
LBB0_9:
	.loc	1 72 5 is_stmt 1
	testb	$1, -18(%rbp)
	jne	LBB0_27
	jmp	LBB0_26
Ltmp44:
LBB0_10:
Ltmp20:
	.loc	1 0 5 is_stmt 0
	movq	%rax, %rcx
	movl	%edx, %eax
	movq	%rcx, -16(%rbp)
	movl	%eax, -8(%rbp)
	jmp	LBB0_9
Ltmp45:
LBB0_11:
	.loc	1 71 9 is_stmt 1
	jmp	LBB0_12
Ltmp46:
LBB0_12:
	.loc	1 72 5
	testb	$1, -18(%rbp)
	jne	LBB0_30
	jmp	LBB0_29
Ltmp47:
LBB0_13:
Ltmp4:
	.loc	1 0 5 is_stmt 0
	movq	-304(%rbp), %rdi
	movb	-329(%rbp), %al
	.loc	1 71 9 is_stmt 1
	movzbl	%al, %esi
	leaq	-248(%rbp), %rdx
	callq	__ZN10num_bigint6bigint6BigInt12from_biguint17h555ca89e98373368E
Ltmp5:
	jmp	LBB0_14
Ltmp48:
LBB0_14:
	jmp	LBB0_12
Ltmp49:
LBB0_15:
	.loc	1 0 9 is_stmt 0
	movb	-330(%rbp), %al
	.loc	1 71 9
	movb	%al, -169(%rbp)
	movb	-169(%rbp), %al
	movb	%al, -331(%rbp)
	subb	$-1, %al
	je	LBB0_17
	jmp	LBB0_38
Ltmp50:
LBB0_38:
	.loc	1 0 9
	movb	-331(%rbp), %al
	.loc	1 71 9
	testb	%al, %al
	je	LBB0_18
	jmp	LBB0_39
Ltmp51:
LBB0_39:
	jmp	LBB0_19
Ltmp52:
	ud2
LBB0_17:
Ltmp53:
	.loc	1 0 9
	movq	-312(%rbp), %rax
	.loc	1 71 9
	movl	24(%rax), %edi
Ltmp14:
	callq	__ZN66_$LT$num_bigint..bigint..Sign$u20$as$u20$core..ops..arith..Neg$GT$3neg17h0ec92c193dba40e4E
Ltmp15:
	movb	%al, -332(%rbp)
	jmp	LBB0_23
Ltmp54:
LBB0_18:
Ltmp12:
	.loc	1 0 9
	movq	-304(%rbp), %rdi
	.loc	1 71 9
	callq	__ZN75_$LT$num_bigint..bigint..BigInt$u20$as$u20$num_traits..identities..Zero$GT$4zero17h9404c6850219749fE
Ltmp13:
	jmp	LBB0_22
Ltmp55:
LBB0_19:
	.loc	1 0 9
	movq	-320(%rbp), %rcx
	movq	-312(%rbp), %rdx
	.loc	1 71 9
	movb	24(%rdx), %al
	movb	%al, -333(%rbp)
	.loc	1 71 33
	movb	$0, -17(%rbp)
	movq	16(%rdx), %rax
	movq	%rax, -56(%rbp)
	movq	(%rdx), %rax
	movq	8(%rdx), %rdx
	movq	%rdx, -64(%rbp)
	movq	%rax, -72(%rbp)
	.loc	1 71 58
	movb	$0, -18(%rbp)
	movq	16(%rcx), %rax
	movq	%rax, -32(%rbp)
	movq	(%rcx), %rax
	movq	8(%rcx), %rcx
	movq	%rcx, -40(%rbp)
	movq	%rax, -48(%rbp)
Ltmp8:
	leaq	-96(%rbp), %rdi
	leaq	-72(%rbp), %rsi
	leaq	-48(%rbp), %rdx
	.loc	1 71 9
	callq	__ZN10num_bigint7biguint11subtraction80_$LT$impl$u20$core..ops..arith..Sub$u20$for$u20$num_bigint..biguint..BigUint$GT$3sub17h7a91bbf123e1147eE
Ltmp9:
	jmp	LBB0_20
Ltmp56:
LBB0_20:
Ltmp10:
	.loc	1 0 9
	movq	-304(%rbp), %rdi
	movb	-333(%rbp), %al
	.loc	1 71 9
	movzbl	%al, %esi
	leaq	-96(%rbp), %rdx
	callq	__ZN10num_bigint6bigint6BigInt12from_biguint17h555ca89e98373368E
Ltmp11:
	jmp	LBB0_21
Ltmp57:
LBB0_21:
	jmp	LBB0_12
Ltmp58:
LBB0_22:
	jmp	LBB0_12
Ltmp59:
LBB0_23:
	.loc	1 0 9
	movq	-312(%rbp), %rcx
	movq	-320(%rbp), %rdx
	.loc	1 71 58
	movb	$0, -18(%rbp)
	movq	16(%rdx), %rax
	movq	%rax, -128(%rbp)
	movq	(%rdx), %rax
	movq	8(%rdx), %rdx
	movq	%rdx, -136(%rbp)
	movq	%rax, -144(%rbp)
	.loc	1 71 33
	movb	$0, -17(%rbp)
	movq	16(%rcx), %rax
	movq	%rax, -104(%rbp)
	movq	(%rcx), %rax
	movq	8(%rcx), %rcx
	movq	%rcx, -112(%rbp)
	movq	%rax, -120(%rbp)
Ltmp16:
	leaq	-168(%rbp), %rdi
	leaq	-144(%rbp), %rsi
	leaq	-120(%rbp), %rdx
	.loc	1 71 9
	callq	__ZN10num_bigint7biguint11subtraction80_$LT$impl$u20$core..ops..arith..Sub$u20$for$u20$num_bigint..biguint..BigUint$GT$3sub17h7a91bbf123e1147eE
Ltmp17:
	jmp	LBB0_24
Ltmp60:
LBB0_24:
Ltmp18:
	.loc	1 0 9
	movq	-304(%rbp), %rdi
	movb	-332(%rbp), %al
	.loc	1 71 9
	movzbl	%al, %esi
	leaq	-168(%rbp), %rdx
	callq	__ZN10num_bigint6bigint6BigInt12from_biguint17h555ca89e98373368E
Ltmp19:
	jmp	LBB0_25
Ltmp61:
LBB0_25:
	jmp	LBB0_12
Ltmp62:
LBB0_26:
	.loc	1 72 5 is_stmt 1
	testb	$1, -17(%rbp)
	jne	LBB0_33
	jmp	LBB0_32
Ltmp63:
LBB0_27:
Ltmp21:
	.loc	1 0 5 is_stmt 0
	movq	-320(%rbp), %rdi
	.loc	1 72 5
	callq	__ZN4core3ptr49drop_in_place$LT$num_bigint..biguint..BigUint$GT$17h1b2311c59b55148bE
Ltmp22:
	jmp	LBB0_26
Ltmp64:
LBB0_28:
Ltmp28:
	.loc	1 70 5 is_stmt 1
	callq	__ZN4core9panicking19panic_cannot_unwind17h1fbca7e1d7f56ae1E
Ltmp65:
LBB0_29:
	.loc	1 72 5
	testb	$1, -17(%rbp)
	jne	LBB0_35
	jmp	LBB0_34
Ltmp66:
LBB0_30:
Ltmp23:
	.loc	1 0 5 is_stmt 0
	movq	-320(%rbp), %rdi
	.loc	1 72 5
	callq	__ZN4core3ptr49drop_in_place$LT$num_bigint..biguint..BigUint$GT$17h1b2311c59b55148bE
Ltmp24:
	jmp	LBB0_29
Ltmp67:
LBB0_31:
Ltmp25:
	.loc	1 0 5
	movq	%rax, %rcx
	movl	%edx, %eax
	movq	%rcx, -16(%rbp)
	movl	%eax, -8(%rbp)
	jmp	LBB0_26
Ltmp68:
LBB0_32:
	.loc	1 70 5 is_stmt 1
	movq	-16(%rbp), %rdi
	callq	__Unwind_Resume
Ltmp69:
LBB0_33:
Ltmp26:
	.loc	1 0 5 is_stmt 0
	movq	-312(%rbp), %rdi
	.loc	1 72 5 is_stmt 1
	callq	__ZN4core3ptr49drop_in_place$LT$num_bigint..biguint..BigUint$GT$17h1b2311c59b55148bE
Ltmp27:
	jmp	LBB0_32
Ltmp70:
LBB0_34:
	.loc	1 0 5 is_stmt 0
	movq	-296(%rbp), %rax
	.loc	1 72 6
	addq	$336, %rsp
	popq	%rbp
	retq
Ltmp71:
LBB0_35:
	.loc	1 0 6
	movq	-312(%rbp), %rdi
	.loc	1 72 5
	callq	__ZN4core3ptr49drop_in_place$LT$num_bigint..biguint..BigUint$GT$17h1b2311c59b55148bE
	jmp	LBB0_34
Ltmp72:
Lfunc_end0:
	.cfi_endproc
	.section	__TEXT,__gcc_except_tab
	.p2align	2
GCC_except_table0:
Lexception0:
	.byte	255
	.byte	255
	.byte	1
	.uleb128 Lcst_end0-Lcst_begin0
Lcst_begin0:
	.uleb128 Ltmp0-Lfunc_begin0
	.uleb128 Ltmp19-Ltmp0
	.uleb128 Ltmp20-Lfunc_begin0
	.byte	0
	.uleb128 Ltmp21-Lfunc_begin0
	.uleb128 Ltmp22-Ltmp21
	.uleb128 Ltmp28-Lfunc_begin0
	.byte	0
	.uleb128 Ltmp23-Lfunc_begin0
	.uleb128 Ltmp24-Ltmp23
	.uleb128 Ltmp25-Lfunc_begin0
	.byte	0
	.uleb128 Ltmp24-Lfunc_begin0
	.uleb128 Ltmp26-Ltmp24
	.byte	0
	.byte	0
	.uleb128 Ltmp26-Lfunc_begin0
	.uleb128 Ltmp27-Ltmp26
	.uleb128 Ltmp28-Lfunc_begin0
	.byte	0
	.uleb128 Ltmp27-Lfunc_begin0
	.uleb128 Lfunc_end0-Ltmp27
	.byte	0
	.byte	0
Lcst_end0:
	.p2align	2

	.section	__TEXT,__text,regular,pure_instructions
	.p2align	4, 0x90
__ZN10num_bigint6bigint5shift89_$LT$impl$u20$core..ops..bit..Shl$LT$usize$GT$$u20$for$u20$num_bigint..bigint..BigInt$GT$3shl17h2661e0afa6bee4aeE:
Lfunc_begin1:
	.file	2 "/Users/natalie/.cargo/registry/src/github.com-1ecc6299db9ec823/num-bigint-0.4.3/src/bigint" "shift.rs"
	.loc	2 37 0 is_stmt 1
	.cfi_startproc
	pushq	%rbp
	.cfi_def_cfa_offset 16
	.cfi_offset %rbp, -16
	movq	%rsp, %rbp
	.cfi_def_cfa_register %rbp
	subq	$80, %rsp
	movq	%rdi, -80(%rbp)
	movq	%rdi, -64(%rbp)
Ltmp73:
	movq	%rdx, -8(%rbp)
Ltmp74:
	.loc	2 38 38 prologue_end
	movb	24(%rsi), %al
	movb	%al, -65(%rbp)
	.loc	2 38 49 is_stmt 0
	movq	(%rsi), %rax
	movq	%rax, -32(%rbp)
	movq	8(%rsi), %rax
	movq	%rax, -24(%rbp)
	movq	16(%rsi), %rax
	movq	%rax, -16(%rbp)
	leaq	-56(%rbp), %rdi
	leaq	-32(%rbp), %rsi
Ltmp75:
	callq	__ZN10num_bigint7biguint5shift91_$LT$impl$u20$core..ops..bit..Shl$LT$usize$GT$$u20$for$u20$num_bigint..biguint..BigUint$GT$3shl17h7eeb979fe4b2c996E
	movq	-80(%rbp), %rdi
	movb	-65(%rbp), %al
	.loc	2 38 17
	leaq	-56(%rbp), %rdx
	movzbl	%al, %esi
	callq	__ZN10num_bigint6bigint6BigInt12from_biguint17h555ca89e98373368E
	movq	-64(%rbp), %rax
	.loc	2 39 14 is_stmt 1
	addq	$80, %rsp
	popq	%rbp
	retq
Ltmp76:
Lfunc_end1:
	.cfi_endproc

	.p2align	4, 0x90
__ZN10num_bigint6bigint6BigInt12from_biguint17h555ca89e98373368E:
Lfunc_begin2:
	.file	3 "/Users/natalie/.cargo/registry/src/github.com-1ecc6299db9ec823/num-bigint-0.4.3/src" "bigint.rs"
	.loc	3 582 0
	.cfi_startproc
	.cfi_personality 155, _rust_eh_personality
	.cfi_lsda 16, Lexception1
	pushq	%rbp
	.cfi_def_cfa_offset 16
	.cfi_offset %rbp, -16
	movq	%rsp, %rbp
	.cfi_def_cfa_register %rbp
	subq	$80, %rsp
	movq	%rdx, -72(%rbp)
Ltmp87:
	movq	%rdi, -64(%rbp)
	movb	%sil, %al
	movq	%rdi, -56(%rbp)
	movb	%al, -42(%rbp)
Ltmp77:
Ltmp88:
	.loc	3 583 12 prologue_end
	leaq	l___unnamed_2(%rip), %rsi
	leaq	-42(%rbp), %rdi
	callq	__ZN65_$LT$num_bigint..bigint..Sign$u20$as$u20$core..cmp..PartialEq$GT$2eq17h08ce7a431f9312d6E
Ltmp89:
Ltmp78:
	.loc	3 0 12 is_stmt 0
	movb	%al, -43(%rbp)
Ltmp90:
	.loc	3 583 12
	jmp	LBB2_3
Ltmp91:
LBB2_1:
Ltmp84:
	.loc	3 0 12
	movq	-72(%rbp), %rdi
	.loc	3 590 5 is_stmt 1
	callq	__ZN4core3ptr49drop_in_place$LT$num_bigint..biguint..BigUint$GT$17h1b2311c59b55148bE
Ltmp85:
	jmp	LBB2_10
Ltmp92:
LBB2_2:
Ltmp83:
	.loc	3 0 5 is_stmt 0
	movq	%rax, %rcx
	movl	%edx, %eax
	movq	%rcx, -16(%rbp)
	movl	%eax, -8(%rbp)
	jmp	LBB2_1
Ltmp93:
LBB2_3:
	movb	-43(%rbp), %al
	.loc	3 583 12 is_stmt 1
	testb	$1, %al
	jne	LBB2_5
	jmp	LBB2_4
Ltmp94:
LBB2_4:
Ltmp79:
	.loc	3 0 12 is_stmt 0
	movq	-72(%rbp), %rdi
	.loc	3 585 19 is_stmt 1
	callq	__ZN77_$LT$num_bigint..biguint..BigUint$u20$as$u20$num_traits..identities..Zero$GT$7is_zero17h397bd2fb95a8238bE
Ltmp80:
	movb	%al, -73(%rbp)
	jmp	LBB2_8
Ltmp95:
LBB2_5:
Ltmp81:
	.loc	3 0 19 is_stmt 0
	movq	-72(%rbp), %rdi
	.loc	3 584 13 is_stmt 1
	leaq	l___unnamed_3(%rip), %rsi
	xorl	%eax, %eax
	movl	%eax, %edx
	callq	__ZN10num_bigint7biguint7BigUint17assign_from_slice17hb49050cc5eb347c6E
Ltmp82:
	jmp	LBB2_6
Ltmp96:
LBB2_6:
	jmp	LBB2_7
Ltmp97:
LBB2_7:
	.loc	3 0 13 is_stmt 0
	movq	-56(%rbp), %rax
	movq	-64(%rbp), %rcx
	movq	-72(%rbp), %rsi
	.loc	3 589 18 is_stmt 1
	movb	-42(%rbp), %dl
	.loc	3 589 24 is_stmt 0
	movq	(%rsi), %rdi
	movq	%rdi, -40(%rbp)
	movq	8(%rsi), %rdi
	movq	%rdi, -32(%rbp)
	movq	16(%rsi), %rsi
	movq	%rsi, -24(%rbp)
	.loc	3 589 9
	movb	%dl, 24(%rcx)
	movq	-40(%rbp), %rdx
	movq	%rdx, (%rcx)
	movq	-32(%rbp), %rdx
	movq	%rdx, 8(%rcx)
	movq	-24(%rbp), %rdx
	movq	%rdx, 16(%rcx)
	.loc	3 590 6 is_stmt 1
	addq	$80, %rsp
	popq	%rbp
	retq
Ltmp98:
LBB2_8:
	.loc	3 0 6 is_stmt 0
	movb	-73(%rbp), %al
	.loc	3 585 19 is_stmt 1
	testb	$1, %al
	jne	LBB2_11
	jmp	LBB2_7
Ltmp99:
LBB2_9:
Ltmp86:
	.loc	3 582 5
	callq	__ZN4core9panicking19panic_cannot_unwind17h1fbca7e1d7f56ae1E
Ltmp100:
LBB2_10:
	movq	-16(%rbp), %rdi
	callq	__Unwind_Resume
Ltmp101:
LBB2_11:
	.loc	3 586 20
	movb	$1, -41(%rbp)
	.loc	3 586 13 is_stmt 0
	movb	-41(%rbp), %al
	movb	%al, -42(%rbp)
	.loc	3 585 16 is_stmt 1
	jmp	LBB2_7
Ltmp102:
Lfunc_end2:
	.cfi_endproc
	.section	__TEXT,__gcc_except_tab
	.p2align	2
GCC_except_table2:
Lexception1:
	.byte	255
	.byte	255
	.byte	1
	.uleb128 Lcst_end1-Lcst_begin1
Lcst_begin1:
	.uleb128 Ltmp77-Lfunc_begin2
	.uleb128 Ltmp78-Ltmp77
	.uleb128 Ltmp83-Lfunc_begin2
	.byte	0
	.uleb128 Ltmp84-Lfunc_begin2
	.uleb128 Ltmp85-Ltmp84
	.uleb128 Ltmp86-Lfunc_begin2
	.byte	0
	.uleb128 Ltmp79-Lfunc_begin2
	.uleb128 Ltmp82-Ltmp79
	.uleb128 Ltmp83-Lfunc_begin2
	.byte	0
	.uleb128 Ltmp82-Lfunc_begin2
	.uleb128 Lfunc_end2-Ltmp82
	.byte	0
	.byte	0
Lcst_end1:
	.p2align	2

	.section	__TEXT,__text,regular,pure_instructions
	.p2align	4, 0x90
__ZN10num_bigint6bigint6BigInt4bits17h1e50182f730805bbE:
Lfunc_begin3:
	.loc	3 974 0
	.cfi_startproc
	pushq	%rbp
	.cfi_def_cfa_offset 16
	.cfi_offset %rbp, -16
	movq	%rsp, %rbp
	.cfi_def_cfa_register %rbp
	subq	$16, %rsp
	movq	%rdi, -8(%rbp)
Ltmp103:
	.loc	3 975 9 prologue_end
	callq	__ZN10num_bigint7biguint7BigUint4bits17ha0911617cea31ff1E
	.loc	3 976 6
	addq	$16, %rsp
	popq	%rbp
	retq
Ltmp104:
Lfunc_end3:
	.cfi_endproc

	.p2align	4, 0x90
__ZN10num_bigint6bigint7convert112_$LT$impl$u20$core..convert..From$LT$num_bigint..biguint..BigUint$GT$$u20$for$u20$num_bigint..bigint..BigInt$GT$4from17h6116e56be43c1938E:
Lfunc_begin4:
	.file	4 "/Users/natalie/.cargo/registry/src/github.com-1ecc6299db9ec823/num-bigint-0.4.3/src/bigint" "convert.rs"
	.loc	4 272 0
	.cfi_startproc
	.cfi_personality 155, _rust_eh_personality
	.cfi_lsda 16, Lexception2
	pushq	%rbp
	.cfi_def_cfa_offset 16
	.cfi_offset %rbp, -16
	movq	%rsp, %rbp
	.cfi_def_cfa_register %rbp
	subq	$80, %rsp
	movq	%rsi, -80(%rbp)
Ltmp113:
	movq	%rdi, %rax
	movq	-80(%rbp), %rdi
	movq	%rax, -72(%rbp)
	movq	%rax, -64(%rbp)
Ltmp114:
	.loc	4 273 12 prologue_end
	movb	$0, -17(%rbp)
	movb	$1, -17(%rbp)
Ltmp105:
	callq	__ZN77_$LT$num_bigint..biguint..BigUint$u20$as$u20$num_traits..identities..Zero$GT$7is_zero17h397bd2fb95a8238bE
Ltmp106:
	movb	%al, -49(%rbp)
	jmp	LBB4_3
Ltmp115:
LBB4_1:
Ltmp110:
	.loc	4 0 12 is_stmt 0
	movq	-80(%rbp), %rdi
	.loc	4 281 5 is_stmt 1
	callq	__ZN4core3ptr49drop_in_place$LT$num_bigint..biguint..BigUint$GT$17h1b2311c59b55148bE
Ltmp111:
	jmp	LBB4_8
Ltmp116:
LBB4_2:
Ltmp109:
	.loc	4 0 5 is_stmt 0
	movq	%rax, %rcx
	movl	%edx, %eax
	movq	%rcx, -16(%rbp)
	movl	%eax, -8(%rbp)
	jmp	LBB4_1
Ltmp117:
LBB4_3:
	movb	-49(%rbp), %al
	.loc	4 273 12 is_stmt 1
	testb	$1, %al
	jne	LBB4_5
	jmp	LBB4_4
Ltmp118:
LBB4_4:
	.loc	4 0 12 is_stmt 0
	movq	-72(%rbp), %rax
	movq	-80(%rbp), %rcx
	.loc	4 278 23 is_stmt 1
	movb	$0, -17(%rbp)
	movq	(%rcx), %rdx
	movq	%rdx, -48(%rbp)
	movq	8(%rcx), %rdx
	movq	%rdx, -40(%rbp)
	movq	16(%rcx), %rcx
	movq	%rcx, -32(%rbp)
	.loc	4 276 13
	movb	$2, 24(%rax)
	movq	-48(%rbp), %rcx
	movq	%rcx, (%rax)
	movq	-40(%rbp), %rcx
	movq	%rcx, 8(%rax)
	movq	-32(%rbp), %rcx
	movq	%rcx, 16(%rax)
	.loc	4 273 9
	jmp	LBB4_9
Ltmp119:
LBB4_5:
Ltmp107:
	.loc	4 0 9 is_stmt 0
	movq	-72(%rbp), %rdi
	.loc	4 274 13 is_stmt 1
	callq	__ZN75_$LT$num_bigint..bigint..BigInt$u20$as$u20$num_traits..identities..Zero$GT$4zero17h9404c6850219749fE
Ltmp108:
	jmp	LBB4_6
Ltmp120:
LBB4_6:
	jmp	LBB4_9
Ltmp121:
LBB4_7:
Ltmp112:
	.loc	4 272 5
	callq	__ZN4core9panicking19panic_cannot_unwind17h1fbca7e1d7f56ae1E
Ltmp122:
LBB4_8:
	movq	-16(%rbp), %rdi
	callq	__Unwind_Resume
Ltmp123:
LBB4_9:
	.loc	4 281 5
	testb	$1, -17(%rbp)
	jne	LBB4_11
Ltmp124:
LBB4_10:
	.loc	4 0 5 is_stmt 0
	movq	-64(%rbp), %rax
	.loc	4 281 6
	addq	$80, %rsp
	popq	%rbp
	retq
Ltmp125:
LBB4_11:
	.loc	4 0 6
	movq	-80(%rbp), %rdi
	.loc	4 281 5
	callq	__ZN4core3ptr49drop_in_place$LT$num_bigint..biguint..BigUint$GT$17h1b2311c59b55148bE
	jmp	LBB4_10
Ltmp126:
Lfunc_end4:
	.cfi_endproc
	.section	__TEXT,__gcc_except_tab
	.p2align	2
GCC_except_table4:
Lexception2:
	.byte	255
	.byte	255
	.byte	1
	.uleb128 Lcst_end2-Lcst_begin2
Lcst_begin2:
	.uleb128 Ltmp105-Lfunc_begin4
	.uleb128 Ltmp106-Ltmp105
	.uleb128 Ltmp109-Lfunc_begin4
	.byte	0
	.uleb128 Ltmp110-Lfunc_begin4
	.uleb128 Ltmp111-Ltmp110
	.uleb128 Ltmp112-Lfunc_begin4
	.byte	0
	.uleb128 Ltmp107-Lfunc_begin4
	.uleb128 Ltmp108-Ltmp107
	.uleb128 Ltmp109-Lfunc_begin4
	.byte	0
	.uleb128 Ltmp108-Lfunc_begin4
	.uleb128 Lfunc_end4-Ltmp108
	.byte	0
	.byte	0
Lcst_end2:
	.p2align	2

	.section	__TEXT,__text,regular,pure_instructions
	.p2align	4, 0x90
__ZN10num_bigint6bigint7convert87_$LT$impl$u20$core..convert..From$LT$i64$GT$$u20$for$u20$num_bigint..bigint..BigInt$GT$4from17h60bc1f8502dafceeE:
Lfunc_begin5:
	.loc	4 182 0 is_stmt 1
	.cfi_startproc
	pushq	%rbp
	.cfi_def_cfa_offset 16
	.cfi_offset %rbp, -16
	movq	%rsp, %rbp
	.cfi_def_cfa_register %rbp
	subq	$96, %rsp
	movq	%rsi, -72(%rbp)
	movq	%rdi, -64(%rbp)
	movq	%rdi, -56(%rbp)
	movq	%rsi, -16(%rbp)
Ltmp127:
	.loc	4 183 12 prologue_end
	cmpq	$0, %rsi
	jge	LBB5_2
	.loc	4 0 12 is_stmt 0
	movq	-72(%rbp), %rcx
	.loc	4 186 21 is_stmt 1
	movq	$-1, %rax
	subq	%rcx, %rax
	movq	%rax, -80(%rbp)
	movq	$-1, %rax
	cmpq	%rcx, %rax
	setb	%al
	testb	$1, %al
	jne	LBB5_5
	jmp	LBB5_4
LBB5_2:
	.loc	4 0 21 is_stmt 0
	movq	-72(%rbp), %rsi
	movq	-64(%rbp), %rdi
	.loc	4 184 13 is_stmt 1
	callq	__ZN10num_bigint6bigint7convert87_$LT$impl$u20$core..convert..From$LT$u64$GT$$u20$for$u20$num_bigint..bigint..BigInt$GT$4from17h70ab65050742cafcE
LBB5_3:
	.loc	4 0 13 is_stmt 0
	movq	-56(%rbp), %rax
	.loc	4 192 6 is_stmt 1
	addq	$96, %rsp
	popq	%rbp
	retq
LBB5_4:
	.loc	4 0 6 is_stmt 0
	movq	-80(%rbp), %rax
	.loc	4 186 21 is_stmt 1
	addq	$1, %rax
	movq	%rax, -88(%rbp)
	setb	%al
	testb	$1, %al
	jne	LBB5_7
	jmp	LBB5_6
LBB5_5:
	leaq	_str.0(%rip), %rdi
	leaq	l___unnamed_4(%rip), %rdx
	movl	$33, %esi
	callq	__ZN4core9panicking5panic17hc1bc45270cf64b03E
LBB5_6:
	.loc	4 0 21 is_stmt 0
	movq	-88(%rbp), %rsi
	.loc	4 186 21
	movq	%rsi, -8(%rbp)
Ltmp128:
	.loc	4 188 23 is_stmt 1
	movb	$0, -41(%rbp)
	.loc	4 189 23
	leaq	-40(%rbp), %rdi
	callq	__ZN10num_bigint7biguint7convert89_$LT$impl$u20$core..convert..From$LT$u64$GT$$u20$for$u20$num_bigint..biguint..BigUint$GT$4from17h4e10a623eba1c971E
	movq	-64(%rbp), %rax
	.loc	4 187 13
	movb	-41(%rbp), %cl
	movb	%cl, 24(%rax)
	movq	-40(%rbp), %rcx
	movq	%rcx, (%rax)
	movq	-32(%rbp), %rcx
	movq	%rcx, 8(%rax)
	movq	-24(%rbp), %rcx
	movq	%rcx, 16(%rax)
Ltmp129:
	.loc	4 183 9
	jmp	LBB5_3
LBB5_7:
	.loc	4 186 21
	leaq	_str.1(%rip), %rdi
	leaq	l___unnamed_4(%rip), %rdx
	movl	$28, %esi
	callq	__ZN4core9panicking5panic17hc1bc45270cf64b03E
Ltmp130:
Lfunc_end5:
	.cfi_endproc

	.p2align	4, 0x90
__ZN10num_bigint6bigint7convert87_$LT$impl$u20$core..convert..From$LT$u64$GT$$u20$for$u20$num_bigint..bigint..BigInt$GT$4from17h70ab65050742cafcE:
Lfunc_begin6:
	.loc	4 228 0
	.cfi_startproc
	pushq	%rbp
	.cfi_def_cfa_offset 16
	.cfi_offset %rbp, -16
	movq	%rsp, %rbp
	.cfi_def_cfa_register %rbp
	subq	$64, %rsp
	movq	%rsi, -64(%rbp)
	movq	%rdi, -56(%rbp)
	movq	%rdi, -48(%rbp)
	movq	%rsi, -8(%rbp)
Ltmp131:
	.loc	4 229 12 prologue_end
	cmpq	$0, %rsi
	ja	LBB6_2
	.loc	4 0 12 is_stmt 0
	movq	-56(%rbp), %rdi
	.loc	4 235 13 is_stmt 1
	callq	__ZN75_$LT$num_bigint..bigint..BigInt$u20$as$u20$num_traits..identities..Zero$GT$4zero17h9404c6850219749fE
	jmp	LBB6_3
LBB6_2:
	.loc	4 0 13 is_stmt 0
	movq	-64(%rbp), %rsi
	.loc	4 231 23 is_stmt 1
	movb	$2, -33(%rbp)
	.loc	4 232 23
	leaq	-32(%rbp), %rdi
	callq	__ZN10num_bigint7biguint7convert89_$LT$impl$u20$core..convert..From$LT$u64$GT$$u20$for$u20$num_bigint..biguint..BigUint$GT$4from17h4e10a623eba1c971E
	movq	-56(%rbp), %rax
	.loc	4 230 13
	movb	-33(%rbp), %cl
	movb	%cl, 24(%rax)
	movq	-32(%rbp), %rcx
	movq	%rcx, (%rax)
	movq	-24(%rbp), %rcx
	movq	%rcx, 8(%rax)
	movq	-16(%rbp), %rcx
	movq	%rcx, 16(%rax)
LBB6_3:
	.loc	4 0 13 is_stmt 0
	movq	-48(%rbp), %rax
	.loc	4 237 6 is_stmt 1
	addq	$64, %rsp
	popq	%rbp
	retq
Ltmp132:
Lfunc_end6:
	.cfi_endproc

	.p2align	4, 0x90
__ZN10num_bigint6bigint7convert88_$LT$impl$u20$core..convert..From$LT$i128$GT$$u20$for$u20$num_bigint..bigint..BigInt$GT$4from17h7f1acf2120d1dce7E:
Lfunc_begin7:
	.loc	4 197 0
	.cfi_startproc
	pushq	%rbp
	.cfi_def_cfa_offset 16
	.cfi_offset %rbp, -16
	movq	%rsp, %rbp
	.cfi_def_cfa_register %rbp
	subq	$128, %rsp
	movq	%rdi, -96(%rbp)
	movq	%rdx, -88(%rbp)
	movq	%rsi, -80(%rbp)
	movq	%rdi, -72(%rbp)
	movq	%rsi, -32(%rbp)
	movq	%rdx, -24(%rbp)
Ltmp133:
	.loc	4 198 12 prologue_end
	testq	%rdx, %rdx
	jns	LBB7_2
	jmp	LBB7_1
LBB7_1:
	.loc	4 0 12 is_stmt 0
	movq	-88(%rbp), %rax
	movq	-80(%rbp), %rcx
	.loc	4 201 21 is_stmt 1
	notq	%rcx
	movq	%rcx, -112(%rbp)
	notq	%rax
	movq	%rax, -104(%rbp)
	xorl	%eax, %eax
	testb	$1, %al
	jne	LBB7_5
	jmp	LBB7_4
LBB7_2:
	.loc	4 0 21 is_stmt 0
	movq	-88(%rbp), %rdx
	movq	-80(%rbp), %rsi
	movq	-96(%rbp), %rdi
	.loc	4 199 13 is_stmt 1
	callq	__ZN10num_bigint6bigint7convert88_$LT$impl$u20$core..convert..From$LT$u128$GT$$u20$for$u20$num_bigint..bigint..BigInt$GT$4from17he33f6471f3686cc4E
LBB7_3:
	.loc	4 0 13 is_stmt 0
	movq	-72(%rbp), %rax
	.loc	4 207 6 is_stmt 1
	addq	$128, %rsp
	popq	%rbp
	retq
LBB7_4:
	.loc	4 0 6 is_stmt 0
	movq	-104(%rbp), %rcx
	movq	-112(%rbp), %rdx
	.loc	4 201 21 is_stmt 1
	addq	$1, %rdx
	movq	%rdx, -128(%rbp)
	adcq	$0, %rcx
	setb	%al
	movq	%rcx, -120(%rbp)
	testb	$1, %al
	jne	LBB7_7
	jmp	LBB7_6
LBB7_5:
	leaq	_str.0(%rip), %rdi
	leaq	l___unnamed_5(%rip), %rdx
	movl	$33, %esi
	callq	__ZN4core9panicking5panic17hc1bc45270cf64b03E
LBB7_6:
	.loc	4 0 21 is_stmt 0
	movq	-120(%rbp), %rdx
	movq	-128(%rbp), %rsi
	.loc	4 201 21
	movq	%rsi, -16(%rbp)
	movq	%rdx, -8(%rbp)
Ltmp134:
	.loc	4 203 23 is_stmt 1
	movb	$0, -57(%rbp)
	leaq	-56(%rbp), %rdi
	.loc	4 204 23
	callq	__ZN10num_bigint7biguint7convert90_$LT$impl$u20$core..convert..From$LT$u128$GT$$u20$for$u20$num_bigint..biguint..BigUint$GT$4from17h320a5e9447e2e9c8E
	movq	-96(%rbp), %rax
	.loc	4 202 13
	movb	-57(%rbp), %cl
	movb	%cl, 24(%rax)
	movq	-56(%rbp), %rcx
	movq	%rcx, (%rax)
	movq	-48(%rbp), %rcx
	movq	%rcx, 8(%rax)
	movq	-40(%rbp), %rcx
	movq	%rcx, 16(%rax)
Ltmp135:
	.loc	4 198 9
	jmp	LBB7_3
LBB7_7:
	.loc	4 201 21
	leaq	_str.1(%rip), %rdi
	leaq	l___unnamed_5(%rip), %rdx
	movl	$28, %esi
	callq	__ZN4core9panicking5panic17hc1bc45270cf64b03E
Ltmp136:
Lfunc_end7:
	.cfi_endproc

	.p2align	4, 0x90
__ZN10num_bigint6bigint7convert88_$LT$impl$u20$core..convert..From$LT$u128$GT$$u20$for$u20$num_bigint..bigint..BigInt$GT$4from17he33f6471f3686cc4E:
Lfunc_begin8:
	.loc	4 242 0
	.cfi_startproc
	pushq	%rbp
	.cfi_def_cfa_offset 16
	.cfi_offset %rbp, -16
	movq	%rsp, %rbp
	.cfi_def_cfa_register %rbp
	subq	$80, %rsp
	movq	%rdi, -80(%rbp)
	movq	%rdx, -72(%rbp)
	movq	%rsi, -64(%rbp)
	movq	%rdi, -56(%rbp)
	movq	%rsi, -16(%rbp)
	movq	%rdx, -8(%rbp)
Ltmp137:
	.loc	4 243 12 prologue_end
	orq	%rdx, %rsi
	jne	LBB8_2
	jmp	LBB8_1
LBB8_1:
	.loc	4 0 12 is_stmt 0
	movq	-80(%rbp), %rdi
	.loc	4 249 13 is_stmt 1
	callq	__ZN75_$LT$num_bigint..bigint..BigInt$u20$as$u20$num_traits..identities..Zero$GT$4zero17h9404c6850219749fE
	jmp	LBB8_3
LBB8_2:
	.loc	4 0 13 is_stmt 0
	movq	-72(%rbp), %rdx
	movq	-64(%rbp), %rsi
	.loc	4 245 23 is_stmt 1
	movb	$2, -41(%rbp)
	leaq	-40(%rbp), %rdi
	.loc	4 246 23
	callq	__ZN10num_bigint7biguint7convert90_$LT$impl$u20$core..convert..From$LT$u128$GT$$u20$for$u20$num_bigint..biguint..BigUint$GT$4from17h320a5e9447e2e9c8E
	movq	-80(%rbp), %rax
	.loc	4 244 13
	movb	-41(%rbp), %cl
	movb	%cl, 24(%rax)
	movq	-40(%rbp), %rcx
	movq	%rcx, (%rax)
	movq	-32(%rbp), %rcx
	movq	%rcx, 8(%rax)
	movq	-24(%rbp), %rcx
	movq	%rcx, 16(%rax)
LBB8_3:
	.loc	4 0 13 is_stmt 0
	movq	-56(%rbp), %rax
	.loc	4 251 6 is_stmt 1
	addq	$80, %rsp
	popq	%rbp
	retq
Ltmp138:
Lfunc_end8:
	.cfi_endproc

	.p2align	4, 0x90
__ZN10num_bigint6bigint8division116_$LT$impl$u20$core..ops..arith..Div$LT$$RF$num_bigint..bigint..BigInt$GT$$u20$for$u20$num_bigint..bigint..BigInt$GT$3div17hafddde31d17d737cE:
Lfunc_begin9:
	.file	5 "/Users/natalie/.cargo/registry/src/github.com-1ecc6299db9ec823/num-bigint-0.4.3/src" "macros.rs"
	.loc	5 69 0
	.cfi_startproc
	.cfi_personality 155, _rust_eh_personality
	.cfi_lsda 16, Lexception3
	pushq	%rbp
	.cfi_def_cfa_offset 16
	.cfi_offset %rbp, -16
	movq	%rsp, %rbp
	.cfi_def_cfa_register %rbp
	subq	$48, %rsp
	movq	%rsi, -40(%rbp)
Ltmp145:
	movq	%rdi, %rax
	movq	%rax, -32(%rbp)
	movq	%rdx, -24(%rbp)
Ltmp139:
Ltmp146:
	.loc	5 71 17 prologue_end
	callq	__ZN10num_bigint6bigint8division120_$LT$impl$u20$core..ops..arith..Div$LT$$RF$num_bigint..bigint..BigInt$GT$$u20$for$u20$$RF$num_bigint..bigint..BigInt$GT$3div17h6bec11654ff03397E
Ltmp147:
Ltmp140:
	jmp	LBB9_3
Ltmp148:
LBB9_1:
Ltmp142:
	.loc	5 0 17 is_stmt 0
	movq	-40(%rbp), %rdi
	.loc	5 72 13 is_stmt 1
	callq	__ZN4core3ptr47drop_in_place$LT$num_bigint..bigint..BigInt$GT$17hd51332cf0b64116dE
Ltmp143:
	jmp	LBB9_5
Ltmp149:
LBB9_2:
Ltmp141:
	.loc	5 0 13 is_stmt 0
	movq	%rax, %rcx
	movl	%edx, %eax
	movq	%rcx, -16(%rbp)
	movl	%eax, -8(%rbp)
	jmp	LBB9_1
Ltmp150:
LBB9_3:
	movq	-40(%rbp), %rdi
	.loc	5 72 13
	callq	__ZN4core3ptr47drop_in_place$LT$num_bigint..bigint..BigInt$GT$17hd51332cf0b64116dE
	movq	-32(%rbp), %rax
	.loc	5 72 14
	addq	$48, %rsp
	popq	%rbp
	retq
Ltmp151:
LBB9_4:
Ltmp144:
	.loc	5 69 13 is_stmt 1
	callq	__ZN4core9panicking19panic_cannot_unwind17h1fbca7e1d7f56ae1E
Ltmp152:
LBB9_5:
	movq	-16(%rbp), %rdi
	callq	__Unwind_Resume
Ltmp153:
Lfunc_end9:
	.cfi_endproc
	.section	__TEXT,__gcc_except_tab
	.p2align	2
GCC_except_table9:
Lexception3:
	.byte	255
	.byte	255
	.byte	1
	.uleb128 Lcst_end3-Lcst_begin3
Lcst_begin3:
	.uleb128 Ltmp139-Lfunc_begin9
	.uleb128 Ltmp140-Ltmp139
	.uleb128 Ltmp141-Lfunc_begin9
	.byte	0
	.uleb128 Ltmp142-Lfunc_begin9
	.uleb128 Ltmp143-Ltmp142
	.uleb128 Ltmp144-Lfunc_begin9
	.byte	0
	.uleb128 Ltmp143-Lfunc_begin9
	.uleb128 Lfunc_end9-Ltmp143
	.byte	0
	.byte	0
Lcst_end3:
	.p2align	2

	.section	__TEXT,__text,regular,pure_instructions
	.p2align	4, 0x90
__ZN10num_bigint6bigint8division120_$LT$impl$u20$core..ops..arith..Div$LT$$RF$num_bigint..bigint..BigInt$GT$$u20$for$u20$$RF$num_bigint..bigint..BigInt$GT$3div17h6bec11654ff03397E:
Lfunc_begin10:
	.file	6 "/Users/natalie/.cargo/registry/src/github.com-1ecc6299db9ec823/num-bigint-0.4.3/src/bigint" "division.rs"
	.loc	6 17 0
	.cfi_startproc
	.cfi_personality 155, _rust_eh_personality
	.cfi_lsda 16, Lexception4
	pushq	%rbp
	.cfi_def_cfa_offset 16
	.cfi_offset %rbp, -16
	movq	%rsp, %rbp
	.cfi_def_cfa_register %rbp
	subq	$112, %rsp
	movq	%rdi, -104(%rbp)
Ltmp160:
	movq	%rdi, -112(%rbp)
	movq	%rsi, -32(%rbp)
	movq	%rdx, -24(%rbp)
	leaq	-96(%rbp), %rdi
Ltmp161:
	.loc	6 18 22 prologue_end
	callq	__ZN67_$LT$num_bigint..bigint..BigInt$u20$as$u20$num_integer..Integer$GT$7div_rem17hb4113baf35eda556E
	movq	-104(%rbp), %rdi
	.loc	6 18 14 is_stmt 0
	movq	-72(%rbp), %rax
	movq	%rax, 24(%rdi)
	movq	-80(%rbp), %rax
	movq	%rax, 16(%rdi)
	movq	-96(%rbp), %rax
	movq	-88(%rbp), %rcx
	movq	%rcx, 8(%rdi)
	movq	%rax, (%rdi)
	.loc	6 18 41
	leaq	-64(%rbp), %rdi
Ltmp154:
	callq	__ZN4core3ptr47drop_in_place$LT$num_bigint..bigint..BigInt$GT$17hd51332cf0b64116dE
Ltmp155:
	jmp	LBB10_3
Ltmp162:
LBB10_1:
Ltmp157:
	.loc	6 0 41
	movq	-104(%rbp), %rdi
	.loc	6 20 5 is_stmt 1
	callq	__ZN4core3ptr47drop_in_place$LT$num_bigint..bigint..BigInt$GT$17hd51332cf0b64116dE
Ltmp158:
	jmp	LBB10_5
LBB10_2:
Ltmp163:
Ltmp156:
	.loc	6 0 5 is_stmt 0
	movq	%rax, %rcx
	movl	%edx, %eax
	movq	%rcx, -16(%rbp)
	movl	%eax, -8(%rbp)
	jmp	LBB10_1
Ltmp164:
LBB10_3:
	movq	-112(%rbp), %rax
	.loc	6 20 6
	addq	$112, %rsp
	popq	%rbp
	retq
LBB10_4:
Ltmp159:
	.loc	6 17 5 is_stmt 1
	callq	__ZN4core9panicking19panic_cannot_unwind17h1fbca7e1d7f56ae1E
LBB10_5:
	movq	-16(%rbp), %rdi
	callq	__Unwind_Resume
Ltmp165:
Lfunc_end10:
	.cfi_endproc
	.section	__TEXT,__gcc_except_tab
	.p2align	2
GCC_except_table10:
Lexception4:
	.byte	255
	.byte	255
	.byte	1
	.uleb128 Lcst_end4-Lcst_begin4
Lcst_begin4:
	.uleb128 Lfunc_begin10-Lfunc_begin10
	.uleb128 Ltmp154-Lfunc_begin10
	.byte	0
	.byte	0
	.uleb128 Ltmp154-Lfunc_begin10
	.uleb128 Ltmp155-Ltmp154
	.uleb128 Ltmp156-Lfunc_begin10
	.byte	0
	.uleb128 Ltmp157-Lfunc_begin10
	.uleb128 Ltmp158-Ltmp157
	.uleb128 Ltmp159-Lfunc_begin10
	.byte	0
	.uleb128 Ltmp158-Lfunc_begin10
	.uleb128 Lfunc_end10-Ltmp158
	.byte	0
	.byte	0
Lcst_end4:
	.p2align	2

	.section	__TEXT,__text,regular,pure_instructions
	.p2align	4, 0x90
__ZN10num_bigint6bigint8division78_$LT$impl$u20$core..ops..arith..Div$u20$for$u20$num_bigint..bigint..BigInt$GT$3div17hce4ca867ddabd06bE:
Lfunc_begin11:
	.loc	5 9 0
	.cfi_startproc
	.cfi_personality 155, _rust_eh_personality
	.cfi_lsda 16, Lexception5
	pushq	%rbp
	.cfi_def_cfa_offset 16
	.cfi_offset %rbp, -16
	movq	%rsp, %rbp
	.cfi_def_cfa_register %rbp
	subq	$64, %rsp
	movq	%rdx, -64(%rbp)
Ltmp172:
	movq	%rdi, %rax
	movq	%rax, -56(%rbp)
Ltmp173:
	.loc	5 11 31 prologue_end
	movq	24(%rsi), %rax
	movq	%rax, -24(%rbp)
	movq	16(%rsi), %rax
	movq	%rax, -32(%rbp)
	movq	(%rsi), %rax
	movq	8(%rsi), %rcx
	movq	%rcx, -40(%rbp)
	movq	%rax, -48(%rbp)
Ltmp166:
	leaq	-48(%rbp), %rsi
Ltmp174:
	.loc	5 11 17 is_stmt 0
	callq	__ZN10num_bigint6bigint8division116_$LT$impl$u20$core..ops..arith..Div$LT$$RF$num_bigint..bigint..BigInt$GT$$u20$for$u20$num_bigint..bigint..BigInt$GT$3div17hafddde31d17d737cE
Ltmp175:
Ltmp167:
	jmp	LBB11_3
Ltmp176:
LBB11_1:
Ltmp169:
	.loc	5 0 17
	movq	-64(%rbp), %rdi
	.loc	5 12 13 is_stmt 1
	callq	__ZN4core3ptr47drop_in_place$LT$num_bigint..bigint..BigInt$GT$17hd51332cf0b64116dE
Ltmp170:
	jmp	LBB11_5
Ltmp177:
LBB11_2:
Ltmp168:
	.loc	5 0 13 is_stmt 0
	movq	%rax, %rcx
	movl	%edx, %eax
	movq	%rcx, -16(%rbp)
	movl	%eax, -8(%rbp)
	jmp	LBB11_1
Ltmp178:
LBB11_3:
	movq	-64(%rbp), %rdi
	.loc	5 12 13
	callq	__ZN4core3ptr47drop_in_place$LT$num_bigint..bigint..BigInt$GT$17hd51332cf0b64116dE
	movq	-56(%rbp), %rax
	.loc	5 12 14
	addq	$64, %rsp
	popq	%rbp
	retq
Ltmp179:
LBB11_4:
Ltmp171:
	.loc	5 9 13 is_stmt 1
	callq	__ZN4core9panicking19panic_cannot_unwind17h1fbca7e1d7f56ae1E
Ltmp180:
LBB11_5:
	movq	-16(%rbp), %rdi
	callq	__Unwind_Resume
Ltmp181:
Lfunc_end11:
	.cfi_endproc
	.section	__TEXT,__gcc_except_tab
	.p2align	2
GCC_except_table11:
Lexception5:
	.byte	255
	.byte	255
	.byte	1
	.uleb128 Lcst_end5-Lcst_begin5
Lcst_begin5:
	.uleb128 Ltmp166-Lfunc_begin11
	.uleb128 Ltmp167-Ltmp166
	.uleb128 Ltmp168-Lfunc_begin11
	.byte	0
	.uleb128 Ltmp169-Lfunc_begin11
	.uleb128 Ltmp170-Ltmp169
	.uleb128 Ltmp171-Lfunc_begin11
	.byte	0
	.uleb128 Ltmp170-Lfunc_begin11
	.uleb128 Lfunc_end11-Ltmp170
	.byte	0
	.byte	0
Lcst_end5:
	.p2align	2

	.section	__TEXT,__text,regular,pure_instructions
	.p2align	4, 0x90
__ZN10num_bigint7biguint11subtraction80_$LT$impl$u20$core..ops..arith..Sub$u20$for$u20$num_bigint..biguint..BigUint$GT$3sub17h7a91bbf123e1147eE:
Lfunc_begin12:
	.loc	5 9 0
	.cfi_startproc
	.cfi_personality 155, _rust_eh_personality
	.cfi_lsda 16, Lexception6
	pushq	%rbp
	.cfi_def_cfa_offset 16
	.cfi_offset %rbp, -16
	movq	%rsp, %rbp
	.cfi_def_cfa_register %rbp
	subq	$64, %rsp
	movq	%rdx, -56(%rbp)
Ltmp188:
	movq	%rdi, %rax
	movq	%rax, -48(%rbp)
Ltmp189:
	.loc	5 11 31 prologue_end
	movq	16(%rsi), %rax
	movq	%rax, -24(%rbp)
	movq	(%rsi), %rax
	movq	8(%rsi), %rcx
	movq	%rcx, -32(%rbp)
	movq	%rax, -40(%rbp)
Ltmp182:
	leaq	-40(%rbp), %rsi
Ltmp190:
	.loc	5 11 17 is_stmt 0
	callq	__ZN10num_bigint7biguint11subtraction120_$LT$impl$u20$core..ops..arith..Sub$LT$$RF$num_bigint..biguint..BigUint$GT$$u20$for$u20$num_bigint..biguint..BigUint$GT$3sub17h0a2417745b4f1facE
Ltmp191:
Ltmp183:
	jmp	LBB12_3
Ltmp192:
LBB12_1:
Ltmp185:
	.loc	5 0 17
	movq	-56(%rbp), %rdi
	.loc	5 12 13 is_stmt 1
	callq	__ZN4core3ptr49drop_in_place$LT$num_bigint..biguint..BigUint$GT$17h1b2311c59b55148bE
Ltmp186:
	jmp	LBB12_5
Ltmp193:
LBB12_2:
Ltmp184:
	.loc	5 0 13 is_stmt 0
	movq	%rax, %rcx
	movl	%edx, %eax
	movq	%rcx, -16(%rbp)
	movl	%eax, -8(%rbp)
	jmp	LBB12_1
Ltmp194:
LBB12_3:
	movq	-56(%rbp), %rdi
	.loc	5 12 13
	callq	__ZN4core3ptr49drop_in_place$LT$num_bigint..biguint..BigUint$GT$17h1b2311c59b55148bE
	movq	-48(%rbp), %rax
	.loc	5 12 14
	addq	$64, %rsp
	popq	%rbp
	retq
Ltmp195:
LBB12_4:
Ltmp187:
	.loc	5 9 13 is_stmt 1
	callq	__ZN4core9panicking19panic_cannot_unwind17h1fbca7e1d7f56ae1E
Ltmp196:
LBB12_5:
	movq	-16(%rbp), %rdi
	callq	__Unwind_Resume
Ltmp197:
Lfunc_end12:
	.cfi_endproc
	.section	__TEXT,__gcc_except_tab
	.p2align	2
GCC_except_table12:
Lexception6:
	.byte	255
	.byte	255
	.byte	1
	.uleb128 Lcst_end6-Lcst_begin6
Lcst_begin6:
	.uleb128 Ltmp182-Lfunc_begin12
	.uleb128 Ltmp183-Ltmp182
	.uleb128 Ltmp184-Lfunc_begin12
	.byte	0
	.uleb128 Ltmp185-Lfunc_begin12
	.uleb128 Ltmp186-Ltmp185
	.uleb128 Ltmp187-Lfunc_begin12
	.byte	0
	.uleb128 Ltmp186-Lfunc_begin12
	.uleb128 Lfunc_end12-Ltmp186
	.byte	0
	.byte	0
Lcst_end6:
	.p2align	2

	.section	__TEXT,__text,regular,pure_instructions
	.p2align	4, 0x90
__ZN10num_bigint7biguint5shift89_$LT$impl$u20$core..ops..bit..Shl$LT$u64$GT$$u20$for$u20$num_bigint..biguint..BigUint$GT$3shl17h6baf8d0461c3ddb5E:
Lfunc_begin13:
	.file	7 "/Users/natalie/.cargo/registry/src/github.com-1ecc6299db9ec823/num-bigint-0.4.3/src/biguint" "shift.rs"
	.loc	7 123 0
	.cfi_startproc
	pushq	%rbp
	.cfi_def_cfa_offset 16
	.cfi_offset %rbp, -16
	movq	%rsp, %rbp
	.cfi_def_cfa_register %rbp
	subq	$64, %rsp
	movq	%rdi, %rax
	movq	%rax, -64(%rbp)
Ltmp198:
	movq	%rdx, -8(%rbp)
Ltmp199:
	.loc	7 124 40 prologue_end
	movq	(%rsi), %rax
	movq	%rax, -32(%rbp)
	movq	8(%rsi), %rax
	movq	%rax, -24(%rbp)
	movq	16(%rsi), %rax
	movq	%rax, -16(%rbp)
	.loc	7 124 29 is_stmt 0
	movq	-32(%rbp), %rax
	movq	%rax, -56(%rbp)
	movq	-24(%rbp), %rax
	movq	%rax, -48(%rbp)
	movq	-16(%rbp), %rax
	movq	%rax, -40(%rbp)
	.loc	7 124 17
	leaq	-56(%rbp), %rsi
Ltmp200:
	callq	__ZN10num_bigint7biguint5shift11biguint_shl17h72235dfe7b336899E
	movq	-64(%rbp), %rax
	.loc	7 125 14 is_stmt 1
	addq	$64, %rsp
	popq	%rbp
	retq
Ltmp201:
Lfunc_end13:
	.cfi_endproc

	.p2align	4, 0x90
__ZN10num_bigint7biguint5shift89_$LT$impl$u20$core..ops..bit..Shr$LT$u64$GT$$u20$for$u20$num_bigint..biguint..BigUint$GT$3shr17h259d2a89d6943bf7E:
Lfunc_begin14:
	.loc	7 148 0
	.cfi_startproc
	pushq	%rbp
	.cfi_def_cfa_offset 16
	.cfi_offset %rbp, -16
	movq	%rsp, %rbp
	.cfi_def_cfa_register %rbp
	subq	$64, %rsp
	movq	%rdi, %rax
	movq	%rax, -64(%rbp)
Ltmp202:
	movq	%rdx, -8(%rbp)
Ltmp203:
	.loc	7 149 40 prologue_end
	movq	(%rsi), %rax
	movq	%rax, -32(%rbp)
	movq	8(%rsi), %rax
	movq	%rax, -24(%rbp)
	movq	16(%rsi), %rax
	movq	%rax, -16(%rbp)
	.loc	7 149 29 is_stmt 0
	movq	-32(%rbp), %rax
	movq	%rax, -56(%rbp)
	movq	-24(%rbp), %rax
	movq	%rax, -48(%rbp)
	movq	-16(%rbp), %rax
	movq	%rax, -40(%rbp)
	.loc	7 149 17
	leaq	-56(%rbp), %rsi
Ltmp204:
	callq	__ZN10num_bigint7biguint5shift11biguint_shr17h92faff1bf0c814d3E
	movq	-64(%rbp), %rax
	.loc	7 150 14 is_stmt 1
	addq	$64, %rsp
	popq	%rbp
	retq
Ltmp205:
Lfunc_end14:
	.cfi_endproc

	.p2align	4, 0x90
__ZN10num_bigint7biguint5shift91_$LT$impl$u20$core..ops..bit..Shl$LT$usize$GT$$u20$for$u20$num_bigint..biguint..BigUint$GT$3shl17h7eeb979fe4b2c996E:
Lfunc_begin15:
	.loc	7 123 0
	.cfi_startproc
	pushq	%rbp
	.cfi_def_cfa_offset 16
	.cfi_offset %rbp, -16
	movq	%rsp, %rbp
	.cfi_def_cfa_register %rbp
	subq	$64, %rsp
	movq	%rdi, %rax
	movq	%rax, -64(%rbp)
Ltmp206:
	movq	%rdx, -8(%rbp)
Ltmp207:
	.loc	7 124 40 prologue_end
	movq	(%rsi), %rax
	movq	%rax, -32(%rbp)
	movq	8(%rsi), %rax
	movq	%rax, -24(%rbp)
	movq	16(%rsi), %rax
	movq	%rax, -16(%rbp)
	.loc	7 124 29 is_stmt 0
	movq	-32(%rbp), %rax
	movq	%rax, -56(%rbp)
	movq	-24(%rbp), %rax
	movq	%rax, -48(%rbp)
	movq	-16(%rbp), %rax
	movq	%rax, -40(%rbp)
	.loc	7 124 17
	leaq	-56(%rbp), %rsi
Ltmp208:
	callq	__ZN10num_bigint7biguint5shift11biguint_shl17hbddd269ddddfc67dE
	movq	-64(%rbp), %rax
	.loc	7 125 14 is_stmt 1
	addq	$64, %rsp
	popq	%rbp
	retq
Ltmp209:
Lfunc_end15:
	.cfi_endproc

	.p2align	4, 0x90
__ZN10num_bigint7biguint5shift95_$LT$impl$u20$core..ops..bit..ShrAssign$LT$u64$GT$$u20$for$u20$num_bigint..biguint..BigUint$GT$10shr_assign17he0b78d7c56bc972eE:
Lfunc_begin16:
	.loc	7 162 0
	.cfi_startproc
	.cfi_personality 155, _rust_eh_personality
	.cfi_lsda 16, Lexception7
	pushq	%rbp
	.cfi_def_cfa_offset 16
	.cfi_offset %rbp, -16
	movq	%rsp, %rbp
	.cfi_def_cfa_register %rbp
	subq	$160, %rsp
	movq	%rdi, -136(%rbp)
	movq	%rsi, -144(%rbp)
	movq	%rdi, -32(%rbp)
	movq	%rsi, -24(%rbp)
	leaq	-104(%rbp), %rdi
	movq	%rdi, -152(%rbp)
Ltmp213:
	.loc	7 163 44 prologue_end
	callq	__ZN77_$LT$num_bigint..biguint..BigUint$u20$as$u20$num_traits..identities..Zero$GT$4zero17h4ecf8963805a5b52E
	movq	-152(%rbp), %rdx
	movq	-136(%rbp), %rsi
	leaq	-128(%rbp), %rdi
	.loc	7 163 25 is_stmt 0
	callq	__ZN4core3mem7replace17hd29ca4dec6fdecbfE
	movq	-144(%rbp), %rdx
Ltmp214:
	.loc	7 164 25 is_stmt 1
	movq	-112(%rbp), %rax
	movq	%rax, -40(%rbp)
	movq	-128(%rbp), %rax
	movq	-120(%rbp), %rcx
	movq	%rcx, -48(%rbp)
	movq	%rax, -56(%rbp)
	leaq	-80(%rbp), %rdi
	leaq	-56(%rbp), %rsi
	callq	__ZN10num_bigint7biguint5shift89_$LT$impl$u20$core..ops..bit..Shr$LT$u64$GT$$u20$for$u20$num_bigint..biguint..BigUint$GT$3shr17h259d2a89d6943bf7E
	movq	-136(%rbp), %rdi
Ltmp210:
	.loc	7 164 17 is_stmt 0
	callq	__ZN4core3ptr49drop_in_place$LT$num_bigint..biguint..BigUint$GT$17h1b2311c59b55148bE
Ltmp211:
	jmp	LBB16_3
LBB16_1:
	.loc	7 0 17
	movq	-136(%rbp), %rax
	.loc	7 164 17
	movq	-64(%rbp), %rcx
	movq	%rcx, 16(%rax)
	movq	-80(%rbp), %rcx
	movq	-72(%rbp), %rdx
	movq	%rdx, 8(%rax)
	movq	%rcx, (%rax)
Ltmp215:
	.loc	7 162 13 is_stmt 1
	movq	-16(%rbp), %rdi
	callq	__Unwind_Resume
LBB16_2:
Ltmp212:
	.loc	7 0 13 is_stmt 0
	movq	%rax, %rcx
	movl	%edx, %eax
	movq	%rcx, -16(%rbp)
	movl	%eax, -8(%rbp)
	jmp	LBB16_1
LBB16_3:
	movq	-136(%rbp), %rax
Ltmp216:
	.loc	7 164 17 is_stmt 1
	movq	-80(%rbp), %rcx
	movq	%rcx, (%rax)
	movq	-72(%rbp), %rcx
	movq	%rcx, 8(%rax)
	movq	-64(%rbp), %rcx
	movq	%rcx, 16(%rax)
Ltmp217:
	.loc	7 165 14
	addq	$160, %rsp
	popq	%rbp
	retq
Ltmp218:
Lfunc_end16:
	.cfi_endproc
	.section	__TEXT,__gcc_except_tab
	.p2align	2
GCC_except_table16:
Lexception7:
	.byte	255
	.byte	255
	.byte	1
	.uleb128 Lcst_end7-Lcst_begin7
Lcst_begin7:
	.uleb128 Lfunc_begin16-Lfunc_begin16
	.uleb128 Ltmp210-Lfunc_begin16
	.byte	0
	.byte	0
	.uleb128 Ltmp210-Lfunc_begin16
	.uleb128 Ltmp211-Ltmp210
	.uleb128 Ltmp212-Lfunc_begin16
	.byte	0
	.uleb128 Ltmp211-Lfunc_begin16
	.uleb128 Lfunc_end16-Ltmp211
	.byte	0
	.byte	0
Lcst_end7:
	.p2align	2

	.section	__TEXT,__text,regular,pure_instructions
	.p2align	4, 0x90
__ZN10num_bigint7biguint5shift97_$LT$impl$u20$core..ops..bit..ShlAssign$LT$usize$GT$$u20$for$u20$num_bigint..biguint..BigUint$GT$10shl_assign17h4ce9dded2482a75eE:
Lfunc_begin17:
	.loc	7 137 0
	.cfi_startproc
	.cfi_personality 155, _rust_eh_personality
	.cfi_lsda 16, Lexception8
	pushq	%rbp
	.cfi_def_cfa_offset 16
	.cfi_offset %rbp, -16
	movq	%rsp, %rbp
	.cfi_def_cfa_register %rbp
	subq	$160, %rsp
	movq	%rdi, -136(%rbp)
	movq	%rsi, -144(%rbp)
	movq	%rdi, -32(%rbp)
	movq	%rsi, -24(%rbp)
	leaq	-104(%rbp), %rdi
	movq	%rdi, -152(%rbp)
Ltmp222:
	.loc	7 138 44 prologue_end
	callq	__ZN77_$LT$num_bigint..biguint..BigUint$u20$as$u20$num_traits..identities..Zero$GT$4zero17h4ecf8963805a5b52E
	movq	-152(%rbp), %rdx
	movq	-136(%rbp), %rsi
	leaq	-128(%rbp), %rdi
	.loc	7 138 25 is_stmt 0
	callq	__ZN4core3mem7replace17hd29ca4dec6fdecbfE
	movq	-144(%rbp), %rdx
Ltmp223:
	.loc	7 139 25 is_stmt 1
	movq	-112(%rbp), %rax
	movq	%rax, -40(%rbp)
	movq	-128(%rbp), %rax
	movq	-120(%rbp), %rcx
	movq	%rcx, -48(%rbp)
	movq	%rax, -56(%rbp)
	leaq	-80(%rbp), %rdi
	leaq	-56(%rbp), %rsi
	callq	__ZN10num_bigint7biguint5shift91_$LT$impl$u20$core..ops..bit..Shl$LT$usize$GT$$u20$for$u20$num_bigint..biguint..BigUint$GT$3shl17h7eeb979fe4b2c996E
	movq	-136(%rbp), %rdi
Ltmp219:
	.loc	7 139 17 is_stmt 0
	callq	__ZN4core3ptr49drop_in_place$LT$num_bigint..biguint..BigUint$GT$17h1b2311c59b55148bE
Ltmp220:
	jmp	LBB17_3
LBB17_1:
	.loc	7 0 17
	movq	-136(%rbp), %rax
	.loc	7 139 17
	movq	-64(%rbp), %rcx
	movq	%rcx, 16(%rax)
	movq	-80(%rbp), %rcx
	movq	-72(%rbp), %rdx
	movq	%rdx, 8(%rax)
	movq	%rcx, (%rax)
Ltmp224:
	.loc	7 137 13 is_stmt 1
	movq	-16(%rbp), %rdi
	callq	__Unwind_Resume
LBB17_2:
Ltmp221:
	.loc	7 0 13 is_stmt 0
	movq	%rax, %rcx
	movl	%edx, %eax
	movq	%rcx, -16(%rbp)
	movl	%eax, -8(%rbp)
	jmp	LBB17_1
LBB17_3:
	movq	-136(%rbp), %rax
Ltmp225:
	.loc	7 139 17 is_stmt 1
	movq	-80(%rbp), %rcx
	movq	%rcx, (%rax)
	movq	-72(%rbp), %rcx
	movq	%rcx, 8(%rax)
	movq	-64(%rbp), %rcx
	movq	%rcx, 16(%rax)
Ltmp226:
	.loc	7 140 14
	addq	$160, %rsp
	popq	%rbp
	retq
Ltmp227:
Lfunc_end17:
	.cfi_endproc
	.section	__TEXT,__gcc_except_tab
	.p2align	2
GCC_except_table17:
Lexception8:
	.byte	255
	.byte	255
	.byte	1
	.uleb128 Lcst_end8-Lcst_begin8
Lcst_begin8:
	.uleb128 Lfunc_begin17-Lfunc_begin17
	.uleb128 Ltmp219-Lfunc_begin17
	.byte	0
	.byte	0
	.uleb128 Ltmp219-Lfunc_begin17
	.uleb128 Ltmp220-Ltmp219
	.uleb128 Ltmp221-Lfunc_begin17
	.byte	0
	.uleb128 Ltmp220-Lfunc_begin17
	.uleb128 Lfunc_end17-Ltmp220
	.byte	0
	.byte	0
Lcst_end8:
	.p2align	2

	.section	__TEXT,__text,regular,pure_instructions
	.p2align	4, 0x90
__ZN10num_bigint7biguint7BigUint17assign_from_slice17hb49050cc5eb347c6E:
Lfunc_begin18:
	.file	8 "/Users/natalie/.cargo/registry/src/github.com-1ecc6299db9ec823/num-bigint-0.4.3/src" "biguint.rs"
	.loc	8 552 0
	.cfi_startproc
	pushq	%rbp
	.cfi_def_cfa_offset 16
	.cfi_offset %rbp, -16
	movq	%rsp, %rbp
	.cfi_def_cfa_register %rbp
	subq	$96, %rsp
	movq	%rdi, -80(%rbp)
	movq	%rsi, -96(%rbp)
	movq	%rdx, -88(%rbp)
	movq	%rdi, -24(%rbp)
	movq	%rsi, -16(%rbp)
	movq	%rdx, -8(%rbp)
Ltmp228:
	.loc	8 553 9 prologue_end
	callq	__ZN5alloc3vec16Vec$LT$T$C$A$GT$5clear17h17d57d2e2d3bc580E
	movq	-96(%rbp), %rsi
	movq	-88(%rbp), %rdx
	.loc	8 559 26
	leaq	-48(%rbp), %rdi
	movl	$2, %ecx
	callq	__ZN4core5slice29_$LT$impl$u20$$u5b$T$u5d$$GT$6chunks17h0c179744c9a0090cE
	leaq	-72(%rbp), %rdi
	leaq	-48(%rbp), %rsi
	callq	__ZN4core4iter6traits8iterator8Iterator3map17h6431934d6b2d7ca5E
	movq	-80(%rbp), %rdi
	.loc	8 559 9 is_stmt 0
	leaq	-72(%rbp), %rsi
	callq	__ZN93_$LT$alloc..vec..Vec$LT$T$C$A$GT$$u20$as$u20$core..iter..traits..collect..Extend$LT$T$GT$$GT$6extend17h91cd73f6d63acdcdE
	movq	-80(%rbp), %rdi
	.loc	8 561 9 is_stmt 1
	callq	__ZN10num_bigint7biguint7BigUint9normalize17h3c7fce167e69ae47E
	.loc	8 562 6
	addq	$96, %rsp
	popq	%rbp
	retq
Ltmp229:
Lfunc_end18:
	.cfi_endproc

	.p2align	4, 0x90
__ZN10num_bigint7biguint7BigUint4bits17ha0911617cea31ff1E:
Lfunc_begin19:
	.loc	8 837 0
	.cfi_startproc
	pushq	%rbp
	.cfi_def_cfa_offset 16
	.cfi_offset %rbp, -16
	movq	%rsp, %rbp
	.cfi_def_cfa_register %rbp
	subq	$80, %rsp
	movq	%rdi, -56(%rbp)
	movq	%rdi, -40(%rbp)
Ltmp230:
	.loc	8 838 12 prologue_end
	callq	__ZN77_$LT$num_bigint..biguint..BigUint$u20$as$u20$num_traits..identities..Zero$GT$7is_zero17h397bd2fb95a8238bE
	testb	$1, %al
	jne	LBB19_2
	.loc	8 0 12 is_stmt 0
	movq	-56(%rbp), %rdi
	.loc	8 841 26 is_stmt 1
	callq	__ZN72_$LT$alloc..vec..Vec$LT$T$C$A$GT$$u20$as$u20$core..ops..deref..Deref$GT$5deref17hf76d590e0fa28de2E
	movq	%rax, %rdi
	movq	%rdx, %rsi
	callq	__ZN4core5slice29_$LT$impl$u20$$u5b$T$u5d$$GT$4last17h1277aaea6a1deac5E
	movq	%rax, %rdi
	leaq	l___unnamed_6(%rip), %rsi
	callq	__ZN4core6option15Option$LT$T$GT$6unwrap17ha8cc7595b007d0b1E
	movq	(%rax), %rax
	movq	%rax, -24(%rbp)
Ltmp231:
	.file	9 "/rustc/2c8cc343237b8f7d5a3c3703e3a87f2eb2c54a74/library/core/src/num" "uint_macros.rs"
	.loc	9 131 13
	bsrq	%rax, %rax
	movl	$127, %ecx
	cmoveq	%rcx, %rax
	xorq	$63, %rax
	movq	%rax, -16(%rbp)
	movq	-16(%rbp), %rax
	movl	%eax, %edi
Ltmp232:
	.loc	8 841 26
	callq	__ZN50_$LT$T$u20$as$u20$core..convert..Into$LT$U$GT$$GT$4into17h7c1f1b2bc246ce7bE
	movq	-56(%rbp), %rdi
	movq	%rax, -72(%rbp)
	movq	%rax, -32(%rbp)
Ltmp233:
	.loc	8 842 9
	callq	__ZN5alloc3vec16Vec$LT$T$C$A$GT$3len17h1c58dfb930fa7849E
	movb	$64, -1(%rbp)
	movl	$64, %ecx
	mulq	%rcx
	movq	%rax, -64(%rbp)
	seto	%al
	testb	$1, %al
	jne	LBB19_5
	jmp	LBB19_4
Ltmp234:
LBB19_2:
	.loc	8 839 20
	movq	$0, -48(%rbp)
LBB19_3:
	.loc	8 843 6
	movq	-48(%rbp), %rax
	addq	$80, %rsp
	popq	%rbp
	retq
LBB19_4:
	.loc	8 0 6 is_stmt 0
	movq	-64(%rbp), %rax
	movq	-72(%rbp), %rcx
Ltmp235:
	.loc	8 842 9 is_stmt 1
	movq	%rax, %rdx
	subq	%rcx, %rdx
	movq	%rdx, -80(%rbp)
	cmpq	%rcx, %rax
	setb	%al
	testb	$1, %al
	jne	LBB19_7
	jmp	LBB19_6
LBB19_5:
	leaq	_str.2(%rip), %rdi
	leaq	l___unnamed_7(%rip), %rdx
	movl	$33, %esi
	callq	__ZN4core9panicking5panic17hc1bc45270cf64b03E
LBB19_6:
	.loc	8 0 9 is_stmt 0
	movq	-80(%rbp), %rax
	.loc	8 842 9
	movq	%rax, -48(%rbp)
Ltmp236:
	.loc	8 843 6 is_stmt 1
	jmp	LBB19_3
LBB19_7:
Ltmp237:
	.loc	8 842 9
	leaq	_str.0(%rip), %rdi
	leaq	l___unnamed_7(%rip), %rdx
	movl	$33, %esi
	callq	__ZN4core9panicking5panic17hc1bc45270cf64b03E
Ltmp238:
Lfunc_end19:
	.cfi_endproc

	.p2align	4, 0x90
__ZN10num_bigint7biguint7BigUint9normalize17h3c7fce167e69ae47E:
Lfunc_begin20:
	.loc	8 848 0
	.cfi_startproc
	pushq	%rbp
	.cfi_def_cfa_offset 16
	.cfi_offset %rbp, -16
	movq	%rsp, %rbp
	.cfi_def_cfa_register %rbp
	subq	$64, %rsp
	movq	%rdi, -48(%rbp)
	movq	%rdi, -16(%rbp)
Ltmp239:
	.loc	8 849 27 prologue_end
	callq	__ZN72_$LT$alloc..vec..Vec$LT$T$C$A$GT$$u20$as$u20$core..ops..deref..Deref$GT$5deref17hf76d590e0fa28de2E
	movq	%rax, %rdi
	movq	%rdx, %rsi
	callq	__ZN4core5slice29_$LT$impl$u20$$u5b$T$u5d$$GT$4last17h1277aaea6a1deac5E
	movq	%rax, -40(%rbp)
	.loc	8 849 16 is_stmt 0
	movq	-40(%rbp), %rdx
	movl	$1, %eax
	xorl	%ecx, %ecx
	cmpq	$0, %rdx
	cmoveq	%rcx, %rax
	cmpq	$1, %rax
	jne	LBB20_2
	movq	-40(%rbp), %rax
	cmpq	$0, (%rax)
	je	LBB20_3
LBB20_2:
	.loc	8 0 16
	movq	-48(%rbp), %rdi
	.loc	8 853 12 is_stmt 1
	callq	__ZN5alloc3vec16Vec$LT$T$C$A$GT$3len17h1c58dfb930fa7849E
	movq	-48(%rbp), %rdi
	movq	%rax, -56(%rbp)
	.loc	8 853 30 is_stmt 0
	callq	__ZN5alloc3vec16Vec$LT$T$C$A$GT$8capacity17hb8851571a7e8f83bE
	movq	%rax, %rcx
	movq	-56(%rbp), %rax
	shrq	$2, %rcx
	.loc	8 853 12
	cmpq	%rcx, %rax
	jb	LBB20_5
	jmp	LBB20_4
LBB20_3:
	.loc	8 0 12
	movq	-48(%rbp), %rdi
	.loc	8 850 23 is_stmt 1
	callq	__ZN72_$LT$alloc..vec..Vec$LT$T$C$A$GT$$u20$as$u20$core..ops..deref..Deref$GT$5deref17hf76d590e0fa28de2E
	movq	%rax, %rdi
	movq	%rdx, %rsi
	callq	__ZN4core5slice29_$LT$impl$u20$$u5b$T$u5d$$GT$4iter17ha09678257ac9dc7cE
	movq	%rdx, -24(%rbp)
	movq	%rax, -32(%rbp)
	leaq	-32(%rbp), %rdi
	callq	__ZN91_$LT$core..slice..iter..Iter$LT$T$GT$$u20$as$u20$core..iter..traits..iterator..Iterator$GT$9rposition17h6db4f6d0d06b6e6eE
	movq	%rax, %rdi
	movq	%rdx, %rsi
	xorl	%eax, %eax
	movl	%eax, %edx
	callq	__ZN4core6option15Option$LT$T$GT$6map_or17hf19a6b9553b73135E
	movq	-48(%rbp), %rdi
	movq	%rax, %rsi
	movq	%rsi, -8(%rbp)
Ltmp240:
	.loc	8 851 13
	callq	__ZN5alloc3vec16Vec$LT$T$C$A$GT$8truncate17h2b469e431685198eE
	jmp	LBB20_2
Ltmp241:
LBB20_4:
	.loc	8 856 6
	addq	$64, %rsp
	popq	%rbp
	retq
LBB20_5:
	.loc	8 0 6 is_stmt 0
	movq	-48(%rbp), %rdi
	.loc	8 854 13 is_stmt 1
	callq	__ZN5alloc3vec16Vec$LT$T$C$A$GT$13shrink_to_fit17h624ed99abf8db543E
	jmp	LBB20_4
Ltmp242:
Lfunc_end20:
	.cfi_endproc

	.p2align	4, 0x90
__ZN10num_bigint7biguint7convert89_$LT$impl$u20$core..convert..From$LT$u64$GT$$u20$for$u20$num_bigint..biguint..BigUint$GT$4from17h4e10a623eba1c971E:
Lfunc_begin21:
	.file	10 "/Users/natalie/.cargo/registry/src/github.com-1ecc6299db9ec823/num-bigint-0.4.3/src/biguint" "convert.rs"
	.loc	10 476 0
	.cfi_startproc
	.cfi_personality 155, _rust_eh_personality
	.cfi_lsda 16, Lexception9
	pushq	%rbp
	.cfi_def_cfa_offset 16
	.cfi_offset %rbp, -16
	movq	%rsp, %rbp
	.cfi_def_cfa_register %rbp
	subq	$64, %rsp
	movq	%rdi, -40(%rbp)
	movq	%rdi, %rax
	movq	%rax, -32(%rbp)
	movq	%rsi, -24(%rbp)
Ltmp249:
	.loc	10 477 32 prologue_end
	callq	__ZN77_$LT$num_bigint..biguint..BigUint$u20$as$u20$num_traits..identities..Zero$GT$4zero17h4ecf8963805a5b52E
LBB21_1:
Ltmp250:
	.loc	10 479 15
	cmpq	$0, -24(%rbp)
	jne	LBB21_3
Ltmp251:
	.loc	10 0 15 is_stmt 0
	movq	-32(%rbp), %rax
	.loc	10 486 6 is_stmt 1
	addq	$64, %rsp
	popq	%rbp
	retq
LBB21_3:
Ltmp252:
	.loc	10 0 6 is_stmt 0
	movq	-40(%rbp), %rdi
Ltmp253:
	.loc	10 480 27 is_stmt 1
	movq	-24(%rbp), %rsi
Ltmp243:
	.loc	10 480 13 is_stmt 0
	callq	__ZN5alloc3vec16Vec$LT$T$C$A$GT$4push17hf894a110f237b3d0E
Ltmp244:
	jmp	LBB21_6
Ltmp254:
LBB21_4:
Ltmp246:
	.loc	10 0 13
	movq	-40(%rbp), %rdi
	.loc	10 486 5 is_stmt 1
	callq	__ZN4core3ptr49drop_in_place$LT$num_bigint..biguint..BigUint$GT$17h1b2311c59b55148bE
Ltmp247:
	jmp	LBB21_10
LBB21_5:
Ltmp245:
	.loc	10 0 5 is_stmt 0
	movq	%rax, %rcx
	movl	%edx, %eax
	movq	%rcx, -16(%rbp)
	movl	%eax, -8(%rbp)
	jmp	LBB21_4
LBB21_6:
Ltmp255:
	.loc	10 482 18 is_stmt 1
	movq	-24(%rbp), %rax
	.loc	10 482 17 is_stmt 0
	shrq	$1, %rax
	movq	%rax, -48(%rbp)
Ltmp256:
	.loc	10 0 17
	movq	-48(%rbp), %rax
	.loc	10 482 17
	shrq	$63, %rax
	movq	%rax, -56(%rbp)
Ltmp257:
	.loc	10 0 17
	movq	-56(%rbp), %rax
	.loc	10 482 13
	movq	%rax, -24(%rbp)
	.loc	10 479 9 is_stmt 1
	jmp	LBB21_1
Ltmp258:
LBB21_9:
Ltmp248:
	.loc	10 476 5
	callq	__ZN4core9panicking19panic_cannot_unwind17h1fbca7e1d7f56ae1E
LBB21_10:
	movq	-16(%rbp), %rdi
	callq	__Unwind_Resume
Ltmp259:
Lfunc_end21:
	.cfi_endproc
	.section	__TEXT,__gcc_except_tab
	.p2align	2
GCC_except_table21:
Lexception9:
	.byte	255
	.byte	255
	.byte	1
	.uleb128 Lcst_end9-Lcst_begin9
Lcst_begin9:
	.uleb128 Lfunc_begin21-Lfunc_begin21
	.uleb128 Ltmp243-Lfunc_begin21
	.byte	0
	.byte	0
	.uleb128 Ltmp243-Lfunc_begin21
	.uleb128 Ltmp244-Ltmp243
	.uleb128 Ltmp245-Lfunc_begin21
	.byte	0
	.uleb128 Ltmp246-Lfunc_begin21
	.uleb128 Ltmp247-Ltmp246
	.uleb128 Ltmp248-Lfunc_begin21
	.byte	0
	.uleb128 Ltmp247-Lfunc_begin21
	.uleb128 Lfunc_end21-Ltmp247
	.byte	0
	.byte	0
Lcst_end9:
	.p2align	2

	.section	__TEXT,__text,regular,pure_instructions
	.p2align	4, 0x90
__ZN10num_bigint7biguint7convert90_$LT$impl$u20$core..convert..From$LT$u128$GT$$u20$for$u20$num_bigint..biguint..BigUint$GT$4from17h320a5e9447e2e9c8E:
Lfunc_begin22:
	.loc	10 491 0
	.cfi_startproc
	.cfi_personality 155, _rust_eh_personality
	.cfi_lsda 16, Lexception10
	pushq	%rbp
	.cfi_def_cfa_offset 16
	.cfi_offset %rbp, -16
	movq	%rsp, %rbp
	.cfi_def_cfa_register %rbp
	subq	$64, %rsp
	movq	%rdi, -48(%rbp)
	movq	%rdi, %rax
	movq	%rax, -40(%rbp)
	movq	%rsi, -32(%rbp)
	movq	%rdx, -24(%rbp)
Ltmp266:
	.loc	10 492 32 prologue_end
	callq	__ZN77_$LT$num_bigint..biguint..BigUint$u20$as$u20$num_traits..identities..Zero$GT$4zero17h4ecf8963805a5b52E
LBB22_1:
Ltmp267:
	.loc	10 494 15
	movq	-32(%rbp), %rax
	movq	-24(%rbp), %rcx
	orq	%rcx, %rax
	jne	LBB22_3
	jmp	LBB22_2
Ltmp268:
LBB22_2:
	.loc	10 0 15 is_stmt 0
	movq	-40(%rbp), %rax
	.loc	10 500 6 is_stmt 1
	addq	$64, %rsp
	popq	%rbp
	retq
LBB22_3:
Ltmp269:
	.loc	10 0 6 is_stmt 0
	movq	-48(%rbp), %rdi
Ltmp270:
	.loc	10 495 27 is_stmt 1
	movq	-32(%rbp), %rsi
Ltmp260:
	.loc	10 495 13 is_stmt 0
	callq	__ZN5alloc3vec16Vec$LT$T$C$A$GT$4push17hf894a110f237b3d0E
Ltmp261:
	jmp	LBB22_6
Ltmp271:
LBB22_4:
Ltmp263:
	.loc	10 0 13
	movq	-48(%rbp), %rdi
	.loc	10 500 5 is_stmt 1
	callq	__ZN4core3ptr49drop_in_place$LT$num_bigint..biguint..BigUint$GT$17h1b2311c59b55148bE
Ltmp264:
	jmp	LBB22_9
LBB22_5:
Ltmp262:
	.loc	10 0 5 is_stmt 0
	movq	%rax, %rcx
	movl	%edx, %eax
	movq	%rcx, -16(%rbp)
	movl	%eax, -8(%rbp)
	jmp	LBB22_4
LBB22_6:
Ltmp272:
	.loc	10 496 13 is_stmt 1
	movq	-24(%rbp), %rax
	movq	%rax, -64(%rbp)
	xorl	%eax, %eax
	movq	%rax, -56(%rbp)
Ltmp273:
	.loc	10 0 13 is_stmt 0
	movq	-56(%rbp), %rax
	movq	-64(%rbp), %rcx
	.loc	10 496 13
	movq	%rcx, -32(%rbp)
	movq	%rax, -24(%rbp)
	.loc	10 494 9 is_stmt 1
	jmp	LBB22_1
Ltmp274:
LBB22_8:
Ltmp265:
	.loc	10 491 5
	callq	__ZN4core9panicking19panic_cannot_unwind17h1fbca7e1d7f56ae1E
LBB22_9:
	movq	-16(%rbp), %rdi
	callq	__Unwind_Resume
Ltmp275:
Lfunc_end22:
	.cfi_endproc
	.section	__TEXT,__gcc_except_tab
	.p2align	2
GCC_except_table22:
Lexception10:
	.byte	255
	.byte	255
	.byte	1
	.uleb128 Lcst_end10-Lcst_begin10
Lcst_begin10:
	.uleb128 Lfunc_begin22-Lfunc_begin22
	.uleb128 Ltmp260-Lfunc_begin22
	.byte	0
	.byte	0
	.uleb128 Ltmp260-Lfunc_begin22
	.uleb128 Ltmp261-Ltmp260
	.uleb128 Ltmp262-Lfunc_begin22
	.byte	0
	.uleb128 Ltmp263-Lfunc_begin22
	.uleb128 Ltmp264-Ltmp263
	.uleb128 Ltmp265-Lfunc_begin22
	.byte	0
	.uleb128 Ltmp264-Lfunc_begin22
	.uleb128 Lfunc_end22-Ltmp264
	.byte	0
	.byte	0
Lcst_end10:
	.p2align	2

	.section	__TEXT,__text,regular,pure_instructions
	.p2align	4, 0x90
__ZN10num_bigint7biguint7convert90_$LT$impl$u20$num_traits..cast..FromPrimitive$u20$for$u20$num_bigint..biguint..BigUint$GT$8from_u6417h8cd35140254a993cE:
Lfunc_begin23:
	.loc	10 434 0
	.cfi_startproc
	pushq	%rbp
	.cfi_def_cfa_offset 16
	.cfi_offset %rbp, -16
	movq	%rsp, %rbp
	.cfi_def_cfa_register %rbp
	subq	$48, %rsp
	movq	%rdi, -48(%rbp)
	movq	%rdi, -40(%rbp)
	movq	%rsi, -8(%rbp)
Ltmp276:
	.loc	10 435 14 prologue_end
	leaq	-32(%rbp), %rdi
	callq	__ZN10num_bigint7biguint7convert89_$LT$impl$u20$core..convert..From$LT$u64$GT$$u20$for$u20$num_bigint..biguint..BigUint$GT$4from17h4e10a623eba1c971E
	movq	-48(%rbp), %rdi
	movq	-40(%rbp), %rax
	.loc	10 435 9 is_stmt 0
	movq	-32(%rbp), %rcx
	movq	%rcx, (%rdi)
	movq	-24(%rbp), %rcx
	movq	%rcx, 8(%rdi)
	movq	-16(%rbp), %rcx
	movq	%rcx, 16(%rdi)
	.loc	10 436 6 is_stmt 1
	addq	$48, %rsp
	popq	%rbp
	retq
Ltmp277:
Lfunc_end23:
	.cfi_endproc

	.p2align	4, 0x90
__ZN10num_bigint7biguint8addition80_$LT$impl$u20$core..ops..arith..Add$u20$for$u20$num_bigint..biguint..BigUint$GT$3add17hed149832d123bea3E:
Lfunc_begin24:
	.loc	5 23 0
	.cfi_startproc
	.cfi_personality 155, _rust_eh_personality
	.cfi_lsda 16, Lexception11
	pushq	%rbp
	.cfi_def_cfa_offset 16
	.cfi_offset %rbp, -16
	movq	%rsp, %rbp
	.cfi_def_cfa_register %rbp
	subq	$128, %rsp
	movq	%rdx, -112(%rbp)
Ltmp295:
	movq	%rsi, -104(%rbp)
Ltmp296:
	movq	%rdi, %rax
	movq	-104(%rbp), %rdi
	movq	%rax, -96(%rbp)
	movq	%rax, -88(%rbp)
Ltmp297:
	.loc	5 25 20 prologue_end
	movb	$0, -17(%rbp)
	movb	$0, -18(%rbp)
	movb	$1, -17(%rbp)
	movb	$1, -18(%rbp)
Ltmp278:
	callq	__ZN79_$LT$num_bigint..biguint..BigUint$u20$as$u20$num_bigint..biguint..IntDigits$GT$8capacity17h77c2cc7875134729E
Ltmp298:
Ltmp279:
	.loc	5 0 20 is_stmt 0
	movq	%rax, -80(%rbp)
Ltmp299:
	.loc	5 25 20
	jmp	LBB24_3
Ltmp300:
LBB24_1:
	.loc	5 30 13 is_stmt 1
	testb	$1, -18(%rbp)
	jne	LBB24_11
	jmp	LBB24_10
Ltmp301:
LBB24_2:
Ltmp286:
	.loc	5 0 13 is_stmt 0
	movq	%rax, %rcx
	movl	%edx, %eax
	movq	%rcx, -16(%rbp)
	movl	%eax, -8(%rbp)
	jmp	LBB24_1
Ltmp302:
LBB24_3:
Ltmp280:
	movq	-112(%rbp), %rdi
	.loc	5 25 39 is_stmt 1
	callq	__ZN79_$LT$num_bigint..biguint..BigUint$u20$as$u20$num_bigint..biguint..IntDigits$GT$8capacity17h77c2cc7875134729E
Ltmp281:
	movq	%rax, -120(%rbp)
	jmp	LBB24_4
Ltmp303:
LBB24_4:
	.loc	5 0 39 is_stmt 0
	movq	-80(%rbp), %rax
	movq	-120(%rbp), %rcx
	.loc	5 25 20
	cmpq	%rcx, %rax
	jae	LBB24_6
Ltmp304:
	.loc	5 0 20
	movq	-104(%rbp), %rdx
	movq	-96(%rbp), %rdi
	movq	-112(%rbp), %rcx
	.loc	5 28 35 is_stmt 1
	movb	$0, -18(%rbp)
	movq	16(%rcx), %rax
	movq	%rax, -32(%rbp)
	movq	(%rcx), %rax
	movq	8(%rcx), %rcx
	movq	%rcx, -40(%rbp)
	movq	%rax, -48(%rbp)
Ltmp282:
	leaq	-48(%rbp), %rsi
	.loc	5 28 21 is_stmt 0
	callq	__ZN10num_bigint7biguint8addition120_$LT$impl$u20$core..ops..arith..Add$LT$$RF$num_bigint..biguint..BigUint$GT$$u20$for$u20$num_bigint..biguint..BigUint$GT$3add17h9763686727e9af99E
Ltmp283:
	jmp	LBB24_9
Ltmp305:
LBB24_6:
	.loc	5 0 21
	movq	-112(%rbp), %rdx
	movq	-96(%rbp), %rdi
	movq	-104(%rbp), %rcx
	.loc	5 26 35 is_stmt 1
	movb	$0, -17(%rbp)
	movq	16(%rcx), %rax
	movq	%rax, -56(%rbp)
	movq	(%rcx), %rax
	movq	8(%rcx), %rcx
	movq	%rcx, -64(%rbp)
	movq	%rax, -72(%rbp)
Ltmp284:
	leaq	-72(%rbp), %rsi
	.loc	5 26 21 is_stmt 0
	callq	__ZN10num_bigint7biguint8addition120_$LT$impl$u20$core..ops..arith..Add$LT$$RF$num_bigint..biguint..BigUint$GT$$u20$for$u20$num_bigint..biguint..BigUint$GT$3add17h9763686727e9af99E
Ltmp285:
	jmp	LBB24_7
Ltmp306:
LBB24_7:
	jmp	LBB24_8
Ltmp307:
LBB24_8:
	.loc	5 30 13 is_stmt 1
	testb	$1, -18(%rbp)
	jne	LBB24_14
	jmp	LBB24_13
Ltmp308:
LBB24_9:
	.loc	5 28 21
	jmp	LBB24_8
Ltmp309:
LBB24_10:
	.loc	5 30 13
	testb	$1, -17(%rbp)
	jne	LBB24_17
	jmp	LBB24_16
Ltmp310:
LBB24_11:
Ltmp287:
	.loc	5 0 13 is_stmt 0
	movq	-112(%rbp), %rdi
	.loc	5 30 13
	callq	__ZN4core3ptr49drop_in_place$LT$num_bigint..biguint..BigUint$GT$17h1b2311c59b55148bE
Ltmp288:
	jmp	LBB24_10
Ltmp311:
LBB24_12:
Ltmp294:
	.loc	5 23 13 is_stmt 1
	callq	__ZN4core9panicking19panic_cannot_unwind17h1fbca7e1d7f56ae1E
Ltmp312:
LBB24_13:
	.loc	5 30 13
	testb	$1, -17(%rbp)
	jne	LBB24_19
	jmp	LBB24_18
Ltmp313:
LBB24_14:
Ltmp289:
	.loc	5 0 13 is_stmt 0
	movq	-112(%rbp), %rdi
	.loc	5 30 13
	callq	__ZN4core3ptr49drop_in_place$LT$num_bigint..biguint..BigUint$GT$17h1b2311c59b55148bE
Ltmp290:
	jmp	LBB24_13
Ltmp314:
LBB24_15:
Ltmp291:
	.loc	5 0 13
	movq	%rax, %rcx
	movl	%edx, %eax
	movq	%rcx, -16(%rbp)
	movl	%eax, -8(%rbp)
	jmp	LBB24_10
Ltmp315:
LBB24_16:
	.loc	5 23 13 is_stmt 1
	movq	-16(%rbp), %rdi
	callq	__Unwind_Resume
Ltmp316:
LBB24_17:
Ltmp292:
	.loc	5 0 13 is_stmt 0
	movq	-104(%rbp), %rdi
	.loc	5 30 13 is_stmt 1
	callq	__ZN4core3ptr49drop_in_place$LT$num_bigint..biguint..BigUint$GT$17h1b2311c59b55148bE
Ltmp293:
	jmp	LBB24_16
Ltmp317:
LBB24_18:
	.loc	5 0 13 is_stmt 0
	movq	-88(%rbp), %rax
	.loc	5 30 14
	addq	$128, %rsp
	popq	%rbp
	retq
Ltmp318:
LBB24_19:
	.loc	5 0 14
	movq	-104(%rbp), %rdi
	.loc	5 30 13
	callq	__ZN4core3ptr49drop_in_place$LT$num_bigint..biguint..BigUint$GT$17h1b2311c59b55148bE
	jmp	LBB24_18
Ltmp319:
Lfunc_end24:
	.cfi_endproc
	.section	__TEXT,__gcc_except_tab
	.p2align	2
GCC_except_table24:
Lexception11:
	.byte	255
	.byte	255
	.byte	1
	.uleb128 Lcst_end11-Lcst_begin11
Lcst_begin11:
	.uleb128 Ltmp278-Lfunc_begin24
	.uleb128 Ltmp285-Ltmp278
	.uleb128 Ltmp286-Lfunc_begin24
	.byte	0
	.uleb128 Ltmp287-Lfunc_begin24
	.uleb128 Ltmp288-Ltmp287
	.uleb128 Ltmp294-Lfunc_begin24
	.byte	0
	.uleb128 Ltmp289-Lfunc_begin24
	.uleb128 Ltmp290-Ltmp289
	.uleb128 Ltmp291-Lfunc_begin24
	.byte	0
	.uleb128 Ltmp290-Lfunc_begin24
	.uleb128 Ltmp292-Ltmp290
	.byte	0
	.byte	0
	.uleb128 Ltmp292-Lfunc_begin24
	.uleb128 Ltmp293-Ltmp292
	.uleb128 Ltmp294-Lfunc_begin24
	.byte	0
	.uleb128 Ltmp293-Lfunc_begin24
	.uleb128 Lfunc_end24-Ltmp293
	.byte	0
	.byte	0
Lcst_end11:
	.p2align	2

	.section	__TEXT,__text,regular,pure_instructions
	.p2align	4, 0x90
__ZN10num_bigint7biguint9cmp_slice17ha322e1aed79519edE:
Lfunc_begin25:
	.loc	8 91 0 is_stmt 1
	.cfi_startproc
	pushq	%rbp
	.cfi_def_cfa_offset 16
	.cfi_offset %rbp, -16
	movq	%rsp, %rbp
	.cfi_def_cfa_register %rbp
	subq	$144, %rsp
	movq	%rdi, -120(%rbp)
	movq	%rsi, -112(%rbp)
	movq	%rdx, -104(%rbp)
	movq	%rcx, -96(%rbp)
	movq	%rdi, -40(%rbp)
	movq	%rsi, -32(%rbp)
	movq	%rdx, -24(%rbp)
	movq	%rcx, -16(%rbp)
Ltmp320:
	.loc	8 92 19 prologue_end
	callq	__ZN4core5slice29_$LT$impl$u20$$u5b$T$u5d$$GT$4last17h1277aaea6a1deac5E
	movq	%rax, -80(%rbp)
	leaq	-80(%rbp), %rdi
	leaq	l___unnamed_8(%rip), %rsi
	callq	__ZN4core3cmp9PartialEq2ne17h0f1c8e122796b211E
	.loc	8 92 5 is_stmt 0
	xorb	$-1, %al
	testb	$1, %al
	jne	LBB25_2
	.loc	8 0 5
	movq	-96(%rbp), %rsi
	movq	-104(%rbp), %rdi
	.loc	8 93 19 is_stmt 1
	callq	__ZN4core5slice29_$LT$impl$u20$$u5b$T$u5d$$GT$4last17h1277aaea6a1deac5E
	movq	%rax, -72(%rbp)
	leaq	-72(%rbp), %rdi
	leaq	l___unnamed_8(%rip), %rsi
	callq	__ZN4core3cmp9PartialEq2ne17h0f1c8e122796b211E
	.loc	8 93 5 is_stmt 0
	xorb	$-1, %al
	testb	$1, %al
	jne	LBB25_4
	jmp	LBB25_3
LBB25_2:
	.loc	8 92 5 is_stmt 1
	leaq	l___unnamed_9(%rip), %rdi
	leaq	l___unnamed_10(%rip), %rdx
	movl	$38, %esi
	callq	__ZN4core9panicking5panic17hc1bc45270cf64b03E
LBB25_3:
	.loc	8 0 5 is_stmt 0
	movq	-96(%rbp), %rax
	movq	-112(%rbp), %rcx
	.loc	8 95 21 is_stmt 1
	movq	%rcx, -56(%rbp)
	.loc	8 95 31 is_stmt 0
	movq	%rax, -48(%rbp)
	.loc	8 95 11
	leaq	-56(%rbp), %rdi
	leaq	-48(%rbp), %rsi
	callq	__ZN4core3cmp5impls50_$LT$impl$u20$core..cmp..Ord$u20$for$u20$usize$GT$3cmp17hbf3c6da3f85146f7E
	movb	%al, -57(%rbp)
	.loc	8 95 5
	cmpb	$0, -57(%rbp)
	je	LBB25_5
	jmp	LBB25_6
LBB25_4:
	.loc	8 93 5 is_stmt 1
	leaq	l___unnamed_11(%rip), %rdi
	leaq	l___unnamed_12(%rip), %rdx
	movl	$38, %esi
	callq	__ZN4core9panicking5panic17hc1bc45270cf64b03E
LBB25_5:
	.loc	8 0 5 is_stmt 0
	movq	-112(%rbp), %rsi
	movq	-120(%rbp), %rdi
	.loc	8 96 42 is_stmt 1
	callq	__ZN4core5slice29_$LT$impl$u20$$u5b$T$u5d$$GT$4iter17ha09678257ac9dc7cE
	movq	%rax, %rdi
	movq	%rdx, %rsi
	callq	__ZN4core4iter6traits8iterator8Iterator3rev17h1921ff603870765eE
	movq	-104(%rbp), %rdi
	movq	-96(%rbp), %rsi
	movq	%rax, -144(%rbp)
	movq	%rdx, -136(%rbp)
	.loc	8 96 58 is_stmt 0
	callq	__ZN4core5slice29_$LT$impl$u20$$u5b$T$u5d$$GT$4iter17ha09678257ac9dc7cE
	movq	%rax, %rdi
	movq	%rdx, %rsi
	callq	__ZN4core4iter6traits8iterator8Iterator3rev17h1921ff603870765eE
	movq	-144(%rbp), %rdi
	movq	-136(%rbp), %rsi
	movq	%rax, -128(%rbp)
	movq	%rdx, %rcx
	movq	-128(%rbp), %rdx
	.loc	8 96 28
	callq	__ZN4core4iter6traits8iterator8Iterator3cmp17h5ab23f7381f60d68E
	movb	%al, -81(%rbp)
	jmp	LBB25_7
LBB25_6:
	.loc	8 97 9 is_stmt 1
	movb	-57(%rbp), %al
	movb	%al, -1(%rbp)
Ltmp321:
	.loc	8 97 18 is_stmt 0
	movb	%al, -81(%rbp)
Ltmp322:
LBB25_7:
	.loc	8 99 2 is_stmt 1
	movb	-81(%rbp), %al
	addq	$144, %rsp
	popq	%rbp
	retq
Ltmp323:
Lfunc_end25:
	.cfi_endproc

	.globl	__ZN10num_traits10identities3One7set_one17h1d52a22afc403dadE
	.p2align	4, 0x90
__ZN10num_traits10identities3One7set_one17h1d52a22afc403dadE:
Lfunc_begin26:
	.file	11 "/Users/natalie/.cargo/registry/src/github.com-1ecc6299db9ec823/num-traits-0.2.15/src" "identities.rs"
	.loc	11 102 0
	.cfi_startproc
	pushq	%rbp
	.cfi_def_cfa_offset 16
	.cfi_offset %rbp, -16
	movq	%rsp, %rbp
	.cfi_def_cfa_register %rbp
	subq	$48, %rsp
	movq	%rdi, -40(%rbp)
	movq	%rdi, -24(%rbp)
Ltmp324:
	.loc	11 103 17 prologue_end
	callq	__ZN51_$LT$u64$u20$as$u20$num_traits..identities..One$GT$3one17hd29211175765adbeE
	movq	%rax, -32(%rbp)
	.loc	11 0 17 is_stmt 0
	movq	-40(%rbp), %rax
	movq	-32(%rbp), %rcx
	.loc	11 103 9
	movq	%rcx, (%rax)
	.loc	11 104 6 is_stmt 1
	addq	$48, %rsp
	popq	%rbp
	retq
Ltmp325:
Lfunc_end26:
	.cfi_endproc

	.globl	__ZN10num_traits10identities3One7set_one17h38028a76e5fde268E
	.p2align	4, 0x90
__ZN10num_traits10identities3One7set_one17h38028a76e5fde268E:
Lfunc_begin27:
	.loc	11 102 0
	.cfi_startproc
	pushq	%rbp
	.cfi_def_cfa_offset 16
	.cfi_offset %rbp, -16
	movq	%rsp, %rbp
	.cfi_def_cfa_register %rbp
	subq	$48, %rsp
	movq	%rdi, -40(%rbp)
	movq	%rdi, -24(%rbp)
Ltmp326:
	.loc	11 103 17 prologue_end
	callq	__ZN53_$LT$usize$u20$as$u20$num_traits..identities..One$GT$3one17hef8fcf5921d9871dE
	movq	%rax, -32(%rbp)
	.loc	11 0 17 is_stmt 0
	movq	-40(%rbp), %rax
	movq	-32(%rbp), %rcx
	.loc	11 103 9
	movq	%rcx, (%rax)
	.loc	11 104 6 is_stmt 1
	addq	$48, %rsp
	popq	%rbp
	retq
Ltmp327:
Lfunc_end27:
	.cfi_endproc

	.globl	__ZN10num_traits10identities3One7set_one17h3ba4b7d5a7488aadE
	.p2align	4, 0x90
__ZN10num_traits10identities3One7set_one17h3ba4b7d5a7488aadE:
Lfunc_begin28:
	.loc	11 102 0
	.cfi_startproc
	pushq	%rbp
	.cfi_def_cfa_offset 16
	.cfi_offset %rbp, -16
	movq	%rsp, %rbp
	.cfi_def_cfa_register %rbp
	subq	$48, %rsp
	movq	%rdi, -40(%rbp)
	movq	%rdi, -24(%rbp)
Ltmp328:
	.loc	11 103 17 prologue_end
	callq	__ZN53_$LT$isize$u20$as$u20$num_traits..identities..One$GT$3one17h219e87ef5750f706E
	movq	%rax, -32(%rbp)
	.loc	11 0 17 is_stmt 0
	movq	-40(%rbp), %rax
	movq	-32(%rbp), %rcx
	.loc	11 103 9
	movq	%rcx, (%rax)
	.loc	11 104 6 is_stmt 1
	addq	$48, %rsp
	popq	%rbp
	retq
Ltmp329:
Lfunc_end28:
	.cfi_endproc

	.globl	__ZN10num_traits10identities3One7set_one17h60807639f9b5f7d9E
	.p2align	4, 0x90
__ZN10num_traits10identities3One7set_one17h60807639f9b5f7d9E:
Lfunc_begin29:
	.loc	11 102 0
	.cfi_startproc
	pushq	%rbp
	.cfi_def_cfa_offset 16
	.cfi_offset %rbp, -16
	movq	%rsp, %rbp
	.cfi_def_cfa_register %rbp
	subq	$48, %rsp
	movq	%rdi, -48(%rbp)
	movq	%rdi, -24(%rbp)
Ltmp330:
	.loc	11 103 17 prologue_end
	callq	__ZN52_$LT$i128$u20$as$u20$num_traits..identities..One$GT$3one17he06c21144e4a082eE
	movq	%rax, -40(%rbp)
	movq	%rdx, -32(%rbp)
	.loc	11 0 17 is_stmt 0
	movq	-48(%rbp), %rax
	movq	-32(%rbp), %rcx
	movq	-40(%rbp), %rdx
	.loc	11 103 9
	movq	%rdx, (%rax)
	movq	%rcx, 8(%rax)
	.loc	11 104 6 is_stmt 1
	addq	$48, %rsp
	popq	%rbp
	retq
Ltmp331:
Lfunc_end29:
	.cfi_endproc

	.globl	__ZN10num_traits10identities3One7set_one17ha2fb1bbb35385b91E
	.p2align	4, 0x90
__ZN10num_traits10identities3One7set_one17ha2fb1bbb35385b91E:
Lfunc_begin30:
	.loc	11 102 0
	.cfi_startproc
	pushq	%rbp
	.cfi_def_cfa_offset 16
	.cfi_offset %rbp, -16
	movq	%rsp, %rbp
	.cfi_def_cfa_register %rbp
	subq	$48, %rsp
	movq	%rdi, -40(%rbp)
	movq	%rdi, -24(%rbp)
Ltmp332:
	.loc	11 103 17 prologue_end
	callq	__ZN50_$LT$u8$u20$as$u20$num_traits..identities..One$GT$3one17hcf7b8a146eca9dc3E
	movb	%al, -25(%rbp)
	.loc	11 0 17 is_stmt 0
	movq	-40(%rbp), %rax
	movb	-25(%rbp), %cl
	.loc	11 103 9
	movb	%cl, (%rax)
	.loc	11 104 6 is_stmt 1
	addq	$48, %rsp
	popq	%rbp
	retq
Ltmp333:
Lfunc_end30:
	.cfi_endproc

	.globl	__ZN10num_traits10identities3One7set_one17ha852ba4b5d7df524E
	.p2align	4, 0x90
__ZN10num_traits10identities3One7set_one17ha852ba4b5d7df524E:
Lfunc_begin31:
	.loc	11 102 0
	.cfi_startproc
	pushq	%rbp
	.cfi_def_cfa_offset 16
	.cfi_offset %rbp, -16
	movq	%rsp, %rbp
	.cfi_def_cfa_register %rbp
	subq	$48, %rsp
	movq	%rdi, -40(%rbp)
	movq	%rdi, -24(%rbp)
Ltmp334:
	.loc	11 103 17 prologue_end
	callq	__ZN51_$LT$u32$u20$as$u20$num_traits..identities..One$GT$3one17hbd2951e7b4f16e6cE
	movl	%eax, -28(%rbp)
	.loc	11 0 17 is_stmt 0
	movq	-40(%rbp), %rax
	movl	-28(%rbp), %ecx
	.loc	11 103 9
	movl	%ecx, (%rax)
	.loc	11 104 6 is_stmt 1
	addq	$48, %rsp
	popq	%rbp
	retq
Ltmp335:
Lfunc_end31:
	.cfi_endproc

	.globl	__ZN10num_traits10identities3One7set_one17hae5b24419fd4530bE
	.p2align	4, 0x90
__ZN10num_traits10identities3One7set_one17hae5b24419fd4530bE:
Lfunc_begin32:
	.loc	11 102 0
	.cfi_startproc
	pushq	%rbp
	.cfi_def_cfa_offset 16
	.cfi_offset %rbp, -16
	movq	%rsp, %rbp
	.cfi_def_cfa_register %rbp
	subq	$48, %rsp
	movq	%rdi, -48(%rbp)
	movq	%rdi, -24(%rbp)
Ltmp336:
	.loc	11 103 17 prologue_end
	callq	__ZN52_$LT$u128$u20$as$u20$num_traits..identities..One$GT$3one17hfe925aff79f38ee4E
	movq	%rax, -40(%rbp)
	movq	%rdx, -32(%rbp)
	.loc	11 0 17 is_stmt 0
	movq	-48(%rbp), %rax
	movq	-32(%rbp), %rcx
	movq	-40(%rbp), %rdx
	.loc	11 103 9
	movq	%rdx, (%rax)
	movq	%rcx, 8(%rax)
	.loc	11 104 6 is_stmt 1
	addq	$48, %rsp
	popq	%rbp
	retq
Ltmp337:
Lfunc_end32:
	.cfi_endproc

	.globl	__ZN10num_traits10identities3One7set_one17haf7125a5d98d1a1eE
	.p2align	4, 0x90
__ZN10num_traits10identities3One7set_one17haf7125a5d98d1a1eE:
Lfunc_begin33:
	.loc	11 102 0
	.cfi_startproc
	pushq	%rbp
	.cfi_def_cfa_offset 16
	.cfi_offset %rbp, -16
	movq	%rsp, %rbp
	.cfi_def_cfa_register %rbp
	subq	$48, %rsp
	movq	%rdi, -40(%rbp)
	movq	%rdi, -24(%rbp)
Ltmp338:
	.loc	11 103 17 prologue_end
	callq	__ZN51_$LT$i16$u20$as$u20$num_traits..identities..One$GT$3one17h43adbee20a9c1948E
	movw	%ax, -26(%rbp)
	.loc	11 0 17 is_stmt 0
	movq	-40(%rbp), %rax
	movw	-26(%rbp), %cx
	.loc	11 103 9
	movw	%cx, (%rax)
	.loc	11 104 6 is_stmt 1
	addq	$48, %rsp
	popq	%rbp
	retq
Ltmp339:
Lfunc_end33:
	.cfi_endproc

	.globl	__ZN10num_traits10identities3One7set_one17hb96ea702f8448a75E
	.p2align	4, 0x90
__ZN10num_traits10identities3One7set_one17hb96ea702f8448a75E:
Lfunc_begin34:
	.loc	11 102 0
	.cfi_startproc
	pushq	%rbp
	.cfi_def_cfa_offset 16
	.cfi_offset %rbp, -16
	movq	%rsp, %rbp
	.cfi_def_cfa_register %rbp
	subq	$48, %rsp
	movq	%rdi, -40(%rbp)
	movq	%rdi, -24(%rbp)
Ltmp340:
	.loc	11 103 17 prologue_end
	callq	__ZN51_$LT$u16$u20$as$u20$num_traits..identities..One$GT$3one17h20940111a35b623aE
	movw	%ax, -26(%rbp)
	.loc	11 0 17 is_stmt 0
	movq	-40(%rbp), %rax
	movw	-26(%rbp), %cx
	.loc	11 103 9
	movw	%cx, (%rax)
	.loc	11 104 6 is_stmt 1
	addq	$48, %rsp
	popq	%rbp
	retq
Ltmp341:
Lfunc_end34:
	.cfi_endproc

	.globl	__ZN10num_traits10identities3One7set_one17hc26c3e4793e5487fE
	.p2align	4, 0x90
__ZN10num_traits10identities3One7set_one17hc26c3e4793e5487fE:
Lfunc_begin35:
	.loc	11 102 0
	.cfi_startproc
	pushq	%rbp
	.cfi_def_cfa_offset 16
	.cfi_offset %rbp, -16
	movq	%rsp, %rbp
	.cfi_def_cfa_register %rbp
	subq	$48, %rsp
	movq	%rdi, -40(%rbp)
	movq	%rdi, -24(%rbp)
Ltmp342:
	.loc	11 103 17 prologue_end
	callq	__ZN51_$LT$i32$u20$as$u20$num_traits..identities..One$GT$3one17haac6e08c68b15cf2E
	movl	%eax, -28(%rbp)
	.loc	11 0 17 is_stmt 0
	movq	-40(%rbp), %rax
	movl	-28(%rbp), %ecx
	.loc	11 103 9
	movl	%ecx, (%rax)
	.loc	11 104 6 is_stmt 1
	addq	$48, %rsp
	popq	%rbp
	retq
Ltmp343:
Lfunc_end35:
	.cfi_endproc

	.globl	__ZN10num_traits10identities3One7set_one17hd1ae003cb9107d12E
	.p2align	4, 0x90
__ZN10num_traits10identities3One7set_one17hd1ae003cb9107d12E:
Lfunc_begin36:
	.loc	11 102 0
	.cfi_startproc
	pushq	%rbp
	.cfi_def_cfa_offset 16
	.cfi_offset %rbp, -16
	movq	%rsp, %rbp
	.cfi_def_cfa_register %rbp
	subq	$48, %rsp
	movq	%rdi, -40(%rbp)
	movq	%rdi, -24(%rbp)
Ltmp344:
	.loc	11 103 17 prologue_end
	callq	__ZN50_$LT$i8$u20$as$u20$num_traits..identities..One$GT$3one17hd3737a0a5ae90f27E
	movb	%al, -25(%rbp)
	.loc	11 0 17 is_stmt 0
	movq	-40(%rbp), %rax
	movb	-25(%rbp), %cl
	.loc	11 103 9
	movb	%cl, (%rax)
	.loc	11 104 6 is_stmt 1
	addq	$48, %rsp
	popq	%rbp
	retq
Ltmp345:
Lfunc_end36:
	.cfi_endproc

	.globl	__ZN10num_traits10identities3One7set_one17hfaab9cf953a0ea5cE
	.p2align	4, 0x90
__ZN10num_traits10identities3One7set_one17hfaab9cf953a0ea5cE:
Lfunc_begin37:
	.loc	11 102 0
	.cfi_startproc
	pushq	%rbp
	.cfi_def_cfa_offset 16
	.cfi_offset %rbp, -16
	movq	%rsp, %rbp
	.cfi_def_cfa_register %rbp
	subq	$48, %rsp
	movq	%rdi, -40(%rbp)
	movq	%rdi, -24(%rbp)
Ltmp346:
	.loc	11 103 17 prologue_end
	callq	__ZN51_$LT$i64$u20$as$u20$num_traits..identities..One$GT$3one17h79f2d954bd2be85dE
	movq	%rax, -32(%rbp)
	.loc	11 0 17 is_stmt 0
	movq	-40(%rbp), %rax
	movq	-32(%rbp), %rcx
	.loc	11 103 9
	movq	%rcx, (%rax)
	.loc	11 104 6 is_stmt 1
	addq	$48, %rsp
	popq	%rbp
	retq
Ltmp347:
Lfunc_end37:
	.cfi_endproc

	.section	__TEXT,__literal16,16byte_literals
	.p2align	4
LCPI38_0:
	.long	0x7fffffff
	.long	0x7fffffff
	.long	0x7fffffff
	.long	0x7fffffff
	.section	__TEXT,__text,regular,pure_instructions
	.p2align	4, 0x90
__ZN3std3f3221_$LT$impl$u20$f32$GT$3abs17haa2efeb80f914e3eE:
Lfunc_begin38:
	.file	12 "/rustc/2c8cc343237b8f7d5a3c3703e3a87f2eb2c54a74/library/std/src" "f32.rs"
	.loc	12 157 0
	.cfi_startproc
	pushq	%rbp
	.cfi_def_cfa_offset 16
	.cfi_offset %rbp, -16
	movq	%rsp, %rbp
	.cfi_def_cfa_register %rbp
	pushq	%rax
	movss	%xmm0, -8(%rbp)
Ltmp348:
	.loc	12 158 18 prologue_end
	movaps	LCPI38_0(%rip), %xmm1
	pand	%xmm1, %xmm0
	movss	%xmm0, -4(%rbp)
	movss	-4(%rbp), %xmm0
	.loc	12 159 6
	addq	$8, %rsp
	popq	%rbp
	retq
Ltmp349:
Lfunc_end38:
	.cfi_endproc

	.section	__TEXT,__literal16,16byte_literals
	.p2align	4
LCPI39_0:
	.quad	0x7fffffffffffffff
	.quad	0x7fffffffffffffff
	.section	__TEXT,__text,regular,pure_instructions
	.p2align	4, 0x90
__ZN3std3f6421_$LT$impl$u20$f64$GT$3abs17h95ad05758b8415e9E:
Lfunc_begin39:
	.file	13 "/rustc/2c8cc343237b8f7d5a3c3703e3a87f2eb2c54a74/library/std/src" "f64.rs"
	.loc	13 157 0
	.cfi_startproc
	pushq	%rbp
	.cfi_def_cfa_offset 16
	.cfi_offset %rbp, -16
	movq	%rsp, %rbp
	.cfi_def_cfa_register %rbp
	subq	$16, %rsp
	movsd	%xmm0, -16(%rbp)
Ltmp350:
	.loc	13 158 18 prologue_end
	movaps	LCPI39_0(%rip), %xmm1
	pand	%xmm1, %xmm0
	movsd	%xmm0, -8(%rbp)
	movsd	-8(%rbp), %xmm0
	.loc	13 159 6
	addq	$16, %rsp
	popq	%rbp
	retq
Ltmp351:
Lfunc_end39:
	.cfi_endproc

	.p2align	4, 0x90
__ZN3std3f6421_$LT$impl$u20$f64$GT$4powi17h49a3cfa0d80d0164E:
Lfunc_begin40:
	.loc	13 321 0
	.cfi_startproc
	pushq	%rbp
	.cfi_def_cfa_offset 16
	.cfi_offset %rbp, -16
	movq	%rsp, %rbp
	.cfi_def_cfa_register %rbp
	subq	$32, %rsp
	movsd	%xmm0, -24(%rbp)
	movl	%edi, -12(%rbp)
Ltmp352:
	.loc	13 322 18 prologue_end
	callq	___powidf2
	movsd	%xmm0, -8(%rbp)
	movsd	-8(%rbp), %xmm0
	.loc	13 323 6
	addq	$32, %rsp
	popq	%rbp
	retq
Ltmp353:
Lfunc_end40:
	.cfi_endproc

	.section	__TEXT,__literal16,16byte_literals
	.p2align	4
LCPI41_0:
	.quad	0x8000000000000000
	.quad	0x8000000000000000
LCPI41_1:
	.quad	0x3ff0000000000000
	.quad	0x3ff0000000000000
	.section	__TEXT,__literal8,8byte_literals
	.p2align	3
LCPI41_2:
	.quad	0x7ff8000000000000
	.section	__TEXT,__text,regular,pure_instructions
	.p2align	4, 0x90
__ZN3std3f6421_$LT$impl$u20$f64$GT$6signum17h3aa43e0d49be1005E:
Lfunc_begin41:
	.loc	13 181 0
	.cfi_startproc
	pushq	%rbp
	.cfi_def_cfa_offset 16
	.cfi_offset %rbp, -16
	movq	%rsp, %rbp
	.cfi_def_cfa_register %rbp
	subq	$40, %rsp
	movsd	%xmm0, -40(%rbp)
	movsd	%xmm0, -24(%rbp)
Ltmp354:
	.loc	13 182 12 prologue_end
	movsd	%xmm0, -16(%rbp)
Ltmp355:
	.file	14 "/rustc/2c8cc343237b8f7d5a3c3703e3a87f2eb2c54a74/library/core/src/num" "f64.rs"
	.loc	14 427 9
	ucomisd	%xmm0, %xmm0
Ltmp356:
	.loc	13 182 12
	jp	LBB41_2
	.loc	13 0 12 is_stmt 0
	movsd	-40(%rbp), %xmm0
	.loc	13 182 64
	movsd	%xmm0, -8(%rbp)
Ltmp357:
	.loc	13 211 18 is_stmt 1
	movaps	LCPI41_0(%rip), %xmm1
	pand	%xmm1, %xmm0
	movaps	LCPI41_1(%rip), %xmm1
	por	%xmm1, %xmm0
	movsd	%xmm0, -32(%rbp)
Ltmp358:
	.loc	13 182 9
	jmp	LBB41_3
LBB41_2:
	.loc	13 182 28 is_stmt 0
	movsd	LCPI41_2(%rip), %xmm0
	movsd	%xmm0, -32(%rbp)
LBB41_3:
	.loc	13 183 6 is_stmt 1
	movsd	-32(%rbp), %xmm0
	addq	$40, %rsp
	popq	%rbp
	retq
Ltmp359:
Lfunc_end41:
	.cfi_endproc

	.globl	__ZN42_$LT$$RF$T$u20$as$u20$core..fmt..Debug$GT$3fmt17h52704bdb52214ef6E
	.p2align	4, 0x90
__ZN42_$LT$$RF$T$u20$as$u20$core..fmt..Debug$GT$3fmt17h52704bdb52214ef6E:
Lfunc_begin42:
	.file	15 "/rustc/2c8cc343237b8f7d5a3c3703e3a87f2eb2c54a74/library/core/src/fmt" "mod.rs"
	.loc	15 2377 0
	.cfi_startproc
	pushq	%rbp
	.cfi_def_cfa_offset 16
	.cfi_offset %rbp, -16
	movq	%rsp, %rbp
	.cfi_def_cfa_register %rbp
	subq	$16, %rsp
	movq	%rdi, -16(%rbp)
	movq	%rsi, -8(%rbp)
Ltmp360:
	.loc	15 2377 71 prologue_end
	movq	(%rdi), %rdi
	.loc	15 2377 62 is_stmt 0
	callq	__ZN65_$LT$num_rational..RatioErrorKind$u20$as$u20$core..fmt..Debug$GT$3fmt17hcc9b571a948b52c5E
	.loc	15 2377 84
	andb	$1, %al
	movzbl	%al, %eax
	addq	$16, %rsp
	popq	%rbp
	retq
Ltmp361:
Lfunc_end42:
	.cfi_endproc

	.p2align	4, 0x90
__ZN43_$LT$i8$u20$as$u20$num_integer..Integer$GT$3gcd17h3337cd429a3ff8f4E:
Lfunc_begin43:
	.file	16 "/Users/natalie/.cargo/registry/src/github.com-1ecc6299db9ec823/num-integer-0.1.45/src" "lib.rs"
	.loc	16 459 0 is_stmt 1
	.cfi_startproc
	pushq	%rbp
	.cfi_def_cfa_offset 16
	.cfi_offset %rbp, -16
	movq	%rsp, %rbp
	.cfi_def_cfa_register %rbp
	subq	$64, %rsp
	movq	%rdi, -40(%rbp)
	movq	%rsi, -32(%rbp)
Ltmp362:
	.loc	16 461 29 prologue_end
	movb	(%rdi), %al
	movb	%al, -45(%rbp)
Ltmp363:
	.loc	16 462 29
	movb	(%rsi), %al
	movb	%al, -44(%rbp)
Ltmp364:
	.loc	16 463 20
	cmpb	$0, -45(%rbp)
	jne	LBB43_2
	movb	$1, -43(%rbp)
	jmp	LBB43_3
LBB43_2:
	.loc	16 463 30 is_stmt 0
	cmpb	$0, -44(%rbp)
	sete	%al
	.loc	16 463 20
	andb	$1, %al
	movb	%al, -43(%rbp)
LBB43_3:
	testb	$1, -43(%rbp)
	jne	LBB43_5
	.loc	16 468 30 is_stmt 1
	movb	-45(%rbp), %al
	.loc	16 468 29 is_stmt 0
	orb	-44(%rbp), %al
	movb	%al, -3(%rbp)
Ltmp365:
	.file	17 "/rustc/2c8cc343237b8f7d5a3c3703e3a87f2eb2c54a74/library/core/src/num" "int_macros.rs"
	.loc	17 149 13 is_stmt 1
	movb	%al, -2(%rbp)
Ltmp366:
	.loc	9 152 13
	movzbl	%al, %eax
	orl	$256, %eax
	bsfl	%eax, %eax
	movl	$32, %ecx
	cmovel	%ecx, %eax
	movb	%al, -1(%rbp)
	movzbl	-1(%rbp), %eax
	movl	%eax, -52(%rbp)
Ltmp367:
	.loc	16 468 29
	movl	%eax, -20(%rbp)
Ltmp368:
	.loc	16 478 20
	cmpb	$-128, -45(%rbp)
	je	LBB43_8
	jmp	LBB43_7
Ltmp369:
LBB43_5:
	.loc	16 464 29
	movb	-45(%rbp), %al
	.loc	16 464 28 is_stmt 0
	orb	-44(%rbp), %al
	movzbl	%al, %edi
	callq	__ZN4core3num20_$LT$impl$u20$i8$GT$3abs17h730719fa7ea35d5cE
	movb	%al, -46(%rbp)
Ltmp370:
LBB43_6:
	.loc	16 500 14 is_stmt 1
	movb	-46(%rbp), %al
	addq	$64, %rsp
	popq	%rbp
	retq
LBB43_7:
Ltmp371:
	.loc	16 478 46
	cmpb	$-128, -44(%rbp)
	sete	%al
	.loc	16 478 20 is_stmt 0
	andb	$1, %al
	movb	%al, -42(%rbp)
	jmp	LBB43_9
LBB43_8:
	movb	$1, -42(%rbp)
LBB43_9:
	testb	$1, -42(%rbp)
	jne	LBB43_11
	.loc	16 483 21 is_stmt 1
	movzbl	-45(%rbp), %edi
	callq	__ZN4core3num20_$LT$impl$u20$i8$GT$3abs17h730719fa7ea35d5cE
	.loc	16 483 17 is_stmt 0
	movb	%al, -45(%rbp)
	.loc	16 484 21 is_stmt 1
	movzbl	-44(%rbp), %edi
	callq	__ZN4core3num20_$LT$impl$u20$i8$GT$3abs17h730719fa7ea35d5cE
	.loc	16 484 17 is_stmt 0
	movb	%al, -44(%rbp)
	.loc	16 487 23 is_stmt 1
	movb	-45(%rbp), %al
	movb	%al, -6(%rbp)
Ltmp372:
	.loc	17 149 13
	movb	%al, -5(%rbp)
Ltmp373:
	.loc	9 152 13
	movzbl	%al, %eax
	orl	$256, %eax
	bsfl	%eax, %eax
	movl	$32, %ecx
	cmovel	%ecx, %eax
	movb	%al, -4(%rbp)
	movzbl	-4(%rbp), %ecx
Ltmp374:
	.loc	16 487 17
	movb	-45(%rbp), %dl
	movl	%ecx, %eax
	andl	$-8, %eax
	cmpl	$0, %eax
	setne	%al
	andb	$7, %cl
	sarb	%cl, %dl
	movb	%dl, -53(%rbp)
	testb	$1, %al
	jne	LBB43_15
	jmp	LBB43_14
LBB43_11:
	.loc	16 0 17 is_stmt 0
	movl	-52(%rbp), %ecx
	.loc	16 479 28 is_stmt 1
	movl	%ecx, %eax
	andl	$-8, %eax
	cmpl	$0, %eax
	setne	%al
	andb	$7, %cl
	movb	$1, %dl
	shlb	%cl, %dl
	movb	%dl, -54(%rbp)
	testb	$1, %al
	jne	LBB43_13
	.loc	16 0 28 is_stmt 0
	movb	-54(%rbp), %al
	.loc	16 479 28
	movb	%al, -41(%rbp)
	leaq	-41(%rbp), %rdi
	callq	__ZN47_$LT$i8$u20$as$u20$num_traits..sign..Signed$GT$3abs17hb9dfdededd0bef34E
	movb	%al, -46(%rbp)
	jmp	LBB43_6
LBB43_13:
	leaq	_str.3(%rip), %rdi
	leaq	l___unnamed_13(%rip), %rdx
	movl	$35, %esi
	callq	__ZN4core9panicking5panic17hc1bc45270cf64b03E
LBB43_14:
	.loc	16 0 28
	movb	-53(%rbp), %al
	.loc	16 487 17 is_stmt 1
	movb	%al, -45(%rbp)
	.loc	16 488 23
	movb	-44(%rbp), %al
	movb	%al, -9(%rbp)
Ltmp375:
	.loc	17 149 13
	movb	%al, -8(%rbp)
Ltmp376:
	.loc	9 152 13
	movzbl	%al, %eax
	orl	$256, %eax
	bsfl	%eax, %eax
	movl	$32, %ecx
	cmovel	%ecx, %eax
	movb	%al, -7(%rbp)
	movzbl	-7(%rbp), %ecx
Ltmp377:
	.loc	16 488 17
	movb	-44(%rbp), %dl
	movl	%ecx, %eax
	andl	$-8, %eax
	cmpl	$0, %eax
	setne	%al
	andb	$7, %cl
	sarb	%cl, %dl
	movb	%dl, -55(%rbp)
	testb	$1, %al
	jne	LBB43_17
	jmp	LBB43_16
LBB43_15:
	.loc	16 487 17
	leaq	_str.4(%rip), %rdi
	leaq	l___unnamed_13(%rip), %rdx
	movl	$36, %esi
	callq	__ZN4core9panicking5panic17hc1bc45270cf64b03E
LBB43_16:
	.loc	16 0 17 is_stmt 0
	movb	-55(%rbp), %al
	.loc	16 488 17 is_stmt 1
	movb	%al, -44(%rbp)
	.loc	16 490 17
	jmp	LBB43_18
LBB43_17:
	.loc	16 488 17
	leaq	_str.4(%rip), %rdi
	leaq	l___unnamed_13(%rip), %rdx
	movl	$36, %esi
	callq	__ZN4core9panicking5panic17hc1bc45270cf64b03E
LBB43_18:
	.loc	16 490 23
	movb	-45(%rbp), %al
	cmpb	-44(%rbp), %al
	jne	LBB43_20
	.loc	16 0 23 is_stmt 0
	movl	-52(%rbp), %ecx
	.loc	16 499 17 is_stmt 1
	movb	-45(%rbp), %dl
	movl	%ecx, %eax
	andl	$-8, %eax
	cmpl	$0, %eax
	setne	%al
	andb	$7, %cl
	shlb	%cl, %dl
	movb	%dl, -56(%rbp)
	testb	$1, %al
	jne	LBB43_32
	jmp	LBB43_31
LBB43_20:
	.loc	16 491 24
	movb	-45(%rbp), %al
	cmpb	-44(%rbp), %al
	jg	LBB43_22
	.loc	16 495 30
	movb	-45(%rbp), %cl
	.loc	16 495 25 is_stmt 0
	movb	-44(%rbp), %al
	subb	%cl, %al
	movb	%al, -57(%rbp)
	seto	%al
	testb	$1, %al
	jne	LBB43_28
	jmp	LBB43_27
LBB43_22:
	.loc	16 492 30 is_stmt 1
	movb	-44(%rbp), %cl
	.loc	16 492 25 is_stmt 0
	movb	-45(%rbp), %al
	subb	%cl, %al
	movb	%al, -58(%rbp)
	seto	%al
	testb	$1, %al
	jne	LBB43_24
	.loc	16 0 25
	movb	-58(%rbp), %al
	.loc	16 492 25
	movb	%al, -45(%rbp)
	.loc	16 493 31 is_stmt 1
	movb	-45(%rbp), %al
	movb	%al, -12(%rbp)
Ltmp378:
	.loc	17 149 13
	movb	%al, -11(%rbp)
Ltmp379:
	.loc	9 152 13
	movzbl	%al, %eax
	orl	$256, %eax
	bsfl	%eax, %eax
	movl	$32, %ecx
	cmovel	%ecx, %eax
	movb	%al, -10(%rbp)
	movzbl	-10(%rbp), %ecx
Ltmp380:
	.loc	16 493 25
	movb	-45(%rbp), %dl
	movl	%ecx, %eax
	andl	$-8, %eax
	cmpl	$0, %eax
	setne	%al
	andb	$7, %cl
	sarb	%cl, %dl
	movb	%dl, -59(%rbp)
	testb	$1, %al
	jne	LBB43_26
	jmp	LBB43_25
LBB43_24:
	.loc	16 492 25
	leaq	_str.0(%rip), %rdi
	leaq	l___unnamed_13(%rip), %rdx
	movl	$33, %esi
	callq	__ZN4core9panicking5panic17hc1bc45270cf64b03E
LBB43_25:
	.loc	16 0 25 is_stmt 0
	movb	-59(%rbp), %al
	.loc	16 493 25 is_stmt 1
	movb	%al, -45(%rbp)
	.loc	16 491 21
	jmp	LBB43_18
LBB43_26:
	.loc	16 493 25
	leaq	_str.4(%rip), %rdi
	leaq	l___unnamed_13(%rip), %rdx
	movl	$36, %esi
	callq	__ZN4core9panicking5panic17hc1bc45270cf64b03E
LBB43_27:
	.loc	16 0 25 is_stmt 0
	movb	-57(%rbp), %al
	.loc	16 495 25 is_stmt 1
	movb	%al, -44(%rbp)
	.loc	16 496 31
	movb	-44(%rbp), %al
	movb	%al, -15(%rbp)
Ltmp381:
	.loc	17 149 13
	movb	%al, -14(%rbp)
Ltmp382:
	.loc	9 152 13
	movzbl	%al, %eax
	orl	$256, %eax
	bsfl	%eax, %eax
	movl	$32, %ecx
	cmovel	%ecx, %eax
	movb	%al, -13(%rbp)
	movzbl	-13(%rbp), %ecx
Ltmp383:
	.loc	16 496 25
	movb	-44(%rbp), %dl
	movl	%ecx, %eax
	andl	$-8, %eax
	cmpl	$0, %eax
	setne	%al
	andb	$7, %cl
	sarb	%cl, %dl
	movb	%dl, -60(%rbp)
	testb	$1, %al
	jne	LBB43_30
	jmp	LBB43_29
LBB43_28:
	.loc	16 495 25
	leaq	_str.0(%rip), %rdi
	leaq	l___unnamed_13(%rip), %rdx
	movl	$33, %esi
	callq	__ZN4core9panicking5panic17hc1bc45270cf64b03E
LBB43_29:
	.loc	16 0 25 is_stmt 0
	movb	-60(%rbp), %al
	.loc	16 496 25 is_stmt 1
	movb	%al, -44(%rbp)
	.loc	16 491 21
	jmp	LBB43_18
LBB43_30:
	.loc	16 496 25
	leaq	_str.4(%rip), %rdi
	leaq	l___unnamed_13(%rip), %rdx
	movl	$36, %esi
	callq	__ZN4core9panicking5panic17hc1bc45270cf64b03E
LBB43_31:
	.loc	16 0 25 is_stmt 0
	movb	-56(%rbp), %al
	.loc	16 499 17 is_stmt 1
	movb	%al, -46(%rbp)
Ltmp384:
	.loc	16 500 14
	jmp	LBB43_6
LBB43_32:
Ltmp385:
	.loc	16 499 17
	leaq	_str.3(%rip), %rdi
	leaq	l___unnamed_13(%rip), %rdx
	movl	$35, %esi
	callq	__ZN4core9panicking5panic17hc1bc45270cf64b03E
Ltmp386:
Lfunc_end43:
	.cfi_endproc

	.p2align	4, 0x90
__ZN43_$LT$u8$u20$as$u20$num_integer..Integer$GT$3gcd17h5dd3e8f3858786e9E:
Lfunc_begin44:
	.loc	16 855 0
	.cfi_startproc
	pushq	%rbp
	.cfi_def_cfa_offset 16
	.cfi_offset %rbp, -16
	movq	%rsp, %rbp
	.cfi_def_cfa_register %rbp
	subq	$64, %rsp
	movq	%rdi, -32(%rbp)
	movq	%rsi, -24(%rbp)
Ltmp387:
	.loc	16 857 29 prologue_end
	movb	(%rdi), %al
	movb	%al, -35(%rbp)
Ltmp388:
	.loc	16 858 29
	movb	(%rsi), %al
	movb	%al, -34(%rbp)
Ltmp389:
	.loc	16 859 20
	cmpb	$0, -35(%rbp)
	jne	LBB44_2
	movb	$1, -33(%rbp)
	jmp	LBB44_3
LBB44_2:
	.loc	16 859 30 is_stmt 0
	cmpb	$0, -34(%rbp)
	sete	%al
	.loc	16 859 20
	andb	$1, %al
	movb	%al, -33(%rbp)
LBB44_3:
	testb	$1, -33(%rbp)
	jne	LBB44_5
	.loc	16 864 30 is_stmt 1
	movb	-35(%rbp), %al
	.loc	16 864 29 is_stmt 0
	orb	-34(%rbp), %al
	movb	%al, -2(%rbp)
Ltmp390:
	.loc	9 152 13 is_stmt 1
	movzbl	%al, %eax
	orl	$256, %eax
	bsfl	%eax, %eax
	movl	$32, %ecx
	cmovel	%ecx, %eax
	movb	%al, -1(%rbp)
	movzbl	-1(%rbp), %eax
	movl	%eax, -44(%rbp)
Ltmp391:
	.loc	16 864 29
	movl	%eax, -16(%rbp)
Ltmp392:
	.loc	16 867 23
	movb	-35(%rbp), %al
	movb	%al, -4(%rbp)
Ltmp393:
	.loc	9 152 13
	movzbl	%al, %eax
	orl	$256, %eax
	bsfl	%eax, %eax
	movl	$32, %ecx
	cmovel	%ecx, %eax
	movb	%al, -3(%rbp)
	movzbl	-3(%rbp), %ecx
Ltmp394:
	.loc	16 867 17
	movb	-35(%rbp), %dl
	movl	%ecx, %eax
	andl	$-8, %eax
	cmpl	$0, %eax
	setne	%al
	andb	$7, %cl
	shrb	%cl, %dl
	movb	%dl, -37(%rbp)
	testb	$1, %al
	jne	LBB44_8
	jmp	LBB44_7
Ltmp395:
LBB44_5:
	.loc	16 860 28
	movb	-35(%rbp), %al
	orb	-34(%rbp), %al
	movb	%al, -36(%rbp)
Ltmp396:
LBB44_6:
	.loc	16 880 14
	movb	-36(%rbp), %al
	addq	$64, %rsp
	popq	%rbp
	retq
LBB44_7:
	.loc	16 0 14 is_stmt 0
	movb	-37(%rbp), %al
Ltmp397:
	.loc	16 867 17 is_stmt 1
	movb	%al, -35(%rbp)
	.loc	16 868 23
	movb	-34(%rbp), %al
	movb	%al, -6(%rbp)
Ltmp398:
	.loc	9 152 13
	movzbl	%al, %eax
	orl	$256, %eax
	bsfl	%eax, %eax
	movl	$32, %ecx
	cmovel	%ecx, %eax
	movb	%al, -5(%rbp)
	movzbl	-5(%rbp), %ecx
Ltmp399:
	.loc	16 868 17
	movb	-34(%rbp), %dl
	movl	%ecx, %eax
	andl	$-8, %eax
	cmpl	$0, %eax
	setne	%al
	andb	$7, %cl
	shrb	%cl, %dl
	movb	%dl, -45(%rbp)
	testb	$1, %al
	jne	LBB44_10
	jmp	LBB44_9
LBB44_8:
	.loc	16 867 17
	leaq	_str.4(%rip), %rdi
	leaq	l___unnamed_14(%rip), %rdx
	movl	$36, %esi
	callq	__ZN4core9panicking5panic17hc1bc45270cf64b03E
LBB44_9:
	.loc	16 0 17 is_stmt 0
	movb	-45(%rbp), %al
	.loc	16 868 17 is_stmt 1
	movb	%al, -34(%rbp)
	.loc	16 870 17
	jmp	LBB44_11
LBB44_10:
	.loc	16 868 17
	leaq	_str.4(%rip), %rdi
	leaq	l___unnamed_14(%rip), %rdx
	movl	$36, %esi
	callq	__ZN4core9panicking5panic17hc1bc45270cf64b03E
LBB44_11:
	.loc	16 870 23
	movb	-35(%rbp), %al
	cmpb	-34(%rbp), %al
	jne	LBB44_13
	.loc	16 0 23 is_stmt 0
	movl	-44(%rbp), %ecx
	.loc	16 879 17 is_stmt 1
	movb	-35(%rbp), %dl
	movl	%ecx, %eax
	andl	$-8, %eax
	cmpl	$0, %eax
	setne	%al
	andb	$7, %cl
	shlb	%cl, %dl
	movb	%dl, -46(%rbp)
	testb	$1, %al
	jne	LBB44_25
	jmp	LBB44_24
LBB44_13:
	.loc	16 871 24
	movb	-35(%rbp), %al
	cmpb	-34(%rbp), %al
	ja	LBB44_15
	.loc	16 875 30
	movb	-35(%rbp), %cl
	.loc	16 875 25 is_stmt 0
	movb	-34(%rbp), %al
	movb	%al, %dl
	subb	%cl, %dl
	movb	%dl, -47(%rbp)
	cmpb	%cl, %al
	setb	%al
	testb	$1, %al
	jne	LBB44_21
	jmp	LBB44_20
LBB44_15:
	.loc	16 872 30 is_stmt 1
	movb	-34(%rbp), %cl
	.loc	16 872 25 is_stmt 0
	movb	-35(%rbp), %al
	movb	%al, %dl
	subb	%cl, %dl
	movb	%dl, -48(%rbp)
	cmpb	%cl, %al
	setb	%al
	testb	$1, %al
	jne	LBB44_17
	.loc	16 0 25
	movb	-48(%rbp), %al
	.loc	16 872 25
	movb	%al, -35(%rbp)
	.loc	16 873 31 is_stmt 1
	movb	-35(%rbp), %al
	movb	%al, -8(%rbp)
Ltmp400:
	.loc	9 152 13
	movzbl	%al, %eax
	orl	$256, %eax
	bsfl	%eax, %eax
	movl	$32, %ecx
	cmovel	%ecx, %eax
	movb	%al, -7(%rbp)
	movzbl	-7(%rbp), %ecx
Ltmp401:
	.loc	16 873 25
	movb	-35(%rbp), %dl
	movl	%ecx, %eax
	andl	$-8, %eax
	cmpl	$0, %eax
	setne	%al
	andb	$7, %cl
	shrb	%cl, %dl
	movb	%dl, -49(%rbp)
	testb	$1, %al
	jne	LBB44_19
	jmp	LBB44_18
LBB44_17:
	.loc	16 872 25
	leaq	_str.0(%rip), %rdi
	leaq	l___unnamed_14(%rip), %rdx
	movl	$33, %esi
	callq	__ZN4core9panicking5panic17hc1bc45270cf64b03E
LBB44_18:
	.loc	16 0 25 is_stmt 0
	movb	-49(%rbp), %al
	.loc	16 873 25 is_stmt 1
	movb	%al, -35(%rbp)
	.loc	16 871 21
	jmp	LBB44_11
LBB44_19:
	.loc	16 873 25
	leaq	_str.4(%rip), %rdi
	leaq	l___unnamed_14(%rip), %rdx
	movl	$36, %esi
	callq	__ZN4core9panicking5panic17hc1bc45270cf64b03E
LBB44_20:
	.loc	16 0 25 is_stmt 0
	movb	-47(%rbp), %al
	.loc	16 875 25 is_stmt 1
	movb	%al, -34(%rbp)
	.loc	16 876 31
	movb	-34(%rbp), %al
	movb	%al, -10(%rbp)
Ltmp402:
	.loc	9 152 13
	movzbl	%al, %eax
	orl	$256, %eax
	bsfl	%eax, %eax
	movl	$32, %ecx
	cmovel	%ecx, %eax
	movb	%al, -9(%rbp)
	movzbl	-9(%rbp), %ecx
Ltmp403:
	.loc	16 876 25
	movb	-34(%rbp), %dl
	movl	%ecx, %eax
	andl	$-8, %eax
	cmpl	$0, %eax
	setne	%al
	andb	$7, %cl
	shrb	%cl, %dl
	movb	%dl, -50(%rbp)
	testb	$1, %al
	jne	LBB44_23
	jmp	LBB44_22
LBB44_21:
	.loc	16 875 25
	leaq	_str.0(%rip), %rdi
	leaq	l___unnamed_14(%rip), %rdx
	movl	$33, %esi
	callq	__ZN4core9panicking5panic17hc1bc45270cf64b03E
LBB44_22:
	.loc	16 0 25 is_stmt 0
	movb	-50(%rbp), %al
	.loc	16 876 25 is_stmt 1
	movb	%al, -34(%rbp)
	.loc	16 871 21
	jmp	LBB44_11
LBB44_23:
	.loc	16 876 25
	leaq	_str.4(%rip), %rdi
	leaq	l___unnamed_14(%rip), %rdx
	movl	$36, %esi
	callq	__ZN4core9panicking5panic17hc1bc45270cf64b03E
LBB44_24:
	.loc	16 0 25 is_stmt 0
	movb	-46(%rbp), %al
	.loc	16 879 17 is_stmt 1
	movb	%al, -36(%rbp)
Ltmp404:
	.loc	16 880 14
	jmp	LBB44_6
LBB44_25:
Ltmp405:
	.loc	16 879 17
	leaq	_str.3(%rip), %rdi
	leaq	l___unnamed_14(%rip), %rdx
	movl	$35, %esi
	callq	__ZN4core9panicking5panic17hc1bc45270cf64b03E
Ltmp406:
Lfunc_end44:
	.cfi_endproc

	.p2align	4, 0x90
__ZN44_$LT$i16$u20$as$u20$num_integer..Integer$GT$3gcd17h100cf5df8c262ea8E:
Lfunc_begin45:
	.loc	16 459 0
	.cfi_startproc
	pushq	%rbp
	.cfi_def_cfa_offset 16
	.cfi_offset %rbp, -16
	movq	%rsp, %rbp
	.cfi_def_cfa_register %rbp
	subq	$96, %rsp
	movq	%rdi, -56(%rbp)
	movq	%rsi, -48(%rbp)
Ltmp407:
	.loc	16 461 29 prologue_end
	movw	(%rdi), %ax
	movw	%ax, -64(%rbp)
Ltmp408:
	.loc	16 462 29
	movw	(%rsi), %ax
	movw	%ax, -62(%rbp)
Ltmp409:
	.loc	16 463 20
	cmpw	$0, -64(%rbp)
	jne	LBB45_2
	movb	$1, -60(%rbp)
	jmp	LBB45_3
LBB45_2:
	.loc	16 463 30 is_stmt 0
	cmpw	$0, -62(%rbp)
	sete	%al
	.loc	16 463 20
	andb	$1, %al
	movb	%al, -60(%rbp)
LBB45_3:
	testb	$1, -60(%rbp)
	jne	LBB45_5
	.loc	16 468 30 is_stmt 1
	movw	-64(%rbp), %ax
	.loc	16 468 29 is_stmt 0
	orw	-62(%rbp), %ax
	movw	%ax, -6(%rbp)
Ltmp410:
	.loc	17 149 13 is_stmt 1
	movw	%ax, -4(%rbp)
Ltmp411:
	.loc	9 152 13
	bsfw	%ax, %ax
	movw	$16, %cx
	cmovew	%cx, %ax
	movw	%ax, -2(%rbp)
	movzwl	-2(%rbp), %eax
	movl	%eax, -72(%rbp)
Ltmp412:
	.loc	16 468 29
	movl	%eax, -36(%rbp)
Ltmp413:
	.loc	16 478 20
	cmpw	$-32768, -64(%rbp)
	je	LBB45_8
	jmp	LBB45_7
Ltmp414:
LBB45_5:
	.loc	16 464 29
	movw	-64(%rbp), %ax
	.loc	16 464 28 is_stmt 0
	orw	-62(%rbp), %ax
	movzwl	%ax, %edi
	callq	__ZN4core3num21_$LT$impl$u20$i16$GT$3abs17h349b930dff4e2318E
	movw	%ax, -66(%rbp)
Ltmp415:
LBB45_6:
	.loc	16 500 14 is_stmt 1
	movw	-66(%rbp), %ax
	addq	$96, %rsp
	popq	%rbp
	retq
LBB45_7:
Ltmp416:
	.loc	16 478 46
	cmpw	$-32768, -62(%rbp)
	sete	%al
	.loc	16 478 20 is_stmt 0
	andb	$1, %al
	movb	%al, -59(%rbp)
	jmp	LBB45_9
LBB45_8:
	movb	$1, -59(%rbp)
LBB45_9:
	testb	$1, -59(%rbp)
	jne	LBB45_11
	.loc	16 483 21 is_stmt 1
	movzwl	-64(%rbp), %edi
	callq	__ZN4core3num21_$LT$impl$u20$i16$GT$3abs17h349b930dff4e2318E
	.loc	16 483 17 is_stmt 0
	movw	%ax, -64(%rbp)
	.loc	16 484 21 is_stmt 1
	movzwl	-62(%rbp), %edi
	callq	__ZN4core3num21_$LT$impl$u20$i16$GT$3abs17h349b930dff4e2318E
	.loc	16 484 17 is_stmt 0
	movw	%ax, -62(%rbp)
	.loc	16 487 23 is_stmt 1
	movw	-64(%rbp), %ax
	movw	%ax, -12(%rbp)
Ltmp417:
	.loc	17 149 13
	movw	%ax, -10(%rbp)
Ltmp418:
	.loc	9 152 13
	bsfw	%ax, %ax
	movw	$16, %cx
	cmovew	%cx, %ax
	movw	%ax, -8(%rbp)
	movzwl	-8(%rbp), %ecx
Ltmp419:
	.loc	16 487 17
	movw	-64(%rbp), %dx
	movl	%ecx, %eax
	andl	$-16, %eax
	cmpl	$0, %eax
	setne	%al
	andw	$15, %cx
	sarw	%cl, %dx
	movw	%dx, -74(%rbp)
	testb	$1, %al
	jne	LBB45_15
	jmp	LBB45_14
LBB45_11:
	.loc	16 0 17 is_stmt 0
	movl	-72(%rbp), %ecx
	.loc	16 479 28 is_stmt 1
	movl	%ecx, %eax
	andl	$-16, %eax
	cmpl	$0, %eax
	setne	%al
	andw	$15, %cx
	movw	$1, %dx
	shlw	%cl, %dx
	movw	%dx, -76(%rbp)
	testb	$1, %al
	jne	LBB45_13
	.loc	16 0 28 is_stmt 0
	movw	-76(%rbp), %ax
	.loc	16 479 28
	movw	%ax, -58(%rbp)
	leaq	-58(%rbp), %rdi
	callq	__ZN48_$LT$i16$u20$as$u20$num_traits..sign..Signed$GT$3abs17h2a2dfdec8e8d2b48E
	movw	%ax, -66(%rbp)
	jmp	LBB45_6
LBB45_13:
	leaq	_str.3(%rip), %rdi
	leaq	l___unnamed_15(%rip), %rdx
	movl	$35, %esi
	callq	__ZN4core9panicking5panic17hc1bc45270cf64b03E
LBB45_14:
	.loc	16 0 28
	movw	-74(%rbp), %ax
	.loc	16 487 17 is_stmt 1
	movw	%ax, -64(%rbp)
	.loc	16 488 23
	movw	-62(%rbp), %ax
	movw	%ax, -18(%rbp)
Ltmp420:
	.loc	17 149 13
	movw	%ax, -16(%rbp)
Ltmp421:
	.loc	9 152 13
	bsfw	%ax, %ax
	movw	$16, %cx
	cmovew	%cx, %ax
	movw	%ax, -14(%rbp)
	movzwl	-14(%rbp), %ecx
Ltmp422:
	.loc	16 488 17
	movw	-62(%rbp), %dx
	movl	%ecx, %eax
	andl	$-16, %eax
	cmpl	$0, %eax
	setne	%al
	andw	$15, %cx
	sarw	%cl, %dx
	movw	%dx, -78(%rbp)
	testb	$1, %al
	jne	LBB45_17
	jmp	LBB45_16
LBB45_15:
	.loc	16 487 17
	leaq	_str.4(%rip), %rdi
	leaq	l___unnamed_15(%rip), %rdx
	movl	$36, %esi
	callq	__ZN4core9panicking5panic17hc1bc45270cf64b03E
LBB45_16:
	.loc	16 0 17 is_stmt 0
	movw	-78(%rbp), %ax
	.loc	16 488 17 is_stmt 1
	movw	%ax, -62(%rbp)
	.loc	16 490 17
	jmp	LBB45_18
LBB45_17:
	.loc	16 488 17
	leaq	_str.4(%rip), %rdi
	leaq	l___unnamed_15(%rip), %rdx
	movl	$36, %esi
	callq	__ZN4core9panicking5panic17hc1bc45270cf64b03E
LBB45_18:
	.loc	16 490 23
	movw	-64(%rbp), %ax
	cmpw	-62(%rbp), %ax
	jne	LBB45_20
	.loc	16 0 23 is_stmt 0
	movl	-72(%rbp), %ecx
	.loc	16 499 17 is_stmt 1
	movw	-64(%rbp), %dx
	movl	%ecx, %eax
	andl	$-16, %eax
	cmpl	$0, %eax
	setne	%al
	andw	$15, %cx
	shlw	%cl, %dx
	movw	%dx, -80(%rbp)
	testb	$1, %al
	jne	LBB45_32
	jmp	LBB45_31
LBB45_20:
	.loc	16 491 24
	movw	-64(%rbp), %ax
	cmpw	-62(%rbp), %ax
	jg	LBB45_22
	.loc	16 495 30
	movw	-64(%rbp), %cx
	.loc	16 495 25 is_stmt 0
	movw	-62(%rbp), %ax
	subw	%cx, %ax
	movw	%ax, -82(%rbp)
	seto	%al
	testb	$1, %al
	jne	LBB45_28
	jmp	LBB45_27
LBB45_22:
	.loc	16 492 30 is_stmt 1
	movw	-62(%rbp), %cx
	.loc	16 492 25 is_stmt 0
	movw	-64(%rbp), %ax
	subw	%cx, %ax
	movw	%ax, -84(%rbp)
	seto	%al
	testb	$1, %al
	jne	LBB45_24
	.loc	16 0 25
	movw	-84(%rbp), %ax
	.loc	16 492 25
	movw	%ax, -64(%rbp)
	.loc	16 493 31 is_stmt 1
	movw	-64(%rbp), %ax
	movw	%ax, -24(%rbp)
Ltmp423:
	.loc	17 149 13
	movw	%ax, -22(%rbp)
Ltmp424:
	.loc	9 152 13
	bsfw	%ax, %ax
	movw	$16, %cx
	cmovew	%cx, %ax
	movw	%ax, -20(%rbp)
	movzwl	-20(%rbp), %ecx
Ltmp425:
	.loc	16 493 25
	movw	-64(%rbp), %dx
	movl	%ecx, %eax
	andl	$-16, %eax
	cmpl	$0, %eax
	setne	%al
	andw	$15, %cx
	sarw	%cl, %dx
	movw	%dx, -86(%rbp)
	testb	$1, %al
	jne	LBB45_26
	jmp	LBB45_25
LBB45_24:
	.loc	16 492 25
	leaq	_str.0(%rip), %rdi
	leaq	l___unnamed_15(%rip), %rdx
	movl	$33, %esi
	callq	__ZN4core9panicking5panic17hc1bc45270cf64b03E
LBB45_25:
	.loc	16 0 25 is_stmt 0
	movw	-86(%rbp), %ax
	.loc	16 493 25 is_stmt 1
	movw	%ax, -64(%rbp)
	.loc	16 491 21
	jmp	LBB45_18
LBB45_26:
	.loc	16 493 25
	leaq	_str.4(%rip), %rdi
	leaq	l___unnamed_15(%rip), %rdx
	movl	$36, %esi
	callq	__ZN4core9panicking5panic17hc1bc45270cf64b03E
LBB45_27:
	.loc	16 0 25 is_stmt 0
	movw	-82(%rbp), %ax
	.loc	16 495 25 is_stmt 1
	movw	%ax, -62(%rbp)
	.loc	16 496 31
	movw	-62(%rbp), %ax
	movw	%ax, -30(%rbp)
Ltmp426:
	.loc	17 149 13
	movw	%ax, -28(%rbp)
Ltmp427:
	.loc	9 152 13
	bsfw	%ax, %ax
	movw	$16, %cx
	cmovew	%cx, %ax
	movw	%ax, -26(%rbp)
	movzwl	-26(%rbp), %ecx
Ltmp428:
	.loc	16 496 25
	movw	-62(%rbp), %dx
	movl	%ecx, %eax
	andl	$-16, %eax
	cmpl	$0, %eax
	setne	%al
	andw	$15, %cx
	sarw	%cl, %dx
	movw	%dx, -88(%rbp)
	testb	$1, %al
	jne	LBB45_30
	jmp	LBB45_29
LBB45_28:
	.loc	16 495 25
	leaq	_str.0(%rip), %rdi
	leaq	l___unnamed_15(%rip), %rdx
	movl	$33, %esi
	callq	__ZN4core9panicking5panic17hc1bc45270cf64b03E
LBB45_29:
	.loc	16 0 25 is_stmt 0
	movw	-88(%rbp), %ax
	.loc	16 496 25 is_stmt 1
	movw	%ax, -62(%rbp)
	.loc	16 491 21
	jmp	LBB45_18
LBB45_30:
	.loc	16 496 25
	leaq	_str.4(%rip), %rdi
	leaq	l___unnamed_15(%rip), %rdx
	movl	$36, %esi
	callq	__ZN4core9panicking5panic17hc1bc45270cf64b03E
LBB45_31:
	.loc	16 0 25 is_stmt 0
	movw	-80(%rbp), %ax
	.loc	16 499 17 is_stmt 1
	movw	%ax, -66(%rbp)
Ltmp429:
	.loc	16 500 14
	jmp	LBB45_6
LBB45_32:
Ltmp430:
	.loc	16 499 17
	leaq	_str.3(%rip), %rdi
	leaq	l___unnamed_15(%rip), %rdx
	movl	$35, %esi
	callq	__ZN4core9panicking5panic17hc1bc45270cf64b03E
Ltmp431:
Lfunc_end45:
	.cfi_endproc

	.p2align	4, 0x90
__ZN44_$LT$i32$u20$as$u20$num_integer..Integer$GT$3gcd17hcbc02e19fc750193E:
Lfunc_begin46:
	.loc	16 459 0
	.cfi_startproc
	pushq	%rbp
	.cfi_def_cfa_offset 16
	.cfi_offset %rbp, -16
	movq	%rsp, %rbp
	.cfi_def_cfa_register %rbp
	subq	$144, %rsp
	movq	%rdi, -80(%rbp)
	movq	%rsi, -72(%rbp)
Ltmp432:
	.loc	16 461 29 prologue_end
	movl	(%rdi), %eax
	movl	%eax, -96(%rbp)
Ltmp433:
	.loc	16 462 29
	movl	(%rsi), %eax
	movl	%eax, -92(%rbp)
Ltmp434:
	.loc	16 463 20
	cmpl	$0, -96(%rbp)
	jne	LBB46_2
	movb	$1, -86(%rbp)
	jmp	LBB46_3
LBB46_2:
	.loc	16 463 30 is_stmt 0
	cmpl	$0, -92(%rbp)
	sete	%al
	.loc	16 463 20
	andb	$1, %al
	movb	%al, -86(%rbp)
LBB46_3:
	testb	$1, -86(%rbp)
	jne	LBB46_5
	.loc	16 468 30 is_stmt 1
	movl	-96(%rbp), %eax
	.loc	16 468 29 is_stmt 0
	orl	-92(%rbp), %eax
	movl	%eax, -12(%rbp)
Ltmp435:
	.loc	17 149 13 is_stmt 1
	movl	%eax, -8(%rbp)
Ltmp436:
	.loc	9 152 13
	bsfl	%eax, %eax
	movl	$32, %ecx
	cmovel	%ecx, %eax
	movl	%eax, -4(%rbp)
	movl	-4(%rbp), %eax
	movl	%eax, -104(%rbp)
Ltmp437:
	.loc	16 468 29
	movl	%eax, -64(%rbp)
Ltmp438:
	.loc	16 478 20
	cmpl	$-2147483648, -96(%rbp)
	je	LBB46_8
	jmp	LBB46_7
Ltmp439:
LBB46_5:
	.loc	16 464 29
	movl	-96(%rbp), %edi
	.loc	16 464 28 is_stmt 0
	orl	-92(%rbp), %edi
	callq	__ZN4core3num21_$LT$impl$u20$i32$GT$3abs17hf80e20eb6bf871f7E
	movl	%eax, -100(%rbp)
Ltmp440:
LBB46_6:
	.loc	16 500 14 is_stmt 1
	movl	-100(%rbp), %eax
	addq	$144, %rsp
	popq	%rbp
	retq
LBB46_7:
Ltmp441:
	.loc	16 478 46
	cmpl	$-2147483648, -92(%rbp)
	sete	%al
	.loc	16 478 20 is_stmt 0
	andb	$1, %al
	movb	%al, -85(%rbp)
	jmp	LBB46_9
LBB46_8:
	movb	$1, -85(%rbp)
LBB46_9:
	testb	$1, -85(%rbp)
	jne	LBB46_11
	.loc	16 483 21 is_stmt 1
	movl	-96(%rbp), %edi
	callq	__ZN4core3num21_$LT$impl$u20$i32$GT$3abs17hf80e20eb6bf871f7E
	.loc	16 483 17 is_stmt 0
	movl	%eax, -96(%rbp)
	.loc	16 484 21 is_stmt 1
	movl	-92(%rbp), %edi
	callq	__ZN4core3num21_$LT$impl$u20$i32$GT$3abs17hf80e20eb6bf871f7E
	.loc	16 484 17 is_stmt 0
	movl	%eax, -92(%rbp)
	.loc	16 487 23 is_stmt 1
	movl	-96(%rbp), %eax
	movl	%eax, -24(%rbp)
Ltmp442:
	.loc	17 149 13
	movl	%eax, -20(%rbp)
Ltmp443:
	.loc	9 152 13
	bsfl	%eax, %eax
	movl	$32, %ecx
	cmovel	%ecx, %eax
	movl	%eax, -16(%rbp)
	movl	-16(%rbp), %ecx
Ltmp444:
	.loc	16 487 17
	movl	-96(%rbp), %edx
	movl	%ecx, %eax
	andl	$-32, %eax
	cmpl	$0, %eax
	setne	%al
	andl	$31, %ecx
	sarl	%cl, %edx
	movl	%edx, -108(%rbp)
	testb	$1, %al
	jne	LBB46_15
	jmp	LBB46_14
LBB46_11:
	.loc	16 0 17 is_stmt 0
	movl	-104(%rbp), %ecx
	.loc	16 479 28 is_stmt 1
	movl	%ecx, %eax
	andl	$-32, %eax
	cmpl	$0, %eax
	setne	%al
	andl	$31, %ecx
	movl	$1, %edx
	shll	%cl, %edx
	movl	%edx, -112(%rbp)
	testb	$1, %al
	jne	LBB46_13
	.loc	16 0 28 is_stmt 0
	movl	-112(%rbp), %eax
	.loc	16 479 28
	movl	%eax, -84(%rbp)
	leaq	-84(%rbp), %rdi
	callq	__ZN48_$LT$i32$u20$as$u20$num_traits..sign..Signed$GT$3abs17hca47880222ae5862E
	movl	%eax, -100(%rbp)
	jmp	LBB46_6
LBB46_13:
	leaq	_str.3(%rip), %rdi
	leaq	l___unnamed_16(%rip), %rdx
	movl	$35, %esi
	callq	__ZN4core9panicking5panic17hc1bc45270cf64b03E
LBB46_14:
	.loc	16 0 28
	movl	-108(%rbp), %eax
	.loc	16 487 17 is_stmt 1
	movl	%eax, -96(%rbp)
	.loc	16 488 23
	movl	-92(%rbp), %eax
	movl	%eax, -36(%rbp)
Ltmp445:
	.loc	17 149 13
	movl	%eax, -32(%rbp)
Ltmp446:
	.loc	9 152 13
	bsfl	%eax, %eax
	movl	$32, %ecx
	cmovel	%ecx, %eax
	movl	%eax, -28(%rbp)
	movl	-28(%rbp), %ecx
Ltmp447:
	.loc	16 488 17
	movl	-92(%rbp), %edx
	movl	%ecx, %eax
	andl	$-32, %eax
	cmpl	$0, %eax
	setne	%al
	andl	$31, %ecx
	sarl	%cl, %edx
	movl	%edx, -116(%rbp)
	testb	$1, %al
	jne	LBB46_17
	jmp	LBB46_16
LBB46_15:
	.loc	16 487 17
	leaq	_str.4(%rip), %rdi
	leaq	l___unnamed_16(%rip), %rdx
	movl	$36, %esi
	callq	__ZN4core9panicking5panic17hc1bc45270cf64b03E
LBB46_16:
	.loc	16 0 17 is_stmt 0
	movl	-116(%rbp), %eax
	.loc	16 488 17 is_stmt 1
	movl	%eax, -92(%rbp)
	.loc	16 490 17
	jmp	LBB46_18
LBB46_17:
	.loc	16 488 17
	leaq	_str.4(%rip), %rdi
	leaq	l___unnamed_16(%rip), %rdx
	movl	$36, %esi
	callq	__ZN4core9panicking5panic17hc1bc45270cf64b03E
LBB46_18:
	.loc	16 490 23
	movl	-96(%rbp), %eax
	cmpl	-92(%rbp), %eax
	jne	LBB46_20
	.loc	16 0 23 is_stmt 0
	movl	-104(%rbp), %ecx
	.loc	16 499 17 is_stmt 1
	movl	-96(%rbp), %edx
	movl	%ecx, %eax
	andl	$-32, %eax
	cmpl	$0, %eax
	setne	%al
	andl	$31, %ecx
	shll	%cl, %edx
	movl	%edx, -120(%rbp)
	testb	$1, %al
	jne	LBB46_32
	jmp	LBB46_31
LBB46_20:
	.loc	16 491 24
	movl	-96(%rbp), %eax
	cmpl	-92(%rbp), %eax
	jg	LBB46_22
	.loc	16 495 30
	movl	-96(%rbp), %ecx
	.loc	16 495 25 is_stmt 0
	movl	-92(%rbp), %eax
	subl	%ecx, %eax
	movl	%eax, -124(%rbp)
	seto	%al
	testb	$1, %al
	jne	LBB46_28
	jmp	LBB46_27
LBB46_22:
	.loc	16 492 30 is_stmt 1
	movl	-92(%rbp), %ecx
	.loc	16 492 25 is_stmt 0
	movl	-96(%rbp), %eax
	subl	%ecx, %eax
	movl	%eax, -128(%rbp)
	seto	%al
	testb	$1, %al
	jne	LBB46_24
	.loc	16 0 25
	movl	-128(%rbp), %eax
	.loc	16 492 25
	movl	%eax, -96(%rbp)
	.loc	16 493 31 is_stmt 1
	movl	-96(%rbp), %eax
	movl	%eax, -48(%rbp)
Ltmp448:
	.loc	17 149 13
	movl	%eax, -44(%rbp)
Ltmp449:
	.loc	9 152 13
	bsfl	%eax, %eax
	movl	$32, %ecx
	cmovel	%ecx, %eax
	movl	%eax, -40(%rbp)
	movl	-40(%rbp), %ecx
Ltmp450:
	.loc	16 493 25
	movl	-96(%rbp), %edx
	movl	%ecx, %eax
	andl	$-32, %eax
	cmpl	$0, %eax
	setne	%al
	andl	$31, %ecx
	sarl	%cl, %edx
	movl	%edx, -132(%rbp)
	testb	$1, %al
	jne	LBB46_26
	jmp	LBB46_25
LBB46_24:
	.loc	16 492 25
	leaq	_str.0(%rip), %rdi
	leaq	l___unnamed_16(%rip), %rdx
	movl	$33, %esi
	callq	__ZN4core9panicking5panic17hc1bc45270cf64b03E
LBB46_25:
	.loc	16 0 25 is_stmt 0
	movl	-132(%rbp), %eax
	.loc	16 493 25 is_stmt 1
	movl	%eax, -96(%rbp)
	.loc	16 491 21
	jmp	LBB46_18
LBB46_26:
	.loc	16 493 25
	leaq	_str.4(%rip), %rdi
	leaq	l___unnamed_16(%rip), %rdx
	movl	$36, %esi
	callq	__ZN4core9panicking5panic17hc1bc45270cf64b03E
LBB46_27:
	.loc	16 0 25 is_stmt 0
	movl	-124(%rbp), %eax
	.loc	16 495 25 is_stmt 1
	movl	%eax, -92(%rbp)
	.loc	16 496 31
	movl	-92(%rbp), %eax
	movl	%eax, -60(%rbp)
Ltmp451:
	.loc	17 149 13
	movl	%eax, -56(%rbp)
Ltmp452:
	.loc	9 152 13
	bsfl	%eax, %eax
	movl	$32, %ecx
	cmovel	%ecx, %eax
	movl	%eax, -52(%rbp)
	movl	-52(%rbp), %ecx
Ltmp453:
	.loc	16 496 25
	movl	-92(%rbp), %edx
	movl	%ecx, %eax
	andl	$-32, %eax
	cmpl	$0, %eax
	setne	%al
	andl	$31, %ecx
	sarl	%cl, %edx
	movl	%edx, -136(%rbp)
	testb	$1, %al
	jne	LBB46_30
	jmp	LBB46_29
LBB46_28:
	.loc	16 495 25
	leaq	_str.0(%rip), %rdi
	leaq	l___unnamed_16(%rip), %rdx
	movl	$33, %esi
	callq	__ZN4core9panicking5panic17hc1bc45270cf64b03E
LBB46_29:
	.loc	16 0 25 is_stmt 0
	movl	-136(%rbp), %eax
	.loc	16 496 25 is_stmt 1
	movl	%eax, -92(%rbp)
	.loc	16 491 21
	jmp	LBB46_18
LBB46_30:
	.loc	16 496 25
	leaq	_str.4(%rip), %rdi
	leaq	l___unnamed_16(%rip), %rdx
	movl	$36, %esi
	callq	__ZN4core9panicking5panic17hc1bc45270cf64b03E
LBB46_31:
	.loc	16 0 25 is_stmt 0
	movl	-120(%rbp), %eax
	.loc	16 499 17 is_stmt 1
	movl	%eax, -100(%rbp)
Ltmp454:
	.loc	16 500 14
	jmp	LBB46_6
LBB46_32:
Ltmp455:
	.loc	16 499 17
	leaq	_str.3(%rip), %rdi
	leaq	l___unnamed_16(%rip), %rdx
	movl	$35, %esi
	callq	__ZN4core9panicking5panic17hc1bc45270cf64b03E
Ltmp456:
Lfunc_end46:
	.cfi_endproc

	.p2align	4, 0x90
__ZN44_$LT$i64$u20$as$u20$num_integer..Integer$GT$3gcd17h8f0744cb61af2bf5E:
Lfunc_begin47:
	.loc	16 459 0
	.cfi_startproc
	pushq	%rbp
	.cfi_def_cfa_offset 16
	.cfi_offset %rbp, -16
	movq	%rsp, %rbp
	.cfi_def_cfa_register %rbp
	subq	$256, %rsp
	movq	%rdi, -144(%rbp)
	movq	%rsi, -136(%rbp)
Ltmp457:
	.loc	16 461 29 prologue_end
	movq	(%rdi), %rax
	movq	%rax, -176(%rbp)
Ltmp458:
	.loc	16 462 29
	movq	(%rsi), %rax
	movq	%rax, -168(%rbp)
Ltmp459:
	.loc	16 463 20
	cmpq	$0, -176(%rbp)
	jne	LBB47_2
	movb	$1, -154(%rbp)
	jmp	LBB47_3
LBB47_2:
	.loc	16 463 30 is_stmt 0
	cmpq	$0, -168(%rbp)
	sete	%al
	.loc	16 463 20
	andb	$1, %al
	movb	%al, -154(%rbp)
LBB47_3:
	testb	$1, -154(%rbp)
	jne	LBB47_5
	.loc	16 468 30 is_stmt 1
	movq	-176(%rbp), %rax
	.loc	16 468 29 is_stmt 0
	orq	-168(%rbp), %rax
	movq	%rax, -24(%rbp)
Ltmp460:
	.loc	17 149 13 is_stmt 1
	movq	%rax, -16(%rbp)
Ltmp461:
	.loc	9 152 13
	bsfq	%rax, %rax
	movl	$64, %ecx
	cmoveq	%rcx, %rax
	movq	%rax, -8(%rbp)
	movq	-8(%rbp), %rax
	movl	%eax, -188(%rbp)
Ltmp462:
	.loc	16 468 29
	movl	%eax, -124(%rbp)
Ltmp463:
	.loc	16 478 20
	movabsq	$-9223372036854775808, %rax
	cmpq	%rax, -176(%rbp)
	je	LBB47_8
	jmp	LBB47_7
Ltmp464:
LBB47_5:
	.loc	16 464 29
	movq	-176(%rbp), %rdi
	.loc	16 464 28 is_stmt 0
	orq	-168(%rbp), %rdi
	callq	__ZN4core3num21_$LT$impl$u20$i64$GT$3abs17h473a0aed7133568dE
	movq	%rax, -184(%rbp)
Ltmp465:
LBB47_6:
	.loc	16 500 14 is_stmt 1
	movq	-184(%rbp), %rax
	addq	$256, %rsp
	popq	%rbp
	retq
LBB47_7:
Ltmp466:
	.loc	16 478 46
	movabsq	$-9223372036854775808, %rax
	cmpq	%rax, -168(%rbp)
	sete	%al
	.loc	16 478 20 is_stmt 0
	andb	$1, %al
	movb	%al, -153(%rbp)
	jmp	LBB47_9
LBB47_8:
	movb	$1, -153(%rbp)
LBB47_9:
	testb	$1, -153(%rbp)
	jne	LBB47_11
	.loc	16 483 21 is_stmt 1
	movq	-176(%rbp), %rdi
	callq	__ZN4core3num21_$LT$impl$u20$i64$GT$3abs17h473a0aed7133568dE
	.loc	16 483 17 is_stmt 0
	movq	%rax, -176(%rbp)
	.loc	16 484 21 is_stmt 1
	movq	-168(%rbp), %rdi
	callq	__ZN4core3num21_$LT$impl$u20$i64$GT$3abs17h473a0aed7133568dE
	.loc	16 484 17 is_stmt 0
	movq	%rax, -168(%rbp)
	.loc	16 487 23 is_stmt 1
	movq	-176(%rbp), %rax
	movq	%rax, -48(%rbp)
Ltmp467:
	.loc	17 149 13
	movq	%rax, -40(%rbp)
Ltmp468:
	.loc	9 152 13
	bsfq	%rax, %rax
	movl	$64, %ecx
	cmoveq	%rcx, %rax
	movq	%rax, -32(%rbp)
	movq	-32(%rbp), %rax
	movl	%eax, %ecx
Ltmp469:
	.loc	16 487 17
	movq	-176(%rbp), %rdx
	movl	%ecx, %eax
	andl	$-64, %eax
	cmpl	$0, %eax
	setne	%al
	movl	%ecx, %ecx
	andq	$63, %rcx
	sarq	%cl, %rdx
	movq	%rdx, -200(%rbp)
	testb	$1, %al
	jne	LBB47_15
	jmp	LBB47_14
LBB47_11:
	.loc	16 0 17 is_stmt 0
	movl	-188(%rbp), %ecx
	.loc	16 479 28 is_stmt 1
	movl	%ecx, %eax
	andl	$-64, %eax
	cmpl	$0, %eax
	setne	%al
	movl	%ecx, %ecx
	andq	$63, %rcx
	movl	$1, %edx
	shlq	%cl, %rdx
	movq	%rdx, -208(%rbp)
	testb	$1, %al
	jne	LBB47_13
	.loc	16 0 28 is_stmt 0
	movq	-208(%rbp), %rax
	.loc	16 479 28
	movq	%rax, -152(%rbp)
	leaq	-152(%rbp), %rdi
	callq	__ZN48_$LT$i64$u20$as$u20$num_traits..sign..Signed$GT$3abs17h5c1deafa40a1a2b0E
	movq	%rax, -184(%rbp)
	jmp	LBB47_6
LBB47_13:
	leaq	_str.3(%rip), %rdi
	leaq	l___unnamed_17(%rip), %rdx
	movl	$35, %esi
	callq	__ZN4core9panicking5panic17hc1bc45270cf64b03E
LBB47_14:
	.loc	16 0 28
	movq	-200(%rbp), %rax
	.loc	16 487 17 is_stmt 1
	movq	%rax, -176(%rbp)
	.loc	16 488 23
	movq	-168(%rbp), %rax
	movq	%rax, -72(%rbp)
Ltmp470:
	.loc	17 149 13
	movq	%rax, -64(%rbp)
Ltmp471:
	.loc	9 152 13
	bsfq	%rax, %rax
	movl	$64, %ecx
	cmoveq	%rcx, %rax
	movq	%rax, -56(%rbp)
	movq	-56(%rbp), %rax
	movl	%eax, %ecx
Ltmp472:
	.loc	16 488 17
	movq	-168(%rbp), %rdx
	movl	%ecx, %eax
	andl	$-64, %eax
	cmpl	$0, %eax
	setne	%al
	movl	%ecx, %ecx
	andq	$63, %rcx
	sarq	%cl, %rdx
	movq	%rdx, -216(%rbp)
	testb	$1, %al
	jne	LBB47_17
	jmp	LBB47_16
LBB47_15:
	.loc	16 487 17
	leaq	_str.4(%rip), %rdi
	leaq	l___unnamed_17(%rip), %rdx
	movl	$36, %esi
	callq	__ZN4core9panicking5panic17hc1bc45270cf64b03E
LBB47_16:
	.loc	16 0 17 is_stmt 0
	movq	-216(%rbp), %rax
	.loc	16 488 17 is_stmt 1
	movq	%rax, -168(%rbp)
	.loc	16 490 17
	jmp	LBB47_18
LBB47_17:
	.loc	16 488 17
	leaq	_str.4(%rip), %rdi
	leaq	l___unnamed_17(%rip), %rdx
	movl	$36, %esi
	callq	__ZN4core9panicking5panic17hc1bc45270cf64b03E
LBB47_18:
	.loc	16 490 23
	movq	-176(%rbp), %rax
	cmpq	-168(%rbp), %rax
	jne	LBB47_20
	.loc	16 0 23 is_stmt 0
	movl	-188(%rbp), %ecx
	.loc	16 499 17 is_stmt 1
	movq	-176(%rbp), %rdx
	movl	%ecx, %eax
	andl	$-64, %eax
	cmpl	$0, %eax
	setne	%al
	movl	%ecx, %ecx
	andq	$63, %rcx
	shlq	%cl, %rdx
	movq	%rdx, -224(%rbp)
	testb	$1, %al
	jne	LBB47_32
	jmp	LBB47_31
LBB47_20:
	.loc	16 491 24
	movq	-176(%rbp), %rax
	cmpq	-168(%rbp), %rax
	jg	LBB47_22
	.loc	16 495 30
	movq	-176(%rbp), %rcx
	.loc	16 495 25 is_stmt 0
	movq	-168(%rbp), %rax
	subq	%rcx, %rax
	movq	%rax, -232(%rbp)
	seto	%al
	testb	$1, %al
	jne	LBB47_28
	jmp	LBB47_27
LBB47_22:
	.loc	16 492 30 is_stmt 1
	movq	-168(%rbp), %rcx
	.loc	16 492 25 is_stmt 0
	movq	-176(%rbp), %rax
	subq	%rcx, %rax
	movq	%rax, -240(%rbp)
	seto	%al
	testb	$1, %al
	jne	LBB47_24
	.loc	16 0 25
	movq	-240(%rbp), %rax
	.loc	16 492 25
	movq	%rax, -176(%rbp)
	.loc	16 493 31 is_stmt 1
	movq	-176(%rbp), %rax
	movq	%rax, -96(%rbp)
Ltmp473:
	.loc	17 149 13
	movq	%rax, -88(%rbp)
Ltmp474:
	.loc	9 152 13
	bsfq	%rax, %rax
	movl	$64, %ecx
	cmoveq	%rcx, %rax
	movq	%rax, -80(%rbp)
	movq	-80(%rbp), %rax
	movl	%eax, %ecx
Ltmp475:
	.loc	16 493 25
	movq	-176(%rbp), %rdx
	movl	%ecx, %eax
	andl	$-64, %eax
	cmpl	$0, %eax
	setne	%al
	movl	%ecx, %ecx
	andq	$63, %rcx
	sarq	%cl, %rdx
	movq	%rdx, -248(%rbp)
	testb	$1, %al
	jne	LBB47_26
	jmp	LBB47_25
LBB47_24:
	.loc	16 492 25
	leaq	_str.0(%rip), %rdi
	leaq	l___unnamed_17(%rip), %rdx
	movl	$33, %esi
	callq	__ZN4core9panicking5panic17hc1bc45270cf64b03E
LBB47_25:
	.loc	16 0 25 is_stmt 0
	movq	-248(%rbp), %rax
	.loc	16 493 25 is_stmt 1
	movq	%rax, -176(%rbp)
	.loc	16 491 21
	jmp	LBB47_18
LBB47_26:
	.loc	16 493 25
	leaq	_str.4(%rip), %rdi
	leaq	l___unnamed_17(%rip), %rdx
	movl	$36, %esi
	callq	__ZN4core9panicking5panic17hc1bc45270cf64b03E
LBB47_27:
	.loc	16 0 25 is_stmt 0
	movq	-232(%rbp), %rax
	.loc	16 495 25 is_stmt 1
	movq	%rax, -168(%rbp)
	.loc	16 496 31
	movq	-168(%rbp), %rax
	movq	%rax, -120(%rbp)
Ltmp476:
	.loc	17 149 13
	movq	%rax, -112(%rbp)
Ltmp477:
	.loc	9 152 13
	bsfq	%rax, %rax
	movl	$64, %ecx
	cmoveq	%rcx, %rax
	movq	%rax, -104(%rbp)
	movq	-104(%rbp), %rax
	movl	%eax, %ecx
Ltmp478:
	.loc	16 496 25
	movq	-168(%rbp), %rdx
	movl	%ecx, %eax
	andl	$-64, %eax
	cmpl	$0, %eax
	setne	%al
	movl	%ecx, %ecx
	andq	$63, %rcx
	sarq	%cl, %rdx
	movq	%rdx, -256(%rbp)
	testb	$1, %al
	jne	LBB47_30
	jmp	LBB47_29
LBB47_28:
	.loc	16 495 25
	leaq	_str.0(%rip), %rdi
	leaq	l___unnamed_17(%rip), %rdx
	movl	$33, %esi
	callq	__ZN4core9panicking5panic17hc1bc45270cf64b03E
LBB47_29:
	.loc	16 0 25 is_stmt 0
	movq	-256(%rbp), %rax
	.loc	16 496 25 is_stmt 1
	movq	%rax, -168(%rbp)
	.loc	16 491 21
	jmp	LBB47_18
LBB47_30:
	.loc	16 496 25
	leaq	_str.4(%rip), %rdi
	leaq	l___unnamed_17(%rip), %rdx
	movl	$36, %esi
	callq	__ZN4core9panicking5panic17hc1bc45270cf64b03E
LBB47_31:
	.loc	16 0 25 is_stmt 0
	movq	-224(%rbp), %rax
	.loc	16 499 17 is_stmt 1
	movq	%rax, -184(%rbp)
Ltmp479:
	.loc	16 500 14
	jmp	LBB47_6
LBB47_32:
Ltmp480:
	.loc	16 499 17
	leaq	_str.3(%rip), %rdi
	leaq	l___unnamed_17(%rip), %rdx
	movl	$35, %esi
	callq	__ZN4core9panicking5panic17hc1bc45270cf64b03E
Ltmp481:
Lfunc_end47:
	.cfi_endproc

	.p2align	4, 0x90
__ZN44_$LT$i8$u20$as$u20$core..ops..arith..Add$GT$3add17h010690d361d8f08dE:
Lfunc_begin48:
	.file	18 "/rustc/2c8cc343237b8f7d5a3c3703e3a87f2eb2c54a74/library/core/src/ops" "arith.rs"
	.loc	18 103 0
	.cfi_startproc
	pushq	%rbp
	.cfi_def_cfa_offset 16
	.cfi_offset %rbp, -16
	movq	%rsp, %rbp
	.cfi_def_cfa_register %rbp
	subq	$16, %rsp
	movb	%sil, %cl
	movb	%dil, %al
	movb	%al, -2(%rbp)
	movb	%cl, -1(%rbp)
Ltmp482:
	.loc	18 103 45 prologue_end
	addb	%cl, %al
	movb	%al, -3(%rbp)
	seto	%al
	testb	$1, %al
	jne	LBB48_2
	.loc	18 0 45 is_stmt 0
	movb	-3(%rbp), %al
	.loc	18 103 59
	addq	$16, %rsp
	popq	%rbp
	retq
LBB48_2:
	.loc	18 103 45
	leaq	_str.1(%rip), %rdi
	leaq	l___unnamed_18(%rip), %rdx
	movl	$28, %esi
	callq	__ZN4core9panicking5panic17hc1bc45270cf64b03E
Ltmp483:
Lfunc_end48:
	.cfi_endproc

	.p2align	4, 0x90
__ZN44_$LT$i8$u20$as$u20$core..ops..arith..Div$GT$3div17ha7e3de59aeed5ae4E:
Lfunc_begin49:
	.loc	18 481 0 is_stmt 1
	.cfi_startproc
	pushq	%rbp
	.cfi_def_cfa_offset 16
	.cfi_offset %rbp, -16
	movq	%rsp, %rbp
	.cfi_def_cfa_register %rbp
	subq	$16, %rsp
	movb	%sil, %al
	movb	%al, -4(%rbp)
	movb	%dil, %cl
	movb	%cl, -3(%rbp)
	movb	%cl, -2(%rbp)
	movb	%al, -1(%rbp)
Ltmp484:
	.loc	18 481 45 prologue_end
	cmpb	$0, %al
	sete	%al
	testb	$1, %al
	jne	LBB49_2
	.loc	18 0 45 is_stmt 0
	movb	-3(%rbp), %cl
	movb	-4(%rbp), %al
	.loc	18 481 45
	cmpb	$-1, %al
	sete	%al
	cmpb	$-128, %cl
	sete	%cl
	andb	%cl, %al
	testb	$1, %al
	jne	LBB49_4
	jmp	LBB49_3
LBB49_2:
	leaq	_str.5(%rip), %rdi
	leaq	l___unnamed_19(%rip), %rdx
	movl	$25, %esi
	callq	__ZN4core9panicking5panic17hc1bc45270cf64b03E
LBB49_3:
	.loc	18 0 45
	movb	-4(%rbp), %cl
	movb	-3(%rbp), %al
	.loc	18 481 45
	cbtw
	idivb	%cl
	.loc	18 481 59
	addq	$16, %rsp
	popq	%rbp
	retq
LBB49_4:
	.loc	18 481 45
	leaq	_str.6(%rip), %rdi
	leaq	l___unnamed_19(%rip), %rdx
	movl	$31, %esi
	callq	__ZN4core9panicking5panic17hc1bc45270cf64b03E
Ltmp485:
Lfunc_end49:
	.cfi_endproc

	.p2align	4, 0x90
__ZN44_$LT$i8$u20$as$u20$core..ops..arith..Mul$GT$3mul17hcc6de7a71085c62eE:
Lfunc_begin50:
	.loc	18 342 0 is_stmt 1
	.cfi_startproc
	pushq	%rbp
	.cfi_def_cfa_offset 16
	.cfi_offset %rbp, -16
	movq	%rsp, %rbp
	.cfi_def_cfa_register %rbp
	subq	$16, %rsp
	movb	%sil, %cl
	movb	%dil, %al
	movb	%al, -2(%rbp)
	movb	%cl, -1(%rbp)
Ltmp486:
	.loc	18 342 45 prologue_end
	imulb	%cl
	movb	%al, -3(%rbp)
	seto	%al
	testb	$1, %al
	jne	LBB50_2
	.loc	18 0 45 is_stmt 0
	movb	-3(%rbp), %al
	.loc	18 342 59
	addq	$16, %rsp
	popq	%rbp
	retq
LBB50_2:
	.loc	18 342 45
	leaq	_str.2(%rip), %rdi
	leaq	l___unnamed_20(%rip), %rdx
	movl	$33, %esi
	callq	__ZN4core9panicking5panic17hc1bc45270cf64b03E
Ltmp487:
Lfunc_end50:
	.cfi_endproc

	.p2align	4, 0x90
__ZN44_$LT$i8$u20$as$u20$core..ops..arith..Neg$GT$3neg17h40263e39917014b0E:
Lfunc_begin51:
	.loc	18 695 0 is_stmt 1
	.cfi_startproc
	pushq	%rbp
	.cfi_def_cfa_offset 16
	.cfi_offset %rbp, -16
	movq	%rsp, %rbp
	.cfi_def_cfa_register %rbp
	subq	$16, %rsp
	movb	%dil, %al
	movb	%al, -2(%rbp)
	movb	%al, -1(%rbp)
Ltmp488:
	.loc	18 695 34 prologue_end
	cmpb	$-128, %al
	sete	%al
	testb	$1, %al
	jne	LBB51_2
	.loc	18 0 34 is_stmt 0
	movb	-2(%rbp), %cl
	.loc	18 695 34
	xorl	%eax, %eax
	subb	%cl, %al
	.loc	18 695 41
	addq	$16, %rsp
	popq	%rbp
	retq
LBB51_2:
	.loc	18 695 34
	leaq	_str.7(%rip), %rdi
	leaq	l___unnamed_21(%rip), %rdx
	movl	$31, %esi
	callq	__ZN4core9panicking5panic17hc1bc45270cf64b03E
Ltmp489:
Lfunc_end51:
	.cfi_endproc

	.p2align	4, 0x90
__ZN44_$LT$i8$u20$as$u20$core..ops..arith..Sub$GT$3sub17hf825471ac376ef83E:
Lfunc_begin52:
	.loc	18 212 0 is_stmt 1
	.cfi_startproc
	pushq	%rbp
	.cfi_def_cfa_offset 16
	.cfi_offset %rbp, -16
	movq	%rsp, %rbp
	.cfi_def_cfa_register %rbp
	subq	$16, %rsp
	movb	%sil, %cl
	movb	%dil, %al
	movb	%al, -2(%rbp)
	movb	%cl, -1(%rbp)
Ltmp490:
	.loc	18 212 45 prologue_end
	subb	%cl, %al
	movb	%al, -3(%rbp)
	seto	%al
	testb	$1, %al
	jne	LBB52_2
	.loc	18 0 45 is_stmt 0
	movb	-3(%rbp), %al
	.loc	18 212 59
	addq	$16, %rsp
	popq	%rbp
	retq
LBB52_2:
	.loc	18 212 45
	leaq	_str.0(%rip), %rdi
	leaq	l___unnamed_22(%rip), %rdx
	movl	$33, %esi
	callq	__ZN4core9panicking5panic17hc1bc45270cf64b03E
Ltmp491:
Lfunc_end52:
	.cfi_endproc

	.p2align	4, 0x90
__ZN44_$LT$u16$u20$as$u20$num_integer..Integer$GT$3gcd17h61082c436c884139E:
Lfunc_begin53:
	.loc	16 855 0 is_stmt 1
	.cfi_startproc
	pushq	%rbp
	.cfi_def_cfa_offset 16
	.cfi_offset %rbp, -16
	movq	%rsp, %rbp
	.cfi_def_cfa_register %rbp
	subq	$80, %rsp
	movq	%rdi, -40(%rbp)
	movq	%rsi, -32(%rbp)
Ltmp492:
	.loc	16 857 29 prologue_end
	movw	(%rdi), %ax
	movw	%ax, -46(%rbp)
Ltmp493:
	.loc	16 858 29
	movw	(%rsi), %ax
	movw	%ax, -44(%rbp)
Ltmp494:
	.loc	16 859 20
	cmpw	$0, -46(%rbp)
	jne	LBB53_2
	movb	$1, -41(%rbp)
	jmp	LBB53_3
LBB53_2:
	.loc	16 859 30 is_stmt 0
	cmpw	$0, -44(%rbp)
	sete	%al
	.loc	16 859 20
	andb	$1, %al
	movb	%al, -41(%rbp)
LBB53_3:
	testb	$1, -41(%rbp)
	jne	LBB53_5
	.loc	16 864 30 is_stmt 1
	movw	-46(%rbp), %ax
	.loc	16 864 29 is_stmt 0
	orw	-44(%rbp), %ax
	movw	%ax, -4(%rbp)
Ltmp495:
	.loc	9 152 13 is_stmt 1
	bsfw	%ax, %ax
	movw	$16, %cx
	cmovew	%cx, %ax
	movw	%ax, -2(%rbp)
	movzwl	-2(%rbp), %eax
	movl	%eax, -56(%rbp)
Ltmp496:
	.loc	16 864 29
	movl	%eax, -24(%rbp)
Ltmp497:
	.loc	16 867 23
	movw	-46(%rbp), %ax
	movw	%ax, -8(%rbp)
Ltmp498:
	.loc	9 152 13
	bsfw	%ax, %ax
	movw	$16, %cx
	cmovew	%cx, %ax
	movw	%ax, -6(%rbp)
	movzwl	-6(%rbp), %ecx
Ltmp499:
	.loc	16 867 17
	movw	-46(%rbp), %dx
	movl	%ecx, %eax
	andl	$-16, %eax
	cmpl	$0, %eax
	setne	%al
	andw	$15, %cx
	shrw	%cl, %dx
	movw	%dx, -50(%rbp)
	testb	$1, %al
	jne	LBB53_8
	jmp	LBB53_7
Ltmp500:
LBB53_5:
	.loc	16 860 28
	movw	-46(%rbp), %ax
	orw	-44(%rbp), %ax
	movw	%ax, -48(%rbp)
Ltmp501:
LBB53_6:
	.loc	16 880 14
	movw	-48(%rbp), %ax
	addq	$80, %rsp
	popq	%rbp
	retq
LBB53_7:
	.loc	16 0 14 is_stmt 0
	movw	-50(%rbp), %ax
Ltmp502:
	.loc	16 867 17 is_stmt 1
	movw	%ax, -46(%rbp)
	.loc	16 868 23
	movw	-44(%rbp), %ax
	movw	%ax, -12(%rbp)
Ltmp503:
	.loc	9 152 13
	bsfw	%ax, %ax
	movw	$16, %cx
	cmovew	%cx, %ax
	movw	%ax, -10(%rbp)
	movzwl	-10(%rbp), %ecx
Ltmp504:
	.loc	16 868 17
	movw	-44(%rbp), %dx
	movl	%ecx, %eax
	andl	$-16, %eax
	cmpl	$0, %eax
	setne	%al
	andw	$15, %cx
	shrw	%cl, %dx
	movw	%dx, -58(%rbp)
	testb	$1, %al
	jne	LBB53_10
	jmp	LBB53_9
LBB53_8:
	.loc	16 867 17
	leaq	_str.4(%rip), %rdi
	leaq	l___unnamed_23(%rip), %rdx
	movl	$36, %esi
	callq	__ZN4core9panicking5panic17hc1bc45270cf64b03E
LBB53_9:
	.loc	16 0 17 is_stmt 0
	movw	-58(%rbp), %ax
	.loc	16 868 17 is_stmt 1
	movw	%ax, -44(%rbp)
	.loc	16 870 17
	jmp	LBB53_11
LBB53_10:
	.loc	16 868 17
	leaq	_str.4(%rip), %rdi
	leaq	l___unnamed_23(%rip), %rdx
	movl	$36, %esi
	callq	__ZN4core9panicking5panic17hc1bc45270cf64b03E
LBB53_11:
	.loc	16 870 23
	movw	-46(%rbp), %ax
	cmpw	-44(%rbp), %ax
	jne	LBB53_13
	.loc	16 0 23 is_stmt 0
	movl	-56(%rbp), %ecx
	.loc	16 879 17 is_stmt 1
	movw	-46(%rbp), %dx
	movl	%ecx, %eax
	andl	$-16, %eax
	cmpl	$0, %eax
	setne	%al
	andw	$15, %cx
	shlw	%cl, %dx
	movw	%dx, -60(%rbp)
	testb	$1, %al
	jne	LBB53_25
	jmp	LBB53_24
LBB53_13:
	.loc	16 871 24
	movw	-46(%rbp), %ax
	cmpw	-44(%rbp), %ax
	ja	LBB53_15
	.loc	16 875 30
	movw	-46(%rbp), %cx
	.loc	16 875 25 is_stmt 0
	movw	-44(%rbp), %ax
	movw	%ax, %dx
	subw	%cx, %dx
	movw	%dx, -62(%rbp)
	cmpw	%cx, %ax
	setb	%al
	testb	$1, %al
	jne	LBB53_21
	jmp	LBB53_20
LBB53_15:
	.loc	16 872 30 is_stmt 1
	movw	-44(%rbp), %cx
	.loc	16 872 25 is_stmt 0
	movw	-46(%rbp), %ax
	movw	%ax, %dx
	subw	%cx, %dx
	movw	%dx, -64(%rbp)
	cmpw	%cx, %ax
	setb	%al
	testb	$1, %al
	jne	LBB53_17
	.loc	16 0 25
	movw	-64(%rbp), %ax
	.loc	16 872 25
	movw	%ax, -46(%rbp)
	.loc	16 873 31 is_stmt 1
	movw	-46(%rbp), %ax
	movw	%ax, -16(%rbp)
Ltmp505:
	.loc	9 152 13
	bsfw	%ax, %ax
	movw	$16, %cx
	cmovew	%cx, %ax
	movw	%ax, -14(%rbp)
	movzwl	-14(%rbp), %ecx
Ltmp506:
	.loc	16 873 25
	movw	-46(%rbp), %dx
	movl	%ecx, %eax
	andl	$-16, %eax
	cmpl	$0, %eax
	setne	%al
	andw	$15, %cx
	shrw	%cl, %dx
	movw	%dx, -66(%rbp)
	testb	$1, %al
	jne	LBB53_19
	jmp	LBB53_18
LBB53_17:
	.loc	16 872 25
	leaq	_str.0(%rip), %rdi
	leaq	l___unnamed_23(%rip), %rdx
	movl	$33, %esi
	callq	__ZN4core9panicking5panic17hc1bc45270cf64b03E
LBB53_18:
	.loc	16 0 25 is_stmt 0
	movw	-66(%rbp), %ax
	.loc	16 873 25 is_stmt 1
	movw	%ax, -46(%rbp)
	.loc	16 871 21
	jmp	LBB53_11
LBB53_19:
	.loc	16 873 25
	leaq	_str.4(%rip), %rdi
	leaq	l___unnamed_23(%rip), %rdx
	movl	$36, %esi
	callq	__ZN4core9panicking5panic17hc1bc45270cf64b03E
LBB53_20:
	.loc	16 0 25 is_stmt 0
	movw	-62(%rbp), %ax
	.loc	16 875 25 is_stmt 1
	movw	%ax, -44(%rbp)
	.loc	16 876 31
	movw	-44(%rbp), %ax
	movw	%ax, -20(%rbp)
Ltmp507:
	.loc	9 152 13
	bsfw	%ax, %ax
	movw	$16, %cx
	cmovew	%cx, %ax
	movw	%ax, -18(%rbp)
	movzwl	-18(%rbp), %ecx
Ltmp508:
	.loc	16 876 25
	movw	-44(%rbp), %dx
	movl	%ecx, %eax
	andl	$-16, %eax
	cmpl	$0, %eax
	setne	%al
	andw	$15, %cx
	shrw	%cl, %dx
	movw	%dx, -68(%rbp)
	testb	$1, %al
	jne	LBB53_23
	jmp	LBB53_22
LBB53_21:
	.loc	16 875 25
	leaq	_str.0(%rip), %rdi
	leaq	l___unnamed_23(%rip), %rdx
	movl	$33, %esi
	callq	__ZN4core9panicking5panic17hc1bc45270cf64b03E
LBB53_22:
	.loc	16 0 25 is_stmt 0
	movw	-68(%rbp), %ax
	.loc	16 876 25 is_stmt 1
	movw	%ax, -44(%rbp)
	.loc	16 871 21
	jmp	LBB53_11
LBB53_23:
	.loc	16 876 25
	leaq	_str.4(%rip), %rdi
	leaq	l___unnamed_23(%rip), %rdx
	movl	$36, %esi
	callq	__ZN4core9panicking5panic17hc1bc45270cf64b03E
LBB53_24:
	.loc	16 0 25 is_stmt 0
	movw	-60(%rbp), %ax
	.loc	16 879 17 is_stmt 1
	movw	%ax, -48(%rbp)
Ltmp509:
	.loc	16 880 14
	jmp	LBB53_6
LBB53_25:
Ltmp510:
	.loc	16 879 17
	leaq	_str.3(%rip), %rdi
	leaq	l___unnamed_23(%rip), %rdx
	movl	$35, %esi
	callq	__ZN4core9panicking5panic17hc1bc45270cf64b03E
Ltmp511:
Lfunc_end53:
	.cfi_endproc

	.p2align	4, 0x90
__ZN44_$LT$u32$u20$as$u20$num_integer..Integer$GT$3gcd17h24ec240722f6bb71E:
Lfunc_begin54:
	.loc	16 855 0
	.cfi_startproc
	pushq	%rbp
	.cfi_def_cfa_offset 16
	.cfi_offset %rbp, -16
	movq	%rsp, %rbp
	.cfi_def_cfa_register %rbp
	subq	$112, %rsp
	movq	%rdi, -64(%rbp)
	movq	%rsi, -56(%rbp)
Ltmp512:
	.loc	16 857 29 prologue_end
	movl	(%rdi), %eax
	movl	%eax, -76(%rbp)
Ltmp513:
	.loc	16 858 29
	movl	(%rsi), %eax
	movl	%eax, -72(%rbp)
Ltmp514:
	.loc	16 859 20
	cmpl	$0, -76(%rbp)
	jne	LBB54_2
	movb	$1, -65(%rbp)
	jmp	LBB54_3
LBB54_2:
	.loc	16 859 30 is_stmt 0
	cmpl	$0, -72(%rbp)
	sete	%al
	.loc	16 859 20
	andb	$1, %al
	movb	%al, -65(%rbp)
LBB54_3:
	testb	$1, -65(%rbp)
	jne	LBB54_5
	.loc	16 864 30 is_stmt 1
	movl	-76(%rbp), %eax
	.loc	16 864 29 is_stmt 0
	orl	-72(%rbp), %eax
	movl	%eax, -8(%rbp)
Ltmp515:
	.loc	9 152 13 is_stmt 1
	bsfl	%eax, %eax
	movl	$32, %ecx
	cmovel	%ecx, %eax
	movl	%eax, -4(%rbp)
	movl	-4(%rbp), %eax
	movl	%eax, -88(%rbp)
Ltmp516:
	.loc	16 864 29
	movl	%eax, -44(%rbp)
Ltmp517:
	.loc	16 867 23
	movl	-76(%rbp), %eax
	movl	%eax, -16(%rbp)
Ltmp518:
	.loc	9 152 13
	bsfl	%eax, %eax
	movl	$32, %ecx
	cmovel	%ecx, %eax
	movl	%eax, -12(%rbp)
	movl	-12(%rbp), %ecx
Ltmp519:
	.loc	16 867 17
	movl	-76(%rbp), %edx
	movl	%ecx, %eax
	andl	$-32, %eax
	cmpl	$0, %eax
	setne	%al
	andl	$31, %ecx
	shrl	%cl, %edx
	movl	%edx, -84(%rbp)
	testb	$1, %al
	jne	LBB54_8
	jmp	LBB54_7
Ltmp520:
LBB54_5:
	.loc	16 860 28
	movl	-76(%rbp), %eax
	orl	-72(%rbp), %eax
	movl	%eax, -80(%rbp)
Ltmp521:
LBB54_6:
	.loc	16 880 14
	movl	-80(%rbp), %eax
	addq	$112, %rsp
	popq	%rbp
	retq
LBB54_7:
	.loc	16 0 14 is_stmt 0
	movl	-84(%rbp), %eax
Ltmp522:
	.loc	16 867 17 is_stmt 1
	movl	%eax, -76(%rbp)
	.loc	16 868 23
	movl	-72(%rbp), %eax
	movl	%eax, -24(%rbp)
Ltmp523:
	.loc	9 152 13
	bsfl	%eax, %eax
	movl	$32, %ecx
	cmovel	%ecx, %eax
	movl	%eax, -20(%rbp)
	movl	-20(%rbp), %ecx
Ltmp524:
	.loc	16 868 17
	movl	-72(%rbp), %edx
	movl	%ecx, %eax
	andl	$-32, %eax
	cmpl	$0, %eax
	setne	%al
	andl	$31, %ecx
	shrl	%cl, %edx
	movl	%edx, -92(%rbp)
	testb	$1, %al
	jne	LBB54_10
	jmp	LBB54_9
LBB54_8:
	.loc	16 867 17
	leaq	_str.4(%rip), %rdi
	leaq	l___unnamed_24(%rip), %rdx
	movl	$36, %esi
	callq	__ZN4core9panicking5panic17hc1bc45270cf64b03E
LBB54_9:
	.loc	16 0 17 is_stmt 0
	movl	-92(%rbp), %eax
	.loc	16 868 17 is_stmt 1
	movl	%eax, -72(%rbp)
	.loc	16 870 17
	jmp	LBB54_11
LBB54_10:
	.loc	16 868 17
	leaq	_str.4(%rip), %rdi
	leaq	l___unnamed_24(%rip), %rdx
	movl	$36, %esi
	callq	__ZN4core9panicking5panic17hc1bc45270cf64b03E
LBB54_11:
	.loc	16 870 23
	movl	-76(%rbp), %eax
	cmpl	-72(%rbp), %eax
	jne	LBB54_13
	.loc	16 0 23 is_stmt 0
	movl	-88(%rbp), %ecx
	.loc	16 879 17 is_stmt 1
	movl	-76(%rbp), %edx
	movl	%ecx, %eax
	andl	$-32, %eax
	cmpl	$0, %eax
	setne	%al
	andl	$31, %ecx
	shll	%cl, %edx
	movl	%edx, -96(%rbp)
	testb	$1, %al
	jne	LBB54_25
	jmp	LBB54_24
LBB54_13:
	.loc	16 871 24
	movl	-76(%rbp), %eax
	cmpl	-72(%rbp), %eax
	ja	LBB54_15
	.loc	16 875 30
	movl	-76(%rbp), %ecx
	.loc	16 875 25 is_stmt 0
	movl	-72(%rbp), %eax
	movl	%eax, %edx
	subl	%ecx, %edx
	movl	%edx, -100(%rbp)
	cmpl	%ecx, %eax
	setb	%al
	testb	$1, %al
	jne	LBB54_21
	jmp	LBB54_20
LBB54_15:
	.loc	16 872 30 is_stmt 1
	movl	-72(%rbp), %ecx
	.loc	16 872 25 is_stmt 0
	movl	-76(%rbp), %eax
	movl	%eax, %edx
	subl	%ecx, %edx
	movl	%edx, -104(%rbp)
	cmpl	%ecx, %eax
	setb	%al
	testb	$1, %al
	jne	LBB54_17
	.loc	16 0 25
	movl	-104(%rbp), %eax
	.loc	16 872 25
	movl	%eax, -76(%rbp)
	.loc	16 873 31 is_stmt 1
	movl	-76(%rbp), %eax
	movl	%eax, -32(%rbp)
Ltmp525:
	.loc	9 152 13
	bsfl	%eax, %eax
	movl	$32, %ecx
	cmovel	%ecx, %eax
	movl	%eax, -28(%rbp)
	movl	-28(%rbp), %ecx
Ltmp526:
	.loc	16 873 25
	movl	-76(%rbp), %edx
	movl	%ecx, %eax
	andl	$-32, %eax
	cmpl	$0, %eax
	setne	%al
	andl	$31, %ecx
	shrl	%cl, %edx
	movl	%edx, -108(%rbp)
	testb	$1, %al
	jne	LBB54_19
	jmp	LBB54_18
LBB54_17:
	.loc	16 872 25
	leaq	_str.0(%rip), %rdi
	leaq	l___unnamed_24(%rip), %rdx
	movl	$33, %esi
	callq	__ZN4core9panicking5panic17hc1bc45270cf64b03E
LBB54_18:
	.loc	16 0 25 is_stmt 0
	movl	-108(%rbp), %eax
	.loc	16 873 25 is_stmt 1
	movl	%eax, -76(%rbp)
	.loc	16 871 21
	jmp	LBB54_11
LBB54_19:
	.loc	16 873 25
	leaq	_str.4(%rip), %rdi
	leaq	l___unnamed_24(%rip), %rdx
	movl	$36, %esi
	callq	__ZN4core9panicking5panic17hc1bc45270cf64b03E
LBB54_20:
	.loc	16 0 25 is_stmt 0
	movl	-100(%rbp), %eax
	.loc	16 875 25 is_stmt 1
	movl	%eax, -72(%rbp)
	.loc	16 876 31
	movl	-72(%rbp), %eax
	movl	%eax, -40(%rbp)
Ltmp527:
	.loc	9 152 13
	bsfl	%eax, %eax
	movl	$32, %ecx
	cmovel	%ecx, %eax
	movl	%eax, -36(%rbp)
	movl	-36(%rbp), %ecx
Ltmp528:
	.loc	16 876 25
	movl	-72(%rbp), %edx
	movl	%ecx, %eax
	andl	$-32, %eax
	cmpl	$0, %eax
	setne	%al
	andl	$31, %ecx
	shrl	%cl, %edx
	movl	%edx, -112(%rbp)
	testb	$1, %al
	jne	LBB54_23
	jmp	LBB54_22
LBB54_21:
	.loc	16 875 25
	leaq	_str.0(%rip), %rdi
	leaq	l___unnamed_24(%rip), %rdx
	movl	$33, %esi
	callq	__ZN4core9panicking5panic17hc1bc45270cf64b03E
LBB54_22:
	.loc	16 0 25 is_stmt 0
	movl	-112(%rbp), %eax
	.loc	16 876 25 is_stmt 1
	movl	%eax, -72(%rbp)
	.loc	16 871 21
	jmp	LBB54_11
LBB54_23:
	.loc	16 876 25
	leaq	_str.4(%rip), %rdi
	leaq	l___unnamed_24(%rip), %rdx
	movl	$36, %esi
	callq	__ZN4core9panicking5panic17hc1bc45270cf64b03E
LBB54_24:
	.loc	16 0 25 is_stmt 0
	movl	-96(%rbp), %eax
	.loc	16 879 17 is_stmt 1
	movl	%eax, -80(%rbp)
Ltmp529:
	.loc	16 880 14
	jmp	LBB54_6
LBB54_25:
Ltmp530:
	.loc	16 879 17
	leaq	_str.3(%rip), %rdi
	leaq	l___unnamed_24(%rip), %rdx
	movl	$35, %esi
	callq	__ZN4core9panicking5panic17hc1bc45270cf64b03E
Ltmp531:
Lfunc_end54:
	.cfi_endproc

	.p2align	4, 0x90
__ZN44_$LT$u64$u20$as$u20$num_integer..Integer$GT$3gcd17hbfd7907731cb4b1dE:
Lfunc_begin55:
	.loc	16 855 0
	.cfi_startproc
	pushq	%rbp
	.cfi_def_cfa_offset 16
	.cfi_offset %rbp, -16
	movq	%rsp, %rbp
	.cfi_def_cfa_register %rbp
	subq	$208, %rsp
	movq	%rdi, -104(%rbp)
	movq	%rsi, -96(%rbp)
Ltmp532:
	.loc	16 857 29 prologue_end
	movq	(%rdi), %rax
	movq	%rax, -128(%rbp)
Ltmp533:
	.loc	16 858 29
	movq	(%rsi), %rax
	movq	%rax, -120(%rbp)
Ltmp534:
	.loc	16 859 20
	cmpq	$0, -128(%rbp)
	jne	LBB55_2
	movb	$1, -105(%rbp)
	jmp	LBB55_3
LBB55_2:
	.loc	16 859 30 is_stmt 0
	cmpq	$0, -120(%rbp)
	sete	%al
	.loc	16 859 20
	andb	$1, %al
	movb	%al, -105(%rbp)
LBB55_3:
	testb	$1, -105(%rbp)
	jne	LBB55_5
	.loc	16 864 30 is_stmt 1
	movq	-128(%rbp), %rax
	.loc	16 864 29 is_stmt 0
	orq	-120(%rbp), %rax
	movq	%rax, -16(%rbp)
Ltmp535:
	.loc	9 152 13 is_stmt 1
	bsfq	%rax, %rax
	movl	$64, %ecx
	cmoveq	%rcx, %rax
	movq	%rax, -8(%rbp)
	movq	-8(%rbp), %rax
	movl	%eax, -148(%rbp)
Ltmp536:
	.loc	16 864 29
	movl	%eax, -84(%rbp)
Ltmp537:
	.loc	16 867 23
	movq	-128(%rbp), %rax
	movq	%rax, -32(%rbp)
Ltmp538:
	.loc	9 152 13
	bsfq	%rax, %rax
	movl	$64, %ecx
	cmoveq	%rcx, %rax
	movq	%rax, -24(%rbp)
	movq	-24(%rbp), %rax
	movl	%eax, %ecx
Ltmp539:
	.loc	16 867 17
	movq	-128(%rbp), %rdx
	movl	%ecx, %eax
	andl	$-64, %eax
	cmpl	$0, %eax
	setne	%al
	movl	%ecx, %ecx
	andq	$63, %rcx
	shrq	%cl, %rdx
	movq	%rdx, -144(%rbp)
	testb	$1, %al
	jne	LBB55_8
	jmp	LBB55_7
Ltmp540:
LBB55_5:
	.loc	16 860 28
	movq	-128(%rbp), %rax
	orq	-120(%rbp), %rax
	movq	%rax, -136(%rbp)
Ltmp541:
LBB55_6:
	.loc	16 880 14
	movq	-136(%rbp), %rax
	addq	$208, %rsp
	popq	%rbp
	retq
LBB55_7:
	.loc	16 0 14 is_stmt 0
	movq	-144(%rbp), %rax
Ltmp542:
	.loc	16 867 17 is_stmt 1
	movq	%rax, -128(%rbp)
	.loc	16 868 23
	movq	-120(%rbp), %rax
	movq	%rax, -48(%rbp)
Ltmp543:
	.loc	9 152 13
	bsfq	%rax, %rax
	movl	$64, %ecx
	cmoveq	%rcx, %rax
	movq	%rax, -40(%rbp)
	movq	-40(%rbp), %rax
	movl	%eax, %ecx
Ltmp544:
	.loc	16 868 17
	movq	-120(%rbp), %rdx
	movl	%ecx, %eax
	andl	$-64, %eax
	cmpl	$0, %eax
	setne	%al
	movl	%ecx, %ecx
	andq	$63, %rcx
	shrq	%cl, %rdx
	movq	%rdx, -160(%rbp)
	testb	$1, %al
	jne	LBB55_10
	jmp	LBB55_9
LBB55_8:
	.loc	16 867 17
	leaq	_str.4(%rip), %rdi
	leaq	l___unnamed_25(%rip), %rdx
	movl	$36, %esi
	callq	__ZN4core9panicking5panic17hc1bc45270cf64b03E
LBB55_9:
	.loc	16 0 17 is_stmt 0
	movq	-160(%rbp), %rax
	.loc	16 868 17 is_stmt 1
	movq	%rax, -120(%rbp)
	.loc	16 870 17
	jmp	LBB55_11
LBB55_10:
	.loc	16 868 17
	leaq	_str.4(%rip), %rdi
	leaq	l___unnamed_25(%rip), %rdx
	movl	$36, %esi
	callq	__ZN4core9panicking5panic17hc1bc45270cf64b03E
LBB55_11:
	.loc	16 870 23
	movq	-128(%rbp), %rax
	cmpq	-120(%rbp), %rax
	jne	LBB55_13
	.loc	16 0 23 is_stmt 0
	movl	-148(%rbp), %ecx
	.loc	16 879 17 is_stmt 1
	movq	-128(%rbp), %rdx
	movl	%ecx, %eax
	andl	$-64, %eax
	cmpl	$0, %eax
	setne	%al
	movl	%ecx, %ecx
	andq	$63, %rcx
	shlq	%cl, %rdx
	movq	%rdx, -168(%rbp)
	testb	$1, %al
	jne	LBB55_25
	jmp	LBB55_24
LBB55_13:
	.loc	16 871 24
	movq	-128(%rbp), %rax
	cmpq	-120(%rbp), %rax
	ja	LBB55_15
	.loc	16 875 30
	movq	-128(%rbp), %rcx
	.loc	16 875 25 is_stmt 0
	movq	-120(%rbp), %rax
	movq	%rax, %rdx
	subq	%rcx, %rdx
	movq	%rdx, -176(%rbp)
	cmpq	%rcx, %rax
	setb	%al
	testb	$1, %al
	jne	LBB55_21
	jmp	LBB55_20
LBB55_15:
	.loc	16 872 30 is_stmt 1
	movq	-120(%rbp), %rcx
	.loc	16 872 25 is_stmt 0
	movq	-128(%rbp), %rax
	movq	%rax, %rdx
	subq	%rcx, %rdx
	movq	%rdx, -184(%rbp)
	cmpq	%rcx, %rax
	setb	%al
	testb	$1, %al
	jne	LBB55_17
	.loc	16 0 25
	movq	-184(%rbp), %rax
	.loc	16 872 25
	movq	%rax, -128(%rbp)
	.loc	16 873 31 is_stmt 1
	movq	-128(%rbp), %rax
	movq	%rax, -64(%rbp)
Ltmp545:
	.loc	9 152 13
	bsfq	%rax, %rax
	movl	$64, %ecx
	cmoveq	%rcx, %rax
	movq	%rax, -56(%rbp)
	movq	-56(%rbp), %rax
	movl	%eax, %ecx
Ltmp546:
	.loc	16 873 25
	movq	-128(%rbp), %rdx
	movl	%ecx, %eax
	andl	$-64, %eax
	cmpl	$0, %eax
	setne	%al
	movl	%ecx, %ecx
	andq	$63, %rcx
	shrq	%cl, %rdx
	movq	%rdx, -192(%rbp)
	testb	$1, %al
	jne	LBB55_19
	jmp	LBB55_18
LBB55_17:
	.loc	16 872 25
	leaq	_str.0(%rip), %rdi
	leaq	l___unnamed_25(%rip), %rdx
	movl	$33, %esi
	callq	__ZN4core9panicking5panic17hc1bc45270cf64b03E
LBB55_18:
	.loc	16 0 25 is_stmt 0
	movq	-192(%rbp), %rax
	.loc	16 873 25 is_stmt 1
	movq	%rax, -128(%rbp)
	.loc	16 871 21
	jmp	LBB55_11
LBB55_19:
	.loc	16 873 25
	leaq	_str.4(%rip), %rdi
	leaq	l___unnamed_25(%rip), %rdx
	movl	$36, %esi
	callq	__ZN4core9panicking5panic17hc1bc45270cf64b03E
LBB55_20:
	.loc	16 0 25 is_stmt 0
	movq	-176(%rbp), %rax
	.loc	16 875 25 is_stmt 1
	movq	%rax, -120(%rbp)
	.loc	16 876 31
	movq	-120(%rbp), %rax
	movq	%rax, -80(%rbp)
Ltmp547:
	.loc	9 152 13
	bsfq	%rax, %rax
	movl	$64, %ecx
	cmoveq	%rcx, %rax
	movq	%rax, -72(%rbp)
	movq	-72(%rbp), %rax
	movl	%eax, %ecx
Ltmp548:
	.loc	16 876 25
	movq	-120(%rbp), %rdx
	movl	%ecx, %eax
	andl	$-64, %eax
	cmpl	$0, %eax
	setne	%al
	movl	%ecx, %ecx
	andq	$63, %rcx
	shrq	%cl, %rdx
	movq	%rdx, -200(%rbp)
	testb	$1, %al
	jne	LBB55_23
	jmp	LBB55_22
LBB55_21:
	.loc	16 875 25
	leaq	_str.0(%rip), %rdi
	leaq	l___unnamed_25(%rip), %rdx
	movl	$33, %esi
	callq	__ZN4core9panicking5panic17hc1bc45270cf64b03E
LBB55_22:
	.loc	16 0 25 is_stmt 0
	movq	-200(%rbp), %rax
	.loc	16 876 25 is_stmt 1
	movq	%rax, -120(%rbp)
	.loc	16 871 21
	jmp	LBB55_11
LBB55_23:
	.loc	16 876 25
	leaq	_str.4(%rip), %rdi
	leaq	l___unnamed_25(%rip), %rdx
	movl	$36, %esi
	callq	__ZN4core9panicking5panic17hc1bc45270cf64b03E
LBB55_24:
	.loc	16 0 25 is_stmt 0
	movq	-168(%rbp), %rax
	.loc	16 879 17 is_stmt 1
	movq	%rax, -136(%rbp)
Ltmp549:
	.loc	16 880 14
	jmp	LBB55_6
LBB55_25:
Ltmp550:
	.loc	16 879 17
	leaq	_str.3(%rip), %rdi
	leaq	l___unnamed_25(%rip), %rdx
	movl	$35, %esi
	callq	__ZN4core9panicking5panic17hc1bc45270cf64b03E
Ltmp551:
Lfunc_end55:
	.cfi_endproc

	.p2align	4, 0x90
__ZN44_$LT$u8$u20$as$u20$core..ops..arith..Add$GT$3add17h1ca0a9459853de61E:
Lfunc_begin56:
	.loc	18 103 0
	.cfi_startproc
	pushq	%rbp
	.cfi_def_cfa_offset 16
	.cfi_offset %rbp, -16
	movq	%rsp, %rbp
	.cfi_def_cfa_register %rbp
	subq	$16, %rsp
	movb	%sil, %cl
	movb	%dil, %al
	movb	%al, -2(%rbp)
	movb	%cl, -1(%rbp)
Ltmp552:
	.loc	18 103 45 prologue_end
	addb	%cl, %al
	movb	%al, -3(%rbp)
	setb	%al
	testb	$1, %al
	jne	LBB56_2
	.loc	18 0 45 is_stmt 0
	movb	-3(%rbp), %al
	.loc	18 103 59
	addq	$16, %rsp
	popq	%rbp
	retq
LBB56_2:
	.loc	18 103 45
	leaq	_str.1(%rip), %rdi
	leaq	l___unnamed_18(%rip), %rdx
	movl	$28, %esi
	callq	__ZN4core9panicking5panic17hc1bc45270cf64b03E
Ltmp553:
Lfunc_end56:
	.cfi_endproc

	.p2align	4, 0x90
__ZN44_$LT$u8$u20$as$u20$core..ops..arith..Div$GT$3div17h3f810efd26a15d43E:
Lfunc_begin57:
	.loc	18 481 0 is_stmt 1
	.cfi_startproc
	pushq	%rbp
	.cfi_def_cfa_offset 16
	.cfi_offset %rbp, -16
	movq	%rsp, %rbp
	.cfi_def_cfa_register %rbp
	subq	$16, %rsp
	movb	%sil, %al
	movb	%al, -4(%rbp)
	movb	%dil, %cl
	movb	%cl, -3(%rbp)
	movb	%cl, -2(%rbp)
	movb	%al, -1(%rbp)
Ltmp554:
	.loc	18 481 45 prologue_end
	cmpb	$0, %al
	sete	%al
	testb	$1, %al
	jne	LBB57_2
	.loc	18 0 45 is_stmt 0
	movb	-4(%rbp), %cl
	movb	-3(%rbp), %al
	.loc	18 481 45
	movzbw	%al, %ax
	divb	%cl
	.loc	18 481 59
	addq	$16, %rsp
	popq	%rbp
	retq
LBB57_2:
	.loc	18 481 45
	leaq	_str.5(%rip), %rdi
	leaq	l___unnamed_19(%rip), %rdx
	movl	$25, %esi
	callq	__ZN4core9panicking5panic17hc1bc45270cf64b03E
Ltmp555:
Lfunc_end57:
	.cfi_endproc

	.p2align	4, 0x90
__ZN44_$LT$u8$u20$as$u20$core..ops..arith..Mul$GT$3mul17hef7b808be455c17cE:
Lfunc_begin58:
	.loc	18 342 0 is_stmt 1
	.cfi_startproc
	pushq	%rbp
	.cfi_def_cfa_offset 16
	.cfi_offset %rbp, -16
	movq	%rsp, %rbp
	.cfi_def_cfa_register %rbp
	subq	$16, %rsp
	movb	%sil, %cl
	movb	%dil, %al
	movb	%al, -2(%rbp)
	movb	%cl, -1(%rbp)
Ltmp556:
	.loc	18 342 45 prologue_end
	mulb	%cl
	movb	%al, -3(%rbp)
	seto	%al
	testb	$1, %al
	jne	LBB58_2
	.loc	18 0 45 is_stmt 0
	movb	-3(%rbp), %al
	.loc	18 342 59
	addq	$16, %rsp
	popq	%rbp
	retq
LBB58_2:
	.loc	18 342 45
	leaq	_str.2(%rip), %rdi
	leaq	l___unnamed_20(%rip), %rdx
	movl	$33, %esi
	callq	__ZN4core9panicking5panic17hc1bc45270cf64b03E
Ltmp557:
Lfunc_end58:
	.cfi_endproc

	.p2align	4, 0x90
__ZN44_$LT$u8$u20$as$u20$core..ops..arith..Sub$GT$3sub17h0a922d738d774329E:
Lfunc_begin59:
	.loc	18 212 0 is_stmt 1
	.cfi_startproc
	pushq	%rbp
	.cfi_def_cfa_offset 16
	.cfi_offset %rbp, -16
	movq	%rsp, %rbp
	.cfi_def_cfa_register %rbp
	subq	$16, %rsp
	movb	%sil, %cl
	movb	%dil, %al
	movb	%al, -2(%rbp)
	movb	%cl, -1(%rbp)
Ltmp558:
	.loc	18 212 45 prologue_end
	movb	%al, %dl
	subb	%cl, %dl
	movb	%dl, -3(%rbp)
	cmpb	%cl, %al
	setb	%al
	testb	$1, %al
	jne	LBB59_2
	.loc	18 0 45 is_stmt 0
	movb	-3(%rbp), %al
	.loc	18 212 59
	addq	$16, %rsp
	popq	%rbp
	retq
LBB59_2:
	.loc	18 212 45
	leaq	_str.0(%rip), %rdi
	leaq	l___unnamed_22(%rip), %rdx
	movl	$33, %esi
	callq	__ZN4core9panicking5panic17hc1bc45270cf64b03E
Ltmp559:
Lfunc_end59:
	.cfi_endproc

	.p2align	4, 0x90
__ZN45_$LT$f32$u20$as$u20$core..ops..arith..Div$GT$3div17h3e7e17fc707fed4cE:
Lfunc_begin60:
	.loc	18 501 0 is_stmt 1
	.cfi_startproc
	pushq	%rbp
	.cfi_def_cfa_offset 16
	.cfi_offset %rbp, -16
	movq	%rsp, %rbp
	.cfi_def_cfa_register %rbp
	pushq	%rax
	movss	%xmm0, -8(%rbp)
	movss	%xmm1, -4(%rbp)
Ltmp560:
	.loc	18 501 45 prologue_end
	divss	%xmm1, %xmm0
	.loc	18 501 59 is_stmt 0
	addq	$8, %rsp
	popq	%rbp
	retq
Ltmp561:
Lfunc_end60:
	.cfi_endproc

	.p2align	4, 0x90
__ZN45_$LT$f32$u20$as$u20$core..ops..arith..Sub$GT$3sub17h019074026c5e8c35E:
Lfunc_begin61:
	.loc	18 212 0 is_stmt 1
	.cfi_startproc
	pushq	%rbp
	.cfi_def_cfa_offset 16
	.cfi_offset %rbp, -16
	movq	%rsp, %rbp
	.cfi_def_cfa_register %rbp
	pushq	%rax
	movss	%xmm0, -8(%rbp)
	movss	%xmm1, -4(%rbp)
Ltmp562:
	.loc	18 212 45 prologue_end
	subss	%xmm1, %xmm0
	.loc	18 212 59 is_stmt 0
	addq	$8, %rsp
	popq	%rbp
	retq
Ltmp563:
Lfunc_end61:
	.cfi_endproc

	.p2align	4, 0x90
__ZN45_$LT$f64$u20$as$u20$core..ops..arith..Div$GT$3div17h3809bfc3183abfa5E:
Lfunc_begin62:
	.loc	18 501 0 is_stmt 1
	.cfi_startproc
	pushq	%rbp
	.cfi_def_cfa_offset 16
	.cfi_offset %rbp, -16
	movq	%rsp, %rbp
	.cfi_def_cfa_register %rbp
	subq	$16, %rsp
	movsd	%xmm0, -16(%rbp)
	movsd	%xmm1, -8(%rbp)
Ltmp564:
	.loc	18 501 45 prologue_end
	divsd	%xmm1, %xmm0
	.loc	18 501 59 is_stmt 0
	addq	$16, %rsp
	popq	%rbp
	retq
Ltmp565:
Lfunc_end62:
	.cfi_endproc

	.p2align	4, 0x90
__ZN45_$LT$f64$u20$as$u20$core..ops..arith..Sub$GT$3sub17h52af70afc6a974d7E:
Lfunc_begin63:
	.loc	18 212 0 is_stmt 1
	.cfi_startproc
	pushq	%rbp
	.cfi_def_cfa_offset 16
	.cfi_offset %rbp, -16
	movq	%rsp, %rbp
	.cfi_def_cfa_register %rbp
	subq	$16, %rsp
	movsd	%xmm0, -16(%rbp)
	movsd	%xmm1, -8(%rbp)
Ltmp566:
	.loc	18 212 45 prologue_end
	subsd	%xmm1, %xmm0
	.loc	18 212 59 is_stmt 0
	addq	$16, %rsp
	popq	%rbp
	retq
Ltmp567:
Lfunc_end63:
	.cfi_endproc

	.section	__TEXT,__literal16,16byte_literals
	.p2align	4
LCPI64_0:
	.byte	0
	.byte	0
	.byte	0
	.byte	0
	.byte	0
	.byte	0
	.byte	0
	.byte	0
	.byte	0
	.byte	0
	.byte	0
	.byte	0
	.byte	0
	.byte	0
	.byte	0
	.byte	128
	.section	__TEXT,__text,regular,pure_instructions
	.p2align	4, 0x90
__ZN45_$LT$i128$u20$as$u20$num_integer..Integer$GT$3gcd17h6ad473982784e8f9E:
Lfunc_begin64:
	.loc	16 459 0 is_stmt 1
	.cfi_startproc
	pushq	%rbp
	.cfi_def_cfa_offset 16
	.cfi_offset %rbp, -16
	movq	%rsp, %rbp
	.cfi_def_cfa_register %rbp
	subq	$512, %rsp
	movq	%rdi, -264(%rbp)
	movq	%rsi, -256(%rbp)
Ltmp568:
	.loc	16 461 29 prologue_end
	movq	(%rdi), %rax
	movq	8(%rdi), %rcx
	movq	%rcx, -312(%rbp)
	movq	%rax, -320(%rbp)
Ltmp569:
	.loc	16 462 29
	movq	(%rsi), %rax
	movq	8(%rsi), %rcx
	movq	%rcx, -296(%rbp)
	movq	%rax, -304(%rbp)
Ltmp570:
	.loc	16 463 20
	movq	-320(%rbp), %rax
	movq	-312(%rbp), %rcx
	orq	%rcx, %rax
	jne	LBB64_2
	jmp	LBB64_1
LBB64_1:
	movb	$1, -282(%rbp)
	jmp	LBB64_3
LBB64_2:
	.loc	16 463 30 is_stmt 0
	movq	-304(%rbp), %rax
	movq	-296(%rbp), %rcx
	orq	%rcx, %rax
	sete	%al
	.loc	16 463 20
	andb	$1, %al
	movb	%al, -282(%rbp)
LBB64_3:
	testb	$1, -282(%rbp)
	jne	LBB64_5
	.loc	16 468 30 is_stmt 1
	movq	-320(%rbp), %rdx
	movq	-312(%rbp), %rax
	.loc	16 468 34 is_stmt 0
	movq	-304(%rbp), %rsi
	movq	-296(%rbp), %rcx
	.loc	16 468 29
	orq	%rsi, %rdx
	orq	%rcx, %rax
	movq	%rax, -40(%rbp)
	movq	%rdx, -48(%rbp)
Ltmp571:
	.loc	17 149 13 is_stmt 1
	movq	%rax, -24(%rbp)
	movq	%rdx, -32(%rbp)
Ltmp572:
	.loc	9 152 13
	bsfq	%rax, %rax
	movl	$64, %ecx
	cmoveq	%rcx, %rax
	addq	$64, %rax
	bsfq	%rdx, %rcx
	testq	%rdx, %rdx
	cmovneq	%rcx, %rax
	movq	%rax, -16(%rbp)
	movq	$0, -8(%rbp)
	movl	-16(%rbp), %eax
	movl	%eax, -340(%rbp)
Ltmp573:
	.loc	16 468 29
	movl	%eax, -244(%rbp)
Ltmp574:
	.loc	16 478 20
	movups	-320(%rbp), %xmm0
	movaps	LCPI64_0(%rip), %xmm1
	pcmpeqb	%xmm1, %xmm0
	pmovmskb	%xmm0, %eax
	subl	$65535, %eax
	je	LBB64_8
	jmp	LBB64_7
Ltmp575:
LBB64_5:
	.loc	16 464 29
	movq	-320(%rbp), %rdi
	movq	-312(%rbp), %rsi
	.loc	16 464 33 is_stmt 0
	movq	-304(%rbp), %rcx
	movq	-296(%rbp), %rax
	.loc	16 464 28
	orq	%rcx, %rdi
	orq	%rax, %rsi
	callq	__ZN4core3num22_$LT$impl$u20$i128$GT$3abs17h8b7f9731aa048d32E
	movq	%rdx, -328(%rbp)
	movq	%rax, -336(%rbp)
Ltmp576:
LBB64_6:
	.loc	16 500 14 is_stmt 1
	movq	-336(%rbp), %rax
	movq	-328(%rbp), %rdx
	addq	$512, %rsp
	popq	%rbp
	retq
LBB64_7:
Ltmp577:
	.loc	16 478 46
	movups	-304(%rbp), %xmm0
	movaps	LCPI64_0(%rip), %xmm1
	pcmpeqb	%xmm1, %xmm0
	pmovmskb	%xmm0, %eax
	subl	$65535, %eax
	sete	%al
	.loc	16 478 20 is_stmt 0
	andb	$1, %al
	movb	%al, -281(%rbp)
	jmp	LBB64_9
LBB64_8:
	movb	$1, -281(%rbp)
LBB64_9:
	testb	$1, -281(%rbp)
	jne	LBB64_11
	.loc	16 483 21 is_stmt 1
	movq	-320(%rbp), %rdi
	movq	-312(%rbp), %rsi
	callq	__ZN4core3num22_$LT$impl$u20$i128$GT$3abs17h8b7f9731aa048d32E
	.loc	16 483 17 is_stmt 0
	movq	%rdx, -312(%rbp)
	movq	%rax, -320(%rbp)
	.loc	16 484 21 is_stmt 1
	movq	-304(%rbp), %rdi
	movq	-296(%rbp), %rsi
	callq	__ZN4core3num22_$LT$impl$u20$i128$GT$3abs17h8b7f9731aa048d32E
	.loc	16 484 17 is_stmt 0
	movq	%rdx, -296(%rbp)
	movq	%rax, -304(%rbp)
	.loc	16 487 23 is_stmt 1
	movq	-320(%rbp), %rdx
	movq	-312(%rbp), %rax
	movq	%rax, -88(%rbp)
	movq	%rdx, -96(%rbp)
Ltmp578:
	.loc	17 149 13
	movq	%rax, -72(%rbp)
	movq	%rdx, -80(%rbp)
Ltmp579:
	.loc	9 152 13
	bsfq	%rax, %rax
	movl	$64, %ecx
	cmoveq	%rcx, %rax
	addq	$64, %rax
	bsfq	%rdx, %rcx
	testq	%rdx, %rdx
	cmovneq	%rcx, %rax
	movq	%rax, -64(%rbp)
	movq	$0, -56(%rbp)
	movq	-64(%rbp), %rcx
	movl	%ecx, %eax
Ltmp580:
	.loc	16 487 17
	movq	-320(%rbp), %rsi
	movq	-312(%rbp), %rdx
	testl	$-128, %eax
	setne	%al
	movb	%cl, %dil
	movb	%dil, %cl
	movq	%rdx, %r8
	sarq	%cl, %r8
	movq	%r8, -368(%rbp)
	movb	%dil, %cl
	shrdq	%cl, %rdx, %rsi
	movq	-368(%rbp), %rcx
	sarq	$63, %rdx
	testb	$64, %dil
	cmovneq	%rcx, %rsi
	movq	%rsi, -360(%rbp)
	cmovneq	%rdx, %rcx
	movq	%rcx, -352(%rbp)
	testb	$1, %al
	jne	LBB64_15
	jmp	LBB64_14
LBB64_11:
	.loc	16 0 17 is_stmt 0
	movl	-340(%rbp), %ecx
	.loc	16 479 28 is_stmt 1
	testl	$-128, %ecx
	setne	%al
	movb	%cl, %dil
	xorl	%ecx, %ecx
	movl	%ecx, %edx
	movl	$1, %r8d
	movb	%dil, %cl
	movq	%rdx, %rsi
	shldq	%cl, %r8, %rsi
	movb	%dil, %cl
	shlq	%cl, %r8
	movq	%r8, %rcx
	testb	$64, %dil
	cmovneq	%rcx, %rsi
	movq	%rsi, -384(%rbp)
	cmovneq	%rdx, %rcx
	movq	%rcx, -376(%rbp)
	testb	$1, %al
	jne	LBB64_13
	.loc	16 0 28 is_stmt 0
	movq	-384(%rbp), %rax
	movq	-376(%rbp), %rcx
	.loc	16 479 28
	movq	%rcx, -280(%rbp)
	movq	%rax, -272(%rbp)
	leaq	-280(%rbp), %rdi
	callq	__ZN49_$LT$i128$u20$as$u20$num_traits..sign..Signed$GT$3abs17hf440e7daa594d4e6E
	movq	%rdx, -328(%rbp)
	movq	%rax, -336(%rbp)
	jmp	LBB64_6
LBB64_13:
	leaq	_str.3(%rip), %rdi
	leaq	l___unnamed_26(%rip), %rdx
	movl	$35, %esi
	callq	__ZN4core9panicking5panic17hc1bc45270cf64b03E
LBB64_14:
	.loc	16 0 28
	movq	-352(%rbp), %rax
	movq	-360(%rbp), %rcx
	.loc	16 487 17 is_stmt 1
	movq	%rcx, -320(%rbp)
	movq	%rax, -312(%rbp)
	.loc	16 488 23
	movq	-304(%rbp), %rdx
	movq	-296(%rbp), %rax
	movq	%rax, -136(%rbp)
	movq	%rdx, -144(%rbp)
Ltmp581:
	.loc	17 149 13
	movq	%rax, -120(%rbp)
	movq	%rdx, -128(%rbp)
Ltmp582:
	.loc	9 152 13
	bsfq	%rax, %rax
	movl	$64, %ecx
	cmoveq	%rcx, %rax
	addq	$64, %rax
	bsfq	%rdx, %rcx
	testq	%rdx, %rdx
	cmovneq	%rcx, %rax
	movq	%rax, -112(%rbp)
	movq	$0, -104(%rbp)
	movq	-112(%rbp), %rcx
	movl	%ecx, %eax
Ltmp583:
	.loc	16 488 17
	movq	-304(%rbp), %rsi
	movq	-296(%rbp), %rdx
	testl	$-128, %eax
	setne	%al
	movb	%cl, %dil
	movb	%dil, %cl
	movq	%rdx, %r8
	sarq	%cl, %r8
	movq	%r8, -408(%rbp)
	movb	%dil, %cl
	shrdq	%cl, %rdx, %rsi
	movq	-408(%rbp), %rcx
	sarq	$63, %rdx
	testb	$64, %dil
	cmovneq	%rcx, %rsi
	movq	%rsi, -400(%rbp)
	cmovneq	%rdx, %rcx
	movq	%rcx, -392(%rbp)
	testb	$1, %al
	jne	LBB64_17
	jmp	LBB64_16
LBB64_15:
	.loc	16 487 17
	leaq	_str.4(%rip), %rdi
	leaq	l___unnamed_26(%rip), %rdx
	movl	$36, %esi
	callq	__ZN4core9panicking5panic17hc1bc45270cf64b03E
LBB64_16:
	.loc	16 0 17 is_stmt 0
	movq	-392(%rbp), %rax
	movq	-400(%rbp), %rcx
	.loc	16 488 17 is_stmt 1
	movq	%rcx, -304(%rbp)
	movq	%rax, -296(%rbp)
	.loc	16 490 17
	jmp	LBB64_18
LBB64_17:
	.loc	16 488 17
	leaq	_str.4(%rip), %rdi
	leaq	l___unnamed_26(%rip), %rdx
	movl	$36, %esi
	callq	__ZN4core9panicking5panic17hc1bc45270cf64b03E
LBB64_18:
	.loc	16 490 23
	movups	-320(%rbp), %xmm0
	.loc	16 490 28 is_stmt 0
	movups	-304(%rbp), %xmm1
	.loc	16 490 23
	pcmpeqb	%xmm1, %xmm0
	pmovmskb	%xmm0, %eax
	subl	$65535, %eax
	jne	LBB64_20
	jmp	LBB64_19
LBB64_19:
	.loc	16 0 23
	movl	-340(%rbp), %ecx
	.loc	16 499 17 is_stmt 1
	movq	-320(%rbp), %rdx
	movq	-312(%rbp), %rsi
	testl	$-128, %ecx
	setne	%al
	movb	%cl, %dil
	movb	%dil, %cl
	movq	%rdx, %r8
	shlq	%cl, %r8
	movq	%r8, -432(%rbp)
	movb	%dil, %cl
	shldq	%cl, %rdx, %rsi
	movq	-432(%rbp), %rcx
	xorl	%edx, %edx
	testb	$64, %dil
	cmovneq	%rcx, %rsi
	movq	%rsi, -424(%rbp)
	cmovneq	%rdx, %rcx
	movq	%rcx, -416(%rbp)
	testb	$1, %al
	jne	LBB64_32
	jmp	LBB64_31
LBB64_20:
	.loc	16 491 24
	movq	-320(%rbp), %rsi
	movq	-312(%rbp), %rcx
	.loc	16 491 28 is_stmt 0
	movq	-304(%rbp), %rdx
	movq	-296(%rbp), %rax
	.loc	16 491 24
	subq	%rsi, %rdx
	sbbq	%rcx, %rax
	jl	LBB64_22
	jmp	LBB64_21
LBB64_21:
	.loc	16 495 30 is_stmt 1
	movq	-320(%rbp), %rsi
	movq	-312(%rbp), %rax
	.loc	16 495 25 is_stmt 0
	movq	-304(%rbp), %rdx
	movq	-296(%rbp), %rcx
	subq	%rsi, %rdx
	movq	%rdx, -448(%rbp)
	sbbq	%rax, %rcx
	seto	%al
	movq	%rcx, -440(%rbp)
	testb	$1, %al
	jne	LBB64_28
	jmp	LBB64_27
LBB64_22:
	.loc	16 492 30 is_stmt 1
	movq	-304(%rbp), %rsi
	movq	-296(%rbp), %rax
	.loc	16 492 25 is_stmt 0
	movq	-320(%rbp), %rdx
	movq	-312(%rbp), %rcx
	subq	%rsi, %rdx
	movq	%rdx, -464(%rbp)
	sbbq	%rax, %rcx
	seto	%al
	movq	%rcx, -456(%rbp)
	testb	$1, %al
	jne	LBB64_24
	.loc	16 0 25
	movq	-456(%rbp), %rax
	movq	-464(%rbp), %rcx
	.loc	16 492 25
	movq	%rcx, -320(%rbp)
	movq	%rax, -312(%rbp)
	.loc	16 493 31 is_stmt 1
	movq	-320(%rbp), %rdx
	movq	-312(%rbp), %rax
	movq	%rax, -184(%rbp)
	movq	%rdx, -192(%rbp)
Ltmp584:
	.loc	17 149 13
	movq	%rax, -168(%rbp)
	movq	%rdx, -176(%rbp)
Ltmp585:
	.loc	9 152 13
	bsfq	%rax, %rax
	movl	$64, %ecx
	cmoveq	%rcx, %rax
	addq	$64, %rax
	bsfq	%rdx, %rcx
	testq	%rdx, %rdx
	cmovneq	%rcx, %rax
	movq	%rax, -160(%rbp)
	movq	$0, -152(%rbp)
	movq	-160(%rbp), %rcx
	movl	%ecx, %eax
Ltmp586:
	.loc	16 493 25
	movq	-320(%rbp), %rsi
	movq	-312(%rbp), %rdx
	testl	$-128, %eax
	setne	%al
	movb	%cl, %dil
	movb	%dil, %cl
	movq	%rdx, %r8
	sarq	%cl, %r8
	movq	%r8, -488(%rbp)
	movb	%dil, %cl
	shrdq	%cl, %rdx, %rsi
	movq	-488(%rbp), %rcx
	sarq	$63, %rdx
	testb	$64, %dil
	cmovneq	%rcx, %rsi
	movq	%rsi, -480(%rbp)
	cmovneq	%rdx, %rcx
	movq	%rcx, -472(%rbp)
	testb	$1, %al
	jne	LBB64_26
	jmp	LBB64_25
LBB64_24:
	.loc	16 492 25
	leaq	_str.0(%rip), %rdi
	leaq	l___unnamed_26(%rip), %rdx
	movl	$33, %esi
	callq	__ZN4core9panicking5panic17hc1bc45270cf64b03E
LBB64_25:
	.loc	16 0 25 is_stmt 0
	movq	-472(%rbp), %rax
	movq	-480(%rbp), %rcx
	.loc	16 493 25 is_stmt 1
	movq	%rcx, -320(%rbp)
	movq	%rax, -312(%rbp)
	.loc	16 491 21
	jmp	LBB64_18
LBB64_26:
	.loc	16 493 25
	leaq	_str.4(%rip), %rdi
	leaq	l___unnamed_26(%rip), %rdx
	movl	$36, %esi
	callq	__ZN4core9panicking5panic17hc1bc45270cf64b03E
LBB64_27:
	.loc	16 0 25 is_stmt 0
	movq	-440(%rbp), %rax
	movq	-448(%rbp), %rcx
	.loc	16 495 25 is_stmt 1
	movq	%rcx, -304(%rbp)
	movq	%rax, -296(%rbp)
	.loc	16 496 31
	movq	-304(%rbp), %rdx
	movq	-296(%rbp), %rax
	movq	%rax, -232(%rbp)
	movq	%rdx, -240(%rbp)
Ltmp587:
	.loc	17 149 13
	movq	%rax, -216(%rbp)
	movq	%rdx, -224(%rbp)
Ltmp588:
	.loc	9 152 13
	bsfq	%rax, %rax
	movl	$64, %ecx
	cmoveq	%rcx, %rax
	addq	$64, %rax
	bsfq	%rdx, %rcx
	testq	%rdx, %rdx
	cmovneq	%rcx, %rax
	movq	%rax, -208(%rbp)
	movq	$0, -200(%rbp)
	movq	-208(%rbp), %rcx
	movl	%ecx, %eax
Ltmp589:
	.loc	16 496 25
	movq	-304(%rbp), %rsi
	movq	-296(%rbp), %rdx
	testl	$-128, %eax
	setne	%al
	movb	%cl, %dil
	movb	%dil, %cl
	movq	%rdx, %r8
	sarq	%cl, %r8
	movq	%r8, -512(%rbp)
	movb	%dil, %cl
	shrdq	%cl, %rdx, %rsi
	movq	-512(%rbp), %rcx
	sarq	$63, %rdx
	testb	$64, %dil
	cmovneq	%rcx, %rsi
	movq	%rsi, -504(%rbp)
	cmovneq	%rdx, %rcx
	movq	%rcx, -496(%rbp)
	testb	$1, %al
	jne	LBB64_30
	jmp	LBB64_29
LBB64_28:
	.loc	16 495 25
	leaq	_str.0(%rip), %rdi
	leaq	l___unnamed_26(%rip), %rdx
	movl	$33, %esi
	callq	__ZN4core9panicking5panic17hc1bc45270cf64b03E
LBB64_29:
	.loc	16 0 25 is_stmt 0
	movq	-496(%rbp), %rax
	movq	-504(%rbp), %rcx
	.loc	16 496 25 is_stmt 1
	movq	%rcx, -304(%rbp)
	movq	%rax, -296(%rbp)
	.loc	16 491 21
	jmp	LBB64_18
LBB64_30:
	.loc	16 496 25
	leaq	_str.4(%rip), %rdi
	leaq	l___unnamed_26(%rip), %rdx
	movl	$36, %esi
	callq	__ZN4core9panicking5panic17hc1bc45270cf64b03E
LBB64_31:
	.loc	16 0 25 is_stmt 0
	movq	-424(%rbp), %rax
	movq	-416(%rbp), %rcx
	.loc	16 499 17 is_stmt 1
	movq	%rcx, -336(%rbp)
	movq	%rax, -328(%rbp)
Ltmp590:
	.loc	16 500 14
	jmp	LBB64_6
LBB64_32:
Ltmp591:
	.loc	16 499 17
	leaq	_str.3(%rip), %rdi
	leaq	l___unnamed_26(%rip), %rdx
	movl	$35, %esi
	callq	__ZN4core9panicking5panic17hc1bc45270cf64b03E
Ltmp592:
Lfunc_end64:
	.cfi_endproc

	.p2align	4, 0x90
__ZN45_$LT$i16$u20$as$u20$core..ops..arith..Add$GT$3add17h02227520910072a6E:
Lfunc_begin65:
	.loc	18 103 0
	.cfi_startproc
	pushq	%rbp
	.cfi_def_cfa_offset 16
	.cfi_offset %rbp, -16
	movq	%rsp, %rbp
	.cfi_def_cfa_register %rbp
	subq	$16, %rsp
	movw	%si, %cx
	movw	%di, %ax
	movw	%ax, -4(%rbp)
	movw	%cx, -2(%rbp)
Ltmp593:
	.loc	18 103 45 prologue_end
	addw	%cx, %ax
	movw	%ax, -6(%rbp)
	seto	%al
	testb	$1, %al
	jne	LBB65_2
	.loc	18 0 45 is_stmt 0
	movw	-6(%rbp), %ax
	.loc	18 103 59
	addq	$16, %rsp
	popq	%rbp
	retq
LBB65_2:
	.loc	18 103 45
	leaq	_str.1(%rip), %rdi
	leaq	l___unnamed_18(%rip), %rdx
	movl	$28, %esi
	callq	__ZN4core9panicking5panic17hc1bc45270cf64b03E
Ltmp594:
Lfunc_end65:
	.cfi_endproc

	.p2align	4, 0x90
__ZN45_$LT$i16$u20$as$u20$core..ops..arith..Div$GT$3div17h458b6f1984d0c709E:
Lfunc_begin66:
	.loc	18 481 0 is_stmt 1
	.cfi_startproc
	pushq	%rbp
	.cfi_def_cfa_offset 16
	.cfi_offset %rbp, -16
	movq	%rsp, %rbp
	.cfi_def_cfa_register %rbp
	subq	$16, %rsp
	movw	%si, %ax
	movw	%ax, -8(%rbp)
	movw	%di, %cx
	movw	%cx, -6(%rbp)
	movw	%cx, -4(%rbp)
	movw	%ax, -2(%rbp)
Ltmp595:
	.loc	18 481 45 prologue_end
	cmpw	$0, %ax
	sete	%al
	testb	$1, %al
	jne	LBB66_2
	.loc	18 0 45 is_stmt 0
	movw	-6(%rbp), %cx
	movw	-8(%rbp), %ax
	.loc	18 481 45
	cmpw	$-1, %ax
	sete	%al
	cmpw	$-32768, %cx
	sete	%cl
	andb	%cl, %al
	testb	$1, %al
	jne	LBB66_4
	jmp	LBB66_3
LBB66_2:
	leaq	_str.5(%rip), %rdi
	leaq	l___unnamed_19(%rip), %rdx
	movl	$25, %esi
	callq	__ZN4core9panicking5panic17hc1bc45270cf64b03E
LBB66_3:
	.loc	18 0 45
	movw	-8(%rbp), %cx
	movw	-6(%rbp), %ax
	.loc	18 481 45
	cwtd
	idivw	%cx
	.loc	18 481 59
	addq	$16, %rsp
	popq	%rbp
	retq
LBB66_4:
	.loc	18 481 45
	leaq	_str.6(%rip), %rdi
	leaq	l___unnamed_19(%rip), %rdx
	movl	$31, %esi
	callq	__ZN4core9panicking5panic17hc1bc45270cf64b03E
Ltmp596:
Lfunc_end66:
	.cfi_endproc

	.p2align	4, 0x90
__ZN45_$LT$i16$u20$as$u20$core..ops..arith..Mul$GT$3mul17hd6a3d35aa8b8865cE:
Lfunc_begin67:
	.loc	18 342 0 is_stmt 1
	.cfi_startproc
	pushq	%rbp
	.cfi_def_cfa_offset 16
	.cfi_offset %rbp, -16
	movq	%rsp, %rbp
	.cfi_def_cfa_register %rbp
	subq	$16, %rsp
	movw	%si, %cx
	movw	%di, %ax
	movw	%ax, -4(%rbp)
	movw	%cx, -2(%rbp)
Ltmp597:
	.loc	18 342 45 prologue_end
	imulw	%cx, %ax
	movw	%ax, -6(%rbp)
	seto	%al
	testb	$1, %al
	jne	LBB67_2
	.loc	18 0 45 is_stmt 0
	movw	-6(%rbp), %ax
	.loc	18 342 59
	addq	$16, %rsp
	popq	%rbp
	retq
LBB67_2:
	.loc	18 342 45
	leaq	_str.2(%rip), %rdi
	leaq	l___unnamed_20(%rip), %rdx
	movl	$33, %esi
	callq	__ZN4core9panicking5panic17hc1bc45270cf64b03E
Ltmp598:
Lfunc_end67:
	.cfi_endproc

	.p2align	4, 0x90
__ZN45_$LT$i16$u20$as$u20$core..ops..arith..Neg$GT$3neg17ha6c12183f662c64dE:
Lfunc_begin68:
	.loc	18 695 0 is_stmt 1
	.cfi_startproc
	pushq	%rbp
	.cfi_def_cfa_offset 16
	.cfi_offset %rbp, -16
	movq	%rsp, %rbp
	.cfi_def_cfa_register %rbp
	subq	$16, %rsp
	movw	%di, %ax
	movw	%ax, -4(%rbp)
	movw	%ax, -2(%rbp)
Ltmp599:
	.loc	18 695 34 prologue_end
	cmpw	$-32768, %ax
	sete	%al
	testb	$1, %al
	jne	LBB68_2
	.loc	18 0 34 is_stmt 0
	movw	-4(%rbp), %cx
	.loc	18 695 34
	xorl	%eax, %eax
	subw	%cx, %ax
	.loc	18 695 41
	addq	$16, %rsp
	popq	%rbp
	retq
LBB68_2:
	.loc	18 695 34
	leaq	_str.7(%rip), %rdi
	leaq	l___unnamed_21(%rip), %rdx
	movl	$31, %esi
	callq	__ZN4core9panicking5panic17hc1bc45270cf64b03E
Ltmp600:
Lfunc_end68:
	.cfi_endproc

	.p2align	4, 0x90
__ZN45_$LT$i16$u20$as$u20$core..ops..arith..Sub$GT$3sub17hff37d829ecd59b6fE:
Lfunc_begin69:
	.loc	18 212 0 is_stmt 1
	.cfi_startproc
	pushq	%rbp
	.cfi_def_cfa_offset 16
	.cfi_offset %rbp, -16
	movq	%rsp, %rbp
	.cfi_def_cfa_register %rbp
	subq	$16, %rsp
	movw	%si, %cx
	movw	%di, %ax
	movw	%ax, -4(%rbp)
	movw	%cx, -2(%rbp)
Ltmp601:
	.loc	18 212 45 prologue_end
	subw	%cx, %ax
	movw	%ax, -6(%rbp)
	seto	%al
	testb	$1, %al
	jne	LBB69_2
	.loc	18 0 45 is_stmt 0
	movw	-6(%rbp), %ax
	.loc	18 212 59
	addq	$16, %rsp
	popq	%rbp
	retq
LBB69_2:
	.loc	18 212 45
	leaq	_str.0(%rip), %rdi
	leaq	l___unnamed_22(%rip), %rdx
	movl	$33, %esi
	callq	__ZN4core9panicking5panic17hc1bc45270cf64b03E
Ltmp602:
Lfunc_end69:
	.cfi_endproc

	.p2align	4, 0x90
__ZN45_$LT$i32$u20$as$u20$core..ops..arith..Add$GT$3add17h1cea9b329fcd7dccE:
Lfunc_begin70:
	.loc	18 103 0 is_stmt 1
	.cfi_startproc
	pushq	%rbp
	.cfi_def_cfa_offset 16
	.cfi_offset %rbp, -16
	movq	%rsp, %rbp
	.cfi_def_cfa_register %rbp
	subq	$16, %rsp
	movl	%edi, -8(%rbp)
	movl	%esi, -4(%rbp)
Ltmp603:
	.loc	18 103 45 prologue_end
	addl	%esi, %edi
	movl	%edi, -12(%rbp)
	seto	%al
	testb	$1, %al
	jne	LBB70_2
	.loc	18 0 45 is_stmt 0
	movl	-12(%rbp), %eax
	.loc	18 103 59
	addq	$16, %rsp
	popq	%rbp
	retq
LBB70_2:
	.loc	18 103 45
	leaq	_str.1(%rip), %rdi
	leaq	l___unnamed_18(%rip), %rdx
	movl	$28, %esi
	callq	__ZN4core9panicking5panic17hc1bc45270cf64b03E
Ltmp604:
Lfunc_end70:
	.cfi_endproc

	.p2align	4, 0x90
__ZN45_$LT$i32$u20$as$u20$core..ops..arith..Div$GT$3div17hbb5a8f5885009cc6E:
Lfunc_begin71:
	.loc	18 481 0 is_stmt 1
	.cfi_startproc
	pushq	%rbp
	.cfi_def_cfa_offset 16
	.cfi_offset %rbp, -16
	movq	%rsp, %rbp
	.cfi_def_cfa_register %rbp
	subq	$16, %rsp
	movl	%edi, -16(%rbp)
	movl	%esi, -12(%rbp)
	movl	%edi, -8(%rbp)
	movl	%esi, -4(%rbp)
Ltmp605:
	.loc	18 481 45 prologue_end
	cmpl	$0, %esi
	sete	%al
	testb	$1, %al
	jne	LBB71_2
	.loc	18 0 45 is_stmt 0
	movl	-16(%rbp), %ecx
	movl	-12(%rbp), %eax
	.loc	18 481 45
	cmpl	$-1, %eax
	sete	%al
	cmpl	$-2147483648, %ecx
	sete	%cl
	andb	%cl, %al
	testb	$1, %al
	jne	LBB71_4
	jmp	LBB71_3
LBB71_2:
	leaq	_str.5(%rip), %rdi
	leaq	l___unnamed_19(%rip), %rdx
	movl	$25, %esi
	callq	__ZN4core9panicking5panic17hc1bc45270cf64b03E
LBB71_3:
	.loc	18 0 45
	movl	-12(%rbp), %ecx
	movl	-16(%rbp), %eax
	.loc	18 481 45
	cltd
	idivl	%ecx
	.loc	18 481 59
	addq	$16, %rsp
	popq	%rbp
	retq
LBB71_4:
	.loc	18 481 45
	leaq	_str.6(%rip), %rdi
	leaq	l___unnamed_19(%rip), %rdx
	movl	$31, %esi
	callq	__ZN4core9panicking5panic17hc1bc45270cf64b03E
Ltmp606:
Lfunc_end71:
	.cfi_endproc

	.p2align	4, 0x90
__ZN45_$LT$i32$u20$as$u20$core..ops..arith..Mul$GT$3mul17h2268a6028e5614a9E:
Lfunc_begin72:
	.loc	18 342 0 is_stmt 1
	.cfi_startproc
	pushq	%rbp
	.cfi_def_cfa_offset 16
	.cfi_offset %rbp, -16
	movq	%rsp, %rbp
	.cfi_def_cfa_register %rbp
	subq	$16, %rsp
	movl	%edi, -8(%rbp)
	movl	%esi, -4(%rbp)
Ltmp607:
	.loc	18 342 45 prologue_end
	imull	%esi, %edi
	movl	%edi, -12(%rbp)
	seto	%al
	testb	$1, %al
	jne	LBB72_2
	.loc	18 0 45 is_stmt 0
	movl	-12(%rbp), %eax
	.loc	18 342 59
	addq	$16, %rsp
	popq	%rbp
	retq
LBB72_2:
	.loc	18 342 45
	leaq	_str.2(%rip), %rdi
	leaq	l___unnamed_20(%rip), %rdx
	movl	$33, %esi
	callq	__ZN4core9panicking5panic17hc1bc45270cf64b03E
Ltmp608:
Lfunc_end72:
	.cfi_endproc

	.p2align	4, 0x90
__ZN45_$LT$i32$u20$as$u20$core..ops..arith..Neg$GT$3neg17h3e1b112f2f62ca4aE:
Lfunc_begin73:
	.loc	18 695 0 is_stmt 1
	.cfi_startproc
	pushq	%rbp
	.cfi_def_cfa_offset 16
	.cfi_offset %rbp, -16
	movq	%rsp, %rbp
	.cfi_def_cfa_register %rbp
	subq	$16, %rsp
	movl	%edi, -8(%rbp)
	movl	%edi, -4(%rbp)
Ltmp609:
	.loc	18 695 34 prologue_end
	cmpl	$-2147483648, %edi
	sete	%al
	testb	$1, %al
	jne	LBB73_2
	.loc	18 0 34 is_stmt 0
	movl	-8(%rbp), %ecx
	.loc	18 695 34
	xorl	%eax, %eax
	subl	%ecx, %eax
	.loc	18 695 41
	addq	$16, %rsp
	popq	%rbp
	retq
LBB73_2:
	.loc	18 695 34
	leaq	_str.7(%rip), %rdi
	leaq	l___unnamed_21(%rip), %rdx
	movl	$31, %esi
	callq	__ZN4core9panicking5panic17hc1bc45270cf64b03E
Ltmp610:
Lfunc_end73:
	.cfi_endproc

	.p2align	4, 0x90
__ZN45_$LT$i32$u20$as$u20$core..ops..arith..Sub$GT$3sub17hc14502fb0c712995E:
Lfunc_begin74:
	.loc	18 212 0 is_stmt 1
	.cfi_startproc
	pushq	%rbp
	.cfi_def_cfa_offset 16
	.cfi_offset %rbp, -16
	movq	%rsp, %rbp
	.cfi_def_cfa_register %rbp
	subq	$16, %rsp
	movl	%edi, -8(%rbp)
	movl	%esi, -4(%rbp)
Ltmp611:
	.loc	18 212 45 prologue_end
	subl	%esi, %edi
	movl	%edi, -12(%rbp)
	seto	%al
	testb	$1, %al
	jne	LBB74_2
	.loc	18 0 45 is_stmt 0
	movl	-12(%rbp), %eax
	.loc	18 212 59
	addq	$16, %rsp
	popq	%rbp
	retq
LBB74_2:
	.loc	18 212 45
	leaq	_str.0(%rip), %rdi
	leaq	l___unnamed_22(%rip), %rdx
	movl	$33, %esi
	callq	__ZN4core9panicking5panic17hc1bc45270cf64b03E
Ltmp612:
Lfunc_end74:
	.cfi_endproc

	.p2align	4, 0x90
__ZN45_$LT$i64$u20$as$u20$core..ops..arith..Add$GT$3add17h23080211433f903fE:
Lfunc_begin75:
	.loc	18 103 0 is_stmt 1
	.cfi_startproc
	pushq	%rbp
	.cfi_def_cfa_offset 16
	.cfi_offset %rbp, -16
	movq	%rsp, %rbp
	.cfi_def_cfa_register %rbp
	subq	$32, %rsp
	movq	%rdi, -16(%rbp)
	movq	%rsi, -8(%rbp)
Ltmp613:
	.loc	18 103 45 prologue_end
	addq	%rsi, %rdi
	movq	%rdi, -24(%rbp)
	seto	%al
	testb	$1, %al
	jne	LBB75_2
	.loc	18 0 45 is_stmt 0
	movq	-24(%rbp), %rax
	.loc	18 103 59
	addq	$32, %rsp
	popq	%rbp
	retq
LBB75_2:
	.loc	18 103 45
	leaq	_str.1(%rip), %rdi
	leaq	l___unnamed_18(%rip), %rdx
	movl	$28, %esi
	callq	__ZN4core9panicking5panic17hc1bc45270cf64b03E
Ltmp614:
Lfunc_end75:
	.cfi_endproc

	.p2align	4, 0x90
__ZN45_$LT$i64$u20$as$u20$core..ops..arith..Div$GT$3div17hf8b3f1fe4d121d71E:
Lfunc_begin76:
	.loc	18 481 0 is_stmt 1
	.cfi_startproc
	pushq	%rbp
	.cfi_def_cfa_offset 16
	.cfi_offset %rbp, -16
	movq	%rsp, %rbp
	.cfi_def_cfa_register %rbp
	subq	$32, %rsp
	movq	%rdi, -32(%rbp)
	movq	%rsi, -24(%rbp)
	movq	%rdi, -16(%rbp)
	movq	%rsi, -8(%rbp)
Ltmp615:
	.loc	18 481 45 prologue_end
	cmpq	$0, %rsi
	sete	%al
	testb	$1, %al
	jne	LBB76_2
	.loc	18 0 45 is_stmt 0
	movq	-32(%rbp), %rcx
	movq	-24(%rbp), %rax
	.loc	18 481 45
	cmpq	$-1, %rax
	sete	%al
	movabsq	$-9223372036854775808, %rdx
	cmpq	%rdx, %rcx
	sete	%cl
	andb	%cl, %al
	testb	$1, %al
	jne	LBB76_4
	jmp	LBB76_3
LBB76_2:
	leaq	_str.5(%rip), %rdi
	leaq	l___unnamed_19(%rip), %rdx
	movl	$25, %esi
	callq	__ZN4core9panicking5panic17hc1bc45270cf64b03E
LBB76_3:
	.loc	18 0 45
	movq	-24(%rbp), %rcx
	movq	-32(%rbp), %rax
	.loc	18 481 45
	cqto
	idivq	%rcx
	.loc	18 481 59
	addq	$32, %rsp
	popq	%rbp
	retq
LBB76_4:
	.loc	18 481 45
	leaq	_str.6(%rip), %rdi
	leaq	l___unnamed_19(%rip), %rdx
	movl	$31, %esi
	callq	__ZN4core9panicking5panic17hc1bc45270cf64b03E
Ltmp616:
Lfunc_end76:
	.cfi_endproc

	.p2align	4, 0x90
__ZN45_$LT$i64$u20$as$u20$core..ops..arith..Mul$GT$3mul17heccb2c2d3dd125acE:
Lfunc_begin77:
	.loc	18 342 0 is_stmt 1
	.cfi_startproc
	pushq	%rbp
	.cfi_def_cfa_offset 16
	.cfi_offset %rbp, -16
	movq	%rsp, %rbp
	.cfi_def_cfa_register %rbp
	subq	$32, %rsp
	movq	%rdi, -16(%rbp)
	movq	%rsi, -8(%rbp)
Ltmp617:
	.loc	18 342 45 prologue_end
	imulq	%rsi, %rdi
	movq	%rdi, -24(%rbp)
	seto	%al
	testb	$1, %al
	jne	LBB77_2
	.loc	18 0 45 is_stmt 0
	movq	-24(%rbp), %rax
	.loc	18 342 59
	addq	$32, %rsp
	popq	%rbp
	retq
LBB77_2:
	.loc	18 342 45
	leaq	_str.2(%rip), %rdi
	leaq	l___unnamed_20(%rip), %rdx
	movl	$33, %esi
	callq	__ZN4core9panicking5panic17hc1bc45270cf64b03E
Ltmp618:
Lfunc_end77:
	.cfi_endproc

	.p2align	4, 0x90
__ZN45_$LT$i64$u20$as$u20$core..ops..arith..Neg$GT$3neg17h63dc0106017a6515E:
Lfunc_begin78:
	.loc	18 695 0 is_stmt 1
	.cfi_startproc
	pushq	%rbp
	.cfi_def_cfa_offset 16
	.cfi_offset %rbp, -16
	movq	%rsp, %rbp
	.cfi_def_cfa_register %rbp
	subq	$16, %rsp
	movq	%rdi, -16(%rbp)
	movq	%rdi, -8(%rbp)
Ltmp619:
	.loc	18 695 34 prologue_end
	movabsq	$-9223372036854775808, %rax
	cmpq	%rax, %rdi
	sete	%al
	testb	$1, %al
	jne	LBB78_2
	.loc	18 0 34 is_stmt 0
	movq	-16(%rbp), %rcx
	.loc	18 695 34
	xorl	%eax, %eax
	subq	%rcx, %rax
	.loc	18 695 41
	addq	$16, %rsp
	popq	%rbp
	retq
LBB78_2:
	.loc	18 695 34
	leaq	_str.7(%rip), %rdi
	leaq	l___unnamed_21(%rip), %rdx
	movl	$31, %esi
	callq	__ZN4core9panicking5panic17hc1bc45270cf64b03E
Ltmp620:
Lfunc_end78:
	.cfi_endproc

	.p2align	4, 0x90
__ZN45_$LT$i64$u20$as$u20$core..ops..arith..Sub$GT$3sub17h118108f18ba83126E:
Lfunc_begin79:
	.loc	18 212 0 is_stmt 1
	.cfi_startproc
	pushq	%rbp
	.cfi_def_cfa_offset 16
	.cfi_offset %rbp, -16
	movq	%rsp, %rbp
	.cfi_def_cfa_register %rbp
	subq	$32, %rsp
	movq	%rdi, -16(%rbp)
	movq	%rsi, -8(%rbp)
Ltmp621:
	.loc	18 212 45 prologue_end
	subq	%rsi, %rdi
	movq	%rdi, -24(%rbp)
	seto	%al
	testb	$1, %al
	jne	LBB79_2
	.loc	18 0 45 is_stmt 0
	movq	-24(%rbp), %rax
	.loc	18 212 59
	addq	$32, %rsp
	popq	%rbp
	retq
LBB79_2:
	.loc	18 212 45
	leaq	_str.0(%rip), %rdi
	leaq	l___unnamed_22(%rip), %rdx
	movl	$33, %esi
	callq	__ZN4core9panicking5panic17hc1bc45270cf64b03E
Ltmp622:
Lfunc_end79:
	.cfi_endproc

	.p2align	4, 0x90
__ZN45_$LT$u128$u20$as$u20$num_integer..Integer$GT$3gcd17h1a022ec7be35bb58E:
Lfunc_begin80:
	.loc	16 855 0 is_stmt 1
	.cfi_startproc
	pushq	%rbp
	.cfi_def_cfa_offset 16
	.cfi_offset %rbp, -16
	movq	%rsp, %rbp
	.cfi_def_cfa_register %rbp
	subq	$400, %rsp
	movq	%rdi, -184(%rbp)
	movq	%rsi, -176(%rbp)
Ltmp623:
	.loc	16 857 29 prologue_end
	movq	(%rdi), %rax
	movq	8(%rdi), %rcx
	movq	%rcx, -216(%rbp)
	movq	%rax, -224(%rbp)
Ltmp624:
	.loc	16 858 29
	movq	(%rsi), %rax
	movq	8(%rsi), %rcx
	movq	%rcx, -200(%rbp)
	movq	%rax, -208(%rbp)
Ltmp625:
	.loc	16 859 20
	movq	-224(%rbp), %rax
	movq	-216(%rbp), %rcx
	orq	%rcx, %rax
	jne	LBB80_2
	jmp	LBB80_1
LBB80_1:
	movb	$1, -185(%rbp)
	jmp	LBB80_3
LBB80_2:
	.loc	16 859 30 is_stmt 0
	movq	-208(%rbp), %rax
	movq	-200(%rbp), %rcx
	orq	%rcx, %rax
	sete	%al
	.loc	16 859 20
	andb	$1, %al
	movb	%al, -185(%rbp)
LBB80_3:
	testb	$1, -185(%rbp)
	jne	LBB80_5
	.loc	16 864 30 is_stmt 1
	movq	-224(%rbp), %rsi
	movq	-216(%rbp), %rax
	.loc	16 864 34 is_stmt 0
	movq	-208(%rbp), %rdx
	movq	-200(%rbp), %rcx
	.loc	16 864 29
	orq	%rdx, %rsi
	orq	%rcx, %rax
	movq	%rax, -24(%rbp)
	movq	%rsi, -32(%rbp)
Ltmp626:
	.loc	9 152 13 is_stmt 1
	bsfq	%rax, %rax
	movl	$64, %ecx
	cmoveq	%rcx, %rax
	addq	$64, %rax
	bsfq	%rsi, %rdx
	testq	%rsi, %rsi
	cmovneq	%rdx, %rax
	movq	%rax, -16(%rbp)
	movq	$0, -8(%rbp)
	movl	-16(%rbp), %eax
	movl	%eax, -268(%rbp)
Ltmp627:
	.loc	16 864 29
	movl	%eax, -164(%rbp)
Ltmp628:
	.loc	16 867 23
	movq	-224(%rbp), %rdx
	movq	-216(%rbp), %rax
	movq	%rax, -56(%rbp)
	movq	%rdx, -64(%rbp)
Ltmp629:
	.loc	9 152 13
	bsfq	%rax, %rax
	cmoveq	%rcx, %rax
	addq	$64, %rax
	bsfq	%rdx, %rcx
	testq	%rdx, %rdx
	cmovneq	%rcx, %rax
	movq	%rax, -48(%rbp)
	movq	$0, -40(%rbp)
	movq	-48(%rbp), %rcx
	movl	%ecx, %eax
Ltmp630:
	.loc	16 867 17
	movq	-224(%rbp), %rsi
	movq	-216(%rbp), %rdx
	testl	$-128, %eax
	setne	%al
	movb	%cl, %dil
	movb	%dil, %cl
	movq	%rdx, %r8
	shrq	%cl, %r8
	movq	%r8, -264(%rbp)
	movb	%dil, %cl
	shrdq	%cl, %rdx, %rsi
	movq	-264(%rbp), %rcx
	xorl	%edx, %edx
	testb	$64, %dil
	cmovneq	%rcx, %rsi
	movq	%rsi, -256(%rbp)
	cmovneq	%rdx, %rcx
	movq	%rcx, -248(%rbp)
	testb	$1, %al
	jne	LBB80_8
	jmp	LBB80_7
Ltmp631:
LBB80_5:
	.loc	16 860 28
	movq	-224(%rbp), %rax
	movq	-216(%rbp), %rcx
	.loc	16 860 32 is_stmt 0
	movq	-208(%rbp), %rsi
	movq	-200(%rbp), %rdx
	.loc	16 860 28
	orq	%rsi, %rax
	orq	%rdx, %rcx
	movq	%rcx, -232(%rbp)
	movq	%rax, -240(%rbp)
Ltmp632:
LBB80_6:
	.loc	16 880 14 is_stmt 1
	movq	-240(%rbp), %rax
	movq	-232(%rbp), %rdx
	addq	$400, %rsp
	popq	%rbp
	retq
LBB80_7:
	.loc	16 0 14 is_stmt 0
	movq	-248(%rbp), %rax
	movq	-256(%rbp), %rcx
Ltmp633:
	.loc	16 867 17 is_stmt 1
	movq	%rcx, -224(%rbp)
	movq	%rax, -216(%rbp)
	.loc	16 868 23
	movq	-208(%rbp), %rdx
	movq	-200(%rbp), %rax
	movq	%rax, -88(%rbp)
	movq	%rdx, -96(%rbp)
Ltmp634:
	.loc	9 152 13
	bsfq	%rax, %rax
	movl	$64, %ecx
	cmoveq	%rcx, %rax
	addq	$64, %rax
	bsfq	%rdx, %rcx
	testq	%rdx, %rdx
	cmovneq	%rcx, %rax
	movq	%rax, -80(%rbp)
	movq	$0, -72(%rbp)
	movq	-80(%rbp), %rcx
	movl	%ecx, %eax
Ltmp635:
	.loc	16 868 17
	movq	-208(%rbp), %rsi
	movq	-200(%rbp), %rdx
	testl	$-128, %eax
	setne	%al
	movb	%cl, %dil
	movb	%dil, %cl
	movq	%rdx, %r8
	shrq	%cl, %r8
	movq	%r8, -296(%rbp)
	movb	%dil, %cl
	shrdq	%cl, %rdx, %rsi
	movq	-296(%rbp), %rcx
	xorl	%edx, %edx
	testb	$64, %dil
	cmovneq	%rcx, %rsi
	movq	%rsi, -288(%rbp)
	cmovneq	%rdx, %rcx
	movq	%rcx, -280(%rbp)
	testb	$1, %al
	jne	LBB80_10
	jmp	LBB80_9
LBB80_8:
	.loc	16 867 17
	leaq	_str.4(%rip), %rdi
	leaq	l___unnamed_27(%rip), %rdx
	movl	$36, %esi
	callq	__ZN4core9panicking5panic17hc1bc45270cf64b03E
LBB80_9:
	.loc	16 0 17 is_stmt 0
	movq	-280(%rbp), %rax
	movq	-288(%rbp), %rcx
	.loc	16 868 17 is_stmt 1
	movq	%rcx, -208(%rbp)
	movq	%rax, -200(%rbp)
	.loc	16 870 17
	jmp	LBB80_11
LBB80_10:
	.loc	16 868 17
	leaq	_str.4(%rip), %rdi
	leaq	l___unnamed_27(%rip), %rdx
	movl	$36, %esi
	callq	__ZN4core9panicking5panic17hc1bc45270cf64b03E
LBB80_11:
	.loc	16 870 23
	movups	-224(%rbp), %xmm0
	.loc	16 870 28 is_stmt 0
	movups	-208(%rbp), %xmm1
	.loc	16 870 23
	pcmpeqb	%xmm1, %xmm0
	pmovmskb	%xmm0, %eax
	subl	$65535, %eax
	jne	LBB80_13
	jmp	LBB80_12
LBB80_12:
	.loc	16 0 23
	movl	-268(%rbp), %ecx
	.loc	16 879 17 is_stmt 1
	movq	-224(%rbp), %rdx
	movq	-216(%rbp), %rsi
	testl	$-128, %ecx
	setne	%al
	movb	%cl, %dil
	movb	%dil, %cl
	movq	%rdx, %r8
	shlq	%cl, %r8
	movq	%r8, -320(%rbp)
	movb	%dil, %cl
	shldq	%cl, %rdx, %rsi
	movq	-320(%rbp), %rcx
	xorl	%edx, %edx
	testb	$64, %dil
	cmovneq	%rcx, %rsi
	movq	%rsi, -312(%rbp)
	cmovneq	%rdx, %rcx
	movq	%rcx, -304(%rbp)
	testb	$1, %al
	jne	LBB80_25
	jmp	LBB80_24
LBB80_13:
	.loc	16 871 24
	movq	-224(%rbp), %rsi
	movq	-216(%rbp), %rcx
	.loc	16 871 28 is_stmt 0
	movq	-208(%rbp), %rdx
	movq	-200(%rbp), %rax
	.loc	16 871 24
	subq	%rsi, %rdx
	sbbq	%rcx, %rax
	jb	LBB80_15
	jmp	LBB80_14
LBB80_14:
	.loc	16 875 30 is_stmt 1
	movq	-224(%rbp), %rsi
	movq	-216(%rbp), %rcx
	.loc	16 875 25 is_stmt 0
	movq	-208(%rbp), %rdx
	movq	-200(%rbp), %rax
	subq	%rsi, %rdx
	movq	%rdx, -336(%rbp)
	sbbq	%rcx, %rax
	movq	%rax, -328(%rbp)
	setb	%al
	testb	$1, %al
	jne	LBB80_21
	jmp	LBB80_20
LBB80_15:
	.loc	16 872 30 is_stmt 1
	movq	-208(%rbp), %rsi
	movq	-200(%rbp), %rcx
	.loc	16 872 25 is_stmt 0
	movq	-224(%rbp), %rdx
	movq	-216(%rbp), %rax
	subq	%rsi, %rdx
	movq	%rdx, -352(%rbp)
	sbbq	%rcx, %rax
	movq	%rax, -344(%rbp)
	setb	%al
	testb	$1, %al
	jne	LBB80_17
	.loc	16 0 25
	movq	-344(%rbp), %rax
	movq	-352(%rbp), %rcx
	.loc	16 872 25
	movq	%rcx, -224(%rbp)
	movq	%rax, -216(%rbp)
	.loc	16 873 31 is_stmt 1
	movq	-224(%rbp), %rdx
	movq	-216(%rbp), %rax
	movq	%rax, -120(%rbp)
	movq	%rdx, -128(%rbp)
Ltmp636:
	.loc	9 152 13
	bsfq	%rax, %rax
	movl	$64, %ecx
	cmoveq	%rcx, %rax
	addq	$64, %rax
	bsfq	%rdx, %rcx
	testq	%rdx, %rdx
	cmovneq	%rcx, %rax
	movq	%rax, -112(%rbp)
	movq	$0, -104(%rbp)
	movq	-112(%rbp), %rcx
	movl	%ecx, %eax
Ltmp637:
	.loc	16 873 25
	movq	-224(%rbp), %rsi
	movq	-216(%rbp), %rdx
	testl	$-128, %eax
	setne	%al
	movb	%cl, %dil
	movb	%dil, %cl
	movq	%rdx, %r8
	shrq	%cl, %r8
	movq	%r8, -376(%rbp)
	movb	%dil, %cl
	shrdq	%cl, %rdx, %rsi
	movq	-376(%rbp), %rcx
	xorl	%edx, %edx
	testb	$64, %dil
	cmovneq	%rcx, %rsi
	movq	%rsi, -368(%rbp)
	cmovneq	%rdx, %rcx
	movq	%rcx, -360(%rbp)
	testb	$1, %al
	jne	LBB80_19
	jmp	LBB80_18
LBB80_17:
	.loc	16 872 25
	leaq	_str.0(%rip), %rdi
	leaq	l___unnamed_27(%rip), %rdx
	movl	$33, %esi
	callq	__ZN4core9panicking5panic17hc1bc45270cf64b03E
LBB80_18:
	.loc	16 0 25 is_stmt 0
	movq	-360(%rbp), %rax
	movq	-368(%rbp), %rcx
	.loc	16 873 25 is_stmt 1
	movq	%rcx, -224(%rbp)
	movq	%rax, -216(%rbp)
	.loc	16 871 21
	jmp	LBB80_11
LBB80_19:
	.loc	16 873 25
	leaq	_str.4(%rip), %rdi
	leaq	l___unnamed_27(%rip), %rdx
	movl	$36, %esi
	callq	__ZN4core9panicking5panic17hc1bc45270cf64b03E
LBB80_20:
	.loc	16 0 25 is_stmt 0
	movq	-328(%rbp), %rax
	movq	-336(%rbp), %rcx
	.loc	16 875 25 is_stmt 1
	movq	%rcx, -208(%rbp)
	movq	%rax, -200(%rbp)
	.loc	16 876 31
	movq	-208(%rbp), %rdx
	movq	-200(%rbp), %rax
	movq	%rax, -152(%rbp)
	movq	%rdx, -160(%rbp)
Ltmp638:
	.loc	9 152 13
	bsfq	%rax, %rax
	movl	$64, %ecx
	cmoveq	%rcx, %rax
	addq	$64, %rax
	bsfq	%rdx, %rcx
	testq	%rdx, %rdx
	cmovneq	%rcx, %rax
	movq	%rax, -144(%rbp)
	movq	$0, -136(%rbp)
	movq	-144(%rbp), %rcx
	movl	%ecx, %eax
Ltmp639:
	.loc	16 876 25
	movq	-208(%rbp), %rsi
	movq	-200(%rbp), %rdx
	testl	$-128, %eax
	setne	%al
	movb	%cl, %dil
	movb	%dil, %cl
	movq	%rdx, %r8
	shrq	%cl, %r8
	movq	%r8, -400(%rbp)
	movb	%dil, %cl
	shrdq	%cl, %rdx, %rsi
	movq	-400(%rbp), %rcx
	xorl	%edx, %edx
	testb	$64, %dil
	cmovneq	%rcx, %rsi
	movq	%rsi, -392(%rbp)
	cmovneq	%rdx, %rcx
	movq	%rcx, -384(%rbp)
	testb	$1, %al
	jne	LBB80_23
	jmp	LBB80_22
LBB80_21:
	.loc	16 875 25
	leaq	_str.0(%rip), %rdi
	leaq	l___unnamed_27(%rip), %rdx
	movl	$33, %esi
	callq	__ZN4core9panicking5panic17hc1bc45270cf64b03E
LBB80_22:
	.loc	16 0 25 is_stmt 0
	movq	-384(%rbp), %rax
	movq	-392(%rbp), %rcx
	.loc	16 876 25 is_stmt 1
	movq	%rcx, -208(%rbp)
	movq	%rax, -200(%rbp)
	.loc	16 871 21
	jmp	LBB80_11
LBB80_23:
	.loc	16 876 25
	leaq	_str.4(%rip), %rdi
	leaq	l___unnamed_27(%rip), %rdx
	movl	$36, %esi
	callq	__ZN4core9panicking5panic17hc1bc45270cf64b03E
LBB80_24:
	.loc	16 0 25 is_stmt 0
	movq	-312(%rbp), %rax
	movq	-304(%rbp), %rcx
	.loc	16 879 17 is_stmt 1
	movq	%rcx, -240(%rbp)
	movq	%rax, -232(%rbp)
Ltmp640:
	.loc	16 880 14
	jmp	LBB80_6
LBB80_25:
Ltmp641:
	.loc	16 879 17
	leaq	_str.3(%rip), %rdi
	leaq	l___unnamed_27(%rip), %rdx
	movl	$35, %esi
	callq	__ZN4core9panicking5panic17hc1bc45270cf64b03E
Ltmp642:
Lfunc_end80:
	.cfi_endproc

	.p2align	4, 0x90
__ZN45_$LT$u16$u20$as$u20$core..ops..arith..Add$GT$3add17h54db0e5eaff3a8e0E:
Lfunc_begin81:
	.loc	18 103 0
	.cfi_startproc
	pushq	%rbp
	.cfi_def_cfa_offset 16
	.cfi_offset %rbp, -16
	movq	%rsp, %rbp
	.cfi_def_cfa_register %rbp
	subq	$16, %rsp
	movw	%si, %cx
	movw	%di, %ax
	movw	%ax, -4(%rbp)
	movw	%cx, -2(%rbp)
Ltmp643:
	.loc	18 103 45 prologue_end
	addw	%cx, %ax
	movw	%ax, -6(%rbp)
	setb	%al
	testb	$1, %al
	jne	LBB81_2
	.loc	18 0 45 is_stmt 0
	movw	-6(%rbp), %ax
	.loc	18 103 59
	addq	$16, %rsp
	popq	%rbp
	retq
LBB81_2:
	.loc	18 103 45
	leaq	_str.1(%rip), %rdi
	leaq	l___unnamed_18(%rip), %rdx
	movl	$28, %esi
	callq	__ZN4core9panicking5panic17hc1bc45270cf64b03E
Ltmp644:
Lfunc_end81:
	.cfi_endproc

	.p2align	4, 0x90
__ZN45_$LT$u16$u20$as$u20$core..ops..arith..Div$GT$3div17h8f77a2282212ab95E:
Lfunc_begin82:
	.loc	18 481 0 is_stmt 1
	.cfi_startproc
	pushq	%rbp
	.cfi_def_cfa_offset 16
	.cfi_offset %rbp, -16
	movq	%rsp, %rbp
	.cfi_def_cfa_register %rbp
	subq	$16, %rsp
	movw	%si, %ax
	movw	%ax, -8(%rbp)
	movw	%di, %cx
	movw	%cx, -6(%rbp)
	movw	%cx, -4(%rbp)
	movw	%ax, -2(%rbp)
Ltmp645:
	.loc	18 481 45 prologue_end
	cmpw	$0, %ax
	sete	%al
	testb	$1, %al
	jne	LBB82_2
	.loc	18 0 45 is_stmt 0
	movw	-8(%rbp), %cx
	movw	-6(%rbp), %ax
	.loc	18 481 45
	xorl	%edx, %edx
	divw	%cx
	.loc	18 481 59
	addq	$16, %rsp
	popq	%rbp
	retq
LBB82_2:
	.loc	18 481 45
	leaq	_str.5(%rip), %rdi
	leaq	l___unnamed_19(%rip), %rdx
	movl	$25, %esi
	callq	__ZN4core9panicking5panic17hc1bc45270cf64b03E
Ltmp646:
Lfunc_end82:
	.cfi_endproc

	.p2align	4, 0x90
__ZN45_$LT$u16$u20$as$u20$core..ops..arith..Mul$GT$3mul17h88ba002fec79d9f6E:
Lfunc_begin83:
	.loc	18 342 0 is_stmt 1
	.cfi_startproc
	pushq	%rbp
	.cfi_def_cfa_offset 16
	.cfi_offset %rbp, -16
	movq	%rsp, %rbp
	.cfi_def_cfa_register %rbp
	subq	$16, %rsp
	movw	%si, %cx
	movw	%di, %ax
	movw	%ax, -4(%rbp)
	movw	%cx, -2(%rbp)
Ltmp647:
	.loc	18 342 45 prologue_end
	mulw	%cx
	movw	%ax, -6(%rbp)
	seto	%al
	testb	$1, %al
	jne	LBB83_2
	.loc	18 0 45 is_stmt 0
	movw	-6(%rbp), %ax
	.loc	18 342 59
	addq	$16, %rsp
	popq	%rbp
	retq
LBB83_2:
	.loc	18 342 45
	leaq	_str.2(%rip), %rdi
	leaq	l___unnamed_20(%rip), %rdx
	movl	$33, %esi
	callq	__ZN4core9panicking5panic17hc1bc45270cf64b03E
Ltmp648:
Lfunc_end83:
	.cfi_endproc

	.p2align	4, 0x90
__ZN45_$LT$u16$u20$as$u20$core..ops..arith..Sub$GT$3sub17h6cf79e8d0353e2bbE:
Lfunc_begin84:
	.loc	18 212 0 is_stmt 1
	.cfi_startproc
	pushq	%rbp
	.cfi_def_cfa_offset 16
	.cfi_offset %rbp, -16
	movq	%rsp, %rbp
	.cfi_def_cfa_register %rbp
	subq	$16, %rsp
	movw	%si, %cx
	movw	%di, %ax
	movw	%ax, -4(%rbp)
	movw	%cx, -2(%rbp)
Ltmp649:
	.loc	18 212 45 prologue_end
	movw	%ax, %dx
	subw	%cx, %dx
	movw	%dx, -6(%rbp)
	cmpw	%cx, %ax
	setb	%al
	testb	$1, %al
	jne	LBB84_2
	.loc	18 0 45 is_stmt 0
	movw	-6(%rbp), %ax
	.loc	18 212 59
	addq	$16, %rsp
	popq	%rbp
	retq
LBB84_2:
	.loc	18 212 45
	leaq	_str.0(%rip), %rdi
	leaq	l___unnamed_22(%rip), %rdx
	movl	$33, %esi
	callq	__ZN4core9panicking5panic17hc1bc45270cf64b03E
Ltmp650:
Lfunc_end84:
	.cfi_endproc

	.p2align	4, 0x90
__ZN45_$LT$u32$u20$as$u20$core..ops..arith..Add$GT$3add17h13e834df9f2eeea2E:
Lfunc_begin85:
	.loc	18 103 0 is_stmt 1
	.cfi_startproc
	pushq	%rbp
	.cfi_def_cfa_offset 16
	.cfi_offset %rbp, -16
	movq	%rsp, %rbp
	.cfi_def_cfa_register %rbp
	subq	$16, %rsp
	movl	%edi, -8(%rbp)
	movl	%esi, -4(%rbp)
Ltmp651:
	.loc	18 103 45 prologue_end
	addl	%esi, %edi
	movl	%edi, -12(%rbp)
	setb	%al
	testb	$1, %al
	jne	LBB85_2
	.loc	18 0 45 is_stmt 0
	movl	-12(%rbp), %eax
	.loc	18 103 59
	addq	$16, %rsp
	popq	%rbp
	retq
LBB85_2:
	.loc	18 103 45
	leaq	_str.1(%rip), %rdi
	leaq	l___unnamed_18(%rip), %rdx
	movl	$28, %esi
	callq	__ZN4core9panicking5panic17hc1bc45270cf64b03E
Ltmp652:
Lfunc_end85:
	.cfi_endproc

	.p2align	4, 0x90
__ZN45_$LT$u32$u20$as$u20$core..ops..arith..Div$GT$3div17h8dd8832603f06897E:
Lfunc_begin86:
	.loc	18 481 0 is_stmt 1
	.cfi_startproc
	pushq	%rbp
	.cfi_def_cfa_offset 16
	.cfi_offset %rbp, -16
	movq	%rsp, %rbp
	.cfi_def_cfa_register %rbp
	subq	$16, %rsp
	movl	%edi, -16(%rbp)
	movl	%esi, -12(%rbp)
	movl	%edi, -8(%rbp)
	movl	%esi, -4(%rbp)
Ltmp653:
	.loc	18 481 45 prologue_end
	cmpl	$0, %esi
	sete	%al
	testb	$1, %al
	jne	LBB86_2
	.loc	18 0 45 is_stmt 0
	movl	-12(%rbp), %ecx
	movl	-16(%rbp), %eax
	.loc	18 481 45
	xorl	%edx, %edx
	divl	%ecx
	.loc	18 481 59
	addq	$16, %rsp
	popq	%rbp
	retq
LBB86_2:
	.loc	18 481 45
	leaq	_str.5(%rip), %rdi
	leaq	l___unnamed_19(%rip), %rdx
	movl	$25, %esi
	callq	__ZN4core9panicking5panic17hc1bc45270cf64b03E
Ltmp654:
Lfunc_end86:
	.cfi_endproc

	.p2align	4, 0x90
__ZN45_$LT$u32$u20$as$u20$core..ops..arith..Mul$GT$3mul17ha6126c1687ad8b2fE:
Lfunc_begin87:
	.loc	18 342 0 is_stmt 1
	.cfi_startproc
	pushq	%rbp
	.cfi_def_cfa_offset 16
	.cfi_offset %rbp, -16
	movq	%rsp, %rbp
	.cfi_def_cfa_register %rbp
	subq	$16, %rsp
	movl	%edi, %eax
	movl	%eax, -8(%rbp)
	movl	%esi, -4(%rbp)
Ltmp655:
	.loc	18 342 45 prologue_end
	mull	%esi
	movl	%eax, -12(%rbp)
	seto	%al
	testb	$1, %al
	jne	LBB87_2
	.loc	18 0 45 is_stmt 0
	movl	-12(%rbp), %eax
	.loc	18 342 59
	addq	$16, %rsp
	popq	%rbp
	retq
LBB87_2:
	.loc	18 342 45
	leaq	_str.2(%rip), %rdi
	leaq	l___unnamed_20(%rip), %rdx
	movl	$33, %esi
	callq	__ZN4core9panicking5panic17hc1bc45270cf64b03E
Ltmp656:
Lfunc_end87:
	.cfi_endproc

	.p2align	4, 0x90
__ZN45_$LT$u32$u20$as$u20$core..ops..arith..Sub$GT$3sub17h5739da278c5093e6E:
Lfunc_begin88:
	.loc	18 212 0 is_stmt 1
	.cfi_startproc
	pushq	%rbp
	.cfi_def_cfa_offset 16
	.cfi_offset %rbp, -16
	movq	%rsp, %rbp
	.cfi_def_cfa_register %rbp
	subq	$16, %rsp
	movl	%edi, -8(%rbp)
	movl	%esi, -4(%rbp)
Ltmp657:
	.loc	18 212 45 prologue_end
	movl	%edi, %eax
	subl	%esi, %eax
	movl	%eax, -12(%rbp)
	cmpl	%esi, %edi
	setb	%al
	testb	$1, %al
	jne	LBB88_2
	.loc	18 0 45 is_stmt 0
	movl	-12(%rbp), %eax
	.loc	18 212 59
	addq	$16, %rsp
	popq	%rbp
	retq
LBB88_2:
	.loc	18 212 45
	leaq	_str.0(%rip), %rdi
	leaq	l___unnamed_22(%rip), %rdx
	movl	$33, %esi
	callq	__ZN4core9panicking5panic17hc1bc45270cf64b03E
Ltmp658:
Lfunc_end88:
	.cfi_endproc

	.p2align	4, 0x90
__ZN45_$LT$u64$u20$as$u20$core..ops..arith..Add$GT$3add17h72307302c2b803f1E:
Lfunc_begin89:
	.loc	18 103 0 is_stmt 1
	.cfi_startproc
	pushq	%rbp
	.cfi_def_cfa_offset 16
	.cfi_offset %rbp, -16
	movq	%rsp, %rbp
	.cfi_def_cfa_register %rbp
	subq	$32, %rsp
	movq	%rdi, -16(%rbp)
	movq	%rsi, -8(%rbp)
Ltmp659:
	.loc	18 103 45 prologue_end
	addq	%rsi, %rdi
	movq	%rdi, -24(%rbp)
	setb	%al
	testb	$1, %al
	jne	LBB89_2
	.loc	18 0 45 is_stmt 0
	movq	-24(%rbp), %rax
	.loc	18 103 59
	addq	$32, %rsp
	popq	%rbp
	retq
LBB89_2:
	.loc	18 103 45
	leaq	_str.1(%rip), %rdi
	leaq	l___unnamed_18(%rip), %rdx
	movl	$28, %esi
	callq	__ZN4core9panicking5panic17hc1bc45270cf64b03E
Ltmp660:
Lfunc_end89:
	.cfi_endproc

	.p2align	4, 0x90
__ZN45_$LT$u64$u20$as$u20$core..ops..arith..Div$GT$3div17h4830c6bc644e1914E:
Lfunc_begin90:
	.loc	18 481 0 is_stmt 1
	.cfi_startproc
	pushq	%rbp
	.cfi_def_cfa_offset 16
	.cfi_offset %rbp, -16
	movq	%rsp, %rbp
	.cfi_def_cfa_register %rbp
	subq	$32, %rsp
	movq	%rdi, -32(%rbp)
	movq	%rsi, -24(%rbp)
	movq	%rdi, -16(%rbp)
	movq	%rsi, -8(%rbp)
Ltmp661:
	.loc	18 481 45 prologue_end
	cmpq	$0, %rsi
	sete	%al
	testb	$1, %al
	jne	LBB90_2
	.loc	18 0 45 is_stmt 0
	movq	-24(%rbp), %rcx
	movq	-32(%rbp), %rax
	.loc	18 481 45
	xorl	%edx, %edx
	divq	%rcx
	.loc	18 481 59
	addq	$32, %rsp
	popq	%rbp
	retq
LBB90_2:
	.loc	18 481 45
	leaq	_str.5(%rip), %rdi
	leaq	l___unnamed_19(%rip), %rdx
	movl	$25, %esi
	callq	__ZN4core9panicking5panic17hc1bc45270cf64b03E
Ltmp662:
Lfunc_end90:
	.cfi_endproc

	.p2align	4, 0x90
__ZN45_$LT$u64$u20$as$u20$core..ops..arith..Mul$GT$3mul17h2fa10043422e97b6E:
Lfunc_begin91:
	.loc	18 342 0 is_stmt 1
	.cfi_startproc
	pushq	%rbp
	.cfi_def_cfa_offset 16
	.cfi_offset %rbp, -16
	movq	%rsp, %rbp
	.cfi_def_cfa_register %rbp
	subq	$32, %rsp
	movq	%rdi, %rax
	movq	%rax, -16(%rbp)
	movq	%rsi, -8(%rbp)
Ltmp663:
	.loc	18 342 45 prologue_end
	mulq	%rsi
	movq	%rax, -24(%rbp)
	seto	%al
	testb	$1, %al
	jne	LBB91_2
	.loc	18 0 45 is_stmt 0
	movq	-24(%rbp), %rax
	.loc	18 342 59
	addq	$32, %rsp
	popq	%rbp
	retq
LBB91_2:
	.loc	18 342 45
	leaq	_str.2(%rip), %rdi
	leaq	l___unnamed_20(%rip), %rdx
	movl	$33, %esi
	callq	__ZN4core9panicking5panic17hc1bc45270cf64b03E
Ltmp664:
Lfunc_end91:
	.cfi_endproc

	.p2align	4, 0x90
__ZN45_$LT$u64$u20$as$u20$core..ops..arith..Sub$GT$3sub17hbbf11588c09adce5E:
Lfunc_begin92:
	.loc	18 212 0 is_stmt 1
	.cfi_startproc
	pushq	%rbp
	.cfi_def_cfa_offset 16
	.cfi_offset %rbp, -16
	movq	%rsp, %rbp
	.cfi_def_cfa_register %rbp
	subq	$32, %rsp
	movq	%rdi, -16(%rbp)
	movq	%rsi, -8(%rbp)
Ltmp665:
	.loc	18 212 45 prologue_end
	movq	%rdi, %rax
	subq	%rsi, %rax
	movq	%rax, -24(%rbp)
	cmpq	%rsi, %rdi
	setb	%al
	testb	$1, %al
	jne	LBB92_2
	.loc	18 0 45 is_stmt 0
	movq	-24(%rbp), %rax
	.loc	18 212 59
	addq	$32, %rsp
	popq	%rbp
	retq
LBB92_2:
	.loc	18 212 45
	leaq	_str.0(%rip), %rdi
	leaq	l___unnamed_22(%rip), %rdx
	movl	$33, %esi
	callq	__ZN4core9panicking5panic17hc1bc45270cf64b03E
Ltmp666:
Lfunc_end92:
	.cfi_endproc

	.p2align	4, 0x90
__ZN46_$LT$i128$u20$as$u20$core..ops..arith..Add$GT$3add17h5ce6d4461bf3fdbeE:
Lfunc_begin93:
	.loc	18 103 0 is_stmt 1
	.cfi_startproc
	pushq	%rbp
	.cfi_def_cfa_offset 16
	.cfi_offset %rbp, -16
	movq	%rsp, %rbp
	.cfi_def_cfa_register %rbp
	subq	$64, %rsp
	movq	%rcx, %rax
	movq	%rdx, -56(%rbp)
	movq	%rsi, %rcx
	movq	-56(%rbp), %rsi
	movq	%rdi, %rdx
	movq	%rdx, -32(%rbp)
	movq	%rcx, -24(%rbp)
	movq	%rax, -8(%rbp)
	movq	%rsi, -16(%rbp)
Ltmp667:
	.loc	18 103 45 prologue_end
	addq	%rsi, %rdx
	movq	%rdx, -48(%rbp)
	adcq	%rax, %rcx
	seto	%al
	movq	%rcx, -40(%rbp)
	testb	$1, %al
	jne	LBB93_2
	.loc	18 0 45 is_stmt 0
	movq	-40(%rbp), %rdx
	movq	-48(%rbp), %rax
	.loc	18 103 59
	addq	$64, %rsp
	popq	%rbp
	retq
LBB93_2:
	.loc	18 103 45
	leaq	_str.1(%rip), %rdi
	leaq	l___unnamed_18(%rip), %rdx
	movl	$28, %esi
	callq	__ZN4core9panicking5panic17hc1bc45270cf64b03E
Ltmp668:
Lfunc_end93:
	.cfi_endproc

	.p2align	4, 0x90
__ZN46_$LT$i128$u20$as$u20$core..ops..arith..Div$GT$3div17h807b4814d51d103dE:
Lfunc_begin94:
	.loc	18 481 0 is_stmt 1
	.cfi_startproc
	pushq	%rbp
	.cfi_def_cfa_offset 16
	.cfi_offset %rbp, -16
	movq	%rsp, %rbp
	.cfi_def_cfa_register %rbp
	subq	$64, %rsp
	movq	%rcx, -64(%rbp)
	movq	%rdx, -56(%rbp)
	movq	%rsi, -48(%rbp)
	movq	%rdi, -40(%rbp)
	movq	%rdi, -32(%rbp)
	movq	%rsi, -24(%rbp)
	movq	%rcx, -8(%rbp)
	movq	%rdx, -16(%rbp)
Ltmp669:
	.loc	18 481 45 prologue_end
	orq	%rcx, %rdx
	sete	%al
	testb	$1, %al
	jne	LBB94_2
	.loc	18 0 45 is_stmt 0
	movq	-40(%rbp), %rcx
	movq	-48(%rbp), %rdx
	movq	-64(%rbp), %rsi
	movq	-56(%rbp), %rax
	.loc	18 481 45
	andq	%rsi, %rax
	subq	$-1, %rax
	sete	%al
	movabsq	$-9223372036854775808, %rsi
	xorq	%rsi, %rdx
	orq	%rdx, %rcx
	sete	%cl
	andb	%cl, %al
	testb	$1, %al
	jne	LBB94_4
	jmp	LBB94_3
LBB94_2:
	leaq	_str.5(%rip), %rdi
	leaq	l___unnamed_19(%rip), %rdx
	movl	$25, %esi
	callq	__ZN4core9panicking5panic17hc1bc45270cf64b03E
LBB94_3:
	.loc	18 0 45
	movq	-64(%rbp), %rcx
	movq	-56(%rbp), %rdx
	movq	-48(%rbp), %rsi
	movq	-40(%rbp), %rdi
	.loc	18 481 45
	callq	___divti3
	.loc	18 481 59
	addq	$64, %rsp
	popq	%rbp
	retq
LBB94_4:
	.loc	18 481 45
	leaq	_str.6(%rip), %rdi
	leaq	l___unnamed_19(%rip), %rdx
	movl	$31, %esi
	callq	__ZN4core9panicking5panic17hc1bc45270cf64b03E
Ltmp670:
Lfunc_end94:
	.cfi_endproc

	.p2align	4, 0x90
__ZN46_$LT$i128$u20$as$u20$core..ops..arith..Mul$GT$3mul17h3ae4c81fbecf095fE:
Lfunc_begin95:
	.loc	18 342 0 is_stmt 1
	.cfi_startproc
	pushq	%rbp
	.cfi_def_cfa_offset 16
	.cfi_offset %rbp, -16
	movq	%rsp, %rbp
	.cfi_def_cfa_register %rbp
	subq	$112, %rsp
	movq	%rdx, %rax
	movq	%rsi, %r8
	movq	%rcx, -64(%rbp)
	movq	%rax, -96(%rbp)
	movq	%r8, -72(%rbp)
	movq	%rdi, -88(%rbp)
	movq	%rdi, -32(%rbp)
	movq	%r8, -24(%rbp)
	movq	%rcx, -8(%rbp)
	movq	%rax, -16(%rbp)
Ltmp671:
	.loc	18 342 45 prologue_end
	sarq	$63, %r8
	movq	%rax, %rdx
	imulq	%r8, %rdx
	movq	%rdx, -104(%rbp)
	mulq	%r8
	movq	%rax, %r9
	movq	-72(%rbp), %rax
	movq	%rdx, %rsi
	movq	-104(%rbp), %rdx
	addq	%rdx, %rsi
	movq	%rcx, %rdx
	imulq	%r8, %rdx
	addq	%rdx, %rsi
	movq	%rcx, %r10
	sarq	$63, %r10
	movq	%r10, %r11
	imulq	%rax, %r11
	movq	%r10, %rax
	mulq	%rdi
	movq	%rax, %r8
	movq	-88(%rbp), %rax
	movq	%rdx, %rdi
	movq	-96(%rbp), %rdx
	addq	%r11, %rdi
	imulq	%rax, %r10
	addq	%r10, %rdi
	addq	%r9, %r8
	adcq	%rsi, %rdi
	mulq	%rdx
	movq	%rax, %rsi
	movq	-72(%rbp), %rax
	movq	%rsi, -56(%rbp)
	movq	%rdx, %rsi
	movq	-96(%rbp), %rdx
	movq	%rsi, -80(%rbp)
	mulq	%rdx
	movq	%rax, %r9
	movq	-88(%rbp), %rax
	movq	%rdx, %r10
	movq	-80(%rbp), %rdx
	addq	%rdx, %r9
	adcq	$0, %r10
	mulq	%rcx
	movq	%rax, %rcx
	movq	-72(%rbp), %rax
	movq	%rdx, %rsi
	movq	-64(%rbp), %rdx
	addq	%r9, %rcx
	adcq	%rsi, %r10
	setb	%sil
	movzbl	%sil, %esi
	movl	%esi, %r9d
	mulq	%rdx
	movq	%rdx, %rsi
	movq	-56(%rbp), %rdx
	addq	%r10, %rax
	adcq	%r9, %rsi
	addq	%r8, %rax
	adcq	%rdi, %rsi
	movq	%rcx, %rdi
	sarq	$63, %rdi
	xorq	%rdi, %rsi
	xorq	%rdi, %rax
	orq	%rsi, %rax
	setne	%al
	movq	%rdx, -48(%rbp)
	movq	%rcx, -40(%rbp)
	testb	$1, %al
	jne	LBB95_2
	.loc	18 0 45 is_stmt 0
	movq	-40(%rbp), %rdx
	movq	-48(%rbp), %rax
	.loc	18 342 59
	addq	$112, %rsp
	popq	%rbp
	retq
LBB95_2:
	.loc	18 342 45
	leaq	_str.2(%rip), %rdi
	leaq	l___unnamed_20(%rip), %rdx
	movl	$33, %esi
	callq	__ZN4core9panicking5panic17hc1bc45270cf64b03E
Ltmp672:
Lfunc_end95:
	.cfi_endproc

	.p2align	4, 0x90
__ZN46_$LT$i128$u20$as$u20$core..ops..arith..Neg$GT$3neg17h183211697a8ea9ecE:
Lfunc_begin96:
	.loc	18 695 0 is_stmt 1
	.cfi_startproc
	pushq	%rbp
	.cfi_def_cfa_offset 16
	.cfi_offset %rbp, -16
	movq	%rsp, %rbp
	.cfi_def_cfa_register %rbp
	subq	$32, %rsp
	movq	%rsi, -32(%rbp)
	movq	%rdi, -24(%rbp)
	movq	%rdi, -16(%rbp)
	movq	%rsi, -8(%rbp)
	movabsq	$-9223372036854775808, %rax
Ltmp673:
	.loc	18 695 34 prologue_end
	xorq	%rax, %rsi
	orq	%rsi, %rdi
	sete	%al
	testb	$1, %al
	jne	LBB96_2
	.loc	18 0 34 is_stmt 0
	movq	-32(%rbp), %rcx
	movq	-24(%rbp), %rax
	xorl	%edx, %edx
	.loc	18 695 34
	negq	%rax
	sbbq	%rcx, %rdx
	.loc	18 695 41
	addq	$32, %rsp
	popq	%rbp
	retq
LBB96_2:
	.loc	18 695 34
	leaq	_str.7(%rip), %rdi
	leaq	l___unnamed_21(%rip), %rdx
	movl	$31, %esi
	callq	__ZN4core9panicking5panic17hc1bc45270cf64b03E
Ltmp674:
Lfunc_end96:
	.cfi_endproc

	.p2align	4, 0x90
__ZN46_$LT$i128$u20$as$u20$core..ops..arith..Sub$GT$3sub17hac68343c4c287bc4E:
Lfunc_begin97:
	.loc	18 212 0 is_stmt 1
	.cfi_startproc
	pushq	%rbp
	.cfi_def_cfa_offset 16
	.cfi_offset %rbp, -16
	movq	%rsp, %rbp
	.cfi_def_cfa_register %rbp
	subq	$64, %rsp
	movq	%rcx, %rax
	movq	%rdx, -56(%rbp)
	movq	%rsi, %rcx
	movq	-56(%rbp), %rsi
	movq	%rdi, %rdx
	movq	%rdx, -32(%rbp)
	movq	%rcx, -24(%rbp)
	movq	%rax, -8(%rbp)
	movq	%rsi, -16(%rbp)
Ltmp675:
	.loc	18 212 45 prologue_end
	subq	%rsi, %rdx
	movq	%rdx, -48(%rbp)
	sbbq	%rax, %rcx
	seto	%al
	movq	%rcx, -40(%rbp)
	testb	$1, %al
	jne	LBB97_2
	.loc	18 0 45 is_stmt 0
	movq	-40(%rbp), %rdx
	movq	-48(%rbp), %rax
	.loc	18 212 59
	addq	$64, %rsp
	popq	%rbp
	retq
LBB97_2:
	.loc	18 212 45
	leaq	_str.0(%rip), %rdi
	leaq	l___unnamed_22(%rip), %rdx
	movl	$33, %esi
	callq	__ZN4core9panicking5panic17hc1bc45270cf64b03E
Ltmp676:
Lfunc_end97:
	.cfi_endproc

	.p2align	4, 0x90
__ZN46_$LT$isize$u20$as$u20$num_integer..Integer$GT$3gcd17h571ac70c5f5f4d0aE:
Lfunc_begin98:
	.loc	16 459 0 is_stmt 1
	.cfi_startproc
	pushq	%rbp
	.cfi_def_cfa_offset 16
	.cfi_offset %rbp, -16
	movq	%rsp, %rbp
	.cfi_def_cfa_register %rbp
	subq	$256, %rsp
	movq	%rdi, -144(%rbp)
	movq	%rsi, -136(%rbp)
Ltmp677:
	.loc	16 461 29 prologue_end
	movq	(%rdi), %rax
	movq	%rax, -176(%rbp)
Ltmp678:
	.loc	16 462 29
	movq	(%rsi), %rax
	movq	%rax, -168(%rbp)
Ltmp679:
	.loc	16 463 20
	cmpq	$0, -176(%rbp)
	jne	LBB98_2
	movb	$1, -154(%rbp)
	jmp	LBB98_3
LBB98_2:
	.loc	16 463 30 is_stmt 0
	cmpq	$0, -168(%rbp)
	sete	%al
	.loc	16 463 20
	andb	$1, %al
	movb	%al, -154(%rbp)
LBB98_3:
	testb	$1, -154(%rbp)
	jne	LBB98_5
	.loc	16 468 30 is_stmt 1
	movq	-176(%rbp), %rax
	.loc	16 468 29 is_stmt 0
	orq	-168(%rbp), %rax
	movq	%rax, -24(%rbp)
Ltmp680:
	.loc	17 149 13 is_stmt 1
	movq	%rax, -16(%rbp)
Ltmp681:
	.loc	9 152 13
	bsfq	%rax, %rax
	movl	$64, %ecx
	cmoveq	%rcx, %rax
	movq	%rax, -8(%rbp)
	movq	-8(%rbp), %rax
	movl	%eax, -188(%rbp)
Ltmp682:
	.loc	16 468 29
	movl	%eax, -124(%rbp)
Ltmp683:
	.loc	16 478 20
	movabsq	$-9223372036854775808, %rax
	cmpq	%rax, -176(%rbp)
	je	LBB98_8
	jmp	LBB98_7
Ltmp684:
LBB98_5:
	.loc	16 464 29
	movq	-176(%rbp), %rdi
	.loc	16 464 28 is_stmt 0
	orq	-168(%rbp), %rdi
	callq	__ZN4core3num23_$LT$impl$u20$isize$GT$3abs17h43bff3506ced019dE
	movq	%rax, -184(%rbp)
Ltmp685:
LBB98_6:
	.loc	16 500 14 is_stmt 1
	movq	-184(%rbp), %rax
	addq	$256, %rsp
	popq	%rbp
	retq
LBB98_7:
Ltmp686:
	.loc	16 478 46
	movabsq	$-9223372036854775808, %rax
	cmpq	%rax, -168(%rbp)
	sete	%al
	.loc	16 478 20 is_stmt 0
	andb	$1, %al
	movb	%al, -153(%rbp)
	jmp	LBB98_9
LBB98_8:
	movb	$1, -153(%rbp)
LBB98_9:
	testb	$1, -153(%rbp)
	jne	LBB98_11
	.loc	16 483 21 is_stmt 1
	movq	-176(%rbp), %rdi
	callq	__ZN4core3num23_$LT$impl$u20$isize$GT$3abs17h43bff3506ced019dE
	.loc	16 483 17 is_stmt 0
	movq	%rax, -176(%rbp)
	.loc	16 484 21 is_stmt 1
	movq	-168(%rbp), %rdi
	callq	__ZN4core3num23_$LT$impl$u20$isize$GT$3abs17h43bff3506ced019dE
	.loc	16 484 17 is_stmt 0
	movq	%rax, -168(%rbp)
	.loc	16 487 23 is_stmt 1
	movq	-176(%rbp), %rax
	movq	%rax, -48(%rbp)
Ltmp687:
	.loc	17 149 13
	movq	%rax, -40(%rbp)
Ltmp688:
	.loc	9 152 13
	bsfq	%rax, %rax
	movl	$64, %ecx
	cmoveq	%rcx, %rax
	movq	%rax, -32(%rbp)
	movq	-32(%rbp), %rax
	movl	%eax, %ecx
Ltmp689:
	.loc	16 487 17
	movq	-176(%rbp), %rdx
	movl	%ecx, %eax
	andl	$-64, %eax
	cmpl	$0, %eax
	setne	%al
	movl	%ecx, %ecx
	andq	$63, %rcx
	sarq	%cl, %rdx
	movq	%rdx, -200(%rbp)
	testb	$1, %al
	jne	LBB98_15
	jmp	LBB98_14
LBB98_11:
	.loc	16 0 17 is_stmt 0
	movl	-188(%rbp), %ecx
	.loc	16 479 28 is_stmt 1
	movl	%ecx, %eax
	andl	$-64, %eax
	cmpl	$0, %eax
	setne	%al
	movl	%ecx, %ecx
	andq	$63, %rcx
	movl	$1, %edx
	shlq	%cl, %rdx
	movq	%rdx, -208(%rbp)
	testb	$1, %al
	jne	LBB98_13
	.loc	16 0 28 is_stmt 0
	movq	-208(%rbp), %rax
	.loc	16 479 28
	movq	%rax, -152(%rbp)
	leaq	-152(%rbp), %rdi
	callq	__ZN50_$LT$isize$u20$as$u20$num_traits..sign..Signed$GT$3abs17hb9b8b833c6d2e0b5E
	movq	%rax, -184(%rbp)
	jmp	LBB98_6
LBB98_13:
	leaq	_str.3(%rip), %rdi
	leaq	l___unnamed_28(%rip), %rdx
	movl	$35, %esi
	callq	__ZN4core9panicking5panic17hc1bc45270cf64b03E
LBB98_14:
	.loc	16 0 28
	movq	-200(%rbp), %rax
	.loc	16 487 17 is_stmt 1
	movq	%rax, -176(%rbp)
	.loc	16 488 23
	movq	-168(%rbp), %rax
	movq	%rax, -72(%rbp)
Ltmp690:
	.loc	17 149 13
	movq	%rax, -64(%rbp)
Ltmp691:
	.loc	9 152 13
	bsfq	%rax, %rax
	movl	$64, %ecx
	cmoveq	%rcx, %rax
	movq	%rax, -56(%rbp)
	movq	-56(%rbp), %rax
	movl	%eax, %ecx
Ltmp692:
	.loc	16 488 17
	movq	-168(%rbp), %rdx
	movl	%ecx, %eax
	andl	$-64, %eax
	cmpl	$0, %eax
	setne	%al
	movl	%ecx, %ecx
	andq	$63, %rcx
	sarq	%cl, %rdx
	movq	%rdx, -216(%rbp)
	testb	$1, %al
	jne	LBB98_17
	jmp	LBB98_16
LBB98_15:
	.loc	16 487 17
	leaq	_str.4(%rip), %rdi
	leaq	l___unnamed_28(%rip), %rdx
	movl	$36, %esi
	callq	__ZN4core9panicking5panic17hc1bc45270cf64b03E
LBB98_16:
	.loc	16 0 17 is_stmt 0
	movq	-216(%rbp), %rax
	.loc	16 488 17 is_stmt 1
	movq	%rax, -168(%rbp)
	.loc	16 490 17
	jmp	LBB98_18
LBB98_17:
	.loc	16 488 17
	leaq	_str.4(%rip), %rdi
	leaq	l___unnamed_28(%rip), %rdx
	movl	$36, %esi
	callq	__ZN4core9panicking5panic17hc1bc45270cf64b03E
LBB98_18:
	.loc	16 490 23
	movq	-176(%rbp), %rax
	cmpq	-168(%rbp), %rax
	jne	LBB98_20
	.loc	16 0 23 is_stmt 0
	movl	-188(%rbp), %ecx
	.loc	16 499 17 is_stmt 1
	movq	-176(%rbp), %rdx
	movl	%ecx, %eax
	andl	$-64, %eax
	cmpl	$0, %eax
	setne	%al
	movl	%ecx, %ecx
	andq	$63, %rcx
	shlq	%cl, %rdx
	movq	%rdx, -224(%rbp)
	testb	$1, %al
	jne	LBB98_32
	jmp	LBB98_31
LBB98_20:
	.loc	16 491 24
	movq	-176(%rbp), %rax
	cmpq	-168(%rbp), %rax
	jg	LBB98_22
	.loc	16 495 30
	movq	-176(%rbp), %rcx
	.loc	16 495 25 is_stmt 0
	movq	-168(%rbp), %rax
	subq	%rcx, %rax
	movq	%rax, -232(%rbp)
	seto	%al
	testb	$1, %al
	jne	LBB98_28
	jmp	LBB98_27
LBB98_22:
	.loc	16 492 30 is_stmt 1
	movq	-168(%rbp), %rcx
	.loc	16 492 25 is_stmt 0
	movq	-176(%rbp), %rax
	subq	%rcx, %rax
	movq	%rax, -240(%rbp)
	seto	%al
	testb	$1, %al
	jne	LBB98_24
	.loc	16 0 25
	movq	-240(%rbp), %rax
	.loc	16 492 25
	movq	%rax, -176(%rbp)
	.loc	16 493 31 is_stmt 1
	movq	-176(%rbp), %rax
	movq	%rax, -96(%rbp)
Ltmp693:
	.loc	17 149 13
	movq	%rax, -88(%rbp)
Ltmp694:
	.loc	9 152 13
	bsfq	%rax, %rax
	movl	$64, %ecx
	cmoveq	%rcx, %rax
	movq	%rax, -80(%rbp)
	movq	-80(%rbp), %rax
	movl	%eax, %ecx
Ltmp695:
	.loc	16 493 25
	movq	-176(%rbp), %rdx
	movl	%ecx, %eax
	andl	$-64, %eax
	cmpl	$0, %eax
	setne	%al
	movl	%ecx, %ecx
	andq	$63, %rcx
	sarq	%cl, %rdx
	movq	%rdx, -248(%rbp)
	testb	$1, %al
	jne	LBB98_26
	jmp	LBB98_25
LBB98_24:
	.loc	16 492 25
	leaq	_str.0(%rip), %rdi
	leaq	l___unnamed_28(%rip), %rdx
	movl	$33, %esi
	callq	__ZN4core9panicking5panic17hc1bc45270cf64b03E
LBB98_25:
	.loc	16 0 25 is_stmt 0
	movq	-248(%rbp), %rax
	.loc	16 493 25 is_stmt 1
	movq	%rax, -176(%rbp)
	.loc	16 491 21
	jmp	LBB98_18
LBB98_26:
	.loc	16 493 25
	leaq	_str.4(%rip), %rdi
	leaq	l___unnamed_28(%rip), %rdx
	movl	$36, %esi
	callq	__ZN4core9panicking5panic17hc1bc45270cf64b03E
LBB98_27:
	.loc	16 0 25 is_stmt 0
	movq	-232(%rbp), %rax
	.loc	16 495 25 is_stmt 1
	movq	%rax, -168(%rbp)
	.loc	16 496 31
	movq	-168(%rbp), %rax
	movq	%rax, -120(%rbp)
Ltmp696:
	.loc	17 149 13
	movq	%rax, -112(%rbp)
Ltmp697:
	.loc	9 152 13
	bsfq	%rax, %rax
	movl	$64, %ecx
	cmoveq	%rcx, %rax
	movq	%rax, -104(%rbp)
	movq	-104(%rbp), %rax
	movl	%eax, %ecx
Ltmp698:
	.loc	16 496 25
	movq	-168(%rbp), %rdx
	movl	%ecx, %eax
	andl	$-64, %eax
	cmpl	$0, %eax
	setne	%al
	movl	%ecx, %ecx
	andq	$63, %rcx
	sarq	%cl, %rdx
	movq	%rdx, -256(%rbp)
	testb	$1, %al
	jne	LBB98_30
	jmp	LBB98_29
LBB98_28:
	.loc	16 495 25
	leaq	_str.0(%rip), %rdi
	leaq	l___unnamed_28(%rip), %rdx
	movl	$33, %esi
	callq	__ZN4core9panicking5panic17hc1bc45270cf64b03E
LBB98_29:
	.loc	16 0 25 is_stmt 0
	movq	-256(%rbp), %rax
	.loc	16 496 25 is_stmt 1
	movq	%rax, -168(%rbp)
	.loc	16 491 21
	jmp	LBB98_18
LBB98_30:
	.loc	16 496 25
	leaq	_str.4(%rip), %rdi
	leaq	l___unnamed_28(%rip), %rdx
	movl	$36, %esi
	callq	__ZN4core9panicking5panic17hc1bc45270cf64b03E
LBB98_31:
	.loc	16 0 25 is_stmt 0
	movq	-224(%rbp), %rax
	.loc	16 499 17 is_stmt 1
	movq	%rax, -184(%rbp)
Ltmp699:
	.loc	16 500 14
	jmp	LBB98_6
LBB98_32:
Ltmp700:
	.loc	16 499 17
	leaq	_str.3(%rip), %rdi
	leaq	l___unnamed_28(%rip), %rdx
	movl	$35, %esi
	callq	__ZN4core9panicking5panic17hc1bc45270cf64b03E
Ltmp701:
Lfunc_end98:
	.cfi_endproc

	.p2align	4, 0x90
__ZN46_$LT$u128$u20$as$u20$core..ops..arith..Add$GT$3add17h4c0d4eec7312af72E:
Lfunc_begin99:
	.loc	18 103 0
	.cfi_startproc
	pushq	%rbp
	.cfi_def_cfa_offset 16
	.cfi_offset %rbp, -16
	movq	%rsp, %rbp
	.cfi_def_cfa_register %rbp
	subq	$64, %rsp
	movq	%rcx, %rax
	movq	%rdx, -56(%rbp)
	movq	%rsi, %rcx
	movq	-56(%rbp), %rsi
	movq	%rdi, %rdx
	movq	%rdx, -32(%rbp)
	movq	%rcx, -24(%rbp)
	movq	%rax, -8(%rbp)
	movq	%rsi, -16(%rbp)
Ltmp702:
	.loc	18 103 45 prologue_end
	addq	%rsi, %rdx
	movq	%rdx, -48(%rbp)
	adcq	%rax, %rcx
	setb	%al
	movq	%rcx, -40(%rbp)
	testb	$1, %al
	jne	LBB99_2
	.loc	18 0 45 is_stmt 0
	movq	-40(%rbp), %rdx
	movq	-48(%rbp), %rax
	.loc	18 103 59
	addq	$64, %rsp
	popq	%rbp
	retq
LBB99_2:
	.loc	18 103 45
	leaq	_str.1(%rip), %rdi
	leaq	l___unnamed_18(%rip), %rdx
	movl	$28, %esi
	callq	__ZN4core9panicking5panic17hc1bc45270cf64b03E
Ltmp703:
Lfunc_end99:
	.cfi_endproc

	.p2align	4, 0x90
__ZN46_$LT$u128$u20$as$u20$core..ops..arith..Div$GT$3div17h3ef120927c245adeE:
Lfunc_begin100:
	.loc	18 481 0 is_stmt 1
	.cfi_startproc
	pushq	%rbp
	.cfi_def_cfa_offset 16
	.cfi_offset %rbp, -16
	movq	%rsp, %rbp
	.cfi_def_cfa_register %rbp
	subq	$64, %rsp
	movq	%rcx, -64(%rbp)
	movq	%rdx, -56(%rbp)
	movq	%rsi, -48(%rbp)
	movq	%rdi, -40(%rbp)
	movq	%rdi, -32(%rbp)
	movq	%rsi, -24(%rbp)
	movq	%rcx, -8(%rbp)
	movq	%rdx, -16(%rbp)
Ltmp704:
	.loc	18 481 45 prologue_end
	orq	%rcx, %rdx
	sete	%al
	testb	$1, %al
	jne	LBB100_2
	.loc	18 0 45 is_stmt 0
	movq	-64(%rbp), %rcx
	movq	-56(%rbp), %rdx
	movq	-48(%rbp), %rsi
	movq	-40(%rbp), %rdi
	.loc	18 481 45
	callq	___udivti3
	.loc	18 481 59
	addq	$64, %rsp
	popq	%rbp
	retq
LBB100_2:
	.loc	18 481 45
	leaq	_str.5(%rip), %rdi
	leaq	l___unnamed_19(%rip), %rdx
	movl	$25, %esi
	callq	__ZN4core9panicking5panic17hc1bc45270cf64b03E
Ltmp705:
Lfunc_end100:
	.cfi_endproc

	.p2align	4, 0x90
__ZN46_$LT$u128$u20$as$u20$core..ops..arith..Mul$GT$3mul17hae3e094ae8e50e4aE:
Lfunc_begin101:
	.loc	18 342 0 is_stmt 1
	.cfi_startproc
	pushq	%rbp
	.cfi_def_cfa_offset 16
	.cfi_offset %rbp, -16
	movq	%rsp, %rbp
	.cfi_def_cfa_register %rbp
	subq	$80, %rsp
	movq	%rsi, %rax
	movq	%rcx, -80(%rbp)
	movq	%rdx, -72(%rbp)
	movq	%rdi, -64(%rbp)
	movq	%rdi, -32(%rbp)
	movq	%rax, -24(%rbp)
	movq	%rcx, -8(%rbp)
	movq	%rdx, -16(%rbp)
Ltmp706:
	.loc	18 342 45 prologue_end
	testq	%rcx, %rcx
	setne	%cl
	testq	%rax, %rax
	setne	%dil
	andb	%cl, %dil
	mulq	%rdx
	movq	-64(%rbp), %rdx
	movq	%rax, %rcx
	movq	-80(%rbp), %rax
	seto	%sil
	orb	%sil, %dil
	mulq	%rdx
	movq	-72(%rbp), %rdx
	movq	%rax, %rsi
	movq	-64(%rbp), %rax
	seto	%r8b
	orb	%r8b, %dil
	movb	%dil, -49(%rbp)
	leaq	(%rcx,%rsi), %rsi
	mulq	%rdx
	movq	%rax, %rcx
	movb	-49(%rbp), %al
	addq	%rsi, %rdx
	movq	%rdx, -48(%rbp)
	setb	%sil
	orb	%sil, %al
	movq	%rcx, -40(%rbp)
	testb	$1, %al
	jne	LBB101_2
	.loc	18 0 45 is_stmt 0
	movq	-48(%rbp), %rdx
	movq	-40(%rbp), %rax
	.loc	18 342 59
	addq	$80, %rsp
	popq	%rbp
	retq
LBB101_2:
	.loc	18 342 45
	leaq	_str.2(%rip), %rdi
	leaq	l___unnamed_20(%rip), %rdx
	movl	$33, %esi
	callq	__ZN4core9panicking5panic17hc1bc45270cf64b03E
Ltmp707:
Lfunc_end101:
	.cfi_endproc

	.p2align	4, 0x90
__ZN46_$LT$u128$u20$as$u20$core..ops..arith..Sub$GT$3sub17h642278653607e984E:
Lfunc_begin102:
	.loc	18 212 0 is_stmt 1
	.cfi_startproc
	pushq	%rbp
	.cfi_def_cfa_offset 16
	.cfi_offset %rbp, -16
	movq	%rsp, %rbp
	.cfi_def_cfa_register %rbp
	subq	$48, %rsp
	movq	%rdi, -32(%rbp)
	movq	%rsi, -24(%rbp)
	movq	%rcx, -8(%rbp)
	movq	%rdx, -16(%rbp)
Ltmp708:
	.loc	18 212 45 prologue_end
	subq	%rdx, %rdi
	movq	%rdi, -48(%rbp)
	sbbq	%rcx, %rsi
	movq	%rsi, -40(%rbp)
	setb	%al
	testb	$1, %al
	jne	LBB102_2
	.loc	18 0 45 is_stmt 0
	movq	-40(%rbp), %rdx
	movq	-48(%rbp), %rax
	.loc	18 212 59
	addq	$48, %rsp
	popq	%rbp
	retq
LBB102_2:
	.loc	18 212 45
	leaq	_str.0(%rip), %rdi
	leaq	l___unnamed_22(%rip), %rdx
	movl	$33, %esi
	callq	__ZN4core9panicking5panic17hc1bc45270cf64b03E
Ltmp709:
Lfunc_end102:
	.cfi_endproc

	.p2align	4, 0x90
__ZN46_$LT$usize$u20$as$u20$num_integer..Integer$GT$3gcd17hb078c50b85baae14E:
Lfunc_begin103:
	.loc	16 855 0 is_stmt 1
	.cfi_startproc
	pushq	%rbp
	.cfi_def_cfa_offset 16
	.cfi_offset %rbp, -16
	movq	%rsp, %rbp
	.cfi_def_cfa_register %rbp
	subq	$208, %rsp
	movq	%rdi, -104(%rbp)
	movq	%rsi, -96(%rbp)
Ltmp710:
	.loc	16 857 29 prologue_end
	movq	(%rdi), %rax
	movq	%rax, -128(%rbp)
Ltmp711:
	.loc	16 858 29
	movq	(%rsi), %rax
	movq	%rax, -120(%rbp)
Ltmp712:
	.loc	16 859 20
	cmpq	$0, -128(%rbp)
	jne	LBB103_2
	movb	$1, -105(%rbp)
	jmp	LBB103_3
LBB103_2:
	.loc	16 859 30 is_stmt 0
	cmpq	$0, -120(%rbp)
	sete	%al
	.loc	16 859 20
	andb	$1, %al
	movb	%al, -105(%rbp)
LBB103_3:
	testb	$1, -105(%rbp)
	jne	LBB103_5
	.loc	16 864 30 is_stmt 1
	movq	-128(%rbp), %rax
	.loc	16 864 29 is_stmt 0
	orq	-120(%rbp), %rax
	movq	%rax, -16(%rbp)
Ltmp713:
	.loc	9 152 13 is_stmt 1
	bsfq	%rax, %rax
	movl	$64, %ecx
	cmoveq	%rcx, %rax
	movq	%rax, -8(%rbp)
	movq	-8(%rbp), %rax
	movl	%eax, -148(%rbp)
Ltmp714:
	.loc	16 864 29
	movl	%eax, -84(%rbp)
Ltmp715:
	.loc	16 867 23
	movq	-128(%rbp), %rax
	movq	%rax, -32(%rbp)
Ltmp716:
	.loc	9 152 13
	bsfq	%rax, %rax
	movl	$64, %ecx
	cmoveq	%rcx, %rax
	movq	%rax, -24(%rbp)
	movq	-24(%rbp), %rax
	movl	%eax, %ecx
Ltmp717:
	.loc	16 867 17
	movq	-128(%rbp), %rdx
	movl	%ecx, %eax
	andl	$-64, %eax
	cmpl	$0, %eax
	setne	%al
	movl	%ecx, %ecx
	andq	$63, %rcx
	shrq	%cl, %rdx
	movq	%rdx, -144(%rbp)
	testb	$1, %al
	jne	LBB103_8
	jmp	LBB103_7
Ltmp718:
LBB103_5:
	.loc	16 860 28
	movq	-128(%rbp), %rax
	orq	-120(%rbp), %rax
	movq	%rax, -136(%rbp)
Ltmp719:
LBB103_6:
	.loc	16 880 14
	movq	-136(%rbp), %rax
	addq	$208, %rsp
	popq	%rbp
	retq
LBB103_7:
	.loc	16 0 14 is_stmt 0
	movq	-144(%rbp), %rax
Ltmp720:
	.loc	16 867 17 is_stmt 1
	movq	%rax, -128(%rbp)
	.loc	16 868 23
	movq	-120(%rbp), %rax
	movq	%rax, -48(%rbp)
Ltmp721:
	.loc	9 152 13
	bsfq	%rax, %rax
	movl	$64, %ecx
	cmoveq	%rcx, %rax
	movq	%rax, -40(%rbp)
	movq	-40(%rbp), %rax
	movl	%eax, %ecx
Ltmp722:
	.loc	16 868 17
	movq	-120(%rbp), %rdx
	movl	%ecx, %eax
	andl	$-64, %eax
	cmpl	$0, %eax
	setne	%al
	movl	%ecx, %ecx
	andq	$63, %rcx
	shrq	%cl, %rdx
	movq	%rdx, -160(%rbp)
	testb	$1, %al
	jne	LBB103_10
	jmp	LBB103_9
LBB103_8:
	.loc	16 867 17
	leaq	_str.4(%rip), %rdi
	leaq	l___unnamed_29(%rip), %rdx
	movl	$36, %esi
	callq	__ZN4core9panicking5panic17hc1bc45270cf64b03E
LBB103_9:
	.loc	16 0 17 is_stmt 0
	movq	-160(%rbp), %rax
	.loc	16 868 17 is_stmt 1
	movq	%rax, -120(%rbp)
	.loc	16 870 17
	jmp	LBB103_11
LBB103_10:
	.loc	16 868 17
	leaq	_str.4(%rip), %rdi
	leaq	l___unnamed_29(%rip), %rdx
	movl	$36, %esi
	callq	__ZN4core9panicking5panic17hc1bc45270cf64b03E
LBB103_11:
	.loc	16 870 23
	movq	-128(%rbp), %rax
	cmpq	-120(%rbp), %rax
	jne	LBB103_13
	.loc	16 0 23 is_stmt 0
	movl	-148(%rbp), %ecx
	.loc	16 879 17 is_stmt 1
	movq	-128(%rbp), %rdx
	movl	%ecx, %eax
	andl	$-64, %eax
	cmpl	$0, %eax
	setne	%al
	movl	%ecx, %ecx
	andq	$63, %rcx
	shlq	%cl, %rdx
	movq	%rdx, -168(%rbp)
	testb	$1, %al
	jne	LBB103_25
	jmp	LBB103_24
LBB103_13:
	.loc	16 871 24
	movq	-128(%rbp), %rax
	cmpq	-120(%rbp), %rax
	ja	LBB103_15
	.loc	16 875 30
	movq	-128(%rbp), %rcx
	.loc	16 875 25 is_stmt 0
	movq	-120(%rbp), %rax
	movq	%rax, %rdx
	subq	%rcx, %rdx
	movq	%rdx, -176(%rbp)
	cmpq	%rcx, %rax
	setb	%al
	testb	$1, %al
	jne	LBB103_21
	jmp	LBB103_20
LBB103_15:
	.loc	16 872 30 is_stmt 1
	movq	-120(%rbp), %rcx
	.loc	16 872 25 is_stmt 0
	movq	-128(%rbp), %rax
	movq	%rax, %rdx
	subq	%rcx, %rdx
	movq	%rdx, -184(%rbp)
	cmpq	%rcx, %rax
	setb	%al
	testb	$1, %al
	jne	LBB103_17
	.loc	16 0 25
	movq	-184(%rbp), %rax
	.loc	16 872 25
	movq	%rax, -128(%rbp)
	.loc	16 873 31 is_stmt 1
	movq	-128(%rbp), %rax
	movq	%rax, -64(%rbp)
Ltmp723:
	.loc	9 152 13
	bsfq	%rax, %rax
	movl	$64, %ecx
	cmoveq	%rcx, %rax
	movq	%rax, -56(%rbp)
	movq	-56(%rbp), %rax
	movl	%eax, %ecx
Ltmp724:
	.loc	16 873 25
	movq	-128(%rbp), %rdx
	movl	%ecx, %eax
	andl	$-64, %eax
	cmpl	$0, %eax
	setne	%al
	movl	%ecx, %ecx
	andq	$63, %rcx
	shrq	%cl, %rdx
	movq	%rdx, -192(%rbp)
	testb	$1, %al
	jne	LBB103_19
	jmp	LBB103_18
LBB103_17:
	.loc	16 872 25
	leaq	_str.0(%rip), %rdi
	leaq	l___unnamed_29(%rip), %rdx
	movl	$33, %esi
	callq	__ZN4core9panicking5panic17hc1bc45270cf64b03E
LBB103_18:
	.loc	16 0 25 is_stmt 0
	movq	-192(%rbp), %rax
	.loc	16 873 25 is_stmt 1
	movq	%rax, -128(%rbp)
	.loc	16 871 21
	jmp	LBB103_11
LBB103_19:
	.loc	16 873 25
	leaq	_str.4(%rip), %rdi
	leaq	l___unnamed_29(%rip), %rdx
	movl	$36, %esi
	callq	__ZN4core9panicking5panic17hc1bc45270cf64b03E
LBB103_20:
	.loc	16 0 25 is_stmt 0
	movq	-176(%rbp), %rax
	.loc	16 875 25 is_stmt 1
	movq	%rax, -120(%rbp)
	.loc	16 876 31
	movq	-120(%rbp), %rax
	movq	%rax, -80(%rbp)
Ltmp725:
	.loc	9 152 13
	bsfq	%rax, %rax
	movl	$64, %ecx
	cmoveq	%rcx, %rax
	movq	%rax, -72(%rbp)
	movq	-72(%rbp), %rax
	movl	%eax, %ecx
Ltmp726:
	.loc	16 876 25
	movq	-120(%rbp), %rdx
	movl	%ecx, %eax
	andl	$-64, %eax
	cmpl	$0, %eax
	setne	%al
	movl	%ecx, %ecx
	andq	$63, %rcx
	shrq	%cl, %rdx
	movq	%rdx, -200(%rbp)
	testb	$1, %al
	jne	LBB103_23
	jmp	LBB103_22
LBB103_21:
	.loc	16 875 25
	leaq	_str.0(%rip), %rdi
	leaq	l___unnamed_29(%rip), %rdx
	movl	$33, %esi
	callq	__ZN4core9panicking5panic17hc1bc45270cf64b03E
LBB103_22:
	.loc	16 0 25 is_stmt 0
	movq	-200(%rbp), %rax
	.loc	16 876 25 is_stmt 1
	movq	%rax, -120(%rbp)
	.loc	16 871 21
	jmp	LBB103_11
LBB103_23:
	.loc	16 876 25
	leaq	_str.4(%rip), %rdi
	leaq	l___unnamed_29(%rip), %rdx
	movl	$36, %esi
	callq	__ZN4core9panicking5panic17hc1bc45270cf64b03E
LBB103_24:
	.loc	16 0 25 is_stmt 0
	movq	-168(%rbp), %rax
	.loc	16 879 17 is_stmt 1
	movq	%rax, -136(%rbp)
Ltmp727:
	.loc	16 880 14
	jmp	LBB103_6
LBB103_25:
Ltmp728:
	.loc	16 879 17
	leaq	_str.3(%rip), %rdi
	leaq	l___unnamed_29(%rip), %rdx
	movl	$35, %esi
	callq	__ZN4core9panicking5panic17hc1bc45270cf64b03E
Ltmp729:
Lfunc_end103:
	.cfi_endproc

	.p2align	4, 0x90
__ZN47_$LT$i8$u20$as$u20$num_traits..sign..Signed$GT$11is_negative17h5e25659bf364bab9E:
Lfunc_begin104:
	.file	19 "/Users/natalie/.cargo/registry/src/github.com-1ecc6299db9ec823/num-traits-0.2.15/src" "sign.rs"
	.loc	19 70 0
	.cfi_startproc
	pushq	%rbp
	.cfi_def_cfa_offset 16
	.cfi_offset %rbp, -16
	movq	%rsp, %rbp
	.cfi_def_cfa_register %rbp
	pushq	%rax
	movq	%rdi, -8(%rbp)
Ltmp730:
	.loc	19 70 45 prologue_end
	cmpb	$0, (%rdi)
	setl	%al
	.loc	19 70 56 is_stmt 0
	andb	$1, %al
	movzbl	%al, %eax
	addq	$8, %rsp
	popq	%rbp
	retq
Ltmp731:
Lfunc_end104:
	.cfi_endproc

	.p2align	4, 0x90
__ZN47_$LT$i8$u20$as$u20$num_traits..sign..Signed$GT$3abs17hb9dfdededd0bef34E:
Lfunc_begin105:
	.loc	19 48 0 is_stmt 1
	.cfi_startproc
	pushq	%rbp
	.cfi_def_cfa_offset 16
	.cfi_offset %rbp, -16
	movq	%rsp, %rbp
	.cfi_def_cfa_register %rbp
	subq	$32, %rsp
	movq	%rdi, -24(%rbp)
	movq	%rdi, -8(%rbp)
Ltmp732:
	.loc	19 49 20 prologue_end
	callq	__ZN47_$LT$i8$u20$as$u20$num_traits..sign..Signed$GT$11is_negative17h5e25659bf364bab9E
	testb	$1, %al
	jne	LBB105_2
	.loc	19 0 20 is_stmt 0
	movq	-24(%rbp), %rax
	.loc	19 49 57
	movb	(%rax), %al
	movb	%al, -9(%rbp)
	.loc	19 49 17
	jmp	LBB105_5
LBB105_2:
	.loc	19 0 17
	movq	-24(%rbp), %rax
	.loc	19 49 42
	movb	(%rax), %al
	movb	%al, -25(%rbp)
	.loc	19 49 41
	cmpb	$-128, %al
	sete	%al
	testb	$1, %al
	jne	LBB105_4
	.loc	19 0 41
	movb	-25(%rbp), %cl
	.loc	19 49 41
	xorl	%eax, %eax
	subb	%cl, %al
	movb	%al, -9(%rbp)
	.loc	19 49 17
	jmp	LBB105_5
LBB105_4:
	.loc	19 49 41
	leaq	_str.7(%rip), %rdi
	leaq	l___unnamed_30(%rip), %rdx
	movl	$31, %esi
	callq	__ZN4core9panicking5panic17hc1bc45270cf64b03E
LBB105_5:
	.loc	19 50 14 is_stmt 1
	movb	-9(%rbp), %al
	addq	$32, %rsp
	popq	%rbp
	retq
Ltmp733:
Lfunc_end105:
	.cfi_endproc

	.p2align	4, 0x90
__ZN47_$LT$isize$u20$as$u20$core..ops..arith..Add$GT$3add17h8e5701e060df2271E:
Lfunc_begin106:
	.loc	18 103 0
	.cfi_startproc
	pushq	%rbp
	.cfi_def_cfa_offset 16
	.cfi_offset %rbp, -16
	movq	%rsp, %rbp
	.cfi_def_cfa_register %rbp
	subq	$32, %rsp
	movq	%rdi, -16(%rbp)
	movq	%rsi, -8(%rbp)
Ltmp734:
	.loc	18 103 45 prologue_end
	addq	%rsi, %rdi
	movq	%rdi, -24(%rbp)
	seto	%al
	testb	$1, %al
	jne	LBB106_2
	.loc	18 0 45 is_stmt 0
	movq	-24(%rbp), %rax
	.loc	18 103 59
	addq	$32, %rsp
	popq	%rbp
	retq
LBB106_2:
	.loc	18 103 45
	leaq	_str.1(%rip), %rdi
	leaq	l___unnamed_18(%rip), %rdx
	movl	$28, %esi
	callq	__ZN4core9panicking5panic17hc1bc45270cf64b03E
Ltmp735:
Lfunc_end106:
	.cfi_endproc

	.p2align	4, 0x90
__ZN47_$LT$isize$u20$as$u20$core..ops..arith..Div$GT$3div17hc57d13a4b4166b58E:
Lfunc_begin107:
	.loc	18 481 0 is_stmt 1
	.cfi_startproc
	pushq	%rbp
	.cfi_def_cfa_offset 16
	.cfi_offset %rbp, -16
	movq	%rsp, %rbp
	.cfi_def_cfa_register %rbp
	subq	$32, %rsp
	movq	%rdi, -32(%rbp)
	movq	%rsi, -24(%rbp)
	movq	%rdi, -16(%rbp)
	movq	%rsi, -8(%rbp)
Ltmp736:
	.loc	18 481 45 prologue_end
	cmpq	$0, %rsi
	sete	%al
	testb	$1, %al
	jne	LBB107_2
	.loc	18 0 45 is_stmt 0
	movq	-32(%rbp), %rcx
	movq	-24(%rbp), %rax
	.loc	18 481 45
	cmpq	$-1, %rax
	sete	%al
	movabsq	$-9223372036854775808, %rdx
	cmpq	%rdx, %rcx
	sete	%cl
	andb	%cl, %al
	testb	$1, %al
	jne	LBB107_4
	jmp	LBB107_3
LBB107_2:
	leaq	_str.5(%rip), %rdi
	leaq	l___unnamed_19(%rip), %rdx
	movl	$25, %esi
	callq	__ZN4core9panicking5panic17hc1bc45270cf64b03E
LBB107_3:
	.loc	18 0 45
	movq	-24(%rbp), %rcx
	movq	-32(%rbp), %rax
	.loc	18 481 45
	cqto
	idivq	%rcx
	.loc	18 481 59
	addq	$32, %rsp
	popq	%rbp
	retq
LBB107_4:
	.loc	18 481 45
	leaq	_str.6(%rip), %rdi
	leaq	l___unnamed_19(%rip), %rdx
	movl	$31, %esi
	callq	__ZN4core9panicking5panic17hc1bc45270cf64b03E
Ltmp737:
Lfunc_end107:
	.cfi_endproc

	.p2align	4, 0x90
__ZN47_$LT$isize$u20$as$u20$core..ops..arith..Mul$GT$3mul17h3767d8ae40d96dafE:
Lfunc_begin108:
	.loc	18 342 0 is_stmt 1
	.cfi_startproc
	pushq	%rbp
	.cfi_def_cfa_offset 16
	.cfi_offset %rbp, -16
	movq	%rsp, %rbp
	.cfi_def_cfa_register %rbp
	subq	$32, %rsp
	movq	%rdi, -16(%rbp)
	movq	%rsi, -8(%rbp)
Ltmp738:
	.loc	18 342 45 prologue_end
	imulq	%rsi, %rdi
	movq	%rdi, -24(%rbp)
	seto	%al
	testb	$1, %al
	jne	LBB108_2
	.loc	18 0 45 is_stmt 0
	movq	-24(%rbp), %rax
	.loc	18 342 59
	addq	$32, %rsp
	popq	%rbp
	retq
LBB108_2:
	.loc	18 342 45
	leaq	_str.2(%rip), %rdi
	leaq	l___unnamed_20(%rip), %rdx
	movl	$33, %esi
	callq	__ZN4core9panicking5panic17hc1bc45270cf64b03E
Ltmp739:
Lfunc_end108:
	.cfi_endproc

	.p2align	4, 0x90
__ZN47_$LT$isize$u20$as$u20$core..ops..arith..Neg$GT$3neg17hb58ec371a945d32eE:
Lfunc_begin109:
	.loc	18 695 0 is_stmt 1
	.cfi_startproc
	pushq	%rbp
	.cfi_def_cfa_offset 16
	.cfi_offset %rbp, -16
	movq	%rsp, %rbp
	.cfi_def_cfa_register %rbp
	subq	$16, %rsp
	movq	%rdi, -16(%rbp)
	movq	%rdi, -8(%rbp)
Ltmp740:
	.loc	18 695 34 prologue_end
	movabsq	$-9223372036854775808, %rax
	cmpq	%rax, %rdi
	sete	%al
	testb	$1, %al
	jne	LBB109_2
	.loc	18 0 34 is_stmt 0
	movq	-16(%rbp), %rcx
	.loc	18 695 34
	xorl	%eax, %eax
	subq	%rcx, %rax
	.loc	18 695 41
	addq	$16, %rsp
	popq	%rbp
	retq
LBB109_2:
	.loc	18 695 34
	leaq	_str.7(%rip), %rdi
	leaq	l___unnamed_21(%rip), %rdx
	movl	$31, %esi
	callq	__ZN4core9panicking5panic17hc1bc45270cf64b03E
Ltmp741:
Lfunc_end109:
	.cfi_endproc

	.p2align	4, 0x90
__ZN47_$LT$isize$u20$as$u20$core..ops..arith..Sub$GT$3sub17he2c96f3df03330c8E:
Lfunc_begin110:
	.loc	18 212 0 is_stmt 1
	.cfi_startproc
	pushq	%rbp
	.cfi_def_cfa_offset 16
	.cfi_offset %rbp, -16
	movq	%rsp, %rbp
	.cfi_def_cfa_register %rbp
	subq	$32, %rsp
	movq	%rdi, -16(%rbp)
	movq	%rsi, -8(%rbp)
Ltmp742:
	.loc	18 212 45 prologue_end
	subq	%rsi, %rdi
	movq	%rdi, -24(%rbp)
	seto	%al
	testb	$1, %al
	jne	LBB110_2
	.loc	18 0 45 is_stmt 0
	movq	-24(%rbp), %rax
	.loc	18 212 59
	addq	$32, %rsp
	popq	%rbp
	retq
LBB110_2:
	.loc	18 212 45
	leaq	_str.0(%rip), %rdi
	leaq	l___unnamed_22(%rip), %rdx
	movl	$33, %esi
	callq	__ZN4core9panicking5panic17hc1bc45270cf64b03E
Ltmp743:
Lfunc_end110:
	.cfi_endproc

	.p2align	4, 0x90
__ZN47_$LT$usize$u20$as$u20$core..ops..arith..Add$GT$3add17h84cd1fd1709db303E:
Lfunc_begin111:
	.loc	18 103 0 is_stmt 1
	.cfi_startproc
	pushq	%rbp
	.cfi_def_cfa_offset 16
	.cfi_offset %rbp, -16
	movq	%rsp, %rbp
	.cfi_def_cfa_register %rbp
	subq	$32, %rsp
	movq	%rdi, -16(%rbp)
	movq	%rsi, -8(%rbp)
Ltmp744:
	.loc	18 103 45 prologue_end
	addq	%rsi, %rdi
	movq	%rdi, -24(%rbp)
	setb	%al
	testb	$1, %al
	jne	LBB111_2
	.loc	18 0 45 is_stmt 0
	movq	-24(%rbp), %rax
	.loc	18 103 59
	addq	$32, %rsp
	popq	%rbp
	retq
LBB111_2:
	.loc	18 103 45
	leaq	_str.1(%rip), %rdi
	leaq	l___unnamed_18(%rip), %rdx
	movl	$28, %esi
	callq	__ZN4core9panicking5panic17hc1bc45270cf64b03E
Ltmp745:
Lfunc_end111:
	.cfi_endproc

	.p2align	4, 0x90
__ZN47_$LT$usize$u20$as$u20$core..ops..arith..Div$GT$3div17h08921007ca5cb568E:
Lfunc_begin112:
	.loc	18 481 0 is_stmt 1
	.cfi_startproc
	pushq	%rbp
	.cfi_def_cfa_offset 16
	.cfi_offset %rbp, -16
	movq	%rsp, %rbp
	.cfi_def_cfa_register %rbp
	subq	$32, %rsp
	movq	%rdi, -32(%rbp)
	movq	%rsi, -24(%rbp)
	movq	%rdi, -16(%rbp)
	movq	%rsi, -8(%rbp)
Ltmp746:
	.loc	18 481 45 prologue_end
	cmpq	$0, %rsi
	sete	%al
	testb	$1, %al
	jne	LBB112_2
	.loc	18 0 45 is_stmt 0
	movq	-24(%rbp), %rcx
	movq	-32(%rbp), %rax
	.loc	18 481 45
	xorl	%edx, %edx
	divq	%rcx
	.loc	18 481 59
	addq	$32, %rsp
	popq	%rbp
	retq
LBB112_2:
	.loc	18 481 45
	leaq	_str.5(%rip), %rdi
	leaq	l___unnamed_19(%rip), %rdx
	movl	$25, %esi
	callq	__ZN4core9panicking5panic17hc1bc45270cf64b03E
Ltmp747:
Lfunc_end112:
	.cfi_endproc

	.p2align	4, 0x90
__ZN47_$LT$usize$u20$as$u20$core..ops..arith..Mul$GT$3mul17h7b504de07609fa83E:
Lfunc_begin113:
	.loc	18 342 0 is_stmt 1
	.cfi_startproc
	pushq	%rbp
	.cfi_def_cfa_offset 16
	.cfi_offset %rbp, -16
	movq	%rsp, %rbp
	.cfi_def_cfa_register %rbp
	subq	$32, %rsp
	movq	%rdi, %rax
	movq	%rax, -16(%rbp)
	movq	%rsi, -8(%rbp)
Ltmp748:
	.loc	18 342 45 prologue_end
	mulq	%rsi
	movq	%rax, -24(%rbp)
	seto	%al
	testb	$1, %al
	jne	LBB113_2
	.loc	18 0 45 is_stmt 0
	movq	-24(%rbp), %rax
	.loc	18 342 59
	addq	$32, %rsp
	popq	%rbp
	retq
LBB113_2:
	.loc	18 342 45
	leaq	_str.2(%rip), %rdi
	leaq	l___unnamed_20(%rip), %rdx
	movl	$33, %esi
	callq	__ZN4core9panicking5panic17hc1bc45270cf64b03E
Ltmp749:
Lfunc_end113:
	.cfi_endproc

	.p2align	4, 0x90
__ZN47_$LT$usize$u20$as$u20$core..ops..arith..Sub$GT$3sub17h10688681b81389a8E:
Lfunc_begin114:
	.loc	18 212 0 is_stmt 1
	.cfi_startproc
	pushq	%rbp
	.cfi_def_cfa_offset 16
	.cfi_offset %rbp, -16
	movq	%rsp, %rbp
	.cfi_def_cfa_register %rbp
	subq	$32, %rsp
	movq	%rdi, -16(%rbp)
	movq	%rsi, -8(%rbp)
Ltmp750:
	.loc	18 212 45 prologue_end
	movq	%rdi, %rax
	subq	%rsi, %rax
	movq	%rax, -24(%rbp)
	cmpq	%rsi, %rdi
	setb	%al
	testb	$1, %al
	jne	LBB114_2
	.loc	18 0 45 is_stmt 0
	movq	-24(%rbp), %rax
	.loc	18 212 59
	addq	$32, %rsp
	popq	%rbp
	retq
LBB114_2:
	.loc	18 212 45
	leaq	_str.0(%rip), %rdi
	leaq	l___unnamed_22(%rip), %rdx
	movl	$33, %esi
	callq	__ZN4core9panicking5panic17hc1bc45270cf64b03E
Ltmp751:
Lfunc_end114:
	.cfi_endproc

	.p2align	4, 0x90
__ZN48_$LT$i16$u20$as$u20$num_traits..sign..Signed$GT$11is_negative17h32b69e3f0728ee69E:
Lfunc_begin115:
	.loc	19 70 0 is_stmt 1
	.cfi_startproc
	pushq	%rbp
	.cfi_def_cfa_offset 16
	.cfi_offset %rbp, -16
	movq	%rsp, %rbp
	.cfi_def_cfa_register %rbp
	pushq	%rax
	movq	%rdi, -8(%rbp)
Ltmp752:
	.loc	19 70 45 prologue_end
	cmpw	$0, (%rdi)
	setl	%al
	.loc	19 70 56 is_stmt 0
	andb	$1, %al
	movzbl	%al, %eax
	addq	$8, %rsp
	popq	%rbp
	retq
Ltmp753:
Lfunc_end115:
	.cfi_endproc

	.p2align	4, 0x90
__ZN48_$LT$i16$u20$as$u20$num_traits..sign..Signed$GT$3abs17h2a2dfdec8e8d2b48E:
Lfunc_begin116:
	.loc	19 48 0 is_stmt 1
	.cfi_startproc
	pushq	%rbp
	.cfi_def_cfa_offset 16
	.cfi_offset %rbp, -16
	movq	%rsp, %rbp
	.cfi_def_cfa_register %rbp
	subq	$32, %rsp
	movq	%rdi, -24(%rbp)
	movq	%rdi, -8(%rbp)
Ltmp754:
	.loc	19 49 20 prologue_end
	callq	__ZN48_$LT$i16$u20$as$u20$num_traits..sign..Signed$GT$11is_negative17h32b69e3f0728ee69E
	testb	$1, %al
	jne	LBB116_2
	.loc	19 0 20 is_stmt 0
	movq	-24(%rbp), %rax
	.loc	19 49 57
	movw	(%rax), %ax
	movw	%ax, -10(%rbp)
	.loc	19 49 17
	jmp	LBB116_5
LBB116_2:
	.loc	19 0 17
	movq	-24(%rbp), %rax
	.loc	19 49 42
	movw	(%rax), %ax
	movw	%ax, -26(%rbp)
	.loc	19 49 41
	cmpw	$-32768, %ax
	sete	%al
	testb	$1, %al
	jne	LBB116_4
	.loc	19 0 41
	movw	-26(%rbp), %cx
	.loc	19 49 41
	xorl	%eax, %eax
	subw	%cx, %ax
	movw	%ax, -10(%rbp)
	.loc	19 49 17
	jmp	LBB116_5
LBB116_4:
	.loc	19 49 41
	leaq	_str.7(%rip), %rdi
	leaq	l___unnamed_30(%rip), %rdx
	movl	$31, %esi
	callq	__ZN4core9panicking5panic17hc1bc45270cf64b03E
LBB116_5:
	.loc	19 50 14 is_stmt 1
	movw	-10(%rbp), %ax
	addq	$32, %rsp
	popq	%rbp
	retq
Ltmp755:
Lfunc_end116:
	.cfi_endproc

	.p2align	4, 0x90
__ZN48_$LT$i32$u20$as$u20$num_traits..sign..Signed$GT$11is_negative17h36c715d3014ceca2E:
Lfunc_begin117:
	.loc	19 70 0
	.cfi_startproc
	pushq	%rbp
	.cfi_def_cfa_offset 16
	.cfi_offset %rbp, -16
	movq	%rsp, %rbp
	.cfi_def_cfa_register %rbp
	pushq	%rax
	movq	%rdi, -8(%rbp)
Ltmp756:
	.loc	19 70 45 prologue_end
	cmpl	$0, (%rdi)
	setl	%al
	.loc	19 70 56 is_stmt 0
	andb	$1, %al
	movzbl	%al, %eax
	addq	$8, %rsp
	popq	%rbp
	retq
Ltmp757:
Lfunc_end117:
	.cfi_endproc

	.p2align	4, 0x90
__ZN48_$LT$i32$u20$as$u20$num_traits..sign..Signed$GT$3abs17hca47880222ae5862E:
Lfunc_begin118:
	.loc	19 48 0 is_stmt 1
	.cfi_startproc
	pushq	%rbp
	.cfi_def_cfa_offset 16
	.cfi_offset %rbp, -16
	movq	%rsp, %rbp
	.cfi_def_cfa_register %rbp
	subq	$32, %rsp
	movq	%rdi, -24(%rbp)
	movq	%rdi, -8(%rbp)
Ltmp758:
	.loc	19 49 20 prologue_end
	callq	__ZN48_$LT$i32$u20$as$u20$num_traits..sign..Signed$GT$11is_negative17h36c715d3014ceca2E
	testb	$1, %al
	jne	LBB118_2
	.loc	19 0 20 is_stmt 0
	movq	-24(%rbp), %rax
	.loc	19 49 57
	movl	(%rax), %eax
	movl	%eax, -12(%rbp)
	.loc	19 49 17
	jmp	LBB118_5
LBB118_2:
	.loc	19 0 17
	movq	-24(%rbp), %rax
	.loc	19 49 42
	movl	(%rax), %eax
	movl	%eax, -28(%rbp)
	.loc	19 49 41
	cmpl	$-2147483648, %eax
	sete	%al
	testb	$1, %al
	jne	LBB118_4
	.loc	19 0 41
	movl	-28(%rbp), %ecx
	.loc	19 49 41
	xorl	%eax, %eax
	subl	%ecx, %eax
	movl	%eax, -12(%rbp)
	.loc	19 49 17
	jmp	LBB118_5
LBB118_4:
	.loc	19 49 41
	leaq	_str.7(%rip), %rdi
	leaq	l___unnamed_30(%rip), %rdx
	movl	$31, %esi
	callq	__ZN4core9panicking5panic17hc1bc45270cf64b03E
LBB118_5:
	.loc	19 50 14 is_stmt 1
	movl	-12(%rbp), %eax
	addq	$32, %rsp
	popq	%rbp
	retq
Ltmp759:
Lfunc_end118:
	.cfi_endproc

	.p2align	4, 0x90
__ZN48_$LT$i64$u20$as$u20$num_traits..sign..Signed$GT$11is_negative17h1a3b48291a90884bE:
Lfunc_begin119:
	.loc	19 70 0
	.cfi_startproc
	pushq	%rbp
	.cfi_def_cfa_offset 16
	.cfi_offset %rbp, -16
	movq	%rsp, %rbp
	.cfi_def_cfa_register %rbp
	pushq	%rax
	movq	%rdi, -8(%rbp)
Ltmp760:
	.loc	19 70 45 prologue_end
	cmpq	$0, (%rdi)
	setl	%al
	.loc	19 70 56 is_stmt 0
	andb	$1, %al
	movzbl	%al, %eax
	addq	$8, %rsp
	popq	%rbp
	retq
Ltmp761:
Lfunc_end119:
	.cfi_endproc

	.p2align	4, 0x90
__ZN48_$LT$i64$u20$as$u20$num_traits..sign..Signed$GT$3abs17h5c1deafa40a1a2b0E:
Lfunc_begin120:
	.loc	19 48 0 is_stmt 1
	.cfi_startproc
	pushq	%rbp
	.cfi_def_cfa_offset 16
	.cfi_offset %rbp, -16
	movq	%rsp, %rbp
	.cfi_def_cfa_register %rbp
	subq	$32, %rsp
	movq	%rdi, -24(%rbp)
	movq	%rdi, -8(%rbp)
Ltmp762:
	.loc	19 49 20 prologue_end
	callq	__ZN48_$LT$i64$u20$as$u20$num_traits..sign..Signed$GT$11is_negative17h1a3b48291a90884bE
	testb	$1, %al
	jne	LBB120_2
	.loc	19 0 20 is_stmt 0
	movq	-24(%rbp), %rax
	.loc	19 49 57
	movq	(%rax), %rax
	movq	%rax, -16(%rbp)
	.loc	19 49 17
	jmp	LBB120_5
LBB120_2:
	.loc	19 0 17
	movq	-24(%rbp), %rax
	.loc	19 49 42
	movq	(%rax), %rax
	movq	%rax, -32(%rbp)
	.loc	19 49 41
	movabsq	$-9223372036854775808, %rcx
	cmpq	%rcx, %rax
	sete	%al
	testb	$1, %al
	jne	LBB120_4
	.loc	19 0 41
	movq	-32(%rbp), %rcx
	.loc	19 49 41
	xorl	%eax, %eax
	subq	%rcx, %rax
	movq	%rax, -16(%rbp)
	.loc	19 49 17
	jmp	LBB120_5
LBB120_4:
	.loc	19 49 41
	leaq	_str.7(%rip), %rdi
	leaq	l___unnamed_30(%rip), %rdx
	movl	$31, %esi
	callq	__ZN4core9panicking5panic17hc1bc45270cf64b03E
LBB120_5:
	.loc	19 50 14 is_stmt 1
	movq	-16(%rbp), %rax
	addq	$32, %rsp
	popq	%rbp
	retq
Ltmp763:
Lfunc_end120:
	.cfi_endproc

	.globl	__ZN48_$LT$i8$u20$as$u20$num_traits..cast..NumCast$GT$4from17h08795aa05d72f6a6E
	.p2align	4, 0x90
__ZN48_$LT$i8$u20$as$u20$num_traits..cast..NumCast$GT$4from17h08795aa05d72f6a6E:
Lfunc_begin121:
	.file	20 "/Users/natalie/.cargo/registry/src/github.com-1ecc6299db9ec823/num-traits-0.2.15/src" "cast.rs"
	.loc	20 712 0
	.cfi_startproc
	.cfi_personality 155, _rust_eh_personality
	.cfi_lsda 16, Lexception12
	pushq	%rbp
	.cfi_def_cfa_offset 16
	.cfi_offset %rbp, -16
	movq	%rsp, %rbp
	.cfi_def_cfa_register %rbp
	subq	$32, %rsp
	movss	%xmm0, -20(%rbp)
Ltmp764:
	leaq	-20(%rbp), %rdi
Ltmp767:
	.loc	20 715 17 prologue_end
	callq	__ZN53_$LT$f32$u20$as$u20$num_traits..cast..ToPrimitive$GT$5to_i817ha608a7ede12d1259E
Ltmp765:
	movb	%dl, -22(%rbp)
	movb	%al, -21(%rbp)
	jmp	LBB121_3
LBB121_1:
	.loc	20 712 13
	movq	-16(%rbp), %rdi
	callq	__Unwind_Resume
LBB121_2:
Ltmp766:
	.loc	20 0 13 is_stmt 0
	movq	%rax, %rcx
	movl	%edx, %eax
	movq	%rcx, -16(%rbp)
	movl	%eax, -8(%rbp)
	jmp	LBB121_1
LBB121_3:
	movb	-22(%rbp), %dl
	movb	-21(%rbp), %al
	.loc	20 716 14 is_stmt 1
	andb	$1, %al
	addq	$32, %rsp
	popq	%rbp
	retq
Ltmp768:
Lfunc_end121:
	.cfi_endproc
	.section	__TEXT,__gcc_except_tab
	.p2align	2
GCC_except_table121:
Lexception12:
	.byte	255
	.byte	255
	.byte	1
	.uleb128 Lcst_end12-Lcst_begin12
Lcst_begin12:
	.uleb128 Ltmp764-Lfunc_begin121
	.uleb128 Ltmp765-Ltmp764
	.uleb128 Ltmp766-Lfunc_begin121
	.byte	0
	.uleb128 Ltmp765-Lfunc_begin121
	.uleb128 Lfunc_end121-Ltmp765
	.byte	0
	.byte	0
Lcst_end12:
	.p2align	2

	.section	__TEXT,__text,regular,pure_instructions
	.globl	__ZN48_$LT$i8$u20$as$u20$num_traits..cast..NumCast$GT$4from17hdca1d2b6fcfcda64E
	.p2align	4, 0x90
__ZN48_$LT$i8$u20$as$u20$num_traits..cast..NumCast$GT$4from17hdca1d2b6fcfcda64E:
Lfunc_begin122:
	.loc	20 712 0
	.cfi_startproc
	.cfi_personality 155, _rust_eh_personality
	.cfi_lsda 16, Lexception13
	pushq	%rbp
	.cfi_def_cfa_offset 16
	.cfi_offset %rbp, -16
	movq	%rsp, %rbp
	.cfi_def_cfa_register %rbp
	subq	$32, %rsp
	movsd	%xmm0, -24(%rbp)
Ltmp769:
	leaq	-24(%rbp), %rdi
Ltmp772:
	.loc	20 715 17 prologue_end
	callq	__ZN53_$LT$f64$u20$as$u20$num_traits..cast..ToPrimitive$GT$5to_i817ha9a6c0a4a12d2cf3E
Ltmp770:
	movb	%dl, -26(%rbp)
	movb	%al, -25(%rbp)
	jmp	LBB122_3
LBB122_1:
	.loc	20 712 13
	movq	-16(%rbp), %rdi
	callq	__Unwind_Resume
LBB122_2:
Ltmp771:
	.loc	20 0 13 is_stmt 0
	movq	%rax, %rcx
	movl	%edx, %eax
	movq	%rcx, -16(%rbp)
	movl	%eax, -8(%rbp)
	jmp	LBB122_1
LBB122_3:
	movb	-26(%rbp), %dl
	movb	-25(%rbp), %al
	.loc	20 716 14 is_stmt 1
	andb	$1, %al
	addq	$32, %rsp
	popq	%rbp
	retq
Ltmp773:
Lfunc_end122:
	.cfi_endproc
	.section	__TEXT,__gcc_except_tab
	.p2align	2
GCC_except_table122:
Lexception13:
	.byte	255
	.byte	255
	.byte	1
	.uleb128 Lcst_end13-Lcst_begin13
Lcst_begin13:
	.uleb128 Ltmp769-Lfunc_begin122
	.uleb128 Ltmp770-Ltmp769
	.uleb128 Ltmp771-Lfunc_begin122
	.byte	0
	.uleb128 Ltmp770-Lfunc_begin122
	.uleb128 Lfunc_end122-Ltmp770
	.byte	0
	.byte	0
Lcst_end13:
	.p2align	2

	.section	__TEXT,__text,regular,pure_instructions
	.globl	__ZN48_$LT$u8$u20$as$u20$num_traits..cast..NumCast$GT$4from17h9d0767bf49b126daE
	.p2align	4, 0x90
__ZN48_$LT$u8$u20$as$u20$num_traits..cast..NumCast$GT$4from17h9d0767bf49b126daE:
Lfunc_begin123:
	.loc	20 712 0
	.cfi_startproc
	.cfi_personality 155, _rust_eh_personality
	.cfi_lsda 16, Lexception14
	pushq	%rbp
	.cfi_def_cfa_offset 16
	.cfi_offset %rbp, -16
	movq	%rsp, %rbp
	.cfi_def_cfa_register %rbp
	subq	$32, %rsp
	movsd	%xmm0, -24(%rbp)
Ltmp774:
	leaq	-24(%rbp), %rdi
Ltmp777:
	.loc	20 715 17 prologue_end
	callq	__ZN53_$LT$f64$u20$as$u20$num_traits..cast..ToPrimitive$GT$5to_u817h3e741ed4903d75a1E
Ltmp775:
	movb	%dl, -26(%rbp)
	movb	%al, -25(%rbp)
	jmp	LBB123_3
LBB123_1:
	.loc	20 712 13
	movq	-16(%rbp), %rdi
	callq	__Unwind_Resume
LBB123_2:
Ltmp776:
	.loc	20 0 13 is_stmt 0
	movq	%rax, %rcx
	movl	%edx, %eax
	movq	%rcx, -16(%rbp)
	movl	%eax, -8(%rbp)
	jmp	LBB123_1
LBB123_3:
	movb	-26(%rbp), %dl
	movb	-25(%rbp), %al
	.loc	20 716 14 is_stmt 1
	andb	$1, %al
	addq	$32, %rsp
	popq	%rbp
	retq
Ltmp778:
Lfunc_end123:
	.cfi_endproc
	.section	__TEXT,__gcc_except_tab
	.p2align	2
GCC_except_table123:
Lexception14:
	.byte	255
	.byte	255
	.byte	1
	.uleb128 Lcst_end14-Lcst_begin14
Lcst_begin14:
	.uleb128 Ltmp774-Lfunc_begin123
	.uleb128 Ltmp775-Ltmp774
	.uleb128 Ltmp776-Lfunc_begin123
	.byte	0
	.uleb128 Ltmp775-Lfunc_begin123
	.uleb128 Lfunc_end123-Ltmp775
	.byte	0
	.byte	0
Lcst_end14:
	.p2align	2

	.section	__TEXT,__text,regular,pure_instructions
	.globl	__ZN48_$LT$u8$u20$as$u20$num_traits..cast..NumCast$GT$4from17hfc2096d67e899f70E
	.p2align	4, 0x90
__ZN48_$LT$u8$u20$as$u20$num_traits..cast..NumCast$GT$4from17hfc2096d67e899f70E:
Lfunc_begin124:
	.loc	20 712 0
	.cfi_startproc
	.cfi_personality 155, _rust_eh_personality
	.cfi_lsda 16, Lexception15
	pushq	%rbp
	.cfi_def_cfa_offset 16
	.cfi_offset %rbp, -16
	movq	%rsp, %rbp
	.cfi_def_cfa_register %rbp
	subq	$32, %rsp
	movss	%xmm0, -20(%rbp)
Ltmp779:
	leaq	-20(%rbp), %rdi
Ltmp782:
	.loc	20 715 17 prologue_end
	callq	__ZN53_$LT$f32$u20$as$u20$num_traits..cast..ToPrimitive$GT$5to_u817h7885058efe272c9fE
Ltmp780:
	movb	%dl, -22(%rbp)
	movb	%al, -21(%rbp)
	jmp	LBB124_3
LBB124_1:
	.loc	20 712 13
	movq	-16(%rbp), %rdi
	callq	__Unwind_Resume
LBB124_2:
Ltmp781:
	.loc	20 0 13 is_stmt 0
	movq	%rax, %rcx
	movl	%edx, %eax
	movq	%rcx, -16(%rbp)
	movl	%eax, -8(%rbp)
	jmp	LBB124_1
LBB124_3:
	movb	-22(%rbp), %dl
	movb	-21(%rbp), %al
	.loc	20 716 14 is_stmt 1
	andb	$1, %al
	addq	$32, %rsp
	popq	%rbp
	retq
Ltmp783:
Lfunc_end124:
	.cfi_endproc
	.section	__TEXT,__gcc_except_tab
	.p2align	2
GCC_except_table124:
Lexception15:
	.byte	255
	.byte	255
	.byte	1
	.uleb128 Lcst_end15-Lcst_begin15
Lcst_begin15:
	.uleb128 Ltmp779-Lfunc_begin124
	.uleb128 Ltmp780-Ltmp779
	.uleb128 Ltmp781-Lfunc_begin124
	.byte	0
	.uleb128 Ltmp780-Lfunc_begin124
	.uleb128 Lfunc_end124-Ltmp780
	.byte	0
	.byte	0
Lcst_end15:
	.p2align	2

	.section	__TEXT,__text,regular,pure_instructions
	.globl	__ZN49_$LT$f32$u20$as$u20$num_traits..cast..NumCast$GT$4from17h04ced55cf8338e78E
	.p2align	4, 0x90
__ZN49_$LT$f32$u20$as$u20$num_traits..cast..NumCast$GT$4from17h04ced55cf8338e78E:
Lfunc_begin125:
	.loc	20 712 0
	.cfi_startproc
	.cfi_personality 155, _rust_eh_personality
	.cfi_lsda 16, Lexception16
	pushq	%rbp
	.cfi_def_cfa_offset 16
	.cfi_offset %rbp, -16
	movq	%rsp, %rbp
	.cfi_def_cfa_register %rbp
	subq	$32, %rsp
	movq	%rdi, -24(%rbp)
Ltmp784:
	leaq	-24(%rbp), %rdi
Ltmp787:
	.loc	20 715 17 prologue_end
	callq	__ZN55_$LT$isize$u20$as$u20$num_traits..cast..ToPrimitive$GT$6to_f3217hd799e36700d543f8E
Ltmp785:
	movss	%xmm0, -32(%rbp)
	movl	%eax, -28(%rbp)
	jmp	LBB125_3
LBB125_1:
	.loc	20 712 13
	movq	-16(%rbp), %rdi
	callq	__Unwind_Resume
LBB125_2:
Ltmp786:
	.loc	20 0 13 is_stmt 0
	movq	%rax, %rcx
	movl	%edx, %eax
	movq	%rcx, -16(%rbp)
	movl	%eax, -8(%rbp)
	jmp	LBB125_1
LBB125_3:
	movss	-32(%rbp), %xmm0
	movl	-28(%rbp), %eax
	.loc	20 716 14 is_stmt 1
	addq	$32, %rsp
	popq	%rbp
	retq
Ltmp788:
Lfunc_end125:
	.cfi_endproc
	.section	__TEXT,__gcc_except_tab
	.p2align	2
GCC_except_table125:
Lexception16:
	.byte	255
	.byte	255
	.byte	1
	.uleb128 Lcst_end16-Lcst_begin16
Lcst_begin16:
	.uleb128 Ltmp784-Lfunc_begin125
	.uleb128 Ltmp785-Ltmp784
	.uleb128 Ltmp786-Lfunc_begin125
	.byte	0
	.uleb128 Ltmp785-Lfunc_begin125
	.uleb128 Lfunc_end125-Ltmp785
	.byte	0
	.byte	0
Lcst_end16:
	.p2align	2

	.section	__TEXT,__text,regular,pure_instructions
	.globl	__ZN49_$LT$f32$u20$as$u20$num_traits..cast..NumCast$GT$4from17h1a820bf25795608dE
	.p2align	4, 0x90
__ZN49_$LT$f32$u20$as$u20$num_traits..cast..NumCast$GT$4from17h1a820bf25795608dE:
Lfunc_begin126:
	.loc	20 712 0
	.cfi_startproc
	.cfi_personality 155, _rust_eh_personality
	.cfi_lsda 16, Lexception17
	pushq	%rbp
	.cfi_def_cfa_offset 16
	.cfi_offset %rbp, -16
	movq	%rsp, %rbp
	.cfi_def_cfa_register %rbp
	subq	$48, %rsp
	movq	%rdi, -32(%rbp)
	movq	%rsi, -24(%rbp)
Ltmp789:
	leaq	-32(%rbp), %rdi
Ltmp792:
	.loc	20 715 17 prologue_end
	callq	__ZN54_$LT$i128$u20$as$u20$num_traits..cast..ToPrimitive$GT$6to_f3217hed2a85338d73f118E
Ltmp790:
	movss	%xmm0, -40(%rbp)
	movl	%eax, -36(%rbp)
	jmp	LBB126_3
LBB126_1:
	.loc	20 712 13
	movq	-16(%rbp), %rdi
	callq	__Unwind_Resume
LBB126_2:
Ltmp791:
	.loc	20 0 13 is_stmt 0
	movq	%rax, %rcx
	movl	%edx, %eax
	movq	%rcx, -16(%rbp)
	movl	%eax, -8(%rbp)
	jmp	LBB126_1
LBB126_3:
	movss	-40(%rbp), %xmm0
	movl	-36(%rbp), %eax
	.loc	20 716 14 is_stmt 1
	addq	$48, %rsp
	popq	%rbp
	retq
Ltmp793:
Lfunc_end126:
	.cfi_endproc
	.section	__TEXT,__gcc_except_tab
	.p2align	2
GCC_except_table126:
Lexception17:
	.byte	255
	.byte	255
	.byte	1
	.uleb128 Lcst_end17-Lcst_begin17
Lcst_begin17:
	.uleb128 Ltmp789-Lfunc_begin126
	.uleb128 Ltmp790-Ltmp789
	.uleb128 Ltmp791-Lfunc_begin126
	.byte	0
	.uleb128 Ltmp790-Lfunc_begin126
	.uleb128 Lfunc_end126-Ltmp790
	.byte	0
	.byte	0
Lcst_end17:
	.p2align	2

	.section	__TEXT,__text,regular,pure_instructions
	.globl	__ZN49_$LT$f32$u20$as$u20$num_traits..cast..NumCast$GT$4from17h1dd300fba296cdbfE
	.p2align	4, 0x90
__ZN49_$LT$f32$u20$as$u20$num_traits..cast..NumCast$GT$4from17h1dd300fba296cdbfE:
Lfunc_begin127:
	.loc	20 712 0
	.cfi_startproc
	.cfi_personality 155, _rust_eh_personality
	.cfi_lsda 16, Lexception18
	pushq	%rbp
	.cfi_def_cfa_offset 16
	.cfi_offset %rbp, -16
	movq	%rsp, %rbp
	.cfi_def_cfa_register %rbp
	subq	$32, %rsp
	movq	%rdi, -24(%rbp)
Ltmp794:
	leaq	-24(%rbp), %rdi
Ltmp797:
	.loc	20 715 17 prologue_end
	callq	__ZN55_$LT$usize$u20$as$u20$num_traits..cast..ToPrimitive$GT$6to_f3217h6482fcff65090ccdE
Ltmp795:
	movss	%xmm0, -32(%rbp)
	movl	%eax, -28(%rbp)
	jmp	LBB127_3
LBB127_1:
	.loc	20 712 13
	movq	-16(%rbp), %rdi
	callq	__Unwind_Resume
LBB127_2:
Ltmp796:
	.loc	20 0 13 is_stmt 0
	movq	%rax, %rcx
	movl	%edx, %eax
	movq	%rcx, -16(%rbp)
	movl	%eax, -8(%rbp)
	jmp	LBB127_1
LBB127_3:
	movss	-32(%rbp), %xmm0
	movl	-28(%rbp), %eax
	.loc	20 716 14 is_stmt 1
	addq	$32, %rsp
	popq	%rbp
	retq
Ltmp798:
Lfunc_end127:
	.cfi_endproc
	.section	__TEXT,__gcc_except_tab
	.p2align	2
GCC_except_table127:
Lexception18:
	.byte	255
	.byte	255
	.byte	1
	.uleb128 Lcst_end18-Lcst_begin18
Lcst_begin18:
	.uleb128 Ltmp794-Lfunc_begin127
	.uleb128 Ltmp795-Ltmp794
	.uleb128 Ltmp796-Lfunc_begin127
	.byte	0
	.uleb128 Ltmp795-Lfunc_begin127
	.uleb128 Lfunc_end127-Ltmp795
	.byte	0
	.byte	0
Lcst_end18:
	.p2align	2

	.section	__TEXT,__text,regular,pure_instructions
	.globl	__ZN49_$LT$f32$u20$as$u20$num_traits..cast..NumCast$GT$4from17h464a2729302b5c8eE
	.p2align	4, 0x90
__ZN49_$LT$f32$u20$as$u20$num_traits..cast..NumCast$GT$4from17h464a2729302b5c8eE:
Lfunc_begin128:
	.loc	20 712 0
	.cfi_startproc
	.cfi_personality 155, _rust_eh_personality
	.cfi_lsda 16, Lexception19
	pushq	%rbp
	.cfi_def_cfa_offset 16
	.cfi_offset %rbp, -16
	movq	%rsp, %rbp
	.cfi_def_cfa_register %rbp
	subq	$48, %rsp
	movq	%rdi, -32(%rbp)
	movq	%rsi, -24(%rbp)
Ltmp799:
	leaq	-32(%rbp), %rdi
Ltmp802:
	.loc	20 715 17 prologue_end
	callq	__ZN54_$LT$u128$u20$as$u20$num_traits..cast..ToPrimitive$GT$6to_f3217h201904724f5276beE
Ltmp800:
	movss	%xmm0, -40(%rbp)
	movl	%eax, -36(%rbp)
	jmp	LBB128_3
LBB128_1:
	.loc	20 712 13
	movq	-16(%rbp), %rdi
	callq	__Unwind_Resume
LBB128_2:
Ltmp801:
	.loc	20 0 13 is_stmt 0
	movq	%rax, %rcx
	movl	%edx, %eax
	movq	%rcx, -16(%rbp)
	movl	%eax, -8(%rbp)
	jmp	LBB128_1
LBB128_3:
	movss	-40(%rbp), %xmm0
	movl	-36(%rbp), %eax
	.loc	20 716 14 is_stmt 1
	addq	$48, %rsp
	popq	%rbp
	retq
Ltmp803:
Lfunc_end128:
	.cfi_endproc
	.section	__TEXT,__gcc_except_tab
	.p2align	2
GCC_except_table128:
Lexception19:
	.byte	255
	.byte	255
	.byte	1
	.uleb128 Lcst_end19-Lcst_begin19
Lcst_begin19:
	.uleb128 Ltmp799-Lfunc_begin128
	.uleb128 Ltmp800-Ltmp799
	.uleb128 Ltmp801-Lfunc_begin128
	.byte	0
	.uleb128 Ltmp800-Lfunc_begin128
	.uleb128 Lfunc_end128-Ltmp800
	.byte	0
	.byte	0
Lcst_end19:
	.p2align	2

	.section	__TEXT,__text,regular,pure_instructions
	.globl	__ZN49_$LT$f32$u20$as$u20$num_traits..cast..NumCast$GT$4from17h54f21cbddecbe31fE
	.p2align	4, 0x90
__ZN49_$LT$f32$u20$as$u20$num_traits..cast..NumCast$GT$4from17h54f21cbddecbe31fE:
Lfunc_begin129:
	.loc	20 712 0
	.cfi_startproc
	.cfi_personality 155, _rust_eh_personality
	.cfi_lsda 16, Lexception20
	pushq	%rbp
	.cfi_def_cfa_offset 16
	.cfi_offset %rbp, -16
	movq	%rsp, %rbp
	.cfi_def_cfa_register %rbp
	subq	$32, %rsp
	movw	%di, %ax
	movw	%ax, -18(%rbp)
Ltmp804:
	leaq	-18(%rbp), %rdi
Ltmp807:
	.loc	20 715 17 prologue_end
	callq	__ZN53_$LT$u16$u20$as$u20$num_traits..cast..ToPrimitive$GT$6to_f3217h28be9e67c1b04b2dE
Ltmp805:
	movss	%xmm0, -28(%rbp)
	movl	%eax, -24(%rbp)
	jmp	LBB129_3
LBB129_1:
	.loc	20 712 13
	movq	-16(%rbp), %rdi
	callq	__Unwind_Resume
LBB129_2:
Ltmp806:
	.loc	20 0 13 is_stmt 0
	movq	%rax, %rcx
	movl	%edx, %eax
	movq	%rcx, -16(%rbp)
	movl	%eax, -8(%rbp)
	jmp	LBB129_1
LBB129_3:
	movss	-28(%rbp), %xmm0
	movl	-24(%rbp), %eax
	.loc	20 716 14 is_stmt 1
	addq	$32, %rsp
	popq	%rbp
	retq
Ltmp808:
Lfunc_end129:
	.cfi_endproc
	.section	__TEXT,__gcc_except_tab
	.p2align	2
GCC_except_table129:
Lexception20:
	.byte	255
	.byte	255
	.byte	1
	.uleb128 Lcst_end20-Lcst_begin20
Lcst_begin20:
	.uleb128 Ltmp804-Lfunc_begin129
	.uleb128 Ltmp805-Ltmp804
	.uleb128 Ltmp806-Lfunc_begin129
	.byte	0
	.uleb128 Ltmp805-Lfunc_begin129
	.uleb128 Lfunc_end129-Ltmp805
	.byte	0
	.byte	0
Lcst_end20:
	.p2align	2

	.section	__TEXT,__text,regular,pure_instructions
	.globl	__ZN49_$LT$f32$u20$as$u20$num_traits..cast..NumCast$GT$4from17h59f1aea26c74093aE
	.p2align	4, 0x90
__ZN49_$LT$f32$u20$as$u20$num_traits..cast..NumCast$GT$4from17h59f1aea26c74093aE:
Lfunc_begin130:
	.loc	20 712 0
	.cfi_startproc
	.cfi_personality 155, _rust_eh_personality
	.cfi_lsda 16, Lexception21
	pushq	%rbp
	.cfi_def_cfa_offset 16
	.cfi_offset %rbp, -16
	movq	%rsp, %rbp
	.cfi_def_cfa_register %rbp
	subq	$32, %rsp
	movb	%dil, %al
	movb	%al, -17(%rbp)
Ltmp809:
	leaq	-17(%rbp), %rdi
Ltmp812:
	.loc	20 715 17 prologue_end
	callq	__ZN52_$LT$i8$u20$as$u20$num_traits..cast..ToPrimitive$GT$6to_f3217h8044c26275036a0aE
Ltmp810:
	movss	%xmm0, -28(%rbp)
	movl	%eax, -24(%rbp)
	jmp	LBB130_3
LBB130_1:
	.loc	20 712 13
	movq	-16(%rbp), %rdi
	callq	__Unwind_Resume
LBB130_2:
Ltmp811:
	.loc	20 0 13 is_stmt 0
	movq	%rax, %rcx
	movl	%edx, %eax
	movq	%rcx, -16(%rbp)
	movl	%eax, -8(%rbp)
	jmp	LBB130_1
LBB130_3:
	movss	-28(%rbp), %xmm0
	movl	-24(%rbp), %eax
	.loc	20 716 14 is_stmt 1
	addq	$32, %rsp
	popq	%rbp
	retq
Ltmp813:
Lfunc_end130:
	.cfi_endproc
	.section	__TEXT,__gcc_except_tab
	.p2align	2
GCC_except_table130:
Lexception21:
	.byte	255
	.byte	255
	.byte	1
	.uleb128 Lcst_end21-Lcst_begin21
Lcst_begin21:
	.uleb128 Ltmp809-Lfunc_begin130
	.uleb128 Ltmp810-Ltmp809
	.uleb128 Ltmp811-Lfunc_begin130
	.byte	0
	.uleb128 Ltmp810-Lfunc_begin130
	.uleb128 Lfunc_end130-Ltmp810
	.byte	0
	.byte	0
Lcst_end21:
	.p2align	2

	.section	__TEXT,__text,regular,pure_instructions
	.globl	__ZN49_$LT$f32$u20$as$u20$num_traits..cast..NumCast$GT$4from17h7bd9dd5b24371638E
	.p2align	4, 0x90
__ZN49_$LT$f32$u20$as$u20$num_traits..cast..NumCast$GT$4from17h7bd9dd5b24371638E:
Lfunc_begin131:
	.loc	20 712 0
	.cfi_startproc
	.cfi_personality 155, _rust_eh_personality
	.cfi_lsda 16, Lexception22
	pushq	%rbp
	.cfi_def_cfa_offset 16
	.cfi_offset %rbp, -16
	movq	%rsp, %rbp
	.cfi_def_cfa_register %rbp
	subq	$32, %rsp
	movl	%edi, -20(%rbp)
Ltmp814:
	leaq	-20(%rbp), %rdi
Ltmp817:
	.loc	20 715 17 prologue_end
	callq	__ZN53_$LT$i32$u20$as$u20$num_traits..cast..ToPrimitive$GT$6to_f3217had3a6bd3bdfdd3b9E
Ltmp815:
	movss	%xmm0, -28(%rbp)
	movl	%eax, -24(%rbp)
	jmp	LBB131_3
LBB131_1:
	.loc	20 712 13
	movq	-16(%rbp), %rdi
	callq	__Unwind_Resume
LBB131_2:
Ltmp816:
	.loc	20 0 13 is_stmt 0
	movq	%rax, %rcx
	movl	%edx, %eax
	movq	%rcx, -16(%rbp)
	movl	%eax, -8(%rbp)
	jmp	LBB131_1
LBB131_3:
	movss	-28(%rbp), %xmm0
	movl	-24(%rbp), %eax
	.loc	20 716 14 is_stmt 1
	addq	$32, %rsp
	popq	%rbp
	retq
Ltmp818:
Lfunc_end131:
	.cfi_endproc
	.section	__TEXT,__gcc_except_tab
	.p2align	2
GCC_except_table131:
Lexception22:
	.byte	255
	.byte	255
	.byte	1
	.uleb128 Lcst_end22-Lcst_begin22
Lcst_begin22:
	.uleb128 Ltmp814-Lfunc_begin131
	.uleb128 Ltmp815-Ltmp814
	.uleb128 Ltmp816-Lfunc_begin131
	.byte	0
	.uleb128 Ltmp815-Lfunc_begin131
	.uleb128 Lfunc_end131-Ltmp815
	.byte	0
	.byte	0
Lcst_end22:
	.p2align	2

	.section	__TEXT,__text,regular,pure_instructions
	.globl	__ZN49_$LT$f32$u20$as$u20$num_traits..cast..NumCast$GT$4from17h8b6fcc8e73a78cafE
	.p2align	4, 0x90
__ZN49_$LT$f32$u20$as$u20$num_traits..cast..NumCast$GT$4from17h8b6fcc8e73a78cafE:
Lfunc_begin132:
	.loc	20 712 0
	.cfi_startproc
	.cfi_personality 155, _rust_eh_personality
	.cfi_lsda 16, Lexception23
	pushq	%rbp
	.cfi_def_cfa_offset 16
	.cfi_offset %rbp, -16
	movq	%rsp, %rbp
	.cfi_def_cfa_register %rbp
	subq	$32, %rsp
	movw	%di, %ax
	movw	%ax, -18(%rbp)
Ltmp819:
	leaq	-18(%rbp), %rdi
Ltmp822:
	.loc	20 715 17 prologue_end
	callq	__ZN53_$LT$i16$u20$as$u20$num_traits..cast..ToPrimitive$GT$6to_f3217h2ce9e9a193c558e4E
Ltmp820:
	movss	%xmm0, -28(%rbp)
	movl	%eax, -24(%rbp)
	jmp	LBB132_3
LBB132_1:
	.loc	20 712 13
	movq	-16(%rbp), %rdi
	callq	__Unwind_Resume
LBB132_2:
Ltmp821:
	.loc	20 0 13 is_stmt 0
	movq	%rax, %rcx
	movl	%edx, %eax
	movq	%rcx, -16(%rbp)
	movl	%eax, -8(%rbp)
	jmp	LBB132_1
LBB132_3:
	movss	-28(%rbp), %xmm0
	movl	-24(%rbp), %eax
	.loc	20 716 14 is_stmt 1
	addq	$32, %rsp
	popq	%rbp
	retq
Ltmp823:
Lfunc_end132:
	.cfi_endproc
	.section	__TEXT,__gcc_except_tab
	.p2align	2
GCC_except_table132:
Lexception23:
	.byte	255
	.byte	255
	.byte	1
	.uleb128 Lcst_end23-Lcst_begin23
Lcst_begin23:
	.uleb128 Ltmp819-Lfunc_begin132
	.uleb128 Ltmp820-Ltmp819
	.uleb128 Ltmp821-Lfunc_begin132
	.byte	0
	.uleb128 Ltmp820-Lfunc_begin132
	.uleb128 Lfunc_end132-Ltmp820
	.byte	0
	.byte	0
Lcst_end23:
	.p2align	2

	.section	__TEXT,__text,regular,pure_instructions
	.globl	__ZN49_$LT$f32$u20$as$u20$num_traits..cast..NumCast$GT$4from17h956d95064c4799f7E
	.p2align	4, 0x90
__ZN49_$LT$f32$u20$as$u20$num_traits..cast..NumCast$GT$4from17h956d95064c4799f7E:
Lfunc_begin133:
	.loc	20 712 0
	.cfi_startproc
	.cfi_personality 155, _rust_eh_personality
	.cfi_lsda 16, Lexception24
	pushq	%rbp
	.cfi_def_cfa_offset 16
	.cfi_offset %rbp, -16
	movq	%rsp, %rbp
	.cfi_def_cfa_register %rbp
	subq	$32, %rsp
	movl	%edi, -20(%rbp)
Ltmp824:
	leaq	-20(%rbp), %rdi
Ltmp827:
	.loc	20 715 17 prologue_end
	callq	__ZN53_$LT$u32$u20$as$u20$num_traits..cast..ToPrimitive$GT$6to_f3217h851775807f24812aE
Ltmp825:
	movss	%xmm0, -28(%rbp)
	movl	%eax, -24(%rbp)
	jmp	LBB133_3
LBB133_1:
	.loc	20 712 13
	movq	-16(%rbp), %rdi
	callq	__Unwind_Resume
LBB133_2:
Ltmp826:
	.loc	20 0 13 is_stmt 0
	movq	%rax, %rcx
	movl	%edx, %eax
	movq	%rcx, -16(%rbp)
	movl	%eax, -8(%rbp)
	jmp	LBB133_1
LBB133_3:
	movss	-28(%rbp), %xmm0
	movl	-24(%rbp), %eax
	.loc	20 716 14 is_stmt 1
	addq	$32, %rsp
	popq	%rbp
	retq
Ltmp828:
Lfunc_end133:
	.cfi_endproc
	.section	__TEXT,__gcc_except_tab
	.p2align	2
GCC_except_table133:
Lexception24:
	.byte	255
	.byte	255
	.byte	1
	.uleb128 Lcst_end24-Lcst_begin24
Lcst_begin24:
	.uleb128 Ltmp824-Lfunc_begin133
	.uleb128 Ltmp825-Ltmp824
	.uleb128 Ltmp826-Lfunc_begin133
	.byte	0
	.uleb128 Ltmp825-Lfunc_begin133
	.uleb128 Lfunc_end133-Ltmp825
	.byte	0
	.byte	0
Lcst_end24:
	.p2align	2

	.section	__TEXT,__text,regular,pure_instructions
	.globl	__ZN49_$LT$f32$u20$as$u20$num_traits..cast..NumCast$GT$4from17haa21d7278c5ff719E
	.p2align	4, 0x90
__ZN49_$LT$f32$u20$as$u20$num_traits..cast..NumCast$GT$4from17haa21d7278c5ff719E:
Lfunc_begin134:
	.loc	20 712 0
	.cfi_startproc
	.cfi_personality 155, _rust_eh_personality
	.cfi_lsda 16, Lexception25
	pushq	%rbp
	.cfi_def_cfa_offset 16
	.cfi_offset %rbp, -16
	movq	%rsp, %rbp
	.cfi_def_cfa_register %rbp
	subq	$32, %rsp
	movb	%dil, %al
	movb	%al, -17(%rbp)
Ltmp829:
	leaq	-17(%rbp), %rdi
Ltmp832:
	.loc	20 715 17 prologue_end
	callq	__ZN52_$LT$u8$u20$as$u20$num_traits..cast..ToPrimitive$GT$6to_f3217h686b231bbe14883aE
Ltmp830:
	movss	%xmm0, -28(%rbp)
	movl	%eax, -24(%rbp)
	jmp	LBB134_3
LBB134_1:
	.loc	20 712 13
	movq	-16(%rbp), %rdi
	callq	__Unwind_Resume
LBB134_2:
Ltmp831:
	.loc	20 0 13 is_stmt 0
	movq	%rax, %rcx
	movl	%edx, %eax
	movq	%rcx, -16(%rbp)
	movl	%eax, -8(%rbp)
	jmp	LBB134_1
LBB134_3:
	movss	-28(%rbp), %xmm0
	movl	-24(%rbp), %eax
	.loc	20 716 14 is_stmt 1
	addq	$32, %rsp
	popq	%rbp
	retq
Ltmp833:
Lfunc_end134:
	.cfi_endproc
	.section	__TEXT,__gcc_except_tab
	.p2align	2
GCC_except_table134:
Lexception25:
	.byte	255
	.byte	255
	.byte	1
	.uleb128 Lcst_end25-Lcst_begin25
Lcst_begin25:
	.uleb128 Ltmp829-Lfunc_begin134
	.uleb128 Ltmp830-Ltmp829
	.uleb128 Ltmp831-Lfunc_begin134
	.byte	0
	.uleb128 Ltmp830-Lfunc_begin134
	.uleb128 Lfunc_end134-Ltmp830
	.byte	0
	.byte	0
Lcst_end25:
	.p2align	2

	.section	__TEXT,__text,regular,pure_instructions
	.globl	__ZN49_$LT$f32$u20$as$u20$num_traits..cast..NumCast$GT$4from17hd555a664fca64452E
	.p2align	4, 0x90
__ZN49_$LT$f32$u20$as$u20$num_traits..cast..NumCast$GT$4from17hd555a664fca64452E:
Lfunc_begin135:
	.loc	20 712 0
	.cfi_startproc
	.cfi_personality 155, _rust_eh_personality
	.cfi_lsda 16, Lexception26
	pushq	%rbp
	.cfi_def_cfa_offset 16
	.cfi_offset %rbp, -16
	movq	%rsp, %rbp
	.cfi_def_cfa_register %rbp
	subq	$32, %rsp
	movq	%rdi, -24(%rbp)
Ltmp834:
	leaq	-24(%rbp), %rdi
Ltmp837:
	.loc	20 715 17 prologue_end
	callq	__ZN53_$LT$u64$u20$as$u20$num_traits..cast..ToPrimitive$GT$6to_f3217h69b766fbd16df30dE
Ltmp835:
	movss	%xmm0, -32(%rbp)
	movl	%eax, -28(%rbp)
	jmp	LBB135_3
LBB135_1:
	.loc	20 712 13
	movq	-16(%rbp), %rdi
	callq	__Unwind_Resume
LBB135_2:
Ltmp836:
	.loc	20 0 13 is_stmt 0
	movq	%rax, %rcx
	movl	%edx, %eax
	movq	%rcx, -16(%rbp)
	movl	%eax, -8(%rbp)
	jmp	LBB135_1
LBB135_3:
	movss	-32(%rbp), %xmm0
	movl	-28(%rbp), %eax
	.loc	20 716 14 is_stmt 1
	addq	$32, %rsp
	popq	%rbp
	retq
Ltmp838:
Lfunc_end135:
	.cfi_endproc
	.section	__TEXT,__gcc_except_tab
	.p2align	2
GCC_except_table135:
Lexception26:
	.byte	255
	.byte	255
	.byte	1
	.uleb128 Lcst_end26-Lcst_begin26
Lcst_begin26:
	.uleb128 Ltmp834-Lfunc_begin135
	.uleb128 Ltmp835-Ltmp834
	.uleb128 Ltmp836-Lfunc_begin135
	.byte	0
	.uleb128 Ltmp835-Lfunc_begin135
	.uleb128 Lfunc_end135-Ltmp835
	.byte	0
	.byte	0
Lcst_end26:
	.p2align	2

	.section	__TEXT,__text,regular,pure_instructions
	.globl	__ZN49_$LT$f32$u20$as$u20$num_traits..cast..NumCast$GT$4from17hfaa324bf8f183189E
	.p2align	4, 0x90
__ZN49_$LT$f32$u20$as$u20$num_traits..cast..NumCast$GT$4from17hfaa324bf8f183189E:
Lfunc_begin136:
	.loc	20 712 0
	.cfi_startproc
	.cfi_personality 155, _rust_eh_personality
	.cfi_lsda 16, Lexception27
	pushq	%rbp
	.cfi_def_cfa_offset 16
	.cfi_offset %rbp, -16
	movq	%rsp, %rbp
	.cfi_def_cfa_register %rbp
	subq	$32, %rsp
	movq	%rdi, -24(%rbp)
Ltmp839:
	leaq	-24(%rbp), %rdi
Ltmp842:
	.loc	20 715 17 prologue_end
	callq	__ZN53_$LT$i64$u20$as$u20$num_traits..cast..ToPrimitive$GT$6to_f3217h2a67bad521f1e85cE
Ltmp840:
	movss	%xmm0, -32(%rbp)
	movl	%eax, -28(%rbp)
	jmp	LBB136_3
LBB136_1:
	.loc	20 712 13
	movq	-16(%rbp), %rdi
	callq	__Unwind_Resume
LBB136_2:
Ltmp841:
	.loc	20 0 13 is_stmt 0
	movq	%rax, %rcx
	movl	%edx, %eax
	movq	%rcx, -16(%rbp)
	movl	%eax, -8(%rbp)
	jmp	LBB136_1
LBB136_3:
	movss	-32(%rbp), %xmm0
	movl	-28(%rbp), %eax
	.loc	20 716 14 is_stmt 1
	addq	$32, %rsp
	popq	%rbp
	retq
Ltmp843:
Lfunc_end136:
	.cfi_endproc
	.section	__TEXT,__gcc_except_tab
	.p2align	2
GCC_except_table136:
Lexception27:
	.byte	255
	.byte	255
	.byte	1
	.uleb128 Lcst_end27-Lcst_begin27
Lcst_begin27:
	.uleb128 Ltmp839-Lfunc_begin136
	.uleb128 Ltmp840-Ltmp839
	.uleb128 Ltmp841-Lfunc_begin136
	.byte	0
	.uleb128 Ltmp840-Lfunc_begin136
	.uleb128 Lfunc_end136-Ltmp840
	.byte	0
	.byte	0
Lcst_end27:
	.p2align	2

	.section	__TEXT,__text,regular,pure_instructions
	.globl	__ZN49_$LT$f64$u20$as$u20$num_traits..cast..NumCast$GT$4from17h002afc4c4073dd6fE
	.p2align	4, 0x90
__ZN49_$LT$f64$u20$as$u20$num_traits..cast..NumCast$GT$4from17h002afc4c4073dd6fE:
Lfunc_begin137:
	.loc	20 712 0
	.cfi_startproc
	.cfi_personality 155, _rust_eh_personality
	.cfi_lsda 16, Lexception28
	pushq	%rbp
	.cfi_def_cfa_offset 16
	.cfi_offset %rbp, -16
	movq	%rsp, %rbp
	.cfi_def_cfa_register %rbp
	subq	$48, %rsp
	movl	%edi, -20(%rbp)
Ltmp844:
	leaq	-20(%rbp), %rdi
Ltmp847:
	.loc	20 715 17 prologue_end
	callq	__ZN53_$LT$i32$u20$as$u20$num_traits..cast..ToPrimitive$GT$6to_f6417ha387d4e923794848E
Ltmp845:
	movsd	%xmm0, -40(%rbp)
	movq	%rax, -32(%rbp)
	jmp	LBB137_3
LBB137_1:
	.loc	20 712 13
	movq	-16(%rbp), %rdi
	callq	__Unwind_Resume
LBB137_2:
Ltmp846:
	.loc	20 0 13 is_stmt 0
	movq	%rax, %rcx
	movl	%edx, %eax
	movq	%rcx, -16(%rbp)
	movl	%eax, -8(%rbp)
	jmp	LBB137_1
LBB137_3:
	movsd	-40(%rbp), %xmm0
	movq	-32(%rbp), %rax
	.loc	20 716 14 is_stmt 1
	addq	$48, %rsp
	popq	%rbp
	retq
Ltmp848:
Lfunc_end137:
	.cfi_endproc
	.section	__TEXT,__gcc_except_tab
	.p2align	2
GCC_except_table137:
Lexception28:
	.byte	255
	.byte	255
	.byte	1
	.uleb128 Lcst_end28-Lcst_begin28
Lcst_begin28:
	.uleb128 Ltmp844-Lfunc_begin137
	.uleb128 Ltmp845-Ltmp844
	.uleb128 Ltmp846-Lfunc_begin137
	.byte	0
	.uleb128 Ltmp845-Lfunc_begin137
	.uleb128 Lfunc_end137-Ltmp845
	.byte	0
	.byte	0
Lcst_end28:
	.p2align	2

	.section	__TEXT,__text,regular,pure_instructions
	.globl	__ZN49_$LT$f64$u20$as$u20$num_traits..cast..NumCast$GT$4from17h020c9548efdcf924E
	.p2align	4, 0x90
__ZN49_$LT$f64$u20$as$u20$num_traits..cast..NumCast$GT$4from17h020c9548efdcf924E:
Lfunc_begin138:
	.loc	20 712 0
	.cfi_startproc
	.cfi_personality 155, _rust_eh_personality
	.cfi_lsda 16, Lexception29
	pushq	%rbp
	.cfi_def_cfa_offset 16
	.cfi_offset %rbp, -16
	movq	%rsp, %rbp
	.cfi_def_cfa_register %rbp
	subq	$48, %rsp
	movq	%rdi, -24(%rbp)
Ltmp849:
	leaq	-24(%rbp), %rdi
Ltmp852:
	.loc	20 715 17 prologue_end
	callq	__ZN53_$LT$u64$u20$as$u20$num_traits..cast..ToPrimitive$GT$6to_f6417he2dcbe320cfb8b1fE
Ltmp850:
	movsd	%xmm0, -40(%rbp)
	movq	%rax, -32(%rbp)
	jmp	LBB138_3
LBB138_1:
	.loc	20 712 13
	movq	-16(%rbp), %rdi
	callq	__Unwind_Resume
LBB138_2:
Ltmp851:
	.loc	20 0 13 is_stmt 0
	movq	%rax, %rcx
	movl	%edx, %eax
	movq	%rcx, -16(%rbp)
	movl	%eax, -8(%rbp)
	jmp	LBB138_1
LBB138_3:
	movsd	-40(%rbp), %xmm0
	movq	-32(%rbp), %rax
	.loc	20 716 14 is_stmt 1
	addq	$48, %rsp
	popq	%rbp
	retq
Ltmp853:
Lfunc_end138:
	.cfi_endproc
	.section	__TEXT,__gcc_except_tab
	.p2align	2
GCC_except_table138:
Lexception29:
	.byte	255
	.byte	255
	.byte	1
	.uleb128 Lcst_end29-Lcst_begin29
Lcst_begin29:
	.uleb128 Ltmp849-Lfunc_begin138
	.uleb128 Ltmp850-Ltmp849
	.uleb128 Ltmp851-Lfunc_begin138
	.byte	0
	.uleb128 Ltmp850-Lfunc_begin138
	.uleb128 Lfunc_end138-Ltmp850
	.byte	0
	.byte	0
Lcst_end29:
	.p2align	2

	.section	__TEXT,__text,regular,pure_instructions
	.globl	__ZN49_$LT$f64$u20$as$u20$num_traits..cast..NumCast$GT$4from17h13324d9ea2566b64E
	.p2align	4, 0x90
__ZN49_$LT$f64$u20$as$u20$num_traits..cast..NumCast$GT$4from17h13324d9ea2566b64E:
Lfunc_begin139:
	.loc	20 712 0
	.cfi_startproc
	.cfi_personality 155, _rust_eh_personality
	.cfi_lsda 16, Lexception30
	pushq	%rbp
	.cfi_def_cfa_offset 16
	.cfi_offset %rbp, -16
	movq	%rsp, %rbp
	.cfi_def_cfa_register %rbp
	subq	$48, %rsp
	movl	%edi, -20(%rbp)
Ltmp854:
	leaq	-20(%rbp), %rdi
Ltmp857:
	.loc	20 715 17 prologue_end
	callq	__ZN53_$LT$u32$u20$as$u20$num_traits..cast..ToPrimitive$GT$6to_f6417h8cbf4c2d95a3ea93E
Ltmp855:
	movsd	%xmm0, -40(%rbp)
	movq	%rax, -32(%rbp)
	jmp	LBB139_3
LBB139_1:
	.loc	20 712 13
	movq	-16(%rbp), %rdi
	callq	__Unwind_Resume
LBB139_2:
Ltmp856:
	.loc	20 0 13 is_stmt 0
	movq	%rax, %rcx
	movl	%edx, %eax
	movq	%rcx, -16(%rbp)
	movl	%eax, -8(%rbp)
	jmp	LBB139_1
LBB139_3:
	movsd	-40(%rbp), %xmm0
	movq	-32(%rbp), %rax
	.loc	20 716 14 is_stmt 1
	addq	$48, %rsp
	popq	%rbp
	retq
Ltmp858:
Lfunc_end139:
	.cfi_endproc
	.section	__TEXT,__gcc_except_tab
	.p2align	2
GCC_except_table139:
Lexception30:
	.byte	255
	.byte	255
	.byte	1
	.uleb128 Lcst_end30-Lcst_begin30
Lcst_begin30:
	.uleb128 Ltmp854-Lfunc_begin139
	.uleb128 Ltmp855-Ltmp854
	.uleb128 Ltmp856-Lfunc_begin139
	.byte	0
	.uleb128 Ltmp855-Lfunc_begin139
	.uleb128 Lfunc_end139-Ltmp855
	.byte	0
	.byte	0
Lcst_end30:
	.p2align	2

	.section	__TEXT,__text,regular,pure_instructions
	.globl	__ZN49_$LT$f64$u20$as$u20$num_traits..cast..NumCast$GT$4from17h27a5d3d2cdbc956bE
	.p2align	4, 0x90
__ZN49_$LT$f64$u20$as$u20$num_traits..cast..NumCast$GT$4from17h27a5d3d2cdbc956bE:
Lfunc_begin140:
	.loc	20 712 0
	.cfi_startproc
	.cfi_personality 155, _rust_eh_personality
	.cfi_lsda 16, Lexception31
	pushq	%rbp
	.cfi_def_cfa_offset 16
	.cfi_offset %rbp, -16
	movq	%rsp, %rbp
	.cfi_def_cfa_register %rbp
	subq	$48, %rsp
	movb	%dil, %al
	movb	%al, -17(%rbp)
Ltmp859:
	leaq	-17(%rbp), %rdi
Ltmp862:
	.loc	20 715 17 prologue_end
	callq	__ZN52_$LT$u8$u20$as$u20$num_traits..cast..ToPrimitive$GT$6to_f6417h730fc64b8d690c6aE
Ltmp860:
	movsd	%xmm0, -40(%rbp)
	movq	%rax, -32(%rbp)
	jmp	LBB140_3
LBB140_1:
	.loc	20 712 13
	movq	-16(%rbp), %rdi
	callq	__Unwind_Resume
LBB140_2:
Ltmp861:
	.loc	20 0 13 is_stmt 0
	movq	%rax, %rcx
	movl	%edx, %eax
	movq	%rcx, -16(%rbp)
	movl	%eax, -8(%rbp)
	jmp	LBB140_1
LBB140_3:
	movsd	-40(%rbp), %xmm0
	movq	-32(%rbp), %rax
	.loc	20 716 14 is_stmt 1
	addq	$48, %rsp
	popq	%rbp
	retq
Ltmp863:
Lfunc_end140:
	.cfi_endproc
	.section	__TEXT,__gcc_except_tab
	.p2align	2
GCC_except_table140:
Lexception31:
	.byte	255
	.byte	255
	.byte	1
	.uleb128 Lcst_end31-Lcst_begin31
Lcst_begin31:
	.uleb128 Ltmp859-Lfunc_begin140
	.uleb128 Ltmp860-Ltmp859
	.uleb128 Ltmp861-Lfunc_begin140
	.byte	0
	.uleb128 Ltmp860-Lfunc_begin140
	.uleb128 Lfunc_end140-Ltmp860
	.byte	0
	.byte	0
Lcst_end31:
	.p2align	2

	.section	__TEXT,__text,regular,pure_instructions
	.globl	__ZN49_$LT$f64$u20$as$u20$num_traits..cast..NumCast$GT$4from17h5dcbdcdbbf16c06dE
	.p2align	4, 0x90
__ZN49_$LT$f64$u20$as$u20$num_traits..cast..NumCast$GT$4from17h5dcbdcdbbf16c06dE:
Lfunc_begin141:
	.loc	20 712 0
	.cfi_startproc
	.cfi_personality 155, _rust_eh_personality
	.cfi_lsda 16, Lexception32
	pushq	%rbp
	.cfi_def_cfa_offset 16
	.cfi_offset %rbp, -16
	movq	%rsp, %rbp
	.cfi_def_cfa_register %rbp
	subq	$48, %rsp
	movw	%di, %ax
	movw	%ax, -18(%rbp)
Ltmp864:
	leaq	-18(%rbp), %rdi
Ltmp867:
	.loc	20 715 17 prologue_end
	callq	__ZN53_$LT$u16$u20$as$u20$num_traits..cast..ToPrimitive$GT$6to_f6417h31b13901a2c4f3a7E
Ltmp865:
	movsd	%xmm0, -40(%rbp)
	movq	%rax, -32(%rbp)
	jmp	LBB141_3
LBB141_1:
	.loc	20 712 13
	movq	-16(%rbp), %rdi
	callq	__Unwind_Resume
LBB141_2:
Ltmp866:
	.loc	20 0 13 is_stmt 0
	movq	%rax, %rcx
	movl	%edx, %eax
	movq	%rcx, -16(%rbp)
	movl	%eax, -8(%rbp)
	jmp	LBB141_1
LBB141_3:
	movsd	-40(%rbp), %xmm0
	movq	-32(%rbp), %rax
	.loc	20 716 14 is_stmt 1
	addq	$48, %rsp
	popq	%rbp
	retq
Ltmp868:
Lfunc_end141:
	.cfi_endproc
	.section	__TEXT,__gcc_except_tab
	.p2align	2
GCC_except_table141:
Lexception32:
	.byte	255
	.byte	255
	.byte	1
	.uleb128 Lcst_end32-Lcst_begin32
Lcst_begin32:
	.uleb128 Ltmp864-Lfunc_begin141
	.uleb128 Ltmp865-Ltmp864
	.uleb128 Ltmp866-Lfunc_begin141
	.byte	0
	.uleb128 Ltmp865-Lfunc_begin141
	.uleb128 Lfunc_end141-Ltmp865
	.byte	0
	.byte	0
Lcst_end32:
	.p2align	2

	.section	__TEXT,__text,regular,pure_instructions
	.globl	__ZN49_$LT$f64$u20$as$u20$num_traits..cast..NumCast$GT$4from17h6df8b20aeef0e9eeE
	.p2align	4, 0x90
__ZN49_$LT$f64$u20$as$u20$num_traits..cast..NumCast$GT$4from17h6df8b20aeef0e9eeE:
Lfunc_begin142:
	.loc	20 712 0
	.cfi_startproc
	.cfi_personality 155, _rust_eh_personality
	.cfi_lsda 16, Lexception33
	pushq	%rbp
	.cfi_def_cfa_offset 16
	.cfi_offset %rbp, -16
	movq	%rsp, %rbp
	.cfi_def_cfa_register %rbp
	subq	$48, %rsp
	movb	%dil, %al
	movb	%al, -17(%rbp)
Ltmp869:
	leaq	-17(%rbp), %rdi
Ltmp872:
	.loc	20 715 17 prologue_end
	callq	__ZN52_$LT$i8$u20$as$u20$num_traits..cast..ToPrimitive$GT$6to_f6417h6567cb58f5e6eacaE
Ltmp870:
	movsd	%xmm0, -40(%rbp)
	movq	%rax, -32(%rbp)
	jmp	LBB142_3
LBB142_1:
	.loc	20 712 13
	movq	-16(%rbp), %rdi
	callq	__Unwind_Resume
LBB142_2:
Ltmp871:
	.loc	20 0 13 is_stmt 0
	movq	%rax, %rcx
	movl	%edx, %eax
	movq	%rcx, -16(%rbp)
	movl	%eax, -8(%rbp)
	jmp	LBB142_1
LBB142_3:
	movsd	-40(%rbp), %xmm0
	movq	-32(%rbp), %rax
	.loc	20 716 14 is_stmt 1
	addq	$48, %rsp
	popq	%rbp
	retq
Ltmp873:
Lfunc_end142:
	.cfi_endproc
	.section	__TEXT,__gcc_except_tab
	.p2align	2
GCC_except_table142:
Lexception33:
	.byte	255
	.byte	255
	.byte	1
	.uleb128 Lcst_end33-Lcst_begin33
Lcst_begin33:
	.uleb128 Ltmp869-Lfunc_begin142
	.uleb128 Ltmp870-Ltmp869
	.uleb128 Ltmp871-Lfunc_begin142
	.byte	0
	.uleb128 Ltmp870-Lfunc_begin142
	.uleb128 Lfunc_end142-Ltmp870
	.byte	0
	.byte	0
Lcst_end33:
	.p2align	2

	.section	__TEXT,__text,regular,pure_instructions
	.globl	__ZN49_$LT$f64$u20$as$u20$num_traits..cast..NumCast$GT$4from17h71d80e346a2a45dfE
	.p2align	4, 0x90
__ZN49_$LT$f64$u20$as$u20$num_traits..cast..NumCast$GT$4from17h71d80e346a2a45dfE:
Lfunc_begin143:
	.loc	20 712 0
	.cfi_startproc
	.cfi_personality 155, _rust_eh_personality
	.cfi_lsda 16, Lexception34
	pushq	%rbp
	.cfi_def_cfa_offset 16
	.cfi_offset %rbp, -16
	movq	%rsp, %rbp
	.cfi_def_cfa_register %rbp
	subq	$48, %rsp
	movq	%rdi, -24(%rbp)
Ltmp874:
	leaq	-24(%rbp), %rdi
Ltmp877:
	.loc	20 715 17 prologue_end
	callq	__ZN55_$LT$usize$u20$as$u20$num_traits..cast..ToPrimitive$GT$6to_f6417hde08d9570b13b782E
Ltmp875:
	movsd	%xmm0, -40(%rbp)
	movq	%rax, -32(%rbp)
	jmp	LBB143_3
LBB143_1:
	.loc	20 712 13
	movq	-16(%rbp), %rdi
	callq	__Unwind_Resume
LBB143_2:
Ltmp876:
	.loc	20 0 13 is_stmt 0
	movq	%rax, %rcx
	movl	%edx, %eax
	movq	%rcx, -16(%rbp)
	movl	%eax, -8(%rbp)
	jmp	LBB143_1
LBB143_3:
	movsd	-40(%rbp), %xmm0
	movq	-32(%rbp), %rax
	.loc	20 716 14 is_stmt 1
	addq	$48, %rsp
	popq	%rbp
	retq
Ltmp878:
Lfunc_end143:
	.cfi_endproc
	.section	__TEXT,__gcc_except_tab
	.p2align	2
GCC_except_table143:
Lexception34:
	.byte	255
	.byte	255
	.byte	1
	.uleb128 Lcst_end34-Lcst_begin34
Lcst_begin34:
	.uleb128 Ltmp874-Lfunc_begin143
	.uleb128 Ltmp875-Ltmp874
	.uleb128 Ltmp876-Lfunc_begin143
	.byte	0
	.uleb128 Ltmp875-Lfunc_begin143
	.uleb128 Lfunc_end143-Ltmp875
	.byte	0
	.byte	0
Lcst_end34:
	.p2align	2

	.section	__TEXT,__text,regular,pure_instructions
	.globl	__ZN49_$LT$f64$u20$as$u20$num_traits..cast..NumCast$GT$4from17h79c7243ae6aadb23E
	.p2align	4, 0x90
__ZN49_$LT$f64$u20$as$u20$num_traits..cast..NumCast$GT$4from17h79c7243ae6aadb23E:
Lfunc_begin144:
	.loc	20 712 0
	.cfi_startproc
	.cfi_personality 155, _rust_eh_personality
	.cfi_lsda 16, Lexception35
	pushq	%rbp
	.cfi_def_cfa_offset 16
	.cfi_offset %rbp, -16
	movq	%rsp, %rbp
	.cfi_def_cfa_register %rbp
	subq	$48, %rsp
	movq	%rdi, -24(%rbp)
Ltmp879:
	leaq	-24(%rbp), %rdi
Ltmp882:
	.loc	20 715 17 prologue_end
	callq	__ZN53_$LT$i64$u20$as$u20$num_traits..cast..ToPrimitive$GT$6to_f6417h12e5ba4145abe706E
Ltmp880:
	movsd	%xmm0, -40(%rbp)
	movq	%rax, -32(%rbp)
	jmp	LBB144_3
LBB144_1:
	.loc	20 712 13
	movq	-16(%rbp), %rdi
	callq	__Unwind_Resume
LBB144_2:
Ltmp881:
	.loc	20 0 13 is_stmt 0
	movq	%rax, %rcx
	movl	%edx, %eax
	movq	%rcx, -16(%rbp)
	movl	%eax, -8(%rbp)
	jmp	LBB144_1
LBB144_3:
	movsd	-40(%rbp), %xmm0
	movq	-32(%rbp), %rax
	.loc	20 716 14 is_stmt 1
	addq	$48, %rsp
	popq	%rbp
	retq
Ltmp883:
Lfunc_end144:
	.cfi_endproc
	.section	__TEXT,__gcc_except_tab
	.p2align	2
GCC_except_table144:
Lexception35:
	.byte	255
	.byte	255
	.byte	1
	.uleb128 Lcst_end35-Lcst_begin35
Lcst_begin35:
	.uleb128 Ltmp879-Lfunc_begin144
	.uleb128 Ltmp880-Ltmp879
	.uleb128 Ltmp881-Lfunc_begin144
	.byte	0
	.uleb128 Ltmp880-Lfunc_begin144
	.uleb128 Lfunc_end144-Ltmp880
	.byte	0
	.byte	0
Lcst_end35:
	.p2align	2

	.section	__TEXT,__text,regular,pure_instructions
	.globl	__ZN49_$LT$f64$u20$as$u20$num_traits..cast..NumCast$GT$4from17hc7951160ab667c4fE
	.p2align	4, 0x90
__ZN49_$LT$f64$u20$as$u20$num_traits..cast..NumCast$GT$4from17hc7951160ab667c4fE:
Lfunc_begin145:
	.loc	20 712 0
	.cfi_startproc
	.cfi_personality 155, _rust_eh_personality
	.cfi_lsda 16, Lexception36
	pushq	%rbp
	.cfi_def_cfa_offset 16
	.cfi_offset %rbp, -16
	movq	%rsp, %rbp
	.cfi_def_cfa_register %rbp
	subq	$48, %rsp
	movq	%rdi, -32(%rbp)
	movq	%rsi, -24(%rbp)
Ltmp884:
	leaq	-32(%rbp), %rdi
Ltmp887:
	.loc	20 715 17 prologue_end
	callq	__ZN54_$LT$u128$u20$as$u20$num_traits..cast..ToPrimitive$GT$6to_f6417h936b47f0a0629257E
Ltmp885:
	movsd	%xmm0, -48(%rbp)
	movq	%rax, -40(%rbp)
	jmp	LBB145_3
LBB145_1:
	.loc	20 712 13
	movq	-16(%rbp), %rdi
	callq	__Unwind_Resume
LBB145_2:
Ltmp886:
	.loc	20 0 13 is_stmt 0
	movq	%rax, %rcx
	movl	%edx, %eax
	movq	%rcx, -16(%rbp)
	movl	%eax, -8(%rbp)
	jmp	LBB145_1
LBB145_3:
	movsd	-48(%rbp), %xmm0
	movq	-40(%rbp), %rax
	.loc	20 716 14 is_stmt 1
	addq	$48, %rsp
	popq	%rbp
	retq
Ltmp888:
Lfunc_end145:
	.cfi_endproc
	.section	__TEXT,__gcc_except_tab
	.p2align	2
GCC_except_table145:
Lexception36:
	.byte	255
	.byte	255
	.byte	1
	.uleb128 Lcst_end36-Lcst_begin36
Lcst_begin36:
	.uleb128 Ltmp884-Lfunc_begin145
	.uleb128 Ltmp885-Ltmp884
	.uleb128 Ltmp886-Lfunc_begin145
	.byte	0
	.uleb128 Ltmp885-Lfunc_begin145
	.uleb128 Lfunc_end145-Ltmp885
	.byte	0
	.byte	0
Lcst_end36:
	.p2align	2

	.section	__TEXT,__text,regular,pure_instructions
	.globl	__ZN49_$LT$f64$u20$as$u20$num_traits..cast..NumCast$GT$4from17hc9e85e14c749c592E
	.p2align	4, 0x90
__ZN49_$LT$f64$u20$as$u20$num_traits..cast..NumCast$GT$4from17hc9e85e14c749c592E:
Lfunc_begin146:
	.loc	20 712 0
	.cfi_startproc
	.cfi_personality 155, _rust_eh_personality
	.cfi_lsda 16, Lexception37
	pushq	%rbp
	.cfi_def_cfa_offset 16
	.cfi_offset %rbp, -16
	movq	%rsp, %rbp
	.cfi_def_cfa_register %rbp
	subq	$48, %rsp
	movq	%rdi, -24(%rbp)
Ltmp889:
	leaq	-24(%rbp), %rdi
Ltmp892:
	.loc	20 715 17 prologue_end
	callq	__ZN55_$LT$isize$u20$as$u20$num_traits..cast..ToPrimitive$GT$6to_f6417h267f58b70af174c7E
Ltmp890:
	movsd	%xmm0, -40(%rbp)
	movq	%rax, -32(%rbp)
	jmp	LBB146_3
LBB146_1:
	.loc	20 712 13
	movq	-16(%rbp), %rdi
	callq	__Unwind_Resume
LBB146_2:
Ltmp891:
	.loc	20 0 13 is_stmt 0
	movq	%rax, %rcx
	movl	%edx, %eax
	movq	%rcx, -16(%rbp)
	movl	%eax, -8(%rbp)
	jmp	LBB146_1
LBB146_3:
	movsd	-40(%rbp), %xmm0
	movq	-32(%rbp), %rax
	.loc	20 716 14 is_stmt 1
	addq	$48, %rsp
	popq	%rbp
	retq
Ltmp893:
Lfunc_end146:
	.cfi_endproc
	.section	__TEXT,__gcc_except_tab
	.p2align	2
GCC_except_table146:
Lexception37:
	.byte	255
	.byte	255
	.byte	1
	.uleb128 Lcst_end37-Lcst_begin37
Lcst_begin37:
	.uleb128 Ltmp889-Lfunc_begin146
	.uleb128 Ltmp890-Ltmp889
	.uleb128 Ltmp891-Lfunc_begin146
	.byte	0
	.uleb128 Ltmp890-Lfunc_begin146
	.uleb128 Lfunc_end146-Ltmp890
	.byte	0
	.byte	0
Lcst_end37:
	.p2align	2

	.section	__TEXT,__text,regular,pure_instructions
