	.section	__TEXT,__text,regular,pure_instructions
	.macosx_version_min 10, 7
	.p2align	4, 0x90
__ZN4core3ffi5c_str4CStr6as_ptr17h73ef54b34cd85646E:
Lfunc_begin0:
	.file	1 "/rustc/2c8cc343237b8f7d5a3c3703e3a87f2eb2c54a74/library/core/src/ffi" "c_str.rs"
	.loc	1 502 0
	.cfi_startproc
	pushq	%rbp
	.cfi_def_cfa_offset 16
	.cfi_offset %rbp, -16
	movq	%rsp, %rbp
	.cfi_def_cfa_register %rbp
	subq	$32, %rsp
	movq	%rdi, %rax
	movq	%rax, -32(%rbp)
	movq	%rsi, -24(%rbp)
Ltmp0:
	.loc	1 503 9 prologue_end
	movq	%rax, -16(%rbp)
	movq	%rsi, -8(%rbp)
	.loc	1 504 6
	addq	$32, %rsp
	popq	%rbp
	retq
Ltmp1:
Lfunc_end0:
	.cfi_endproc

	.globl	__ZN4core3mem11size_of_val17h3dddb4c8dbbb0bacE
	.p2align	4, 0x90
__ZN4core3mem11size_of_val17h3dddb4c8dbbb0bacE:
Lfunc_begin1:
	.file	2 "/rustc/2c8cc343237b8f7d5a3c3703e3a87f2eb2c54a74/library/core/src/mem" "mod.rs"
	.loc	2 336 0
	.cfi_startproc
	pushq	%rbp
	.cfi_def_cfa_offset 16
	.cfi_offset %rbp, -16
	movq	%rsp, %rbp
	.cfi_def_cfa_register %rbp
	subq	$16, %rsp
	movq	%rdi, -16(%rbp)
Ltmp2:
	.loc	2 338 14 prologue_end
	movq	$4, -8(%rbp)
	movq	-8(%rbp), %rax
	.loc	2 339 2
	addq	$16, %rsp
	popq	%rbp
	retq
Ltmp3:
Lfunc_end1:
	.cfi_endproc

	.p2align	4, 0x90
__ZN4core3ptr60drop_in_place$LT$core..ffi..c_str..FromBytesWithNulError$GT$17hb335e9ecd166b8feE:
Lfunc_begin2:
	.file	3 "/rustc/2c8cc343237b8f7d5a3c3703e3a87f2eb2c54a74/library/core/src/ptr" "mod.rs"
	.loc	3 490 0
	.cfi_startproc
	pushq	%rbp
	.cfi_def_cfa_offset 16
	.cfi_offset %rbp, -16
	movq	%rsp, %rbp
	.cfi_def_cfa_register %rbp
	pushq	%rax
	movq	%rdi, -8(%rbp)
Ltmp4:
	.loc	3 490 1 prologue_end
	addq	$8, %rsp
	popq	%rbp
	retq
Ltmp5:
Lfunc_end2:
	.cfi_endproc

	.globl	__ZN4core6result19Result$LT$T$C$E$GT$6expect17h537cd8507cbfdcc4E
	.p2align	4, 0x90
__ZN4core6result19Result$LT$T$C$E$GT$6expect17h537cd8507cbfdcc4E:
Lfunc_begin3:
	.file	4 "/rustc/2c8cc343237b8f7d5a3c3703e3a87f2eb2c54a74/library/core/src" "result.rs"
	.loc	4 1063 0
	.cfi_startproc
	.cfi_personality 155, _rust_eh_personality
	.cfi_lsda 16, Lexception0
	pushq	%rbp
	.cfi_def_cfa_offset 16
	.cfi_offset %rbp, -16
	movq	%rsp, %rbp
	.cfi_def_cfa_register %rbp
	subq	$96, %rsp
	movq	%rdi, -96(%rbp)
Ltmp9:
	movq	%rsi, -88(%rbp)
	movq	%rdx, -80(%rbp)
	movq	%rcx, -72(%rbp)
Ltmp10:
	movq	%rsi, -48(%rbp)
	movq	%rdx, -40(%rbp)
Ltmp11:
	.loc	4 1067 9 prologue_end
	cmpq	$0, (%rdi)
Ltmp12:
	jne	LBB3_2
Ltmp13:
	.loc	4 0 9 is_stmt 0
	movq	-96(%rbp), %rcx
	.loc	4 1068 16 is_stmt 1
	movq	8(%rcx), %rax
	movq	16(%rcx), %rdx
	movq	%rax, -16(%rbp)
	movq	%rdx, -8(%rbp)
	.loc	4 1071 6
	addq	$96, %rsp
	popq	%rbp
	retq
Ltmp14:
LBB3_2:
	.loc	4 0 6 is_stmt 0
	movq	-72(%rbp), %r8
	movq	-80(%rbp), %rsi
	movq	-88(%rbp), %rdi
	movq	-96(%rbp), %rax
	.loc	4 1069 17 is_stmt 1
	movq	8(%rax), %rcx
	movq	16(%rax), %rax
	movq	%rcx, -64(%rbp)
	movq	%rax, -56(%rbp)
Ltmp6:
Ltmp15:
	.loc	4 1069 23 is_stmt 0
	leaq	l___unnamed_1(%rip), %rcx
	leaq	-64(%rbp), %rdx
	callq	__ZN4core6result13unwrap_failed17h533573e6d3b6061cE
Ltmp7:
	jmp	LBB3_5
Ltmp16:
LBB3_3:
	.loc	4 1063 5 is_stmt 1
	movq	-32(%rbp), %rdi
	callq	__Unwind_Resume
Ltmp17:
LBB3_4:
Ltmp8:
	.loc	4 0 5 is_stmt 0
	movq	%rax, %rcx
	movl	%edx, %eax
	movq	%rcx, -32(%rbp)
	movl	%eax, -24(%rbp)
	jmp	LBB3_3
Ltmp18:
LBB3_5:
	ud2
Lfunc_end3:
	.cfi_endproc
	.section	__TEXT,__gcc_except_tab
	.p2align	2
GCC_except_table3:
Lexception0:
	.byte	255
	.byte	255
	.byte	1
	.uleb128 Lcst_end0-Lcst_begin0
Lcst_begin0:
	.uleb128 Ltmp6-Lfunc_begin3
	.uleb128 Ltmp7-Ltmp6
	.uleb128 Ltmp8-Lfunc_begin3
	.byte	0
	.uleb128 Ltmp7-Lfunc_begin3
	.uleb128 Lfunc_end3-Ltmp7
	.byte	0
	.byte	0
Lcst_end0:
	.p2align	2

	.section	__TEXT,__text,regular,pure_instructions
	.globl	__ZN8num_cpus21get_num_physical_cpus17h77df79e7b839b280E
	.p2align	4, 0x90
__ZN8num_cpus21get_num_physical_cpus17h77df79e7b839b280E:
Lfunc_begin4:
	.file	5 "/Users/natalie/.cargo/registry/src/github.com-1ecc6299db9ec823/num_cpus-1.15.0" "src/lib.rs"
	.loc	5 308 0 is_stmt 1
	.cfi_startproc
	pushq	%rbp
	.cfi_def_cfa_offset 16
	.cfi_offset %rbp, -16
	movq	%rsp, %rbp
	.cfi_def_cfa_register %rbp
	subq	$96, %rsp
Ltmp19:
	.loc	5 312 25 prologue_end
	movl	$0, -84(%rbp)
Ltmp20:
	.loc	5 313 25
	leaq	-84(%rbp), %rdi
	callq	__ZN4core3mem11size_of_val17h3dddb4c8dbbb0bacE
	movq	%rax, -80(%rbp)
Ltmp21:
	.loc	5 315 23
	leaq	-72(%rbp), %rdi
	leaq	l___unnamed_2(%rip), %rsi
	movl	$15, %edx
	callq	__ZN4core3ffi5c_str4CStr19from_bytes_with_nul17h475f9edb2cc603a4E
	leaq	-72(%rbp), %rdi
	leaq	l___unnamed_3(%rip), %rsi
	movl	$27, %edx
	leaq	l___unnamed_4(%rip), %rcx
	callq	__ZN4core6result19Result$LT$T$C$E$GT$6expect17h537cd8507cbfdcc4E
	movq	%rax, %rdi
	movq	%rdx, %rsi
	movq	%rdi, -48(%rbp)
	movq	%rsi, -40(%rbp)
Ltmp22:
	.loc	5 319 36
	callq	__ZN4core3ffi5c_str4CStr6as_ptr17h73ef54b34cd85646E
	movq	%rax, %rdi
Ltmp23:
	.loc	3 599 14
	movq	$0, -16(%rbp)
	movq	-16(%rbp), %rax
	movq	%rax, -8(%rbp)
Ltmp24:
	.file	6 "/rustc/2c8cc343237b8f7d5a3c3703e3a87f2eb2c54a74/library/core/src/ptr" "metadata.rs"
	.loc	6 135 36
	movq	%rax, -24(%rbp)
	.loc	6 135 14 is_stmt 0
	movq	-24(%rbp), %rax
	movq	%rax, -32(%rbp)
	movq	-32(%rbp), %rcx
Ltmp25:
	.loc	5 319 17 is_stmt 1
	leaq	-84(%rbp), %rsi
	leaq	-80(%rbp), %rdx
	xorl	%eax, %eax
	movl	%eax, %r8d
	callq	_sysctlbyname
	.loc	5 319 12 is_stmt 0
	cmpl	$0, %eax
	jne	LBB4_2
	.loc	5 327 5 is_stmt 1
	movslq	-84(%rbp), %rax
	movq	%rax, -96(%rbp)
Ltmp26:
	.loc	5 328 2
	jmp	LBB4_3
LBB4_2:
Ltmp27:
	.loc	5 324 20
	callq	__ZN8num_cpus12get_num_cpus17h8452243ce7e53febE
	movq	%rax, -96(%rbp)
Ltmp28:
LBB4_3:
	.loc	5 328 2
	movq	-96(%rbp), %rax
	addq	$96, %rsp
	popq	%rbp
	retq
Ltmp29:
Lfunc_end4:
	.cfi_endproc

	.globl	__ZN8num_cpus12get_num_cpus17h8452243ce7e53febE
	.p2align	4, 0x90
__ZN8num_cpus12get_num_cpus17h8452243ce7e53febE:
Lfunc_begin5:
	.loc	5 339 0
	.cfi_startproc
	pushq	%rbp
	.cfi_def_cfa_offset 16
	.cfi_offset %rbp, -16
	movq	%rsp, %rbp
	.cfi_def_cfa_register %rbp
	subq	$32, %rsp
Ltmp30:
	.loc	5 347 25 prologue_end
	movl	$58, %edi
	callq	_sysconf
	movq	%rax, -24(%rbp)
	movq	%rax, -8(%rbp)
Ltmp31:
	.loc	5 348 8
	cmpq	$1, %rax
	jl	LBB5_2
	.loc	5 0 8 is_stmt 0
	movq	-24(%rbp), %rax
	.loc	5 351 9 is_stmt 1
	movq	%rax, -16(%rbp)
	.loc	5 348 5
	jmp	LBB5_3
LBB5_2:
	.loc	5 349 9
	movq	$1, -16(%rbp)
Ltmp32:
LBB5_3:
	.loc	5 353 2
	movq	-16(%rbp), %rax
	addq	$32, %rsp
	popq	%rbp
	retq
Ltmp33:
Lfunc_end5:
	.cfi_endproc

	.section	__DATA,__const
	.p2align	3
l___unnamed_1:
	.quad	__ZN4core3ptr60drop_in_place$LT$core..ffi..c_str..FromBytesWithNulError$GT$17hb335e9ecd166b8feE
	.asciz	"\020\000\000\000\000\000\000\000\b\000\000\000\000\000\000"
	.quad	__ZN76_$LT$core..ffi..c_str..FromBytesWithNulError$u20$as$u20$core..fmt..Debug$GT$3fmt17haa52f2f0baf461f8E

	.section	__TEXT,__const
l___unnamed_2:
	.asciz	"hw.physicalcpu"

l___unnamed_3:
	.ascii	"byte literal is missing NUL"

l___unnamed_5:
	.ascii	"/Users/natalie/.cargo/registry/src/github.com-1ecc6299db9ec823/num_cpus-1.15.0/src/lib.rs"

	.section	__DATA,__const
	.p2align	3
l___unnamed_4:
	.quad	l___unnamed_5
	.asciz	"Y\000\000\000\000\000\000\000<\001\000\000\n\000\000"

	.section	__DATA,__const
Lsec_end0:
	.section	__TEXT,__text,regular,pure_instructions
Lsec_end1: