	.section	__TEXT,__text,regular,pure_instructions
	.macosx_version_min 10, 7
	.globl	__ZN102_$LT$core..iter..adapters..zip..Zip$LT$A$C$B$GT$$u20$as$u20$core..iter..traits..iterator..Iterator$GT$4next17h997f066406df3edbE
	.p2align	4, 0x90
__ZN102_$LT$core..iter..adapters..zip..Zip$LT$A$C$B$GT$$u20$as$u20$core..iter..traits..iterator..Iterator$GT$4next17h997f066406df3edbE:
Lfunc_begin0:
	.file	1 "/rustc/2c8cc343237b8f7d5a3c3703e3a87f2eb2c54a74/library/core/src/iter/adapters" "zip.rs"
	.loc	1 83 0
	.cfi_startproc
	pushq	%rbp
	.cfi_def_cfa_offset 16
	.cfi_offset %rbp, -16
	movq	%rsp, %rbp
	.cfi_def_cfa_register %rbp
	subq	$16, %rsp
	movq	%rdi, -8(%rbp)
Ltmp0:
	.loc	1 84 9 prologue_end
	callq	__ZN111_$LT$core..iter..adapters..zip..Zip$LT$A$C$B$GT$$u20$as$u20$core..iter..adapters..zip..ZipImpl$LT$A$C$B$GT$$GT$4next17he294bcb19c4d7ecbE
	.loc	1 85 6
	addq	$16, %rsp
	popq	%rbp
	retq
Ltmp1:
Lfunc_end0:
	.cfi_endproc

	.globl	__ZN102_$LT$core..iter..adapters..zip..Zip$LT$A$C$B$GT$$u20$as$u20$core..iter..traits..iterator..Iterator$GT$4next17hbe0a90e2aa2227e0E
	.p2align	4, 0x90
__ZN102_$LT$core..iter..adapters..zip..Zip$LT$A$C$B$GT$$u20$as$u20$core..iter..traits..iterator..Iterator$GT$4next17hbe0a90e2aa2227e0E:
Lfunc_begin1:
	.loc	1 83 0
	.cfi_startproc
	pushq	%rbp
	.cfi_def_cfa_offset 16
	.cfi_offset %rbp, -16
	movq	%rsp, %rbp
	.cfi_def_cfa_register %rbp
	subq	$32, %rsp
	movq	%rdi, -16(%rbp)
Ltmp2:
	.loc	1 84 9 prologue_end
	callq	__ZN111_$LT$core..iter..adapters..zip..Zip$LT$A$C$B$GT$$u20$as$u20$core..iter..adapters..zip..ZipImpl$LT$A$C$B$GT$$GT$4next17h225e2980260d27b9E
	movw	%ax, %cx
	movw	%cx, -4(%rbp)
	shrl	$16, %eax
	movb	%al, -2(%rbp)
	movb	-2(%rbp), %al
	movb	%al, -22(%rbp)
	movw	-4(%rbp), %ax
	movw	%ax, -24(%rbp)
	.loc	1 85 6
	movzbl	-22(%rbp), %ecx
	shll	$16, %ecx
	movzwl	-24(%rbp), %eax
	orl	%ecx, %eax
	addq	$32, %rsp
	popq	%rbp
	retq
Ltmp3:
Lfunc_end1:
	.cfi_endproc

	.globl	__ZN104_$LT$core..iter..adapters..copied..Copied$LT$I$GT$$u20$as$u20$core..iter..traits..iterator..Iterator$GT$24__iterator_get_unchecked17h2d5ff3ab5e5bb02aE
	.p2align	4, 0x90
__ZN104_$LT$core..iter..adapters..copied..Copied$LT$I$GT$$u20$as$u20$core..iter..traits..iterator..Iterator$GT$24__iterator_get_unchecked17h2d5ff3ab5e5bb02aE:
Lfunc_begin2:
	.file	2 "/rustc/2c8cc343237b8f7d5a3c3703e3a87f2eb2c54a74/library/core/src/iter/adapters" "copied.rs"
	.loc	2 96 0
	.cfi_startproc
	pushq	%rbp
	.cfi_def_cfa_offset 16
	.cfi_offset %rbp, -16
	movq	%rsp, %rbp
	.cfi_def_cfa_register %rbp
	subq	$32, %rsp
	movq	%rdi, -32(%rbp)
	movq	%rsi, -24(%rbp)
Ltmp4:
	.loc	2 102 37 prologue_end
	movq	%rdi, -16(%rbp)
	.loc	2 102 51 is_stmt 0
	movq	%rsi, -8(%rbp)
Ltmp5:
	.loc	1 563 14 is_stmt 1
	callq	__ZN72_$LT$I$u20$as$u20$core..iter..adapters..zip..SpecTrustedRandomAccess$GT$17try_get_unchecked17ha4ffa9a281fe05f5E
Ltmp6:
	.loc	2 102 9
	movb	(%rax), %al
	.loc	2 103 6
	addq	$32, %rsp
	popq	%rbp
	retq
Ltmp7:
Lfunc_end2:
	.cfi_endproc

	.globl	__ZN104_$LT$core..iter..adapters..copied..Copied$LT$I$GT$$u20$as$u20$core..iter..traits..iterator..Iterator$GT$9size_hint17h6b0883bf887062c5E
	.p2align	4, 0x90
__ZN104_$LT$core..iter..adapters..copied..Copied$LT$I$GT$$u20$as$u20$core..iter..traits..iterator..Iterator$GT$9size_hint17h6b0883bf887062c5E:
Lfunc_begin3:
	.loc	2 59 0
	.cfi_startproc
	pushq	%rbp
	.cfi_def_cfa_offset 16
	.cfi_offset %rbp, -16
	movq	%rsp, %rbp
	.cfi_def_cfa_register %rbp
	subq	$16, %rsp
	movq	%rdi, %rax
	movq	%rax, -16(%rbp)
	movq	%rsi, -8(%rbp)
Ltmp8:
	.loc	2 60 9 prologue_end
	callq	__ZN91_$LT$core..slice..iter..Iter$LT$T$GT$$u20$as$u20$core..iter..traits..iterator..Iterator$GT$9size_hint17hb89d43f2ed9eb184E
	movq	-16(%rbp), %rax
	.loc	2 61 6
	addq	$16, %rsp
	popq	%rbp
	retq
Ltmp9:
Lfunc_end3:
	.cfi_endproc

	.globl	__ZN104_$LT$core..ops..control_flow..ControlFlow$LT$B$C$C$GT$$u20$as$u20$core..ops..try_trait..FromResidual$GT$13from_residual17h5c590c56547f21b7E
	.p2align	4, 0x90
__ZN104_$LT$core..ops..control_flow..ControlFlow$LT$B$C$C$GT$$u20$as$u20$core..ops..try_trait..FromResidual$GT$13from_residual17h5c590c56547f21b7E:
Lfunc_begin4:
	.file	3 "/rustc/2c8cc343237b8f7d5a3c3703e3a87f2eb2c54a74/library/core/src/ops" "control_flow.rs"
	.loc	3 123 0
	.cfi_startproc
	pushq	%rbp
	.cfi_def_cfa_offset 16
	.cfi_offset %rbp, -16
	movq	%rsp, %rbp
	.cfi_def_cfa_register %rbp
	subq	$24, %rsp
Ltmp10:
	.loc	3 125 38 prologue_end
	movb	$1, -17(%rbp)
Ltmp11:
	.loc	3 127 6
	movb	-17(%rbp), %al
	andb	$1, %al
	movzbl	%al, %eax
	addq	$24, %rsp
	popq	%rbp
	retq
Ltmp12:
Lfunc_end4:
	.cfi_endproc

	.globl	__ZN106_$LT$core..ops..range..Range$LT$usize$GT$$u20$as$u20$core..slice..index..SliceIndex$LT$$u5b$T$u5d$$GT$$GT$13get_unchecked17h174ff23f08677992E
	.p2align	4, 0x90
__ZN106_$LT$core..ops..range..Range$LT$usize$GT$$u20$as$u20$core..slice..index..SliceIndex$LT$$u5b$T$u5d$$GT$$GT$13get_unchecked17h174ff23f08677992E:
Lfunc_begin5:
	.file	4 "/rustc/2c8cc343237b8f7d5a3c3703e3a87f2eb2c54a74/library/core/src/slice" "index.rs"
	.loc	4 373 0
	.cfi_startproc
	pushq	%rbp
	.cfi_def_cfa_offset 16
	.cfi_offset %rbp, -16
	movq	%rsp, %rbp
	.cfi_def_cfa_register %rbp
	subq	$160, %rsp
	movq	%rdi, -128(%rbp)
	movq	%rsi, -120(%rbp)
	movq	%rdx, -112(%rbp)
	movq	%rcx, -104(%rbp)
Ltmp13:
	.loc	4 386 39 prologue_end
	movq	%rdx, -96(%rbp)
	movq	%rcx, -88(%rbp)
Ltmp14:
	.file	5 "/rustc/2c8cc343237b8f7d5a3c3703e3a87f2eb2c54a74/library/core/src/ptr" "const_ptr.rs"
	.loc	5 1650 9
	movq	%rdx, -80(%rbp)
Ltmp15:
	.loc	4 386 58
	movq	%rdi, -72(%rbp)
Ltmp16:
	.loc	5 932 18
	movq	%rdx, -64(%rbp)
	.loc	5 932 30 is_stmt 0
	movq	%rdi, -56(%rbp)
Ltmp17:
	.loc	5 473 18 is_stmt 1
	addq	%rdi, %rdx
	movq	%rdx, -48(%rbp)
	movq	-48(%rbp), %rax
	movq	%rax, -40(%rbp)
Ltmp18:
	.loc	4 386 71
	subq	%rdi, %rsi
	movq	%rsi, -32(%rbp)
Ltmp19:
	.file	6 "/rustc/2c8cc343237b8f7d5a3c3703e3a87f2eb2c54a74/library/core/src/ptr" "mod.rs"
	.loc	6 734 20
	movq	%rax, -24(%rbp)
Ltmp20:
	.loc	5 61 9
	movq	%rax, -16(%rbp)
Ltmp21:
	.loc	6 734 33
	movq	%rsi, -8(%rbp)
Ltmp22:
	.file	7 "/rustc/2c8cc343237b8f7d5a3c3703e3a87f2eb2c54a74/library/core/src/ptr" "metadata.rs"
	.loc	7 118 36
	movq	%rax, -144(%rbp)
	movq	%rsi, -136(%rbp)
	.loc	7 118 14 is_stmt 0
	movq	-144(%rbp), %rcx
	movq	-136(%rbp), %rax
	movq	%rcx, -160(%rbp)
	movq	%rax, -152(%rbp)
	movq	-160(%rbp), %rax
	movq	-152(%rbp), %rdx
Ltmp23:
	.loc	4 388 6 is_stmt 1
	addq	$160, %rsp
	popq	%rbp
	retq
Ltmp24:
Lfunc_end5:
	.cfi_endproc

	.globl	__ZN110_$LT$core..iter..adapters..enumerate..Enumerate$LT$I$GT$$u20$as$u20$core..iter..traits..iterator..Iterator$GT$4next17hde88647da783e42cE
	.p2align	4, 0x90
__ZN110_$LT$core..iter..adapters..enumerate..Enumerate$LT$I$GT$$u20$as$u20$core..iter..traits..iterator..Iterator$GT$4next17hde88647da783e42cE:
Lfunc_begin6:
	.file	8 "/rustc/2c8cc343237b8f7d5a3c3703e3a87f2eb2c54a74/library/core/src/iter/adapters" "enumerate.rs"
	.loc	8 45 0
	.cfi_startproc
	.cfi_personality 155, _rust_eh_personality
	.cfi_lsda 16, Lexception0
	pushq	%rbp
	.cfi_def_cfa_offset 16
	.cfi_offset %rbp, -16
	movq	%rsp, %rbp
	.cfi_def_cfa_register %rbp
	subq	$128, %rsp
	movq	%rdi, -104(%rbp)
	movq	%rdi, -56(%rbp)
Ltmp28:
	.loc	8 46 17 prologue_end
	callq	__ZN81_$LT$core..str..iter..Chars$u20$as$u20$core..iter..traits..iterator..Iterator$GT$4next17h5049fbdaa12d9b42E
	movl	%eax, -76(%rbp)
Ltmp29:
	.file	9 "/rustc/2c8cc343237b8f7d5a3c3703e3a87f2eb2c54a74/library/core/src" "option.rs"
	.loc	9 2407 15
	movl	$1, %eax
	xorl	%ecx, %ecx
	cmpl	$1114112, -76(%rbp)
	cmoveq	%rcx, %rax
	.loc	9 2407 9 is_stmt 0
	cmpq	$0, %rax
	jne	LBB6_2
	.loc	9 2409 21 is_stmt 1
	movl	$1114112, -80(%rbp)
	.loc	9 2409 44 is_stmt 0
	jmp	LBB6_3
LBB6_2:
	.loc	9 2408 18 is_stmt 1
	movl	-76(%rbp), %eax
	movl	%eax, -36(%rbp)
Ltmp30:
	.loc	9 2408 24 is_stmt 0
	movl	%eax, -80(%rbp)
Ltmp31:
LBB6_3:
	.loc	8 46 17 is_stmt 1
	xorl	%eax, %eax
	movl	$1, %ecx
	cmpl	$1114112, -80(%rbp)
	cmoveq	%rcx, %rax
	cmpq	$0, %rax
	jne	LBB6_5
	.loc	8 0 17 is_stmt 0
	movq	-104(%rbp), %rax
	.loc	8 46 17
	movl	-80(%rbp), %ecx
	movl	%ecx, -124(%rbp)
	movl	%ecx, -32(%rbp)
Ltmp32:
	.loc	8 46 17
	movl	%ecx, -28(%rbp)
Ltmp33:
	.loc	8 47 17 is_stmt 1
	movq	16(%rax), %rcx
	movq	%rcx, -120(%rbp)
	movq	%rcx, -24(%rbp)
Ltmp34:
	.loc	8 48 9
	movq	16(%rax), %rax
	addq	$1, %rax
	movq	%rax, -112(%rbp)
	setb	%al
	testb	$1, %al
	jne	LBB6_8
	jmp	LBB6_7
Ltmp35:
LBB6_5:
	.loc	9 2420 21
	movl	$1114112, -88(%rbp)
Ltmp36:
LBB6_6:
	.loc	8 50 6
	movq	-96(%rbp), %rax
	movl	-88(%rbp), %edx
	addq	$128, %rsp
	popq	%rbp
	retq
LBB6_7:
	.loc	8 0 6 is_stmt 0
	movl	-124(%rbp), %eax
	movq	-120(%rbp), %rcx
	movq	-104(%rbp), %rdx
	movq	-112(%rbp), %rsi
Ltmp37:
	.loc	8 48 9 is_stmt 1
	movq	%rsi, 16(%rdx)
	.loc	8 49 14
	movq	%rcx, -72(%rbp)
	movl	%eax, -64(%rbp)
	.loc	8 49 9 is_stmt 0
	movq	-72(%rbp), %rcx
	movl	-64(%rbp), %eax
	movq	%rcx, -96(%rbp)
	movl	%eax, -88(%rbp)
Ltmp38:
	.loc	8 50 6 is_stmt 1
	jmp	LBB6_6
LBB6_8:
Ltmp25:
Ltmp39:
	.loc	8 48 9
	leaq	_str.0(%rip), %rdi
	leaq	l___unnamed_2(%rip), %rdx
	movl	$28, %esi
	callq	__ZN4core9panicking5panic17hc1bc45270cf64b03E
Ltmp26:
	jmp	LBB6_11
Ltmp40:
LBB6_9:
	.loc	8 45 5
	movq	-16(%rbp), %rdi
	callq	__Unwind_Resume
Ltmp41:
LBB6_10:
Ltmp27:
	.loc	8 0 5 is_stmt 0
	movq	%rax, %rcx
	movl	%edx, %eax
	movq	%rcx, -16(%rbp)
	movl	%eax, -8(%rbp)
	jmp	LBB6_9
LBB6_11:
	ud2
Lfunc_end6:
	.cfi_endproc
	.section	__TEXT,__gcc_except_tab
	.p2align	2
GCC_except_table6:
Lexception0:
	.byte	255
	.byte	255
	.byte	1
	.uleb128 Lcst_end0-Lcst_begin0
Lcst_begin0:
	.uleb128 Lfunc_begin6-Lfunc_begin6
	.uleb128 Ltmp25-Lfunc_begin6
	.byte	0
	.byte	0
	.uleb128 Ltmp25-Lfunc_begin6
	.uleb128 Ltmp26-Ltmp25
	.uleb128 Ltmp27-Lfunc_begin6
	.byte	0
	.uleb128 Ltmp26-Lfunc_begin6
	.uleb128 Lfunc_end6-Ltmp26
	.byte	0
	.byte	0
Lcst_end0:
	.p2align	2

	.section	__TEXT,__text,regular,pure_instructions
	.globl	__ZN110_$LT$core..ops..range..RangeFrom$LT$usize$GT$$u20$as$u20$core..slice..index..SliceIndex$LT$$u5b$T$u5d$$GT$$GT$5index17h6f78132fbc44ccb6E
	.p2align	4, 0x90
__ZN110_$LT$core..ops..range..RangeFrom$LT$usize$GT$$u20$as$u20$core..slice..index..SliceIndex$LT$$u5b$T$u5d$$GT$$GT$5index17h6f78132fbc44ccb6E:
Lfunc_begin7:
	.loc	4 493 0 is_stmt 1
	.cfi_startproc
	pushq	%rbp
	.cfi_def_cfa_offset 16
	.cfi_offset %rbp, -16
	movq	%rsp, %rbp
	.cfi_def_cfa_register %rbp
	subq	$144, %rsp
	movq	%rdi, -144(%rbp)
	movq	%rsi, -136(%rbp)
	movq	%rdx, -128(%rbp)
	movq	%rcx, -120(%rbp)
	movq	%rdi, -80(%rbp)
	movq	%rsi, -72(%rbp)
	movq	%rdx, -64(%rbp)
Ltmp42:
	.loc	4 494 12 prologue_end
	cmpq	%rdx, %rdi
	ja	LBB7_2
	.loc	4 0 12 is_stmt 0
	movq	-128(%rbp), %rcx
	movq	-136(%rbp), %rdx
	movq	-144(%rbp), %rsi
	.loc	4 498 20 is_stmt 1
	movq	%rsi, -56(%rbp)
	.loc	4 498 39 is_stmt 0
	movq	%rdx, -48(%rbp)
	movq	%rcx, -40(%rbp)
Ltmp43:
	.loc	4 483 31 is_stmt 1
	movq	%rdx, -32(%rbp)
	movq	%rcx, -24(%rbp)
Ltmp44:
	.loc	5 1630 18
	movq	%rdx, -16(%rbp)
	movq	%rcx, -8(%rbp)
Ltmp45:
	.loc	7 98 14
	movq	%rdx, -96(%rbp)
	movq	%rcx, -88(%rbp)
	movq	-88(%rbp), %rax
Ltmp46:
	.loc	4 483 18
	movq	%rsi, -112(%rbp)
	movq	%rax, -104(%rbp)
	movq	-112(%rbp), %rdi
	movq	-104(%rbp), %rsi
	callq	__ZN106_$LT$core..ops..range..Range$LT$usize$GT$$u20$as$u20$core..slice..index..SliceIndex$LT$$u5b$T$u5d$$GT$$GT$13get_unchecked17h174ff23f08677992E
Ltmp47:
	.loc	4 499 6
	addq	$144, %rsp
	popq	%rbp
	retq
LBB7_2:
	.loc	4 0 6 is_stmt 0
	movq	-120(%rbp), %rdx
	movq	-128(%rbp), %rsi
	movq	-144(%rbp), %rdi
	.loc	4 495 13 is_stmt 1
	callq	__ZN4core5slice5index26slice_start_index_len_fail17h9d301bb51ec3e351E
Ltmp48:
Lfunc_end7:
	.cfi_endproc

	.globl	__ZN111_$LT$core..iter..adapters..zip..Zip$LT$A$C$B$GT$$u20$as$u20$core..iter..adapters..zip..ZipImpl$LT$A$C$B$GT$$GT$3new17h0c8cc569808cf5c6E
	.p2align	4, 0x90
__ZN111_$LT$core..iter..adapters..zip..Zip$LT$A$C$B$GT$$u20$as$u20$core..iter..adapters..zip..ZipImpl$LT$A$C$B$GT$$GT$3new17h0c8cc569808cf5c6E:
Lfunc_begin8:
	.loc	1 262 0
	.cfi_startproc
	.cfi_personality 155, _rust_eh_personality
	.cfi_lsda 16, Lexception1
	pushq	%rbp
	.cfi_def_cfa_offset 16
	.cfi_offset %rbp, -16
	movq	%rsp, %rbp
	.cfi_def_cfa_register %rbp
	subq	$144, %rsp
	movq	%rdi, -120(%rbp)
	movq	%rdi, -112(%rbp)
	movq	%rsi, -96(%rbp)
	movq	%rdx, -88(%rbp)
	movq	%rcx, -80(%rbp)
	movq	%r8, -72(%rbp)
Ltmp49:
	leaq	-96(%rbp), %rdi
Ltmp56:
	.loc	1 263 21 prologue_end
	callq	__ZN4core4iter8adapters3zip27TrustedRandomAccessNoCoerce4size17h965ce080b93fe81eE
Ltmp50:
	movq	%rax, -104(%rbp)
	jmp	LBB8_3
LBB8_1:
	.loc	1 262 5
	movq	-64(%rbp), %rdi
	callq	__Unwind_Resume
LBB8_2:
Ltmp55:
	.loc	1 0 5 is_stmt 0
	movq	%rax, %rcx
	movl	%edx, %eax
	movq	%rcx, -64(%rbp)
	movl	%eax, -56(%rbp)
	jmp	LBB8_1
LBB8_3:
	movq	-104(%rbp), %rax
	.loc	1 263 21 is_stmt 1
	movq	%rax, -48(%rbp)
Ltmp57:
	.loc	1 264 28
	movq	%rax, -40(%rbp)
Ltmp51:
	leaq	-80(%rbp), %rdi
	.loc	1 264 35 is_stmt 0
	callq	__ZN4core4iter8adapters3zip27TrustedRandomAccessNoCoerce4size17h965ce080b93fe81eE
Ltmp52:
	movq	%rax, -128(%rbp)
	jmp	LBB8_4
LBB8_4:
	.loc	1 0 35
	movq	-128(%rbp), %rsi
	movq	-104(%rbp), %rdi
	.loc	1 264 35
	movq	%rsi, -32(%rbp)
Ltmp58:
	.file	10 "/rustc/2c8cc343237b8f7d5a3c3703e3a87f2eb2c54a74/library/core/src" "cmp.rs"
	.loc	10 1185 5 is_stmt 1
	movq	%rdi, -24(%rbp)
	.loc	10 1185 12 is_stmt 0
	movq	%rsi, -16(%rbp)
Ltmp53:
Ltmp59:
	.loc	10 833 13 is_stmt 1
	callq	__ZN4core3cmp6min_by17h0198571ca5a9d242E
Ltmp54:
	movq	%rax, -136(%rbp)
	jmp	LBB8_5
LBB8_5:
	.loc	10 0 13 is_stmt 0
	movq	-112(%rbp), %rax
	movq	-120(%rbp), %rcx
	movq	-104(%rbp), %rdx
	movq	-136(%rbp), %rsi
	.loc	10 833 13
	movq	%rsi, -8(%rbp)
Ltmp60:
	.loc	1 265 15 is_stmt 1
	movq	-96(%rbp), %r10
	movq	-88(%rbp), %r9
	.loc	1 265 18 is_stmt 0
	movq	-80(%rbp), %r8
	movq	-72(%rbp), %rdi
	.loc	1 265 9
	movq	%r10, (%rcx)
	movq	%r9, 8(%rcx)
	movq	%r8, 16(%rcx)
	movq	%rdi, 24(%rcx)
	movq	$0, 32(%rcx)
	movq	%rsi, 40(%rcx)
	movq	%rdx, 48(%rcx)
Ltmp61:
	.loc	1 266 6 is_stmt 1
	addq	$144, %rsp
	popq	%rbp
	retq
Ltmp62:
Lfunc_end8:
	.cfi_endproc
	.section	__TEXT,__gcc_except_tab
	.p2align	2
GCC_except_table8:
Lexception1:
	.byte	255
	.byte	255
	.byte	1
	.uleb128 Lcst_end1-Lcst_begin1
Lcst_begin1:
	.uleb128 Ltmp49-Lfunc_begin8
	.uleb128 Ltmp50-Ltmp49
	.uleb128 Ltmp55-Lfunc_begin8
	.byte	0
	.uleb128 Ltmp50-Lfunc_begin8
	.uleb128 Ltmp51-Ltmp50
	.byte	0
	.byte	0
	.uleb128 Ltmp51-Lfunc_begin8
	.uleb128 Ltmp54-Ltmp51
	.uleb128 Ltmp55-Lfunc_begin8
	.byte	0
Lcst_end1:
	.p2align	2

	.section	__TEXT,__text,regular,pure_instructions
	.globl	__ZN111_$LT$core..iter..adapters..zip..Zip$LT$A$C$B$GT$$u20$as$u20$core..iter..adapters..zip..ZipImpl$LT$A$C$B$GT$$GT$3new17h2d705808d933419cE
	.p2align	4, 0x90
__ZN111_$LT$core..iter..adapters..zip..Zip$LT$A$C$B$GT$$u20$as$u20$core..iter..adapters..zip..ZipImpl$LT$A$C$B$GT$$GT$3new17h2d705808d933419cE:
Lfunc_begin9:
	.loc	1 262 0
	.cfi_startproc
	.cfi_personality 155, _rust_eh_personality
	.cfi_lsda 16, Lexception2
	pushq	%rbp
	.cfi_def_cfa_offset 16
	.cfi_offset %rbp, -16
	movq	%rsp, %rbp
	.cfi_def_cfa_register %rbp
	subq	$144, %rsp
	movq	%rdi, -120(%rbp)
	movq	%rdi, -112(%rbp)
	movq	%rsi, -96(%rbp)
	movq	%rdx, -88(%rbp)
	movq	%rcx, -80(%rbp)
	movq	%r8, -72(%rbp)
Ltmp63:
	leaq	-96(%rbp), %rdi
Ltmp70:
	.loc	1 263 21 prologue_end
	callq	__ZN4core4iter8adapters3zip27TrustedRandomAccessNoCoerce4size17hdccdf0eca52ebc72E
Ltmp64:
	movq	%rax, -104(%rbp)
	jmp	LBB9_3
LBB9_1:
	.loc	1 262 5
	movq	-64(%rbp), %rdi
	callq	__Unwind_Resume
LBB9_2:
Ltmp69:
	.loc	1 0 5 is_stmt 0
	movq	%rax, %rcx
	movl	%edx, %eax
	movq	%rcx, -64(%rbp)
	movl	%eax, -56(%rbp)
	jmp	LBB9_1
LBB9_3:
	movq	-104(%rbp), %rax
	.loc	1 263 21 is_stmt 1
	movq	%rax, -48(%rbp)
Ltmp71:
	.loc	1 264 28
	movq	%rax, -40(%rbp)
Ltmp65:
	leaq	-80(%rbp), %rdi
	.loc	1 264 35 is_stmt 0
	callq	__ZN4core4iter8adapters3zip27TrustedRandomAccessNoCoerce4size17hdccdf0eca52ebc72E
Ltmp66:
	movq	%rax, -128(%rbp)
	jmp	LBB9_4
LBB9_4:
	.loc	1 0 35
	movq	-128(%rbp), %rsi
	movq	-104(%rbp), %rdi
	.loc	1 264 35
	movq	%rsi, -32(%rbp)
Ltmp72:
	.loc	10 1185 5 is_stmt 1
	movq	%rdi, -24(%rbp)
	.loc	10 1185 12 is_stmt 0
	movq	%rsi, -16(%rbp)
Ltmp67:
Ltmp73:
	.loc	10 833 13 is_stmt 1
	callq	__ZN4core3cmp6min_by17h0198571ca5a9d242E
Ltmp68:
	movq	%rax, -136(%rbp)
	jmp	LBB9_5
LBB9_5:
	.loc	10 0 13 is_stmt 0
	movq	-112(%rbp), %rax
	movq	-120(%rbp), %rcx
	movq	-104(%rbp), %rdx
	movq	-136(%rbp), %rsi
	.loc	10 833 13
	movq	%rsi, -8(%rbp)
Ltmp74:
	.loc	1 265 15 is_stmt 1
	movq	-96(%rbp), %r10
	movq	-88(%rbp), %r9
	.loc	1 265 18 is_stmt 0
	movq	-80(%rbp), %r8
	movq	-72(%rbp), %rdi
	.loc	1 265 9
	movq	%r10, (%rcx)
	movq	%r9, 8(%rcx)
	movq	%r8, 16(%rcx)
	movq	%rdi, 24(%rcx)
	movq	$0, 32(%rcx)
	movq	%rsi, 40(%rcx)
	movq	%rdx, 48(%rcx)
Ltmp75:
	.loc	1 266 6 is_stmt 1
	addq	$144, %rsp
	popq	%rbp
	retq
Ltmp76:
Lfunc_end9:
	.cfi_endproc
	.section	__TEXT,__gcc_except_tab
	.p2align	2
GCC_except_table9:
Lexception2:
	.byte	255
	.byte	255
	.byte	1
	.uleb128 Lcst_end2-Lcst_begin2
Lcst_begin2:
	.uleb128 Ltmp63-Lfunc_begin9
	.uleb128 Ltmp64-Ltmp63
	.uleb128 Ltmp69-Lfunc_begin9
	.byte	0
	.uleb128 Ltmp64-Lfunc_begin9
	.uleb128 Ltmp65-Ltmp64
	.byte	0
	.byte	0
	.uleb128 Ltmp65-Lfunc_begin9
	.uleb128 Ltmp68-Ltmp65
	.uleb128 Ltmp69-Lfunc_begin9
	.byte	0
Lcst_end2:
	.p2align	2

	.section	__TEXT,__text,regular,pure_instructions
	.globl	__ZN111_$LT$core..iter..adapters..zip..Zip$LT$A$C$B$GT$$u20$as$u20$core..iter..adapters..zip..ZipImpl$LT$A$C$B$GT$$GT$4next17h225e2980260d27b9E
	.p2align	4, 0x90
__ZN111_$LT$core..iter..adapters..zip..Zip$LT$A$C$B$GT$$u20$as$u20$core..iter..adapters..zip..ZipImpl$LT$A$C$B$GT$$GT$4next17h225e2980260d27b9E:
Lfunc_begin10:
	.loc	1 269 0
	.cfi_startproc
	.cfi_personality 155, _rust_eh_personality
	.cfi_lsda 16, Lexception3
	pushq	%rbp
	.cfi_def_cfa_offset 16
	.cfi_offset %rbp, -16
	movq	%rsp, %rbp
	.cfi_def_cfa_register %rbp
	subq	$80, %rsp
	movq	%rdi, -64(%rbp)
	movq	%rdi, -40(%rbp)
Ltmp80:
	.loc	1 270 12 prologue_end
	movq	32(%rdi), %rax
	cmpq	40(%rdi), %rax
	jb	LBB10_2
	.loc	1 279 19
	xorl	%eax, %eax
	testb	$1, %al
	jne	LBB10_8
	jmp	LBB10_7
LBB10_2:
	.loc	1 0 19 is_stmt 0
	movq	-64(%rbp), %rdi
	.loc	1 271 21 is_stmt 1
	movq	32(%rdi), %rsi
	movq	%rsi, -80(%rbp)
	movq	%rsi, -32(%rbp)
Ltmp81:
	.loc	1 274 13
	movq	32(%rdi), %rax
	incq	%rax
	movq	%rax, 32(%rdi)
	.loc	1 277 23
	callq	__ZN81_$LT$core..str..iter..Bytes$u20$as$u20$core..iter..traits..iterator..Iterator$GT$24__iterator_get_unchecked17h44b0aa3687a48b74E
	movq	-64(%rbp), %rdi
	movq	-80(%rbp), %rsi
	movb	%al, -66(%rbp)
	.loc	1 277 59 is_stmt 0
	addq	$16, %rdi
Ltmp77:
	callq	__ZN81_$LT$core..str..iter..Bytes$u20$as$u20$core..iter..traits..iterator..Iterator$GT$24__iterator_get_unchecked17h44b0aa3687a48b74E
Ltmp78:
	movb	%al, -65(%rbp)
	jmp	LBB10_5
Ltmp82:
LBB10_3:
	.loc	1 269 5 is_stmt 1
	movq	-24(%rbp), %rdi
	callq	__Unwind_Resume
LBB10_4:
Ltmp79:
	.loc	1 0 5 is_stmt 0
	movq	%rax, %rcx
	movl	%edx, %eax
	movq	%rcx, -24(%rbp)
	movl	%eax, -16(%rbp)
	jmp	LBB10_3
LBB10_5:
	movb	-65(%rbp), %al
	movb	-66(%rbp), %cl
Ltmp83:
	.loc	1 277 22 is_stmt 1
	movb	%cl, -48(%rbp)
	movb	%al, -47(%rbp)
	.loc	1 277 17 is_stmt 0
	movb	-48(%rbp), %cl
	movb	-47(%rbp), %al
	movb	%cl, -55(%rbp)
	movb	%al, -54(%rbp)
	movb	$1, -56(%rbp)
Ltmp84:
LBB10_6:
	.loc	1 293 6 is_stmt 1
	movzbl	-54(%rbp), %ecx
	shll	$16, %ecx
	movzwl	-56(%rbp), %eax
	orl	%ecx, %eax
	addq	$80, %rsp
	popq	%rbp
	retq
LBB10_7:
	.loc	1 279 19
	movb	$0, -41(%rbp)
	jmp	LBB10_9
LBB10_8:
	.loc	1 0 19 is_stmt 0
	movq	-64(%rbp), %rcx
	.loc	1 279 46
	movq	32(%rcx), %rax
	cmpq	48(%rcx), %rax
	setb	%al
	.loc	1 279 19
	andb	$1, %al
	movb	%al, -41(%rbp)
LBB10_9:
	testb	$1, -41(%rbp)
	jne	LBB10_11
	.loc	1 291 13 is_stmt 1
	movb	$0, -56(%rbp)
	.loc	1 279 16
	jmp	LBB10_12
LBB10_11:
	.loc	1 0 16 is_stmt 0
	movq	-64(%rbp), %rdi
	.loc	1 280 21 is_stmt 1
	movq	32(%rdi), %rsi
	movq	%rsi, -8(%rbp)
Ltmp85:
	.loc	1 282 13
	movq	32(%rdi), %rax
	addq	$1, %rax
	movq	%rax, 32(%rdi)
	.loc	1 283 13
	movq	40(%rdi), %rax
	addq	$1, %rax
	movq	%rax, 40(%rdi)
	.loc	1 287 17
	callq	__ZN81_$LT$core..str..iter..Bytes$u20$as$u20$core..iter..traits..iterator..Iterator$GT$24__iterator_get_unchecked17h44b0aa3687a48b74E
	.loc	1 289 13
	movb	$0, -56(%rbp)
Ltmp86:
LBB10_12:
	.loc	1 270 9
	jmp	LBB10_6
Ltmp87:
Lfunc_end10:
	.cfi_endproc
	.section	__TEXT,__gcc_except_tab
	.p2align	2
GCC_except_table10:
Lexception3:
	.byte	255
	.byte	255
	.byte	1
	.uleb128 Lcst_end3-Lcst_begin3
Lcst_begin3:
	.uleb128 Lfunc_begin10-Lfunc_begin10
	.uleb128 Ltmp77-Lfunc_begin10
	.byte	0
	.byte	0
	.uleb128 Ltmp77-Lfunc_begin10
	.uleb128 Ltmp78-Ltmp77
	.uleb128 Ltmp79-Lfunc_begin10
	.byte	0
	.uleb128 Ltmp78-Lfunc_begin10
	.uleb128 Lfunc_end10-Ltmp78
	.byte	0
	.byte	0
Lcst_end3:
	.p2align	2

	.section	__TEXT,__text,regular,pure_instructions
	.globl	__ZN111_$LT$core..iter..adapters..zip..Zip$LT$A$C$B$GT$$u20$as$u20$core..iter..adapters..zip..ZipImpl$LT$A$C$B$GT$$GT$4next17he294bcb19c4d7ecbE
	.p2align	4, 0x90
__ZN111_$LT$core..iter..adapters..zip..Zip$LT$A$C$B$GT$$u20$as$u20$core..iter..adapters..zip..ZipImpl$LT$A$C$B$GT$$GT$4next17he294bcb19c4d7ecbE:
Lfunc_begin11:
	.loc	1 269 0
	.cfi_startproc
	.cfi_personality 155, _rust_eh_personality
	.cfi_lsda 16, Lexception4
	pushq	%rbp
	.cfi_def_cfa_offset 16
	.cfi_offset %rbp, -16
	movq	%rsp, %rbp
	.cfi_def_cfa_register %rbp
	subq	$112, %rsp
	movq	%rdi, -88(%rbp)
	movq	%rdi, -40(%rbp)
Ltmp91:
	.loc	1 270 12 prologue_end
	movq	32(%rdi), %rax
	cmpq	40(%rdi), %rax
	jb	LBB11_2
	.loc	1 279 19
	xorl	%eax, %eax
	testb	$1, %al
	jne	LBB11_8
	jmp	LBB11_7
LBB11_2:
	.loc	1 0 19 is_stmt 0
	movq	-88(%rbp), %rdi
	.loc	1 271 21 is_stmt 1
	movq	32(%rdi), %rsi
	movq	%rsi, -112(%rbp)
	movq	%rsi, -32(%rbp)
Ltmp92:
	.loc	1 274 13
	movq	32(%rdi), %rax
	incq	%rax
	movq	%rax, 32(%rdi)
	.loc	1 277 23
	callq	__ZN91_$LT$core..slice..iter..Iter$LT$T$GT$$u20$as$u20$core..iter..traits..iterator..Iterator$GT$24__iterator_get_unchecked17hdea8e70c16d1b9e2E
	movq	-88(%rbp), %rdi
	movq	-112(%rbp), %rsi
	movq	%rax, -104(%rbp)
	.loc	1 277 59 is_stmt 0
	addq	$16, %rdi
Ltmp88:
	callq	__ZN91_$LT$core..slice..iter..Iter$LT$T$GT$$u20$as$u20$core..iter..traits..iterator..Iterator$GT$24__iterator_get_unchecked17hdea8e70c16d1b9e2E
Ltmp89:
	movq	%rax, -96(%rbp)
	jmp	LBB11_5
Ltmp93:
LBB11_3:
	.loc	1 269 5 is_stmt 1
	movq	-24(%rbp), %rdi
	callq	__Unwind_Resume
LBB11_4:
Ltmp90:
	.loc	1 0 5 is_stmt 0
	movq	%rax, %rcx
	movl	%edx, %eax
	movq	%rcx, -24(%rbp)
	movl	%eax, -16(%rbp)
	jmp	LBB11_3
LBB11_5:
	movq	-96(%rbp), %rax
	movq	-104(%rbp), %rcx
Ltmp94:
	.loc	1 277 22 is_stmt 1
	movq	%rcx, -64(%rbp)
	movq	%rax, -56(%rbp)
	.loc	1 277 17 is_stmt 0
	movq	-64(%rbp), %rcx
	movq	-56(%rbp), %rax
	movq	%rcx, -80(%rbp)
	movq	%rax, -72(%rbp)
Ltmp95:
LBB11_6:
	.loc	1 293 6 is_stmt 1
	movq	-80(%rbp), %rax
	movq	-72(%rbp), %rdx
	addq	$112, %rsp
	popq	%rbp
	retq
LBB11_7:
	.loc	1 279 19
	movb	$0, -41(%rbp)
	jmp	LBB11_9
LBB11_8:
	.loc	1 0 19 is_stmt 0
	movq	-88(%rbp), %rcx
	.loc	1 279 46
	movq	32(%rcx), %rax
	cmpq	48(%rcx), %rax
	setb	%al
	.loc	1 279 19
	andb	$1, %al
	movb	%al, -41(%rbp)
LBB11_9:
	testb	$1, -41(%rbp)
	jne	LBB11_11
	.loc	1 291 13 is_stmt 1
	movq	$0, -80(%rbp)
	.loc	1 279 16
	jmp	LBB11_12
LBB11_11:
	.loc	1 0 16 is_stmt 0
	movq	-88(%rbp), %rdi
	.loc	1 280 21 is_stmt 1
	movq	32(%rdi), %rsi
	movq	%rsi, -8(%rbp)
Ltmp96:
	.loc	1 282 13
	movq	32(%rdi), %rax
	addq	$1, %rax
	movq	%rax, 32(%rdi)
	.loc	1 283 13
	movq	40(%rdi), %rax
	addq	$1, %rax
	movq	%rax, 40(%rdi)
	.loc	1 287 17
	callq	__ZN91_$LT$core..slice..iter..Iter$LT$T$GT$$u20$as$u20$core..iter..traits..iterator..Iterator$GT$24__iterator_get_unchecked17hdea8e70c16d1b9e2E
	.loc	1 289 13
	movq	$0, -80(%rbp)
Ltmp97:
LBB11_12:
	.loc	1 270 9
	jmp	LBB11_6
Ltmp98:
Lfunc_end11:
	.cfi_endproc
	.section	__TEXT,__gcc_except_tab
	.p2align	2
GCC_except_table11:
Lexception4:
	.byte	255
	.byte	255
	.byte	1
	.uleb128 Lcst_end4-Lcst_begin4
Lcst_begin4:
	.uleb128 Lfunc_begin11-Lfunc_begin11
	.uleb128 Ltmp88-Lfunc_begin11
	.byte	0
	.byte	0
	.uleb128 Ltmp88-Lfunc_begin11
	.uleb128 Ltmp89-Ltmp88
	.uleb128 Ltmp90-Lfunc_begin11
	.byte	0
	.uleb128 Ltmp89-Lfunc_begin11
	.uleb128 Lfunc_end11-Ltmp89
	.byte	0
	.byte	0
Lcst_end4:
	.p2align	2

	.section	__TEXT,__text,regular,pure_instructions
	.p2align	4, 0x90
__ZN3std3f3221_$LT$impl$u20$f32$GT$4powi17h199609770a38b073E:
Lfunc_begin12:
	.file	11 "/rustc/2c8cc343237b8f7d5a3c3703e3a87f2eb2c54a74/library/std/src" "f32.rs"
	.loc	11 321 0
	.cfi_startproc
	pushq	%rbp
	.cfi_def_cfa_offset 16
	.cfi_offset %rbp, -16
	movq	%rsp, %rbp
	.cfi_def_cfa_register %rbp
	subq	$16, %rsp
	movss	%xmm0, -12(%rbp)
	movl	%edi, -8(%rbp)
Ltmp99:
	.loc	11 322 18 prologue_end
	callq	___powisf2
	movss	%xmm0, -4(%rbp)
	movss	-4(%rbp), %xmm0
	.loc	11 323 6
	addq	$16, %rsp
	popq	%rbp
	retq
Ltmp100:
Lfunc_end12:
	.cfi_endproc

	.p2align	4, 0x90
__ZN3std3f6421_$LT$impl$u20$f64$GT$4powi17hef87058c4971cf2bE:
Lfunc_begin13:
	.file	12 "/rustc/2c8cc343237b8f7d5a3c3703e3a87f2eb2c54a74/library/std/src" "f64.rs"
	.loc	12 321 0
	.cfi_startproc
	pushq	%rbp
	.cfi_def_cfa_offset 16
	.cfi_offset %rbp, -16
	movq	%rsp, %rbp
	.cfi_def_cfa_register %rbp
	subq	$32, %rsp
	movsd	%xmm0, -24(%rbp)
	movl	%edi, -12(%rbp)
Ltmp101:
	.loc	12 322 18 prologue_end
	callq	___powidf2
	movsd	%xmm0, -8(%rbp)
	movsd	-8(%rbp), %xmm0
	.loc	12 323 6
	addq	$32, %rsp
	popq	%rbp
	retq
Ltmp102:
Lfunc_end13:
	.cfi_endproc

	.globl	__ZN42_$LT$$RF$T$u20$as$u20$core..fmt..Debug$GT$3fmt17h961bd559fed773bcE
	.p2align	4, 0x90
__ZN42_$LT$$RF$T$u20$as$u20$core..fmt..Debug$GT$3fmt17h961bd559fed773bcE:
Lfunc_begin14:
	.file	13 "/rustc/2c8cc343237b8f7d5a3c3703e3a87f2eb2c54a74/library/core/src/fmt" "mod.rs"
	.loc	13 2377 0
	.cfi_startproc
	pushq	%rbp
	.cfi_def_cfa_offset 16
	.cfi_offset %rbp, -16
	movq	%rsp, %rbp
	.cfi_def_cfa_register %rbp
	subq	$16, %rsp
	movq	%rdi, -16(%rbp)
	movq	%rsi, -8(%rbp)
Ltmp103:
	.loc	13 2377 71 prologue_end
	movq	(%rdi), %rdi
	.loc	13 2377 62 is_stmt 0
	callq	__ZN63_$LT$num_traits..FloatErrorKind$u20$as$u20$core..fmt..Debug$GT$3fmt17h03b59766380c873fE
	.loc	13 2377 84
	andb	$1, %al
	movzbl	%al, %eax
	addq	$16, %rsp
	popq	%rbp
	retq
Ltmp104:
Lfunc_end14:
	.cfi_endproc

	.p2align	4, 0x90
__ZN45_$LT$f32$u20$as$u20$core..ops..arith..Div$GT$3div17ha50c34808b19b173E:
Lfunc_begin15:
	.file	14 "/rustc/2c8cc343237b8f7d5a3c3703e3a87f2eb2c54a74/library/core/src/ops" "arith.rs"
	.loc	14 501 0 is_stmt 1
	.cfi_startproc
	pushq	%rbp
	.cfi_def_cfa_offset 16
	.cfi_offset %rbp, -16
	movq	%rsp, %rbp
	.cfi_def_cfa_register %rbp
	pushq	%rax
	movss	%xmm0, -8(%rbp)
	movss	%xmm1, -4(%rbp)
Ltmp105:
	.loc	14 501 45 prologue_end
	divss	%xmm1, %xmm0
	.loc	14 501 59 is_stmt 0
	addq	$8, %rsp
	popq	%rbp
	retq
Ltmp106:
Lfunc_end15:
	.cfi_endproc

	.p2align	4, 0x90
__ZN45_$LT$f32$u20$as$u20$core..ops..arith..Mul$GT$3mul17hfebe42365ccb25fdE:
Lfunc_begin16:
	.loc	14 342 0 is_stmt 1
	.cfi_startproc
	pushq	%rbp
	.cfi_def_cfa_offset 16
	.cfi_offset %rbp, -16
	movq	%rsp, %rbp
	.cfi_def_cfa_register %rbp
	pushq	%rax
	movss	%xmm0, -8(%rbp)
	movss	%xmm1, -4(%rbp)
Ltmp107:
	.loc	14 342 45 prologue_end
	mulss	%xmm1, %xmm0
	.loc	14 342 59 is_stmt 0
	addq	$8, %rsp
	popq	%rbp
	retq
Ltmp108:
Lfunc_end16:
	.cfi_endproc

	.p2align	4, 0x90
__ZN45_$LT$f32$u20$as$u20$core..ops..arith..Neg$GT$3neg17h8ed6bca1fc25514dE:
Lfunc_begin17:
	.loc	14 695 0 is_stmt 1
	.cfi_startproc
	pushq	%rbp
	.cfi_def_cfa_offset 16
	.cfi_offset %rbp, -16
	movq	%rsp, %rbp
	.cfi_def_cfa_register %rbp
	subq	$4, %rsp
	movss	%xmm0, -4(%rbp)
Ltmp109:
	.loc	14 695 34 prologue_end
	movd	%xmm0, %eax
	xorl	$2147483648, %eax
	movd	%eax, %xmm0
	.loc	14 695 41 is_stmt 0
	addq	$4, %rsp
	popq	%rbp
	retq
Ltmp110:
Lfunc_end17:
	.cfi_endproc

	.p2align	4, 0x90
__ZN45_$LT$f64$u20$as$u20$core..ops..arith..Div$GT$3div17h7e2df44e40f45fb9E:
Lfunc_begin18:
	.loc	14 501 0 is_stmt 1
	.cfi_startproc
	pushq	%rbp
	.cfi_def_cfa_offset 16
	.cfi_offset %rbp, -16
	movq	%rsp, %rbp
	.cfi_def_cfa_register %rbp
	subq	$16, %rsp
	movsd	%xmm0, -16(%rbp)
	movsd	%xmm1, -8(%rbp)
Ltmp111:
	.loc	14 501 45 prologue_end
	divsd	%xmm1, %xmm0
	.loc	14 501 59 is_stmt 0
	addq	$16, %rsp
	popq	%rbp
	retq
Ltmp112:
Lfunc_end18:
	.cfi_endproc

	.p2align	4, 0x90
__ZN45_$LT$f64$u20$as$u20$core..ops..arith..Mul$GT$3mul17h59d18003e48cbd67E:
Lfunc_begin19:
	.loc	14 342 0 is_stmt 1
	.cfi_startproc
	pushq	%rbp
	.cfi_def_cfa_offset 16
	.cfi_offset %rbp, -16
	movq	%rsp, %rbp
	.cfi_def_cfa_register %rbp
	subq	$16, %rsp
	movsd	%xmm0, -16(%rbp)
	movsd	%xmm1, -8(%rbp)
Ltmp113:
	.loc	14 342 45 prologue_end
	mulsd	%xmm1, %xmm0
	.loc	14 342 59 is_stmt 0
	addq	$16, %rsp
	popq	%rbp
	retq
Ltmp114:
Lfunc_end19:
	.cfi_endproc

	.p2align	4, 0x90
__ZN45_$LT$f64$u20$as$u20$core..ops..arith..Neg$GT$3neg17h33fe1ffa20e4f522E:
Lfunc_begin20:
	.loc	14 695 0 is_stmt 1
	.cfi_startproc
	pushq	%rbp
	.cfi_def_cfa_offset 16
	.cfi_offset %rbp, -16
	movq	%rsp, %rbp
	.cfi_def_cfa_register %rbp
	pushq	%rax
	movsd	%xmm0, -8(%rbp)
Ltmp115:
	.loc	14 695 34 prologue_end
	movq	%xmm0, %rax
	movabsq	$-9223372036854775808, %rcx
	xorq	%rcx, %rax
	movq	%rax, %xmm0
	.loc	14 695 41 is_stmt 0
	addq	$8, %rsp
	popq	%rbp
	retq
Ltmp116:
Lfunc_end20:
	.cfi_endproc

	.p2align	4, 0x90
__ZN4core3cmp5impls50_$LT$impl$u20$core..cmp..Ord$u20$for$u20$usize$GT$3cmp17h8f971366653eb292E:
Lfunc_begin21:
	.loc	10 1454 0 is_stmt 1
	.cfi_startproc
	pushq	%rbp
	.cfi_def_cfa_offset 16
	.cfi_offset %rbp, -16
	movq	%rsp, %rbp
	.cfi_def_cfa_register %rbp
	subq	$40, %rsp
	movq	%rdi, -40(%rbp)
	movq	%rsi, -32(%rbp)
	movq	%rdi, -16(%rbp)
	movq	%rsi, -8(%rbp)
Ltmp117:
	.loc	10 1457 24 prologue_end
	movq	(%rdi), %rax
	cmpq	(%rsi), %rax
	jb	LBB21_2
	.loc	10 0 24 is_stmt 0
	movq	-32(%rbp), %rcx
	movq	-40(%rbp), %rax
	.loc	10 1458 29 is_stmt 1
	movq	(%rax), %rax
	cmpq	(%rcx), %rax
	je	LBB21_5
	jmp	LBB21_4
LBB21_2:
	.loc	10 1457 41
	movb	$-1, -17(%rbp)
LBB21_3:
	.loc	10 1460 18
	movb	-17(%rbp), %al
	addq	$40, %rsp
	popq	%rbp
	retq
LBB21_4:
	.loc	10 1459 28
	movb	$1, -17(%rbp)
	.loc	10 1458 26
	jmp	LBB21_6
LBB21_5:
	.loc	10 1458 47 is_stmt 0
	movb	$0, -17(%rbp)
LBB21_6:
	.loc	10 1457 21 is_stmt 1
	jmp	LBB21_3
Ltmp118:
Lfunc_end21:
	.cfi_endproc

	.p2align	4, 0x90
__ZN4core3cmp5impls59_$LT$impl$u20$core..cmp..PartialEq$u20$for$u20$$LP$$RP$$GT$2eq17h2cd35d5d2804f113E:
Lfunc_begin22:
	.loc	10 1363 0
	.cfi_startproc
	pushq	%rbp
	.cfi_def_cfa_offset 16
	.cfi_offset %rbp, -16
	movq	%rsp, %rbp
	.cfi_def_cfa_register %rbp
	subq	$16, %rsp
	movq	%rdi, -16(%rbp)
	movq	%rsi, -8(%rbp)
Ltmp119:
	.loc	10 1365 10 prologue_end
	movb	$1, %al
	andb	$1, %al
	movzbl	%al, %eax
	addq	$16, %rsp
	popq	%rbp
	retq
Ltmp120:
Lfunc_end22:
	.cfi_endproc

	.globl	__ZN4core3cmp6min_by17h0198571ca5a9d242E
	.p2align	4, 0x90
__ZN4core3cmp6min_by17h0198571ca5a9d242E:
Lfunc_begin23:
	.loc	10 1204 0
	.cfi_startproc
	.cfi_personality 155, _rust_eh_personality
	.cfi_lsda 16, Lexception5
	pushq	%rbp
	.cfi_def_cfa_offset 16
	.cfi_offset %rbp, -16
	movq	%rsp, %rbp
	.cfi_def_cfa_register %rbp
	subq	$96, %rsp
	movq	%rdi, -80(%rbp)
	movq	%rsi, -72(%rbp)
Ltmp124:
	.loc	10 1209 11 prologue_end
	movb	$1, -25(%rbp)
	movb	$1, -26(%rbp)
	leaq	-80(%rbp), %rax
	movq	%rax, -48(%rbp)
	leaq	-72(%rbp), %rax
	movq	%rax, -40(%rbp)
	movq	-48(%rbp), %rdi
	movq	-40(%rbp), %rsi
Ltmp121:
	callq	__ZN4core3ops8function6FnOnce9call_once17hf9c209307cd19614E
Ltmp122:
	movb	%al, -81(%rbp)
	jmp	LBB23_3
LBB23_1:
	.loc	10 1213 1
	jmp	LBB23_4
LBB23_2:
Ltmp123:
	.loc	10 0 1 is_stmt 0
	movq	%rax, %rcx
	movl	%edx, %eax
	movq	%rcx, -16(%rbp)
	movl	%eax, -8(%rbp)
	jmp	LBB23_1
LBB23_3:
	movb	-81(%rbp), %al
	.loc	10 1209 11 is_stmt 1
	movb	%al, -49(%rbp)
	movb	-49(%rbp), %al
	.loc	10 1209 5 is_stmt 0
	incb	%al
	subb	$2, %al
	jb	LBB23_6
	jmp	LBB23_15
LBB23_15:
	jmp	LBB23_7
LBB23_4:
	.loc	10 1213 1 is_stmt 1
	testb	$1, -25(%rbp)
	jne	LBB23_12
	jmp	LBB23_11
	.loc	10 1209 11
	ud2
LBB23_6:
	.loc	10 1210 45
	movb	$0, -25(%rbp)
	movq	-80(%rbp), %rax
	movq	%rax, -64(%rbp)
	jmp	LBB23_8
LBB23_7:
	.loc	10 1211 30
	movb	$0, -26(%rbp)
	movq	-72(%rbp), %rax
	movq	%rax, -64(%rbp)
LBB23_8:
	.loc	10 1213 1
	testb	$1, -26(%rbp)
	jne	LBB23_10
LBB23_9:
	testb	$1, -25(%rbp)
	jne	LBB23_14
	jmp	LBB23_13
LBB23_10:
	jmp	LBB23_9
LBB23_11:
	.loc	10 1204 1
	movq	-16(%rbp), %rdi
	callq	__Unwind_Resume
LBB23_12:
	.loc	10 1213 1
	jmp	LBB23_11
LBB23_13:
	.loc	10 1213 2 is_stmt 0
	movq	-64(%rbp), %rax
	addq	$96, %rsp
	popq	%rbp
	retq
LBB23_14:
	.loc	10 1213 1
	jmp	LBB23_13
Ltmp125:
Lfunc_end23:
	.cfi_endproc
	.section	__TEXT,__gcc_except_tab
	.p2align	2
GCC_except_table23:
Lexception5:
	.byte	255
	.byte	255
	.byte	1
	.uleb128 Lcst_end5-Lcst_begin5
Lcst_begin5:
	.uleb128 Ltmp121-Lfunc_begin23
	.uleb128 Ltmp122-Ltmp121
	.uleb128 Ltmp123-Lfunc_begin23
	.byte	0
	.uleb128 Ltmp122-Lfunc_begin23
	.uleb128 Lfunc_end23-Ltmp122
	.byte	0
	.byte	0
Lcst_end5:
	.p2align	2

	.section	__TEXT,__text,regular,pure_instructions
	.p2align	4, 0x90
__ZN4core3fmt9Arguments6new_v117hd8e1c3964ded6e84E:
Lfunc_begin24:
	.loc	13 399 0 is_stmt 1
	.cfi_startproc
	pushq	%rbp
	.cfi_def_cfa_offset 16
	.cfi_offset %rbp, -16
	movq	%rsp, %rbp
	.cfi_def_cfa_register %rbp
	subq	$160, %rsp
	movq	%r8, -152(%rbp)
	movq	%rcx, -144(%rbp)
	movq	%rdx, -136(%rbp)
	movq	%rsi, -128(%rbp)
	movq	%rdi, -120(%rbp)
	movq	%rdi, -112(%rbp)
	movq	%rsi, -32(%rbp)
	movq	%rdx, -24(%rbp)
	movq	%rcx, -16(%rbp)
	movq	%r8, -8(%rbp)
Ltmp126:
	.loc	13 400 12 prologue_end
	cmpq	%r8, %rdx
	jb	LBB24_2
	.loc	13 0 12 is_stmt 0
	movq	-136(%rbp), %rax
	movq	-152(%rbp), %rcx
	.loc	13 400 56
	addq	$1, %rcx
	.loc	13 400 41
	cmpq	%rcx, %rax
	seta	%al
	.loc	13 400 12
	andb	$1, %al
	movb	%al, -97(%rbp)
	jmp	LBB24_3
LBB24_2:
	movb	$1, -97(%rbp)
LBB24_3:
	testb	$1, -97(%rbp)
	jne	LBB24_5
	.loc	13 0 12
	movq	-112(%rbp), %rax
	movq	-120(%rbp), %rcx
	movq	-152(%rbp), %rdx
	movq	-144(%rbp), %rsi
	movq	-136(%rbp), %rdi
	movq	-128(%rbp), %r8
	.loc	13 403 34 is_stmt 1
	movq	$0, -48(%rbp)
	.loc	13 403 9 is_stmt 0
	movq	%r8, 16(%rcx)
	movq	%rdi, 24(%rcx)
	movq	-48(%rbp), %r8
	movq	-40(%rbp), %rdi
	movq	%r8, (%rcx)
	movq	%rdi, 8(%rcx)
	movq	%rsi, 32(%rcx)
	movq	%rdx, 40(%rcx)
	.loc	13 404 6 is_stmt 1
	addq	$160, %rsp
	popq	%rbp
	retq
LBB24_5:
	.loc	13 401 13
	leaq	l___unnamed_3(%rip), %rsi
	leaq	l___unnamed_4(%rip), %rcx
	xorl	%eax, %eax
	movl	%eax, %r8d
	leaq	-96(%rbp), %rdi
	movq	%rdi, -160(%rbp)
	movl	$1, %edx
	callq	__ZN4core3fmt9Arguments6new_v117hd8e1c3964ded6e84E
	movq	-160(%rbp), %rdi
	leaq	l___unnamed_5(%rip), %rsi
	callq	__ZN4core9panicking9panic_fmt17h9b5d807e24bcaaedE
Ltmp127:
Lfunc_end24:
	.cfi_endproc

	.p2align	4, 0x90
__ZN4core3num21_$LT$impl$u20$u64$GT$11checked_mul17h3880191fa3f69492E:
Lfunc_begin25:
	.file	15 "/rustc/2c8cc343237b8f7d5a3c3703e3a87f2eb2c54a74/library/core/src/num" "uint_macros.rs"
	.loc	15 558 0
	.cfi_startproc
	pushq	%rbp
	.cfi_def_cfa_offset 16
	.cfi_offset %rbp, -16
	movq	%rsp, %rbp
	.cfi_def_cfa_register %rbp
	subq	$120, %rsp
	movq	%rdi, %rax
	movq	%rax, -80(%rbp)
	movq	%rsi, -72(%rbp)
Ltmp128:
	.loc	15 559 26 prologue_end
	movq	%rax, -64(%rbp)
	.loc	15 559 47 is_stmt 0
	movq	%rsi, -56(%rbp)
Ltmp129:
	.loc	15 1677 26 is_stmt 1
	mulq	%rsi
	movq	%rax, %rcx
	seto	%al
	andb	$1, %al
	movq	%rcx, -48(%rbp)
	movb	%al, -40(%rbp)
	movq	-48(%rbp), %rcx
	movb	-40(%rbp), %al
	.loc	15 1677 18 is_stmt 0
	movq	%rcx, -32(%rbp)
	.loc	15 1677 21
	movb	%al, %dl
	andb	$1, %dl
	movb	%dl, -17(%rbp)
Ltmp130:
	.loc	15 1678 13 is_stmt 1
	movq	%rcx, -96(%rbp)
	andb	$1, %al
	movb	%al, -88(%rbp)
Ltmp131:
	.loc	15 559 18
	movq	-96(%rbp), %rax
	movq	%rax, -120(%rbp)
	movq	%rax, -16(%rbp)
	.loc	15 559 21 is_stmt 0
	movb	-88(%rbp), %al
	movb	%al, %cl
	andb	$1, %cl
	movb	%cl, -2(%rbp)
Ltmp132:
	.loc	15 560 16 is_stmt 1
	andb	$1, %al
	movb	%al, -1(%rbp)
	testb	$1, -1(%rbp)
	jne	LBB25_2
	.loc	15 0 16 is_stmt 0
	movq	-120(%rbp), %rax
	.loc	15 560 42
	movq	%rax, -104(%rbp)
	movq	$1, -112(%rbp)
	.loc	15 560 13
	jmp	LBB25_3
LBB25_2:
	.loc	15 560 30
	movq	$0, -112(%rbp)
Ltmp133:
LBB25_3:
	.loc	15 561 10 is_stmt 1
	movq	-112(%rbp), %rax
	movq	-104(%rbp), %rdx
	addq	$120, %rsp
	popq	%rbp
	retq
Ltmp134:
Lfunc_end25:
	.cfi_endproc

	.globl	__ZN4core3num7dec2flt18biased_fp_to_float17h0dbd151a05d21118E
	.p2align	4, 0x90
__ZN4core3num7dec2flt18biased_fp_to_float17h0dbd151a05d21118E:
Lfunc_begin26:
	.file	16 "/rustc/2c8cc343237b8f7d5a3c3703e3a87f2eb2c54a74/library/core/src/num/dec2flt" "mod.rs"
	.loc	16 219 0
	.cfi_startproc
	pushq	%rbp
	.cfi_def_cfa_offset 16
	.cfi_offset %rbp, -16
	movq	%rsp, %rbp
	.cfi_def_cfa_register %rbp
	subq	$32, %rsp
	movq	%rdi, -16(%rbp)
	movl	%esi, -8(%rbp)
Ltmp135:
	.loc	16 220 20 prologue_end
	movq	%rdi, -24(%rbp)
Ltmp136:
	.loc	16 221 13
	movslq	%esi, %rax
	shlq	$23, %rax
	.loc	16 221 5 is_stmt 0
	orq	-24(%rbp), %rax
	movq	%rax, -24(%rbp)
	.loc	16 222 22 is_stmt 1
	movq	-24(%rbp), %rdi
	.loc	16 222 5 is_stmt 0
	callq	__ZN59_$LT$f32$u20$as$u20$core..num..dec2flt..float..RawFloat$GT$13from_u64_bits17h45ad9b13b18410efE
Ltmp137:
	.loc	16 223 2 is_stmt 1
	addq	$32, %rsp
	popq	%rbp
	retq
Ltmp138:
Lfunc_end26:
	.cfi_endproc

	.globl	__ZN4core3num7dec2flt18biased_fp_to_float17h718ef2d3e4df052fE
	.p2align	4, 0x90
__ZN4core3num7dec2flt18biased_fp_to_float17h718ef2d3e4df052fE:
Lfunc_begin27:
	.loc	16 219 0
	.cfi_startproc
	pushq	%rbp
	.cfi_def_cfa_offset 16
	.cfi_offset %rbp, -16
	movq	%rsp, %rbp
	.cfi_def_cfa_register %rbp
	subq	$32, %rsp
	movq	%rdi, -16(%rbp)
	movl	%esi, -8(%rbp)
Ltmp139:
	.loc	16 220 20 prologue_end
	movq	%rdi, -24(%rbp)
Ltmp140:
	.loc	16 221 13
	movslq	%esi, %rax
	shlq	$52, %rax
	.loc	16 221 5 is_stmt 0
	orq	-24(%rbp), %rax
	movq	%rax, -24(%rbp)
	.loc	16 222 22 is_stmt 1
	movq	-24(%rbp), %rdi
	.loc	16 222 5 is_stmt 0
	callq	__ZN59_$LT$f64$u20$as$u20$core..num..dec2flt..float..RawFloat$GT$13from_u64_bits17h26574e41f4991a58E
Ltmp141:
	.loc	16 223 2 is_stmt 1
	addq	$32, %rsp
	popq	%rbp
	retq
Ltmp142:
Lfunc_end27:
	.cfi_endproc

	.globl	__ZN4core3num7dec2flt3fpu13fpu_precision13set_precision17h16305ef07e0b7923E
	.p2align	4, 0x90
__ZN4core3num7dec2flt3fpu13fpu_precision13set_precision17h16305ef07e0b7923E:
Lfunc_begin28:
	.file	17 "/rustc/2c8cc343237b8f7d5a3c3703e3a87f2eb2c54a74/library/core/src/num/dec2flt" "fpu.rs"
	.loc	17 89 0
	.cfi_startproc
	pushq	%rbp
	.cfi_def_cfa_offset 16
	.cfi_offset %rbp, -16
	movq	%rsp, %rbp
	.cfi_def_cfa_register %rbp
Ltmp143:
	.loc	17 89 33 prologue_end
	popq	%rbp
	retq
Ltmp144:
Lfunc_end28:
	.cfi_endproc

	.globl	__ZN4core3num7dec2flt3fpu13fpu_precision13set_precision17h7e199e41a5338e61E
	.p2align	4, 0x90
__ZN4core3num7dec2flt3fpu13fpu_precision13set_precision17h7e199e41a5338e61E:
Lfunc_begin29:
	.loc	17 89 0
	.cfi_startproc
	pushq	%rbp
	.cfi_def_cfa_offset 16
	.cfi_offset %rbp, -16
	movq	%rsp, %rbp
	.cfi_def_cfa_register %rbp
Ltmp145:
	.loc	17 89 33 prologue_end
	popq	%rbp
	retq
Ltmp146:
Lfunc_end29:
	.cfi_endproc

	.globl	__ZN4core3num7dec2flt4slow19parse_long_mantissa17h20dba9c16c604786E
	.p2align	4, 0x90
__ZN4core3num7dec2flt4slow19parse_long_mantissa17h20dba9c16c604786E:
Lfunc_begin30:
	.file	18 "/rustc/2c8cc343237b8f7d5a3c3703e3a87f2eb2c54a74/library/core/src/num/dec2flt" "slow.rs"
	.loc	18 26 0
	.cfi_startproc
	pushq	%rbp
	.cfi_def_cfa_offset 16
	.cfi_offset %rbp, -16
	movq	%rsp, %rbp
	.cfi_def_cfa_register %rbp
	subq	$992, %rsp
	movq	%rdi, -968(%rbp)
	movq	%rsi, -952(%rbp)
	movq	%rdi, -72(%rbp)
	movq	%rsi, -64(%rbp)
Ltmp147:
	.loc	18 36 19 prologue_end
	xorl	%edi, %edi
	callq	__ZN4core3num7dec2flt6common8BiasedFp9zero_pow217hd9d409e4688b21a5E
	movq	%rax, -984(%rbp)
	movl	%edx, -972(%rbp)
	movq	%rax, -56(%rbp)
	movl	%edx, -48(%rbp)
Ltmp148:
	.loc	18 37 18
	movl	$255, %edi
	callq	__ZN4core3num7dec2flt6common8BiasedFp9zero_pow217hd9d409e4688b21a5E
	movq	-968(%rbp), %rsi
	movq	%rax, %rcx
	movq	%rcx, -960(%rbp)
	movl	%edx, %eax
	movq	-952(%rbp), %rdx
	movl	%eax, -940(%rbp)
	movq	%rcx, -40(%rbp)
	movl	%eax, -32(%rbp)
Ltmp149:
	.loc	18 39 17
	leaq	-912(%rbp), %rdi
	callq	__ZN4core3num7dec2flt7decimal13parse_decimal17he94b4e052923b1b6E
Ltmp150:
	.loc	18 42 8
	cmpq	$0, -144(%rbp)
	jne	LBB30_2
	movb	$1, -125(%rbp)
	jmp	LBB30_3
LBB30_2:
	.loc	18 42 29 is_stmt 0
	cmpl	$-324, -136(%rbp)
	setl	%al
	.loc	18 42 8
	andb	$1, %al
	movb	%al, -125(%rbp)
LBB30_3:
	testb	$1, -125(%rbp)
	jne	LBB30_5
	.loc	18 44 15 is_stmt 1
	cmpl	$310, -136(%rbp)
	jge	LBB30_8
	jmp	LBB30_7
LBB30_5:
	.loc	18 0 15 is_stmt 0
	movl	-972(%rbp), %eax
	movq	-984(%rbp), %rcx
	.loc	18 43 16 is_stmt 1
	movq	%rcx, -936(%rbp)
	movl	%eax, -928(%rbp)
LBB30_6:
	.file	19 "/Users/natalie/.cargo/registry/src/github.com-1ecc6299db9ec823/num-traits-0.2.15" "src/lib.rs"
	.loc	19 1 1
	jmp	LBB30_9
LBB30_7:
	.loc	18 47 20
	movl	$0, -124(%rbp)
Ltmp151:
	.loc	18 49 5
	jmp	LBB30_10
Ltmp152:
LBB30_8:
	.loc	18 0 5 is_stmt 0
	movl	-940(%rbp), %eax
	movq	-960(%rbp), %rcx
	.loc	18 45 16 is_stmt 1
	movq	%rcx, -936(%rbp)
	movl	%eax, -928(%rbp)
	.loc	19 1 1
	jmp	LBB30_6
Ltmp153:
LBB30_9:
	.loc	18 109 2
	jmp	LBB30_40
LBB30_10:
Ltmp154:
	.loc	18 49 11
	cmpl	$0, -136(%rbp)
	jg	LBB30_12
	.loc	18 59 5
	jmp	LBB30_16
LBB30_12:
	.loc	18 50 17
	movslq	-136(%rbp), %rax
	movq	%rax, -24(%rbp)
Ltmp155:
	.loc	18 51 21
	movq	%rax, -120(%rbp)
	movq	-120(%rbp), %rsi
	leaq	-920(%rbp), %rdi
	callq	__ZN4core3num7dec2flt4slow19parse_long_mantissa28_$u7b$$u7b$closure$u7d$$u7d$17h87a9a191df01a0b7E
	movq	%rax, %rsi
	movq	%rsi, -992(%rbp)
	movq	%rsi, -16(%rbp)
Ltmp156:
	.loc	18 52 9
	leaq	-912(%rbp), %rdi
	callq	__ZN4core3num7dec2flt7decimal7Decimal11right_shift17hbef7261b911e484eE
	.loc	18 53 12
	cmpl	$-2047, -136(%rbp)
	jl	LBB30_14
	.loc	18 0 12 is_stmt 0
	movq	-992(%rbp), %rax
	.loc	18 56 9 is_stmt 1
	addl	-124(%rbp), %eax
	movl	%eax, -124(%rbp)
Ltmp157:
	.loc	18 49 5
	jmp	LBB30_10
LBB30_14:
	.loc	18 0 5 is_stmt 0
	movl	-972(%rbp), %eax
	movq	-984(%rbp), %rcx
Ltmp158:
	.loc	18 54 20 is_stmt 1
	movq	%rcx, -936(%rbp)
	movl	%eax, -928(%rbp)
Ltmp159:
LBB30_15:
	.loc	19 1 1
	jmp	LBB30_9
LBB30_16:
Ltmp160:
	.loc	18 59 11
	cmpl	$0, -136(%rbp)
	jle	LBB30_18
LBB30_17:
	.loc	18 76 5
	movl	-124(%rbp), %eax
	subl	$1, %eax
	movl	%eax, -124(%rbp)
	.loc	18 77 5
	jmp	LBB30_29
LBB30_18:
	.loc	18 60 24
	cmpl	$0, -136(%rbp)
	jne	LBB30_20
	.loc	18 62 17
	leaq	-912(%rbp), %rax
	movq	%rax, -8(%rbp)
	.loc	18 62 26 is_stmt 0
	cmpb	$5, -912(%rbp)
	jae	LBB30_23
	jmp	LBB30_22
LBB30_20:
	.loc	18 67 23 is_stmt 1
	xorl	%eax, %eax
	subl	-136(%rbp), %eax
	cltq
	.loc	18 67 13 is_stmt 0
	movq	%rax, -104(%rbp)
	movq	-104(%rbp), %rsi
	leaq	-920(%rbp), %rdi
	callq	__ZN4core3num7dec2flt4slow19parse_long_mantissa28_$u7b$$u7b$closure$u7d$$u7d$17h87a9a191df01a0b7E
	movq	%rax, -112(%rbp)
LBB30_21:
Ltmp161:
	.loc	18 69 22 is_stmt 1
	movq	-112(%rbp), %rsi
	.loc	18 69 9 is_stmt 0
	leaq	-912(%rbp), %rdi
	callq	__ZN4core3num7dec2flt7decimal7Decimal10left_shift17hb49663691319c6cbE
	.loc	18 70 12 is_stmt 1
	cmpl	$2047, -136(%rbp)
	jg	LBB30_28
	jmp	LBB30_27
Ltmp162:
LBB30_22:
	.loc	18 61 13
	movb	-912(%rbp), %al
	subb	$2, %al
	jb	LBB30_25
	jmp	LBB30_24
LBB30_23:
	.loc	19 1 1
	jmp	LBB30_17
LBB30_24:
	.loc	18 64 22
	movq	$1, -112(%rbp)
	jmp	LBB30_26
LBB30_25:
	.loc	18 63 26
	movq	$2, -112(%rbp)
LBB30_26:
	.loc	18 60 21
	jmp	LBB30_21
LBB30_27:
Ltmp163:
	.loc	18 73 17
	movq	-112(%rbp), %rax
	movl	%eax, %ecx
	.loc	18 73 9 is_stmt 0
	movl	-124(%rbp), %eax
	subl	%ecx, %eax
	movl	%eax, -124(%rbp)
Ltmp164:
	.loc	18 59 5 is_stmt 1
	jmp	LBB30_16
LBB30_28:
	.loc	18 0 5 is_stmt 0
	movl	-940(%rbp), %eax
	movq	-960(%rbp), %rcx
Ltmp165:
	.loc	18 71 20 is_stmt 1
	movq	%rcx, -936(%rbp)
	movl	%eax, -928(%rbp)
Ltmp166:
	.loc	19 1 1
	jmp	LBB30_15
LBB30_29:
	.loc	18 77 11
	movl	$4294967170, %eax
	cmpl	-124(%rbp), %eax
	jg	LBB30_31
	.loc	18 85 9
	movl	-124(%rbp), %eax
	.loc	18 85 8 is_stmt 0
	subl	$-127, %eax
	cmpl	$255, %eax
	jge	LBB30_35
	jmp	LBB30_34
LBB30_31:
	.loc	18 78 21 is_stmt 1
	movl	$4294967170, %eax
	subl	-124(%rbp), %eax
	cltq
	movq	%rax, -96(%rbp)
Ltmp167:
	.loc	18 79 12
	cmpq	$60, -96(%rbp)
	ja	LBB30_33
LBB30_32:
	.loc	18 82 23
	movq	-96(%rbp), %rsi
	.loc	18 82 9 is_stmt 0
	leaq	-912(%rbp), %rdi
	callq	__ZN4core3num7dec2flt7decimal7Decimal11right_shift17hbef7261b911e484eE
	.loc	18 83 17 is_stmt 1
	movq	-96(%rbp), %rax
	.loc	18 83 9 is_stmt 0
	addl	-124(%rbp), %eax
	movl	%eax, -124(%rbp)
Ltmp168:
	.loc	18 77 5 is_stmt 1
	jmp	LBB30_29
LBB30_33:
Ltmp169:
	.loc	18 80 13
	movq	$60, -96(%rbp)
	.loc	18 79 9
	jmp	LBB30_32
Ltmp170:
LBB30_34:
	.loc	18 90 5
	leaq	-912(%rbp), %rdi
	movl	$24, %esi
	callq	__ZN4core3num7dec2flt7decimal7Decimal10left_shift17hb49663691319c6cbE
	.loc	18 91 24
	leaq	-912(%rbp), %rdi
	callq	__ZN4core3num7dec2flt7decimal7Decimal5round17h01e343917b97ddb0E
	movq	%rax, -88(%rbp)
Ltmp171:
	.loc	18 92 8
	cmpq	$16777216, -88(%rbp)
	jae	LBB30_37
	jmp	LBB30_36
Ltmp172:
LBB30_35:
	.loc	18 0 8 is_stmt 0
	movl	-940(%rbp), %eax
	movq	-960(%rbp), %rcx
	.loc	18 86 16 is_stmt 1
	movq	%rcx, -936(%rbp)
	movl	%eax, -928(%rbp)
	.loc	19 1 1
	jmp	LBB30_15
LBB30_36:
Ltmp173:
	.loc	18 102 22
	movl	-124(%rbp), %eax
	subl	$-127, %eax
	movl	%eax, -76(%rbp)
Ltmp174:
	.loc	18 103 8
	cmpq	$8388608, -88(%rbp)
	jb	LBB30_42
	jmp	LBB30_41
Ltmp175:
LBB30_37:
	.loc	18 95 9
	leaq	-912(%rbp), %rdi
	movl	$1, %esi
	callq	__ZN4core3num7dec2flt7decimal7Decimal11right_shift17hbef7261b911e484eE
	.loc	18 96 9
	movl	-124(%rbp), %eax
	addl	$1, %eax
	movl	%eax, -124(%rbp)
	.loc	18 97 20
	leaq	-912(%rbp), %rdi
	callq	__ZN4core3num7dec2flt7decimal7Decimal5round17h01e343917b97ddb0E
	.loc	18 97 9 is_stmt 0
	movq	%rax, -88(%rbp)
	.loc	18 98 13 is_stmt 1
	movl	-124(%rbp), %eax
	.loc	18 98 12 is_stmt 0
	subl	$-127, %eax
	cmpl	$255, %eax
	jge	LBB30_39
	.loc	18 92 5 is_stmt 1
	jmp	LBB30_36
LBB30_39:
	.loc	18 0 5 is_stmt 0
	movl	-940(%rbp), %eax
	movq	-960(%rbp), %rcx
	.loc	18 99 20 is_stmt 1
	movq	%rcx, -936(%rbp)
	movl	%eax, -928(%rbp)
Ltmp176:
	.loc	19 1 1
	jmp	LBB30_15
Ltmp177:
LBB30_40:
	.loc	18 109 2
	movq	-936(%rbp), %rax
	movl	-928(%rbp), %edx
	addq	$992, %rsp
	popq	%rbp
	retq
LBB30_41:
Ltmp178:
	.loc	18 107 5
	movq	-88(%rbp), %rax
	andq	$8388607, %rax
	movq	%rax, -88(%rbp)
	.loc	18 108 19
	movq	-88(%rbp), %rcx
	.loc	18 108 32 is_stmt 0
	movl	-76(%rbp), %eax
	.loc	18 108 5
	movq	%rcx, -936(%rbp)
	movl	%eax, -928(%rbp)
Ltmp179:
	.loc	18 109 2 is_stmt 1
	jmp	LBB30_40
LBB30_42:
Ltmp180:
	.loc	18 104 9
	movl	-76(%rbp), %eax
	subl	$1, %eax
	movl	%eax, -76(%rbp)
	.loc	18 103 5
	jmp	LBB30_41
Ltmp181:
Lfunc_end30:
	.cfi_endproc

	.globl	__ZN4core3num7dec2flt4slow19parse_long_mantissa17h4bf003e8dbb019b2E
	.p2align	4, 0x90
__ZN4core3num7dec2flt4slow19parse_long_mantissa17h4bf003e8dbb019b2E:
Lfunc_begin31:
	.loc	18 26 0
	.cfi_startproc
	pushq	%rbp
	.cfi_def_cfa_offset 16
	.cfi_offset %rbp, -16
	movq	%rsp, %rbp
	.cfi_def_cfa_register %rbp
	subq	$992, %rsp
	movq	%rdi, -968(%rbp)
	movq	%rsi, -952(%rbp)
	movq	%rdi, -72(%rbp)
	movq	%rsi, -64(%rbp)
Ltmp182:
	.loc	18 36 19 prologue_end
	xorl	%edi, %edi
	callq	__ZN4core3num7dec2flt6common8BiasedFp9zero_pow217hd9d409e4688b21a5E
	movq	%rax, -984(%rbp)
	movl	%edx, -972(%rbp)
	movq	%rax, -56(%rbp)
	movl	%edx, -48(%rbp)
Ltmp183:
	.loc	18 37 18
	movl	$2047, %edi
	callq	__ZN4core3num7dec2flt6common8BiasedFp9zero_pow217hd9d409e4688b21a5E
	movq	-968(%rbp), %rsi
	movq	%rax, %rcx
	movq	%rcx, -960(%rbp)
	movl	%edx, %eax
	movq	-952(%rbp), %rdx
	movl	%eax, -940(%rbp)
	movq	%rcx, -40(%rbp)
	movl	%eax, -32(%rbp)
Ltmp184:
	.loc	18 39 17
	leaq	-912(%rbp), %rdi
	callq	__ZN4core3num7dec2flt7decimal13parse_decimal17he94b4e052923b1b6E
Ltmp185:
	.loc	18 42 8
	cmpq	$0, -144(%rbp)
	jne	LBB31_2
	movb	$1, -125(%rbp)
	jmp	LBB31_3
LBB31_2:
	.loc	18 42 29 is_stmt 0
	cmpl	$-324, -136(%rbp)
	setl	%al
	.loc	18 42 8
	andb	$1, %al
	movb	%al, -125(%rbp)
LBB31_3:
	testb	$1, -125(%rbp)
	jne	LBB31_5
	.loc	18 44 15 is_stmt 1
	cmpl	$310, -136(%rbp)
	jge	LBB31_8
	jmp	LBB31_7
LBB31_5:
	.loc	18 0 15 is_stmt 0
	movl	-972(%rbp), %eax
	movq	-984(%rbp), %rcx
	.loc	18 43 16 is_stmt 1
	movq	%rcx, -936(%rbp)
	movl	%eax, -928(%rbp)
LBB31_6:
	.loc	19 1 1
	jmp	LBB31_9
LBB31_7:
	.loc	18 47 20
	movl	$0, -124(%rbp)
Ltmp186:
	.loc	18 49 5
	jmp	LBB31_10
Ltmp187:
LBB31_8:
	.loc	18 0 5 is_stmt 0
	movl	-940(%rbp), %eax
	movq	-960(%rbp), %rcx
	.loc	18 45 16 is_stmt 1
	movq	%rcx, -936(%rbp)
	movl	%eax, -928(%rbp)
	.loc	19 1 1
	jmp	LBB31_6
Ltmp188:
LBB31_9:
	.loc	18 109 2
	jmp	LBB31_40
LBB31_10:
Ltmp189:
	.loc	18 49 11
	cmpl	$0, -136(%rbp)
	jg	LBB31_12
	.loc	18 59 5
	jmp	LBB31_16
LBB31_12:
	.loc	18 50 17
	movslq	-136(%rbp), %rax
	movq	%rax, -24(%rbp)
Ltmp190:
	.loc	18 51 21
	movq	%rax, -120(%rbp)
	movq	-120(%rbp), %rsi
	leaq	-920(%rbp), %rdi
	callq	__ZN4core3num7dec2flt4slow19parse_long_mantissa28_$u7b$$u7b$closure$u7d$$u7d$17h732301ad6adfd9a8E
	movq	%rax, %rsi
	movq	%rsi, -992(%rbp)
	movq	%rsi, -16(%rbp)
Ltmp191:
	.loc	18 52 9
	leaq	-912(%rbp), %rdi
	callq	__ZN4core3num7dec2flt7decimal7Decimal11right_shift17hbef7261b911e484eE
	.loc	18 53 12
	cmpl	$-2047, -136(%rbp)
	jl	LBB31_14
	.loc	18 0 12 is_stmt 0
	movq	-992(%rbp), %rax
	.loc	18 56 9 is_stmt 1
	addl	-124(%rbp), %eax
	movl	%eax, -124(%rbp)
Ltmp192:
	.loc	18 49 5
	jmp	LBB31_10
LBB31_14:
	.loc	18 0 5 is_stmt 0
	movl	-972(%rbp), %eax
	movq	-984(%rbp), %rcx
Ltmp193:
	.loc	18 54 20 is_stmt 1
	movq	%rcx, -936(%rbp)
	movl	%eax, -928(%rbp)
Ltmp194:
LBB31_15:
	.loc	19 1 1
	jmp	LBB31_9
LBB31_16:
Ltmp195:
	.loc	18 59 11
	cmpl	$0, -136(%rbp)
	jle	LBB31_18
LBB31_17:
	.loc	18 76 5
	movl	-124(%rbp), %eax
	subl	$1, %eax
	movl	%eax, -124(%rbp)
	.loc	18 77 5
	jmp	LBB31_29
LBB31_18:
	.loc	18 60 24
	cmpl	$0, -136(%rbp)
	jne	LBB31_20
	.loc	18 62 17
	leaq	-912(%rbp), %rax
	movq	%rax, -8(%rbp)
	.loc	18 62 26 is_stmt 0
	cmpb	$5, -912(%rbp)
	jae	LBB31_23
	jmp	LBB31_22
LBB31_20:
	.loc	18 67 23 is_stmt 1
	xorl	%eax, %eax
	subl	-136(%rbp), %eax
	cltq
	.loc	18 67 13 is_stmt 0
	movq	%rax, -104(%rbp)
	movq	-104(%rbp), %rsi
	leaq	-920(%rbp), %rdi
	callq	__ZN4core3num7dec2flt4slow19parse_long_mantissa28_$u7b$$u7b$closure$u7d$$u7d$17h732301ad6adfd9a8E
	movq	%rax, -112(%rbp)
LBB31_21:
Ltmp196:
	.loc	18 69 22 is_stmt 1
	movq	-112(%rbp), %rsi
	.loc	18 69 9 is_stmt 0
	leaq	-912(%rbp), %rdi
	callq	__ZN4core3num7dec2flt7decimal7Decimal10left_shift17hb49663691319c6cbE
	.loc	18 70 12 is_stmt 1
	cmpl	$2047, -136(%rbp)
	jg	LBB31_28
	jmp	LBB31_27
Ltmp197:
LBB31_22:
	.loc	18 61 13
	movb	-912(%rbp), %al
	subb	$2, %al
	jb	LBB31_25
	jmp	LBB31_24
LBB31_23:
	.loc	19 1 1
	jmp	LBB31_17
LBB31_24:
	.loc	18 64 22
	movq	$1, -112(%rbp)
	jmp	LBB31_26
LBB31_25:
	.loc	18 63 26
	movq	$2, -112(%rbp)
LBB31_26:
	.loc	18 60 21
	jmp	LBB31_21
LBB31_27:
Ltmp198:
	.loc	18 73 17
	movq	-112(%rbp), %rax
	movl	%eax, %ecx
	.loc	18 73 9 is_stmt 0
	movl	-124(%rbp), %eax
	subl	%ecx, %eax
	movl	%eax, -124(%rbp)
Ltmp199:
	.loc	18 59 5 is_stmt 1
	jmp	LBB31_16
LBB31_28:
	.loc	18 0 5 is_stmt 0
	movl	-940(%rbp), %eax
	movq	-960(%rbp), %rcx
Ltmp200:
	.loc	18 71 20 is_stmt 1
	movq	%rcx, -936(%rbp)
	movl	%eax, -928(%rbp)
Ltmp201:
	.loc	19 1 1
	jmp	LBB31_15
LBB31_29:
	.loc	18 77 11
	movl	$4294966274, %eax
	cmpl	-124(%rbp), %eax
	jg	LBB31_31
	.loc	18 85 9
	movl	-124(%rbp), %eax
	.loc	18 85 8 is_stmt 0
	subl	$-1023, %eax
	cmpl	$2047, %eax
	jge	LBB31_35
	jmp	LBB31_34
LBB31_31:
	.loc	18 78 21 is_stmt 1
	movl	$4294966274, %eax
	subl	-124(%rbp), %eax
	cltq
	movq	%rax, -96(%rbp)
Ltmp202:
	.loc	18 79 12
	cmpq	$60, -96(%rbp)
	ja	LBB31_33
LBB31_32:
	.loc	18 82 23
	movq	-96(%rbp), %rsi
	.loc	18 82 9 is_stmt 0
	leaq	-912(%rbp), %rdi
	callq	__ZN4core3num7dec2flt7decimal7Decimal11right_shift17hbef7261b911e484eE
	.loc	18 83 17 is_stmt 1
	movq	-96(%rbp), %rax
	.loc	18 83 9 is_stmt 0
	addl	-124(%rbp), %eax
	movl	%eax, -124(%rbp)
Ltmp203:
	.loc	18 77 5 is_stmt 1
	jmp	LBB31_29
LBB31_33:
Ltmp204:
	.loc	18 80 13
	movq	$60, -96(%rbp)
	.loc	18 79 9
	jmp	LBB31_32
Ltmp205:
LBB31_34:
	.loc	18 90 5
	leaq	-912(%rbp), %rdi
	movl	$53, %esi
	callq	__ZN4core3num7dec2flt7decimal7Decimal10left_shift17hb49663691319c6cbE
	.loc	18 91 24
	leaq	-912(%rbp), %rdi
	callq	__ZN4core3num7dec2flt7decimal7Decimal5round17h01e343917b97ddb0E
	movq	%rax, -88(%rbp)
Ltmp206:
	.loc	18 92 8
	movabsq	$9007199254740992, %rax
	cmpq	%rax, -88(%rbp)
	jae	LBB31_37
	jmp	LBB31_36
Ltmp207:
LBB31_35:
	.loc	18 0 8 is_stmt 0
	movl	-940(%rbp), %eax
	movq	-960(%rbp), %rcx
	.loc	18 86 16 is_stmt 1
	movq	%rcx, -936(%rbp)
	movl	%eax, -928(%rbp)
	.loc	19 1 1
	jmp	LBB31_15
LBB31_36:
Ltmp208:
	.loc	18 102 22
	movl	-124(%rbp), %eax
	subl	$-1023, %eax
	movl	%eax, -76(%rbp)
Ltmp209:
	.loc	18 103 8
	movabsq	$4503599627370496, %rax
	cmpq	%rax, -88(%rbp)
	jb	LBB31_42
	jmp	LBB31_41
Ltmp210:
LBB31_37:
	.loc	18 95 9
	leaq	-912(%rbp), %rdi
	movl	$1, %esi
	callq	__ZN4core3num7dec2flt7decimal7Decimal11right_shift17hbef7261b911e484eE
	.loc	18 96 9
	movl	-124(%rbp), %eax
	addl	$1, %eax
	movl	%eax, -124(%rbp)
	.loc	18 97 20
	leaq	-912(%rbp), %rdi
	callq	__ZN4core3num7dec2flt7decimal7Decimal5round17h01e343917b97ddb0E
	.loc	18 97 9 is_stmt 0
	movq	%rax, -88(%rbp)
	.loc	18 98 13 is_stmt 1
	movl	-124(%rbp), %eax
	.loc	18 98 12 is_stmt 0
	subl	$-1023, %eax
	cmpl	$2047, %eax
	jge	LBB31_39
	.loc	18 92 5 is_stmt 1
	jmp	LBB31_36
LBB31_39:
	.loc	18 0 5 is_stmt 0
	movl	-940(%rbp), %eax
	movq	-960(%rbp), %rcx
	.loc	18 99 20 is_stmt 1
	movq	%rcx, -936(%rbp)
	movl	%eax, -928(%rbp)
Ltmp211:
	.loc	19 1 1
	jmp	LBB31_15
Ltmp212:
LBB31_40:
	.loc	18 109 2
	movq	-936(%rbp), %rax
	movl	-928(%rbp), %edx
	addq	$992, %rsp
	popq	%rbp
	retq
LBB31_41:
Ltmp213:
	.loc	18 107 5
	movabsq	$4503599627370495, %rax
	andq	-88(%rbp), %rax
	movq	%rax, -88(%rbp)
	.loc	18 108 19
	movq	-88(%rbp), %rcx
	.loc	18 108 32 is_stmt 0
	movl	-76(%rbp), %eax
	.loc	18 108 5
	movq	%rcx, -936(%rbp)
	movl	%eax, -928(%rbp)
Ltmp214:
	.loc	18 109 2 is_stmt 1
	jmp	LBB31_40
LBB31_42:
Ltmp215:
	.loc	18 104 9
	movl	-76(%rbp), %eax
	subl	$1, %eax
	movl	%eax, -76(%rbp)
	.loc	18 103 5
	jmp	LBB31_41
Ltmp216:
Lfunc_end31:
	.cfi_endproc

	.globl	__ZN4core3num7dec2flt4slow19parse_long_mantissa28_$u7b$$u7b$closure$u7d$$u7d$17h732301ad6adfd9a8E
	.p2align	4, 0x90
__ZN4core3num7dec2flt4slow19parse_long_mantissa28_$u7b$$u7b$closure$u7d$$u7d$17h732301ad6adfd9a8E:
Lfunc_begin32:
	.loc	18 32 0
	.cfi_startproc
	pushq	%rbp
	.cfi_def_cfa_offset 16
	.cfi_offset %rbp, -16
	movq	%rsp, %rbp
	.cfi_def_cfa_register %rbp
	subq	$64, %rsp
	movq	%rsi, -56(%rbp)
	movq	%rdi, -16(%rbp)
	movq	%rsi, -8(%rbp)
Ltmp217:
	.loc	18 33 12 prologue_end
	cmpq	$19, %rsi
	jb	LBB32_2
	.loc	18 33 57 is_stmt 0
	movq	$60, -48(%rbp)
	.loc	18 33 9
	jmp	LBB32_5
LBB32_2:
	.loc	18 0 9
	movq	-56(%rbp), %rax
	.loc	18 33 29
	movq	l___unnamed_6(%rip), %rcx
	movq	%rcx, -35(%rbp)
	movq	l___unnamed_6+8(%rip), %rcx
	movq	%rcx, -27(%rbp)
	movw	l___unnamed_6+16(%rip), %cx
	movw	%cx, -19(%rbp)
	movb	l___unnamed_6+18(%rip), %cl
	movb	%cl, -17(%rbp)
	cmpq	$19, %rax
	setb	%al
	testb	$1, %al
	jne	LBB32_3
	jmp	LBB32_4
LBB32_3:
	.loc	18 0 29
	movq	-56(%rbp), %rax
	.loc	18 33 29
	movzbl	-35(%rbp,%rax), %eax
	movq	%rax, -48(%rbp)
	.loc	18 33 9
	jmp	LBB32_5
LBB32_4:
	.loc	18 0 9
	movq	-56(%rbp), %rdi
	.loc	18 33 29
	leaq	l___unnamed_7(%rip), %rdx
	movl	$19, %esi
	callq	__ZN4core9panicking18panic_bounds_check17hacb8a94866cda541E
LBB32_5:
	.loc	18 34 6 is_stmt 1
	movq	-48(%rbp), %rax
	addq	$64, %rsp
	popq	%rbp
	retq
Ltmp218:
Lfunc_end32:
	.cfi_endproc

	.globl	__ZN4core3num7dec2flt4slow19parse_long_mantissa28_$u7b$$u7b$closure$u7d$$u7d$17h87a9a191df01a0b7E
	.p2align	4, 0x90
__ZN4core3num7dec2flt4slow19parse_long_mantissa28_$u7b$$u7b$closure$u7d$$u7d$17h87a9a191df01a0b7E:
Lfunc_begin33:
	.loc	18 32 0
	.cfi_startproc
	pushq	%rbp
	.cfi_def_cfa_offset 16
	.cfi_offset %rbp, -16
	movq	%rsp, %rbp
	.cfi_def_cfa_register %rbp
	subq	$64, %rsp
	movq	%rsi, -56(%rbp)
	movq	%rdi, -16(%rbp)
	movq	%rsi, -8(%rbp)
Ltmp219:
	.loc	18 33 12 prologue_end
	cmpq	$19, %rsi
	jb	LBB33_2
	.loc	18 33 57 is_stmt 0
	movq	$60, -48(%rbp)
	.loc	18 33 9
	jmp	LBB33_5
LBB33_2:
	.loc	18 0 9
	movq	-56(%rbp), %rax
	.loc	18 33 29
	movq	l___unnamed_6(%rip), %rcx
	movq	%rcx, -35(%rbp)
	movq	l___unnamed_6+8(%rip), %rcx
	movq	%rcx, -27(%rbp)
	movw	l___unnamed_6+16(%rip), %cx
	movw	%cx, -19(%rbp)
	movb	l___unnamed_6+18(%rip), %cl
	movb	%cl, -17(%rbp)
	cmpq	$19, %rax
	setb	%al
	testb	$1, %al
	jne	LBB33_3
	jmp	LBB33_4
LBB33_3:
	.loc	18 0 29
	movq	-56(%rbp), %rax
	.loc	18 33 29
	movzbl	-35(%rbp,%rax), %eax
	movq	%rax, -48(%rbp)
	.loc	18 33 9
	jmp	LBB33_5
LBB33_4:
	.loc	18 0 9
	movq	-56(%rbp), %rdi
	.loc	18 33 29
	leaq	l___unnamed_7(%rip), %rdx
	movl	$19, %esi
	callq	__ZN4core9panicking18panic_bounds_check17hacb8a94866cda541E
LBB33_5:
	.loc	18 34 6 is_stmt 1
	movq	-48(%rbp), %rax
	addq	$64, %rsp
	popq	%rbp
	retq
Ltmp220:
Lfunc_end33:
	.cfi_endproc

	.globl	__ZN4core3num7dec2flt5parse13parse_inf_nan17hc66a089bc0ba2f62E
	.p2align	4, 0x90
__ZN4core3num7dec2flt5parse13parse_inf_nan17hc66a089bc0ba2f62E:
Lfunc_begin34:
	.file	20 "/rustc/2c8cc343237b8f7d5a3c3703e3a87f2eb2c54a74/library/core/src/num/dec2flt" "parse.rs"
	.loc	20 223 0
	.cfi_startproc
	pushq	%rbp
	.cfi_def_cfa_offset 16
	.cfi_offset %rbp, -16
	movq	%rsp, %rbp
	.cfi_def_cfa_register %rbp
	subq	$96, %rsp
	movl	%edx, %eax
	movq	%rsi, %rdx
	movq	%rdx, -88(%rbp)
	movq	%rdi, %rsi
	movb	%al, -73(%rbp)
	movq	%rsi, -32(%rbp)
	movq	%rdx, -24(%rbp)
	andb	$1, %al
	movb	%al, -9(%rbp)
Ltmp221:
	.loc	20 224 38 prologue_end
	leaq	-64(%rbp), %rdi
	callq	__ZN4core3num7dec2flt5parse21parse_partial_inf_nan17h3c2b7615709a61c0E
	.loc	20 224 12 is_stmt 0
	cmpq	$1, -64(%rbp)
	jne	LBB34_2
	.loc	20 0 12
	movq	-88(%rbp), %rcx
	.loc	20 224 18
	movss	-56(%rbp), %xmm0
	movss	%xmm0, -36(%rbp)
	.loc	20 224 29
	movq	-48(%rbp), %rax
	movq	%rax, -8(%rbp)
	.loc	20 225 12 is_stmt 1
	cmpq	%rcx, %rax
	je	LBB34_4
	jmp	LBB34_3
Ltmp222:
LBB34_2:
	.loc	20 232 5
	movl	$0, -72(%rbp)
	.loc	20 233 2
	jmp	LBB34_7
LBB34_3:
	.loc	20 224 5
	jmp	LBB34_2
LBB34_4:
	.loc	20 0 5 is_stmt 0
	movb	-73(%rbp), %al
Ltmp223:
	.loc	20 226 16 is_stmt 1
	testb	$1, %al
	jne	LBB34_6
	jmp	LBB34_5
LBB34_5:
	.loc	20 229 25
	movss	-36(%rbp), %xmm0
	.loc	20 229 20 is_stmt 0
	movss	%xmm0, -68(%rbp)
	movl	$1, -72(%rbp)
Ltmp224:
	.loc	20 233 2 is_stmt 1
	jmp	LBB34_7
LBB34_6:
Ltmp225:
	.loc	20 227 26
	movss	-36(%rbp), %xmm0
	.loc	20 227 25 is_stmt 0
	callq	__ZN45_$LT$f32$u20$as$u20$core..ops..arith..Neg$GT$3neg17h8ed6bca1fc25514dE
	.loc	20 227 17
	movss	%xmm0, -36(%rbp)
	.loc	20 226 13 is_stmt 1
	jmp	LBB34_5
Ltmp226:
LBB34_7:
	.loc	20 233 2
	movl	-72(%rbp), %eax
	movss	-68(%rbp), %xmm0
	addq	$96, %rsp
	popq	%rbp
	retq
Ltmp227:
Lfunc_end34:
	.cfi_endproc

	.globl	__ZN4core3num7dec2flt5parse13parse_inf_nan17hf2c61ab120468374E
	.p2align	4, 0x90
__ZN4core3num7dec2flt5parse13parse_inf_nan17hf2c61ab120468374E:
Lfunc_begin35:
	.loc	20 223 0
	.cfi_startproc
	pushq	%rbp
	.cfi_def_cfa_offset 16
	.cfi_offset %rbp, -16
	movq	%rsp, %rbp
	.cfi_def_cfa_register %rbp
	subq	$96, %rsp
	movl	%edx, %eax
	movq	%rsi, %rdx
	movq	%rdx, -96(%rbp)
	movq	%rdi, %rsi
	movb	%al, -81(%rbp)
	movq	%rsi, -32(%rbp)
	movq	%rdx, -24(%rbp)
	andb	$1, %al
	movb	%al, -9(%rbp)
Ltmp228:
	.loc	20 224 38 prologue_end
	leaq	-64(%rbp), %rdi
	callq	__ZN4core3num7dec2flt5parse21parse_partial_inf_nan17h32ab8d4da3403918E
	.loc	20 224 12 is_stmt 0
	cmpq	$1, -64(%rbp)
	jne	LBB35_2
	.loc	20 0 12
	movq	-96(%rbp), %rcx
	.loc	20 224 18
	movsd	-56(%rbp), %xmm0
	movsd	%xmm0, -40(%rbp)
	.loc	20 224 29
	movq	-48(%rbp), %rax
	movq	%rax, -8(%rbp)
	.loc	20 225 12 is_stmt 1
	cmpq	%rcx, %rax
	je	LBB35_4
	jmp	LBB35_3
Ltmp229:
LBB35_2:
	.loc	20 232 5
	movq	$0, -80(%rbp)
	.loc	20 233 2
	jmp	LBB35_7
LBB35_3:
	.loc	20 224 5
	jmp	LBB35_2
LBB35_4:
	.loc	20 0 5 is_stmt 0
	movb	-81(%rbp), %al
Ltmp230:
	.loc	20 226 16 is_stmt 1
	testb	$1, %al
	jne	LBB35_6
	jmp	LBB35_5
LBB35_5:
	.loc	20 229 25
	movsd	-40(%rbp), %xmm0
	.loc	20 229 20 is_stmt 0
	movsd	%xmm0, -72(%rbp)
	movq	$1, -80(%rbp)
Ltmp231:
	.loc	20 233 2 is_stmt 1
	jmp	LBB35_7
LBB35_6:
Ltmp232:
	.loc	20 227 26
	movsd	-40(%rbp), %xmm0
	.loc	20 227 25 is_stmt 0
	callq	__ZN45_$LT$f64$u20$as$u20$core..ops..arith..Neg$GT$3neg17h33fe1ffa20e4f522E
	.loc	20 227 17
	movsd	%xmm0, -40(%rbp)
	.loc	20 226 13 is_stmt 1
	jmp	LBB35_5
Ltmp233:
LBB35_7:
	.loc	20 233 2
	movq	-80(%rbp), %rax
	movsd	-72(%rbp), %xmm0
	addq	$96, %rsp
	popq	%rbp
	retq
Ltmp234:
Lfunc_end35:
	.cfi_endproc

	.section	__TEXT,__literal8,8byte_literals
	.p2align	3
LCPI36_0:
	.quad	0x7ff0000000000000
LCPI36_1:
	.quad	0x7ff8000000000000
	.section	__TEXT,__text,regular,pure_instructions
	.globl	__ZN4core3num7dec2flt5parse21parse_partial_inf_nan17h32ab8d4da3403918E
	.p2align	4, 0x90
__ZN4core3num7dec2flt5parse21parse_partial_inf_nan17h32ab8d4da3403918E:
Lfunc_begin36:
	.loc	20 208 0
	.cfi_startproc
	pushq	%rbp
	.cfi_def_cfa_offset 16
	.cfi_offset %rbp, -16
	movq	%rsp, %rbp
	.cfi_def_cfa_register %rbp
	subq	$80, %rsp
	movq	%rdx, -80(%rbp)
	movq	%rsi, -72(%rbp)
	movq	%rdi, -64(%rbp)
	movq	%rdi, -56(%rbp)
	movq	%rsi, -16(%rbp)
	movq	%rdx, -8(%rbp)
Ltmp235:
	.loc	20 212 8 prologue_end
	cmpq	$3, %rdx
	jae	LBB36_2
LBB36_1:
	.loc	20 0 8 is_stmt 0
	movq	-64(%rbp), %rax
	.loc	20 219 5 is_stmt 1
	movq	$0, (%rax)
	.loc	20 220 2
	jmp	LBB36_8
LBB36_2:
	.loc	20 0 2 is_stmt 0
	movq	-80(%rbp), %rsi
	movq	-72(%rbp), %rdi
	.loc	20 213 12 is_stmt 1
	leaq	l___unnamed_8(%rip), %rdx
	movl	$3, %ecx
	callq	__ZN4core3num7dec2flt6common9ByteSlice23starts_with_ignore_case17hb97222ef86f18172E
	testb	$1, %al
	jne	LBB36_4
	.loc	20 0 12 is_stmt 0
	movq	-80(%rbp), %rsi
	movq	-72(%rbp), %rdi
	.loc	20 215 19 is_stmt 1
	leaq	l___unnamed_9(%rip), %rdx
	movl	$3, %ecx
	callq	__ZN4core3num7dec2flt6common9ByteSlice23starts_with_ignore_case17hb97222ef86f18172E
	testb	$1, %al
	jne	LBB36_7
	jmp	LBB36_6
LBB36_4:
	.loc	20 0 19 is_stmt 0
	movq	-64(%rbp), %rax
	.loc	20 214 25 is_stmt 1
	movsd	LCPI36_1(%rip), %xmm0
	movsd	%xmm0, -48(%rbp)
	movq	$3, -40(%rbp)
	.loc	20 214 20 is_stmt 0
	movsd	-48(%rbp), %xmm0
	movq	-40(%rbp), %rcx
	movsd	%xmm0, 8(%rax)
	movq	%rcx, 16(%rax)
	movq	$1, (%rax)
LBB36_5:
	.loc	20 220 2 is_stmt 1
	jmp	LBB36_8
LBB36_6:
	.loc	20 212 5
	jmp	LBB36_1
LBB36_7:
	.loc	20 0 5 is_stmt 0
	movq	-80(%rbp), %rsi
	movq	-72(%rbp), %rdi
	.loc	20 216 39 is_stmt 1
	callq	__ZN4core3num7dec2flt5parse21parse_partial_inf_nan14parse_inf_rest17h81ecac827a6c4cdaE
	movq	%rax, %rcx
	movq	-64(%rbp), %rax
	.loc	20 216 25 is_stmt 0
	movsd	LCPI36_0(%rip), %xmm0
	movsd	%xmm0, -32(%rbp)
	movq	%rcx, -24(%rbp)
	.loc	20 216 20
	movsd	-32(%rbp), %xmm0
	movq	-24(%rbp), %rcx
	movsd	%xmm0, 8(%rax)
	movq	%rcx, 16(%rax)
	movq	$1, (%rax)
	.loc	19 1 1 is_stmt 1
	jmp	LBB36_5
LBB36_8:
	.loc	19 0 1 is_stmt 0
	movq	-56(%rbp), %rax
	.loc	20 220 2 is_stmt 1
	addq	$80, %rsp
	popq	%rbp
	retq
Ltmp236:
Lfunc_end36:
	.cfi_endproc

	.section	__TEXT,__literal4,4byte_literals
	.p2align	2
LCPI37_0:
	.long	0x7f800000
LCPI37_1:
	.long	0x7fc00000
	.section	__TEXT,__text,regular,pure_instructions
	.globl	__ZN4core3num7dec2flt5parse21parse_partial_inf_nan17h3c2b7615709a61c0E
	.p2align	4, 0x90
__ZN4core3num7dec2flt5parse21parse_partial_inf_nan17h3c2b7615709a61c0E:
Lfunc_begin37:
	.loc	20 208 0
	.cfi_startproc
	pushq	%rbp
	.cfi_def_cfa_offset 16
	.cfi_offset %rbp, -16
	movq	%rsp, %rbp
	.cfi_def_cfa_register %rbp
	subq	$80, %rsp
	movq	%rdx, -80(%rbp)
	movq	%rsi, -72(%rbp)
	movq	%rdi, -64(%rbp)
	movq	%rdi, -56(%rbp)
	movq	%rsi, -16(%rbp)
	movq	%rdx, -8(%rbp)
Ltmp237:
	.loc	20 212 8 prologue_end
	cmpq	$3, %rdx
	jae	LBB37_2
LBB37_1:
	.loc	20 0 8 is_stmt 0
	movq	-64(%rbp), %rax
	.loc	20 219 5 is_stmt 1
	movq	$0, (%rax)
	.loc	20 220 2
	jmp	LBB37_8
LBB37_2:
	.loc	20 0 2 is_stmt 0
	movq	-80(%rbp), %rsi
	movq	-72(%rbp), %rdi
	.loc	20 213 12 is_stmt 1
	leaq	l___unnamed_8(%rip), %rdx
	movl	$3, %ecx
	callq	__ZN4core3num7dec2flt6common9ByteSlice23starts_with_ignore_case17hb97222ef86f18172E
	testb	$1, %al
	jne	LBB37_4
	.loc	20 0 12 is_stmt 0
	movq	-80(%rbp), %rsi
	movq	-72(%rbp), %rdi
	.loc	20 215 19 is_stmt 1
	leaq	l___unnamed_9(%rip), %rdx
	movl	$3, %ecx
	callq	__ZN4core3num7dec2flt6common9ByteSlice23starts_with_ignore_case17hb97222ef86f18172E
	testb	$1, %al
	jne	LBB37_7
	jmp	LBB37_6
LBB37_4:
	.loc	20 0 19 is_stmt 0
	movq	-64(%rbp), %rax
	.loc	20 214 25 is_stmt 1
	movss	LCPI37_1(%rip), %xmm0
	movss	%xmm0, -48(%rbp)
	movq	$3, -40(%rbp)
	.loc	20 214 20 is_stmt 0
	movss	-48(%rbp), %xmm0
	movq	-40(%rbp), %rcx
	movss	%xmm0, 8(%rax)
	movq	%rcx, 16(%rax)
	movq	$1, (%rax)
LBB37_5:
	.loc	20 220 2 is_stmt 1
	jmp	LBB37_8
LBB37_6:
	.loc	20 212 5
	jmp	LBB37_1
LBB37_7:
	.loc	20 0 5 is_stmt 0
	movq	-80(%rbp), %rsi
	movq	-72(%rbp), %rdi
	.loc	20 216 39 is_stmt 1
	callq	__ZN4core3num7dec2flt5parse21parse_partial_inf_nan14parse_inf_rest17h81ecac827a6c4cdaE
	movq	%rax, %rcx
	movq	-64(%rbp), %rax
	.loc	20 216 25 is_stmt 0
	movss	LCPI37_0(%rip), %xmm0
	movss	%xmm0, -32(%rbp)
	movq	%rcx, -24(%rbp)
	.loc	20 216 20
	movss	-32(%rbp), %xmm0
	movq	-24(%rbp), %rcx
	movss	%xmm0, 8(%rax)
	movq	%rcx, 16(%rax)
	movq	$1, (%rax)
	.loc	19 1 1 is_stmt 1
	jmp	LBB37_5
LBB37_8:
	.loc	19 0 1 is_stmt 0
	movq	-56(%rbp), %rax
	.loc	20 220 2 is_stmt 1
	addq	$80, %rsp
	popq	%rbp
	retq
Ltmp238:
Lfunc_end37:
	.cfi_endproc

	.p2align	4, 0x90
__ZN4core3num7dec2flt60_$LT$impl$u20$core..str..traits..FromStr$u20$for$u20$f32$GT$8from_str17h1e9c5f9555963b97E:
Lfunc_begin38:
	.loc	16 150 0
	.cfi_startproc
	pushq	%rbp
	.cfi_def_cfa_offset 16
	.cfi_offset %rbp, -16
	movq	%rsp, %rbp
	.cfi_def_cfa_register %rbp
	subq	$32, %rsp
	movq	%rdi, -24(%rbp)
	movq	%rsi, -16(%rbp)
Ltmp239:
	.loc	16 151 17 prologue_end
	callq	__ZN4core3num7dec2flt7dec2flt17hda60e6ebfa5e5b4aE
	movq	%rax, -8(%rbp)
	movq	-8(%rbp), %rax
	movq	%rax, -32(%rbp)
	.loc	16 152 14
	movq	-32(%rbp), %rax
	addq	$32, %rsp
	popq	%rbp
	retq
Ltmp240:
Lfunc_end38:
	.cfi_endproc

	.p2align	4, 0x90
__ZN4core3num7dec2flt60_$LT$impl$u20$core..str..traits..FromStr$u20$for$u20$f64$GT$8from_str17hf917219518fc986bE:
Lfunc_begin39:
	.loc	16 150 0
	.cfi_startproc
	pushq	%rbp
	.cfi_def_cfa_offset 16
	.cfi_offset %rbp, -16
	movq	%rsp, %rbp
	.cfi_def_cfa_register %rbp
	subq	$32, %rsp
	movq	%rdi, %rax
	movq	%rax, -24(%rbp)
	movq	%rsi, -16(%rbp)
	movq	%rdx, -8(%rbp)
Ltmp241:
	.loc	16 151 17 prologue_end
	callq	__ZN4core3num7dec2flt7dec2flt17hb9aa9b712e363ba8E
	movq	-24(%rbp), %rax
	.loc	16 152 14
	addq	$32, %rsp
	popq	%rbp
	retq
Ltmp242:
Lfunc_end39:
	.cfi_endproc

	.globl	__ZN4core3num7dec2flt6common9ByteSlice23starts_with_ignore_case17hb97222ef86f18172E
	.p2align	4, 0x90
__ZN4core3num7dec2flt6common9ByteSlice23starts_with_ignore_case17hb97222ef86f18172E:
Lfunc_begin40:
	.file	21 "/rustc/2c8cc343237b8f7d5a3c3703e3a87f2eb2c54a74/library/core/src/num/dec2flt" "common.rs"
	.loc	21 39 0
	.cfi_startproc
	pushq	%rbp
	.cfi_def_cfa_offset 16
	.cfi_offset %rbp, -16
	movq	%rsp, %rbp
	.cfi_def_cfa_register %rbp
	subq	$240, %rsp
	movq	%rdx, -240(%rbp)
	movq	%rcx, -232(%rbp)
	movq	%rdi, -88(%rbp)
	movq	%rsi, -80(%rbp)
	movq	%rdx, -72(%rbp)
	movq	%rcx, -64(%rbp)
	movq	%rdi, -16(%rbp)
	movq	%rsi, -8(%rbp)
Ltmp243:
	.loc	21 41 20 prologue_end
	movq	%rdi, -56(%rbp)
	movq	%rsi, -48(%rbp)
Ltmp244:
	.file	22 "/rustc/2c8cc343237b8f7d5a3c3703e3a87f2eb2c54a74/library/core/src/slice" "mod.rs"
	.loc	22 742 9
	callq	__ZN4core5slice4iter13Iter$LT$T$GT$3new17hdeeaf60433ad8842E
	movq	-240(%rbp), %rdi
	movq	-232(%rbp), %rsi
	movq	%rax, -224(%rbp)
	movq	%rdx, -216(%rbp)
Ltmp245:
	.loc	21 41 45
	movq	%rdi, -40(%rbp)
	movq	%rsi, -32(%rbp)
Ltmp246:
	.loc	22 742 9
	callq	__ZN4core5slice4iter13Iter$LT$T$GT$3new17hdeeaf60433ad8842E
	movq	-224(%rbp), %rsi
	movq	%rax, %rcx
	movq	%rdx, %r8
	movq	-216(%rbp), %rdx
Ltmp247:
	.loc	21 41 20
	leaq	-200(%rbp), %rdi
	callq	__ZN4core4iter6traits8iterator8Iterator3zip17h32fda0b438880a37E
Ltmp248:
	.loc	21 42 17
	leaq	-144(%rbp), %rdi
	leaq	-200(%rbp), %rsi
	movl	$56, %edx
	callq	_memcpy
	leaq	-144(%rbp), %rdi
	xorl	%esi, %esi
	callq	__ZN4core4iter6traits8iterator8Iterator4fold17h108eed9f0340775eE
	movb	%al, -202(%rbp)
	movb	%al, -17(%rbp)
Ltmp249:
	.loc	21 43 9
	cmpb	$0, %al
	jne	LBB40_2
	movb	$1, -201(%rbp)
	jmp	LBB40_3
LBB40_2:
	.loc	21 0 9 is_stmt 0
	movb	-202(%rbp), %al
	.loc	21 43 19
	cmpb	$32, %al
	sete	%al
	.loc	21 43 9
	andb	$1, %al
	movb	%al, -201(%rbp)
Ltmp250:
LBB40_3:
	.loc	21 44 6 is_stmt 1
	movb	-201(%rbp), %al
	andb	$1, %al
	movzbl	%al, %eax
	addq	$240, %rsp
	popq	%rbp
	retq
Ltmp251:
Lfunc_end40:
	.cfi_endproc

	.globl	__ZN4core3num7dec2flt6common9ByteSlice23starts_with_ignore_case28_$u7b$$u7b$closure$u7d$$u7d$17h18132fd0e2e3ada4E
	.p2align	4, 0x90
__ZN4core3num7dec2flt6common9ByteSlice23starts_with_ignore_case28_$u7b$$u7b$closure$u7d$$u7d$17h18132fd0e2e3ada4E:
Lfunc_begin41:
	.loc	21 42 0
	.cfi_startproc
	pushq	%rbp
	.cfi_def_cfa_offset 16
	.cfi_offset %rbp, -16
	movq	%rsp, %rbp
	.cfi_def_cfa_register %rbp
	subq	$32, %rsp
	movb	%sil, %al
	movq	%rdx, -32(%rbp)
	movq	%rcx, -24(%rbp)
	movq	%rdi, -16(%rbp)
	movb	%al, -3(%rbp)
Ltmp252:
	.loc	21 42 36 prologue_end
	movq	-32(%rbp), %rcx
	movb	(%rcx), %cl
	movb	%cl, -2(%rbp)
	.loc	21 42 40 is_stmt 0
	movq	-24(%rbp), %rdx
	movb	(%rdx), %dl
	movb	%dl, -1(%rbp)
Ltmp253:
	.loc	21 42 48
	xorb	%dl, %cl
	.loc	21 42 44
	orb	%cl, %al
Ltmp254:
	.loc	21 42 55
	addq	$32, %rsp
	popq	%rbp
	retq
Ltmp255:
Lfunc_end41:
	.cfi_endproc

	.globl	__ZN4core3num7dec2flt6common9ByteSlice7advance17h2d16804f97d24305E
	.p2align	4, 0x90
__ZN4core3num7dec2flt6common9ByteSlice7advance17h2d16804f97d24305E:
Lfunc_begin42:
	.loc	21 47 0 is_stmt 1
	.cfi_startproc
	pushq	%rbp
	.cfi_def_cfa_offset 16
	.cfi_offset %rbp, -16
	movq	%rsp, %rbp
	.cfi_def_cfa_register %rbp
	subq	$64, %rsp
	movq	%rdx, %rax
	movq	%rsi, %rdx
	movq	%rdi, %rsi
	movq	%rsi, -56(%rbp)
	movq	%rdx, -48(%rbp)
	movq	%rax, -40(%rbp)
	movq	%rsi, -16(%rbp)
	movq	%rdx, -8(%rbp)
Ltmp256:
	.loc	21 48 10 prologue_end
	movq	%rsi, -32(%rbp)
	movq	%rdx, -24(%rbp)
	.loc	21 48 24 is_stmt 0
	movq	%rax, -64(%rbp)
Ltmp257:
	.loc	4 18 9 is_stmt 1
	movq	-64(%rbp), %rdi
	leaq	l___unnamed_10(%rip), %rcx
	callq	__ZN110_$LT$core..ops..range..RangeFrom$LT$usize$GT$$u20$as$u20$core..slice..index..SliceIndex$LT$$u5b$T$u5d$$GT$$GT$5index17h6f78132fbc44ccb6E
Ltmp258:
	.loc	21 49 6
	addq	$64, %rsp
	popq	%rbp
	retq
Ltmp259:
Lfunc_end42:
	.cfi_endproc

	.globl	__ZN4core3num7dec2flt6lemire13compute_float17h597cda940da6b26bE
	.p2align	4, 0x90
__ZN4core3num7dec2flt6lemire13compute_float17h597cda940da6b26bE:
Lfunc_begin43:
	.file	23 "/rustc/2c8cc343237b8f7d5a3c3703e3a87f2eb2c54a74/library/core/src/num/dec2flt" "lemire.rs"
	.loc	23 27 0
	.cfi_startproc
	pushq	%rbp
	.cfi_def_cfa_offset 16
	.cfi_offset %rbp, -16
	movq	%rsp, %rbp
	.cfi_def_cfa_register %rbp
	subq	$240, %rsp
	movq	%rdi, -208(%rbp)
	movq	%rsi, -152(%rbp)
	movq	%rdi, -104(%rbp)
Ltmp260:
	.loc	23 28 19 prologue_end
	xorl	%edi, %edi
	callq	__ZN4core3num7dec2flt6common8BiasedFp9zero_pow217hd9d409e4688b21a5E
	movq	%rax, -200(%rbp)
	movl	%edx, -188(%rbp)
	movq	%rax, -96(%rbp)
	movl	%edx, -88(%rbp)
Ltmp261:
	.loc	23 29 18
	movl	$2047, %edi
	callq	__ZN4core3num7dec2flt6common8BiasedFp9zero_pow217hd9d409e4688b21a5E
	movq	%rax, -184(%rbp)
	movl	%edx, -172(%rbp)
	movq	%rax, -80(%rbp)
	movl	%edx, -72(%rbp)
Ltmp262:
	.loc	23 30 20
	movl	$4294967295, %edi
	callq	__ZN4core3num7dec2flt6common8BiasedFp9zero_pow217hd9d409e4688b21a5E
	movq	%rax, -168(%rbp)
	movl	%edx, -156(%rbp)
	movq	%rax, -64(%rbp)
	movl	%edx, -56(%rbp)
Ltmp263:
	.loc	23 33 8
	cmpq	$0, -152(%rbp)
	jne	LBB43_2
	movb	$1, -122(%rbp)
	jmp	LBB43_3
LBB43_2:
	.loc	23 0 8 is_stmt 0
	movq	-208(%rbp), %rax
	.loc	23 33 18
	cmpq	$-342, %rax
	setl	%al
	.loc	23 33 8
	andb	$1, %al
	movb	%al, -122(%rbp)
LBB43_3:
	testb	$1, -122(%rbp)
	jne	LBB43_5
	.loc	23 0 8
	movq	-208(%rbp), %rax
	.loc	23 35 15 is_stmt 1
	cmpq	$308, %rax
	jg	LBB43_8
	jmp	LBB43_7
LBB43_5:
	.loc	23 0 15 is_stmt 0
	movl	-188(%rbp), %eax
	movq	-200(%rbp), %rcx
	.loc	23 34 16 is_stmt 1
	movq	%rcx, -144(%rbp)
	movl	%eax, -136(%rbp)
LBB43_6:
	.loc	19 1 1
	jmp	LBB43_9
LBB43_7:
	.loc	19 0 1 is_stmt 0
	movq	-208(%rbp), %rdi
	.loc	23 39 14 is_stmt 1
	movq	-152(%rbp), %rax
	movq	%rax, -48(%rbp)
Ltmp264:
	.loc	15 131 13
	bsrq	%rax, %rax
	movl	$127, %ecx
	cmoveq	%rcx, %rax
	xorq	$63, %rax
	movq	%rax, -40(%rbp)
	movq	-40(%rbp), %rax
	movl	%eax, %ecx
	movl	%ecx, -228(%rbp)
	movl	%ecx, -28(%rbp)
Ltmp265:
	.loc	23 40 5
	movq	-152(%rbp), %rax
	movl	%ecx, %ecx
	andq	$63, %rcx
	shlq	%cl, %rax
	movq	%rax, -152(%rbp)
	.loc	23 41 46
	movq	-152(%rbp), %rsi
	.loc	23 41 20 is_stmt 0
	movl	$55, %edx
	callq	__ZN4core3num7dec2flt6lemire22compute_product_approx17h28295bc1e7622852E
	movq	%rax, -224(%rbp)
	movq	%rdx, -216(%rbp)
	.loc	23 41 10
	movq	%rax, -24(%rbp)
	.loc	23 41 14
	movq	%rdx, -16(%rbp)
Ltmp266:
	.loc	23 42 8 is_stmt 1
	cmpq	$-1, %rax
	je	LBB43_10
	jmp	LBB43_11
Ltmp267:
LBB43_8:
	.loc	23 0 8 is_stmt 0
	movl	-172(%rbp), %eax
	movq	-184(%rbp), %rcx
	.loc	23 36 16 is_stmt 1
	movq	%rcx, -144(%rbp)
	movl	%eax, -136(%rbp)
	.loc	19 1 1
	jmp	LBB43_6
Ltmp268:
LBB43_9:
	.loc	23 115 2
	jmp	LBB43_43
LBB43_10:
	.loc	23 0 2 is_stmt 0
	movq	-208(%rbp), %rax
Ltmp269:
	.loc	23 58 36 is_stmt 1
	cmpq	$-27, %rax
	jge	LBB43_14
	jmp	LBB43_13
LBB43_11:
	.loc	23 42 5
	jmp	LBB43_12
LBB43_12:
	.loc	23 0 5 is_stmt 0
	movq	-208(%rbp), %rax
	movq	-216(%rbp), %rdx
	.loc	23 63 20 is_stmt 1
	movq	%rdx, %rcx
	shrq	$63, %rcx
	movl	%ecx, -232(%rbp)
	movl	%ecx, -4(%rbp)
Ltmp270:
	.loc	23 64 31
	addl	$64, %ecx
	subl	$52, %ecx
	.loc	23 64 30 is_stmt 0
	subl	$3, %ecx
	.loc	23 64 24
	movl	%ecx, %ecx
	andq	$63, %rcx
	shrq	%cl, %rdx
	movq	%rdx, %rcx
	movq	%rcx, -120(%rbp)
Ltmp271:
	.loc	23 65 28 is_stmt 1
	movl	%eax, %edi
	.loc	23 65 22 is_stmt 0
	callq	__ZN4core3num7dec2flt6lemire5power17h1f9ed2a2f25e8bb8E
	movl	-232(%rbp), %edx
	movl	-228(%rbp), %ecx
	addl	%edx, %eax
	subl	%ecx, %eax
	subl	$-1023, %eax
	movl	%eax, -112(%rbp)
Ltmp272:
	.loc	23 66 8 is_stmt 1
	cmpl	$0, -112(%rbp)
	jle	LBB43_20
	jmp	LBB43_19
Ltmp273:
LBB43_13:
	.loc	23 58 36
	movb	$0, -121(%rbp)
	jmp	LBB43_15
LBB43_14:
	.loc	23 0 36 is_stmt 0
	movq	-208(%rbp), %rax
	.loc	23 58 50
	cmpq	$55, %rax
	setle	%al
	.loc	23 58 36
	andb	$1, %al
	movb	%al, -121(%rbp)
LBB43_15:
Ltmp274:
	.loc	23 59 13 is_stmt 1
	movb	-121(%rbp), %al
	.loc	23 59 12 is_stmt 0
	xorb	$-1, %al
	testb	$1, %al
	jne	LBB43_17
Ltmp275:
	.loc	23 42 5 is_stmt 1
	jmp	LBB43_12
LBB43_17:
	.loc	23 0 5 is_stmt 0
	movl	-156(%rbp), %eax
	movq	-168(%rbp), %rcx
Ltmp276:
	.loc	23 60 20 is_stmt 1
	movq	%rcx, -144(%rbp)
	movl	%eax, -136(%rbp)
Ltmp277:
LBB43_18:
	.loc	19 1 1
	jmp	LBB43_9
LBB43_19:
	.loc	19 0 1 is_stmt 0
	movq	-224(%rbp), %rax
Ltmp278:
	.loc	23 89 8 is_stmt 1
	cmpq	$1, %rax
	jbe	LBB43_26
	jmp	LBB43_25
LBB43_20:
	.loc	23 67 12
	xorl	%eax, %eax
	subl	-112(%rbp), %eax
	addl	$1, %eax
	cmpl	$64, %eax
	jge	LBB43_22
	.loc	23 72 22
	xorl	%ecx, %ecx
	subl	-112(%rbp), %ecx
	addl	$1, %ecx
	.loc	23 72 9 is_stmt 0
	movq	-120(%rbp), %rax
	movl	%ecx, %ecx
	andq	$63, %rcx
	shrq	%cl, %rax
	movq	%rax, -120(%rbp)
	.loc	23 73 21 is_stmt 1
	movq	-120(%rbp), %rax
	andq	$1, %rax
	.loc	23 73 9 is_stmt 0
	addq	-120(%rbp), %rax
	movq	%rax, -120(%rbp)
	.loc	23 74 9 is_stmt 1
	movq	-120(%rbp), %rax
	shrq	$1, %rax
	movq	%rax, -120(%rbp)
	.loc	23 75 18
	movabsq	$4503599627370496, %rax
	cmpq	%rax, -120(%rbp)
	setae	%al
	.loc	23 75 9 is_stmt 0
	andb	$1, %al
	movzbl	%al, %eax
	movl	%eax, -112(%rbp)
	.loc	23 76 30 is_stmt 1
	movq	-120(%rbp), %rcx
	.loc	23 76 43 is_stmt 0
	movl	-112(%rbp), %eax
	.loc	23 76 16
	movq	%rcx, -144(%rbp)
	movl	%eax, -136(%rbp)
	.loc	23 76 9
	jmp	LBB43_23
LBB43_22:
	.loc	23 0 9
	movl	-188(%rbp), %eax
	movq	-200(%rbp), %rcx
	.loc	23 69 20 is_stmt 1
	movq	%rcx, -144(%rbp)
	movl	%eax, -136(%rbp)
LBB43_23:
	.loc	19 1 1
	jmp	LBB43_24
Ltmp279:
LBB43_24:
	.loc	19 1 1 is_stmt 0
	jmp	LBB43_18
LBB43_25:
Ltmp280:
	.loc	23 89 8 is_stmt 1
	movb	$0, -105(%rbp)
	jmp	LBB43_27
LBB43_26:
	.loc	23 0 8 is_stmt 0
	movq	-208(%rbp), %rax
	.loc	23 90 12 is_stmt 1
	cmpq	$-4, %rax
	setge	%al
	.loc	23 89 8
	andb	$1, %al
	movb	%al, -105(%rbp)
LBB43_27:
	testb	$1, -105(%rbp)
	jne	LBB43_29
	movb	$0, -106(%rbp)
	jmp	LBB43_30
LBB43_29:
	.loc	23 0 8 is_stmt 0
	movq	-208(%rbp), %rax
	.loc	23 91 12 is_stmt 1
	cmpq	$23, %rax
	setle	%al
	.loc	23 89 8
	andb	$1, %al
	movb	%al, -106(%rbp)
LBB43_30:
	testb	$1, -106(%rbp)
	jne	LBB43_32
	movb	$0, -107(%rbp)
	jmp	LBB43_33
LBB43_32:
	.loc	23 92 12
	movq	-120(%rbp), %rax
	andq	$3, %rax
	cmpq	$1, %rax
	sete	%al
	.loc	23 89 8
	andb	$1, %al
	movb	%al, -107(%rbp)
LBB43_33:
	testb	$1, -107(%rbp)
	jne	LBB43_35
	movb	$0, -108(%rbp)
	jmp	LBB43_36
LBB43_35:
	.loc	23 0 8 is_stmt 0
	movl	-232(%rbp), %ecx
	.loc	23 93 13 is_stmt 1
	movq	-120(%rbp), %rax
	.loc	23 93 26 is_stmt 0
	addl	$64, %ecx
	subl	$52, %ecx
	.loc	23 93 25
	subl	$3, %ecx
	.loc	23 93 12
	movl	%ecx, %ecx
	andq	$63, %rcx
	shlq	%cl, %rax
	movq	-216(%rbp), %rcx
	cmpq	%rcx, %rax
	sete	%al
	.loc	23 89 8 is_stmt 1
	andb	$1, %al
	movb	%al, -108(%rbp)
LBB43_36:
	testb	$1, -108(%rbp)
	jne	LBB43_38
LBB43_37:
	.loc	23 99 17
	movq	-120(%rbp), %rax
	andq	$1, %rax
	.loc	23 99 5 is_stmt 0
	addq	-120(%rbp), %rax
	movq	%rax, -120(%rbp)
	.loc	23 100 5 is_stmt 1
	movq	-120(%rbp), %rax
	shrq	$1, %rax
	movq	%rax, -120(%rbp)
	.loc	23 101 8
	movabsq	$9007199254740992, %rax
	cmpq	%rax, -120(%rbp)
	jae	LBB43_40
	jmp	LBB43_39
LBB43_38:
	.loc	23 96 9
	movq	-120(%rbp), %rax
	andq	$-2, %rax
	movq	%rax, -120(%rbp)
	.loc	23 89 5
	jmp	LBB43_37
LBB43_39:
	.loc	23 109 5
	movabsq	$-4503599627370497, %rax
	andq	-120(%rbp), %rax
	movq	%rax, -120(%rbp)
	.loc	23 110 8
	cmpl	$2047, -112(%rbp)
	jge	LBB43_42
	jmp	LBB43_41
LBB43_40:
	.loc	23 105 9
	movabsq	$4503599627370496, %rax
	movq	%rax, -120(%rbp)
	.loc	23 106 9
	movl	-112(%rbp), %eax
	addl	$1, %eax
	movl	%eax, -112(%rbp)
	.loc	23 101 5
	jmp	LBB43_39
LBB43_41:
	.loc	23 114 19
	movq	-120(%rbp), %rcx
	.loc	23 114 32 is_stmt 0
	movl	-112(%rbp), %eax
	.loc	23 114 5
	movq	%rcx, -144(%rbp)
	movl	%eax, -136(%rbp)
Ltmp281:
	.loc	23 115 2 is_stmt 1
	jmp	LBB43_43
LBB43_42:
	.loc	23 0 2 is_stmt 0
	movl	-172(%rbp), %eax
	movq	-184(%rbp), %rcx
Ltmp282:
	.loc	23 112 16 is_stmt 1
	movq	%rcx, -144(%rbp)
	movl	%eax, -136(%rbp)
	.loc	19 1 1
	jmp	LBB43_24
Ltmp283:
LBB43_43:
	.loc	23 115 2
	movq	-144(%rbp), %rax
	movl	-136(%rbp), %edx
	addq	$240, %rsp
	popq	%rbp
	retq
Ltmp284:
Lfunc_end43:
	.cfi_endproc

	.globl	__ZN4core3num7dec2flt6lemire13compute_float17ha2a0bce44ac1e7ebE
	.p2align	4, 0x90
__ZN4core3num7dec2flt6lemire13compute_float17ha2a0bce44ac1e7ebE:
Lfunc_begin44:
	.loc	23 27 0
	.cfi_startproc
	pushq	%rbp
	.cfi_def_cfa_offset 16
	.cfi_offset %rbp, -16
	movq	%rsp, %rbp
	.cfi_def_cfa_register %rbp
	subq	$240, %rsp
	movq	%rdi, -208(%rbp)
	movq	%rsi, -152(%rbp)
	movq	%rdi, -104(%rbp)
Ltmp285:
	.loc	23 28 19 prologue_end
	xorl	%edi, %edi
	callq	__ZN4core3num7dec2flt6common8BiasedFp9zero_pow217hd9d409e4688b21a5E
	movq	%rax, -200(%rbp)
	movl	%edx, -188(%rbp)
	movq	%rax, -96(%rbp)
	movl	%edx, -88(%rbp)
Ltmp286:
	.loc	23 29 18
	movl	$255, %edi
	callq	__ZN4core3num7dec2flt6common8BiasedFp9zero_pow217hd9d409e4688b21a5E
	movq	%rax, -184(%rbp)
	movl	%edx, -172(%rbp)
	movq	%rax, -80(%rbp)
	movl	%edx, -72(%rbp)
Ltmp287:
	.loc	23 30 20
	movl	$4294967295, %edi
	callq	__ZN4core3num7dec2flt6common8BiasedFp9zero_pow217hd9d409e4688b21a5E
	movq	%rax, -168(%rbp)
	movl	%edx, -156(%rbp)
	movq	%rax, -64(%rbp)
	movl	%edx, -56(%rbp)
Ltmp288:
	.loc	23 33 8
	cmpq	$0, -152(%rbp)
	jne	LBB44_2
	movb	$1, -122(%rbp)
	jmp	LBB44_3
LBB44_2:
	.loc	23 0 8 is_stmt 0
	movq	-208(%rbp), %rax
	.loc	23 33 18
	cmpq	$-65, %rax
	setl	%al
	.loc	23 33 8
	andb	$1, %al
	movb	%al, -122(%rbp)
LBB44_3:
	testb	$1, -122(%rbp)
	jne	LBB44_5
	.loc	23 0 8
	movq	-208(%rbp), %rax
	.loc	23 35 15 is_stmt 1
	cmpq	$38, %rax
	jg	LBB44_8
	jmp	LBB44_7
LBB44_5:
	.loc	23 0 15 is_stmt 0
	movl	-188(%rbp), %eax
	movq	-200(%rbp), %rcx
	.loc	23 34 16 is_stmt 1
	movq	%rcx, -144(%rbp)
	movl	%eax, -136(%rbp)
LBB44_6:
	.loc	19 1 1
	jmp	LBB44_9
LBB44_7:
	.loc	19 0 1 is_stmt 0
	movq	-208(%rbp), %rdi
	.loc	23 39 14 is_stmt 1
	movq	-152(%rbp), %rax
	movq	%rax, -48(%rbp)
Ltmp289:
	.loc	15 131 13
	bsrq	%rax, %rax
	movl	$127, %ecx
	cmoveq	%rcx, %rax
	xorq	$63, %rax
	movq	%rax, -40(%rbp)
	movq	-40(%rbp), %rax
	movl	%eax, %ecx
	movl	%ecx, -228(%rbp)
	movl	%ecx, -28(%rbp)
Ltmp290:
	.loc	23 40 5
	movq	-152(%rbp), %rax
	movl	%ecx, %ecx
	andq	$63, %rcx
	shlq	%cl, %rax
	movq	%rax, -152(%rbp)
	.loc	23 41 46
	movq	-152(%rbp), %rsi
	.loc	23 41 20 is_stmt 0
	movl	$26, %edx
	callq	__ZN4core3num7dec2flt6lemire22compute_product_approx17h28295bc1e7622852E
	movq	%rax, -224(%rbp)
	movq	%rdx, -216(%rbp)
	.loc	23 41 10
	movq	%rax, -24(%rbp)
	.loc	23 41 14
	movq	%rdx, -16(%rbp)
Ltmp291:
	.loc	23 42 8 is_stmt 1
	cmpq	$-1, %rax
	je	LBB44_10
	jmp	LBB44_11
Ltmp292:
LBB44_8:
	.loc	23 0 8 is_stmt 0
	movl	-172(%rbp), %eax
	movq	-184(%rbp), %rcx
	.loc	23 36 16 is_stmt 1
	movq	%rcx, -144(%rbp)
	movl	%eax, -136(%rbp)
	.loc	19 1 1
	jmp	LBB44_6
Ltmp293:
LBB44_9:
	.loc	23 115 2
	jmp	LBB44_43
LBB44_10:
	.loc	23 0 2 is_stmt 0
	movq	-208(%rbp), %rax
Ltmp294:
	.loc	23 58 36 is_stmt 1
	cmpq	$-27, %rax
	jge	LBB44_14
	jmp	LBB44_13
LBB44_11:
	.loc	23 42 5
	jmp	LBB44_12
LBB44_12:
	.loc	23 0 5 is_stmt 0
	movq	-208(%rbp), %rax
	movq	-216(%rbp), %rdx
	.loc	23 63 20 is_stmt 1
	movq	%rdx, %rcx
	shrq	$63, %rcx
	movl	%ecx, -232(%rbp)
	movl	%ecx, -4(%rbp)
Ltmp295:
	.loc	23 64 31
	addl	$64, %ecx
	subl	$23, %ecx
	.loc	23 64 30 is_stmt 0
	subl	$3, %ecx
	.loc	23 64 24
	movl	%ecx, %ecx
	andq	$63, %rcx
	shrq	%cl, %rdx
	movq	%rdx, %rcx
	movq	%rcx, -120(%rbp)
Ltmp296:
	.loc	23 65 28 is_stmt 1
	movl	%eax, %edi
	.loc	23 65 22 is_stmt 0
	callq	__ZN4core3num7dec2flt6lemire5power17h1f9ed2a2f25e8bb8E
	movl	-232(%rbp), %edx
	movl	-228(%rbp), %ecx
	addl	%edx, %eax
	subl	%ecx, %eax
	subl	$-127, %eax
	movl	%eax, -112(%rbp)
Ltmp297:
	.loc	23 66 8 is_stmt 1
	cmpl	$0, -112(%rbp)
	jle	LBB44_20
	jmp	LBB44_19
Ltmp298:
LBB44_13:
	.loc	23 58 36
	movb	$0, -121(%rbp)
	jmp	LBB44_15
LBB44_14:
	.loc	23 0 36 is_stmt 0
	movq	-208(%rbp), %rax
	.loc	23 58 50
	cmpq	$55, %rax
	setle	%al
	.loc	23 58 36
	andb	$1, %al
	movb	%al, -121(%rbp)
LBB44_15:
Ltmp299:
	.loc	23 59 13 is_stmt 1
	movb	-121(%rbp), %al
	.loc	23 59 12 is_stmt 0
	xorb	$-1, %al
	testb	$1, %al
	jne	LBB44_17
Ltmp300:
	.loc	23 42 5 is_stmt 1
	jmp	LBB44_12
LBB44_17:
	.loc	23 0 5 is_stmt 0
	movl	-156(%rbp), %eax
	movq	-168(%rbp), %rcx
Ltmp301:
	.loc	23 60 20 is_stmt 1
	movq	%rcx, -144(%rbp)
	movl	%eax, -136(%rbp)
Ltmp302:
LBB44_18:
	.loc	19 1 1
	jmp	LBB44_9
LBB44_19:
	.loc	19 0 1 is_stmt 0
	movq	-224(%rbp), %rax
Ltmp303:
	.loc	23 89 8 is_stmt 1
	cmpq	$1, %rax
	jbe	LBB44_26
	jmp	LBB44_25
LBB44_20:
	.loc	23 67 12
	xorl	%eax, %eax
	subl	-112(%rbp), %eax
	addl	$1, %eax
	cmpl	$64, %eax
	jge	LBB44_22
	.loc	23 72 22
	xorl	%ecx, %ecx
	subl	-112(%rbp), %ecx
	addl	$1, %ecx
	.loc	23 72 9 is_stmt 0
	movq	-120(%rbp), %rax
	movl	%ecx, %ecx
	andq	$63, %rcx
	shrq	%cl, %rax
	movq	%rax, -120(%rbp)
	.loc	23 73 21 is_stmt 1
	movq	-120(%rbp), %rax
	andq	$1, %rax
	.loc	23 73 9 is_stmt 0
	addq	-120(%rbp), %rax
	movq	%rax, -120(%rbp)
	.loc	23 74 9 is_stmt 1
	movq	-120(%rbp), %rax
	shrq	$1, %rax
	movq	%rax, -120(%rbp)
	.loc	23 75 18
	cmpq	$8388608, -120(%rbp)
	setae	%al
	.loc	23 75 9 is_stmt 0
	andb	$1, %al
	movzbl	%al, %eax
	movl	%eax, -112(%rbp)
	.loc	23 76 30 is_stmt 1
	movq	-120(%rbp), %rcx
	.loc	23 76 43 is_stmt 0
	movl	-112(%rbp), %eax
	.loc	23 76 16
	movq	%rcx, -144(%rbp)
	movl	%eax, -136(%rbp)
	.loc	23 76 9
	jmp	LBB44_23
LBB44_22:
	.loc	23 0 9
	movl	-188(%rbp), %eax
	movq	-200(%rbp), %rcx
	.loc	23 69 20 is_stmt 1
	movq	%rcx, -144(%rbp)
	movl	%eax, -136(%rbp)
LBB44_23:
	.loc	19 1 1
	jmp	LBB44_24
Ltmp304:
LBB44_24:
	.loc	19 1 1 is_stmt 0
	jmp	LBB44_18
LBB44_25:
Ltmp305:
	.loc	23 89 8 is_stmt 1
	movb	$0, -105(%rbp)
	jmp	LBB44_27
LBB44_26:
	.loc	23 0 8 is_stmt 0
	movq	-208(%rbp), %rax
	.loc	23 90 12 is_stmt 1
	cmpq	$-17, %rax
	setge	%al
	.loc	23 89 8
	andb	$1, %al
	movb	%al, -105(%rbp)
LBB44_27:
	testb	$1, -105(%rbp)
	jne	LBB44_29
	movb	$0, -106(%rbp)
	jmp	LBB44_30
LBB44_29:
	.loc	23 0 8 is_stmt 0
	movq	-208(%rbp), %rax
	.loc	23 91 12 is_stmt 1
	cmpq	$10, %rax
	setle	%al
	.loc	23 89 8
	andb	$1, %al
	movb	%al, -106(%rbp)
LBB44_30:
	testb	$1, -106(%rbp)
	jne	LBB44_32
	movb	$0, -107(%rbp)
	jmp	LBB44_33
LBB44_32:
	.loc	23 92 12
	movq	-120(%rbp), %rax
	andq	$3, %rax
	cmpq	$1, %rax
	sete	%al
	.loc	23 89 8
	andb	$1, %al
	movb	%al, -107(%rbp)
LBB44_33:
	testb	$1, -107(%rbp)
	jne	LBB44_35
	movb	$0, -108(%rbp)
	jmp	LBB44_36
LBB44_35:
	.loc	23 0 8 is_stmt 0
	movl	-232(%rbp), %ecx
	.loc	23 93 13 is_stmt 1
	movq	-120(%rbp), %rax
	.loc	23 93 26 is_stmt 0
	addl	$64, %ecx
	subl	$23, %ecx
	.loc	23 93 25
	subl	$3, %ecx
	.loc	23 93 12
	movl	%ecx, %ecx
	andq	$63, %rcx
	shlq	%cl, %rax
	movq	-216(%rbp), %rcx
	cmpq	%rcx, %rax
	sete	%al
	.loc	23 89 8 is_stmt 1
	andb	$1, %al
	movb	%al, -108(%rbp)
LBB44_36:
	testb	$1, -108(%rbp)
	jne	LBB44_38
LBB44_37:
	.loc	23 99 17
	movq	-120(%rbp), %rax
	andq	$1, %rax
	.loc	23 99 5 is_stmt 0
	addq	-120(%rbp), %rax
	movq	%rax, -120(%rbp)
	.loc	23 100 5 is_stmt 1
	movq	-120(%rbp), %rax
	shrq	$1, %rax
	movq	%rax, -120(%rbp)
	.loc	23 101 8
	cmpq	$16777216, -120(%rbp)
	jae	LBB44_40
	jmp	LBB44_39
LBB44_38:
	.loc	23 96 9
	movq	-120(%rbp), %rax
	andq	$-2, %rax
	movq	%rax, -120(%rbp)
	.loc	23 89 5
	jmp	LBB44_37
LBB44_39:
	.loc	23 109 5
	movq	-120(%rbp), %rax
	andq	$-8388609, %rax
	movq	%rax, -120(%rbp)
	.loc	23 110 8
	cmpl	$255, -112(%rbp)
	jge	LBB44_42
	jmp	LBB44_41
LBB44_40:
	.loc	23 105 9
	movq	$8388608, -120(%rbp)
	.loc	23 106 9
	movl	-112(%rbp), %eax
	addl	$1, %eax
	movl	%eax, -112(%rbp)
	.loc	23 101 5
	jmp	LBB44_39
LBB44_41:
	.loc	23 114 19
	movq	-120(%rbp), %rcx
	.loc	23 114 32 is_stmt 0
	movl	-112(%rbp), %eax
	.loc	23 114 5
	movq	%rcx, -144(%rbp)
	movl	%eax, -136(%rbp)
Ltmp306:
	.loc	23 115 2 is_stmt 1
	jmp	LBB44_43
LBB44_42:
	.loc	23 0 2 is_stmt 0
	movl	-172(%rbp), %eax
	movq	-184(%rbp), %rcx
Ltmp307:
	.loc	23 112 16 is_stmt 1
	movq	%rcx, -144(%rbp)
	movl	%eax, -136(%rbp)
	.loc	19 1 1
	jmp	LBB44_24
Ltmp308:
LBB44_43:
	.loc	23 115 2
	movq	-144(%rbp), %rax
	movl	-136(%rbp), %edx
	addq	$240, %rsp
	popq	%rbp
	retq
Ltmp309:
Lfunc_end44:
	.cfi_endproc

	.globl	__ZN4core3num7dec2flt6number6Number12is_fast_path17hc10669e6b987a8f4E
	.p2align	4, 0x90
__ZN4core3num7dec2flt6number6Number12is_fast_path17hc10669e6b987a8f4E:
Lfunc_begin45:
	.file	24 "/rustc/2c8cc343237b8f7d5a3c3703e3a87f2eb2c54a74/library/core/src/num/dec2flt" "number.rs"
	.loc	24 36 0
	.cfi_startproc
	pushq	%rbp
	.cfi_def_cfa_offset 16
	.cfi_offset %rbp, -16
	movq	%rsp, %rbp
	.cfi_def_cfa_register %rbp
	subq	$24, %rsp
	movq	%rdi, -24(%rbp)
	movq	%rdi, -8(%rbp)
Ltmp310:
	.loc	24 37 9 prologue_end
	movq	$-22, %rax
	cmpq	(%rdi), %rax
	jle	LBB45_2
	movb	$0, -9(%rbp)
	jmp	LBB45_3
LBB45_2:
	.loc	24 0 9 is_stmt 0
	movq	-24(%rbp), %rax
	.loc	24 38 16 is_stmt 1
	cmpq	$37, (%rax)
	setle	%al
	.loc	24 37 9
	andb	$1, %al
	movb	%al, -9(%rbp)
LBB45_3:
	testb	$1, -9(%rbp)
	jne	LBB45_5
	movb	$0, -10(%rbp)
	jmp	LBB45_6
LBB45_5:
	.loc	24 0 9 is_stmt 0
	movq	-24(%rbp), %rax
	.loc	24 39 16 is_stmt 1
	movabsq	$9007199254740992, %rcx
	cmpq	%rcx, 8(%rax)
	setbe	%al
	.loc	24 37 9
	andb	$1, %al
	movb	%al, -10(%rbp)
LBB45_6:
	testb	$1, -10(%rbp)
	jne	LBB45_8
	movb	$0, -11(%rbp)
	jmp	LBB45_9
LBB45_8:
	.loc	24 0 9 is_stmt 0
	movq	-24(%rbp), %rax
	.loc	24 40 17 is_stmt 1
	movb	17(%rax), %al
	.loc	24 40 16 is_stmt 0
	xorb	$-1, %al
	.loc	24 37 9 is_stmt 1
	andb	$1, %al
	movb	%al, -11(%rbp)
LBB45_9:
	.loc	24 41 6
	movb	-11(%rbp), %al
	andb	$1, %al
	movzbl	%al, %eax
	addq	$24, %rsp
	popq	%rbp
	retq
Ltmp311:
Lfunc_end45:
	.cfi_endproc

	.globl	__ZN4core3num7dec2flt6number6Number12is_fast_path17hee19a8c676f10207E
	.p2align	4, 0x90
__ZN4core3num7dec2flt6number6Number12is_fast_path17hee19a8c676f10207E:
Lfunc_begin46:
	.loc	24 36 0
	.cfi_startproc
	pushq	%rbp
	.cfi_def_cfa_offset 16
	.cfi_offset %rbp, -16
	movq	%rsp, %rbp
	.cfi_def_cfa_register %rbp
	subq	$24, %rsp
	movq	%rdi, -24(%rbp)
	movq	%rdi, -8(%rbp)
Ltmp312:
	.loc	24 37 9 prologue_end
	movq	$-10, %rax
	cmpq	(%rdi), %rax
	jle	LBB46_2
	movb	$0, -9(%rbp)
	jmp	LBB46_3
LBB46_2:
	.loc	24 0 9 is_stmt 0
	movq	-24(%rbp), %rax
	.loc	24 38 16 is_stmt 1
	cmpq	$17, (%rax)
	setle	%al
	.loc	24 37 9
	andb	$1, %al
	movb	%al, -9(%rbp)
LBB46_3:
	testb	$1, -9(%rbp)
	jne	LBB46_5
	movb	$0, -10(%rbp)
	jmp	LBB46_6
LBB46_5:
	.loc	24 0 9 is_stmt 0
	movq	-24(%rbp), %rax
	.loc	24 39 16 is_stmt 1
	cmpq	$16777216, 8(%rax)
	setbe	%al
	.loc	24 37 9
	andb	$1, %al
	movb	%al, -10(%rbp)
LBB46_6:
	testb	$1, -10(%rbp)
	jne	LBB46_8
	movb	$0, -11(%rbp)
	jmp	LBB46_9
LBB46_8:
	.loc	24 0 9 is_stmt 0
	movq	-24(%rbp), %rax
	.loc	24 40 17 is_stmt 1
	movb	17(%rax), %al
	.loc	24 40 16 is_stmt 0
	xorb	$-1, %al
	.loc	24 37 9 is_stmt 1
	andb	$1, %al
	movb	%al, -11(%rbp)
LBB46_9:
	.loc	24 41 6
	movb	-11(%rbp), %al
	andb	$1, %al
	movzbl	%al, %eax
	addq	$24, %rsp
	popq	%rbp
	retq
Ltmp313:
Lfunc_end46:
	.cfi_endproc

	.globl	__ZN4core3num7dec2flt6number6Number13try_fast_path17h0d528f9f5d7c8f47E
	.p2align	4, 0x90
__ZN4core3num7dec2flt6number6Number13try_fast_path17h0d528f9f5d7c8f47E:
Lfunc_begin47:
	.loc	24 52 0
	.cfi_startproc
	pushq	%rbp
	.cfi_def_cfa_offset 16
	.cfi_offset %rbp, -16
	movq	%rsp, %rbp
	.cfi_def_cfa_register %rbp
	subq	$304, %rsp
	movq	%rdi, -264(%rbp)
	movq	%rdi, -72(%rbp)
Ltmp314:
	.loc	24 58 19 prologue_end
	callq	__ZN4core3num7dec2flt3fpu13fpu_precision13set_precision17h16305ef07e0b7923E
	movq	-264(%rbp), %rdi
Ltmp315:
	.loc	24 60 12
	callq	__ZN4core3num7dec2flt6number6Number12is_fast_path17hc10669e6b987a8f4E
	testb	$1, %al
	jne	LBB47_2
	.loc	24 83 13
	movq	$0, -256(%rbp)
	.loc	24 60 9
	jmp	LBB47_22
LBB47_2:
	.loc	24 0 9 is_stmt 0
	movq	-264(%rbp), %rax
	.loc	24 61 32 is_stmt 1
	cmpq	$22, (%rax)
	jle	LBB47_4
	.loc	24 0 32 is_stmt 0
	movq	-264(%rbp), %rax
	.loc	24 71 29 is_stmt 1
	movq	(%rax), %rcx
	subq	$22, %rcx
	movq	%rcx, -272(%rbp)
	movq	%rcx, -32(%rbp)
Ltmp316:
	.loc	24 72 32
	movq	8(%rax), %rax
	movq	%rax, -280(%rbp)
	.loc	24 72 58 is_stmt 0
	leaq	-200(%rbp), %rdi
	leaq	l___unnamed_11(%rip), %rsi
	movl	$128, %edx
	callq	_memcpy
	movq	-272(%rbp), %rax
	cmpq	$16, %rax
	setb	%al
	testb	$1, %al
	jne	LBB47_9
	jmp	LBB47_10
Ltmp317:
LBB47_4:
	.loc	24 0 58
	movq	-264(%rbp), %rax
	.loc	24 63 41 is_stmt 1
	movq	8(%rax), %rdi
	.loc	24 63 29 is_stmt 0
	callq	__ZN59_$LT$f64$u20$as$u20$core..num..dec2flt..float..RawFloat$GT$8from_u6417h505ed9c61d1235f8E
	movq	-264(%rbp), %rax
	movsd	%xmm0, -288(%rbp)
	movsd	%xmm0, -40(%rbp)
Ltmp318:
	.loc	24 64 20 is_stmt 1
	cmpq	$0, (%rax)
	jl	LBB47_6
	.loc	24 0 20 is_stmt 0
	movq	-264(%rbp), %rax
	.loc	24 67 48 is_stmt 1
	movq	(%rax), %rdi
	.loc	24 67 29 is_stmt 0
	callq	__ZN59_$LT$f64$u20$as$u20$core..num..dec2flt..float..RawFloat$GT$15pow10_fast_path17h457191cc6c7095fcE
	movaps	%xmm0, %xmm1
	movsd	-288(%rbp), %xmm0
	.loc	24 67 21
	callq	__ZN45_$LT$f64$u20$as$u20$core..ops..arith..Mul$GT$3mul17h59d18003e48cbd67E
	movsd	%xmm0, -240(%rbp)
	.loc	24 64 17 is_stmt 1
	jmp	LBB47_7
LBB47_6:
	.loc	24 0 17 is_stmt 0
	movq	-264(%rbp), %rax
	.loc	24 65 48 is_stmt 1
	xorl	%ecx, %ecx
	movl	%ecx, %edi
	subq	(%rax), %rdi
	.loc	24 65 29 is_stmt 0
	callq	__ZN59_$LT$f64$u20$as$u20$core..num..dec2flt..float..RawFloat$GT$15pow10_fast_path17h457191cc6c7095fcE
	movaps	%xmm0, %xmm1
	movsd	-288(%rbp), %xmm0
	.loc	24 65 21
	callq	__ZN45_$LT$f64$u20$as$u20$core..ops..arith..Div$GT$3div17h7e2df44e40f45fb9E
	movsd	%xmm0, -240(%rbp)
Ltmp319:
LBB47_7:
	.loc	24 61 29 is_stmt 1
	jmp	LBB47_8
LBB47_8:
	.loc	24 0 29 is_stmt 0
	movq	-264(%rbp), %rax
Ltmp320:
	.loc	24 78 16 is_stmt 1
	testb	$1, 16(%rax)
	jne	LBB47_21
	jmp	LBB47_20
Ltmp321:
LBB47_9:
	.loc	24 0 16 is_stmt 0
	movq	-280(%rbp), %rdi
	movq	-272(%rbp), %rax
Ltmp322:
	.loc	24 72 58 is_stmt 1
	movq	-200(%rbp,%rax,8), %rsi
	.loc	24 72 32 is_stmt 0
	callq	__ZN4core3num21_$LT$impl$u20$u64$GT$11checked_mul17h3880191fa3f69492E
	movq	%rdx, -208(%rbp)
	movq	%rax, -216(%rbp)
Ltmp323:
	.loc	9 2407 9 is_stmt 1
	cmpq	$0, -216(%rbp)
	je	LBB47_11
	jmp	LBB47_12
Ltmp324:
LBB47_10:
	.loc	9 0 9 is_stmt 0
	movq	-272(%rbp), %rdi
	.loc	24 72 58 is_stmt 1
	leaq	l___unnamed_12(%rip), %rdx
	movl	$16, %esi
	callq	__ZN4core9panicking18panic_bounds_check17hacb8a94866cda541E
LBB47_11:
Ltmp325:
	.loc	9 2409 21
	movq	$1, -232(%rbp)
	.loc	9 2409 44 is_stmt 0
	jmp	LBB47_13
LBB47_12:
	.loc	9 2408 18 is_stmt 1
	movq	-208(%rbp), %rax
	movq	%rax, -24(%rbp)
Ltmp326:
	.loc	9 2408 24 is_stmt 0
	movq	%rax, -224(%rbp)
	movq	$0, -232(%rbp)
Ltmp327:
LBB47_13:
	.loc	24 72 32 is_stmt 1
	cmpq	$0, -232(%rbp)
	jne	LBB47_15
	movq	-224(%rbp), %rax
	movq	%rax, -296(%rbp)
	movq	%rax, -16(%rbp)
Ltmp328:
	.loc	24 72 32 is_stmt 0
	movq	%rax, -8(%rbp)
Ltmp329:
	.loc	24 73 20 is_stmt 1
	movabsq	$9007199254740992, %rcx
	cmpq	%rcx, %rax
	ja	LBB47_18
	jmp	LBB47_17
Ltmp330:
LBB47_15:
	.loc	9 2420 21
	movq	$0, -256(%rbp)
Ltmp331:
LBB47_16:
	.loc	24 85 6
	jmp	LBB47_19
LBB47_17:
	.loc	24 0 6 is_stmt 0
	movq	-296(%rbp), %rdi
Ltmp332:
	.loc	24 76 17 is_stmt 1
	callq	__ZN59_$LT$f64$u20$as$u20$core..num..dec2flt..float..RawFloat$GT$8from_u6417h505ed9c61d1235f8E
	movsd	%xmm0, -304(%rbp)
	.loc	24 76 41 is_stmt 0
	movl	$22, %edi
	callq	__ZN59_$LT$f64$u20$as$u20$core..num..dec2flt..float..RawFloat$GT$15pow10_fast_path17h457191cc6c7095fcE
	movaps	%xmm0, %xmm1
	movsd	-304(%rbp), %xmm0
	.loc	24 76 17
	callq	__ZN45_$LT$f64$u20$as$u20$core..ops..arith..Mul$GT$3mul17h59d18003e48cbd67E
	movsd	%xmm0, -240(%rbp)
Ltmp333:
	.loc	24 61 29 is_stmt 1
	jmp	LBB47_8
LBB47_18:
Ltmp334:
	.loc	24 74 28
	movq	$0, -256(%rbp)
	.loc	19 1 1
	jmp	LBB47_16
Ltmp335:
LBB47_19:
	.loc	24 85 6
	movq	-256(%rbp), %rax
	movsd	-248(%rbp), %xmm0
	addq	$304, %rsp
	popq	%rbp
	retq
LBB47_20:
Ltmp336:
	.loc	24 81 18
	movsd	-240(%rbp), %xmm0
	.loc	24 81 13 is_stmt 0
	movsd	%xmm0, -248(%rbp)
	movq	$1, -256(%rbp)
Ltmp337:
	.loc	24 60 9 is_stmt 1
	jmp	LBB47_22
LBB47_21:
Ltmp338:
	.loc	24 79 26
	movsd	-240(%rbp), %xmm0
	.loc	24 79 25 is_stmt 0
	callq	__ZN45_$LT$f64$u20$as$u20$core..ops..arith..Neg$GT$3neg17h33fe1ffa20e4f522E
	.loc	24 79 17
	movsd	%xmm0, -240(%rbp)
	.loc	24 78 13 is_stmt 1
	jmp	LBB47_20
Ltmp339:
LBB47_22:
	.loc	24 85 6
	jmp	LBB47_19
Ltmp340:
Lfunc_end47:
	.cfi_endproc

	.globl	__ZN4core3num7dec2flt6number6Number13try_fast_path17h81b789190c68776eE
	.p2align	4, 0x90
__ZN4core3num7dec2flt6number6Number13try_fast_path17h81b789190c68776eE:
Lfunc_begin48:
	.loc	24 52 0
	.cfi_startproc
	pushq	%rbp
	.cfi_def_cfa_offset 16
	.cfi_offset %rbp, -16
	movq	%rsp, %rbp
	.cfi_def_cfa_register %rbp
	subq	$288, %rsp
	movq	%rdi, -248(%rbp)
	movq	%rdi, -64(%rbp)
Ltmp341:
	.loc	24 58 19 prologue_end
	callq	__ZN4core3num7dec2flt3fpu13fpu_precision13set_precision17h7e199e41a5338e61E
	movq	-248(%rbp), %rdi
Ltmp342:
	.loc	24 60 12
	callq	__ZN4core3num7dec2flt6number6Number12is_fast_path17hee19a8c676f10207E
	testb	$1, %al
	jne	LBB48_2
	.loc	24 83 13
	movl	$0, -240(%rbp)
	.loc	24 60 9
	jmp	LBB48_22
LBB48_2:
	.loc	24 0 9 is_stmt 0
	movq	-248(%rbp), %rax
	.loc	24 61 32 is_stmt 1
	cmpq	$10, (%rax)
	jle	LBB48_4
	.loc	24 0 32 is_stmt 0
	movq	-248(%rbp), %rax
	.loc	24 71 29 is_stmt 1
	movq	(%rax), %rcx
	subq	$10, %rcx
	movq	%rcx, -256(%rbp)
	movq	%rcx, -32(%rbp)
Ltmp343:
	.loc	24 72 32
	movq	8(%rax), %rax
	movq	%rax, -264(%rbp)
	.loc	24 72 58 is_stmt 0
	leaq	-192(%rbp), %rdi
	leaq	l___unnamed_11(%rip), %rsi
	movl	$128, %edx
	callq	_memcpy
	movq	-256(%rbp), %rax
	cmpq	$16, %rax
	setb	%al
	testb	$1, %al
	jne	LBB48_9
	jmp	LBB48_10
Ltmp344:
LBB48_4:
	.loc	24 0 58
	movq	-248(%rbp), %rax
	.loc	24 63 41 is_stmt 1
	movq	8(%rax), %rdi
	.loc	24 63 29 is_stmt 0
	callq	__ZN59_$LT$f32$u20$as$u20$core..num..dec2flt..float..RawFloat$GT$8from_u6417hc392f1016dcac6f9E
	movq	-248(%rbp), %rax
	movss	%xmm0, -268(%rbp)
	movss	%xmm0, -36(%rbp)
Ltmp345:
	.loc	24 64 20 is_stmt 1
	cmpq	$0, (%rax)
	jl	LBB48_6
	.loc	24 0 20 is_stmt 0
	movq	-248(%rbp), %rax
	.loc	24 67 48 is_stmt 1
	movq	(%rax), %rdi
	.loc	24 67 29 is_stmt 0
	callq	__ZN59_$LT$f32$u20$as$u20$core..num..dec2flt..float..RawFloat$GT$15pow10_fast_path17h64d2ea7948862f37E
	movaps	%xmm0, %xmm1
	movss	-268(%rbp), %xmm0
	.loc	24 67 21
	callq	__ZN45_$LT$f32$u20$as$u20$core..ops..arith..Mul$GT$3mul17hfebe42365ccb25fdE
	movss	%xmm0, -228(%rbp)
	.loc	24 64 17 is_stmt 1
	jmp	LBB48_7
LBB48_6:
	.loc	24 0 17 is_stmt 0
	movq	-248(%rbp), %rax
	.loc	24 65 48 is_stmt 1
	xorl	%ecx, %ecx
	movl	%ecx, %edi
	subq	(%rax), %rdi
	.loc	24 65 29 is_stmt 0
	callq	__ZN59_$LT$f32$u20$as$u20$core..num..dec2flt..float..RawFloat$GT$15pow10_fast_path17h64d2ea7948862f37E
	movaps	%xmm0, %xmm1
	movss	-268(%rbp), %xmm0
	.loc	24 65 21
	callq	__ZN45_$LT$f32$u20$as$u20$core..ops..arith..Div$GT$3div17ha50c34808b19b173E
	movss	%xmm0, -228(%rbp)
Ltmp346:
LBB48_7:
	.loc	24 61 29 is_stmt 1
	jmp	LBB48_8
LBB48_8:
	.loc	24 0 29 is_stmt 0
	movq	-248(%rbp), %rax
Ltmp347:
	.loc	24 78 16 is_stmt 1
	testb	$1, 16(%rax)
	jne	LBB48_21
	jmp	LBB48_20
Ltmp348:
LBB48_9:
	.loc	24 0 16 is_stmt 0
	movq	-264(%rbp), %rdi
	movq	-256(%rbp), %rax
Ltmp349:
	.loc	24 72 58 is_stmt 1
	movq	-192(%rbp,%rax,8), %rsi
	.loc	24 72 32 is_stmt 0
	callq	__ZN4core3num21_$LT$impl$u20$u64$GT$11checked_mul17h3880191fa3f69492E
	movq	%rdx, -200(%rbp)
	movq	%rax, -208(%rbp)
Ltmp350:
	.loc	9 2407 9 is_stmt 1
	cmpq	$0, -208(%rbp)
	je	LBB48_11
	jmp	LBB48_12
Ltmp351:
LBB48_10:
	.loc	9 0 9 is_stmt 0
	movq	-256(%rbp), %rdi
	.loc	24 72 58 is_stmt 1
	leaq	l___unnamed_12(%rip), %rdx
	movl	$16, %esi
	callq	__ZN4core9panicking18panic_bounds_check17hacb8a94866cda541E
LBB48_11:
Ltmp352:
	.loc	9 2409 21
	movq	$1, -224(%rbp)
	.loc	9 2409 44 is_stmt 0
	jmp	LBB48_13
LBB48_12:
	.loc	9 2408 18 is_stmt 1
	movq	-200(%rbp), %rax
	movq	%rax, -24(%rbp)
Ltmp353:
	.loc	9 2408 24 is_stmt 0
	movq	%rax, -216(%rbp)
	movq	$0, -224(%rbp)
Ltmp354:
LBB48_13:
	.loc	24 72 32 is_stmt 1
	cmpq	$0, -224(%rbp)
	jne	LBB48_15
	movq	-216(%rbp), %rax
	movq	%rax, -280(%rbp)
	movq	%rax, -16(%rbp)
Ltmp355:
	.loc	24 72 32 is_stmt 0
	movq	%rax, -8(%rbp)
Ltmp356:
	.loc	24 73 20 is_stmt 1
	cmpq	$16777216, %rax
	ja	LBB48_18
	jmp	LBB48_17
Ltmp357:
LBB48_15:
	.loc	9 2420 21
	movl	$0, -240(%rbp)
Ltmp358:
LBB48_16:
	.loc	24 85 6
	jmp	LBB48_19
LBB48_17:
	.loc	24 0 6 is_stmt 0
	movq	-280(%rbp), %rdi
Ltmp359:
	.loc	24 76 17 is_stmt 1
	callq	__ZN59_$LT$f32$u20$as$u20$core..num..dec2flt..float..RawFloat$GT$8from_u6417hc392f1016dcac6f9E
	movss	%xmm0, -284(%rbp)
	.loc	24 76 41 is_stmt 0
	movl	$10, %edi
	callq	__ZN59_$LT$f32$u20$as$u20$core..num..dec2flt..float..RawFloat$GT$15pow10_fast_path17h64d2ea7948862f37E
	movaps	%xmm0, %xmm1
	movss	-284(%rbp), %xmm0
	.loc	24 76 17
	callq	__ZN45_$LT$f32$u20$as$u20$core..ops..arith..Mul$GT$3mul17hfebe42365ccb25fdE
	movss	%xmm0, -228(%rbp)
Ltmp360:
	.loc	24 61 29 is_stmt 1
	jmp	LBB48_8
LBB48_18:
Ltmp361:
	.loc	24 74 28
	movl	$0, -240(%rbp)
	.loc	19 1 1
	jmp	LBB48_16
Ltmp362:
LBB48_19:
	.loc	24 85 6
	movl	-240(%rbp), %eax
	movss	-236(%rbp), %xmm0
	addq	$288, %rsp
	popq	%rbp
	retq
LBB48_20:
Ltmp363:
	.loc	24 81 18
	movss	-228(%rbp), %xmm0
	.loc	24 81 13 is_stmt 0
	movss	%xmm0, -236(%rbp)
	movl	$1, -240(%rbp)
Ltmp364:
	.loc	24 60 9 is_stmt 1
	jmp	LBB48_22
LBB48_21:
Ltmp365:
	.loc	24 79 26
	movss	-228(%rbp), %xmm0
	.loc	24 79 25 is_stmt 0
	callq	__ZN45_$LT$f32$u20$as$u20$core..ops..arith..Neg$GT$3neg17h8ed6bca1fc25514dE
	.loc	24 79 17
	movss	%xmm0, -228(%rbp)
	.loc	24 78 13 is_stmt 1
	jmp	LBB48_20
Ltmp366:
LBB48_22:
	.loc	24 85 6
	jmp	LBB48_19
Ltmp367:
Lfunc_end48:
	.cfi_endproc

	.globl	__ZN4core3num7dec2flt7dec2flt17hb9aa9b712e363ba8E
	.p2align	4, 0x90
__ZN4core3num7dec2flt7dec2flt17hb9aa9b712e363ba8E:
Lfunc_begin49:
	.loc	16 226 0
	.cfi_startproc
	pushq	%rbp
	.cfi_def_cfa_offset 16
	.cfi_offset %rbp, -16
	movq	%rsp, %rbp
	.cfi_def_cfa_register %rbp
	subq	$352, %rsp
	movq	%rdi, -344(%rbp)
	movq	%rdi, -336(%rbp)
	movq	%rsi, -128(%rbp)
	movq	%rdx, -120(%rbp)
Ltmp368:
	.loc	16 227 17 prologue_end
	movq	%rsi, -112(%rbp)
	movq	%rdx, -104(%rbp)
Ltmp369:
	.file	25 "/rustc/2c8cc343237b8f7d5a3c3703e3a87f2eb2c54a74/library/core/src/str" "mod.rs"
	.loc	25 327 18
	movq	%rsi, -320(%rbp)
	movq	%rdx, -312(%rbp)
Ltmp370:
	.loc	16 228 31
	movq	-320(%rbp), %rcx
	movq	%rcx, -328(%rbp)
	movq	-312(%rbp), %rax
	movq	%rcx, -96(%rbp)
	movq	%rax, -88(%rbp)
Ltmp371:
	.loc	22 172 16
	cmpq	$1, %rax
	jae	LBB49_2
Ltmp372:
	.loc	22 172 58 is_stmt 0
	movq	$0, -304(%rbp)
	.loc	22 172 9
	jmp	LBB49_3
LBB49_2:
	.loc	22 0 9
	movq	-328(%rbp), %rax
Ltmp373:
	.loc	22 172 17
	movq	%rax, -80(%rbp)
	.loc	22 172 37
	movq	%rax, -304(%rbp)
Ltmp374:
LBB49_3:
	.loc	16 228 20 is_stmt 1
	movq	-304(%rbp), %rdx
	movl	$1, %eax
	xorl	%ecx, %ecx
	cmpq	$0, %rdx
	cmoveq	%rcx, %rax
	cmpq	$1, %rax
	jne	LBB49_5
	.loc	16 228 26 is_stmt 0
	movq	-304(%rbp), %rax
	movb	(%rax), %al
	movb	%al, -346(%rbp)
	movb	%al, -67(%rbp)
	.loc	16 229 9 is_stmt 1
	movb	%al, -66(%rbp)
Ltmp375:
	.loc	16 233 20
	cmpb	$45, %al
	sete	%cl
	movb	%cl, -345(%rbp)
	andb	$1, %cl
	movb	%cl, -65(%rbp)
Ltmp376:
	.loc	16 234 8
	cmpb	$45, %al
	je	LBB49_7
	jmp	LBB49_8
Ltmp377:
LBB49_5:
	.loc	16 231 20
	callq	__ZN4core3num7dec2flt9pfe_empty17h65b711c4091896cbE
	movb	%al, %cl
	movq	-344(%rbp), %rax
	.loc	16 231 16 is_stmt 0
	andb	$1, %cl
	movb	%cl, 1(%rax)
	movb	$1, (%rax)
Ltmp378:
LBB49_6:
	.loc	16 269 2 is_stmt 1
	jmp	LBB49_33
LBB49_7:
Ltmp379:
	.loc	16 234 8
	movb	$1, -289(%rbp)
	jmp	LBB49_9
LBB49_8:
	.loc	16 0 8 is_stmt 0
	movb	-346(%rbp), %al
	.loc	16 234 21
	cmpb	$43, %al
	sete	%al
	.loc	16 234 8
	andb	$1, %al
	movb	%al, -289(%rbp)
LBB49_9:
	testb	$1, -289(%rbp)
	jne	LBB49_11
LBB49_10:
	.loc	16 237 8 is_stmt 1
	movq	-320(%rbp), %rcx
	movq	-312(%rbp), %rax
	movq	%rcx, -64(%rbp)
	movq	%rax, -56(%rbp)
	cmpq	$0, %rax
	je	LBB49_12
	jmp	LBB49_13
LBB49_11:
	.loc	16 235 13
	movq	-320(%rbp), %rdi
	movq	-312(%rbp), %rsi
	movl	$1, %edx
	callq	__ZN4core3num7dec2flt6common9ByteSlice7advance17h2d16804f97d24305E
	.loc	16 235 9 is_stmt 0
	movq	%rax, -320(%rbp)
	movq	%rdx, -312(%rbp)
	.loc	16 234 5 is_stmt 1
	jmp	LBB49_10
LBB49_12:
	.loc	16 238 20
	callq	__ZN4core3num7dec2flt11pfe_invalid17h6187b0d3badda816E
	movb	%al, %cl
	movq	-344(%rbp), %rax
	.loc	16 238 16 is_stmt 0
	andb	$1, %cl
	movb	%cl, 1(%rax)
	movb	$1, (%rax)
	.loc	19 1 1 is_stmt 1
	jmp	LBB49_38
LBB49_13:
	.loc	19 0 1 is_stmt 0
	movb	-345(%rbp), %al
	.loc	16 241 34 is_stmt 1
	movq	-320(%rbp), %rsi
	movq	-312(%rbp), %rdx
	.loc	16 241 21 is_stmt 0
	movzbl	%al, %ecx
	andl	$1, %ecx
	leaq	-264(%rbp), %rdi
	callq	__ZN4core3num7dec2flt5parse12parse_number17hfa6ce7b57663b7e3E
	movl	$1, %eax
	xorl	%ecx, %ecx
	cmpb	$2, -248(%rbp)
	cmoveq	%rcx, %rax
	.loc	16 241 15
	cmpq	$0, %rax
	jne	LBB49_15
	.loc	16 0 15
	movb	-345(%rbp), %al
	.loc	16 243 49 is_stmt 1
	movq	-320(%rbp), %rdi
	movq	-312(%rbp), %rsi
	.loc	16 243 35 is_stmt 0
	movzbl	%al, %edx
	andl	$1, %edx
	callq	__ZN4core3num7dec2flt5parse13parse_inf_nan17hf2c61ab120468374E
	movsd	%xmm0, -208(%rbp)
	movq	%rax, -216(%rbp)
	.loc	16 243 21
	cmpq	$1, -216(%rbp)
	je	LBB49_35
	jmp	LBB49_36
LBB49_15:
	.loc	16 242 14 is_stmt 1
	movq	-248(%rbp), %rax
	movq	%rax, -224(%rbp)
	movq	-264(%rbp), %rax
	movq	-256(%rbp), %rcx
	movq	%rcx, -232(%rbp)
	movq	%rax, -240(%rbp)
Ltmp380:
	.loc	16 242 20 is_stmt 0
	movq	-224(%rbp), %rax
	movq	%rax, -272(%rbp)
	movq	-240(%rbp), %rax
	movq	-232(%rbp), %rcx
	movq	%rcx, -280(%rbp)
	movq	%rax, -288(%rbp)
	leaq	-288(%rbp), %rdi
Ltmp381:
	.loc	16 246 26 is_stmt 1
	callq	__ZN4core3num7dec2flt6number6Number13try_fast_path17h0d528f9f5d7c8f47E
	movsd	%xmm0, -192(%rbp)
	movq	%rax, -200(%rbp)
	.loc	16 246 12 is_stmt 0
	cmpq	$1, -200(%rbp)
	jne	LBB49_17
	.loc	16 0 12
	movq	-344(%rbp), %rax
	.loc	16 246 17
	movsd	-192(%rbp), %xmm0
	movsd	%xmm0, -16(%rbp)
	.loc	16 247 16 is_stmt 1
	movsd	%xmm0, 8(%rax)
	movb	$0, (%rax)
Ltmp382:
	.loc	19 1 1
	jmp	LBB49_34
LBB49_17:
	.loc	16 254 37
	movq	-288(%rbp), %rdi
	.loc	16 254 51 is_stmt 0
	movq	-280(%rbp), %rsi
	.loc	16 254 18
	callq	__ZN4core3num7dec2flt6lemire13compute_float17h597cda940da6b26bE
	movl	%edx, -176(%rbp)
	movq	%rax, -184(%rbp)
Ltmp383:
	.loc	16 255 8 is_stmt 1
	testb	$1, -271(%rbp)
	jne	LBB49_19
	movb	$0, -161(%rbp)
	jmp	LBB49_20
LBB49_19:
	.loc	16 255 27 is_stmt 0
	cmpl	$0, -176(%rbp)
	setge	%al
	.loc	16 255 8
	andb	$1, %al
	movb	%al, -161(%rbp)
LBB49_20:
	testb	$1, -161(%rbp)
	jne	LBB49_22
	movb	$0, -162(%rbp)
	jmp	LBB49_26
LBB49_22:
	.loc	16 0 8
	leaq	-184(%rbp), %rax
	.loc	16 255 40
	movq	%rax, -48(%rbp)
	.loc	16 255 65
	movq	-288(%rbp), %rdi
	.loc	16 255 79
	movq	-280(%rbp), %rsi
	incq	%rsi
	.loc	16 255 46
	callq	__ZN4core3num7dec2flt6lemire13compute_float17h597cda940da6b26bE
	movl	%edx, -152(%rbp)
	movq	%rax, -160(%rbp)
	leaq	-160(%rbp), %rax
	movq	%rax, -40(%rbp)
Ltmp384:
	.loc	10 228 10 is_stmt 1
	leaq	-184(%rbp), %rax
	movq	%rax, -32(%rbp)
	.loc	10 228 18 is_stmt 0
	leaq	-160(%rbp), %rax
	movq	%rax, -24(%rbp)
Ltmp385:
	.loc	21 189 5 is_stmt 1
	movq	-184(%rbp), %rax
	cmpq	-160(%rbp), %rax
	.loc	21 191 5
	je	LBB49_24
	movb	$0, -129(%rbp)
	jmp	LBB49_25
LBB49_24:
	movl	-176(%rbp), %eax
	cmpl	-152(%rbp), %eax
	sete	%al
	andb	$1, %al
	movb	%al, -129(%rbp)
Ltmp386:
LBB49_25:
	.loc	10 228 9
	movb	-129(%rbp), %al
	xorb	$-1, %al
Ltmp387:
	.loc	16 255 8
	andb	$1, %al
	movb	%al, -162(%rbp)
LBB49_26:
	testb	$1, -162(%rbp)
	jne	LBB49_28
LBB49_27:
	.loc	16 260 8
	cmpl	$0, -176(%rbp)
	jl	LBB49_30
	jmp	LBB49_29
LBB49_28:
	.loc	16 256 9
	movl	$-1, -176(%rbp)
	.loc	16 255 5
	jmp	LBB49_27
LBB49_29:
	.loc	16 264 45
	movq	-184(%rbp), %rdi
	movl	-176(%rbp), %esi
	.loc	16 264 21 is_stmt 0
	callq	__ZN4core3num7dec2flt18biased_fp_to_float17h718ef2d3e4df052fE
	movsd	%xmm0, -144(%rbp)
Ltmp388:
	.loc	16 265 8 is_stmt 1
	testb	$1, -272(%rbp)
	jne	LBB49_32
	jmp	LBB49_31
Ltmp389:
LBB49_30:
	.loc	16 261 39
	movq	-320(%rbp), %rdi
	movq	-312(%rbp), %rsi
	.loc	16 261 14 is_stmt 0
	callq	__ZN4core3num7dec2flt4slow19parse_long_mantissa17h4bf003e8dbb019b2E
	.loc	16 261 9
	movq	%rax, -184(%rbp)
	movl	%edx, -176(%rbp)
	.loc	16 260 5 is_stmt 1
	jmp	LBB49_29
LBB49_31:
	.loc	16 0 5 is_stmt 0
	movq	-344(%rbp), %rax
Ltmp390:
	.loc	16 268 8 is_stmt 1
	movsd	-144(%rbp), %xmm0
	.loc	16 268 5 is_stmt 0
	movsd	%xmm0, 8(%rax)
	movb	$0, (%rax)
Ltmp391:
	.loc	16 269 2 is_stmt 1
	jmp	LBB49_33
LBB49_32:
Ltmp392:
	.loc	16 266 18
	movsd	-144(%rbp), %xmm0
	.loc	16 266 17 is_stmt 0
	callq	__ZN45_$LT$f64$u20$as$u20$core..ops..arith..Neg$GT$3neg17h33fe1ffa20e4f522E
	.loc	16 266 9
	movsd	%xmm0, -144(%rbp)
	.loc	16 265 5 is_stmt 1
	jmp	LBB49_31
Ltmp393:
LBB49_33:
	.loc	16 0 5 is_stmt 0
	movq	-336(%rbp), %rax
	.loc	16 269 2 is_stmt 1
	addq	$352, %rsp
	popq	%rbp
	retq
LBB49_34:
Ltmp394:
	.loc	19 1 1
	jmp	LBB49_38
LBB49_35:
	.loc	19 0 1 is_stmt 0
	movq	-344(%rbp), %rax
	.loc	16 243 26 is_stmt 1
	movsd	-208(%rbp), %xmm0
	movsd	%xmm0, -8(%rbp)
	.loc	16 243 72 is_stmt 0
	movsd	%xmm0, 8(%rax)
	movb	$0, (%rax)
	.loc	19 1 1 is_stmt 1
	jmp	LBB49_37
LBB49_36:
	.loc	16 244 28
	callq	__ZN4core3num7dec2flt11pfe_invalid17h6187b0d3badda816E
	movb	%al, %cl
	movq	-344(%rbp), %rax
	.loc	16 244 24 is_stmt 0
	andb	$1, %cl
	movb	%cl, 1(%rax)
	movb	$1, (%rax)
LBB49_37:
	.loc	19 1 1 is_stmt 1
	jmp	LBB49_34
Ltmp395:
LBB49_38:
	.loc	19 1 1 is_stmt 0
	jmp	LBB49_6
Ltmp396:
Lfunc_end49:
	.cfi_endproc

	.globl	__ZN4core3num7dec2flt7dec2flt17hda60e6ebfa5e5b4aE
	.p2align	4, 0x90
__ZN4core3num7dec2flt7dec2flt17hda60e6ebfa5e5b4aE:
Lfunc_begin50:
	.loc	16 226 0 is_stmt 1
	.cfi_startproc
	pushq	%rbp
	.cfi_def_cfa_offset 16
	.cfi_offset %rbp, -16
	movq	%rsp, %rbp
	.cfi_def_cfa_register %rbp
	subq	$320, %rsp
	movq	%rdi, -120(%rbp)
	movq	%rsi, -112(%rbp)
Ltmp397:
	.loc	16 227 17 prologue_end
	movq	%rdi, -104(%rbp)
	movq	%rsi, -96(%rbp)
Ltmp398:
	.loc	25 327 18
	movq	%rdi, -288(%rbp)
	movq	%rsi, -280(%rbp)
Ltmp399:
	.loc	16 228 31
	movq	-288(%rbp), %rcx
	movq	%rcx, -304(%rbp)
	movq	-280(%rbp), %rax
	movq	%rcx, -88(%rbp)
	movq	%rax, -80(%rbp)
Ltmp400:
	.loc	22 172 16
	cmpq	$1, %rax
	jae	LBB50_2
Ltmp401:
	.loc	22 172 58 is_stmt 0
	movq	$0, -272(%rbp)
	.loc	22 172 9
	jmp	LBB50_3
LBB50_2:
	.loc	22 0 9
	movq	-304(%rbp), %rax
Ltmp402:
	.loc	22 172 17
	movq	%rax, -72(%rbp)
	.loc	22 172 37
	movq	%rax, -272(%rbp)
Ltmp403:
LBB50_3:
	.loc	16 228 20 is_stmt 1
	movq	-272(%rbp), %rdx
	movl	$1, %eax
	xorl	%ecx, %ecx
	cmpq	$0, %rdx
	cmoveq	%rcx, %rax
	cmpq	$1, %rax
	jne	LBB50_5
	.loc	16 228 26 is_stmt 0
	movq	-272(%rbp), %rax
	movb	(%rax), %al
	movb	%al, -306(%rbp)
	movb	%al, -59(%rbp)
	.loc	16 229 9 is_stmt 1
	movb	%al, -58(%rbp)
Ltmp404:
	.loc	16 233 20
	cmpb	$45, %al
	sete	%cl
	movb	%cl, -305(%rbp)
	andb	$1, %cl
	movb	%cl, -57(%rbp)
Ltmp405:
	.loc	16 234 8
	cmpb	$45, %al
	je	LBB50_7
	jmp	LBB50_8
Ltmp406:
LBB50_5:
	.loc	16 231 20
	callq	__ZN4core3num7dec2flt9pfe_empty17h65b711c4091896cbE
	.loc	16 231 16 is_stmt 0
	andb	$1, %al
	movb	%al, -295(%rbp)
	movb	$1, -296(%rbp)
Ltmp407:
LBB50_6:
	.loc	16 269 2 is_stmt 1
	jmp	LBB50_33
LBB50_7:
Ltmp408:
	.loc	16 234 8
	movb	$1, -257(%rbp)
	jmp	LBB50_9
LBB50_8:
	.loc	16 0 8 is_stmt 0
	movb	-306(%rbp), %al
	.loc	16 234 21
	cmpb	$43, %al
	sete	%al
	.loc	16 234 8
	andb	$1, %al
	movb	%al, -257(%rbp)
LBB50_9:
	testb	$1, -257(%rbp)
	jne	LBB50_11
LBB50_10:
	.loc	16 237 8 is_stmt 1
	movq	-288(%rbp), %rcx
	movq	-280(%rbp), %rax
	movq	%rcx, -56(%rbp)
	movq	%rax, -48(%rbp)
	cmpq	$0, %rax
	je	LBB50_12
	jmp	LBB50_13
LBB50_11:
	.loc	16 235 13
	movq	-288(%rbp), %rdi
	movq	-280(%rbp), %rsi
	movl	$1, %edx
	callq	__ZN4core3num7dec2flt6common9ByteSlice7advance17h2d16804f97d24305E
	.loc	16 235 9 is_stmt 0
	movq	%rax, -288(%rbp)
	movq	%rdx, -280(%rbp)
	.loc	16 234 5 is_stmt 1
	jmp	LBB50_10
LBB50_12:
	.loc	16 238 20
	callq	__ZN4core3num7dec2flt11pfe_invalid17h6187b0d3badda816E
	.loc	16 238 16 is_stmt 0
	andb	$1, %al
	movb	%al, -295(%rbp)
	movb	$1, -296(%rbp)
	.loc	19 1 1 is_stmt 1
	jmp	LBB50_38
LBB50_13:
	.loc	19 0 1 is_stmt 0
	movb	-305(%rbp), %al
	.loc	16 241 34 is_stmt 1
	movq	-288(%rbp), %rsi
	movq	-280(%rbp), %rdx
	.loc	16 241 21 is_stmt 0
	movzbl	%al, %ecx
	andl	$1, %ecx
	leaq	-232(%rbp), %rdi
	callq	__ZN4core3num7dec2flt5parse12parse_number17hfa6ce7b57663b7e3E
	movl	$1, %eax
	xorl	%ecx, %ecx
	cmpb	$2, -216(%rbp)
	cmoveq	%rcx, %rax
	.loc	16 241 15
	cmpq	$0, %rax
	jne	LBB50_15
	.loc	16 0 15
	movb	-305(%rbp), %al
	.loc	16 243 49 is_stmt 1
	movq	-288(%rbp), %rdi
	movq	-280(%rbp), %rsi
	.loc	16 243 35 is_stmt 0
	movzbl	%al, %edx
	andl	$1, %edx
	callq	__ZN4core3num7dec2flt5parse13parse_inf_nan17hc66a089bc0ba2f62E
	movss	%xmm0, -180(%rbp)
	movl	%eax, -184(%rbp)
	.loc	16 243 21
	movl	-184(%rbp), %eax
	cmpq	$1, %rax
	je	LBB50_35
	jmp	LBB50_36
LBB50_15:
	.loc	16 242 14 is_stmt 1
	movq	-216(%rbp), %rax
	movq	%rax, -192(%rbp)
	movq	-232(%rbp), %rax
	movq	-224(%rbp), %rcx
	movq	%rcx, -200(%rbp)
	movq	%rax, -208(%rbp)
Ltmp409:
	.loc	16 242 20 is_stmt 0
	movq	-192(%rbp), %rax
	movq	%rax, -240(%rbp)
	movq	-208(%rbp), %rax
	movq	-200(%rbp), %rcx
	movq	%rcx, -248(%rbp)
	movq	%rax, -256(%rbp)
	leaq	-256(%rbp), %rdi
Ltmp410:
	.loc	16 246 26 is_stmt 1
	callq	__ZN4core3num7dec2flt6number6Number13try_fast_path17h81b789190c68776eE
	movss	%xmm0, -172(%rbp)
	movl	%eax, -176(%rbp)
	.loc	16 246 12 is_stmt 0
	movl	-176(%rbp), %eax
	cmpq	$1, %rax
	jne	LBB50_17
	.loc	16 246 17
	movss	-172(%rbp), %xmm0
	movss	%xmm0, -8(%rbp)
	.loc	16 247 16 is_stmt 1
	movss	%xmm0, -292(%rbp)
	movb	$0, -296(%rbp)
Ltmp411:
	.loc	19 1 1
	jmp	LBB50_34
LBB50_17:
	.loc	16 254 37
	movq	-256(%rbp), %rdi
	.loc	16 254 51 is_stmt 0
	movq	-248(%rbp), %rsi
	.loc	16 254 18
	callq	__ZN4core3num7dec2flt6lemire13compute_float17ha2a0bce44ac1e7ebE
	movl	%edx, -160(%rbp)
	movq	%rax, -168(%rbp)
Ltmp412:
	.loc	16 255 8 is_stmt 1
	testb	$1, -239(%rbp)
	jne	LBB50_19
	movb	$0, -145(%rbp)
	jmp	LBB50_20
LBB50_19:
	.loc	16 255 27 is_stmt 0
	cmpl	$0, -160(%rbp)
	setge	%al
	.loc	16 255 8
	andb	$1, %al
	movb	%al, -145(%rbp)
LBB50_20:
	testb	$1, -145(%rbp)
	jne	LBB50_22
	movb	$0, -146(%rbp)
	jmp	LBB50_26
LBB50_22:
	.loc	16 0 8
	leaq	-168(%rbp), %rax
	.loc	16 255 40
	movq	%rax, -40(%rbp)
	.loc	16 255 65
	movq	-256(%rbp), %rdi
	.loc	16 255 79
	movq	-248(%rbp), %rsi
	incq	%rsi
	.loc	16 255 46
	callq	__ZN4core3num7dec2flt6lemire13compute_float17ha2a0bce44ac1e7ebE
	movl	%edx, -136(%rbp)
	movq	%rax, -144(%rbp)
	leaq	-144(%rbp), %rax
	movq	%rax, -32(%rbp)
Ltmp413:
	.loc	10 228 10 is_stmt 1
	leaq	-168(%rbp), %rax
	movq	%rax, -24(%rbp)
	.loc	10 228 18 is_stmt 0
	leaq	-144(%rbp), %rax
	movq	%rax, -16(%rbp)
Ltmp414:
	.loc	21 189 5 is_stmt 1
	movq	-168(%rbp), %rax
	cmpq	-144(%rbp), %rax
	.loc	21 191 5
	je	LBB50_24
	movb	$0, -121(%rbp)
	jmp	LBB50_25
LBB50_24:
	movl	-160(%rbp), %eax
	cmpl	-136(%rbp), %eax
	sete	%al
	andb	$1, %al
	movb	%al, -121(%rbp)
Ltmp415:
LBB50_25:
	.loc	10 228 9
	movb	-121(%rbp), %al
	xorb	$-1, %al
Ltmp416:
	.loc	16 255 8
	andb	$1, %al
	movb	%al, -146(%rbp)
LBB50_26:
	testb	$1, -146(%rbp)
	jne	LBB50_28
LBB50_27:
	.loc	16 260 8
	cmpl	$0, -160(%rbp)
	jl	LBB50_30
	jmp	LBB50_29
LBB50_28:
	.loc	16 256 9
	movl	$-1, -160(%rbp)
	.loc	16 255 5
	jmp	LBB50_27
LBB50_29:
	.loc	16 264 45
	movq	-168(%rbp), %rdi
	movl	-160(%rbp), %esi
	.loc	16 264 21 is_stmt 0
	callq	__ZN4core3num7dec2flt18biased_fp_to_float17h0dbd151a05d21118E
	movss	%xmm0, -128(%rbp)
Ltmp417:
	.loc	16 265 8 is_stmt 1
	testb	$1, -240(%rbp)
	jne	LBB50_32
	jmp	LBB50_31
Ltmp418:
LBB50_30:
	.loc	16 261 39
	movq	-288(%rbp), %rdi
	movq	-280(%rbp), %rsi
	.loc	16 261 14 is_stmt 0
	callq	__ZN4core3num7dec2flt4slow19parse_long_mantissa17h20dba9c16c604786E
	.loc	16 261 9
	movq	%rax, -168(%rbp)
	movl	%edx, -160(%rbp)
	.loc	16 260 5 is_stmt 1
	jmp	LBB50_29
LBB50_31:
Ltmp419:
	.loc	16 268 8
	movss	-128(%rbp), %xmm0
	.loc	16 268 5 is_stmt 0
	movss	%xmm0, -292(%rbp)
	movb	$0, -296(%rbp)
Ltmp420:
	.loc	16 269 2 is_stmt 1
	jmp	LBB50_33
LBB50_32:
Ltmp421:
	.loc	16 266 18
	movss	-128(%rbp), %xmm0
	.loc	16 266 17 is_stmt 0
	callq	__ZN45_$LT$f32$u20$as$u20$core..ops..arith..Neg$GT$3neg17h8ed6bca1fc25514dE
	.loc	16 266 9
	movss	%xmm0, -128(%rbp)
	.loc	16 265 5 is_stmt 1
	jmp	LBB50_31
Ltmp422:
LBB50_33:
	.loc	16 269 2
	movq	-296(%rbp), %rax
	addq	$320, %rsp
	popq	%rbp
	retq
LBB50_34:
Ltmp423:
	.loc	19 1 1
	jmp	LBB50_38
LBB50_35:
	.loc	16 243 26
	movss	-180(%rbp), %xmm0
	movss	%xmm0, -4(%rbp)
	.loc	16 243 72 is_stmt 0
	movss	%xmm0, -292(%rbp)
	movb	$0, -296(%rbp)
	.loc	19 1 1 is_stmt 1
	jmp	LBB50_37
LBB50_36:
	.loc	16 244 28
	callq	__ZN4core3num7dec2flt11pfe_invalid17h6187b0d3badda816E
	.loc	16 244 24 is_stmt 0
	andb	$1, %al
	movb	%al, -295(%rbp)
	movb	$1, -296(%rbp)
LBB50_37:
	.loc	19 1 1 is_stmt 1
	jmp	LBB50_34
Ltmp424:
LBB50_38:
	.loc	19 1 1 is_stmt 0
	jmp	LBB50_6
Ltmp425:
Lfunc_end50:
	.cfi_endproc

	.p2align	4, 0x90
__ZN4core3ops8function6FnOnce9call_once17hf9c209307cd19614E:
Lfunc_begin51:
	.file	26 "/rustc/2c8cc343237b8f7d5a3c3703e3a87f2eb2c54a74/library/core/src/ops" "function.rs"
	.loc	26 250 0 is_stmt 1
	.cfi_startproc
	pushq	%rbp
	.cfi_def_cfa_offset 16
	.cfi_offset %rbp, -16
	movq	%rsp, %rbp
	.cfi_def_cfa_register %rbp
	subq	$32, %rsp
	movq	%rdi, -24(%rbp)
	movq	%rsi, -16(%rbp)
Ltmp426:
	.loc	26 250 5 prologue_end
	movq	-24(%rbp), %rdi
	movq	-16(%rbp), %rsi
	callq	__ZN4core3cmp5impls50_$LT$impl$u20$core..cmp..Ord$u20$for$u20$usize$GT$3cmp17h8f971366653eb292E
	addq	$32, %rsp
	popq	%rbp
	retq
Ltmp427:
Lfunc_end51:
	.cfi_endproc

	.p2align	4, 0x90
__ZN4core3ptr51drop_in_place$LT$$RF$num_traits..FloatErrorKind$GT$17hf213c66addd00976E:
Lfunc_begin52:
	.loc	6 490 0
	.cfi_startproc
	pushq	%rbp
	.cfi_def_cfa_offset 16
	.cfi_offset %rbp, -16
	movq	%rsp, %rbp
	.cfi_def_cfa_register %rbp
	pushq	%rax
	movq	%rdi, -8(%rbp)
Ltmp428:
	.loc	6 490 1 prologue_end
	addq	$8, %rsp
	popq	%rbp
	retq
Ltmp429:
Lfunc_end52:
	.cfi_endproc

	.globl	__ZN4core3ptr9const_ptr33_$LT$impl$u20$$BP$const$u20$T$GT$7sub_ptr17ha09c46ab572fce32E
	.p2align	4, 0x90
__ZN4core3ptr9const_ptr33_$LT$impl$u20$$BP$const$u20$T$GT$7sub_ptr17ha09c46ab572fce32E:
Lfunc_begin53:
	.loc	5 791 0
	.cfi_startproc
	pushq	%rbp
	.cfi_def_cfa_offset 16
	.cfi_offset %rbp, -16
	movq	%rsp, %rbp
	.cfi_def_cfa_register %rbp
	subq	$64, %rsp
	movq	%rdi, -56(%rbp)
	movq	%rsi, -48(%rbp)
	movq	%rdi, -32(%rbp)
	movq	%rsi, -24(%rbp)
Ltmp430:
	.file	27 "/rustc/2c8cc343237b8f7d5a3c3703e3a87f2eb2c54a74/library/core/src/mem" "mod.rs"
	.loc	27 309 5 prologue_end
	movq	$1, -16(%rbp)
Ltmp431:
	.loc	5 806 17
	movb	$1, %al
	testb	$1, %al
	jne	LBB53_2
	movb	$0, -33(%rbp)
	jmp	LBB53_3
LBB53_2:
	movb	$1, -33(%rbp)
LBB53_3:
	.loc	5 806 9 is_stmt 0
	movb	-33(%rbp), %al
	xorb	$-1, %al
	testb	$1, %al
	jne	LBB53_5
	.loc	5 0 9
	movq	-48(%rbp), %rcx
	movq	-56(%rbp), %rax
	.loc	5 808 18 is_stmt 1
	subq	%rcx, %rax
	shrq	$0, %rax
	movq	%rax, -8(%rbp)
	movq	-8(%rbp), %rax
Ltmp432:
	.loc	5 809 6
	addq	$64, %rsp
	popq	%rbp
	retq
LBB53_5:
Ltmp433:
	.loc	5 806 9
	leaq	l___unnamed_13(%rip), %rdi
	leaq	l___unnamed_14(%rip), %rdx
	movl	$73, %esi
	callq	__ZN4core9panicking5panic17hc1bc45270cf64b03E
Ltmp434:
Lfunc_end53:
	.cfi_endproc

	.globl	__ZN4core3str11validations15next_code_point17h5658fcdf11f94891E
	.p2align	4, 0x90
__ZN4core3str11validations15next_code_point17h5658fcdf11f94891E:
Lfunc_begin54:
	.file	28 "/rustc/2c8cc343237b8f7d5a3c3703e3a87f2eb2c54a74/library/core/src/str" "validations.rs"
	.loc	28 36 0
	.cfi_startproc
	pushq	%rbp
	.cfi_def_cfa_offset 16
	.cfi_offset %rbp, -16
	movq	%rsp, %rbp
	.cfi_def_cfa_register %rbp
	subq	$144, %rsp
	movq	%rdi, -128(%rbp)
	movq	%rdi, -88(%rbp)
Ltmp435:
	.loc	28 38 14 prologue_end
	callq	__ZN91_$LT$core..slice..iter..Iter$LT$T$GT$$u20$as$u20$core..iter..traits..iterator..Iterator$GT$4next17hbf918c1c9b98d2bfE
	movq	%rax, -104(%rbp)
Ltmp436:
	.loc	9 2407 15
	movq	-104(%rbp), %rdx
	movl	$1, %eax
	xorl	%ecx, %ecx
	cmpq	$0, %rdx
	cmoveq	%rcx, %rax
	.loc	9 2407 9 is_stmt 0
	cmpq	$0, %rax
	jne	LBB54_2
	.loc	9 2409 21 is_stmt 1
	movq	$0, -112(%rbp)
	.loc	9 2409 44 is_stmt 0
	jmp	LBB54_3
LBB54_2:
	.loc	9 2408 18 is_stmt 1
	movq	-104(%rbp), %rax
	movq	%rax, -64(%rbp)
Ltmp437:
	.loc	9 2408 24 is_stmt 0
	movq	%rax, -112(%rbp)
Ltmp438:
LBB54_3:
	.loc	28 38 14 is_stmt 1
	movq	-112(%rbp), %rdx
	xorl	%eax, %eax
	movl	$1, %ecx
	cmpq	$0, %rdx
	cmoveq	%rcx, %rax
	cmpq	$0, %rax
	jne	LBB54_5
	movq	-112(%rbp), %rax
	movq	%rax, -56(%rbp)
	.loc	28 38 13 is_stmt 0
	movb	(%rax), %al
	movb	%al, -129(%rbp)
	movb	%al, -42(%rbp)
Ltmp439:
	.loc	28 39 8 is_stmt 1
	cmpb	$-128, %al
	jb	LBB54_8
	jmp	LBB54_7
Ltmp440:
LBB54_5:
	.loc	9 2420 21
	movl	$0, -120(%rbp)
Ltmp441:
LBB54_6:
	.loc	28 70 2
	jmp	LBB54_9
LBB54_7:
	.loc	28 0 2 is_stmt 0
	movb	-129(%rbp), %al
	movq	-128(%rbp), %rdi
Ltmp442:
	.loc	28 46 32 is_stmt 1
	movb	%al, -41(%rbp)
Ltmp443:
	.loc	28 12 5
	andb	$31, %al
	movzbl	%al, %eax
	movl	%eax, -136(%rbp)
	movl	%eax, -40(%rbp)
Ltmp444:
	.loc	28 49 23
	callq	__ZN91_$LT$core..slice..iter..Iter$LT$T$GT$$u20$as$u20$core..iter..traits..iterator..Iterator$GT$4next17hbf918c1c9b98d2bfE
	movq	%rax, %rdi
	leaq	l___unnamed_15(%rip), %rsi
	callq	__ZN4core6option15Option$LT$T$GT$16unwrap_unchecked17h4aeca514bf33dfecE
	movl	-136(%rbp), %ecx
	movq	%rax, %rdx
	movb	-129(%rbp), %al
	.loc	28 49 22 is_stmt 0
	movb	(%rdx), %dl
	movb	%dl, -130(%rbp)
	movb	%dl, -33(%rbp)
Ltmp445:
	.loc	28 50 37 is_stmt 1
	movl	%ecx, -32(%rbp)
	.loc	28 50 43 is_stmt 0
	movb	%dl, -26(%rbp)
Ltmp446:
	.loc	28 18 5 is_stmt 1
	shll	$6, %ecx
	.loc	28 18 17 is_stmt 0
	andb	$63, %dl
	movzbl	%dl, %edx
	.loc	28 18 5
	orl	%edx, %ecx
	movl	%ecx, -92(%rbp)
Ltmp447:
	.loc	28 51 8 is_stmt 1
	cmpb	$-32, %al
	jae	LBB54_11
	jmp	LBB54_10
Ltmp448:
LBB54_8:
	.loc	28 0 8 is_stmt 0
	movb	-129(%rbp), %al
	.loc	28 40 21 is_stmt 1
	movzbl	%al, %eax
	.loc	28 40 16 is_stmt 0
	movl	%eax, -116(%rbp)
	movl	$1, -120(%rbp)
	.loc	19 1 1 is_stmt 1
	jmp	LBB54_6
Ltmp449:
LBB54_9:
	.loc	28 70 2
	movl	-120(%rbp), %eax
	movl	-116(%rbp), %edx
	addq	$144, %rsp
	popq	%rbp
	retq
LBB54_10:
Ltmp450:
	.loc	28 69 10
	movl	-92(%rbp), %eax
	.loc	28 69 5 is_stmt 0
	movl	%eax, -116(%rbp)
	movl	$1, -120(%rbp)
Ltmp451:
	.loc	28 70 2 is_stmt 1
	jmp	LBB54_9
LBB54_11:
	.loc	28 0 2 is_stmt 0
	movq	-128(%rbp), %rdi
Ltmp452:
	.loc	28 56 27 is_stmt 1
	callq	__ZN91_$LT$core..slice..iter..Iter$LT$T$GT$$u20$as$u20$core..iter..traits..iterator..Iterator$GT$4next17hbf918c1c9b98d2bfE
	movq	%rax, %rdi
	leaq	l___unnamed_16(%rip), %rsi
	callq	__ZN4core6option15Option$LT$T$GT$16unwrap_unchecked17h4aeca514bf33dfecE
	movb	-130(%rbp), %dl
	movl	-136(%rbp), %ecx
	movq	%rax, %rsi
	movb	-129(%rbp), %al
	.loc	28 56 26 is_stmt 0
	movb	(%rsi), %sil
	movb	%sil, -25(%rbp)
Ltmp453:
	.loc	28 57 38 is_stmt 1
	andb	$63, %dl
	movzbl	%dl, %edx
	movl	%edx, -24(%rbp)
	.loc	28 57 62 is_stmt 0
	movb	%sil, -17(%rbp)
Ltmp454:
	.loc	28 18 5 is_stmt 1
	shll	$6, %edx
	.loc	28 18 17 is_stmt 0
	andb	$63, %sil
	movzbl	%sil, %esi
	.loc	28 18 5
	orl	%esi, %edx
	movl	%edx, -140(%rbp)
	movl	%edx, -16(%rbp)
Ltmp455:
	.loc	28 58 14 is_stmt 1
	shll	$12, %ecx
	.loc	28 58 9 is_stmt 0
	orl	%edx, %ecx
	movl	%ecx, -92(%rbp)
	.loc	28 59 12 is_stmt 1
	cmpb	$-16, %al
	jae	LBB54_13
Ltmp456:
LBB54_12:
	.loc	28 51 5
	jmp	LBB54_10
LBB54_13:
	.loc	28 0 5 is_stmt 0
	movq	-128(%rbp), %rdi
Ltmp457:
	.loc	28 64 31 is_stmt 1
	callq	__ZN91_$LT$core..slice..iter..Iter$LT$T$GT$$u20$as$u20$core..iter..traits..iterator..Iterator$GT$4next17hbf918c1c9b98d2bfE
	movq	%rax, %rdi
	leaq	l___unnamed_17(%rip), %rsi
	callq	__ZN4core6option15Option$LT$T$GT$16unwrap_unchecked17h4aeca514bf33dfecE
	movl	-140(%rbp), %ecx
	movq	%rax, %rdx
	movl	-136(%rbp), %eax
	.loc	28 64 30 is_stmt 0
	movb	(%rdx), %dl
	movb	%dl, -9(%rbp)
Ltmp458:
	.loc	28 65 18 is_stmt 1
	andl	$7, %eax
	shll	$18, %eax
	.loc	28 65 56 is_stmt 0
	movl	%ecx, -8(%rbp)
	.loc	28 65 61
	movb	%dl, -1(%rbp)
Ltmp459:
	.loc	28 18 5 is_stmt 1
	shll	$6, %ecx
	.loc	28 18 17 is_stmt 0
	andb	$63, %dl
	movzbl	%dl, %edx
	.loc	28 18 5
	orl	%edx, %ecx
Ltmp460:
	.loc	28 65 13 is_stmt 1
	orl	%ecx, %eax
	movl	%eax, -92(%rbp)
Ltmp461:
	.loc	28 59 9
	jmp	LBB54_12
Ltmp462:
Lfunc_end54:
	.cfi_endproc

	.p2align	4, 0x90
__ZN4core3str21_$LT$impl$u20$str$GT$16is_char_boundary17h94d426a160b94de7E:
Lfunc_begin55:
	.loc	25 211 0
	.cfi_startproc
	pushq	%rbp
	.cfi_def_cfa_offset 16
	.cfi_offset %rbp, -16
	movq	%rsp, %rbp
	.cfi_def_cfa_register %rbp
	subq	$176, %rsp
	movq	%rdi, -176(%rbp)
	movq	%rsi, -168(%rbp)
	movq	%rdx, -160(%rbp)
	movq	%rdi, -136(%rbp)
	movq	%rsi, -128(%rbp)
	movq	%rdx, -120(%rbp)
Ltmp463:
	.loc	25 216 12 prologue_end
	cmpq	$0, %rdx
	jne	LBB55_2
	.loc	25 217 20
	movb	$1, -145(%rbp)
	.loc	25 234 6
	jmp	LBB55_6
LBB55_2:
	.loc	25 0 6 is_stmt 0
	movq	-160(%rbp), %rdi
	movq	-168(%rbp), %rax
	movq	-176(%rbp), %rcx
	.loc	25 220 15 is_stmt 1
	movq	%rcx, -112(%rbp)
	movq	%rax, -104(%rbp)
Ltmp464:
	.loc	25 327 18
	movq	%rcx, -96(%rbp)
	movq	%rax, -88(%rbp)
	movq	-96(%rbp), %rsi
	movq	-88(%rbp), %rdx
Ltmp465:
	.loc	25 220 15
	movq	%rsi, -80(%rbp)
	movq	%rdx, -72(%rbp)
	.loc	25 220 35 is_stmt 0
	movq	%rdi, -64(%rbp)
Ltmp466:
	.loc	22 343 9 is_stmt 1
	callq	__ZN75_$LT$usize$u20$as$u20$core..slice..index..SliceIndex$LT$$u5b$T$u5d$$GT$$GT$3get17h6a890372d3b88044E
	movq	%rax, -144(%rbp)
Ltmp467:
	.loc	25 220 15
	movq	-144(%rbp), %rdx
	movl	$1, %eax
	xorl	%ecx, %ecx
	cmpq	$0, %rdx
	cmoveq	%rcx, %rax
	.loc	25 220 9 is_stmt 0
	cmpq	$0, %rax
	jne	LBB55_4
	.loc	25 0 9
	movq	-160(%rbp), %rax
	movq	-168(%rbp), %rcx
	movq	-176(%rbp), %rdx
	.loc	25 230 30 is_stmt 1
	movq	%rdx, -48(%rbp)
	movq	%rcx, -40(%rbp)
Ltmp468:
	.loc	25 160 9
	movq	%rdx, -32(%rbp)
	movq	%rcx, -24(%rbp)
Ltmp469:
	.loc	25 327 18
	movq	%rdx, -16(%rbp)
	movq	%rcx, -8(%rbp)
Ltmp470:
	.loc	25 230 21
	cmpq	-8(%rbp), %rax
	sete	%al
	andb	$1, %al
	movb	%al, -145(%rbp)
	.loc	25 230 39 is_stmt 0
	jmp	LBB55_5
LBB55_4:
	.loc	25 232 19 is_stmt 1
	movq	-144(%rbp), %rax
	movb	(%rax), %al
	movb	%al, -50(%rbp)
Ltmp471:
	.loc	25 232 25 is_stmt 0
	movb	%al, -49(%rbp)
Ltmp472:
	.file	29 "/rustc/2c8cc343237b8f7d5a3c3703e3a87f2eb2c54a74/library/core/src/num" "mod.rs"
	.loc	29 885 9 is_stmt 1
	cmpb	$-64, %al
	setge	%al
	andb	$1, %al
	movb	%al, -145(%rbp)
Ltmp473:
LBB55_5:
	.loc	25 234 6
	jmp	LBB55_6
LBB55_6:
	movb	-145(%rbp), %al
	andb	$1, %al
	movzbl	%al, %eax
	addq	$176, %rsp
	popq	%rbp
	retq
Ltmp474:
Lfunc_end55:
	.cfi_endproc

	.p2align	4, 0x90
__ZN4core3str21_$LT$impl$u20$str$GT$3len17h4cbdbaf2157dd262E:
Lfunc_begin56:
	.loc	25 159 0
	.cfi_startproc
	pushq	%rbp
	.cfi_def_cfa_offset 16
	.cfi_offset %rbp, -16
	movq	%rsp, %rbp
	.cfi_def_cfa_register %rbp
	subq	$48, %rsp
	movq	%rdi, -48(%rbp)
	movq	%rsi, -40(%rbp)
Ltmp475:
	.loc	25 160 9 prologue_end
	movq	%rdi, -32(%rbp)
	movq	%rsi, -24(%rbp)
Ltmp476:
	.loc	25 327 18
	movq	%rdi, -16(%rbp)
	movq	%rsi, -8(%rbp)
	movq	-8(%rbp), %rax
Ltmp477:
	.loc	25 161 6
	addq	$48, %rsp
	popq	%rbp
	retq
Ltmp478:
Lfunc_end56:
	.cfi_endproc

	.p2align	4, 0x90
__ZN4core3str21_$LT$impl$u20$str$GT$5bytes17hd2de380915f2dedbE:
Lfunc_begin57:
	.loc	25 864 0
	.cfi_startproc
	pushq	%rbp
	.cfi_def_cfa_offset 16
	.cfi_offset %rbp, -16
	movq	%rsp, %rbp
	.cfi_def_cfa_register %rbp
	subq	$80, %rsp
	movq	%rdi, -64(%rbp)
	movq	%rsi, -56(%rbp)
Ltmp479:
	.loc	25 865 15 prologue_end
	movq	%rdi, -48(%rbp)
	movq	%rsi, -40(%rbp)
Ltmp480:
	.loc	25 327 18
	movq	%rdi, -32(%rbp)
	movq	%rsi, -24(%rbp)
	movq	-32(%rbp), %rdi
	movq	-24(%rbp), %rsi
Ltmp481:
	.loc	25 865 15
	movq	%rdi, -16(%rbp)
	movq	%rsi, -8(%rbp)
Ltmp482:
	.loc	22 742 9
	callq	__ZN4core5slice4iter13Iter$LT$T$GT$3new17hdeeaf60433ad8842E
	movq	%rax, %rdi
	movq	%rdx, %rsi
Ltmp483:
	.loc	25 865 15
	callq	__ZN4core4iter6traits8iterator8Iterator6copied17h01af376fc52ca0f6E
	.loc	25 865 9 is_stmt 0
	movq	%rax, -80(%rbp)
	movq	%rdx, -72(%rbp)
	.loc	25 866 6 is_stmt 1
	movq	-80(%rbp), %rax
	movq	-72(%rbp), %rdx
	addq	$80, %rsp
	popq	%rbp
	retq
Ltmp484:
Lfunc_end57:
	.cfi_endproc

	.p2align	4, 0x90
__ZN4core3str21_$LT$impl$u20$str$GT$5chars17h8510b20fc2baa975E:
Lfunc_begin58:
	.loc	25 782 0
	.cfi_startproc
	pushq	%rbp
	.cfi_def_cfa_offset 16
	.cfi_offset %rbp, -16
	movq	%rsp, %rbp
	.cfi_def_cfa_register %rbp
	subq	$80, %rsp
	movq	%rdi, -64(%rbp)
	movq	%rsi, -56(%rbp)
Ltmp485:
	.loc	25 783 23 prologue_end
	movq	%rdi, -48(%rbp)
	movq	%rsi, -40(%rbp)
Ltmp486:
	.loc	25 327 18
	movq	%rdi, -32(%rbp)
	movq	%rsi, -24(%rbp)
	movq	-32(%rbp), %rdi
	movq	-24(%rbp), %rsi
Ltmp487:
	.loc	25 783 23
	movq	%rdi, -16(%rbp)
	movq	%rsi, -8(%rbp)
Ltmp488:
	.loc	22 742 9
	callq	__ZN4core5slice4iter13Iter$LT$T$GT$3new17hdeeaf60433ad8842E
Ltmp489:
	.loc	25 783 9
	movq	%rax, -80(%rbp)
	movq	%rdx, -72(%rbp)
	.loc	25 784 6
	movq	-80(%rbp), %rax
	movq	-72(%rbp), %rdx
	addq	$80, %rsp
	popq	%rbp
	retq
Ltmp490:
Lfunc_end58:
	.cfi_endproc

	.globl	__ZN4core3str21_$LT$impl$u20$str$GT$5parse17h00b33d7980e57a2bE
	.p2align	4, 0x90
__ZN4core3str21_$LT$impl$u20$str$GT$5parse17h00b33d7980e57a2bE:
Lfunc_begin59:
	.loc	25 2352 0
	.cfi_startproc
	pushq	%rbp
	.cfi_def_cfa_offset 16
	.cfi_offset %rbp, -16
	movq	%rsp, %rbp
	.cfi_def_cfa_register %rbp
	subq	$32, %rsp
	movq	%rdi, %rax
	movq	%rax, -24(%rbp)
	movq	%rsi, -16(%rbp)
	movq	%rdx, -8(%rbp)
Ltmp491:
	.loc	25 2353 9 prologue_end
	callq	__ZN4core3num7dec2flt60_$LT$impl$u20$core..str..traits..FromStr$u20$for$u20$f64$GT$8from_str17hf917219518fc986bE
	movq	-24(%rbp), %rax
	.loc	25 2354 6
	addq	$32, %rsp
	popq	%rbp
	retq
Ltmp492:
Lfunc_end59:
	.cfi_endproc

	.globl	__ZN4core3str21_$LT$impl$u20$str$GT$5parse17hae8742d1a125c5a8E
	.p2align	4, 0x90
__ZN4core3str21_$LT$impl$u20$str$GT$5parse17hae8742d1a125c5a8E:
Lfunc_begin60:
	.loc	25 2352 0
	.cfi_startproc
	pushq	%rbp
	.cfi_def_cfa_offset 16
	.cfi_offset %rbp, -16
	movq	%rsp, %rbp
	.cfi_def_cfa_register %rbp
	subq	$32, %rsp
	movq	%rdi, -24(%rbp)
	movq	%rsi, -16(%rbp)
Ltmp493:
	.loc	25 2353 9 prologue_end
	callq	__ZN4core3num7dec2flt60_$LT$impl$u20$core..str..traits..FromStr$u20$for$u20$f32$GT$8from_str17h1e9c5f9555963b97E
	movq	%rax, -8(%rbp)
	movq	-8(%rbp), %rax
	movq	%rax, -32(%rbp)
	.loc	25 2354 6
	movq	-32(%rbp), %rax
	addq	$32, %rsp
	popq	%rbp
	retq
Ltmp494:
Lfunc_end60:
	.cfi_endproc

	.globl	__ZN4core3str21_$LT$impl$u20$str$GT$5parse17he3ce2e6d15b60b38E
	.p2align	4, 0x90
__ZN4core3str21_$LT$impl$u20$str$GT$5parse17he3ce2e6d15b60b38E:
Lfunc_begin61:
	.loc	25 2352 0
	.cfi_startproc
	pushq	%rbp
	.cfi_def_cfa_offset 16
	.cfi_offset %rbp, -16
	movq	%rsp, %rbp
	.cfi_def_cfa_register %rbp
	subq	$32, %rsp
	movq	%rdi, %rax
	movq	%rax, -24(%rbp)
	movq	%rsi, -16(%rbp)
	movq	%rdx, -8(%rbp)
Ltmp495:
	.loc	25 2353 9 prologue_end
	callq	__ZN4core3num62_$LT$impl$u20$core..str..traits..FromStr$u20$for$u20$usize$GT$8from_str17h4af5a60ff56690f8E
	movq	-24(%rbp), %rax
	.loc	25 2354 6
	addq	$32, %rsp
	popq	%rbp
	retq
Ltmp496:
Lfunc_end61:
	.cfi_endproc

	.p2align	4, 0x90
__ZN4core3str21_$LT$impl$u20$str$GT$8is_empty17hf82eb1d849e92cbfE:
Lfunc_begin62:
	.loc	25 180 0
	.cfi_startproc
	pushq	%rbp
	.cfi_def_cfa_offset 16
	.cfi_offset %rbp, -16
	movq	%rsp, %rbp
	.cfi_def_cfa_register %rbp
	subq	$64, %rsp
	movq	%rdi, -64(%rbp)
	movq	%rsi, -56(%rbp)
Ltmp497:
	.loc	25 181 9 prologue_end
	movq	%rdi, -48(%rbp)
	movq	%rsi, -40(%rbp)
Ltmp498:
	.loc	25 160 9
	movq	%rdi, -32(%rbp)
	movq	%rsi, -24(%rbp)
Ltmp499:
	.loc	25 327 18
	movq	%rdi, -16(%rbp)
	movq	%rsi, -8(%rbp)
Ltmp500:
	.loc	25 181 9
	cmpq	$0, -8(%rbp)
	sete	%al
	.loc	25 182 6
	andb	$1, %al
	movzbl	%al, %eax
	addq	$64, %rsp
	popq	%rbp
	retq
Ltmp501:
Lfunc_end62:
	.cfi_endproc

	.p2align	4, 0x90
__ZN4core3str4iter5Chars6as_str17h14468fdcf2583840E:
Lfunc_begin63:
	.file	30 "/rustc/2c8cc343237b8f7d5a3c3703e3a87f2eb2c54a74/library/core/src/str" "iter.rs"
	.loc	30 112 0
	.cfi_startproc
	pushq	%rbp
	.cfi_def_cfa_offset 16
	.cfi_offset %rbp, -16
	movq	%rsp, %rbp
	.cfi_def_cfa_register %rbp
	subq	$48, %rsp
	movq	%rdi, -40(%rbp)
Ltmp502:
	.loc	30 114 38 prologue_end
	callq	__ZN4core5slice4iter13Iter$LT$T$GT$8as_slice17hfefd804d1d382fefE
	movq	%rax, -32(%rbp)
	movq	%rdx, -24(%rbp)
Ltmp503:
	.file	31 "/rustc/2c8cc343237b8f7d5a3c3703e3a87f2eb2c54a74/library/core/src/str" "converts.rs"
	.loc	31 173 14
	movq	%rax, -16(%rbp)
	movq	%rdx, -8(%rbp)
	movq	-16(%rbp), %rax
	movq	-8(%rbp), %rdx
Ltmp504:
	.loc	30 115 6
	addq	$48, %rsp
	popq	%rbp
	retq
Ltmp505:
Lfunc_end63:
	.cfi_endproc

	.p2align	4, 0x90
__ZN4core3str6traits112_$LT$impl$u20$core..slice..index..SliceIndex$LT$str$GT$$u20$for$u20$core..ops..range..RangeFrom$LT$usize$GT$$GT$13get_unchecked17h309179101c6929f2E:
Lfunc_begin64:
	.file	32 "/rustc/2c8cc343237b8f7d5a3c3703e3a87f2eb2c54a74/library/core/src/str" "traits.rs"
	.loc	32 349 0
	.cfi_startproc
	pushq	%rbp
	.cfi_def_cfa_offset 16
	.cfi_offset %rbp, -16
	movq	%rsp, %rbp
	.cfi_def_cfa_register %rbp
	subq	$232, %rsp
	movq	%rdi, -184(%rbp)
	movq	%rsi, -176(%rbp)
	movq	%rdx, -168(%rbp)
Ltmp506:
	.loc	32 350 21 prologue_end
	movq	%rsi, -160(%rbp)
	movq	%rdx, -152(%rbp)
Ltmp507:
	.loc	32 353 28
	movq	%rsi, -144(%rbp)
	movq	%rdx, -136(%rbp)
Ltmp508:
	.loc	5 1650 9
	movq	%rsi, -128(%rbp)
Ltmp509:
	.loc	32 353 47
	movq	%rdi, -120(%rbp)
Ltmp510:
	.loc	5 932 18
	movq	%rsi, -112(%rbp)
	.loc	5 932 30 is_stmt 0
	movq	%rdi, -104(%rbp)
Ltmp511:
	.loc	5 473 18 is_stmt 1
	movq	%rsi, %rax
	addq	%rdi, %rax
	movq	%rax, -96(%rbp)
	movq	-96(%rbp), %rcx
	movq	%rcx, -88(%rbp)
Ltmp512:
	.loc	32 354 19
	movq	%rsi, -80(%rbp)
	movq	%rdx, -72(%rbp)
Ltmp513:
	.loc	5 1630 18
	movq	%rsi, -64(%rbp)
	movq	%rdx, -56(%rbp)
Ltmp514:
	.loc	7 98 14
	movq	%rsi, -232(%rbp)
	movq	%rdx, -224(%rbp)
	movq	-224(%rbp), %rax
Ltmp515:
	.loc	32 354 19
	subq	%rdi, %rax
	movq	%rax, -48(%rbp)
Ltmp516:
	.loc	32 355 35
	movq	%rcx, -40(%rbp)
	.loc	32 355 40 is_stmt 0
	movq	%rax, -32(%rbp)
Ltmp517:
	.loc	6 734 20 is_stmt 1
	movq	%rcx, -24(%rbp)
Ltmp518:
	.loc	5 61 9
	movq	%rcx, -16(%rbp)
Ltmp519:
	.loc	6 734 33
	movq	%rax, -8(%rbp)
Ltmp520:
	.loc	7 118 36
	movq	%rcx, -200(%rbp)
	movq	%rax, -192(%rbp)
	.loc	7 118 14 is_stmt 0
	movq	-200(%rbp), %rcx
	movq	-192(%rbp), %rax
	movq	%rcx, -216(%rbp)
	movq	%rax, -208(%rbp)
	movq	-216(%rbp), %rax
	movq	-208(%rbp), %rdx
Ltmp521:
	.loc	32 356 6 is_stmt 1
	addq	$232, %rsp
	popq	%rbp
	retq
Ltmp522:
Lfunc_end64:
	.cfi_endproc

	.p2align	4, 0x90
__ZN4core3str6traits112_$LT$impl$u20$core..slice..index..SliceIndex$LT$str$GT$$u20$for$u20$core..ops..range..RangeFrom$LT$usize$GT$$GT$3get17h2c63dbdb6071d903E:
Lfunc_begin65:
	.loc	32 329 0
	.cfi_startproc
	pushq	%rbp
	.cfi_def_cfa_offset 16
	.cfi_offset %rbp, -16
	movq	%rsp, %rbp
	.cfi_def_cfa_register %rbp
	subq	$80, %rsp
	movq	%rdx, -80(%rbp)
	movq	%rsi, %rax
	movq	-80(%rbp), %rsi
	movq	%rax, -72(%rbp)
	movq	%rdi, %rdx
	movq	-72(%rbp), %rdi
	movq	%rdx, -64(%rbp)
	movq	%rdi, -56(%rbp)
	movq	%rsi, -48(%rbp)
	movq	%rdx, -24(%rbp)
	movq	%rdi, -16(%rbp)
	movq	%rsi, -8(%rbp)
Ltmp523:
	.loc	32 330 12 prologue_end
	callq	__ZN4core3str21_$LT$impl$u20$str$GT$16is_char_boundary17h94d426a160b94de7E
	testb	$1, %al
	jne	LBB65_2
	.loc	32 335 13
	movq	$0, -40(%rbp)
	.loc	32 330 9
	jmp	LBB65_3
LBB65_2:
	.loc	32 0 9 is_stmt 0
	movq	-48(%rbp), %rdx
	movq	-56(%rbp), %rsi
	movq	-64(%rbp), %rdi
	.loc	32 333 29 is_stmt 1
	callq	__ZN4core3str6traits112_$LT$impl$u20$core..slice..index..SliceIndex$LT$str$GT$$u20$for$u20$core..ops..range..RangeFrom$LT$usize$GT$$GT$13get_unchecked17h309179101c6929f2E
	.loc	32 333 13 is_stmt 0
	movq	%rax, -40(%rbp)
	movq	%rdx, -32(%rbp)
LBB65_3:
	.loc	32 337 6 is_stmt 1
	movq	-40(%rbp), %rax
	movq	-32(%rbp), %rdx
	addq	$80, %rsp
	popq	%rbp
	retq
Ltmp524:
Lfunc_end65:
	.cfi_endproc

	.p2align	4, 0x90
__ZN4core3str6traits112_$LT$impl$u20$core..slice..index..SliceIndex$LT$str$GT$$u20$for$u20$core..ops..range..RangeFrom$LT$usize$GT$$GT$5index17h43924782666b6a5eE:
Lfunc_begin66:
	.loc	32 366 0
	.cfi_startproc
	pushq	%rbp
	.cfi_def_cfa_offset 16
	.cfi_offset %rbp, -16
	movq	%rsp, %rbp
	.cfi_def_cfa_register %rbp
	subq	$176, %rsp
	movq	%rsi, -176(%rbp)
	movq	%rdx, -168(%rbp)
	movq	%rcx, -160(%rbp)
	movq	%rdi, -104(%rbp)
	movq	%rsi, -96(%rbp)
	movq	%rdx, -88(%rbp)
Ltmp525:
	.loc	32 367 41 prologue_end
	movq	%rsi, -80(%rbp)
	movq	%rdx, -72(%rbp)
Ltmp526:
	.loc	25 160 9
	movq	%rsi, -64(%rbp)
	movq	%rdx, -56(%rbp)
Ltmp527:
	.loc	25 327 18
	movq	%rsi, -48(%rbp)
	movq	%rdx, -40(%rbp)
	movq	-40(%rbp), %rax
Ltmp528:
	.loc	32 367 28
	movq	%rdi, -136(%rbp)
	movq	%rax, -128(%rbp)
	.loc	32 367 14 is_stmt 0
	movq	-136(%rbp), %rax
	movq	%rax, -152(%rbp)
	movq	%rax, -32(%rbp)
	.loc	32 367 21
	movq	-128(%rbp), %rax
	movq	%rax, -144(%rbp)
	movq	%rax, -24(%rbp)
Ltmp529:
	.loc	32 368 15 is_stmt 1
	callq	__ZN4core3str6traits112_$LT$impl$u20$core..slice..index..SliceIndex$LT$str$GT$$u20$for$u20$core..ops..range..RangeFrom$LT$usize$GT$$GT$3get17h2c63dbdb6071d903E
	movq	%rdx, -112(%rbp)
	movq	%rax, -120(%rbp)
	movq	-120(%rbp), %rdx
	movl	$1, %eax
	xorl	%ecx, %ecx
	cmpq	$0, %rdx
	cmoveq	%rcx, %rax
	.loc	32 368 9 is_stmt 0
	cmpq	$0, %rax
	jne	LBB66_2
	.loc	32 0 9
	movq	-160(%rbp), %r8
	movq	-144(%rbp), %rcx
	movq	-152(%rbp), %rdx
	movq	-168(%rbp), %rsi
	movq	-176(%rbp), %rdi
	.loc	32 370 21 is_stmt 1
	callq	__ZN4core3str16slice_error_fail17h13b85bf03fb2869bE
LBB66_2:
	.loc	32 369 18
	movq	-120(%rbp), %rax
	movq	-112(%rbp), %rdx
	movq	%rax, -16(%rbp)
	movq	%rdx, -8(%rbp)
Ltmp530:
	.loc	32 372 6
	addq	$176, %rsp
	popq	%rbp
	retq
Ltmp531:
Lfunc_end66:
	.cfi_endproc

	.p2align	4, 0x90
__ZN4core3str6traits54_$LT$impl$u20$core..cmp..PartialEq$u20$for$u20$str$GT$2eq17hcfc59abb294dea3cE:
Lfunc_begin67:
	.loc	32 28 0
	.cfi_startproc
	pushq	%rbp
	.cfi_def_cfa_offset 16
	.cfi_offset %rbp, -16
	movq	%rsp, %rbp
	.cfi_def_cfa_register %rbp
	subq	$112, %rsp
	movq	%rdi, -80(%rbp)
	movq	%rsi, -72(%rbp)
	movq	%rdx, -64(%rbp)
	movq	%rcx, -56(%rbp)
Ltmp532:
	.loc	32 29 9 prologue_end
	movq	%rdi, -48(%rbp)
	movq	%rsi, -40(%rbp)
Ltmp533:
	.loc	25 327 18
	movq	%rdi, -112(%rbp)
	movq	%rsi, -104(%rbp)
Ltmp534:
	.loc	32 29 9
	leaq	-112(%rbp), %rax
	movq	%rax, -32(%rbp)
	.loc	32 29 28 is_stmt 0
	movq	%rdx, -24(%rbp)
	movq	%rcx, -16(%rbp)
Ltmp535:
	.loc	25 327 18 is_stmt 1
	movq	%rdx, -96(%rbp)
	movq	%rcx, -88(%rbp)
Ltmp536:
	.loc	32 29 28
	leaq	-96(%rbp), %rax
	movq	%rax, -8(%rbp)
Ltmp537:
	.loc	10 1531 27
	movq	-112(%rbp), %rdi
	movq	-104(%rbp), %rsi
	.loc	10 1531 34 is_stmt 0
	movq	-96(%rbp), %rdx
	movq	-88(%rbp), %rcx
	.loc	10 1531 13
	callq	__ZN4core5slice3cmp81_$LT$impl$u20$core..cmp..PartialEq$LT$$u5b$B$u5d$$GT$$u20$for$u20$$u5b$A$u5d$$GT$2eq17hc2b68ade93649801E
Ltmp538:
	.loc	32 30 6 is_stmt 1
	andb	$1, %al
	movzbl	%al, %eax
	addq	$112, %rsp
	popq	%rbp
	retq
Ltmp539:
Lfunc_end67:
	.cfi_endproc

	.globl	__ZN4core3str6traits66_$LT$impl$u20$core..ops..index..Index$LT$I$GT$$u20$for$u20$str$GT$5index17hdd5e5f38183f0933E
	.p2align	4, 0x90
__ZN4core3str6traits66_$LT$impl$u20$core..ops..index..Index$LT$I$GT$$u20$for$u20$str$GT$5index17hdd5e5f38183f0933E:
Lfunc_begin68:
	.loc	32 64 0
	.cfi_startproc
	pushq	%rbp
	.cfi_def_cfa_offset 16
	.cfi_offset %rbp, -16
	movq	%rsp, %rbp
	.cfi_def_cfa_register %rbp
	subq	$32, %rsp
	movq	%rdx, -32(%rbp)
	movq	%rsi, %rdx
	movq	%rdi, %rsi
	movq	-32(%rbp), %rdi
	movq	%rsi, -24(%rbp)
	movq	%rdx, -16(%rbp)
	movq	%rdi, -8(%rbp)
Ltmp540:
	.loc	32 65 9 prologue_end
	callq	__ZN4core3str6traits112_$LT$impl$u20$core..slice..index..SliceIndex$LT$str$GT$$u20$for$u20$core..ops..range..RangeFrom$LT$usize$GT$$GT$5index17h43924782666b6a5eE
	.loc	32 66 6
	addq	$32, %rsp
	popq	%rbp
	retq
Ltmp541:
Lfunc_end68:
	.cfi_endproc

	.p2align	4, 0x90
__ZN4core4char7methods22_$LT$impl$u20$char$GT$8to_digit17h5ee860be25c4ab14E:
Lfunc_begin69:
	.file	33 "/rustc/2c8cc343237b8f7d5a3c3703e3a87f2eb2c54a74/library/core/src/char" "methods.rs"
	.loc	33 345 0
	.cfi_startproc
	pushq	%rbp
	.cfi_def_cfa_offset 16
	.cfi_offset %rbp, -16
	movq	%rsp, %rbp
	.cfi_def_cfa_register %rbp
	subq	$112, %rsp
	movl	%edi, -96(%rbp)
	movl	%esi, -92(%rbp)
	movl	%edi, -24(%rbp)
	movl	%esi, -20(%rbp)
Ltmp542:
	.loc	33 347 25 prologue_end
	movl	%edi, -16(%rbp)
Ltmp543:
	.loc	15 1203 13
	subl	$48, %edi
	movl	%edi, -76(%rbp)
Ltmp544:
	.loc	33 348 12
	cmpl	$10, %esi
	ja	LBB69_2
LBB69_1:
	.loc	33 0 12 is_stmt 0
	movl	-92(%rbp), %eax
	.loc	33 357 12 is_stmt 1
	cmpl	%eax, -76(%rbp)
	jb	LBB69_9
	jmp	LBB69_8
LBB69_2:
	.loc	33 0 12 is_stmt 0
	movl	-92(%rbp), %eax
	.loc	33 349 21 is_stmt 1
	cmpl	$36, %eax
	setbe	%al
	.loc	33 349 13 is_stmt 0
	xorb	$-1, %al
	testb	$1, %al
	jne	LBB69_4
	.loc	33 350 16 is_stmt 1
	cmpl	$10, -76(%rbp)
	jb	LBB69_6
	jmp	LBB69_5
LBB69_4:
	.loc	33 349 13
	leaq	l___unnamed_18(%rip), %rsi
	leaq	l___unnamed_4(%rip), %rcx
	xorl	%eax, %eax
	movl	%eax, %r8d
	leaq	-72(%rbp), %rdi
	movq	%rdi, -104(%rbp)
	movl	$1, %edx
	callq	__ZN4core3fmt9Arguments6new_v117hd8e1c3964ded6e84E
	movq	-104(%rbp), %rdi
	leaq	l___unnamed_19(%rip), %rsi
	callq	__ZN4core9panicking9panic_fmt17h9b5d807e24bcaaedE
LBB69_5:
	.loc	33 0 13 is_stmt 0
	movl	-96(%rbp), %eax
	.loc	33 354 21 is_stmt 1
	orl	$32, %eax
	movl	%eax, -12(%rbp)
Ltmp545:
	.loc	15 1203 13
	subl	$97, %eax
	movl	%eax, -8(%rbp)
Ltmp546:
	.loc	15 1022 13
	addl	$10, %eax
	movl	$-1, %ecx
	cmovbl	%ecx, %eax
	movl	%eax, -4(%rbp)
	movl	-4(%rbp), %eax
Ltmp547:
	.loc	33 354 13
	movl	%eax, -76(%rbp)
	.loc	33 348 9
	jmp	LBB69_1
LBB69_6:
	.loc	33 351 29
	movl	-76(%rbp), %eax
	.loc	33 351 24 is_stmt 0
	movl	%eax, -84(%rbp)
	movl	$1, -88(%rbp)
Ltmp548:
LBB69_7:
	.loc	33 358 6 is_stmt 1
	movl	-88(%rbp), %eax
	movl	-84(%rbp), %edx
	addq	$112, %rsp
	popq	%rbp
	retq
LBB69_8:
Ltmp549:
	.loc	33 357 49
	movl	$0, -88(%rbp)
	.loc	33 357 9 is_stmt 0
	jmp	LBB69_10
LBB69_9:
	.loc	33 357 33
	movl	-76(%rbp), %eax
	.loc	33 357 28
	movl	%eax, -84(%rbp)
	movl	$1, -88(%rbp)
Ltmp550:
LBB69_10:
	.loc	33 358 6 is_stmt 1
	jmp	LBB69_7
Ltmp551:
Lfunc_end69:
	.cfi_endproc

	.p2align	4, 0x90
__ZN4core4hint21unreachable_unchecked17hdfb331f4f046eacaE:
Lfunc_begin70:
	.file	34 "/rustc/2c8cc343237b8f7d5a3c3703e3a87f2eb2c54a74/library/core/src" "hint.rs"
	.loc	34 100 0
	.cfi_startproc
	pushq	%rbp
	.cfi_def_cfa_offset 16
	.cfi_offset %rbp, -16
	movq	%rsp, %rbp
	.cfi_def_cfa_register %rbp
Ltmp552:
	.loc	34 104 9 prologue_end
	ud2
Ltmp553:
Lfunc_end70:
	.cfi_endproc

	.globl	__ZN4core4iter6traits8iterator8Iterator3all17hf1cddd013030708cE
	.p2align	4, 0x90
__ZN4core4iter6traits8iterator8Iterator3all17hf1cddd013030708cE:
Lfunc_begin71:
	.file	35 "/rustc/2c8cc343237b8f7d5a3c3703e3a87f2eb2c54a74/library/core/src/iter/traits" "iterator.rs"
	.loc	35 2596 0
	.cfi_startproc
	pushq	%rbp
	.cfi_def_cfa_offset 16
	.cfi_offset %rbp, -16
	movq	%rsp, %rbp
	.cfi_def_cfa_register %rbp
	subq	$48, %rsp
	movq	%rdi, -24(%rbp)
Ltmp554:
	.loc	35 2607 9 prologue_end
	callq	__ZN4core4iter6traits8iterator8Iterator8try_fold17h398c1a2a91ad7381E
	andb	$1, %al
	movb	%al, -33(%rbp)
	leaq	-33(%rbp), %rdi
	leaq	l___unnamed_20(%rip), %rsi
	callq	__ZN90_$LT$core..ops..control_flow..ControlFlow$LT$B$C$C$GT$$u20$as$u20$core..cmp..PartialEq$GT$2eq17h1166f08f5aaaad50E
	.loc	35 2608 6
	andb	$1, %al
	movzbl	%al, %eax
	addq	$48, %rsp
	popq	%rbp
	retq
Ltmp555:
Lfunc_end71:
	.cfi_endproc

	.globl	__ZN4core4iter6traits8iterator8Iterator3all5check28_$u7b$$u7b$closure$u7d$$u7d$17h06992bbd1ae5af7aE
	.p2align	4, 0x90
__ZN4core4iter6traits8iterator8Iterator3all5check28_$u7b$$u7b$closure$u7d$$u7d$17h06992bbd1ae5af7aE:
Lfunc_begin72:
	.loc	35 2603 0
	.cfi_startproc
	pushq	%rbp
	.cfi_def_cfa_offset 16
	.cfi_offset %rbp, -16
	movq	%rsp, %rbp
	.cfi_def_cfa_register %rbp
	subq	$48, %rsp
	movb	%dl, %al
	movb	%sil, %cl
	movq	%rdi, -24(%rbp)
	movb	%cl, -8(%rbp)
	movb	%al, -7(%rbp)
Ltmp556:
	.loc	35 2604 20 prologue_end
	movb	%cl, -32(%rbp)
	movb	%al, -31(%rbp)
	movb	-32(%rbp), %al
	movzbl	%al, %esi
	movzbl	-31(%rbp), %edx
	callq	__ZN10num_traits25str_to_ascii_lower_eq_str28_$u7b$$u7b$closure$u7d$$u7d$17h917520ab0926fa5bE
	testb	$1, %al
	jne	LBB72_2
	.loc	35 2604 58 is_stmt 0
	movb	$1, -33(%rbp)
	.loc	35 2604 17
	jmp	LBB72_3
LBB72_2:
	.loc	35 2604 27
	movb	$0, -33(%rbp)
LBB72_3:
	.loc	35 2605 14 is_stmt 1
	movb	-33(%rbp), %al
	andb	$1, %al
	movzbl	%al, %eax
	addq	$48, %rsp
	popq	%rbp
	retq
Ltmp557:
Lfunc_end72:
	.cfi_endproc

	.globl	__ZN4core4iter6traits8iterator8Iterator3zip17h32fda0b438880a37E
	.p2align	4, 0x90
__ZN4core4iter6traits8iterator8Iterator3zip17h32fda0b438880a37E:
Lfunc_begin73:
	.loc	35 623 0
	.cfi_startproc
	.cfi_personality 155, _rust_eh_personality
	.cfi_lsda 16, Lexception6
	pushq	%rbp
	.cfi_def_cfa_offset 16
	.cfi_offset %rbp, -16
	movq	%rsp, %rbp
	.cfi_def_cfa_register %rbp
	subq	$128, %rsp
	movq	%r8, -112(%rbp)
	movq	%rcx, -96(%rbp)
	movq	%rdx, -120(%rbp)
	movq	%rsi, %rax
	movq	-112(%rbp), %rsi
	movq	%rax, -104(%rbp)
	movq	%rdi, %rcx
	movq	-96(%rbp), %rdi
	movq	%rcx, -88(%rbp)
	movq	%rcx, -80(%rbp)
	movq	%rax, -48(%rbp)
	movq	%rdx, -40(%rbp)
	movq	%rdi, -32(%rbp)
	movq	%rsi, -24(%rbp)
Ltmp563:
	.loc	35 628 18 prologue_end
	movb	$1, -49(%rbp)
Ltmp558:
	.loc	35 628 24 is_stmt 0
	callq	__ZN63_$LT$I$u20$as$u20$core..iter..traits..collect..IntoIterator$GT$9into_iter17h744a6d7f9cd8a39bE
Ltmp559:
	movq	%rdx, -72(%rbp)
	movq	%rax, -64(%rbp)
	jmp	LBB73_3
LBB73_1:
	.loc	35 628 41
	testb	$1, -49(%rbp)
	jne	LBB73_6
	jmp	LBB73_5
LBB73_2:
Ltmp562:
	.loc	35 0 41
	movq	%rax, %rcx
	movl	%edx, %eax
	movq	%rcx, -16(%rbp)
	movl	%eax, -8(%rbp)
	jmp	LBB73_1
LBB73_3:
	movq	-72(%rbp), %r8
	movq	-64(%rbp), %rcx
	movq	-120(%rbp), %rdx
	movq	-104(%rbp), %rsi
	movq	-88(%rbp), %rdi
	.loc	35 628 9
	movb	$0, -49(%rbp)
Ltmp560:
	callq	__ZN4core4iter8adapters3zip16Zip$LT$A$C$B$GT$3new17h8d31611e21c47d35E
Ltmp561:
	jmp	LBB73_4
LBB73_4:
	.loc	35 0 9
	movq	-80(%rbp), %rax
	.loc	35 629 6 is_stmt 1
	addq	$128, %rsp
	popq	%rbp
	retq
LBB73_5:
	.loc	35 623 5
	movq	-16(%rbp), %rdi
	callq	__Unwind_Resume
LBB73_6:
	.loc	35 628 41
	jmp	LBB73_5
Ltmp564:
Lfunc_end73:
	.cfi_endproc
	.section	__TEXT,__gcc_except_tab
	.p2align	2
GCC_except_table73:
Lexception6:
	.byte	255
	.byte	255
	.byte	1
	.uleb128 Lcst_end6-Lcst_begin6
Lcst_begin6:
	.uleb128 Ltmp558-Lfunc_begin73
	.uleb128 Ltmp561-Ltmp558
	.uleb128 Ltmp562-Lfunc_begin73
	.byte	0
	.uleb128 Ltmp561-Lfunc_begin73
	.uleb128 Lfunc_end73-Ltmp561
	.byte	0
	.byte	0
Lcst_end6:
	.p2align	2

	.section	__TEXT,__text,regular,pure_instructions
	.globl	__ZN4core4iter6traits8iterator8Iterator3zip17h94879d696917ea51E
	.p2align	4, 0x90
__ZN4core4iter6traits8iterator8Iterator3zip17h94879d696917ea51E:
Lfunc_begin74:
	.loc	35 623 0
	.cfi_startproc
	.cfi_personality 155, _rust_eh_personality
	.cfi_lsda 16, Lexception7
	pushq	%rbp
	.cfi_def_cfa_offset 16
	.cfi_offset %rbp, -16
	movq	%rsp, %rbp
	.cfi_def_cfa_register %rbp
	subq	$128, %rsp
	movq	%r8, -112(%rbp)
	movq	%rcx, -96(%rbp)
	movq	%rdx, -120(%rbp)
	movq	%rsi, %rax
	movq	-112(%rbp), %rsi
	movq	%rax, -104(%rbp)
	movq	%rdi, %rcx
	movq	-96(%rbp), %rdi
	movq	%rcx, -88(%rbp)
	movq	%rcx, -80(%rbp)
	movq	%rax, -48(%rbp)
	movq	%rdx, -40(%rbp)
	movq	%rdi, -32(%rbp)
	movq	%rsi, -24(%rbp)
Ltmp570:
	.loc	35 628 18 prologue_end
	movb	$1, -49(%rbp)
Ltmp565:
	.loc	35 628 24 is_stmt 0
	callq	__ZN63_$LT$I$u20$as$u20$core..iter..traits..collect..IntoIterator$GT$9into_iter17h736c20d0bc26926bE
Ltmp566:
	movq	%rdx, -72(%rbp)
	movq	%rax, -64(%rbp)
	jmp	LBB74_3
LBB74_1:
	.loc	35 628 41
	testb	$1, -49(%rbp)
	jne	LBB74_6
	jmp	LBB74_5
LBB74_2:
Ltmp569:
	.loc	35 0 41
	movq	%rax, %rcx
	movl	%edx, %eax
	movq	%rcx, -16(%rbp)
	movl	%eax, -8(%rbp)
	jmp	LBB74_1
LBB74_3:
	movq	-72(%rbp), %r8
	movq	-64(%rbp), %rcx
	movq	-120(%rbp), %rdx
	movq	-104(%rbp), %rsi
	movq	-88(%rbp), %rdi
	.loc	35 628 9
	movb	$0, -49(%rbp)
Ltmp567:
	callq	__ZN4core4iter8adapters3zip16Zip$LT$A$C$B$GT$3new17h29b6cb5be5d0ffbdE
Ltmp568:
	jmp	LBB74_4
LBB74_4:
	.loc	35 0 9
	movq	-80(%rbp), %rax
	.loc	35 629 6 is_stmt 1
	addq	$128, %rsp
	popq	%rbp
	retq
LBB74_5:
	.loc	35 623 5
	movq	-16(%rbp), %rdi
	callq	__Unwind_Resume
LBB74_6:
	.loc	35 628 41
	jmp	LBB74_5
Ltmp571:
Lfunc_end74:
	.cfi_endproc
	.section	__TEXT,__gcc_except_tab
	.p2align	2
GCC_except_table74:
Lexception7:
	.byte	255
	.byte	255
	.byte	1
	.uleb128 Lcst_end7-Lcst_begin7
Lcst_begin7:
	.uleb128 Ltmp565-Lfunc_begin74
	.uleb128 Ltmp568-Ltmp565
	.uleb128 Ltmp569-Lfunc_begin74
	.byte	0
	.uleb128 Ltmp568-Lfunc_begin74
	.uleb128 Lfunc_end74-Ltmp568
	.byte	0
	.byte	0
Lcst_end7:
	.p2align	2

	.section	__TEXT,__text,regular,pure_instructions
	.globl	__ZN4core4iter6traits8iterator8Iterator4fold17h108eed9f0340775eE
	.p2align	4, 0x90
__ZN4core4iter6traits8iterator8Iterator4fold17h108eed9f0340775eE:
Lfunc_begin75:
	.loc	35 2431 0
	.cfi_startproc
	.cfi_personality 155, _rust_eh_personality
	.cfi_lsda 16, Lexception8
	pushq	%rbp
	.cfi_def_cfa_offset 16
	.cfi_offset %rbp, -16
	movq	%rsp, %rbp
	.cfi_def_cfa_register %rbp
	subq	$128, %rsp
	movq	%rdi, -96(%rbp)
Ltmp577:
	movb	%sil, %al
Ltmp578:
	movb	%al, -33(%rbp)
Ltmp579:
	.loc	35 2436 25 prologue_end
	movb	$1, -34(%rbp)
	movb	%al, -81(%rbp)
Ltmp580:
LBB75_1:
Ltmp572:
	.loc	35 0 25 is_stmt 0
	movq	-96(%rbp), %rdi
Ltmp581:
	.loc	35 2437 29 is_stmt 1
	callq	__ZN102_$LT$core..iter..adapters..zip..Zip$LT$A$C$B$GT$$u20$as$u20$core..iter..traits..iterator..Iterator$GT$4next17h997f066406df3edbE
Ltmp573:
	movq	%rdx, -112(%rbp)
	movq	%rax, -104(%rbp)
	jmp	LBB75_4
Ltmp582:
LBB75_2:
	.loc	35 2441 5
	testb	$1, -34(%rbp)
	jne	LBB75_11
	jmp	LBB75_10
Ltmp583:
LBB75_3:
Ltmp576:
	.loc	35 0 5 is_stmt 0
	movq	%rax, %rcx
	movl	%edx, %eax
	movq	%rcx, -32(%rbp)
	movl	%eax, -24(%rbp)
	jmp	LBB75_2
Ltmp584:
LBB75_4:
	movq	-112(%rbp), %rax
	movq	-104(%rbp), %rcx
Ltmp585:
	.loc	35 2437 29 is_stmt 1
	movq	%rcx, -80(%rbp)
	movq	%rax, -72(%rbp)
	.loc	35 2437 19 is_stmt 0
	movq	-80(%rbp), %rdx
	movl	$1, %eax
	xorl	%ecx, %ecx
	cmpq	$0, %rdx
	cmoveq	%rcx, %rax
	cmpq	$1, %rax
	jne	LBB75_6
Ltmp586:
	.loc	35 2437 24
	movq	-80(%rbp), %rcx
	movq	-72(%rbp), %rax
	movq	%rcx, -16(%rbp)
	movq	%rax, -8(%rbp)
	.loc	35 2438 23 is_stmt 1
	movb	$0, -34(%rbp)
	movb	-81(%rbp), %dl
	.loc	35 2438 21 is_stmt 0
	movb	%dl, -64(%rbp)
	movq	%rcx, -56(%rbp)
	movq	%rax, -48(%rbp)
	movq	-56(%rbp), %rdx
	movq	-48(%rbp), %rcx
	movl	-64(%rbp), %esi
Ltmp574:
	leaq	-88(%rbp), %rdi
	callq	__ZN4core3num7dec2flt6common9ByteSlice23starts_with_ignore_case28_$u7b$$u7b$closure$u7d$$u7d$17h18132fd0e2e3ada4E
Ltmp575:
	movb	%al, -113(%rbp)
	jmp	LBB75_9
Ltmp587:
LBB75_6:
	.loc	35 2437 9 is_stmt 1
	jmp	LBB75_7
Ltmp588:
LBB75_7:
	.loc	35 2441 5
	jmp	LBB75_8
Ltmp589:
LBB75_8:
	.loc	35 2441 6 is_stmt 0
	movb	-81(%rbp), %al
	addq	$128, %rsp
	popq	%rbp
	retq
Ltmp590:
LBB75_9:
	.loc	35 0 6
	movb	-113(%rbp), %al
Ltmp591:
	.loc	35 2438 13 is_stmt 1
	movb	$1, -34(%rbp)
	movb	%al, -81(%rbp)
Ltmp592:
	.loc	35 2437 9
	jmp	LBB75_1
Ltmp593:
LBB75_10:
	.loc	35 2441 5
	jmp	LBB75_12
Ltmp594:
LBB75_11:
	jmp	LBB75_10
Ltmp595:
LBB75_12:
	.loc	35 2431 5
	movq	-32(%rbp), %rdi
	callq	__Unwind_Resume
Ltmp596:
Lfunc_end75:
	.cfi_endproc
	.section	__TEXT,__gcc_except_tab
	.p2align	2
GCC_except_table75:
Lexception8:
	.byte	255
	.byte	255
	.byte	1
	.uleb128 Lcst_end8-Lcst_begin8
Lcst_begin8:
	.uleb128 Ltmp572-Lfunc_begin75
	.uleb128 Ltmp575-Ltmp572
	.uleb128 Ltmp576-Lfunc_begin75
	.byte	0
	.uleb128 Ltmp575-Lfunc_begin75
	.uleb128 Lfunc_end75-Ltmp575
	.byte	0
	.byte	0
Lcst_end8:
	.p2align	2

	.section	__TEXT,__text,regular,pure_instructions
	.globl	__ZN4core4iter6traits8iterator8Iterator6by_ref17he52ee8da46f24fa8E
	.p2align	4, 0x90
__ZN4core4iter6traits8iterator8Iterator6by_ref17he52ee8da46f24fa8E:
Lfunc_begin76:
	.loc	35 1737 0
	.cfi_startproc
	pushq	%rbp
	.cfi_def_cfa_offset 16
	.cfi_offset %rbp, -16
	movq	%rsp, %rbp
	.cfi_def_cfa_register %rbp
	pushq	%rax
	movq	%rdi, %rax
	movq	%rax, -8(%rbp)
Ltmp597:
	.loc	35 1742 6 prologue_end
	addq	$8, %rsp
	popq	%rbp
	retq
Ltmp598:
Lfunc_end76:
	.cfi_endproc

	.globl	__ZN4core4iter6traits8iterator8Iterator6copied17h01af376fc52ca0f6E
	.p2align	4, 0x90
__ZN4core4iter6traits8iterator8Iterator6copied17h01af376fc52ca0f6E:
Lfunc_begin77:
	.loc	35 3249 0
	.cfi_startproc
	pushq	%rbp
	.cfi_def_cfa_offset 16
	.cfi_offset %rbp, -16
	movq	%rsp, %rbp
	.cfi_def_cfa_register %rbp
	subq	$16, %rsp
	movq	%rdi, -16(%rbp)
	movq	%rsi, -8(%rbp)
Ltmp599:
	.loc	35 3254 9 prologue_end
	callq	__ZN4core4iter8adapters6copied15Copied$LT$I$GT$3new17h05476d800c786696E
	.loc	35 3255 6
	addq	$16, %rsp
	popq	%rbp
	retq
Ltmp600:
Lfunc_end77:
	.cfi_endproc

	.globl	__ZN4core4iter6traits8iterator8Iterator8try_fold17h398c1a2a91ad7381E
	.p2align	4, 0x90
__ZN4core4iter6traits8iterator8Iterator8try_fold17h398c1a2a91ad7381E:
Lfunc_begin78:
	.loc	35 2254 0
	.cfi_startproc
	.cfi_personality 155, _rust_eh_personality
	.cfi_lsda 16, Lexception9
	pushq	%rbp
	.cfi_def_cfa_offset 16
	.cfi_offset %rbp, -16
	movq	%rsp, %rbp
	.cfi_def_cfa_register %rbp
	subq	$112, %rsp
	movq	%rdi, -104(%rbp)
	movq	%rdi, -72(%rbp)
Ltmp612:
	.loc	35 2260 25 prologue_end
	movb	$1, -73(%rbp)
LBB78_1:
Ltmp601:
	.loc	35 0 25 is_stmt 0
	movq	-104(%rbp), %rdi
Ltmp613:
	.loc	35 2261 29 is_stmt 1
	callq	__ZN102_$LT$core..iter..adapters..zip..Zip$LT$A$C$B$GT$$u20$as$u20$core..iter..traits..iterator..Iterator$GT$4next17hbe0a90e2aa2227e0E
Ltmp602:
	movl	%eax, -108(%rbp)
	jmp	LBB78_4
Ltmp614:
LBB78_2:
	.loc	35 2265 5
	testb	$1, -73(%rbp)
	jne	LBB78_16
	jmp	LBB78_15
LBB78_3:
Ltmp611:
	.loc	35 0 5 is_stmt 0
	movq	%rax, %rcx
	movl	%edx, %eax
	movq	%rcx, -32(%rbp)
	movl	%eax, -24(%rbp)
	jmp	LBB78_2
LBB78_4:
	movl	-108(%rbp), %eax
Ltmp615:
	.loc	35 2261 29 is_stmt 1
	movw	%ax, %cx
	movw	%cx, -12(%rbp)
	shrl	$16, %eax
	movb	%al, -10(%rbp)
	movw	-12(%rbp), %ax
	movw	%ax, -88(%rbp)
	movb	-10(%rbp), %al
	movb	%al, -86(%rbp)
	.loc	35 2261 19 is_stmt 0
	movb	-88(%rbp), %al
	andb	$1, %al
	movzbl	%al, %eax
	cmpq	$1, %rax
	jne	LBB78_6
	.loc	35 2261 24
	movb	-87(%rbp), %cl
	movb	-86(%rbp), %al
	movb	%cl, -8(%rbp)
	movb	%al, -7(%rbp)
	.loc	35 2262 23 is_stmt 1
	movb	$0, -73(%rbp)
	.loc	35 2262 21 is_stmt 0
	movb	%cl, -80(%rbp)
	movb	%al, -79(%rbp)
	movzbl	-79(%rbp), %edx
	movzbl	-80(%rbp), %esi
Ltmp605:
	leaq	-96(%rbp), %rdi
	callq	__ZN4core4iter6traits8iterator8Iterator3all5check28_$u7b$$u7b$closure$u7d$$u7d$17h06992bbd1ae5af7aE
Ltmp606:
	movb	%al, -109(%rbp)
	jmp	LBB78_10
Ltmp616:
LBB78_6:
	.loc	35 2261 9 is_stmt 1
	jmp	LBB78_7
LBB78_7:
	.loc	35 2264 15
	movb	$0, -73(%rbp)
Ltmp603:
	callq	__ZN95_$LT$core..ops..control_flow..ControlFlow$LT$B$C$C$GT$$u20$as$u20$core..ops..try_trait..Try$GT$11from_output17h733ec92eaed7ae71E
Ltmp604:
	movb	%al, -110(%rbp)
	jmp	LBB78_8
LBB78_8:
	.loc	35 0 15 is_stmt 0
	movb	-110(%rbp), %al
	.loc	35 2264 15
	andb	$1, %al
	movb	%al, -89(%rbp)
Ltmp617:
LBB78_9:
	.loc	35 2265 6 is_stmt 1
	movb	-89(%rbp), %al
	andb	$1, %al
	movzbl	%al, %eax
	addq	$112, %rsp
	popq	%rbp
	retq
LBB78_10:
Ltmp607:
	.loc	35 0 6 is_stmt 0
	movb	-109(%rbp), %al
Ltmp618:
	.loc	35 2262 21 is_stmt 1
	movzbl	%al, %edi
	andl	$1, %edi
	callq	__ZN95_$LT$core..ops..control_flow..ControlFlow$LT$B$C$C$GT$$u20$as$u20$core..ops..try_trait..Try$GT$6branch17haf4b7ccf5d1d0a95E
Ltmp608:
	movb	%al, -111(%rbp)
	jmp	LBB78_11
LBB78_11:
	.loc	35 0 21 is_stmt 0
	movb	-111(%rbp), %al
	.loc	35 2262 21
	andb	$1, %al
	movb	%al, -81(%rbp)
	movb	-81(%rbp), %al
	andb	$1, %al
	movzbl	%al, %eax
	cmpq	$0, %rax
	jne	LBB78_13
	.loc	35 2262 13
	movb	$1, -73(%rbp)
Ltmp619:
	.loc	35 2261 9 is_stmt 1
	jmp	LBB78_1
LBB78_13:
Ltmp609:
Ltmp620:
	.loc	35 2262 21
	callq	__ZN104_$LT$core..ops..control_flow..ControlFlow$LT$B$C$C$GT$$u20$as$u20$core..ops..try_trait..FromResidual$GT$13from_residual17h5c590c56547f21b7E
Ltmp610:
	movb	%al, -112(%rbp)
	jmp	LBB78_14
LBB78_14:
	.loc	35 0 21 is_stmt 0
	movb	-112(%rbp), %al
	.loc	35 2262 21
	andb	$1, %al
	movb	%al, -89(%rbp)
Ltmp621:
	.loc	35 2265 5 is_stmt 1
	jmp	LBB78_9
LBB78_15:
	.loc	35 2254 5
	movq	-32(%rbp), %rdi
	callq	__Unwind_Resume
LBB78_16:
	.loc	35 2265 5
	jmp	LBB78_15
Ltmp622:
Lfunc_end78:
	.cfi_endproc
	.section	__TEXT,__gcc_except_tab
	.p2align	2
GCC_except_table78:
Lexception9:
	.byte	255
	.byte	255
	.byte	1
	.uleb128 Lcst_end9-Lcst_begin9
Lcst_begin9:
	.uleb128 Ltmp601-Lfunc_begin78
	.uleb128 Ltmp610-Ltmp601
	.uleb128 Ltmp611-Lfunc_begin78
	.byte	0
	.uleb128 Ltmp610-Lfunc_begin78
	.uleb128 Lfunc_end78-Ltmp610
	.byte	0
	.byte	0
Lcst_end9:
	.p2align	2

	.section	__TEXT,__text,regular,pure_instructions
	.globl	__ZN4core4iter6traits8iterator8Iterator9enumerate17h9a795cb61bf737bbE
	.p2align	4, 0x90
__ZN4core4iter6traits8iterator8Iterator9enumerate17h9a795cb61bf737bbE:
Lfunc_begin79:
	.loc	35 993 0
	.cfi_startproc
	pushq	%rbp
	.cfi_def_cfa_offset 16
	.cfi_offset %rbp, -16
	movq	%rsp, %rbp
	.cfi_def_cfa_register %rbp
	subq	$32, %rsp
	movq	%rdi, %rax
	movq	%rax, -24(%rbp)
	movq	%rsi, -16(%rbp)
	movq	%rdx, -8(%rbp)
Ltmp623:
	.loc	35 997 9 prologue_end
	callq	__ZN4core4iter8adapters9enumerate18Enumerate$LT$I$GT$3new17h8923cf23045607d7E
	movq	-24(%rbp), %rax
	.loc	35 998 6
	addq	$32, %rsp
	popq	%rbp
	retq
Ltmp624:
Lfunc_end79:
	.cfi_endproc

	.globl	__ZN4core4iter8adapters3zip16Zip$LT$A$C$B$GT$3new17h29b6cb5be5d0ffbdE
	.p2align	4, 0x90
__ZN4core4iter8adapters3zip16Zip$LT$A$C$B$GT$3new17h29b6cb5be5d0ffbdE:
Lfunc_begin80:
	.loc	1 22 0
	.cfi_startproc
	pushq	%rbp
	.cfi_def_cfa_offset 16
	.cfi_offset %rbp, -16
	movq	%rsp, %rbp
	.cfi_def_cfa_register %rbp
	subq	$48, %rsp
	movq	%rdi, %rax
	movq	%rax, -40(%rbp)
	movq	%rsi, -32(%rbp)
	movq	%rdx, -24(%rbp)
	movq	%rcx, -16(%rbp)
	movq	%r8, -8(%rbp)
Ltmp625:
	.loc	1 23 9 prologue_end
	callq	__ZN111_$LT$core..iter..adapters..zip..Zip$LT$A$C$B$GT$$u20$as$u20$core..iter..adapters..zip..ZipImpl$LT$A$C$B$GT$$GT$3new17h0c8cc569808cf5c6E
	movq	-40(%rbp), %rax
	.loc	1 24 6
	addq	$48, %rsp
	popq	%rbp
	retq
Ltmp626:
Lfunc_end80:
	.cfi_endproc

	.globl	__ZN4core4iter8adapters3zip16Zip$LT$A$C$B$GT$3new17h8d31611e21c47d35E
	.p2align	4, 0x90
__ZN4core4iter8adapters3zip16Zip$LT$A$C$B$GT$3new17h8d31611e21c47d35E:
Lfunc_begin81:
	.loc	1 22 0
	.cfi_startproc
	pushq	%rbp
	.cfi_def_cfa_offset 16
	.cfi_offset %rbp, -16
	movq	%rsp, %rbp
	.cfi_def_cfa_register %rbp
	subq	$48, %rsp
	movq	%rdi, %rax
	movq	%rax, -40(%rbp)
	movq	%rsi, -32(%rbp)
	movq	%rdx, -24(%rbp)
	movq	%rcx, -16(%rbp)
	movq	%r8, -8(%rbp)
Ltmp627:
	.loc	1 23 9 prologue_end
	callq	__ZN111_$LT$core..iter..adapters..zip..Zip$LT$A$C$B$GT$$u20$as$u20$core..iter..adapters..zip..ZipImpl$LT$A$C$B$GT$$GT$3new17h2d705808d933419cE
	movq	-40(%rbp), %rax
	.loc	1 24 6
	addq	$48, %rsp
	popq	%rbp
	retq
Ltmp628:
Lfunc_end81:
	.cfi_endproc

	.globl	__ZN4core4iter8adapters3zip27TrustedRandomAccessNoCoerce4size17h965ce080b93fe81eE
	.p2align	4, 0x90
__ZN4core4iter8adapters3zip27TrustedRandomAccessNoCoerce4size17h965ce080b93fe81eE:
Lfunc_begin82:
	.loc	1 538 0
	.cfi_startproc
	pushq	%rbp
	.cfi_def_cfa_offset 16
	.cfi_offset %rbp, -16
	movq	%rsp, %rbp
	.cfi_def_cfa_register %rbp
	subq	$32, %rsp
	movq	%rdi, %rsi
	movq	%rsi, -8(%rbp)
Ltmp629:
	.loc	1 542 9 prologue_end
	leaq	-32(%rbp), %rdi
	callq	__ZN81_$LT$core..str..iter..Bytes$u20$as$u20$core..iter..traits..iterator..Iterator$GT$9size_hint17hf1b60a1df90df729E
	movq	-32(%rbp), %rax
	.loc	1 543 6
	addq	$32, %rsp
	popq	%rbp
	retq
Ltmp630:
Lfunc_end82:
	.cfi_endproc

	.globl	__ZN4core4iter8adapters3zip27TrustedRandomAccessNoCoerce4size17hdccdf0eca52ebc72E
	.p2align	4, 0x90
__ZN4core4iter8adapters3zip27TrustedRandomAccessNoCoerce4size17hdccdf0eca52ebc72E:
Lfunc_begin83:
	.loc	1 538 0
	.cfi_startproc
	pushq	%rbp
	.cfi_def_cfa_offset 16
	.cfi_offset %rbp, -16
	movq	%rsp, %rbp
	.cfi_def_cfa_register %rbp
	subq	$32, %rsp
	movq	%rdi, %rsi
	movq	%rsi, -8(%rbp)
Ltmp631:
	.loc	1 542 9 prologue_end
	leaq	-32(%rbp), %rdi
	callq	__ZN91_$LT$core..slice..iter..Iter$LT$T$GT$$u20$as$u20$core..iter..traits..iterator..Iterator$GT$9size_hint17hb89d43f2ed9eb184E
	movq	-32(%rbp), %rax
	.loc	1 543 6
	addq	$32, %rsp
	popq	%rbp
	retq
Ltmp632:
Lfunc_end83:
	.cfi_endproc

	.globl	__ZN4core4iter8adapters6copied15Copied$LT$I$GT$3new17h05476d800c786696E
	.p2align	4, 0x90
__ZN4core4iter8adapters6copied15Copied$LT$I$GT$3new17h05476d800c786696E:
Lfunc_begin84:
	.loc	2 25 0
	.cfi_startproc
	pushq	%rbp
	.cfi_def_cfa_offset 16
	.cfi_offset %rbp, -16
	movq	%rsp, %rbp
	.cfi_def_cfa_register %rbp
	subq	$32, %rsp
	movq	%rdi, -16(%rbp)
	movq	%rsi, -8(%rbp)
Ltmp633:
	.loc	2 26 9 prologue_end
	movq	%rdi, -32(%rbp)
	movq	%rsi, -24(%rbp)
	.loc	2 27 6
	movq	-32(%rbp), %rax
	movq	-24(%rbp), %rdx
	addq	$32, %rsp
	popq	%rbp
	retq
Ltmp634:
Lfunc_end84:
	.cfi_endproc

	.globl	__ZN4core4iter8adapters9enumerate18Enumerate$LT$I$GT$3new17h8923cf23045607d7E
	.p2align	4, 0x90
__ZN4core4iter8adapters9enumerate18Enumerate$LT$I$GT$3new17h8923cf23045607d7E:
Lfunc_begin85:
	.loc	8 22 0
	.cfi_startproc
	pushq	%rbp
	.cfi_def_cfa_offset 16
	.cfi_offset %rbp, -16
	movq	%rsp, %rbp
	.cfi_def_cfa_register %rbp
	subq	$16, %rsp
	movq	%rdi, %rax
	movq	%rsi, -16(%rbp)
	movq	%rdx, -8(%rbp)
Ltmp635:
	.loc	8 23 9 prologue_end
	movq	%rsi, (%rdi)
	movq	%rdx, 8(%rdi)
	movq	$0, 16(%rdi)
	.loc	8 24 6
	addq	$16, %rsp
	popq	%rbp
	retq
Ltmp636:
Lfunc_end85:
	.cfi_endproc

	.globl	__ZN4core5slice3cmp81_$LT$impl$u20$core..cmp..PartialEq$LT$$u5b$B$u5d$$GT$$u20$for$u20$$u5b$A$u5d$$GT$2eq17hc2b68ade93649801E
	.p2align	4, 0x90
__ZN4core5slice3cmp81_$LT$impl$u20$core..cmp..PartialEq$LT$$u5b$B$u5d$$GT$$u20$for$u20$$u5b$A$u5d$$GT$2eq17hc2b68ade93649801E:
Lfunc_begin86:
	.file	36 "/rustc/2c8cc343237b8f7d5a3c3703e3a87f2eb2c54a74/library/core/src/slice" "cmp.rs"
	.loc	36 25 0
	.cfi_startproc
	pushq	%rbp
	.cfi_def_cfa_offset 16
	.cfi_offset %rbp, -16
	movq	%rsp, %rbp
	.cfi_def_cfa_register %rbp
	subq	$32, %rsp
	movq	%rdi, -32(%rbp)
	movq	%rsi, -24(%rbp)
	movq	%rdx, -16(%rbp)
	movq	%rcx, -8(%rbp)
Ltmp637:
	.loc	36 26 9 prologue_end
	callq	__ZN73_$LT$$u5b$A$u5d$$u20$as$u20$core..slice..cmp..SlicePartialEq$LT$B$GT$$GT$5equal17h30951e7bc3457319E
	.loc	36 27 6
	andb	$1, %al
	movzbl	%al, %eax
	addq	$32, %rsp
	popq	%rbp
	retq
Ltmp638:
Lfunc_end86:
	.cfi_endproc

	.globl	__ZN4core5slice4iter13Iter$LT$T$GT$3new17hdeeaf60433ad8842E
	.p2align	4, 0x90
__ZN4core5slice4iter13Iter$LT$T$GT$3new17hdeeaf60433ad8842E:
Lfunc_begin87:
	.file	37 "/rustc/2c8cc343237b8f7d5a3c3703e3a87f2eb2c54a74/library/core/src/slice" "iter.rs"
	.loc	37 82 0
	.cfi_startproc
	pushq	%rbp
	.cfi_def_cfa_offset 16
	.cfi_offset %rbp, -16
	movq	%rsp, %rbp
	.cfi_def_cfa_register %rbp
	subq	$280, %rsp
	movq	%rdi, -280(%rbp)
	movq	%rsi, -272(%rbp)
	movq	%rdi, -208(%rbp)
	movq	%rsi, -200(%rbp)
Ltmp639:
	.loc	37 83 19 prologue_end
	movq	%rdi, -184(%rbp)
	movq	%rsi, -176(%rbp)
Ltmp640:
	.loc	22 477 9
	movq	%rdi, -168(%rbp)
Ltmp641:
	.loc	37 86 21
	movq	%rdi, -160(%rbp)
Ltmp642:
	.loc	5 53 36
	movq	%rdi, -232(%rbp)
	.loc	5 53 18 is_stmt 0
	movq	-232(%rbp), %rax
	movq	%rax, -152(%rbp)
Ltmp643:
	.loc	5 39 13 is_stmt 1
	movq	%rax, -144(%rbp)
Ltmp644:
	.loc	5 209 33
	movq	%rax, -136(%rbp)
	.loc	5 209 18 is_stmt 0
	movq	%rax, -128(%rbp)
Ltmp645:
	.loc	37 89 20 is_stmt 1
	xorl	%eax, %eax
	testb	$1, %al
	jne	LBB87_2
	.loc	37 0 20 is_stmt 0
	movq	-272(%rbp), %rcx
	movq	-280(%rbp), %rax
	.loc	37 89 76
	movq	%rax, -40(%rbp)
	.loc	37 89 84
	movq	%rcx, -32(%rbp)
Ltmp646:
	.loc	5 932 18 is_stmt 1
	movq	%rax, -24(%rbp)
	.loc	5 932 30 is_stmt 0
	movq	%rcx, -16(%rbp)
Ltmp647:
	.loc	5 473 18 is_stmt 1
	addq	%rcx, %rax
	movq	%rax, -248(%rbp)
Ltmp648:
	.loc	37 89 17
	jmp	LBB87_3
LBB87_2:
	.loc	37 0 17 is_stmt 0
	movq	-272(%rbp), %rcx
	movq	-280(%rbp), %rax
	.loc	37 89 32
	movq	%rax, -120(%rbp)
	.loc	37 89 54
	movq	%rcx, -112(%rbp)
Ltmp649:
	.loc	5 1118 9 is_stmt 1
	movq	%rax, -104(%rbp)
Ltmp650:
	.loc	5 61 9
	movq	%rax, -96(%rbp)
Ltmp651:
	.loc	5 1118 40
	movq	%rcx, -88(%rbp)
Ltmp652:
	.loc	5 1100 9
	movq	%rax, -80(%rbp)
	.loc	5 1100 30 is_stmt 0
	movq	%rcx, -72(%rbp)
Ltmp653:
	.loc	5 555 18 is_stmt 1
	addq	%rcx, %rax
	movq	%rax, -64(%rbp)
	movq	-64(%rbp), %rax
	movq	%rax, -56(%rbp)
Ltmp654:
	.loc	5 100 29
	movq	%rax, -48(%rbp)
Ltmp655:
	.loc	7 118 36
	movq	%rax, -216(%rbp)
	.loc	7 118 14 is_stmt 0
	movq	-216(%rbp), %rax
	movq	%rax, -224(%rbp)
	movq	-224(%rbp), %rax
	movq	%rax, -248(%rbp)
Ltmp656:
LBB87_3:
	.loc	7 0 14
	movq	-280(%rbp), %rax
Ltmp657:
	.loc	37 91 48 is_stmt 1
	movq	%rax, -8(%rbp)
Ltmp658:
	.file	38 "/rustc/2c8cc343237b8f7d5a3c3703e3a87f2eb2c54a74/library/core/src/ptr" "non_null.rs"
	.loc	38 201 13
	movq	%rax, -240(%rbp)
Ltmp659:
	.loc	37 91 64
	movq	-248(%rbp), %rax
	.loc	37 91 13 is_stmt 0
	movq	-240(%rbp), %rcx
	movq	%rcx, -256(%rbp)
	movq	%rax, -264(%rbp)
Ltmp660:
	.loc	37 93 6 is_stmt 1
	movq	-264(%rbp), %rax
	movq	-256(%rbp), %rdx
	addq	$280, %rsp
	popq	%rbp
	retq
Ltmp661:
Lfunc_end87:
	.cfi_endproc

	.globl	__ZN4core5slice4iter13Iter$LT$T$GT$8as_slice17hfefd804d1d382fefE
	.p2align	4, 0x90
__ZN4core5slice4iter13Iter$LT$T$GT$8as_slice17hfefd804d1d382fefE:
Lfunc_begin88:
	.loc	37 122 0
	.cfi_startproc
	pushq	%rbp
	.cfi_def_cfa_offset 16
	.cfi_offset %rbp, -16
	movq	%rsp, %rbp
	.cfi_def_cfa_register %rbp
	subq	$224, %rsp
	movq	%rdi, -224(%rbp)
	movq	%rdi, -160(%rbp)
Ltmp662:
	.loc	37 123 9 prologue_end
	movq	%rdi, -152(%rbp)
Ltmp663:
	.file	39 "/rustc/2c8cc343237b8f7d5a3c3703e3a87f2eb2c54a74/library/core/src/slice/iter" "macros.rs"
	.loc	39 68 41
	movq	8(%rdi), %rax
	movq	%rax, -216(%rbp)
	movq	%rax, -144(%rbp)
	movq	%rax, -136(%rbp)
	.loc	39 16 21
	movq	8(%rdi), %rax
	movq	%rax, -208(%rbp)
	movq	%rax, -128(%rbp)
Ltmp664:
	.loc	39 17 12
	xorl	%eax, %eax
	testb	$1, %al
	jne	LBB88_2
	.loc	39 0 12 is_stmt 0
	movq	-208(%rbp), %rsi
	movq	-224(%rbp), %rax
	.loc	39 25 22 is_stmt 1
	movq	(%rax), %rdi
	.loc	39 25 40 is_stmt 0
	movq	%rsi, -48(%rbp)
	.loc	39 25 22
	callq	__ZN4core3ptr9const_ptr33_$LT$impl$u20$$BP$const$u20$T$GT$7sub_ptr17ha09c46ab572fce32E
	movq	%rax, -200(%rbp)
	.loc	39 17 9 is_stmt 1
	jmp	LBB88_3
LBB88_2:
	.loc	39 0 9 is_stmt 0
	movq	-208(%rbp), %rcx
	movq	-224(%rbp), %rax
	.loc	39 20 13 is_stmt 1
	movq	(%rax), %rax
	movq	%rax, -120(%rbp)
Ltmp665:
	.loc	5 209 33
	movq	%rax, -112(%rbp)
	.loc	5 209 18 is_stmt 0
	movq	%rax, -104(%rbp)
	movq	-104(%rbp), %rax
	movq	%rax, -96(%rbp)
Ltmp666:
	.loc	39 20 43 is_stmt 1
	movq	%rcx, -88(%rbp)
Ltmp667:
	.loc	38 326 9
	movq	%rcx, -80(%rbp)
Ltmp668:
	.file	40 "/rustc/2c8cc343237b8f7d5a3c3703e3a87f2eb2c54a74/library/core/src/ptr" "mut_ptr.rs"
	.loc	40 215 33
	movq	%rcx, -72(%rbp)
	.loc	40 215 18 is_stmt 0
	movq	%rcx, -64(%rbp)
	movq	-64(%rbp), %rcx
	movq	%rcx, -56(%rbp)
Ltmp669:
	.loc	15 1203 13 is_stmt 1
	subq	%rcx, %rax
	movq	%rax, -200(%rbp)
Ltmp670:
LBB88_3:
	.loc	15 0 13 is_stmt 0
	movq	-216(%rbp), %rcx
Ltmp671:
	.file	41 "/rustc/2c8cc343237b8f7d5a3c3703e3a87f2eb2c54a74/library/core/src/slice" "raw.rs"
	.loc	41 100 37 is_stmt 1
	movq	%rcx, -40(%rbp)
	.loc	41 100 43 is_stmt 0
	movq	-200(%rbp), %rax
	movq	%rax, -32(%rbp)
Ltmp672:
	.loc	6 734 20 is_stmt 1
	movq	%rcx, -24(%rbp)
Ltmp673:
	.loc	5 61 9
	movq	%rcx, -16(%rbp)
Ltmp674:
	.loc	6 734 33
	movq	%rax, -8(%rbp)
Ltmp675:
	.loc	7 118 36
	movq	%rcx, -176(%rbp)
	movq	%rax, -168(%rbp)
	.loc	7 118 14 is_stmt 0
	movq	-176(%rbp), %rcx
	movq	-168(%rbp), %rax
	movq	%rcx, -192(%rbp)
	movq	%rax, -184(%rbp)
	movq	-192(%rbp), %rax
	movq	-184(%rbp), %rdx
Ltmp676:
	.loc	37 124 6 is_stmt 1
	addq	$224, %rsp
	popq	%rbp
	retq
Ltmp677:
Lfunc_end88:
	.cfi_endproc

	.globl	__ZN4core6option15Option$LT$T$GT$16unwrap_unchecked17h4aeca514bf33dfecE
	.p2align	4, 0x90
__ZN4core6option15Option$LT$T$GT$16unwrap_unchecked17h4aeca514bf33dfecE:
Lfunc_begin89:
	.loc	9 933 0
	.cfi_startproc
	.cfi_personality 155, _rust_eh_personality
	.cfi_lsda 16, Lexception10
	pushq	%rbp
	.cfi_def_cfa_offset 16
	.cfi_offset %rbp, -16
	movq	%rsp, %rbp
	.cfi_def_cfa_register %rbp
	subq	$32, %rsp
	movq	%rdi, -32(%rbp)
Ltmp681:
	.loc	9 935 15 prologue_end
	movq	-32(%rbp), %rdx
	movl	$1, %eax
	xorl	%ecx, %ecx
	cmpq	$0, %rdx
	cmoveq	%rcx, %rax
	.loc	9 935 9 is_stmt 0
	cmpq	$0, %rax
	jne	LBB89_2
Ltmp678:
	.loc	9 938 30 is_stmt 1
	callq	__ZN4core4hint21unreachable_unchecked17hdfb331f4f046eacaE
Ltmp679:
	jmp	LBB89_5
LBB89_2:
	.loc	9 936 18
	movq	-32(%rbp), %rax
	movq	%rax, -24(%rbp)
	.loc	9 940 6
	addq	$32, %rsp
	popq	%rbp
	retq
LBB89_3:
	.loc	9 940 5 is_stmt 0
	movq	-32(%rbp), %rdx
	movl	$1, %eax
	xorl	%ecx, %ecx
	cmpq	$0, %rdx
	cmoveq	%rcx, %rax
	cmpq	$1, %rax
	je	LBB89_6
	jmp	LBB89_7
LBB89_4:
Ltmp680:
	.loc	9 0 5
	movq	%rax, %rcx
	movl	%edx, %eax
	movq	%rcx, -16(%rbp)
	movl	%eax, -8(%rbp)
	jmp	LBB89_3
LBB89_5:
	ud2
LBB89_6:
	.loc	9 940 5
	movb	$1, %al
	testb	$1, %al
	jne	LBB89_8
	jmp	LBB89_7
LBB89_7:
	.loc	9 933 5 is_stmt 1
	movq	-16(%rbp), %rdi
	callq	__Unwind_Resume
LBB89_8:
	.loc	9 940 5
	jmp	LBB89_7
Ltmp682:
Lfunc_end89:
	.cfi_endproc
	.section	__TEXT,__gcc_except_tab
	.p2align	2
GCC_except_table89:
Lexception10:
	.byte	255
	.byte	255
	.byte	1
	.uleb128 Lcst_end10-Lcst_begin10
Lcst_begin10:
	.uleb128 Ltmp678-Lfunc_begin89
	.uleb128 Ltmp679-Ltmp678
	.uleb128 Ltmp680-Lfunc_begin89
	.byte	0
	.uleb128 Ltmp679-Lfunc_begin89
	.uleb128 Lfunc_end89-Ltmp679
	.byte	0
	.byte	0
Lcst_end10:
	.p2align	2

	.section	__TEXT,__text,regular,pure_instructions
	.globl	__ZN4core6option15Option$LT$T$GT$3map17hb21193378cc54111E
	.p2align	4, 0x90
__ZN4core6option15Option$LT$T$GT$3map17hb21193378cc54111E:
Lfunc_begin90:
	.loc	9 964 0
	.cfi_startproc
	pushq	%rbp
	.cfi_def_cfa_offset 16
	.cfi_offset %rbp, -16
	movq	%rsp, %rbp
	.cfi_def_cfa_register %rbp
	subq	$32, %rsp
	movl	%edi, -32(%rbp)
	movl	%esi, -28(%rbp)
Ltmp683:
	.loc	9 969 15 prologue_end
	movb	$1, -9(%rbp)
	movl	-32(%rbp), %eax
	.loc	9 969 9 is_stmt 0
	cmpq	$0, %rax
	jne	LBB90_2
	.loc	9 971 21 is_stmt 1
	movl	$1114112, -20(%rbp)
	jmp	LBB90_3
LBB90_2:
	.loc	9 970 18
	movl	-28(%rbp), %eax
	movl	%eax, -4(%rbp)
Ltmp684:
	.loc	9 970 29 is_stmt 0
	movb	$0, -9(%rbp)
	movl	%eax, -16(%rbp)
	movl	-16(%rbp), %edi
	callq	__ZN81_$LT$core..str..iter..Chars$u20$as$u20$core..iter..traits..iterator..Iterator$GT$4next28_$u7b$$u7b$closure$u7d$$u7d$17hf77bdc290e18c45cE
	.loc	9 970 24
	movl	%eax, -20(%rbp)
Ltmp685:
LBB90_3:
	.loc	9 973 5 is_stmt 1
	testb	$1, -9(%rbp)
	jne	LBB90_5
LBB90_4:
	.loc	9 973 6 is_stmt 0
	movl	-20(%rbp), %eax
	addq	$32, %rsp
	popq	%rbp
	retq
LBB90_5:
	.loc	9 973 5
	jmp	LBB90_4
Ltmp686:
Lfunc_end90:
	.cfi_endproc

	.globl	__ZN4core6option15Option$LT$T$GT$7is_none17h768020cdeef7044dE
	.p2align	4, 0x90
__ZN4core6option15Option$LT$T$GT$7is_none17h768020cdeef7044dE:
Lfunc_begin91:
	.loc	9 643 0 is_stmt 1
	.cfi_startproc
	pushq	%rbp
	.cfi_def_cfa_offset 16
	.cfi_offset %rbp, -16
	movq	%rsp, %rbp
	.cfi_def_cfa_register %rbp
	subq	$24, %rsp
	movq	%rdi, -16(%rbp)
Ltmp687:
	.loc	9 644 10 prologue_end
	movq	%rdi, -8(%rbp)
Ltmp688:
	.loc	9 598 18
	movl	$1, %eax
	xorl	%ecx, %ecx
	cmpl	$1114112, (%rdi)
	cmoveq	%rcx, %rax
	.file	42 "/rustc/2c8cc343237b8f7d5a3c3703e3a87f2eb2c54a74/library/core/src/macros" "mod.rs"
	.loc	42 344 9
	cmpq	$1, %rax
	jne	LBB91_2
	.loc	42 345 48
	movb	$1, -17(%rbp)
	jmp	LBB91_3
LBB91_2:
	.loc	42 346 18
	movb	$0, -17(%rbp)
Ltmp689:
LBB91_3:
	.loc	9 644 9
	movb	-17(%rbp), %al
	xorb	$-1, %al
	.loc	9 645 6
	andb	$1, %al
	movzbl	%al, %eax
	addq	$24, %rsp
	popq	%rbp
	retq
Ltmp690:
Lfunc_end91:
	.cfi_endproc

	.globl	__ZN4core6result19Result$LT$T$C$E$GT$7map_err17h8b138a3d4a8ecc15E
	.p2align	4, 0x90
__ZN4core6result19Result$LT$T$C$E$GT$7map_err17h8b138a3d4a8ecc15E:
Lfunc_begin92:
	.file	43 "/rustc/2c8cc343237b8f7d5a3c3703e3a87f2eb2c54a74/library/core/src" "result.rs"
	.loc	43 857 0
	.cfi_startproc
	pushq	%rbp
	.cfi_def_cfa_offset 16
	.cfi_offset %rbp, -16
	movq	%rsp, %rbp
	.cfi_def_cfa_register %rbp
	subq	$64, %rsp
	movq	%rsi, -56(%rbp)
	movq	%rdi, -40(%rbp)
	movq	-40(%rbp), %rax
	movq	%rax, -48(%rbp)
	movq	%rsi, -16(%rbp)
Ltmp691:
	.loc	43 858 15 prologue_end
	movb	$1, -17(%rbp)
	movb	-48(%rbp), %al
	andb	$1, %al
	movzbl	%al, %eax
	.loc	43 858 9 is_stmt 0
	cmpq	$0, %rax
	jne	LBB92_2
	.loc	43 859 16 is_stmt 1
	movss	-44(%rbp), %xmm0
	movss	%xmm0, -4(%rbp)
Ltmp692:
	.loc	43 859 22 is_stmt 0
	movss	%xmm0, -28(%rbp)
	movb	$0, -32(%rbp)
Ltmp693:
	.loc	43 859 26
	jmp	LBB92_3
LBB92_2:
	.loc	43 0 26
	movq	-56(%rbp), %rdi
	.loc	43 860 17 is_stmt 1
	movb	-47(%rbp), %al
	movb	%al, %cl
	andb	$1, %cl
	movb	%cl, -5(%rbp)
Ltmp694:
	.loc	43 860 27 is_stmt 0
	movb	$0, -17(%rbp)
	andb	$1, %al
	movb	%al, -18(%rbp)
	movb	-18(%rbp), %al
	andb	$1, %al
	movzbl	%al, %esi
	callq	__ZN39_$LT$f32$u20$as$u20$num_traits..Num$GT$14from_str_radix28_$u7b$$u7b$closure$u7d$$u7d$17h7e666cf00f4170eeE
	.loc	43 860 23
	andb	$1, %al
	movb	%al, -31(%rbp)
	movb	$1, -32(%rbp)
Ltmp695:
LBB92_3:
	.loc	43 862 5 is_stmt 1
	testb	$1, -17(%rbp)
	jne	LBB92_5
LBB92_4:
	.loc	43 862 6 is_stmt 0
	movq	-32(%rbp), %rax
	addq	$64, %rsp
	popq	%rbp
	retq
LBB92_5:
	.loc	43 862 5
	jmp	LBB92_4
Ltmp696:
Lfunc_end92:
	.cfi_endproc

	.globl	__ZN4core6result19Result$LT$T$C$E$GT$7map_err17h8eaaacc2cc2f17bbE
	.p2align	4, 0x90
__ZN4core6result19Result$LT$T$C$E$GT$7map_err17h8eaaacc2cc2f17bbE:
Lfunc_begin93:
	.loc	43 857 0 is_stmt 1
	.cfi_startproc
	pushq	%rbp
	.cfi_def_cfa_offset 16
	.cfi_offset %rbp, -16
	movq	%rsp, %rbp
	.cfi_def_cfa_register %rbp
	subq	$64, %rsp
	movq	%rdx, -64(%rbp)
	movq	%rsi, -56(%rbp)
Ltmp697:
	movq	%rdi, -48(%rbp)
	movq	%rdi, -40(%rbp)
Ltmp698:
	movq	%rdx, -24(%rbp)
Ltmp699:
	.loc	43 858 15 prologue_end
	movb	$1, -25(%rbp)
	movb	(%rsi), %al
	andb	$1, %al
	movzbl	%al, %eax
	.loc	43 858 9 is_stmt 0
	cmpq	$0, %rax
Ltmp700:
	jne	LBB93_2
Ltmp701:
	.loc	43 0 9
	movq	-48(%rbp), %rax
	movq	-56(%rbp), %rcx
	.loc	43 859 16 is_stmt 1
	movsd	8(%rcx), %xmm0
	movsd	%xmm0, -8(%rbp)
Ltmp702:
	.loc	43 859 22 is_stmt 0
	movsd	%xmm0, 8(%rax)
	movb	$0, (%rax)
Ltmp703:
	.loc	43 859 26
	jmp	LBB93_3
Ltmp704:
LBB93_2:
	.loc	43 0 26
	movq	-64(%rbp), %rdi
	movq	-56(%rbp), %rax
	.loc	43 860 17 is_stmt 1
	movb	1(%rax), %al
	movb	%al, %cl
	andb	$1, %cl
	movb	%cl, -9(%rbp)
Ltmp705:
	.loc	43 860 27 is_stmt 0
	movb	$0, -25(%rbp)
	andb	$1, %al
	movb	%al, -26(%rbp)
	movb	-26(%rbp), %al
	andb	$1, %al
	movzbl	%al, %esi
	callq	__ZN39_$LT$f64$u20$as$u20$num_traits..Num$GT$14from_str_radix28_$u7b$$u7b$closure$u7d$$u7d$17hc1a9d79664d0cdeaE
	movb	%al, %cl
	movq	-48(%rbp), %rax
	.loc	43 860 23
	andb	$1, %cl
	movb	%cl, 1(%rax)
	movb	$1, (%rax)
Ltmp706:
LBB93_3:
	.loc	43 862 5 is_stmt 1
	testb	$1, -25(%rbp)
	jne	LBB93_5
Ltmp707:
LBB93_4:
	.loc	43 0 5 is_stmt 0
	movq	-40(%rbp), %rax
	.loc	43 862 6
	addq	$64, %rsp
	popq	%rbp
	retq
Ltmp708:
LBB93_5:
	.loc	43 862 5
	jmp	LBB93_4
Ltmp709:
Lfunc_end93:
	.cfi_endproc

	.globl	__ZN63_$LT$I$u20$as$u20$core..iter..traits..collect..IntoIterator$GT$9into_iter17h1dda615ea543a8eeE
	.p2align	4, 0x90
__ZN63_$LT$I$u20$as$u20$core..iter..traits..collect..IntoIterator$GT$9into_iter17h1dda615ea543a8eeE:
Lfunc_begin94:
	.file	44 "/rustc/2c8cc343237b8f7d5a3c3703e3a87f2eb2c54a74/library/core/src/iter/traits" "collect.rs"
	.loc	44 272 0 is_stmt 1
	.cfi_startproc
	pushq	%rbp
	.cfi_def_cfa_offset 16
	.cfi_offset %rbp, -16
	movq	%rsp, %rbp
	.cfi_def_cfa_register %rbp
	pushq	%rax
	movq	%rdi, %rax
	movq	%rax, -8(%rbp)
Ltmp710:
	.loc	44 274 6 prologue_end
	addq	$8, %rsp
	popq	%rbp
	retq
Ltmp711:
Lfunc_end94:
	.cfi_endproc

	.globl	__ZN63_$LT$I$u20$as$u20$core..iter..traits..collect..IntoIterator$GT$9into_iter17h736c20d0bc26926bE
	.p2align	4, 0x90
__ZN63_$LT$I$u20$as$u20$core..iter..traits..collect..IntoIterator$GT$9into_iter17h736c20d0bc26926bE:
Lfunc_begin95:
	.loc	44 272 0
	.cfi_startproc
	pushq	%rbp
	.cfi_def_cfa_offset 16
	.cfi_offset %rbp, -16
	movq	%rsp, %rbp
	.cfi_def_cfa_register %rbp
	subq	$16, %rsp
	movq	%rsi, %rdx
	movq	%rdi, %rax
	movq	%rax, -16(%rbp)
	movq	%rdx, -8(%rbp)
Ltmp712:
	.loc	44 274 6 prologue_end
	addq	$16, %rsp
	popq	%rbp
	retq
Ltmp713:
Lfunc_end95:
	.cfi_endproc

	.globl	__ZN63_$LT$I$u20$as$u20$core..iter..traits..collect..IntoIterator$GT$9into_iter17h744a6d7f9cd8a39bE
	.p2align	4, 0x90
__ZN63_$LT$I$u20$as$u20$core..iter..traits..collect..IntoIterator$GT$9into_iter17h744a6d7f9cd8a39bE:
Lfunc_begin96:
	.loc	44 272 0
	.cfi_startproc
	pushq	%rbp
	.cfi_def_cfa_offset 16
	.cfi_offset %rbp, -16
	movq	%rsp, %rbp
	.cfi_def_cfa_register %rbp
	subq	$16, %rsp
	movq	%rsi, %rdx
	movq	%rdi, %rax
	movq	%rax, -16(%rbp)
	movq	%rdx, -8(%rbp)
Ltmp714:
	.loc	44 274 6 prologue_end
	addq	$16, %rsp
	popq	%rbp
	retq
Ltmp715:
Lfunc_end96:
	.cfi_endproc

	.globl	__ZN72_$LT$$RF$mut$u20$I$u20$as$u20$core..iter..traits..iterator..Iterator$GT$4next17he42ba000f1a49babE
	.p2align	4, 0x90
__ZN72_$LT$$RF$mut$u20$I$u20$as$u20$core..iter..traits..iterator..Iterator$GT$4next17he42ba000f1a49babE:
Lfunc_begin97:
	.loc	35 3904 0
	.cfi_startproc
	pushq	%rbp
	.cfi_def_cfa_offset 16
	.cfi_offset %rbp, -16
	movq	%rsp, %rbp
	.cfi_def_cfa_register %rbp
	subq	$16, %rsp
	movq	%rdi, -8(%rbp)
Ltmp716:
	.loc	35 3905 9 prologue_end
	movq	(%rdi), %rdi
	callq	__ZN110_$LT$core..iter..adapters..enumerate..Enumerate$LT$I$GT$$u20$as$u20$core..iter..traits..iterator..Iterator$GT$4next17hde88647da783e42cE
	.loc	35 3906 6
	addq	$16, %rsp
	popq	%rbp
	retq
Ltmp717:
Lfunc_end97:
	.cfi_endproc

	.globl	__ZN72_$LT$I$u20$as$u20$core..iter..adapters..zip..SpecTrustedRandomAccess$GT$17try_get_unchecked17ha4ffa9a281fe05f5E
	.p2align	4, 0x90
__ZN72_$LT$I$u20$as$u20$core..iter..adapters..zip..SpecTrustedRandomAccess$GT$17try_get_unchecked17ha4ffa9a281fe05f5E:
Lfunc_begin98:
	.loc	1 580 0
	.cfi_startproc
	pushq	%rbp
	.cfi_def_cfa_offset 16
	.cfi_offset %rbp, -16
	movq	%rsp, %rbp
	.cfi_def_cfa_register %rbp
	subq	$16, %rsp
	movq	%rdi, -16(%rbp)
	movq	%rsi, -8(%rbp)
Ltmp718:
	.loc	1 583 18 prologue_end
	callq	__ZN91_$LT$core..slice..iter..Iter$LT$T$GT$$u20$as$u20$core..iter..traits..iterator..Iterator$GT$24__iterator_get_unchecked17hdea8e70c16d1b9e2E
	.loc	1 584 6
	addq	$16, %rsp
	popq	%rbp
	retq
Ltmp719:
Lfunc_end98:
	.cfi_endproc

	.globl	__ZN73_$LT$$u5b$A$u5d$$u20$as$u20$core..slice..cmp..SlicePartialEq$LT$B$GT$$GT$5equal17h30951e7bc3457319E
	.p2align	4, 0x90
__ZN73_$LT$$u5b$A$u5d$$u20$as$u20$core..slice..cmp..SlicePartialEq$LT$B$GT$$GT$5equal17h30951e7bc3457319E:
Lfunc_begin99:
	.loc	36 82 0
	.cfi_startproc
	pushq	%rbp
	.cfi_def_cfa_offset 16
	.cfi_offset %rbp, -16
	movq	%rsp, %rbp
	.cfi_def_cfa_register %rbp
	subq	$144, %rsp
	movq	%rdi, -136(%rbp)
	movq	%rsi, -128(%rbp)
	movq	%rdx, -120(%rbp)
	movq	%rcx, -112(%rbp)
	movq	%rdi, -96(%rbp)
	movq	%rsi, -88(%rbp)
	movq	%rdx, -80(%rbp)
	movq	%rcx, -72(%rbp)
Ltmp720:
	.loc	36 83 12 prologue_end
	cmpq	%rcx, %rsi
	jne	LBB99_2
	.loc	36 0 12 is_stmt 0
	movq	-120(%rbp), %rsi
	movq	-136(%rbp), %rdi
	movq	-112(%rbp), %rax
	movq	-128(%rbp), %rcx
	.loc	36 90 41 is_stmt 1
	movq	%rdi, -64(%rbp)
	movq	%rcx, -56(%rbp)
Ltmp721:
	.loc	27 338 14
	movq	%rcx, %rdx
	shlq	$0, %rdx
	movq	%rdx, -48(%rbp)
	movq	-48(%rbp), %rdx
	movq	%rdx, -40(%rbp)
Ltmp722:
	.loc	36 91 20
	movq	%rdi, -32(%rbp)
	movq	%rcx, -24(%rbp)
	.loc	36 91 48 is_stmt 0
	movq	%rsi, -16(%rbp)
	movq	%rax, -8(%rbp)
	.loc	36 91 13
	callq	_memcmp
	cmpl	$0, %eax
	sete	%al
	andb	$1, %al
	movb	%al, -97(%rbp)
Ltmp723:
	.loc	36 93 6 is_stmt 1
	jmp	LBB99_3
LBB99_2:
	.loc	36 84 20
	movb	$0, -97(%rbp)
LBB99_3:
	.loc	36 93 6
	movb	-97(%rbp), %al
	andb	$1, %al
	movzbl	%al, %eax
	addq	$144, %rsp
	popq	%rbp
	retq
Ltmp724:
Lfunc_end99:
	.cfi_endproc

	.globl	__ZN75_$LT$usize$u20$as$u20$core..slice..index..SliceIndex$LT$$u5b$T$u5d$$GT$$GT$3get17h6a890372d3b88044E
	.p2align	4, 0x90
__ZN75_$LT$usize$u20$as$u20$core..slice..index..SliceIndex$LT$$u5b$T$u5d$$GT$$GT$3get17h6a890372d3b88044E:
Lfunc_begin100:
	.loc	4 217 0
	.cfi_startproc
	pushq	%rbp
	.cfi_def_cfa_offset 16
	.cfi_offset %rbp, -16
	movq	%rsp, %rbp
	.cfi_def_cfa_register %rbp
	subq	$136, %rsp
	movq	%rdi, -136(%rbp)
	movq	%rsi, -128(%rbp)
	movq	%rdx, -120(%rbp)
	movq	%rdi, -104(%rbp)
	movq	%rsi, -96(%rbp)
	movq	%rdx, -88(%rbp)
Ltmp725:
	.loc	4 219 12 prologue_end
	cmpq	%rdx, %rdi
	jb	LBB100_2
	.loc	4 219 87 is_stmt 0
	movq	$0, -112(%rbp)
	.loc	4 219 9
	jmp	LBB100_3
LBB100_2:
	.loc	4 0 9
	movq	-136(%rbp), %rcx
	movq	-128(%rbp), %rax
	movq	-120(%rbp), %rdx
	.loc	4 219 49
	movq	%rcx, -80(%rbp)
	.loc	4 219 68
	movq	%rax, -72(%rbp)
	movq	%rdx, -64(%rbp)
Ltmp726:
	.loc	4 240 13 is_stmt 1
	movq	%rax, -56(%rbp)
	movq	%rdx, -48(%rbp)
Ltmp727:
	.loc	5 1650 9
	movq	%rax, -40(%rbp)
Ltmp728:
	.loc	4 240 32
	movq	%rcx, -32(%rbp)
Ltmp729:
	.loc	5 932 18
	movq	%rax, -24(%rbp)
	.loc	5 932 30 is_stmt 0
	movq	%rcx, -16(%rbp)
Ltmp730:
	.loc	5 473 18 is_stmt 1
	addq	%rcx, %rax
	movq	%rax, -8(%rbp)
	movq	-8(%rbp), %rax
Ltmp731:
	.loc	4 219 42
	movq	%rax, -112(%rbp)
LBB100_3:
	.loc	4 220 6
	movq	-112(%rbp), %rax
	addq	$136, %rsp
	popq	%rbp
	retq
Ltmp732:
Lfunc_end100:
	.cfi_endproc

	.p2align	4, 0x90
__ZN81_$LT$core..str..iter..Bytes$u20$as$u20$core..iter..traits..iterator..Iterator$GT$24__iterator_get_unchecked17h44b0aa3687a48b74E:
Lfunc_begin101:
	.loc	30 301 0
	.cfi_startproc
	pushq	%rbp
	.cfi_def_cfa_offset 16
	.cfi_offset %rbp, -16
	movq	%rsp, %rbp
	.cfi_def_cfa_register %rbp
	subq	$16, %rsp
	movq	%rdi, -16(%rbp)
	movq	%rsi, -8(%rbp)
Ltmp733:
	.loc	30 304 18 prologue_end
	callq	__ZN104_$LT$core..iter..adapters..copied..Copied$LT$I$GT$$u20$as$u20$core..iter..traits..iterator..Iterator$GT$24__iterator_get_unchecked17h2d5ff3ab5e5bb02aE
	.loc	30 305 6
	addq	$16, %rsp
	popq	%rbp
	retq
Ltmp734:
Lfunc_end101:
	.cfi_endproc

	.p2align	4, 0x90
__ZN81_$LT$core..str..iter..Bytes$u20$as$u20$core..iter..traits..iterator..Iterator$GT$9size_hint17hf1b60a1df90df729E:
Lfunc_begin102:
	.loc	30 241 0
	.cfi_startproc
	pushq	%rbp
	.cfi_def_cfa_offset 16
	.cfi_offset %rbp, -16
	movq	%rsp, %rbp
	.cfi_def_cfa_register %rbp
	subq	$16, %rsp
	movq	%rdi, %rax
	movq	%rax, -16(%rbp)
	movq	%rsi, -8(%rbp)
Ltmp735:
	.loc	30 242 9 prologue_end
	callq	__ZN104_$LT$core..iter..adapters..copied..Copied$LT$I$GT$$u20$as$u20$core..iter..traits..iterator..Iterator$GT$9size_hint17h6b0883bf887062c5E
	movq	-16(%rbp), %rax
	.loc	30 243 6
	addq	$16, %rsp
	popq	%rbp
	retq
Ltmp736:
Lfunc_end102:
	.cfi_endproc

	.p2align	4, 0x90
__ZN81_$LT$core..str..iter..Chars$u20$as$u20$core..iter..traits..iterator..Iterator$GT$4next17h5049fbdaa12d9b42E:
Lfunc_begin103:
	.loc	30 41 0
	.cfi_startproc
	pushq	%rbp
	.cfi_def_cfa_offset 16
	.cfi_offset %rbp, -16
	movq	%rsp, %rbp
	.cfi_def_cfa_register %rbp
	subq	$16, %rsp
	movq	%rdi, -8(%rbp)
Ltmp737:
	.loc	30 44 18 prologue_end
	callq	__ZN4core3str11validations15next_code_point17h5658fcdf11f94891E
	movl	%eax, %edi
	movl	%edx, %esi
	callq	__ZN4core6option15Option$LT$T$GT$3map17hb21193378cc54111E
	.loc	30 45 6
	addq	$16, %rsp
	popq	%rbp
	retq
Ltmp738:
Lfunc_end103:
	.cfi_endproc

	.globl	__ZN81_$LT$core..str..iter..Chars$u20$as$u20$core..iter..traits..iterator..Iterator$GT$4next28_$u7b$$u7b$closure$u7d$$u7d$17hf77bdc290e18c45cE
	.p2align	4, 0x90
__ZN81_$LT$core..str..iter..Chars$u20$as$u20$core..iter..traits..iterator..Iterator$GT$4next28_$u7b$$u7b$closure$u7d$$u7d$17hf77bdc290e18c45cE:
Lfunc_begin104:
	.loc	30 44 0
	.cfi_startproc
	pushq	%rbp
	.cfi_def_cfa_offset 16
	.cfi_offset %rbp, -16
	movq	%rsp, %rbp
	.cfi_def_cfa_register %rbp
	subq	$24, %rsp
	movl	%edi, -16(%rbp)
Ltmp739:
	.loc	30 44 84 prologue_end
	movl	%edi, -12(%rbp)
Ltmp740:
	.file	45 "/rustc/2c8cc343237b8f7d5a3c3703e3a87f2eb2c54a74/library/core/src/char" "mod.rs"
	.loc	45 128 48
	movl	%edi, -8(%rbp)
Ltmp741:
	.file	46 "/rustc/2c8cc343237b8f7d5a3c3703e3a87f2eb2c54a74/library/core/src/char" "convert.rs"
	.loc	46 25 78
	movl	%edi, -4(%rbp)
	movl	-4(%rbp), %eax
Ltmp742:
	.loc	30 44 87
	addq	$24, %rsp
	popq	%rbp
	retq
Ltmp743:
Lfunc_end104:
	.cfi_endproc

	.globl	__ZN90_$LT$core..ops..control_flow..ControlFlow$LT$B$C$C$GT$$u20$as$u20$core..cmp..PartialEq$GT$2eq17h1166f08f5aaaad50E
	.p2align	4, 0x90
__ZN90_$LT$core..ops..control_flow..ControlFlow$LT$B$C$C$GT$$u20$as$u20$core..cmp..PartialEq$GT$2eq17h1166f08f5aaaad50E:
Lfunc_begin105:
	.loc	3 84 0
	.cfi_startproc
	pushq	%rbp
	.cfi_def_cfa_offset 16
	.cfi_offset %rbp, -16
	movq	%rsp, %rbp
	.cfi_def_cfa_register %rbp
	subq	$112, %rsp
	movq	%rdi, -104(%rbp)
	movq	%rsi, -96(%rbp)
	movq	%rdi, -64(%rbp)
	movq	%rsi, -56(%rbp)
Ltmp744:
	.loc	3 84 30 prologue_end
	movb	(%rdi), %al
	andb	$1, %al
	movzbl	%al, %eax
	movq	%rax, -48(%rbp)
Ltmp745:
	.loc	3 84 30 is_stmt 0
	movb	(%rsi), %cl
	andb	$1, %cl
	movzbl	%cl, %ecx
	movq	%rcx, -40(%rbp)
Ltmp746:
	.loc	3 84 30
	cmpq	%rcx, %rax
	je	LBB105_2
	movb	$0, -82(%rbp)
	jmp	LBB105_9
LBB105_2:
	.loc	3 0 30
	movq	-96(%rbp), %rax
	movq	-104(%rbp), %rcx
	.loc	3 84 30
	movq	%rcx, -80(%rbp)
	movq	%rax, -72(%rbp)
	movq	-80(%rbp), %rax
	movb	(%rax), %al
	andb	$1, %al
	movzbl	%al, %eax
	cmpq	$0, %rax
	jne	LBB105_4
	movq	-72(%rbp), %rax
	movb	(%rax), %al
	andb	$1, %al
	movzbl	%al, %eax
	cmpq	$0, %rax
	je	LBB105_8
	jmp	LBB105_6
LBB105_4:
	movq	-72(%rbp), %rax
	movb	(%rax), %al
	andb	$1, %al
	movzbl	%al, %eax
	cmpq	$1, %rax
	jne	LBB105_6
	.loc	3 93 11 is_stmt 1
	movq	-80(%rbp), %rdi
	addq	$1, %rdi
	movq	%rdi, -32(%rbp)
	movq	-72(%rbp), %rsi
	addq	$1, %rsi
	movq	%rsi, -24(%rbp)
Ltmp747:
	.loc	3 93 11 is_stmt 0
	callq	__ZN4core3cmp5impls59_$LT$impl$u20$core..cmp..PartialEq$u20$for$u20$$LP$$RP$$GT$2eq17h2cd35d5d2804f113E
	andb	$1, %al
	movb	%al, -81(%rbp)
Ltmp748:
	.loc	3 84 38 is_stmt 1
	jmp	LBB105_7
LBB105_6:
	.loc	3 84 30 is_stmt 0
	ud2
LBB105_7:
	movb	-81(%rbp), %al
	andb	$1, %al
	movb	%al, -82(%rbp)
	jmp	LBB105_9
LBB105_8:
	.loc	3 89 14 is_stmt 1
	movq	-80(%rbp), %rdi
	addq	$1, %rdi
	movq	%rdi, -16(%rbp)
	movq	-72(%rbp), %rsi
	addq	$1, %rsi
	movq	%rsi, -8(%rbp)
Ltmp749:
	.loc	3 89 14 is_stmt 0
	callq	__ZN4core3cmp5impls59_$LT$impl$u20$core..cmp..PartialEq$u20$for$u20$$LP$$RP$$GT$2eq17h2cd35d5d2804f113E
	andb	$1, %al
	movb	%al, -81(%rbp)
Ltmp750:
	.loc	3 84 38 is_stmt 1
	jmp	LBB105_7
Ltmp751:
LBB105_9:
	.loc	3 84 39 is_stmt 0
	movb	-82(%rbp), %al
	andb	$1, %al
	movzbl	%al, %eax
	addq	$112, %rsp
	popq	%rbp
	retq
Ltmp752:
Lfunc_end105:
	.cfi_endproc

	.globl	__ZN91_$LT$core..slice..iter..Iter$LT$T$GT$$u20$as$u20$core..iter..traits..iterator..Iterator$GT$24__iterator_get_unchecked17hdea8e70c16d1b9e2E
	.p2align	4, 0x90
__ZN91_$LT$core..slice..iter..Iter$LT$T$GT$$u20$as$u20$core..iter..traits..iterator..Iterator$GT$24__iterator_get_unchecked17hdea8e70c16d1b9e2E:
Lfunc_begin106:
	.loc	39 319 0 is_stmt 1
	.cfi_startproc
	pushq	%rbp
	.cfi_def_cfa_offset 16
	.cfi_offset %rbp, -16
	movq	%rsp, %rbp
	.cfi_def_cfa_register %rbp
	subq	$64, %rsp
	movq	%rdi, -64(%rbp)
	movq	%rsi, -56(%rbp)
Ltmp753:
	.loc	39 330 42 prologue_end
	movq	8(%rdi), %rax
	movq	%rax, -48(%rbp)
Ltmp754:
	.loc	38 326 9
	movq	%rax, -40(%rbp)
Ltmp755:
	.loc	39 330 64
	movq	%rsi, -32(%rbp)
Ltmp756:
	.loc	40 1034 18
	movq	%rax, -24(%rbp)
	.loc	40 1034 30 is_stmt 0
	movq	%rsi, -16(%rbp)
Ltmp757:
	.loc	40 487 18 is_stmt 1
	addq	%rsi, %rax
	movq	%rax, -8(%rbp)
	movq	-8(%rbp), %rax
Ltmp758:
	.loc	39 331 14
	addq	$64, %rsp
	popq	%rbp
	retq
Ltmp759:
Lfunc_end106:
	.cfi_endproc

	.globl	__ZN91_$LT$core..slice..iter..Iter$LT$T$GT$$u20$as$u20$core..iter..traits..iterator..Iterator$GT$4next17hbf918c1c9b98d2bfE
	.p2align	4, 0x90
__ZN91_$LT$core..slice..iter..Iter$LT$T$GT$$u20$as$u20$core..iter..traits..iterator..Iterator$GT$4next17hbf918c1c9b98d2bfE:
Lfunc_begin107:
	.loc	39 124 0
	.cfi_startproc
	pushq	%rbp
	.cfi_def_cfa_offset 16
	.cfi_offset %rbp, -16
	movq	%rsp, %rbp
	.cfi_def_cfa_register %rbp
	subq	$304, %rsp
	movq	%rdi, -304(%rbp)
	movq	%rdi, -240(%rbp)
Ltmp760:
	.loc	39 132 29 prologue_end
	movq	8(%rdi), %rax
	movq	%rax, -224(%rbp)
Ltmp761:
	.loc	38 326 9
	movq	%rax, -216(%rbp)
Ltmp762:
	.loc	40 52 36
	movq	%rax, -280(%rbp)
	.loc	40 52 18 is_stmt 0
	movq	-280(%rbp), %rax
	movq	%rax, -208(%rbp)
Ltmp763:
	.loc	40 38 13 is_stmt 1
	movq	%rax, -200(%rbp)
Ltmp764:
	.loc	40 215 33
	movq	%rax, -192(%rbp)
	.loc	40 215 18 is_stmt 0
	movq	%rax, -184(%rbp)
Ltmp765:
	.loc	39 133 24 is_stmt 1
	movb	$1, %al
	testb	$1, %al
	jne	LBB107_2
LBB107_1:
	.loc	39 0 24 is_stmt 0
	movq	-304(%rbp), %rcx
	.loc	39 136 24 is_stmt 1
	movq	8(%rcx), %rax
	movq	%rax, -136(%rbp)
	cmpq	(%rcx), %rax
	je	LBB107_4
	jmp	LBB107_3
LBB107_2:
	.loc	39 0 24 is_stmt 0
	movq	-304(%rbp), %rax
	.loc	39 134 33 is_stmt 1
	movq	(%rax), %rax
	movq	%rax, -176(%rbp)
Ltmp766:
	.loc	5 53 36
	movq	%rax, -272(%rbp)
	.loc	5 53 18 is_stmt 0
	movq	-272(%rbp), %rax
	movq	%rax, -168(%rbp)
Ltmp767:
	.loc	5 39 13 is_stmt 1
	movq	%rax, -160(%rbp)
Ltmp768:
	.loc	5 209 33
	movq	%rax, -152(%rbp)
	.loc	5 209 18 is_stmt 0
	movq	%rax, -144(%rbp)
Ltmp769:
	.loc	39 133 21 is_stmt 1
	jmp	LBB107_1
LBB107_3:
	.loc	39 0 21 is_stmt 0
	movq	-304(%rbp), %rax
	.loc	39 139 30 is_stmt 1
	movq	%rax, -128(%rbp)
Ltmp770:
	.loc	39 76 20
	xorl	%eax, %eax
	testb	$1, %al
	jne	LBB107_6
	jmp	LBB107_7
Ltmp771:
LBB107_4:
	.loc	39 137 25
	movq	$0, -296(%rbp)
LBB107_5:
	.loc	39 142 14
	movq	-296(%rbp), %rax
	addq	$304, %rsp
	popq	%rbp
	retq
LBB107_6:
	.loc	39 0 14 is_stmt 0
	movq	-304(%rbp), %rax
Ltmp772:
	.loc	39 57 29 is_stmt 1
	movq	(%rax), %rcx
	movq	%rcx, -64(%rbp)
Ltmp773:
	.loc	5 1198 9
	movq	%rcx, -56(%rbp)
Ltmp774:
	.loc	5 61 9
	movq	%rcx, -48(%rbp)
Ltmp775:
	.loc	5 1180 9
	movq	%rcx, -40(%rbp)
Ltmp776:
	.loc	5 555 18
	addq	$-1, %rcx
	movq	%rcx, -32(%rbp)
	movq	-32(%rbp), %rcx
	movq	%rcx, -24(%rbp)
Ltmp777:
	.loc	5 100 29
	movq	%rcx, -16(%rbp)
Ltmp778:
	.loc	7 118 36
	movq	%rcx, -248(%rbp)
	.loc	7 118 14 is_stmt 0
	movq	-248(%rbp), %rcx
	movq	%rcx, -256(%rbp)
	movq	-256(%rbp), %rcx
Ltmp779:
	.loc	39 57 17 is_stmt 1
	movq	%rcx, (%rax)
	.loc	39 78 21
	movq	8(%rax), %rax
	movq	%rax, -8(%rbp)
	movq	%rax, -288(%rbp)
	.loc	39 76 17
	jmp	LBB107_8
LBB107_7:
	.loc	39 0 17 is_stmt 0
	movq	-304(%rbp), %rcx
	.loc	39 80 31 is_stmt 1
	movq	8(%rcx), %rax
	movq	%rax, -120(%rbp)
Ltmp780:
	.loc	38 326 9
	movq	%rax, -112(%rbp)
Ltmp781:
	.loc	39 83 64
	movq	8(%rcx), %rdx
	movq	%rdx, -104(%rbp)
Ltmp782:
	.loc	38 326 9
	movq	%rdx, -96(%rbp)
Ltmp783:
	.loc	40 1034 18
	movq	%rdx, -88(%rbp)
Ltmp784:
	.loc	40 487 18
	addq	$1, %rdx
	movq	%rdx, -80(%rbp)
	movq	-80(%rbp), %rdx
	movq	%rdx, -72(%rbp)
Ltmp785:
	.loc	38 201 13
	movq	%rdx, -264(%rbp)
Ltmp786:
	.loc	39 83 21
	movq	-264(%rbp), %rdx
	movq	%rdx, 8(%rcx)
	.loc	39 84 21
	movq	%rax, -288(%rbp)
Ltmp787:
LBB107_8:
	.loc	39 139 30
	movq	-288(%rbp), %rax
	.loc	39 139 25 is_stmt 0
	movq	%rax, -296(%rbp)
	.loc	39 136 21 is_stmt 1
	jmp	LBB107_5
Ltmp788:
Lfunc_end107:
	.cfi_endproc

	.globl	__ZN91_$LT$core..slice..iter..Iter$LT$T$GT$$u20$as$u20$core..iter..traits..iterator..Iterator$GT$9size_hint17hb89d43f2ed9eb184E
	.p2align	4, 0x90
__ZN91_$LT$core..slice..iter..Iter$LT$T$GT$$u20$as$u20$core..iter..traits..iterator..Iterator$GT$9size_hint17hb89d43f2ed9eb184E:
Lfunc_begin108:
	.loc	39 145 0
	.cfi_startproc
	pushq	%rbp
	.cfi_def_cfa_offset 16
	.cfi_offset %rbp, -16
	movq	%rsp, %rbp
	.cfi_def_cfa_register %rbp
	subq	$160, %rsp
	movq	%rsi, -152(%rbp)
	movq	%rdi, -144(%rbp)
	movq	%rdi, -136(%rbp)
	movq	%rsi, -96(%rbp)
Ltmp789:
	.loc	39 146 29 prologue_end
	movq	8(%rsi), %rax
	movq	%rax, -128(%rbp)
	movq	%rax, -88(%rbp)
Ltmp790:
	.loc	39 146 29 is_stmt 0
	xorl	%eax, %eax
	testb	$1, %al
	jne	LBB108_2
	.loc	39 0 29
	movq	-128(%rbp), %rsi
	movq	-152(%rbp), %rax
	.loc	39 146 29
	movq	(%rax), %rdi
	movq	%rsi, -8(%rbp)
	callq	__ZN4core3ptr9const_ptr33_$LT$impl$u20$$BP$const$u20$T$GT$7sub_ptr17ha09c46ab572fce32E
	movq	%rax, -120(%rbp)
	jmp	LBB108_3
LBB108_2:
	.loc	39 0 29
	movq	-128(%rbp), %rcx
	movq	-152(%rbp), %rax
	.loc	39 146 29
	movq	(%rax), %rax
	movq	%rax, -80(%rbp)
Ltmp791:
	.loc	5 209 33 is_stmt 1
	movq	%rax, -72(%rbp)
	.loc	5 209 18 is_stmt 0
	movq	%rax, -64(%rbp)
	movq	-64(%rbp), %rax
	movq	%rax, -56(%rbp)
Ltmp792:
	.loc	39 146 29 is_stmt 1
	movq	%rcx, -48(%rbp)
Ltmp793:
	.loc	38 326 9
	movq	%rcx, -40(%rbp)
Ltmp794:
	.loc	40 215 33
	movq	%rcx, -32(%rbp)
	.loc	40 215 18 is_stmt 0
	movq	%rcx, -24(%rbp)
	movq	-24(%rbp), %rcx
	movq	%rcx, -16(%rbp)
Ltmp795:
	.loc	15 1203 13 is_stmt 1
	subq	%rcx, %rax
	movq	%rax, -120(%rbp)
Ltmp796:
LBB108_3:
	.loc	15 0 13 is_stmt 0
	movq	-136(%rbp), %rax
	movq	-144(%rbp), %rcx
Ltmp797:
	.loc	39 147 18 is_stmt 1
	movq	-120(%rbp), %rdx
	.loc	39 147 30 is_stmt 0
	movq	-120(%rbp), %rsi
	.loc	39 147 25
	movq	%rsi, -104(%rbp)
	movq	$1, -112(%rbp)
	.loc	39 147 17
	movq	%rdx, (%rcx)
	movq	-112(%rbp), %rsi
	movq	-104(%rbp), %rdx
	movq	%rsi, 8(%rcx)
	movq	%rdx, 16(%rcx)
Ltmp798:
	.loc	39 148 14 is_stmt 1
	addq	$160, %rsp
	popq	%rbp
	retq
Ltmp799:
Lfunc_end108:
	.cfi_endproc

	.globl	__ZN95_$LT$core..ops..control_flow..ControlFlow$LT$B$C$C$GT$$u20$as$u20$core..ops..try_trait..Try$GT$11from_output17h733ec92eaed7ae71E
	.p2align	4, 0x90
__ZN95_$LT$core..ops..control_flow..ControlFlow$LT$B$C$C$GT$$u20$as$u20$core..ops..try_trait..Try$GT$11from_output17h733ec92eaed7ae71E:
Lfunc_begin109:
	.loc	3 106 0
	.cfi_startproc
	pushq	%rbp
	.cfi_def_cfa_offset 16
	.cfi_offset %rbp, -16
	movq	%rsp, %rbp
	.cfi_def_cfa_register %rbp
	subq	$16, %rsp
Ltmp800:
	.loc	3 107 9 prologue_end
	movb	$0, -9(%rbp)
	.loc	3 108 6
	movb	-9(%rbp), %al
	andb	$1, %al
	movzbl	%al, %eax
	addq	$16, %rsp
	popq	%rbp
	retq
Ltmp801:
Lfunc_end109:
	.cfi_endproc

	.globl	__ZN95_$LT$core..ops..control_flow..ControlFlow$LT$B$C$C$GT$$u20$as$u20$core..ops..try_trait..Try$GT$6branch17haf4b7ccf5d1d0a95E
	.p2align	4, 0x90
__ZN95_$LT$core..ops..control_flow..ControlFlow$LT$B$C$C$GT$$u20$as$u20$core..ops..try_trait..Try$GT$6branch17haf4b7ccf5d1d0a95E:
Lfunc_begin110:
	.loc	3 111 0
	.cfi_startproc
	pushq	%rbp
	.cfi_def_cfa_offset 16
	.cfi_offset %rbp, -16
	movq	%rsp, %rbp
	.cfi_def_cfa_register %rbp
	subq	$32, %rsp
	movb	%dil, %al
	andb	$1, %al
	movb	%al, -26(%rbp)
Ltmp802:
	.loc	3 112 15 prologue_end
	movb	-26(%rbp), %al
	andb	$1, %al
	movzbl	%al, %eax
	.loc	3 112 9 is_stmt 0
	cmpq	$0, %rax
	jne	LBB110_2
Ltmp803:
	.loc	3 113 41 is_stmt 1
	movb	$0, -25(%rbp)
Ltmp804:
	.loc	3 113 64 is_stmt 0
	jmp	LBB110_3
LBB110_2:
Ltmp805:
	.loc	3 114 38 is_stmt 1
	movb	$1, -25(%rbp)
Ltmp806:
LBB110_3:
	.loc	3 116 6
	movb	-25(%rbp), %al
	andb	$1, %al
	movzbl	%al, %eax
	addq	$32, %rsp
	popq	%rbp
	retq
Ltmp807:
Lfunc_end110:
	.cfi_endproc

	.globl	__ZN10num_traits5float18integer_decode_f3217h4fd94ad704d48a11E
	.p2align	4, 0x90
__ZN10num_traits5float18integer_decode_f3217h4fd94ad704d48a11E:
Lfunc_begin111:
	.file	47 "/Users/natalie/.cargo/registry/src/github.com-1ecc6299db9ec823/num-traits-0.2.15" "src/float.rs"
	.loc	47 2027 0
	.cfi_startproc
	pushq	%rbp
	.cfi_def_cfa_offset 16
	.cfi_offset %rbp, -16
	movq	%rsp, %rbp
	.cfi_def_cfa_register %rbp
	subq	$48, %rsp
	movq	%rdi, -40(%rbp)
	movq	%rdi, -32(%rbp)
	movss	%xmm0, -12(%rbp)
Ltmp808:
	.loc	47 2030 30 prologue_end
	movd	%xmm0, %eax
	movl	%eax, -8(%rbp)
	movl	-8(%rbp), %eax
	movl	%eax, -24(%rbp)
	movl	%eax, -4(%rbp)
Ltmp809:
	.loc	47 2031 23
	shrl	$31, %eax
	cmpl	$0, %eax
	jne	LBB111_2
	.loc	47 2031 41 is_stmt 0
	movb	$1, -19(%rbp)
	.loc	47 2031 20
	jmp	LBB111_3
LBB111_2:
	.loc	47 2031 52
	movb	$-1, -19(%rbp)
LBB111_3:
	.loc	47 0 52
	movl	-24(%rbp), %eax
Ltmp810:
	.loc	47 2032 30 is_stmt 1
	shrl	$23, %eax
	.loc	47 2032 29 is_stmt 0
	andl	$255, %eax
	movw	%ax, -18(%rbp)
Ltmp811:
	.loc	47 2033 23 is_stmt 1
	cmpw	$0, -18(%rbp)
	jne	LBB111_5
	.loc	47 0 23 is_stmt 0
	movl	-24(%rbp), %eax
	.loc	47 2034 9 is_stmt 1
	andl	$8388607, %eax
	shll	$1, %eax
	movl	%eax, -16(%rbp)
	.loc	47 2033 20
	jmp	LBB111_6
LBB111_5:
	.loc	47 0 20 is_stmt 0
	movl	-24(%rbp), %eax
	.loc	47 2036 9 is_stmt 1
	andl	$8388607, %eax
	orl	$8388608, %eax
	movl	%eax, -16(%rbp)
LBB111_6:
Ltmp812:
	.loc	47 2039 5
	movw	-18(%rbp), %ax
	subw	$150, %ax
	movw	%ax, -42(%rbp)
	seto	%al
	testb	$1, %al
	jne	LBB111_8
	.loc	47 0 5 is_stmt 0
	movq	-32(%rbp), %rax
	movq	-40(%rbp), %rcx
	movw	-42(%rbp), %dx
	.loc	47 2039 5
	movw	%dx, -18(%rbp)
	.loc	47 2040 6 is_stmt 1
	movl	-16(%rbp), %edx
	movl	%edx, %edi
	.loc	47 2040 23 is_stmt 0
	movw	-18(%rbp), %si
	.loc	47 2040 33
	movb	-19(%rbp), %dl
	.loc	47 2040 5
	movq	%rdi, (%rcx)
	movw	%si, 8(%rcx)
	movb	%dl, 10(%rcx)
Ltmp813:
	.loc	47 2041 2 is_stmt 1
	addq	$48, %rsp
	popq	%rbp
	retq
LBB111_8:
Ltmp814:
	.loc	47 2039 5
	leaq	_str.1(%rip), %rdi
	leaq	l___unnamed_21(%rip), %rdx
	movl	$33, %esi
	callq	__ZN4core9panicking5panic17hc1bc45270cf64b03E
Ltmp815:
Lfunc_end111:
	.cfi_endproc

	.globl	__ZN10num_traits5float18integer_decode_f6417h73306ae95ffc02ddE
	.p2align	4, 0x90
__ZN10num_traits5float18integer_decode_f6417h73306ae95ffc02ddE:
Lfunc_begin112:
	.loc	47 2043 0
	.cfi_startproc
	pushq	%rbp
	.cfi_def_cfa_offset 16
	.cfi_offset %rbp, -16
	movq	%rsp, %rbp
	.cfi_def_cfa_register %rbp
	subq	$80, %rsp
	movq	%rdi, -64(%rbp)
	movq	%rdi, -56(%rbp)
	movsd	%xmm0, -24(%rbp)
Ltmp816:
	.loc	47 2046 30 prologue_end
	movq	%xmm0, %rax
	movq	%rax, -16(%rbp)
	movq	-16(%rbp), %rax
	movq	%rax, -48(%rbp)
	movq	%rax, -8(%rbp)
Ltmp817:
	.loc	47 2047 23
	shrq	$63, %rax
	cmpq	$0, %rax
	jne	LBB112_2
	.loc	47 2047 41 is_stmt 0
	movb	$1, -35(%rbp)
	.loc	47 2047 20
	jmp	LBB112_3
LBB112_2:
	.loc	47 2047 52
	movb	$-1, -35(%rbp)
LBB112_3:
	.loc	47 0 52
	movq	-48(%rbp), %rax
Ltmp818:
	.loc	47 2048 30 is_stmt 1
	shrq	$52, %rax
	.loc	47 2048 29 is_stmt 0
	andq	$2047, %rax
	movw	%ax, -34(%rbp)
Ltmp819:
	.loc	47 2049 23 is_stmt 1
	cmpw	$0, -34(%rbp)
	jne	LBB112_5
	.loc	47 0 23 is_stmt 0
	movq	-48(%rbp), %rax
	.loc	47 2050 9 is_stmt 1
	movabsq	$4503599627370495, %rcx
	andq	%rcx, %rax
	shlq	$1, %rax
	movq	%rax, -32(%rbp)
	.loc	47 2049 20
	jmp	LBB112_6
LBB112_5:
	.loc	47 0 20 is_stmt 0
	movq	-48(%rbp), %rax
	.loc	47 2052 9 is_stmt 1
	movabsq	$4503599627370495, %rcx
	andq	%rcx, %rax
	movabsq	$4503599627370496, %rcx
	orq	%rcx, %rax
	movq	%rax, -32(%rbp)
LBB112_6:
Ltmp820:
	.loc	47 2055 5
	movw	-34(%rbp), %ax
	subw	$1075, %ax
	movw	%ax, -66(%rbp)
	seto	%al
	testb	$1, %al
	jne	LBB112_8
	.loc	47 0 5 is_stmt 0
	movq	-56(%rbp), %rax
	movq	-64(%rbp), %rcx
	movw	-66(%rbp), %dx
	.loc	47 2055 5
	movw	%dx, -34(%rbp)
	.loc	47 2056 6 is_stmt 1
	movq	-32(%rbp), %rdi
	.loc	47 2056 16 is_stmt 0
	movw	-34(%rbp), %si
	.loc	47 2056 26
	movb	-35(%rbp), %dl
	.loc	47 2056 5
	movq	%rdi, (%rcx)
	movw	%si, 8(%rcx)
	movb	%dl, 10(%rcx)
Ltmp821:
	.loc	47 2057 2 is_stmt 1
	addq	$80, %rsp
	popq	%rbp
	retq
LBB112_8:
Ltmp822:
	.loc	47 2055 5
	leaq	_str.1(%rip), %rdi
	leaq	l___unnamed_22(%rip), %rdx
	movl	$33, %esi
	callq	__ZN4core9panicking5panic17hc1bc45270cf64b03E
Ltmp823:
Lfunc_end112:
	.cfi_endproc

	.globl	__ZN66_$LT$num_traits..ParseFloatError$u20$as$u20$core..fmt..Display$GT$3fmt17h2ac131674de2405bE
	.p2align	4, 0x90
__ZN66_$LT$num_traits..ParseFloatError$u20$as$u20$core..fmt..Display$GT$3fmt17h2ac131674de2405bE:
Lfunc_begin113:
	.loc	19 202 0
	.cfi_startproc
	pushq	%rbp
	.cfi_def_cfa_offset 16
	.cfi_offset %rbp, -16
	movq	%rsp, %rbp
	.cfi_def_cfa_register %rbp
	subq	$48, %rsp
	movq	%rsi, -40(%rbp)
	movq	%rdi, -16(%rbp)
	movq	%rsi, -8(%rbp)
Ltmp824:
	.loc	19 203 33 prologue_end
	movb	(%rdi), %al
	andb	$1, %al
	movzbl	%al, %eax
	.loc	19 203 27 is_stmt 0
	cmpq	$0, %rax
	jne	LBB113_2
	.loc	19 204 38 is_stmt 1
	leaq	l___unnamed_23(%rip), %rax
	movq	%rax, -32(%rbp)
	movq	$36, -24(%rbp)
	jmp	LBB113_3
LBB113_2:
	.loc	19 205 40
	leaq	l___unnamed_24(%rip), %rax
	movq	%rax, -32(%rbp)
	movq	$21, -24(%rbp)
LBB113_3:
	.loc	19 0 40 is_stmt 0
	movq	-40(%rbp), %rdx
Ltmp825:
	.loc	19 208 9 is_stmt 1
	movq	-32(%rbp), %rdi
	movq	-24(%rbp), %rsi
	callq	__ZN42_$LT$str$u20$as$u20$core..fmt..Display$GT$3fmt17hd1cabce055ea2fbdE
Ltmp826:
	.loc	19 209 6
	andb	$1, %al
	movzbl	%al, %eax
	addq	$48, %rsp
	popq	%rbp
	retq
Ltmp827:
Lfunc_end113:
	.cfi_endproc

	.p2align	4, 0x90
__ZN10num_traits25str_to_ascii_lower_eq_str17h157087025090e99aE:
Lfunc_begin114:
	.loc	19 212 0
	.cfi_startproc
	pushq	%rbp
	.cfi_def_cfa_offset 16
	.cfi_offset %rbp, -16
	movq	%rsp, %rbp
	.cfi_def_cfa_register %rbp
	subq	$160, %rsp
	movq	%rdi, -136(%rbp)
	movq	%rsi, -128(%rbp)
	movq	%rdx, -120(%rbp)
	movq	%rcx, -112(%rbp)
	movq	%rdi, -32(%rbp)
	movq	%rsi, -24(%rbp)
	movq	%rdx, -16(%rbp)
	movq	%rcx, -8(%rbp)
Ltmp828:
	.loc	19 213 5 prologue_end
	callq	__ZN4core3str21_$LT$impl$u20$str$GT$3len17h4cbdbaf2157dd262E
	movq	-120(%rbp), %rdi
	movq	-112(%rbp), %rsi
	movq	%rax, -104(%rbp)
	.loc	19 213 16 is_stmt 0
	callq	__ZN4core3str21_$LT$impl$u20$str$GT$3len17h4cbdbaf2157dd262E
	movq	%rax, %rcx
	movq	-104(%rbp), %rax
	.loc	19 213 5
	cmpq	%rcx, %rax
	je	LBB114_2
	movb	$0, -89(%rbp)
	jmp	LBB114_3
LBB114_2:
	.loc	19 0 5
	movq	-128(%rbp), %rsi
	movq	-136(%rbp), %rdi
	.loc	19 214 12 is_stmt 1
	callq	__ZN4core3str21_$LT$impl$u20$str$GT$5bytes17hd2de380915f2dedbE
	movq	-120(%rbp), %rdi
	movq	-112(%rbp), %rsi
	movq	%rax, -152(%rbp)
	movq	%rdx, -144(%rbp)
	.loc	19 214 26 is_stmt 0
	callq	__ZN4core3str21_$LT$impl$u20$str$GT$5bytes17hd2de380915f2dedbE
	movq	-152(%rbp), %rsi
	movq	%rax, %rcx
	movq	%rdx, %r8
	movq	-144(%rbp), %rdx
	.loc	19 214 12
	leaq	-88(%rbp), %rdi
	callq	__ZN4core4iter6traits8iterator8Iterator3zip17h94879d696917ea51E
	leaq	-88(%rbp), %rdi
	callq	__ZN4core4iter6traits8iterator8Iterator3all17hf1cddd013030708cE
	.loc	19 213 5 is_stmt 1
	andb	$1, %al
	movb	%al, -89(%rbp)
LBB114_3:
	.loc	19 218 2
	movb	-89(%rbp), %al
	andb	$1, %al
	movzbl	%al, %eax
	addq	$160, %rsp
	popq	%rbp
	retq
Ltmp829:
Lfunc_end114:
	.cfi_endproc

	.p2align	4, 0x90
__ZN10num_traits25str_to_ascii_lower_eq_str28_$u7b$$u7b$closure$u7d$$u7d$17h917520ab0926fa5bE:
Lfunc_begin115:
	.loc	19 214 0
	.cfi_startproc
	pushq	%rbp
	.cfi_def_cfa_offset 16
	.cfi_offset %rbp, -16
	movq	%rsp, %rbp
	.cfi_def_cfa_register %rbp
	subq	$24, %rsp
	movb	%dl, %al
	movb	%al, -19(%rbp)
	movb	%sil, %cl
	movb	%cl, -18(%rbp)
	movq	%rdi, -16(%rbp)
	movb	%cl, -8(%rbp)
	movb	%al, -7(%rbp)
Ltmp830:
	.loc	19 214 43 prologue_end
	movb	%cl, -3(%rbp)
	.loc	19 214 46 is_stmt 0
	movb	%al, -2(%rbp)
Ltmp831:
	.loc	19 215 42 is_stmt 1
	movb	$65, %al
	.loc	19 215 43 is_stmt 0
	cmpb	%cl, %al
	.loc	19 215 42
	jbe	LBB115_2
	movb	$0, -17(%rbp)
	jmp	LBB115_3
LBB115_2:
	.loc	19 0 42
	movb	-18(%rbp), %al
	.loc	19 215 56
	cmpb	$90, %al
	setbe	%al
	.loc	19 215 42
	andb	$1, %al
	movb	%al, -17(%rbp)
LBB115_3:
	.loc	19 0 42
	movb	-19(%rbp), %cl
	movb	-18(%rbp), %al
	.loc	19 215 41
	movb	-17(%rbp), %dl
	andb	$1, %dl
	.loc	19 215 40
	shlb	$5, %dl
	.loc	19 215 36
	orb	%dl, %al
	movb	%al, -1(%rbp)
Ltmp832:
	.loc	19 216 13 is_stmt 1
	cmpb	%cl, %al
	sete	%al
Ltmp833:
	.loc	19 217 10
	andb	$1, %al
	movzbl	%al, %eax
	addq	$24, %rsp
	popq	%rbp
	retq
Ltmp834:
Lfunc_end115:
	.cfi_endproc

	.p2align	4, 0x90
__ZN48_$LT$f32$u20$as$u20$num_traits..float..Float$GT$4powi17h91b9945fa9a2e1f7E:
Lfunc_begin116:
	.file	48 "/Users/natalie/.cargo/registry/src/github.com-1ecc6299db9ec823/num-traits-0.2.15" "src/macros.rs"
	.loc	48 9 0
	.cfi_startproc
	pushq	%rbp
	.cfi_def_cfa_offset 16
	.cfi_offset %rbp, -16
	movq	%rsp, %rbp
	.cfi_def_cfa_register %rbp
	subq	$16, %rsp
	movss	%xmm0, -8(%rbp)
	movl	%edi, -4(%rbp)
Ltmp835:
	.loc	48 10 17 prologue_end
	callq	__ZN3std3f3221_$LT$impl$u20$f32$GT$4powi17h199609770a38b073E
	.loc	48 11 14
	addq	$16, %rsp
	popq	%rbp
	retq
Ltmp836:
Lfunc_end116:
	.cfi_endproc

	.p2align	4, 0x90
__ZN48_$LT$f64$u20$as$u20$num_traits..float..Float$GT$4powi17h7e6b8028568f3295E:
Lfunc_begin117:
	.loc	48 9 0
	.cfi_startproc
	pushq	%rbp
	.cfi_def_cfa_offset 16
	.cfi_offset %rbp, -16
	movq	%rsp, %rbp
	.cfi_def_cfa_register %rbp
	subq	$16, %rsp
	movsd	%xmm0, -16(%rbp)
	movl	%edi, -4(%rbp)
Ltmp837:
	.loc	48 10 17 prologue_end
	callq	__ZN3std3f6421_$LT$impl$u20$f64$GT$4powi17hef87058c4971cf2bE
	.loc	48 11 14
	addq	$16, %rsp
	popq	%rbp
	retq
Ltmp838:
Lfunc_end117:
	.cfi_endproc

	.globl	__ZN63_$LT$num_traits..FloatErrorKind$u20$as$u20$core..fmt..Debug$GT$3fmt17h03b59766380c873fE
	.p2align	4, 0x90
__ZN63_$LT$num_traits..FloatErrorKind$u20$as$u20$core..fmt..Debug$GT$3fmt17h03b59766380c873fE:
Lfunc_begin118:
	.loc	19 189 0
	.cfi_startproc
	pushq	%rbp
	.cfi_def_cfa_offset 16
	.cfi_offset %rbp, -16
	movq	%rsp, %rbp
	.cfi_def_cfa_register %rbp
	subq	$48, %rsp
	movq	%rsi, -40(%rbp)
	movq	%rdi, -16(%rbp)
	movq	%rsi, -8(%rbp)
Ltmp839:
	.loc	19 189 10 prologue_end
	movb	(%rdi), %al
	andb	$1, %al
	movzbl	%al, %eax
	cmpq	$0, %rax
	jne	LBB118_2
	leaq	l___unnamed_25(%rip), %rax
	movq	%rax, -32(%rbp)
	movq	$5, -24(%rbp)
	.loc	19 189 14 is_stmt 0
	jmp	LBB118_3
LBB118_2:
	.loc	19 189 10
	leaq	l___unnamed_26(%rip), %rax
	movq	%rax, -32(%rbp)
	movq	$7, -24(%rbp)
LBB118_3:
	.loc	19 0 10
	movq	-40(%rbp), %rdi
	.loc	19 189 10
	movq	-32(%rbp), %rsi
	movq	-24(%rbp), %rdx
	callq	__ZN4core3fmt9Formatter9write_str17hb029d9999327a35fE
	.loc	19 189 15
	andb	$1, %al
	movzbl	%al, %eax
	addq	$48, %rsp
	popq	%rbp
	retq
Ltmp840:
Lfunc_end118:
	.cfi_endproc

	.globl	__ZN64_$LT$num_traits..ParseFloatError$u20$as$u20$core..fmt..Debug$GT$3fmt17hc3462ceda720b578E
	.p2align	4, 0x90
__ZN64_$LT$num_traits..ParseFloatError$u20$as$u20$core..fmt..Debug$GT$3fmt17hc3462ceda720b578E:
Lfunc_begin119:
	.loc	19 196 0 is_stmt 1
	.cfi_startproc
	pushq	%rbp
	.cfi_def_cfa_offset 16
	.cfi_offset %rbp, -16
	movq	%rsp, %rbp
	.cfi_def_cfa_register %rbp
	subq	$48, %rsp
	movq	%rsi, -32(%rbp)
	movq	%rdi, %rax
	movq	-32(%rbp), %rdi
	movq	%rax, -16(%rbp)
	movq	%rdi, -8(%rbp)
Ltmp841:
	.loc	19 198 5 prologue_end
	movq	%rax, -24(%rbp)
	.loc	19 196 10
	leaq	l___unnamed_27(%rip), %rsi
	movl	$15, %edx
	leaq	L___unnamed_28(%rip), %rcx
	movl	$4, %r8d
	leaq	-24(%rbp), %r9
	leaq	l___unnamed_1(%rip), %rax
	movq	%rax, (%rsp)
	callq	__ZN4core3fmt9Formatter26debug_struct_field1_finish17ha7aba2fd90afbefeE
	.loc	19 196 15 is_stmt 0
	andb	$1, %al
	movzbl	%al, %eax
	addq	$48, %rsp
	popq	%rbp
	retq
Ltmp842:
Lfunc_end119:
	.cfi_endproc

	.section	__TEXT,__literal4,4byte_literals
	.p2align	2
LCPI120_0:
	.long	0x80000000
LCPI120_1:
	.long	0xff800000
LCPI120_2:
	.long	0x7f800000
LCPI120_3:
	.long	0x3f800000
LCPI120_4:
	.long	0x40000000
LCPI120_5:
	.long	0x41200000
LCPI120_6:
	.long	0xffc00000
LCPI120_7:
	.long	0x7fc00000
	.section	__TEXT,__text,regular,pure_instructions
	.globl	__ZN39_$LT$f32$u20$as$u20$num_traits..Num$GT$14from_str_radix17hcca26d9b2cb49facE
	.p2align	4, 0x90
__ZN39_$LT$f32$u20$as$u20$num_traits..Num$GT$14from_str_radix17hcca26d9b2cb49facE:
Lfunc_begin120:
	.loc	19 228 0 is_stmt 1
	.cfi_startproc
	pushq	%rbp
	.cfi_def_cfa_offset 16
	.cfi_offset %rbp, -16
	movq	%rsp, %rbp
	.cfi_def_cfa_register %rbp
	subq	$784, %rsp
	movl	%edx, -652(%rbp)
	movq	%rdi, -648(%rbp)
	movq	%rsi, -640(%rbp)
	movl	%edx, -180(%rbp)
Ltmp843:
	.loc	19 235 20 prologue_end
	cmpl	$10, %edx
	jne	LBB120_2
	.loc	19 236 28
	movq	-648(%rbp), %rdi
	movq	-640(%rbp), %rsi
	callq	__ZN4core3str21_$LT$impl$u20$str$GT$5parse17hae8742d1a125c5a8E
	movq	%rax, -16(%rbp)
	movq	-16(%rbp), %rax
	movq	%rax, -624(%rbp)
	.loc	19 236 48 is_stmt 0
	leaq	-648(%rbp), %rax
	movq	%rax, -616(%rbp)
	.loc	19 236 28
	movq	-624(%rbp), %rdi
	movq	-616(%rbp), %rsi
	callq	__ZN4core6result19Result$LT$T$C$E$GT$7map_err17h8b138a3d4a8ecc15E
	movq	%rax, -8(%rbp)
	movq	-8(%rbp), %rax
	movq	%rax, -632(%rbp)
	jmp	LBB120_8
LBB120_2:
	.loc	19 242 46 is_stmt 1
	movq	-648(%rbp), %rdi
	movq	-640(%rbp), %rsi
	.loc	19 242 20 is_stmt 0
	leaq	l___unnamed_9(%rip), %rdx
	movl	$3, %ecx
	callq	__ZN10num_traits25str_to_ascii_lower_eq_str17h157087025090e99aE
	testb	$1, %al
	jne	LBB120_4
	.loc	19 243 50 is_stmt 1
	movq	-648(%rbp), %rdi
	movq	-640(%rbp), %rsi
	.loc	19 243 24 is_stmt 0
	leaq	L___unnamed_29(%rip), %rdx
	movl	$8, %ecx
	callq	__ZN10num_traits25str_to_ascii_lower_eq_str17h157087025090e99aE
	.loc	19 242 20 is_stmt 1
	andb	$1, %al
	movb	%al, -602(%rbp)
	jmp	LBB120_5
LBB120_4:
	movb	$1, -602(%rbp)
LBB120_5:
	testb	$1, -602(%rbp)
	jne	LBB120_7
	.loc	19 246 53
	movq	-648(%rbp), %rdi
	movq	-640(%rbp), %rsi
	.loc	19 246 27 is_stmt 0
	leaq	L___unnamed_30(%rip), %rdx
	movl	$4, %ecx
	callq	__ZN10num_traits25str_to_ascii_lower_eq_str17h157087025090e99aE
	testb	$1, %al
	jne	LBB120_10
	jmp	LBB120_9
LBB120_7:
	.loc	19 245 28 is_stmt 1
	movss	LCPI120_2(%rip), %xmm0
	movss	%xmm0, -628(%rbp)
	movb	$0, -632(%rbp)
LBB120_8:
	.loc	19 394 14
	movq	-632(%rbp), %rax
	addq	$784, %rsp
	popq	%rbp
	retq
LBB120_9:
	.loc	19 247 50
	movq	-648(%rbp), %rdi
	movq	-640(%rbp), %rsi
	.loc	19 247 24 is_stmt 0
	leaq	l___unnamed_31(%rip), %rdx
	movl	$9, %ecx
	callq	__ZN10num_traits25str_to_ascii_lower_eq_str17h157087025090e99aE
	.loc	19 246 27 is_stmt 1
	andb	$1, %al
	movb	%al, -601(%rbp)
	jmp	LBB120_11
LBB120_10:
	movb	$1, -601(%rbp)
LBB120_11:
	testb	$1, -601(%rbp)
	jne	LBB120_13
	.loc	19 250 53
	movq	-648(%rbp), %rdi
	movq	-640(%rbp), %rsi
	.loc	19 250 27 is_stmt 0
	leaq	l___unnamed_8(%rip), %rdx
	movl	$3, %ecx
	callq	__ZN10num_traits25str_to_ascii_lower_eq_str17h157087025090e99aE
	testb	$1, %al
	jne	LBB120_15
	jmp	LBB120_14
LBB120_13:
	.loc	19 249 28 is_stmt 1
	movss	LCPI120_1(%rip), %xmm0
	movss	%xmm0, -628(%rbp)
	movb	$0, -632(%rbp)
	.loc	19 249 21 is_stmt 0
	jmp	LBB120_8
LBB120_14:
	.loc	19 252 53 is_stmt 1
	movq	-648(%rbp), %rdi
	movq	-640(%rbp), %rsi
	.loc	19 252 27 is_stmt 0
	leaq	L___unnamed_32(%rip), %rdx
	movl	$4, %ecx
	callq	__ZN10num_traits25str_to_ascii_lower_eq_str17h157087025090e99aE
	testb	$1, %al
	jne	LBB120_17
	jmp	LBB120_16
LBB120_15:
	.loc	19 251 28 is_stmt 1
	movss	LCPI120_7(%rip), %xmm0
	movss	%xmm0, -628(%rbp)
	movb	$0, -632(%rbp)
	.loc	19 251 21 is_stmt 0
	jmp	LBB120_8
LBB120_16:
	.loc	19 265 66 is_stmt 1
	movq	-648(%rbp), %rsi
	movq	-640(%rbp), %rdx
	.loc	19 265 49 is_stmt 0
	leaq	-576(%rbp), %rdi
	callq	__ZN39_$LT$f32$u20$as$u20$num_traits..Num$GT$14from_str_radix16slice_shift_char17h1869483b54182a86E
	movl	$1, %eax
	xorl	%ecx, %ecx
	cmpl	$1114112, -576(%rbp)
	cmoveq	%rcx, %rax
	.loc	19 265 43
	cmpq	$0, %rax
	je	LBB120_18
	jmp	LBB120_19
LBB120_17:
	.loc	19 253 28 is_stmt 1
	movss	LCPI120_6(%rip), %xmm0
	movss	%xmm0, -628(%rbp)
	movb	$0, -632(%rbp)
	.loc	19 1 1
	jmp	LBB120_8
LBB120_18:
	.loc	19 266 48
	movb	$0, -631(%rbp)
	movb	$1, -632(%rbp)
	.loc	19 266 41 is_stmt 0
	jmp	LBB120_8
LBB120_19:
	.loc	19 265 43 is_stmt 1
	cmpl	$45, -576(%rbp)
	jne	LBB120_21
	.loc	19 267 32
	movq	-568(%rbp), %rdi
	movq	-560(%rbp), %rsi
	leaq	l___unnamed_4(%rip), %rdx
	xorl	%eax, %eax
	movl	%eax, %ecx
	callq	__ZN4core3str6traits54_$LT$impl$u20$core..cmp..PartialEq$u20$for$u20$str$GT$2eq17hcfc59abb294dea3cE
	testb	$1, %al
	jne	LBB120_24
	jmp	LBB120_23
LBB120_21:
	.loc	19 269 49
	movq	-648(%rbp), %rcx
	movq	-640(%rbp), %rax
	.loc	19 269 41 is_stmt 0
	movb	$1, -600(%rbp)
	movq	%rcx, -592(%rbp)
	movq	%rax, -584(%rbp)
LBB120_22:
	.loc	19 265 22 is_stmt 1
	movb	-600(%rbp), %al
	movb	%al, -673(%rbp)
	movb	%al, %cl
	andb	$1, %cl
	movb	%cl, -153(%rbp)
	.loc	19 265 35 is_stmt 0
	movq	-592(%rbp), %rdx
	movq	%rdx, -672(%rbp)
	movq	-584(%rbp), %rcx
	movq	%rcx, -664(%rbp)
	movq	%rdx, -152(%rbp)
	movq	%rcx, -144(%rbp)
Ltmp844:
	.loc	19 273 34 is_stmt 1
	testb	$1, %al
	jne	LBB120_26
	jmp	LBB120_25
Ltmp845:
LBB120_23:
	.loc	19 268 32
	movq	-568(%rbp), %rcx
	movq	-560(%rbp), %rax
	movq	%rcx, -176(%rbp)
	movq	%rax, -168(%rbp)
Ltmp846:
	.loc	19 268 41 is_stmt 0
	movb	$0, -600(%rbp)
	movq	%rcx, -592(%rbp)
	movq	%rax, -584(%rbp)
Ltmp847:
	.loc	19 268 52
	jmp	LBB120_22
LBB120_24:
	.loc	19 267 48 is_stmt 1
	movb	$0, -631(%rbp)
	movb	$1, -632(%rbp)
	.loc	19 267 41 is_stmt 0
	jmp	LBB120_8
LBB120_25:
Ltmp848:
	.loc	19 273 61 is_stmt 1
	movss	LCPI120_0(%rip), %xmm0
	movss	%xmm0, -552(%rbp)
	.loc	19 273 31 is_stmt 0
	jmp	LBB120_27
LBB120_26:
	.loc	19 273 48
	xorps	%xmm0, %xmm0
	movss	%xmm0, -552(%rbp)
LBB120_27:
	.loc	19 0 48
	movq	-664(%rbp), %rsi
	movq	-672(%rbp), %rdi
Ltmp849:
	.loc	19 275 36 is_stmt 1
	movss	-552(%rbp), %xmm0
	movss	%xmm0, -548(%rbp)
Ltmp850:
	.loc	19 276 30
	callq	__ZN4core3str21_$LT$impl$u20$str$GT$5chars17h8510b20fc2baa975E
	movq	%rax, %rsi
	leaq	-544(%rbp), %rdi
	callq	__ZN4core4iter6traits8iterator8Iterator9enumerate17h9a795cb61bf737bbE
Ltmp851:
	.loc	19 278 36
	movl	$1114112, -520(%rbp)
Ltmp852:
	.loc	19 281 31
	leaq	-544(%rbp), %rdi
	callq	__ZN4core4iter6traits8iterator8Iterator6by_ref17he52ee8da46f24fa8E
	movq	%rax, %rdi
	callq	__ZN63_$LT$I$u20$as$u20$core..iter..traits..collect..IntoIterator$GT$9into_iter17h1dda615ea543a8eeE
	movq	%rax, -504(%rbp)
LBB120_28:
	.loc	19 0 31 is_stmt 0
	leaq	-504(%rbp), %rdi
Ltmp853:
	.loc	19 281 31
	callq	__ZN72_$LT$$RF$mut$u20$I$u20$as$u20$core..iter..traits..iterator..Iterator$GT$4next17he42ba000f1a49babE
	movl	%edx, -488(%rbp)
	movq	%rax, -496(%rbp)
	movl	$1, %eax
	xorl	%ecx, %ecx
	cmpl	$1114112, -488(%rbp)
	cmoveq	%rcx, %rax
	cmpq	$0, %rax
	jne	LBB120_30
Ltmp854:
LBB120_29:
	.loc	19 327 20 is_stmt 1
	leaq	-520(%rbp), %rdi
	callq	__ZN4core6option15Option$LT$T$GT$7is_none17h768020cdeef7044dE
	testb	$1, %al
	jne	LBB120_62
	jmp	LBB120_61
LBB120_30:
	.loc	19 0 20 is_stmt 0
	movl	-652(%rbp), %esi
Ltmp855:
	.loc	19 281 22 is_stmt 1
	movq	-496(%rbp), %rax
	movq	%rax, -688(%rbp)
	movq	%rax, -136(%rbp)
	.loc	19 281 25 is_stmt 0
	movl	-488(%rbp), %edi
	movl	%edi, -680(%rbp)
	movl	%edi, -128(%rbp)
Ltmp856:
	.loc	19 282 27 is_stmt 1
	callq	__ZN4core4char7methods22_$LT$impl$u20$char$GT$8to_digit17h5ee860be25c4ab14E
	movl	%edx, -476(%rbp)
	movl	%eax, -480(%rbp)
	movl	-480(%rbp), %eax
	.loc	19 282 21 is_stmt 0
	cmpq	$0, %rax
	jne	LBB120_32
	.loc	19 0 21
	movl	-680(%rbp), %eax
	.loc	19 310 33 is_stmt 1
	subl	$46, %eax
	je	LBB120_29
	jmp	LBB120_108
LBB120_108:
	.loc	19 0 33 is_stmt 0
	movl	-680(%rbp), %eax
	.loc	19 310 33
	subl	$69, %eax
	je	LBB120_58
	jmp	LBB120_109
LBB120_109:
	.loc	19 0 33
	movl	-680(%rbp), %eax
	.loc	19 310 33
	subl	$80, %eax
	je	LBB120_58
	jmp	LBB120_110
LBB120_110:
	.loc	19 0 33
	movl	-680(%rbp), %eax
	.loc	19 310 33
	subl	$101, %eax
	je	LBB120_58
	jmp	LBB120_111
LBB120_111:
	.loc	19 0 33
	movl	-680(%rbp), %eax
	.loc	19 310 33
	subl	$112, %eax
	je	LBB120_58
	jmp	LBB120_57
LBB120_32:
	.loc	19 0 33
	movb	-673(%rbp), %al
	movl	-652(%rbp), %ecx
	.loc	19 283 30 is_stmt 1
	movl	-476(%rbp), %edx
	movl	%edx, -692(%rbp)
	movl	%edx, -124(%rbp)
Ltmp857:
	.loc	19 285 35
	movss	-552(%rbp), %xmm0
	.loc	19 285 41 is_stmt 0
	movl	%ecx, %ecx
	cvtsi2ss	%rcx, %xmm1
	.loc	19 285 29
	mulss	%xmm1, %xmm0
	movss	%xmm0, -552(%rbp)
	.loc	19 288 32 is_stmt 1
	testb	$1, %al
	jne	LBB120_34
	.loc	19 0 32 is_stmt 0
	movl	-692(%rbp), %eax
	.loc	19 291 39 is_stmt 1
	movss	-552(%rbp), %xmm0
	.loc	19 291 46 is_stmt 0
	movl	%eax, %eax
	.loc	19 291 45
	cvtsi2ss	%rax, %xmm1
	.loc	19 291 33
	subss	%xmm1, %xmm0
	movss	%xmm0, -552(%rbp)
	.loc	19 288 29 is_stmt 1
	jmp	LBB120_35
LBB120_34:
	.loc	19 0 29 is_stmt 0
	movl	-692(%rbp), %eax
	.loc	19 289 39 is_stmt 1
	movss	-552(%rbp), %xmm0
	.loc	19 289 46 is_stmt 0
	movl	%eax, %eax
	.loc	19 289 45
	cvtsi2ss	%rax, %xmm1
	.loc	19 289 33
	addss	%xmm1, %xmm0
	movss	%xmm0, -552(%rbp)
LBB120_35:
	.loc	19 296 32 is_stmt 1
	movss	-548(%rbp), %xmm0
	xorps	%xmm1, %xmm1
	ucomiss	%xmm1, %xmm0
	jne	LBB120_37
	jp	LBB120_37
LBB120_36:
	.loc	19 308 40
	movss	-552(%rbp), %xmm0
	.loc	19 308 29 is_stmt 0
	movss	%xmm0, -548(%rbp)
Ltmp858:
	.loc	19 281 17 is_stmt 1
	jmp	LBB120_28
LBB120_37:
	.loc	19 0 17 is_stmt 0
	movb	-673(%rbp), %al
Ltmp859:
	.loc	19 297 36 is_stmt 1
	testb	$1, %al
	jne	LBB120_39
	jmp	LBB120_38
LBB120_38:
	movb	$0, -468(%rbp)
	jmp	LBB120_40
LBB120_39:
	.loc	19 297 51 is_stmt 0
	movss	-552(%rbp), %xmm1
	.loc	19 297 58
	movss	-548(%rbp), %xmm0
	.loc	19 297 51
	ucomiss	%xmm1, %xmm0
	setae	%al
	.loc	19 297 36
	andb	$1, %al
	movb	%al, -468(%rbp)
LBB120_40:
	testb	$1, -468(%rbp)
	jne	LBB120_42
	.loc	19 0 36
	movb	-673(%rbp), %al
	.loc	19 299 36 is_stmt 1
	xorb	$-1, %al
	testb	$1, %al
	jne	LBB120_44
	jmp	LBB120_43
LBB120_42:
	.loc	19 298 46
	movss	LCPI120_2(%rip), %xmm0
	movss	%xmm0, -628(%rbp)
	movb	$0, -632(%rbp)
	.loc	19 1 1
	jmp	LBB120_8
LBB120_43:
	.loc	19 299 36
	movb	$0, -467(%rbp)
	jmp	LBB120_45
LBB120_44:
	.loc	19 299 52 is_stmt 0
	movss	-552(%rbp), %xmm0
	ucomiss	-548(%rbp), %xmm0
	setae	%al
	.loc	19 299 36
	andb	$1, %al
	movb	%al, -467(%rbp)
LBB120_45:
	testb	$1, -467(%rbp)
	jne	LBB120_47
	.loc	19 0 36
	movb	-673(%rbp), %al
	.loc	19 303 36 is_stmt 1
	testb	$1, %al
	jne	LBB120_49
	jmp	LBB120_48
LBB120_47:
	.loc	19 300 46
	movss	LCPI120_1(%rip), %xmm0
	movss	%xmm0, -628(%rbp)
	movb	$0, -632(%rbp)
	.loc	19 1 1
	jmp	LBB120_8
LBB120_48:
	.loc	19 303 36
	movb	$0, -466(%rbp)
	jmp	LBB120_50
LBB120_49:
	.loc	19 0 36 is_stmt 0
	movl	-652(%rbp), %eax
	movl	-692(%rbp), %ecx
	.loc	19 303 52
	movss	-548(%rbp), %xmm0
	.loc	19 303 65
	movss	-552(%rbp), %xmm1
	.loc	19 303 71
	movl	%ecx, %ecx
	cvtsi2ss	%rcx, %xmm2
	.loc	19 303 64
	subss	%xmm2, %xmm1
	.loc	19 303 86
	movl	%eax, %eax
	cvtsi2ss	%rax, %xmm2
	.loc	19 303 64
	divss	%xmm2, %xmm1
	.loc	19 303 51
	ucomiss	%xmm1, %xmm0
	setne	%al
	setp	%cl
	orb	%cl, %al
	.loc	19 303 36
	andb	$1, %al
	movb	%al, -466(%rbp)
LBB120_50:
	testb	$1, -466(%rbp)
	jne	LBB120_52
	.loc	19 0 36
	movb	-673(%rbp), %al
	.loc	19 305 36 is_stmt 1
	xorb	$-1, %al
	testb	$1, %al
	jne	LBB120_54
	jmp	LBB120_53
LBB120_52:
	.loc	19 304 46
	movss	LCPI120_2(%rip), %xmm0
	movss	%xmm0, -628(%rbp)
	movb	$0, -632(%rbp)
	.loc	19 1 1
	jmp	LBB120_8
LBB120_53:
	.loc	19 305 36
	movb	$0, -465(%rbp)
	jmp	LBB120_55
LBB120_54:
	.loc	19 0 36 is_stmt 0
	movl	-652(%rbp), %eax
	movl	-692(%rbp), %ecx
	.loc	19 305 53
	movss	-548(%rbp), %xmm0
	.loc	19 305 66
	movss	-552(%rbp), %xmm1
	.loc	19 305 72
	movl	%ecx, %ecx
	cvtsi2ss	%rcx, %xmm2
	.loc	19 305 65
	addss	%xmm2, %xmm1
	.loc	19 305 87
	movl	%eax, %eax
	cvtsi2ss	%rax, %xmm2
	.loc	19 305 65
	divss	%xmm2, %xmm1
	.loc	19 305 52
	ucomiss	%xmm1, %xmm0
	setne	%al
	setp	%cl
	orb	%cl, %al
	.loc	19 305 36
	andb	$1, %al
	movb	%al, -465(%rbp)
LBB120_55:
	testb	$1, -465(%rbp)
	je	LBB120_36
	.loc	19 306 46 is_stmt 1
	movss	LCPI120_1(%rip), %xmm0
	movss	%xmm0, -628(%rbp)
	movb	$0, -632(%rbp)
	.loc	19 1 1
	jmp	LBB120_8
Ltmp860:
LBB120_57:
	.loc	19 319 40
	movb	$1, -631(%rbp)
	movb	$1, -632(%rbp)
	.loc	19 319 33 is_stmt 0
	jmp	LBB120_8
LBB120_58:
	.loc	19 0 33
	movq	-688(%rbp), %rax
	.loc	19 312 53 is_stmt 1
	addq	$1, %rax
	movq	%rax, -704(%rbp)
	setb	%al
	testb	$1, %al
	jne	LBB120_60
	.loc	19 0 53 is_stmt 0
	movq	-704(%rbp), %rax
	movl	-680(%rbp), %ecx
	.loc	19 312 49
	movl	%ecx, -448(%rbp)
	movq	%rax, -440(%rbp)
	.loc	19 312 44
	movl	-448(%rbp), %ecx
	movq	-440(%rbp), %rax
	movl	%ecx, -464(%rbp)
	movq	%rax, -456(%rbp)
	.loc	19 312 33
	movl	-464(%rbp), %ecx
	movq	-456(%rbp), %rax
	movl	%ecx, -520(%rbp)
	movq	%rax, -512(%rbp)
	.loc	19 313 33 is_stmt 1
	jmp	LBB120_29
LBB120_60:
	.loc	19 312 53
	leaq	_str.0(%rip), %rdi
	leaq	l___unnamed_33(%rip), %rdx
	movl	$28, %esi
	callq	__ZN4core9panicking5panic17hc1bc45270cf64b03E
Ltmp861:
LBB120_61:
	.loc	19 361 33
	movl	$1, %eax
	xorl	%ecx, %ecx
	cmpl	$1114112, -520(%rbp)
	cmoveq	%rcx, %rax
	.loc	19 361 27 is_stmt 0
	cmpq	$0, %rax
	je	LBB120_84
	jmp	LBB120_85
LBB120_62:
	.loc	19 328 37 is_stmt 1
	movss	LCPI120_3(%rip), %xmm0
	movss	%xmm0, -428(%rbp)
Ltmp862:
	.loc	19 329 35
	leaq	-544(%rbp), %rdi
	callq	__ZN4core4iter6traits8iterator8Iterator6by_ref17he52ee8da46f24fa8E
	movq	%rax, %rdi
	callq	__ZN63_$LT$I$u20$as$u20$core..iter..traits..collect..IntoIterator$GT$9into_iter17h1dda615ea543a8eeE
	movq	%rax, -424(%rbp)
LBB120_63:
	.loc	19 0 35 is_stmt 0
	leaq	-424(%rbp), %rdi
Ltmp863:
	.loc	19 329 35
	callq	__ZN72_$LT$$RF$mut$u20$I$u20$as$u20$core..iter..traits..iterator..Iterator$GT$4next17he42ba000f1a49babE
	movl	%edx, -408(%rbp)
	movq	%rax, -416(%rbp)
	movl	$1, %eax
	xorl	%ecx, %ecx
	cmpl	$1114112, -408(%rbp)
	cmoveq	%rcx, %rax
	cmpq	$0, %rax
	je	LBB120_61
	.loc	19 0 35
	movl	-652(%rbp), %esi
	.loc	19 329 26
	movq	-416(%rbp), %rax
	movq	%rax, -720(%rbp)
	movq	%rax, -120(%rbp)
	.loc	19 329 29
	movl	-408(%rbp), %edi
	movl	%edi, -708(%rbp)
	movl	%edi, -108(%rbp)
Ltmp864:
	.loc	19 330 31 is_stmt 1
	callq	__ZN4core4char7methods22_$LT$impl$u20$char$GT$8to_digit17h5ee860be25c4ab14E
	movl	%edx, -396(%rbp)
	movl	%eax, -400(%rbp)
	movl	-400(%rbp), %eax
	.loc	19 330 25 is_stmt 0
	cmpq	$0, %rax
	jne	LBB120_66
	.loc	19 0 25
	movl	-708(%rbp), %eax
	.loc	19 347 37 is_stmt 1
	subl	$69, %eax
	je	LBB120_81
	jmp	LBB120_112
LBB120_112:
	.loc	19 0 37 is_stmt 0
	movl	-708(%rbp), %eax
	.loc	19 347 37
	subl	$80, %eax
	je	LBB120_81
	jmp	LBB120_113
LBB120_113:
	.loc	19 0 37
	movl	-708(%rbp), %eax
	.loc	19 347 37
	subl	$101, %eax
	je	LBB120_81
	jmp	LBB120_114
LBB120_114:
	.loc	19 0 37
	movl	-708(%rbp), %eax
	.loc	19 347 37
	subl	$112, %eax
	je	LBB120_81
	jmp	LBB120_80
LBB120_66:
	.loc	19 0 37
	movb	-673(%rbp), %al
	movl	-652(%rbp), %ecx
	.loc	19 331 34 is_stmt 1
	movl	-396(%rbp), %edx
	movl	%edx, -724(%rbp)
	movl	%edx, -104(%rbp)
Ltmp865:
	.loc	19 333 41
	movss	-428(%rbp), %xmm0
	.loc	19 333 49 is_stmt 0
	movl	%ecx, %ecx
	cvtsi2ss	%rcx, %xmm1
	.loc	19 333 33
	divss	%xmm1, %xmm0
	movss	%xmm0, -428(%rbp)
	.loc	19 335 42 is_stmt 1
	testb	$1, %al
	jne	LBB120_68
	.loc	19 0 42 is_stmt 0
	movl	-724(%rbp), %eax
	.loc	19 338 37 is_stmt 1
	movss	-552(%rbp), %xmm0
	.loc	19 338 43 is_stmt 0
	movl	%eax, %eax
	cvtsi2ss	%rax, %xmm1
	mulss	-428(%rbp), %xmm1
	.loc	19 338 37
	subss	%xmm1, %xmm0
	movss	%xmm0, -392(%rbp)
	.loc	19 335 39 is_stmt 1
	jmp	LBB120_69
LBB120_68:
	.loc	19 0 39 is_stmt 0
	movl	-724(%rbp), %eax
	.loc	19 336 37 is_stmt 1
	movss	-552(%rbp), %xmm0
	.loc	19 336 43 is_stmt 0
	movl	%eax, %eax
	cvtsi2ss	%rax, %xmm1
	mulss	-428(%rbp), %xmm1
	.loc	19 336 37
	addss	%xmm1, %xmm0
	movss	%xmm0, -392(%rbp)
LBB120_69:
	.loc	19 0 37
	movb	-673(%rbp), %al
	.loc	19 335 33 is_stmt 1
	movss	-392(%rbp), %xmm0
	movss	%xmm0, -552(%rbp)
	.loc	19 341 36
	testb	$1, %al
	jne	LBB120_71
	movb	$0, -386(%rbp)
	jmp	LBB120_72
LBB120_71:
	.loc	19 341 51 is_stmt 0
	movss	-552(%rbp), %xmm1
	.loc	19 341 57
	movss	-548(%rbp), %xmm0
	.loc	19 341 51
	ucomiss	%xmm1, %xmm0
	seta	%al
	.loc	19 341 36
	andb	$1, %al
	movb	%al, -386(%rbp)
LBB120_72:
	testb	$1, -386(%rbp)
	jne	LBB120_74
	.loc	19 0 36
	movb	-673(%rbp), %al
	.loc	19 343 36 is_stmt 1
	xorb	$-1, %al
	testb	$1, %al
	jne	LBB120_76
	jmp	LBB120_75
LBB120_74:
	.loc	19 342 46
	movss	LCPI120_2(%rip), %xmm0
	movss	%xmm0, -628(%rbp)
	movb	$0, -632(%rbp)
	.loc	19 1 1
	jmp	LBB120_8
LBB120_75:
	.loc	19 343 36
	movb	$0, -385(%rbp)
	jmp	LBB120_77
LBB120_76:
	.loc	19 343 52 is_stmt 0
	movss	-552(%rbp), %xmm0
	ucomiss	-548(%rbp), %xmm0
	seta	%al
	.loc	19 343 36
	andb	$1, %al
	movb	%al, -385(%rbp)
LBB120_77:
	testb	$1, -385(%rbp)
	jne	LBB120_79
	.loc	19 345 44 is_stmt 1
	movss	-552(%rbp), %xmm0
	.loc	19 345 33 is_stmt 0
	movss	%xmm0, -548(%rbp)
Ltmp866:
	.loc	19 329 21 is_stmt 1
	jmp	LBB120_63
LBB120_79:
Ltmp867:
	.loc	19 344 46
	movss	LCPI120_1(%rip), %xmm0
	movss	%xmm0, -628(%rbp)
	movb	$0, -632(%rbp)
	.loc	19 1 1
	jmp	LBB120_8
Ltmp868:
LBB120_80:
	.loc	19 353 44
	movb	$1, -631(%rbp)
	movb	$1, -632(%rbp)
	.loc	19 353 37 is_stmt 0
	jmp	LBB120_8
LBB120_81:
	.loc	19 0 37
	movq	-720(%rbp), %rax
	.loc	19 349 57 is_stmt 1
	addq	$1, %rax
	movq	%rax, -736(%rbp)
	setb	%al
	testb	$1, %al
	jne	LBB120_83
	.loc	19 0 57 is_stmt 0
	movq	-736(%rbp), %rax
	movl	-708(%rbp), %ecx
	.loc	19 349 53
	movl	%ecx, -368(%rbp)
	movq	%rax, -360(%rbp)
	.loc	19 349 48
	movl	-368(%rbp), %ecx
	movq	-360(%rbp), %rax
	movl	%ecx, -384(%rbp)
	movq	%rax, -376(%rbp)
	.loc	19 349 37
	movl	-384(%rbp), %ecx
	movq	-376(%rbp), %rax
	movl	%ecx, -520(%rbp)
	movq	%rax, -512(%rbp)
Ltmp869:
	.loc	19 1 1 is_stmt 1
	jmp	LBB120_61
LBB120_83:
Ltmp870:
	.loc	19 349 57
	leaq	_str.0(%rip), %rdi
	leaq	l___unnamed_33(%rip), %rdx
	movl	$28, %esi
	callq	__ZN4core9panicking5panic17hc1bc45270cf64b03E
Ltmp871:
LBB120_84:
	.loc	19 390 29
	movss	LCPI120_3(%rip), %xmm0
	movss	%xmm0, -352(%rbp)
	jmp	LBB120_104
LBB120_85:
	.loc	19 362 27
	movl	-520(%rbp), %eax
	movl	%eax, -748(%rbp)
	movl	%eax, -100(%rbp)
	.loc	19 362 30 is_stmt 0
	movq	-512(%rbp), %rcx
	movq	%rcx, -744(%rbp)
	movq	%rcx, -96(%rbp)
Ltmp872:
	.loc	19 363 36 is_stmt 1
	subl	$69, %eax
	je	LBB120_87
	jmp	LBB120_115
LBB120_115:
	.loc	19 0 36 is_stmt 0
	movl	-748(%rbp), %eax
	.loc	19 363 36
	subl	$80, %eax
	je	LBB120_89
	jmp	LBB120_116
LBB120_116:
	.loc	19 0 36
	movl	-748(%rbp), %eax
	.loc	19 363 36
	subl	$101, %eax
	je	LBB120_88
	jmp	LBB120_117
LBB120_117:
	.loc	19 0 36
	movl	-748(%rbp), %eax
	.loc	19 363 36
	subl	$112, %eax
	je	LBB120_90
	jmp	LBB120_86
LBB120_86:
	.loc	19 366 41 is_stmt 1
	movb	$1, -631(%rbp)
	movb	$1, -632(%rbp)
	.loc	19 366 34 is_stmt 0
	jmp	LBB120_8
LBB120_87:
	.loc	19 0 34
	movl	-652(%rbp), %eax
	.loc	19 364 42 is_stmt 1
	cmpl	$10, %eax
	je	LBB120_93
	jmp	LBB120_86
LBB120_88:
	.loc	19 0 42 is_stmt 0
	movl	-652(%rbp), %eax
	.loc	19 364 42
	cmpl	$10, %eax
	je	LBB120_93
	jmp	LBB120_86
LBB120_89:
	.loc	19 0 42
	movl	-652(%rbp), %eax
	.loc	19 365 42 is_stmt 1
	cmpl	$16, %eax
	je	LBB120_91
	jmp	LBB120_86
LBB120_90:
	.loc	19 0 42 is_stmt 0
	movl	-652(%rbp), %eax
	.loc	19 365 42
	cmpl	$16, %eax
	jne	LBB120_86
LBB120_91:
	.loc	19 365 57
	movss	LCPI120_4(%rip), %xmm0
	movss	%xmm0, -348(%rbp)
LBB120_92:
	.loc	19 0 57
	movq	-664(%rbp), %rsi
	movq	-672(%rbp), %rdi
	movq	-744(%rbp), %rax
Ltmp873:
	.loc	19 370 40 is_stmt 1
	movq	%rax, -344(%rbp)
	.loc	19 370 36 is_stmt 0
	movq	-344(%rbp), %rdx
	leaq	l___unnamed_33(%rip), %rcx
	callq	__ZN4core3str6traits66_$LT$impl$u20$core..ops..index..Index$LT$I$GT$$u20$for$u20$str$GT$5index17hdd5e5f38183f0933E
	movq	%rax, %rsi
	movq	%rsi, -768(%rbp)
	movq	%rdx, -760(%rbp)
	.loc	19 370 35
	movq	%rsi, -88(%rbp)
	movq	%rdx, -80(%rbp)
Ltmp874:
	.loc	19 371 56 is_stmt 1
	leaq	-296(%rbp), %rdi
	callq	__ZN39_$LT$f32$u20$as$u20$num_traits..Num$GT$14from_str_radix16slice_shift_char17h1869483b54182a86E
	movl	$1, %eax
	xorl	%ecx, %ecx
	cmpl	$1114112, -296(%rbp)
	cmoveq	%rcx, %rax
	.loc	19 371 50 is_stmt 0
	cmpq	$0, %rax
	je	LBB120_94
	jmp	LBB120_95
Ltmp875:
LBB120_93:
	.loc	19 364 57 is_stmt 1
	movss	LCPI120_5(%rip), %xmm0
	movss	%xmm0, -348(%rbp)
	jmp	LBB120_92
LBB120_94:
Ltmp876:
	.loc	19 375 56
	movb	$1, -631(%rbp)
	movb	$1, -632(%rbp)
Ltmp877:
	.loc	19 1 1
	jmp	LBB120_8
LBB120_95:
Ltmp878:
	.loc	19 371 50
	movl	-296(%rbp), %eax
	movl	%eax, -772(%rbp)
	subl	$43, %eax
	je	LBB120_98
	jmp	LBB120_118
LBB120_118:
	.loc	19 0 50 is_stmt 0
	movl	-772(%rbp), %eax
	.loc	19 371 50
	subl	$45, %eax
	je	LBB120_97
	jmp	LBB120_96
LBB120_96:
	.loc	19 0 50
	movq	-760(%rbp), %rdx
	movq	-768(%rbp), %rsi
	.loc	19 374 57 is_stmt 1
	leaq	-240(%rbp), %rdi
	callq	__ZN4core3str21_$LT$impl$u20$str$GT$5parse17he3ce2e6d15b60b38E
	.loc	19 374 49 is_stmt 0
	movb	$1, -320(%rbp)
	movq	-240(%rbp), %rax
	movq	%rax, -312(%rbp)
	movq	-232(%rbp), %rax
	movq	%rax, -304(%rbp)
	.loc	19 374 77
	jmp	LBB120_99
LBB120_97:
	.loc	19 372 40 is_stmt 1
	movq	-288(%rbp), %rsi
	movq	-280(%rbp), %rdx
	movq	%rsi, -56(%rbp)
	movq	%rdx, -48(%rbp)
Ltmp879:
	.loc	19 372 57 is_stmt 0
	leaq	-272(%rbp), %rdi
	callq	__ZN4core3str21_$LT$impl$u20$str$GT$5parse17he3ce2e6d15b60b38E
	.loc	19 372 49
	movb	$0, -320(%rbp)
	movq	-272(%rbp), %rax
	movq	%rax, -312(%rbp)
	movq	-264(%rbp), %rax
	movq	%rax, -304(%rbp)
Ltmp880:
	.loc	19 372 77
	jmp	LBB120_99
LBB120_98:
	.loc	19 373 40 is_stmt 1
	movq	-288(%rbp), %rsi
	movq	-280(%rbp), %rdx
	movq	%rsi, -72(%rbp)
	movq	%rdx, -64(%rbp)
Ltmp881:
	.loc	19 373 57 is_stmt 0
	leaq	-256(%rbp), %rdi
	callq	__ZN4core3str21_$LT$impl$u20$str$GT$5parse17he3ce2e6d15b60b38E
	.loc	19 373 49
	movb	$1, -320(%rbp)
	movq	-256(%rbp), %rax
	movq	%rax, -312(%rbp)
	movq	-248(%rbp), %rax
	movq	%rax, -304(%rbp)
Ltmp882:
LBB120_99:
	.loc	19 371 30 is_stmt 1
	movb	-320(%rbp), %al
	movb	%al, %cl
	andb	$1, %cl
	movb	%cl, -33(%rbp)
	.loc	19 371 43 is_stmt 0
	movq	-312(%rbp), %rcx
	movq	%rcx, -336(%rbp)
	movq	-304(%rbp), %rcx
	movq	%rcx, -328(%rbp)
Ltmp883:
	.loc	19 384 45 is_stmt 1
	movq	-336(%rbp), %rcx
	movq	%rcx, -200(%rbp)
	movq	-328(%rbp), %rcx
	movq	%rcx, -192(%rbp)
	.loc	19 384 31 is_stmt 0
	andb	$1, %al
	movb	%al, -224(%rbp)
	movq	-200(%rbp), %rax
	movq	%rax, -216(%rbp)
	movq	-192(%rbp), %rax
	movq	%rax, -208(%rbp)
	.loc	19 384 25
	testb	$1, -224(%rbp)
	jne	LBB120_101
	.loc	19 384 31
	movb	-216(%rbp), %al
	andb	$1, %al
	movzbl	%al, %eax
	.loc	19 384 25
	cmpq	$0, %rax
	je	LBB120_105
	jmp	LBB120_103
LBB120_101:
	.loc	19 384 31
	movb	-216(%rbp), %al
	andb	$1, %al
	movzbl	%al, %eax
	.loc	19 384 25
	cmpq	$0, %rax
	jne	LBB120_103
	.loc	19 385 40 is_stmt 1
	movq	-208(%rbp), %rdi
	movq	%rdi, -32(%rbp)
Ltmp884:
	.loc	19 385 53 is_stmt 0
	movss	-348(%rbp), %xmm0
	.loc	19 385 49
	callq	__ZN39_$LT$f32$u20$as$u20$num_traits..Num$GT$14from_str_radix3pow17hb1a6cc324535c4d7E
	movss	%xmm0, -352(%rbp)
	jmp	LBB120_104
Ltmp885:
LBB120_103:
	.loc	19 384 31 is_stmt 1
	movb	-216(%rbp), %al
	andb	$1, %al
	movzbl	%al, %eax
	.loc	19 384 25 is_stmt 0
	cmpq	$1, %rax
	je	LBB120_106
	jmp	LBB120_107
Ltmp886:
LBB120_104:
	.loc	19 393 20 is_stmt 1
	movss	-552(%rbp), %xmm0
	mulss	-352(%rbp), %xmm0
	.loc	19 393 17 is_stmt 0
	movss	%xmm0, -628(%rbp)
	movb	$0, -632(%rbp)
Ltmp887:
	.loc	19 394 14 is_stmt 1
	jmp	LBB120_8
LBB120_105:
Ltmp888:
	.loc	19 386 40
	movq	-208(%rbp), %rdi
	movq	%rdi, -24(%rbp)
Ltmp889:
	.loc	19 386 59 is_stmt 0
	movss	-348(%rbp), %xmm0
	.loc	19 386 55
	callq	__ZN39_$LT$f32$u20$as$u20$num_traits..Num$GT$14from_str_radix3pow17hb1a6cc324535c4d7E
	movaps	%xmm0, %xmm1
	.loc	19 386 49
	movss	LCPI120_3(%rip), %xmm0
	divss	%xmm1, %xmm0
	movss	%xmm0, -352(%rbp)
Ltmp890:
	.loc	19 386 68
	jmp	LBB120_104
LBB120_106:
	.loc	19 387 56 is_stmt 1
	movb	$1, -631(%rbp)
	movb	$1, -632(%rbp)
Ltmp891:
	.loc	19 1 1
	jmp	LBB120_8
LBB120_107:
Ltmp892:
	.loc	19 384 31
	ud2
Ltmp893:
Lfunc_end120:
	.cfi_endproc

	.p2align	4, 0x90
__ZN39_$LT$f32$u20$as$u20$num_traits..Num$GT$14from_str_radix28_$u7b$$u7b$closure$u7d$$u7d$17h7e666cf00f4170eeE:
Lfunc_begin121:
	.loc	19 236 0
	.cfi_startproc
	pushq	%rbp
	.cfi_def_cfa_offset 16
	.cfi_offset %rbp, -16
	movq	%rsp, %rbp
	.cfi_def_cfa_register %rbp
	subq	$16, %rsp
	movb	%sil, %al
	movq	%rdi, -16(%rbp)
	andb	$1, %al
	movb	%al, -1(%rbp)
Ltmp894:
	.loc	19 237 34 prologue_end
	movq	-16(%rbp), %rax
	movq	(%rax), %rdi
	movq	8(%rax), %rsi
	callq	__ZN4core3str21_$LT$impl$u20$str$GT$8is_empty17hf82eb1d849e92cbfE
	testb	$1, %al
	jne	LBB121_2
	.loc	19 237 66 is_stmt 0
	movb	$1, -2(%rbp)
	.loc	19 237 31
	jmp	LBB121_3
LBB121_2:
	.loc	19 237 51
	movb	$0, -2(%rbp)
LBB121_3:
	.loc	19 236 52 is_stmt 1
	movb	-2(%rbp), %al
	andb	$1, %al
	movb	%al, -3(%rbp)
	.loc	19 238 22
	movb	-3(%rbp), %al
	andb	$1, %al
	movzbl	%al, %eax
	addq	$16, %rsp
	popq	%rbp
	retq
Ltmp895:
Lfunc_end121:
	.cfi_endproc

	.p2align	4, 0x90
__ZN39_$LT$f32$u20$as$u20$num_traits..Num$GT$14from_str_radix16slice_shift_char17h1869483b54182a86E:
Lfunc_begin122:
	.loc	19 256 0
	.cfi_startproc
	pushq	%rbp
	.cfi_def_cfa_offset 16
	.cfi_offset %rbp, -16
	movq	%rsp, %rbp
	.cfi_def_cfa_register %rbp
	subq	$112, %rsp
	movq	%rdx, -104(%rbp)
	movq	%rsi, %rax
	movq	-104(%rbp), %rsi
	movq	%rax, -96(%rbp)
	movq	%rdi, %rax
	movq	-96(%rbp), %rdi
	movq	%rax, -88(%rbp)
	movq	%rax, -80(%rbp)
	movq	%rdi, -24(%rbp)
	movq	%rsi, -16(%rbp)
Ltmp896:
	.loc	19 257 37 prologue_end
	callq	__ZN4core3str21_$LT$impl$u20$str$GT$5chars17h8510b20fc2baa975E
	movq	%rdx, -64(%rbp)
	movq	%rax, -72(%rbp)
Ltmp897:
	.loc	19 258 39
	leaq	-72(%rbp), %rdi
	callq	__ZN81_$LT$core..str..iter..Chars$u20$as$u20$core..iter..traits..iterator..Iterator$GT$4next17h5049fbdaa12d9b42E
	movl	%eax, -52(%rbp)
	.loc	19 258 28 is_stmt 0
	movl	$1, %eax
	xorl	%ecx, %ecx
	cmpl	$1114112, -52(%rbp)
	cmoveq	%rcx, %rax
	cmpq	$1, %rax
	jne	LBB122_2
	.loc	19 258 33
	movl	-52(%rbp), %eax
	movl	%eax, -108(%rbp)
	movl	%eax, -4(%rbp)
	.loc	19 259 35 is_stmt 1
	leaq	-72(%rbp), %rdi
	callq	__ZN4core3str4iter5Chars6as_str17h14468fdcf2583840E
	movl	-108(%rbp), %esi
	movq	%rax, %rcx
	movq	-88(%rbp), %rax
	.loc	19 259 30 is_stmt 0
	movl	%esi, -48(%rbp)
	movq	%rcx, -40(%rbp)
	movq	%rdx, -32(%rbp)
	.loc	19 259 25
	movq	-48(%rbp), %rcx
	movq	%rcx, (%rax)
	movq	-40(%rbp), %rcx
	movq	%rcx, 8(%rax)
	movq	-32(%rbp), %rcx
	movq	%rcx, 16(%rax)
Ltmp898:
	.loc	19 258 21 is_stmt 1
	jmp	LBB122_3
LBB122_2:
	.loc	19 0 21 is_stmt 0
	movq	-88(%rbp), %rax
	.loc	19 261 25 is_stmt 1
	movl	$1114112, (%rax)
Ltmp899:
LBB122_3:
	.loc	19 0 25 is_stmt 0
	movq	-80(%rbp), %rax
	.loc	19 263 18 is_stmt 1
	addq	$112, %rsp
	popq	%rbp
	retq
Ltmp900:
Lfunc_end122:
	.cfi_endproc

	.p2align	4, 0x90
__ZN39_$LT$f32$u20$as$u20$num_traits..Num$GT$14from_str_radix3pow17hb1a6cc324535c4d7E:
Lfunc_begin123:
	.loc	19 379 0
	.cfi_startproc
	pushq	%rbp
	.cfi_def_cfa_offset 16
	.cfi_offset %rbp, -16
	movq	%rsp, %rbp
	.cfi_def_cfa_register %rbp
	subq	$16, %rsp
	movss	%xmm0, -12(%rbp)
	movq	%rdi, -8(%rbp)
Ltmp901:
	.loc	19 380 29 prologue_end
	callq	__ZN48_$LT$f32$u20$as$u20$num_traits..float..Float$GT$4powi17h91b9945fa9a2e1f7E
	.loc	19 381 26
	addq	$16, %rsp
	popq	%rbp
	retq
Ltmp902:
Lfunc_end123:
	.cfi_endproc

	.section	__TEXT,__literal8,8byte_literals
	.p2align	3
LCPI124_0:
	.quad	0x8000000000000000
LCPI124_1:
	.quad	0xfff0000000000000
LCPI124_2:
	.quad	0x7ff0000000000000
LCPI124_3:
	.quad	0x3ff0000000000000
LCPI124_4:
	.quad	0x4000000000000000
LCPI124_5:
	.quad	0x4024000000000000
LCPI124_6:
	.quad	0xfff8000000000000
LCPI124_7:
	.quad	0x7ff8000000000000
	.section	__TEXT,__text,regular,pure_instructions
	.globl	__ZN39_$LT$f64$u20$as$u20$num_traits..Num$GT$14from_str_radix17h0a34b9fea7edf678E
	.p2align	4, 0x90
__ZN39_$LT$f64$u20$as$u20$num_traits..Num$GT$14from_str_radix17h0a34b9fea7edf678E:
Lfunc_begin124:
	.loc	19 228 0
	.cfi_startproc
	pushq	%rbp
	.cfi_def_cfa_offset 16
	.cfi_offset %rbp, -16
	movq	%rsp, %rbp
	.cfi_def_cfa_register %rbp
	subq	$800, %rsp
	movl	%ecx, -676(%rbp)
	movq	%rdi, -672(%rbp)
	movq	%rdi, -664(%rbp)
	movq	%rsi, -656(%rbp)
	movq	%rdx, -648(%rbp)
	movl	%ecx, -164(%rbp)
Ltmp903:
	.loc	19 235 20 prologue_end
	cmpl	$10, %ecx
	jne	LBB124_2
	.loc	19 236 28
	movq	-656(%rbp), %rsi
	movq	-648(%rbp), %rdx
	leaq	-640(%rbp), %rdi
	callq	__ZN4core3str21_$LT$impl$u20$str$GT$5parse17h00b33d7980e57a2bE
	movq	-672(%rbp), %rdi
	.loc	19 236 48 is_stmt 0
	leaq	-656(%rbp), %rax
	movq	%rax, -624(%rbp)
	.loc	19 236 28
	movq	-624(%rbp), %rdx
	leaq	-640(%rbp), %rsi
	callq	__ZN4core6result19Result$LT$T$C$E$GT$7map_err17h8eaaacc2cc2f17bbE
	jmp	LBB124_8
LBB124_2:
	.loc	19 242 46 is_stmt 1
	movq	-656(%rbp), %rdi
	movq	-648(%rbp), %rsi
	.loc	19 242 20 is_stmt 0
	leaq	l___unnamed_9(%rip), %rdx
	movl	$3, %ecx
	callq	__ZN10num_traits25str_to_ascii_lower_eq_str17h157087025090e99aE
	testb	$1, %al
	jne	LBB124_4
	.loc	19 243 50 is_stmt 1
	movq	-656(%rbp), %rdi
	movq	-648(%rbp), %rsi
	.loc	19 243 24 is_stmt 0
	leaq	L___unnamed_29(%rip), %rdx
	movl	$8, %ecx
	callq	__ZN10num_traits25str_to_ascii_lower_eq_str17h157087025090e99aE
	.loc	19 242 20 is_stmt 1
	andb	$1, %al
	movb	%al, -610(%rbp)
	jmp	LBB124_5
LBB124_4:
	movb	$1, -610(%rbp)
LBB124_5:
	testb	$1, -610(%rbp)
	jne	LBB124_7
	.loc	19 246 53
	movq	-656(%rbp), %rdi
	movq	-648(%rbp), %rsi
	.loc	19 246 27 is_stmt 0
	leaq	L___unnamed_30(%rip), %rdx
	movl	$4, %ecx
	callq	__ZN10num_traits25str_to_ascii_lower_eq_str17h157087025090e99aE
	testb	$1, %al
	jne	LBB124_10
	jmp	LBB124_9
LBB124_7:
	.loc	19 0 27
	movq	-672(%rbp), %rax
	.loc	19 245 28 is_stmt 1
	movsd	LCPI124_2(%rip), %xmm0
	movsd	%xmm0, 8(%rax)
	movb	$0, (%rax)
LBB124_8:
	.loc	19 0 28 is_stmt 0
	movq	-664(%rbp), %rax
	.loc	19 394 14 is_stmt 1
	addq	$800, %rsp
	popq	%rbp
	retq
LBB124_9:
	.loc	19 247 50
	movq	-656(%rbp), %rdi
	movq	-648(%rbp), %rsi
	.loc	19 247 24 is_stmt 0
	leaq	l___unnamed_31(%rip), %rdx
	movl	$9, %ecx
	callq	__ZN10num_traits25str_to_ascii_lower_eq_str17h157087025090e99aE
	.loc	19 246 27 is_stmt 1
	andb	$1, %al
	movb	%al, -609(%rbp)
	jmp	LBB124_11
LBB124_10:
	movb	$1, -609(%rbp)
LBB124_11:
	testb	$1, -609(%rbp)
	jne	LBB124_13
	.loc	19 250 53
	movq	-656(%rbp), %rdi
	movq	-648(%rbp), %rsi
	.loc	19 250 27 is_stmt 0
	leaq	l___unnamed_8(%rip), %rdx
	movl	$3, %ecx
	callq	__ZN10num_traits25str_to_ascii_lower_eq_str17h157087025090e99aE
	testb	$1, %al
	jne	LBB124_15
	jmp	LBB124_14
LBB124_13:
	.loc	19 0 27
	movq	-672(%rbp), %rax
	.loc	19 249 28 is_stmt 1
	movsd	LCPI124_1(%rip), %xmm0
	movsd	%xmm0, 8(%rax)
	movb	$0, (%rax)
	.loc	19 249 21 is_stmt 0
	jmp	LBB124_8
LBB124_14:
	.loc	19 252 53 is_stmt 1
	movq	-656(%rbp), %rdi
	movq	-648(%rbp), %rsi
	.loc	19 252 27 is_stmt 0
	leaq	L___unnamed_32(%rip), %rdx
	movl	$4, %ecx
	callq	__ZN10num_traits25str_to_ascii_lower_eq_str17h157087025090e99aE
	testb	$1, %al
	jne	LBB124_17
	jmp	LBB124_16
LBB124_15:
	.loc	19 0 27
	movq	-672(%rbp), %rax
	.loc	19 251 28 is_stmt 1
	movsd	LCPI124_7(%rip), %xmm0
	movsd	%xmm0, 8(%rax)
	movb	$0, (%rax)
	.loc	19 251 21 is_stmt 0
	jmp	LBB124_8
LBB124_16:
	.loc	19 265 66 is_stmt 1
	movq	-656(%rbp), %rsi
	movq	-648(%rbp), %rdx
	.loc	19 265 49 is_stmt 0
	leaq	-584(%rbp), %rdi
	callq	__ZN39_$LT$f64$u20$as$u20$num_traits..Num$GT$14from_str_radix16slice_shift_char17hfebd36aa1d91907fE
	movl	$1, %eax
	xorl	%ecx, %ecx
	cmpl	$1114112, -584(%rbp)
	cmoveq	%rcx, %rax
	.loc	19 265 43
	cmpq	$0, %rax
	je	LBB124_18
	jmp	LBB124_19
LBB124_17:
	.loc	19 0 43
	movq	-672(%rbp), %rax
	.loc	19 253 28 is_stmt 1
	movsd	LCPI124_6(%rip), %xmm0
	movsd	%xmm0, 8(%rax)
	movb	$0, (%rax)
	.loc	19 1 1
	jmp	LBB124_8
LBB124_18:
	.loc	19 0 1 is_stmt 0
	movq	-672(%rbp), %rax
	.loc	19 266 48 is_stmt 1
	movb	$0, 1(%rax)
	movb	$1, (%rax)
	.loc	19 266 41 is_stmt 0
	jmp	LBB124_8
LBB124_19:
	.loc	19 265 43 is_stmt 1
	cmpl	$45, -584(%rbp)
	jne	LBB124_21
	.loc	19 267 32
	movq	-576(%rbp), %rdi
	movq	-568(%rbp), %rsi
	leaq	l___unnamed_4(%rip), %rdx
	xorl	%eax, %eax
	movl	%eax, %ecx
	callq	__ZN4core3str6traits54_$LT$impl$u20$core..cmp..PartialEq$u20$for$u20$str$GT$2eq17hcfc59abb294dea3cE
	testb	$1, %al
	jne	LBB124_24
	jmp	LBB124_23
LBB124_21:
	.loc	19 269 49
	movq	-656(%rbp), %rcx
	movq	-648(%rbp), %rax
	.loc	19 269 41 is_stmt 0
	movb	$1, -608(%rbp)
	movq	%rcx, -600(%rbp)
	movq	%rax, -592(%rbp)
LBB124_22:
	.loc	19 265 22 is_stmt 1
	movb	-608(%rbp), %al
	movb	%al, -697(%rbp)
	movb	%al, %cl
	andb	$1, %cl
	movb	%cl, -137(%rbp)
	.loc	19 265 35 is_stmt 0
	movq	-600(%rbp), %rdx
	movq	%rdx, -696(%rbp)
	movq	-592(%rbp), %rcx
	movq	%rcx, -688(%rbp)
	movq	%rdx, -136(%rbp)
	movq	%rcx, -128(%rbp)
Ltmp904:
	.loc	19 273 34 is_stmt 1
	testb	$1, %al
	jne	LBB124_26
	jmp	LBB124_25
Ltmp905:
LBB124_23:
	.loc	19 268 32
	movq	-576(%rbp), %rcx
	movq	-568(%rbp), %rax
	movq	%rcx, -160(%rbp)
	movq	%rax, -152(%rbp)
Ltmp906:
	.loc	19 268 41 is_stmt 0
	movb	$0, -608(%rbp)
	movq	%rcx, -600(%rbp)
	movq	%rax, -592(%rbp)
Ltmp907:
	.loc	19 268 52
	jmp	LBB124_22
LBB124_24:
	.loc	19 0 52
	movq	-672(%rbp), %rax
	.loc	19 267 48 is_stmt 1
	movb	$0, 1(%rax)
	movb	$1, (%rax)
	.loc	19 267 41 is_stmt 0
	jmp	LBB124_8
LBB124_25:
Ltmp908:
	.loc	19 273 61 is_stmt 1
	movsd	LCPI124_0(%rip), %xmm0
	movsd	%xmm0, -560(%rbp)
	.loc	19 273 31 is_stmt 0
	jmp	LBB124_27
LBB124_26:
	.loc	19 273 48
	xorps	%xmm0, %xmm0
	movsd	%xmm0, -560(%rbp)
LBB124_27:
	.loc	19 0 48
	movq	-688(%rbp), %rsi
	movq	-696(%rbp), %rdi
Ltmp909:
	.loc	19 275 36 is_stmt 1
	movsd	-560(%rbp), %xmm0
	movsd	%xmm0, -552(%rbp)
Ltmp910:
	.loc	19 276 30
	callq	__ZN4core3str21_$LT$impl$u20$str$GT$5chars17h8510b20fc2baa975E
	movq	%rax, %rsi
	leaq	-544(%rbp), %rdi
	callq	__ZN4core4iter6traits8iterator8Iterator9enumerate17h9a795cb61bf737bbE
Ltmp911:
	.loc	19 278 36
	movl	$1114112, -520(%rbp)
Ltmp912:
	.loc	19 281 31
	leaq	-544(%rbp), %rdi
	callq	__ZN4core4iter6traits8iterator8Iterator6by_ref17he52ee8da46f24fa8E
	movq	%rax, %rdi
	callq	__ZN63_$LT$I$u20$as$u20$core..iter..traits..collect..IntoIterator$GT$9into_iter17h1dda615ea543a8eeE
	movq	%rax, -504(%rbp)
LBB124_28:
	.loc	19 0 31 is_stmt 0
	leaq	-504(%rbp), %rdi
Ltmp913:
	.loc	19 281 31
	callq	__ZN72_$LT$$RF$mut$u20$I$u20$as$u20$core..iter..traits..iterator..Iterator$GT$4next17he42ba000f1a49babE
	movl	%edx, -488(%rbp)
	movq	%rax, -496(%rbp)
	movl	$1, %eax
	xorl	%ecx, %ecx
	cmpl	$1114112, -488(%rbp)
	cmoveq	%rcx, %rax
	cmpq	$0, %rax
	jne	LBB124_30
Ltmp914:
LBB124_29:
	.loc	19 327 20 is_stmt 1
	leaq	-520(%rbp), %rdi
	callq	__ZN4core6option15Option$LT$T$GT$7is_none17h768020cdeef7044dE
	testb	$1, %al
	jne	LBB124_62
	jmp	LBB124_61
LBB124_30:
	.loc	19 0 20 is_stmt 0
	movl	-676(%rbp), %esi
Ltmp915:
	.loc	19 281 22 is_stmt 1
	movq	-496(%rbp), %rax
	movq	%rax, -712(%rbp)
	movq	%rax, -120(%rbp)
	.loc	19 281 25 is_stmt 0
	movl	-488(%rbp), %edi
	movl	%edi, -704(%rbp)
	movl	%edi, -112(%rbp)
Ltmp916:
	.loc	19 282 27 is_stmt 1
	callq	__ZN4core4char7methods22_$LT$impl$u20$char$GT$8to_digit17h5ee860be25c4ab14E
	movl	%edx, -476(%rbp)
	movl	%eax, -480(%rbp)
	movl	-480(%rbp), %eax
	.loc	19 282 21 is_stmt 0
	cmpq	$0, %rax
	jne	LBB124_32
	.loc	19 0 21
	movl	-704(%rbp), %eax
	.loc	19 310 33 is_stmt 1
	subl	$46, %eax
	je	LBB124_29
	jmp	LBB124_108
LBB124_108:
	.loc	19 0 33 is_stmt 0
	movl	-704(%rbp), %eax
	.loc	19 310 33
	subl	$69, %eax
	je	LBB124_58
	jmp	LBB124_109
LBB124_109:
	.loc	19 0 33
	movl	-704(%rbp), %eax
	.loc	19 310 33
	subl	$80, %eax
	je	LBB124_58
	jmp	LBB124_110
LBB124_110:
	.loc	19 0 33
	movl	-704(%rbp), %eax
	.loc	19 310 33
	subl	$101, %eax
	je	LBB124_58
	jmp	LBB124_111
LBB124_111:
	.loc	19 0 33
	movl	-704(%rbp), %eax
	.loc	19 310 33
	subl	$112, %eax
	je	LBB124_58
	jmp	LBB124_57
LBB124_32:
	.loc	19 0 33
	movb	-697(%rbp), %al
	movl	-676(%rbp), %ecx
	.loc	19 283 30 is_stmt 1
	movl	-476(%rbp), %edx
	movl	%edx, -716(%rbp)
	movl	%edx, -108(%rbp)
Ltmp917:
	.loc	19 285 35
	movsd	-560(%rbp), %xmm0
	.loc	19 285 41 is_stmt 0
	movl	%ecx, %ecx
	cvtsi2sd	%rcx, %xmm1
	.loc	19 285 29
	mulsd	%xmm1, %xmm0
	movsd	%xmm0, -560(%rbp)
	.loc	19 288 32 is_stmt 1
	testb	$1, %al
	jne	LBB124_34
	.loc	19 0 32 is_stmt 0
	movl	-716(%rbp), %eax
	.loc	19 291 39 is_stmt 1
	movsd	-560(%rbp), %xmm0
	.loc	19 291 46 is_stmt 0
	movl	%eax, %eax
	.loc	19 291 45
	cvtsi2sd	%rax, %xmm1
	.loc	19 291 33
	subsd	%xmm1, %xmm0
	movsd	%xmm0, -560(%rbp)
	.loc	19 288 29 is_stmt 1
	jmp	LBB124_35
LBB124_34:
	.loc	19 0 29 is_stmt 0
	movl	-716(%rbp), %eax
	.loc	19 289 39 is_stmt 1
	movsd	-560(%rbp), %xmm0
	.loc	19 289 46 is_stmt 0
	movl	%eax, %eax
	.loc	19 289 45
	cvtsi2sd	%rax, %xmm1
	.loc	19 289 33
	addsd	%xmm1, %xmm0
	movsd	%xmm0, -560(%rbp)
LBB124_35:
	.loc	19 296 32 is_stmt 1
	movsd	-552(%rbp), %xmm0
	xorps	%xmm1, %xmm1
	ucomisd	%xmm1, %xmm0
	jne	LBB124_37
	jp	LBB124_37
LBB124_36:
	.loc	19 308 40
	movsd	-560(%rbp), %xmm0
	.loc	19 308 29 is_stmt 0
	movsd	%xmm0, -552(%rbp)
Ltmp918:
	.loc	19 281 17 is_stmt 1
	jmp	LBB124_28
LBB124_37:
	.loc	19 0 17 is_stmt 0
	movb	-697(%rbp), %al
Ltmp919:
	.loc	19 297 36 is_stmt 1
	testb	$1, %al
	jne	LBB124_39
	jmp	LBB124_38
LBB124_38:
	movb	$0, -468(%rbp)
	jmp	LBB124_40
LBB124_39:
	.loc	19 297 51 is_stmt 0
	movsd	-560(%rbp), %xmm1
	.loc	19 297 58
	movsd	-552(%rbp), %xmm0
	.loc	19 297 51
	ucomisd	%xmm1, %xmm0
	setae	%al
	.loc	19 297 36
	andb	$1, %al
	movb	%al, -468(%rbp)
LBB124_40:
	testb	$1, -468(%rbp)
	jne	LBB124_42
	.loc	19 0 36
	movb	-697(%rbp), %al
	.loc	19 299 36 is_stmt 1
	xorb	$-1, %al
	testb	$1, %al
	jne	LBB124_44
	jmp	LBB124_43
LBB124_42:
	.loc	19 0 36 is_stmt 0
	movq	-672(%rbp), %rax
	.loc	19 298 46 is_stmt 1
	movsd	LCPI124_2(%rip), %xmm0
	movsd	%xmm0, 8(%rax)
	movb	$0, (%rax)
	.loc	19 1 1
	jmp	LBB124_8
LBB124_43:
	.loc	19 299 36
	movb	$0, -467(%rbp)
	jmp	LBB124_45
LBB124_44:
	.loc	19 299 52 is_stmt 0
	movsd	-560(%rbp), %xmm0
	ucomisd	-552(%rbp), %xmm0
	setae	%al
	.loc	19 299 36
	andb	$1, %al
	movb	%al, -467(%rbp)
LBB124_45:
	testb	$1, -467(%rbp)
	jne	LBB124_47
	.loc	19 0 36
	movb	-697(%rbp), %al
	.loc	19 303 36 is_stmt 1
	testb	$1, %al
	jne	LBB124_49
	jmp	LBB124_48
LBB124_47:
	.loc	19 0 36 is_stmt 0
	movq	-672(%rbp), %rax
	.loc	19 300 46 is_stmt 1
	movsd	LCPI124_1(%rip), %xmm0
	movsd	%xmm0, 8(%rax)
	movb	$0, (%rax)
	.loc	19 1 1
	jmp	LBB124_8
LBB124_48:
	.loc	19 303 36
	movb	$0, -466(%rbp)
	jmp	LBB124_50
LBB124_49:
	.loc	19 0 36 is_stmt 0
	movl	-676(%rbp), %eax
	movl	-716(%rbp), %ecx
	.loc	19 303 52
	movsd	-552(%rbp), %xmm0
	.loc	19 303 65
	movsd	-560(%rbp), %xmm1
	.loc	19 303 71
	movl	%ecx, %ecx
	cvtsi2sd	%rcx, %xmm2
	.loc	19 303 64
	subsd	%xmm2, %xmm1
	.loc	19 303 86
	movl	%eax, %eax
	cvtsi2sd	%rax, %xmm2
	.loc	19 303 64
	divsd	%xmm2, %xmm1
	.loc	19 303 51
	ucomisd	%xmm1, %xmm0
	setne	%al
	setp	%cl
	orb	%cl, %al
	.loc	19 303 36
	andb	$1, %al
	movb	%al, -466(%rbp)
LBB124_50:
	testb	$1, -466(%rbp)
	jne	LBB124_52
	.loc	19 0 36
	movb	-697(%rbp), %al
	.loc	19 305 36 is_stmt 1
	xorb	$-1, %al
	testb	$1, %al
	jne	LBB124_54
	jmp	LBB124_53
LBB124_52:
	.loc	19 0 36 is_stmt 0
	movq	-672(%rbp), %rax
	.loc	19 304 46 is_stmt 1
	movsd	LCPI124_2(%rip), %xmm0
	movsd	%xmm0, 8(%rax)
	movb	$0, (%rax)
	.loc	19 1 1
	jmp	LBB124_8
LBB124_53:
	.loc	19 305 36
	movb	$0, -465(%rbp)
	jmp	LBB124_55
LBB124_54:
	.loc	19 0 36 is_stmt 0
	movl	-676(%rbp), %eax
	movl	-716(%rbp), %ecx
	.loc	19 305 53
	movsd	-552(%rbp), %xmm0
	.loc	19 305 66
	movsd	-560(%rbp), %xmm1
	.loc	19 305 72
	movl	%ecx, %ecx
	cvtsi2sd	%rcx, %xmm2
	.loc	19 305 65
	addsd	%xmm2, %xmm1
	.loc	19 305 87
	movl	%eax, %eax
	cvtsi2sd	%rax, %xmm2
	.loc	19 305 65
	divsd	%xmm2, %xmm1
	.loc	19 305 52
	ucomisd	%xmm1, %xmm0
	setne	%al
	setp	%cl
	orb	%cl, %al
	.loc	19 305 36
	andb	$1, %al
	movb	%al, -465(%rbp)
LBB124_55:
	testb	$1, -465(%rbp)
	je	LBB124_36
	.loc	19 0 36
	movq	-672(%rbp), %rax
	.loc	19 306 46 is_stmt 1
	movsd	LCPI124_1(%rip), %xmm0
	movsd	%xmm0, 8(%rax)
	movb	$0, (%rax)
	.loc	19 1 1
	jmp	LBB124_8
Ltmp920:
LBB124_57:
	.loc	19 0 1 is_stmt 0
	movq	-672(%rbp), %rax
	.loc	19 319 40 is_stmt 1
	movb	$1, 1(%rax)
	movb	$1, (%rax)
	.loc	19 319 33 is_stmt 0
	jmp	LBB124_8
LBB124_58:
	.loc	19 0 33
	movq	-712(%rbp), %rax
	.loc	19 312 53 is_stmt 1
	addq	$1, %rax
	movq	%rax, -728(%rbp)
	setb	%al
	testb	$1, %al
	jne	LBB124_60
	.loc	19 0 53 is_stmt 0
	movq	-728(%rbp), %rax
	movl	-704(%rbp), %ecx
	.loc	19 312 49
	movl	%ecx, -448(%rbp)
	movq	%rax, -440(%rbp)
	.loc	19 312 44
	movl	-448(%rbp), %ecx
	movq	-440(%rbp), %rax
	movl	%ecx, -464(%rbp)
	movq	%rax, -456(%rbp)
	.loc	19 312 33
	movl	-464(%rbp), %ecx
	movq	-456(%rbp), %rax
	movl	%ecx, -520(%rbp)
	movq	%rax, -512(%rbp)
	.loc	19 313 33 is_stmt 1
	jmp	LBB124_29
LBB124_60:
	.loc	19 312 53
	leaq	_str.0(%rip), %rdi
	leaq	l___unnamed_33(%rip), %rdx
	movl	$28, %esi
	callq	__ZN4core9panicking5panic17hc1bc45270cf64b03E
Ltmp921:
LBB124_61:
	.loc	19 361 33
	movl	$1, %eax
	xorl	%ecx, %ecx
	cmpl	$1114112, -520(%rbp)
	cmoveq	%rcx, %rax
	.loc	19 361 27 is_stmt 0
	cmpq	$0, %rax
	je	LBB124_84
	jmp	LBB124_85
LBB124_62:
	.loc	19 328 37 is_stmt 1
	movsd	LCPI124_3(%rip), %xmm0
	movsd	%xmm0, -432(%rbp)
Ltmp922:
	.loc	19 329 35
	leaq	-544(%rbp), %rdi
	callq	__ZN4core4iter6traits8iterator8Iterator6by_ref17he52ee8da46f24fa8E
	movq	%rax, %rdi
	callq	__ZN63_$LT$I$u20$as$u20$core..iter..traits..collect..IntoIterator$GT$9into_iter17h1dda615ea543a8eeE
	movq	%rax, -424(%rbp)
LBB124_63:
	.loc	19 0 35 is_stmt 0
	leaq	-424(%rbp), %rdi
Ltmp923:
	.loc	19 329 35
	callq	__ZN72_$LT$$RF$mut$u20$I$u20$as$u20$core..iter..traits..iterator..Iterator$GT$4next17he42ba000f1a49babE
	movl	%edx, -408(%rbp)
	movq	%rax, -416(%rbp)
	movl	$1, %eax
	xorl	%ecx, %ecx
	cmpl	$1114112, -408(%rbp)
	cmoveq	%rcx, %rax
	cmpq	$0, %rax
	je	LBB124_61
	.loc	19 0 35
	movl	-676(%rbp), %esi
	.loc	19 329 26
	movq	-416(%rbp), %rax
	movq	%rax, -744(%rbp)
	movq	%rax, -104(%rbp)
	.loc	19 329 29
	movl	-408(%rbp), %edi
	movl	%edi, -732(%rbp)
	movl	%edi, -92(%rbp)
Ltmp924:
	.loc	19 330 31 is_stmt 1
	callq	__ZN4core4char7methods22_$LT$impl$u20$char$GT$8to_digit17h5ee860be25c4ab14E
	movl	%edx, -396(%rbp)
	movl	%eax, -400(%rbp)
	movl	-400(%rbp), %eax
	.loc	19 330 25 is_stmt 0
	cmpq	$0, %rax
	jne	LBB124_66
	.loc	19 0 25
	movl	-732(%rbp), %eax
	.loc	19 347 37 is_stmt 1
	subl	$69, %eax
	je	LBB124_81
	jmp	LBB124_112
LBB124_112:
	.loc	19 0 37 is_stmt 0
	movl	-732(%rbp), %eax
	.loc	19 347 37
	subl	$80, %eax
	je	LBB124_81
	jmp	LBB124_113
LBB124_113:
	.loc	19 0 37
	movl	-732(%rbp), %eax
	.loc	19 347 37
	subl	$101, %eax
	je	LBB124_81
	jmp	LBB124_114
LBB124_114:
	.loc	19 0 37
	movl	-732(%rbp), %eax
	.loc	19 347 37
	subl	$112, %eax
	je	LBB124_81
	jmp	LBB124_80
LBB124_66:
	.loc	19 0 37
	movb	-697(%rbp), %al
	movl	-676(%rbp), %ecx
	.loc	19 331 34 is_stmt 1
	movl	-396(%rbp), %edx
	movl	%edx, -748(%rbp)
	movl	%edx, -88(%rbp)
Ltmp925:
	.loc	19 333 41
	movsd	-432(%rbp), %xmm0
	.loc	19 333 49 is_stmt 0
	movl	%ecx, %ecx
	cvtsi2sd	%rcx, %xmm1
	.loc	19 333 33
	divsd	%xmm1, %xmm0
	movsd	%xmm0, -432(%rbp)
	.loc	19 335 42 is_stmt 1
	testb	$1, %al
	jne	LBB124_68
	.loc	19 0 42 is_stmt 0
	movl	-748(%rbp), %eax
	.loc	19 338 37 is_stmt 1
	movsd	-560(%rbp), %xmm0
	.loc	19 338 43 is_stmt 0
	movl	%eax, %eax
	cvtsi2sd	%rax, %xmm1
	mulsd	-432(%rbp), %xmm1
	.loc	19 338 37
	subsd	%xmm1, %xmm0
	movsd	%xmm0, -392(%rbp)
	.loc	19 335 39 is_stmt 1
	jmp	LBB124_69
LBB124_68:
	.loc	19 0 39 is_stmt 0
	movl	-748(%rbp), %eax
	.loc	19 336 37 is_stmt 1
	movsd	-560(%rbp), %xmm0
	.loc	19 336 43 is_stmt 0
	movl	%eax, %eax
	cvtsi2sd	%rax, %xmm1
	mulsd	-432(%rbp), %xmm1
	.loc	19 336 37
	addsd	%xmm1, %xmm0
	movsd	%xmm0, -392(%rbp)
LBB124_69:
	.loc	19 0 37
	movb	-697(%rbp), %al
	.loc	19 335 33 is_stmt 1
	movsd	-392(%rbp), %xmm0
	movsd	%xmm0, -560(%rbp)
	.loc	19 341 36
	testb	$1, %al
	jne	LBB124_71
	movb	$0, -378(%rbp)
	jmp	LBB124_72
LBB124_71:
	.loc	19 341 51 is_stmt 0
	movsd	-560(%rbp), %xmm1
	.loc	19 341 57
	movsd	-552(%rbp), %xmm0
	.loc	19 341 51
	ucomisd	%xmm1, %xmm0
	seta	%al
	.loc	19 341 36
	andb	$1, %al
	movb	%al, -378(%rbp)
LBB124_72:
	testb	$1, -378(%rbp)
	jne	LBB124_74
	.loc	19 0 36
	movb	-697(%rbp), %al
	.loc	19 343 36 is_stmt 1
	xorb	$-1, %al
	testb	$1, %al
	jne	LBB124_76
	jmp	LBB124_75
LBB124_74:
	.loc	19 0 36 is_stmt 0
	movq	-672(%rbp), %rax
	.loc	19 342 46 is_stmt 1
	movsd	LCPI124_2(%rip), %xmm0
	movsd	%xmm0, 8(%rax)
	movb	$0, (%rax)
	.loc	19 1 1
	jmp	LBB124_8
LBB124_75:
	.loc	19 343 36
	movb	$0, -377(%rbp)
	jmp	LBB124_77
LBB124_76:
	.loc	19 343 52 is_stmt 0
	movsd	-560(%rbp), %xmm0
	ucomisd	-552(%rbp), %xmm0
	seta	%al
	.loc	19 343 36
	andb	$1, %al
	movb	%al, -377(%rbp)
LBB124_77:
	testb	$1, -377(%rbp)
	jne	LBB124_79
	.loc	19 345 44 is_stmt 1
	movsd	-560(%rbp), %xmm0
	.loc	19 345 33 is_stmt 0
	movsd	%xmm0, -552(%rbp)
Ltmp926:
	.loc	19 329 21 is_stmt 1
	jmp	LBB124_63
LBB124_79:
	.loc	19 0 21 is_stmt 0
	movq	-672(%rbp), %rax
Ltmp927:
	.loc	19 344 46 is_stmt 1
	movsd	LCPI124_1(%rip), %xmm0
	movsd	%xmm0, 8(%rax)
	movb	$0, (%rax)
	.loc	19 1 1
	jmp	LBB124_8
Ltmp928:
LBB124_80:
	.loc	19 0 1 is_stmt 0
	movq	-672(%rbp), %rax
	.loc	19 353 44 is_stmt 1
	movb	$1, 1(%rax)
	movb	$1, (%rax)
	.loc	19 353 37 is_stmt 0
	jmp	LBB124_8
LBB124_81:
	.loc	19 0 37
	movq	-744(%rbp), %rax
	.loc	19 349 57 is_stmt 1
	addq	$1, %rax
	movq	%rax, -760(%rbp)
	setb	%al
	testb	$1, %al
	jne	LBB124_83
	.loc	19 0 57 is_stmt 0
	movq	-760(%rbp), %rax
	movl	-732(%rbp), %ecx
	.loc	19 349 53
	movl	%ecx, -360(%rbp)
	movq	%rax, -352(%rbp)
	.loc	19 349 48
	movl	-360(%rbp), %ecx
	movq	-352(%rbp), %rax
	movl	%ecx, -376(%rbp)
	movq	%rax, -368(%rbp)
	.loc	19 349 37
	movl	-376(%rbp), %ecx
	movq	-368(%rbp), %rax
	movl	%ecx, -520(%rbp)
	movq	%rax, -512(%rbp)
Ltmp929:
	.loc	19 1 1 is_stmt 1
	jmp	LBB124_61
LBB124_83:
Ltmp930:
	.loc	19 349 57
	leaq	_str.0(%rip), %rdi
	leaq	l___unnamed_33(%rip), %rdx
	movl	$28, %esi
	callq	__ZN4core9panicking5panic17hc1bc45270cf64b03E
Ltmp931:
LBB124_84:
	.loc	19 390 29
	movsd	LCPI124_3(%rip), %xmm0
	movsd	%xmm0, -344(%rbp)
	jmp	LBB124_104
LBB124_85:
	.loc	19 362 27
	movl	-520(%rbp), %eax
	movl	%eax, -772(%rbp)
	movl	%eax, -84(%rbp)
	.loc	19 362 30 is_stmt 0
	movq	-512(%rbp), %rcx
	movq	%rcx, -768(%rbp)
	movq	%rcx, -80(%rbp)
Ltmp932:
	.loc	19 363 36 is_stmt 1
	subl	$69, %eax
	je	LBB124_87
	jmp	LBB124_115
LBB124_115:
	.loc	19 0 36 is_stmt 0
	movl	-772(%rbp), %eax
	.loc	19 363 36
	subl	$80, %eax
	je	LBB124_89
	jmp	LBB124_116
LBB124_116:
	.loc	19 0 36
	movl	-772(%rbp), %eax
	.loc	19 363 36
	subl	$101, %eax
	je	LBB124_88
	jmp	LBB124_117
LBB124_117:
	.loc	19 0 36
	movl	-772(%rbp), %eax
	.loc	19 363 36
	subl	$112, %eax
	je	LBB124_90
	jmp	LBB124_86
LBB124_86:
	.loc	19 0 36
	movq	-672(%rbp), %rax
	.loc	19 366 41 is_stmt 1
	movb	$1, 1(%rax)
	movb	$1, (%rax)
	.loc	19 366 34 is_stmt 0
	jmp	LBB124_8
LBB124_87:
	.loc	19 0 34
	movl	-676(%rbp), %eax
	.loc	19 364 42 is_stmt 1
	cmpl	$10, %eax
	je	LBB124_93
	jmp	LBB124_86
LBB124_88:
	.loc	19 0 42 is_stmt 0
	movl	-676(%rbp), %eax
	.loc	19 364 42
	cmpl	$10, %eax
	je	LBB124_93
	jmp	LBB124_86
LBB124_89:
	.loc	19 0 42
	movl	-676(%rbp), %eax
	.loc	19 365 42 is_stmt 1
	cmpl	$16, %eax
	je	LBB124_91
	jmp	LBB124_86
LBB124_90:
	.loc	19 0 42 is_stmt 0
	movl	-676(%rbp), %eax
	.loc	19 365 42
	cmpl	$16, %eax
	jne	LBB124_86
LBB124_91:
	.loc	19 365 57
	movsd	LCPI124_4(%rip), %xmm0
	movsd	%xmm0, -336(%rbp)
LBB124_92:
	.loc	19 0 57
	movq	-688(%rbp), %rsi
	movq	-696(%rbp), %rdi
	movq	-768(%rbp), %rax
Ltmp933:
	.loc	19 370 40 is_stmt 1
	movq	%rax, -328(%rbp)
	.loc	19 370 36 is_stmt 0
	movq	-328(%rbp), %rdx
	leaq	l___unnamed_33(%rip), %rcx
	callq	__ZN4core3str6traits66_$LT$impl$u20$core..ops..index..Index$LT$I$GT$$u20$for$u20$str$GT$5index17hdd5e5f38183f0933E
	movq	%rax, %rsi
	movq	%rsi, -792(%rbp)
	movq	%rdx, -784(%rbp)
	.loc	19 370 35
	movq	%rsi, -72(%rbp)
	movq	%rdx, -64(%rbp)
Ltmp934:
	.loc	19 371 56 is_stmt 1
	leaq	-280(%rbp), %rdi
	callq	__ZN39_$LT$f64$u20$as$u20$num_traits..Num$GT$14from_str_radix16slice_shift_char17hfebd36aa1d91907fE
	movl	$1, %eax
	xorl	%ecx, %ecx
	cmpl	$1114112, -280(%rbp)
	cmoveq	%rcx, %rax
	.loc	19 371 50 is_stmt 0
	cmpq	$0, %rax
	je	LBB124_94
	jmp	LBB124_95
Ltmp935:
LBB124_93:
	.loc	19 364 57 is_stmt 1
	movsd	LCPI124_5(%rip), %xmm0
	movsd	%xmm0, -336(%rbp)
	jmp	LBB124_92
LBB124_94:
	.loc	19 0 57 is_stmt 0
	movq	-672(%rbp), %rax
Ltmp936:
	.loc	19 375 56 is_stmt 1
	movb	$1, 1(%rax)
	movb	$1, (%rax)
Ltmp937:
	.loc	19 1 1
	jmp	LBB124_8
LBB124_95:
Ltmp938:
	.loc	19 371 50
	movl	-280(%rbp), %eax
	movl	%eax, -796(%rbp)
	subl	$43, %eax
	je	LBB124_98
	jmp	LBB124_118
LBB124_118:
	.loc	19 0 50 is_stmt 0
	movl	-796(%rbp), %eax
	.loc	19 371 50
	subl	$45, %eax
	je	LBB124_97
	jmp	LBB124_96
LBB124_96:
	.loc	19 0 50
	movq	-784(%rbp), %rdx
	movq	-792(%rbp), %rsi
	.loc	19 374 57 is_stmt 1
	leaq	-224(%rbp), %rdi
	callq	__ZN4core3str21_$LT$impl$u20$str$GT$5parse17he3ce2e6d15b60b38E
	.loc	19 374 49 is_stmt 0
	movb	$1, -304(%rbp)
	movq	-224(%rbp), %rax
	movq	%rax, -296(%rbp)
	movq	-216(%rbp), %rax
	movq	%rax, -288(%rbp)
	.loc	19 374 77
	jmp	LBB124_99
LBB124_97:
	.loc	19 372 40 is_stmt 1
	movq	-272(%rbp), %rsi
	movq	-264(%rbp), %rdx
	movq	%rsi, -40(%rbp)
	movq	%rdx, -32(%rbp)
Ltmp939:
	.loc	19 372 57 is_stmt 0
	leaq	-256(%rbp), %rdi
	callq	__ZN4core3str21_$LT$impl$u20$str$GT$5parse17he3ce2e6d15b60b38E
	.loc	19 372 49
	movb	$0, -304(%rbp)
	movq	-256(%rbp), %rax
	movq	%rax, -296(%rbp)
	movq	-248(%rbp), %rax
	movq	%rax, -288(%rbp)
Ltmp940:
	.loc	19 372 77
	jmp	LBB124_99
LBB124_98:
	.loc	19 373 40 is_stmt 1
	movq	-272(%rbp), %rsi
	movq	-264(%rbp), %rdx
	movq	%rsi, -56(%rbp)
	movq	%rdx, -48(%rbp)
Ltmp941:
	.loc	19 373 57 is_stmt 0
	leaq	-240(%rbp), %rdi
	callq	__ZN4core3str21_$LT$impl$u20$str$GT$5parse17he3ce2e6d15b60b38E
	.loc	19 373 49
	movb	$1, -304(%rbp)
	movq	-240(%rbp), %rax
	movq	%rax, -296(%rbp)
	movq	-232(%rbp), %rax
	movq	%rax, -288(%rbp)
Ltmp942:
LBB124_99:
	.loc	19 371 30 is_stmt 1
	movb	-304(%rbp), %al
	movb	%al, %cl
	andb	$1, %cl
	movb	%cl, -17(%rbp)
	.loc	19 371 43 is_stmt 0
	movq	-296(%rbp), %rcx
	movq	%rcx, -320(%rbp)
	movq	-288(%rbp), %rcx
	movq	%rcx, -312(%rbp)
Ltmp943:
	.loc	19 384 45 is_stmt 1
	movq	-320(%rbp), %rcx
	movq	%rcx, -184(%rbp)
	movq	-312(%rbp), %rcx
	movq	%rcx, -176(%rbp)
	.loc	19 384 31 is_stmt 0
	andb	$1, %al
	movb	%al, -208(%rbp)
