	.section	__TEXT,__text,regular,pure_instructions
	.macosx_version_min 10, 7
	.file	1 "/Users/natalie/.cargo/registry/src/github.com-1ecc6299db9ec823/objc-0.2.7/src" "macros.rs"
	.globl	__ZN36_$LT$T$u20$as$u20$core..any..Any$GT$7type_id17hd22afe01f2dfca56E
	.p2align	4, 0x90
__ZN36_$LT$T$u20$as$u20$core..any..Any$GT$7type_id17hd22afe01f2dfca56E:
Lfunc_begin0:
	.file	2 "/rustc/2c8cc343237b8f7d5a3c3703e3a87f2eb2c54a74/library/core/src" "any.rs"
	.loc	2 201 0
	.cfi_startproc
	pushq	%rbp
	.cfi_def_cfa_offset 16
	.cfi_offset %rbp, -16
	movq	%rsp, %rbp
	.cfi_def_cfa_register %rbp
	subq	$16, %rsp
	movq	%rdi, -8(%rbp)
Ltmp0:
	.loc	2 202 9 prologue_end
	callq	__ZN4core3any6TypeId2of17h1f16cde761f63e09E
	.loc	2 203 6
	addq	$16, %rsp
	popq	%rbp
	retq
Ltmp1:
Lfunc_end0:
	.cfi_endproc

	.globl	__ZN3std10sys_common9backtrace26__rust_end_short_backtrace17ha6ffe756755dcf04E
	.p2align	4, 0x90
__ZN3std10sys_common9backtrace26__rust_end_short_backtrace17ha6ffe756755dcf04E:
Lfunc_begin1:
	.file	3 "/rustc/2c8cc343237b8f7d5a3c3703e3a87f2eb2c54a74/library/std/src/sys_common" "backtrace.rs"
	.loc	3 133 0
	.cfi_startproc
	pushq	%rbp
	.cfi_def_cfa_offset 16
	.cfi_offset %rbp, -16
	movq	%rsp, %rbp
	.cfi_def_cfa_register %rbp
	subq	$64, %rsp
Ltmp2:
	.loc	3 137 18 prologue_end
	movq	(%rdi), %rax
	movq	%rax, -56(%rbp)
	movq	8(%rdi), %rax
	movq	%rax, -48(%rbp)
	movq	16(%rdi), %rax
	movq	%rax, -40(%rbp)
	leaq	-56(%rbp), %rdi
Ltmp3:
	callq	__ZN3std9panicking11begin_panic28_$u7b$$u7b$closure$u7d$$u7d$17h54403355d9fa9a0bE
Ltmp4:
	.file	4 "/rustc/2c8cc343237b8f7d5a3c3703e3a87f2eb2c54a74/library/core/src" "hint.rs"
	.loc	4 295 5
	## InlineAsm Start
	## InlineAsm End
Ltmp5:
	.loc	3 143 2
	ud2
Ltmp6:
Lfunc_end1:
	.cfi_endproc

	.globl	__ZN3std9panicking11begin_panic17h3526ff72da7a59f1E
	.p2align	4, 0x90
__ZN3std9panicking11begin_panic17h3526ff72da7a59f1E:
Lfunc_begin2:
	.file	5 "/rustc/2c8cc343237b8f7d5a3c3703e3a87f2eb2c54a74/library/std/src" "panicking.rs"
	.loc	5 601 0
	.cfi_startproc
	.cfi_personality 155, _rust_eh_personality
	.cfi_lsda 16, Lexception0
	pushq	%rbp
	.cfi_def_cfa_offset 16
	.cfi_offset %rbp, -16
	movq	%rsp, %rbp
	.cfi_def_cfa_register %rbp
	subq	$112, %rsp
	movq	%rdi, -104(%rbp)
	movq	%rsi, -96(%rbp)
	movq	%rdi, -48(%rbp)
	movq	%rsi, -40(%rbp)
Ltmp10:
	.loc	5 602 5 prologue_end
	movb	$1, -49(%rbp)
Ltmp11:
	.file	6 "/rustc/2c8cc343237b8f7d5a3c3703e3a87f2eb2c54a74/library/core/src/panic" "location.rs"
	.loc	6 88 9
	movq	%rdx, -32(%rbp)
	movq	-32(%rbp), %rax
	movq	%rax, -88(%rbp)
	movq	%rax, -24(%rbp)
Ltmp12:
	.loc	6 0 9 is_stmt 0
	movq	-88(%rbp), %rax
	movq	-96(%rbp), %rcx
	movq	-104(%rbp), %rdx
Ltmp13:
	.loc	5 607 69 is_stmt 1
	movb	$0, -49(%rbp)
	movq	%rdx, -80(%rbp)
	movq	%rcx, -72(%rbp)
	movq	%rax, -64(%rbp)
Ltmp7:
	leaq	-80(%rbp), %rdi
	.loc	5 607 12 is_stmt 0
	callq	__ZN3std10sys_common9backtrace26__rust_end_short_backtrace17ha6ffe756755dcf04E
Ltmp8:
	jmp	LBB2_4
Ltmp14:
LBB2_2:
	.loc	5 642 1 is_stmt 1
	testb	$1, -49(%rbp)
	jne	LBB2_6
	jmp	LBB2_5
LBB2_3:
Ltmp9:
	.loc	5 0 1 is_stmt 0
	movq	%rax, %rcx
	movl	%edx, %eax
	movq	%rcx, -16(%rbp)
	movl	%eax, -8(%rbp)
	jmp	LBB2_2
LBB2_4:
	ud2
LBB2_5:
	.loc	5 601 1 is_stmt 1
	movq	-16(%rbp), %rdi
	callq	__Unwind_Resume
LBB2_6:
	.loc	5 642 1
	jmp	LBB2_5
Ltmp15:
Lfunc_end2:
	.cfi_endproc
	.section	__TEXT,__gcc_except_tab
	.p2align	2
GCC_except_table2:
Lexception0:
	.byte	255
	.byte	255
	.byte	1
	.uleb128 Lcst_end0-Lcst_begin0
Lcst_begin0:
	.uleb128 Ltmp7-Lfunc_begin2
	.uleb128 Ltmp8-Ltmp7
	.uleb128 Ltmp9-Lfunc_begin2
	.byte	0
	.uleb128 Ltmp8-Lfunc_begin2
	.uleb128 Lfunc_end2-Ltmp8
	.byte	0
	.byte	0
Lcst_end0:
	.p2align	2

	.section	__TEXT,__text,regular,pure_instructions
	.globl	__ZN3std9panicking11begin_panic21PanicPayload$LT$A$GT$3new17h5442c760ae60372dE
	.p2align	4, 0x90
__ZN3std9panicking11begin_panic21PanicPayload$LT$A$GT$3new17h5442c760ae60372dE:
Lfunc_begin3:
	.loc	5 616 0
	.cfi_startproc
	pushq	%rbp
	.cfi_def_cfa_offset 16
	.cfi_offset %rbp, -16
	movq	%rsp, %rbp
	.cfi_def_cfa_register %rbp
	subq	$48, %rsp
	movq	%rdi, -16(%rbp)
	movq	%rsi, -8(%rbp)
Ltmp16:
	.loc	5 617 35 prologue_end
	movq	%rdi, -32(%rbp)
	movq	%rsi, -24(%rbp)
	.loc	5 617 13 is_stmt 0
	movq	-32(%rbp), %rcx
	movq	-24(%rbp), %rax
	movq	%rcx, -48(%rbp)
	movq	%rax, -40(%rbp)
	.loc	5 618 10 is_stmt 1
	movq	-48(%rbp), %rax
	movq	-40(%rbp), %rdx
	addq	$48, %rsp
	popq	%rbp
	retq
Ltmp17:
Lfunc_end3:
	.cfi_endproc

	.globl	__ZN3std9panicking11begin_panic28_$u7b$$u7b$closure$u7d$$u7d$17h54403355d9fa9a0bE
	.p2align	4, 0x90
__ZN3std9panicking11begin_panic28_$u7b$$u7b$closure$u7d$$u7d$17h54403355d9fa9a0bE:
Lfunc_begin4:
	.loc	5 607 0
	.cfi_startproc
	.cfi_personality 155, _rust_eh_personality
	.cfi_lsda 16, Lexception1
	pushq	%rbp
	.cfi_def_cfa_offset 16
	.cfi_offset %rbp, -16
	movq	%rsp, %rbp
	.cfi_def_cfa_register %rbp
	subq	$48, %rsp
	movq	%rdi, %rax
	movq	%rax, -48(%rbp)
Ltmp21:
	.loc	5 608 53 prologue_end
	movq	(%rax), %rdi
	movq	8(%rax), %rsi
	.loc	5 608 35 is_stmt 0
	callq	__ZN3std9panicking11begin_panic21PanicPayload$LT$A$GT$3new17h5442c760ae60372dE
	movq	-48(%rbp), %rdi
	movq	%rdx, -32(%rbp)
	movq	%rax, -40(%rbp)
	.loc	5 608 59
	movq	$0, -24(%rbp)
	.loc	5 608 65
	movq	16(%rdi), %rcx
	.loc	5 608 9
	movq	-24(%rbp), %rdx
Ltmp18:
	leaq	l___unnamed_1(%rip), %rsi
	leaq	-40(%rbp), %rdi
	movl	$1, %r8d
	callq	__ZN3std9panicking20rust_panic_with_hook17h479ead1480e59d8dE
Ltmp19:
	jmp	LBB4_3
Ltmp22:
LBB4_1:
	.loc	5 607 69 is_stmt 1
	movq	-16(%rbp), %rdi
	callq	__Unwind_Resume
Ltmp23:
LBB4_2:
Ltmp20:
	.loc	5 0 69 is_stmt 0
	movq	%rax, %rcx
	movl	%edx, %eax
	movq	%rcx, -16(%rbp)
	movl	%eax, -8(%rbp)
	jmp	LBB4_1
Ltmp24:
LBB4_3:
	ud2
Lfunc_end4:
	.cfi_endproc
	.section	__TEXT,__gcc_except_tab
	.p2align	2
GCC_except_table4:
Lexception1:
	.byte	255
	.byte	255
	.byte	1
	.uleb128 Lcst_end1-Lcst_begin1
Lcst_begin1:
	.uleb128 Lfunc_begin4-Lfunc_begin4
	.uleb128 Ltmp18-Lfunc_begin4
	.byte	0
	.byte	0
	.uleb128 Ltmp18-Lfunc_begin4
	.uleb128 Ltmp19-Ltmp18
	.uleb128 Ltmp20-Lfunc_begin4
	.byte	0
	.uleb128 Ltmp19-Lfunc_begin4
	.uleb128 Lfunc_end4-Ltmp19
	.byte	0
	.byte	0
Lcst_end1:
	.p2align	2

	.section	__TEXT,__text,regular,pure_instructions
	.globl	__ZN4core3any6TypeId2of17h1f16cde761f63e09E
	.p2align	4, 0x90
__ZN4core3any6TypeId2of17h1f16cde761f63e09E:
Lfunc_begin5:
	.loc	2 691 0 is_stmt 1
	.cfi_startproc
	pushq	%rbp
	.cfi_def_cfa_offset 16
	.cfi_offset %rbp, -16
	movq	%rsp, %rbp
	.cfi_def_cfa_register %rbp
	subq	$16, %rsp
Ltmp25:
	.loc	2 692 21 prologue_end
	movabsq	$-8527728395957036344, %rax
	movq	%rax, -8(%rbp)
	movq	-8(%rbp), %rax
	.loc	2 692 9 is_stmt 0
	movq	%rax, -16(%rbp)
	.loc	2 693 6 is_stmt 1
	movq	-16(%rbp), %rax
	addq	$16, %rsp
	popq	%rbp
	retq
Ltmp26:
Lfunc_end5:
	.cfi_endproc

	.p2align	4, 0x90
__ZN4core3fmt9Arguments6new_v117hae9e272bf3ac02d7E:
Lfunc_begin6:
	.file	7 "/rustc/2c8cc343237b8f7d5a3c3703e3a87f2eb2c54a74/library/core/src/fmt" "mod.rs"
	.loc	7 399 0
	.cfi_startproc
	pushq	%rbp
	.cfi_def_cfa_offset 16
	.cfi_offset %rbp, -16
	movq	%rsp, %rbp
	.cfi_def_cfa_register %rbp
	subq	$160, %rsp
	movq	%r8, -152(%rbp)
	movq	%rcx, -144(%rbp)
	movq	%rdx, -136(%rbp)
	movq	%rsi, -128(%rbp)
	movq	%rdi, -120(%rbp)
	movq	%rdi, -112(%rbp)
	movq	%rsi, -32(%rbp)
	movq	%rdx, -24(%rbp)
	movq	%rcx, -16(%rbp)
	movq	%r8, -8(%rbp)
Ltmp27:
	.loc	7 400 12 prologue_end
	cmpq	%r8, %rdx
	jb	LBB6_2
	.loc	7 0 12 is_stmt 0
	movq	-136(%rbp), %rax
	movq	-152(%rbp), %rcx
	.loc	7 400 56
	addq	$1, %rcx
	.loc	7 400 41
	cmpq	%rcx, %rax
	seta	%al
	.loc	7 400 12
	andb	$1, %al
	movb	%al, -97(%rbp)
	jmp	LBB6_3
LBB6_2:
	movb	$1, -97(%rbp)
LBB6_3:
	testb	$1, -97(%rbp)
	jne	LBB6_5
	.loc	7 0 12
	movq	-112(%rbp), %rax
	movq	-120(%rbp), %rcx
	movq	-152(%rbp), %rdx
	movq	-144(%rbp), %rsi
	movq	-136(%rbp), %rdi
	movq	-128(%rbp), %r8
	.loc	7 403 34 is_stmt 1
	movq	$0, -48(%rbp)
	.loc	7 403 9 is_stmt 0
	movq	%r8, 16(%rcx)
	movq	%rdi, 24(%rcx)
	movq	-48(%rbp), %r8
	movq	-40(%rbp), %rdi
	movq	%r8, (%rcx)
	movq	%rdi, 8(%rcx)
	movq	%rsi, 32(%rcx)
	movq	%rdx, 40(%rcx)
	.loc	7 404 6 is_stmt 1
	addq	$160, %rsp
	popq	%rbp
	retq
LBB6_5:
	.loc	7 401 13
	leaq	l___unnamed_3(%rip), %rsi
	leaq	l___unnamed_4(%rip), %rcx
	xorl	%eax, %eax
	movl	%eax, %r8d
	leaq	-96(%rbp), %rdi
	movq	%rdi, -160(%rbp)
	movl	$1, %edx
	callq	__ZN4core3fmt9Arguments6new_v117hae9e272bf3ac02d7E
	movq	-160(%rbp), %rdi
	leaq	l___unnamed_5(%rip), %rsi
	callq	__ZN4core9panicking9panic_fmt17h9b5d807e24bcaaedE
Ltmp28:
Lfunc_end6:
	.cfi_endproc

	.globl	__ZN4core3mem7replace17hffa7d027612567d1E
	.p2align	4, 0x90
__ZN4core3mem7replace17hffa7d027612567d1E:
Lfunc_begin7:
	.file	8 "/rustc/2c8cc343237b8f7d5a3c3703e3a87f2eb2c54a74/library/core/src/mem" "mod.rs"
	.loc	8 905 0
	.cfi_startproc
	pushq	%rbp
	.cfi_def_cfa_offset 16
	.cfi_offset %rbp, -16
	movq	%rsp, %rbp
	.cfi_def_cfa_register %rbp
	subq	$184, %rsp
	movq	%rdi, -184(%rbp)
	movq	%rsi, -176(%rbp)
	movq	%rdx, -168(%rbp)
	movq	%rdi, -112(%rbp)
	movq	%rsi, -104(%rbp)
	movq	%rdx, -96(%rbp)
Ltmp29:
	.loc	8 910 32 prologue_end
	movq	%rdi, -88(%rbp)
Ltmp30:
	.file	9 "/rustc/2c8cc343237b8f7d5a3c3703e3a87f2eb2c54a74/library/core/src/ptr" "mod.rs"
	.loc	9 1157 34
	leaq	-128(%rbp), %rax
	movq	%rax, -80(%rbp)
	.loc	9 1157 9 is_stmt 0
	movq	(%rdi), %rax
	movq	%rax, -128(%rbp)
	movq	8(%rdi), %rax
	movq	%rax, -120(%rbp)
	.loc	9 1158 9 is_stmt 1
	movq	-128(%rbp), %rcx
	movq	%rcx, -160(%rbp)
	movq	-120(%rbp), %rax
	movq	%rax, -152(%rbp)
	movq	%rcx, -72(%rbp)
	movq	%rax, -64(%rbp)
	.loc	9 0 9 is_stmt 0
	movq	-152(%rbp), %rdx
	movq	-160(%rbp), %rax
	movq	-184(%rbp), %rcx
	movq	-168(%rbp), %rsi
	movq	-176(%rbp), %rdi
Ltmp31:
	.file	10 "/rustc/2c8cc343237b8f7d5a3c3703e3a87f2eb2c54a74/library/core/src/mem" "maybe_uninit.rs"
	.loc	10 627 38 is_stmt 1
	movq	%rax, -40(%rbp)
	movq	%rdx, -32(%rbp)
Ltmp32:
	.file	11 "/rustc/2c8cc343237b8f7d5a3c3703e3a87f2eb2c54a74/library/core/src/mem" "manually_drop.rs"
	.loc	11 89 9
	movq	%rax, -24(%rbp)
	movq	%rdx, -16(%rbp)
Ltmp33:
	.loc	8 911 20
	movq	%rcx, -8(%rbp)
	.loc	8 911 26 is_stmt 0
	movq	%rdi, -144(%rbp)
	movq	%rsi, -136(%rbp)
Ltmp34:
	.loc	9 1354 9 is_stmt 1
	movq	-144(%rbp), %rsi
	movq	-136(%rbp), %rdi
	movq	%rdi, 8(%rcx)
	movq	%rsi, (%rcx)
Ltmp35:
	.loc	8 914 2
	addq	$184, %rsp
	popq	%rbp
	retq
Ltmp36:
Lfunc_end7:
	.cfi_endproc

	.p2align	4, 0x90
__ZN4core3ptr28drop_in_place$LT$$RF$str$GT$17he36adeeefbc8c3f9E:
Lfunc_begin8:
	.loc	9 490 0
	.cfi_startproc
	pushq	%rbp
	.cfi_def_cfa_offset 16
	.cfi_offset %rbp, -16
	movq	%rsp, %rbp
	.cfi_def_cfa_register %rbp
	pushq	%rax
	movq	%rdi, -8(%rbp)
Ltmp37:
	.loc	9 490 1 prologue_end
	addq	$8, %rsp
	popq	%rbp
	retq
Ltmp38:
Lfunc_end8:
	.cfi_endproc

	.globl	__ZN4core3ptr48drop_in_place$LT$objc..message..MessageError$GT$17h5c4247deb9137b06E
	.p2align	4, 0x90
__ZN4core3ptr48drop_in_place$LT$objc..message..MessageError$GT$17h5c4247deb9137b06E:
Lfunc_begin9:
	.loc	9 490 0
	.cfi_startproc
	pushq	%rbp
	.cfi_def_cfa_offset 16
	.cfi_offset %rbp, -16
	movq	%rsp, %rbp
	.cfi_def_cfa_register %rbp
	subq	$16, %rsp
	movq	%rdi, -8(%rbp)
Ltmp39:
	.loc	9 490 1 prologue_end
	callq	__ZN4core3ptr42drop_in_place$LT$alloc..string..String$GT$17hef0d0483296c488eE
	addq	$16, %rsp
	popq	%rbp
	retq
Ltmp40:
Lfunc_end9:
	.cfi_endproc

	.globl	__ZN4core3ptr48drop_in_place$LT$objc..rc..strong..StrongPtr$GT$17hb33c59f6efb9efe4E
	.p2align	4, 0x90
__ZN4core3ptr48drop_in_place$LT$objc..rc..strong..StrongPtr$GT$17hb33c59f6efb9efe4E:
Lfunc_begin10:
	.loc	9 490 0
	.cfi_startproc
	pushq	%rbp
	.cfi_def_cfa_offset 16
	.cfi_offset %rbp, -16
	movq	%rsp, %rbp
	.cfi_def_cfa_register %rbp
	subq	$16, %rsp
	movq	%rdi, -8(%rbp)
Ltmp41:
	.loc	9 490 1 prologue_end
	callq	__ZN69_$LT$objc..rc..strong..StrongPtr$u20$as$u20$core..ops..drop..Drop$GT$4drop17h0a7eca7e31cb2bd6E
	addq	$16, %rsp
	popq	%rbp
	retq
Ltmp42:
Lfunc_end10:
	.cfi_endproc

	.globl	__ZN4core3ptr66drop_in_place$LT$dyn$u20$core..any..Any$u2b$core..marker..Send$GT$17hbe97a8e4fecd2ef6E
	.p2align	4, 0x90
__ZN4core3ptr66drop_in_place$LT$dyn$u20$core..any..Any$u2b$core..marker..Send$GT$17hbe97a8e4fecd2ef6E:
Lfunc_begin11:
	.loc	9 490 0
	.cfi_startproc
	pushq	%rbp
	.cfi_def_cfa_offset 16
	.cfi_offset %rbp, -16
	movq	%rsp, %rbp
	.cfi_def_cfa_register %rbp
	subq	$16, %rsp
	movq	%rdi, -16(%rbp)
	movq	%rsi, -8(%rbp)
Ltmp43:
	.loc	9 490 1 prologue_end
	callq	*(%rsi)
	addq	$16, %rsp
	popq	%rbp
	retq
Ltmp44:
Lfunc_end11:
	.cfi_endproc

	.p2align	4, 0x90
__ZN4core3ptr77drop_in_place$LT$std..panicking..begin_panic..PanicPayload$LT$$RF$str$GT$$GT$17hdb91e2c85a16b1a9E:
Lfunc_begin12:
	.loc	9 490 0
	.cfi_startproc
	pushq	%rbp
	.cfi_def_cfa_offset 16
	.cfi_offset %rbp, -16
	movq	%rsp, %rbp
	.cfi_def_cfa_register %rbp
	pushq	%rax
	movq	%rdi, -8(%rbp)
Ltmp45:
	.loc	9 490 1 prologue_end
	addq	$8, %rsp
	popq	%rbp
	retq
Ltmp46:
Lfunc_end12:
	.cfi_endproc

	.globl	__ZN4core3ptr7mut_ptr31_$LT$impl$u20$$BP$mut$u20$T$GT$7is_null17hb585e89fbbaf0558E
	.p2align	4, 0x90
__ZN4core3ptr7mut_ptr31_$LT$impl$u20$$BP$mut$u20$T$GT$7is_null17hb585e89fbbaf0558E:
Lfunc_begin13:
	.file	12 "/rustc/2c8cc343237b8f7d5a3c3703e3a87f2eb2c54a74/library/core/src/ptr" "mut_ptr.rs"
	.loc	12 35 0
	.cfi_startproc
	pushq	%rbp
	.cfi_def_cfa_offset 16
	.cfi_offset %rbp, -16
	movq	%rsp, %rbp
	.cfi_def_cfa_register %rbp
	subq	$48, %rsp
	movq	%rdi, -40(%rbp)
Ltmp47:
	.loc	12 52 36 prologue_end
	movq	%rdi, -48(%rbp)
	.loc	12 52 18 is_stmt 0
	movq	-48(%rbp), %rax
	movq	%rax, -32(%rbp)
Ltmp48:
	.loc	12 38 13 is_stmt 1
	movq	%rax, -24(%rbp)
Ltmp49:
	.loc	12 215 33
	movq	%rax, -16(%rbp)
	.loc	12 215 18 is_stmt 0
	movq	%rax, -8(%rbp)
Ltmp50:
	.loc	12 38 13 is_stmt 1
	cmpq	$0, -8(%rbp)
	sete	%al
Ltmp51:
	.loc	12 53 6
	andb	$1, %al
	movzbl	%al, %eax
	addq	$48, %rsp
	popq	%rbp
	retq
Ltmp52:
Lfunc_end13:
	.cfi_endproc

	.globl	__ZN4core3ptr91drop_in_place$LT$alloc..boxed..Box$LT$dyn$u20$core..any..Any$u2b$core..marker..Send$GT$$GT$17he18e1cbd9a5df960E
	.p2align	4, 0x90
__ZN4core3ptr91drop_in_place$LT$alloc..boxed..Box$LT$dyn$u20$core..any..Any$u2b$core..marker..Send$GT$$GT$17he18e1cbd9a5df960E:
Lfunc_begin14:
	.loc	9 490 0
	.cfi_startproc
	.cfi_personality 155, _rust_eh_personality
	.cfi_lsda 16, Lexception2
	pushq	%rbp
	.cfi_def_cfa_offset 16
	.cfi_offset %rbp, -16
	movq	%rsp, %rbp
	.cfi_def_cfa_register %rbp
	subq	$32, %rsp
	movq	%rdi, %rax
	movq	%rax, -32(%rbp)
	movq	%rax, -24(%rbp)
Ltmp59:
	.loc	9 490 1 prologue_end
	movq	(%rax), %rdi
	movq	8(%rax), %rax
	movq	(%rax), %rax
Ltmp53:
	callq	*%rax
Ltmp54:
	jmp	LBB14_3
LBB14_1:
	.loc	9 0 1 is_stmt 0
	movq	-32(%rbp), %rax
	.loc	9 490 1
	movq	(%rax), %rdi
	movq	8(%rax), %rsi
Ltmp56:
	callq	__ZN5alloc5alloc8box_free17hdc753e37fb07f6b9E
Ltmp57:
	jmp	LBB14_5
LBB14_2:
Ltmp55:
	.loc	9 0 1
	movq	%rax, %rcx
	movl	%edx, %eax
	movq	%rcx, -16(%rbp)
	movl	%eax, -8(%rbp)
	jmp	LBB14_1
LBB14_3:
	movq	-32(%rbp), %rax
	.loc	9 490 1
	movq	(%rax), %rdi
	movq	8(%rax), %rsi
	callq	__ZN5alloc5alloc8box_free17hdc753e37fb07f6b9E
	addq	$32, %rsp
	popq	%rbp
	retq
LBB14_4:
Ltmp58:
	callq	__ZN4core9panicking19panic_cannot_unwind17h1fbca7e1d7f56ae1E
LBB14_5:
	movq	-16(%rbp), %rdi
	callq	__Unwind_Resume
Ltmp60:
Lfunc_end14:
	.cfi_endproc
	.section	__TEXT,__gcc_except_tab
	.p2align	2
GCC_except_table14:
Lexception2:
	.byte	255
	.byte	255
	.byte	1
	.uleb128 Lcst_end2-Lcst_begin2
Lcst_begin2:
	.uleb128 Ltmp53-Lfunc_begin14
	.uleb128 Ltmp54-Ltmp53
	.uleb128 Ltmp55-Lfunc_begin14
	.byte	0
	.uleb128 Ltmp56-Lfunc_begin14
	.uleb128 Ltmp57-Ltmp56
	.uleb128 Ltmp58-Lfunc_begin14
	.byte	0
	.uleb128 Ltmp57-Lfunc_begin14
	.uleb128 Lfunc_end14-Ltmp57
	.byte	0
	.byte	0
Lcst_end2:
	.p2align	2

	.section	__TEXT,__text,regular,pure_instructions
	.globl	__ZN4core3ptr99drop_in_place$LT$objc_id..id..Id$LT$objc_foundation..string..NSString$C$objc_id..id..Shared$GT$$GT$17h65d5c703e7b40c9bE
	.p2align	4, 0x90
__ZN4core3ptr99drop_in_place$LT$objc_id..id..Id$LT$objc_foundation..string..NSString$C$objc_id..id..Shared$GT$$GT$17h65d5c703e7b40c9bE:
Lfunc_begin15:
	.loc	9 490 0 is_stmt 1
	.cfi_startproc
	pushq	%rbp
	.cfi_def_cfa_offset 16
	.cfi_offset %rbp, -16
	movq	%rsp, %rbp
	.cfi_def_cfa_register %rbp
	subq	$16, %rsp
	movq	%rdi, -8(%rbp)
Ltmp61:
	.loc	9 490 1 prologue_end
	callq	__ZN4core3ptr48drop_in_place$LT$objc..rc..strong..StrongPtr$GT$17hb33c59f6efb9efe4E
	addq	$16, %rsp
	popq	%rbp
	retq
Ltmp62:
Lfunc_end15:
	.cfi_endproc

	.p2align	4, 0x90
__ZN4core4sync6atomic11AtomicUsize4load17h414ac7215cdd4711E:
Lfunc_begin16:
	.file	13 "/rustc/2c8cc343237b8f7d5a3c3703e3a87f2eb2c54a74/library/core/src/sync" "atomic.rs"
	.loc	13 2125 0
	.cfi_startproc
	pushq	%rbp
	.cfi_def_cfa_offset 16
	.cfi_offset %rbp, -16
	movq	%rsp, %rbp
	.cfi_def_cfa_register %rbp
	subq	$32, %rsp
	movb	%sil, %al
	movq	%rdi, -24(%rbp)
	movb	%al, -9(%rbp)
Ltmp63:
	.loc	13 2127 38 prologue_end
	movq	%rdi, -8(%rbp)
	.loc	13 2127 26 is_stmt 0
	movzbl	%al, %esi
	callq	__ZN4core4sync6atomic11atomic_load17h38c27615fc794740E
	.loc	13 2128 14 is_stmt 1
	addq	$32, %rsp
	popq	%rbp
	retq
Ltmp64:
Lfunc_end16:
	.cfi_endproc

	.p2align	4, 0x90
__ZN4core4sync6atomic11AtomicUsize5store17h6f28dde4ed03a931E:
Lfunc_begin17:
	.loc	13 2152 0
	.cfi_startproc
	pushq	%rbp
	.cfi_def_cfa_offset 16
	.cfi_offset %rbp, -16
	movq	%rsp, %rbp
	.cfi_def_cfa_register %rbp
	subq	$32, %rsp
	movb	%dl, %al
	movq	%rdi, -32(%rbp)
	movq	%rsi, -24(%rbp)
	movb	%al, -9(%rbp)
Ltmp65:
	.loc	13 2154 39 prologue_end
	movq	%rdi, -8(%rbp)
	.loc	13 2154 26 is_stmt 0
	movzbl	%al, %edx
	callq	__ZN4core4sync6atomic12atomic_store17h96a39aea984d4a5dE
	.loc	13 2155 14 is_stmt 1
	addq	$32, %rsp
	popq	%rbp
	retq
Ltmp66:
Lfunc_end17:
	.cfi_endproc

	.globl	__ZN4core9panicking13panic_display17h0e09fb0b7d155fc4E
	.p2align	4, 0x90
__ZN4core9panicking13panic_display17h0e09fb0b7d155fc4E:
Lfunc_begin18:
	.file	14 "/rustc/2c8cc343237b8f7d5a3c3703e3a87f2eb2c54a74/library/core/src" "panicking.rs"
	.loc	14 146 0
	.cfi_startproc
	pushq	%rbp
	.cfi_def_cfa_offset 16
	.cfi_offset %rbp, -16
	movq	%rsp, %rbp
	.cfi_def_cfa_register %rbp
	subq	$144, %rsp
	movq	%rsi, -136(%rbp)
	movq	%rdi, -48(%rbp)
Ltmp67:
	.loc	14 147 15 prologue_end
	movq	%rdi, -40(%rbp)
Ltmp68:
	.loc	7 328 23
	movq	%rdi, -32(%rbp)
	.loc	7 328 26 is_stmt 0
	movq	__ZN66_$LT$objc..message..MessageError$u20$as$u20$core..fmt..Display$GT$3fmt17h2969be6726a93804E@GOTPCREL(%rip), %rax
	movq	%rax, -24(%rbp)
Ltmp69:
	.loc	7 347 42 is_stmt 1
	movq	%rax, -16(%rbp)
	movq	-16(%rbp), %rax
	.loc	7 347 68 is_stmt 0
	movq	%rdi, -8(%rbp)
	movq	-8(%rbp), %rcx
	.loc	7 347 18
	movq	%rcx, -64(%rbp)
	movq	%rax, -56(%rbp)
Ltmp70:
	.loc	14 147 15 is_stmt 1
	movq	-64(%rbp), %rcx
	movq	-56(%rbp), %rax
	movq	%rcx, -80(%rbp)
	movq	%rax, -72(%rbp)
	leaq	l___unnamed_6(%rip), %rsi
	leaq	-128(%rbp), %rdi
	movq	%rdi, -144(%rbp)
	leaq	-80(%rbp), %rcx
	movl	$1, %r8d
	movq	%r8, %rdx
	callq	__ZN4core3fmt9Arguments6new_v117hae9e272bf3ac02d7E
	movq	-144(%rbp), %rdi
	movq	-136(%rbp), %rsi
	.loc	14 147 5 is_stmt 0
	callq	__ZN4core9panicking9panic_fmt17h9b5d807e24bcaaedE
Ltmp71:
Lfunc_end18:
	.cfi_endproc

	.globl	__ZN4objc7message8platform15send_unverified17h05373f8facd1fa9bE
	.p2align	4, 0x90
__ZN4objc7message8platform15send_unverified17h05373f8facd1fa9bE:
Lfunc_begin19:
	.file	15 "/Users/natalie/.cargo/registry/src/github.com-1ecc6299db9ec823/objc-0.2.7/src/message/apple" "mod.rs"
	.loc	15 21 0 is_stmt 1
	.cfi_startproc
	.cfi_personality 155, _rust_eh_personality
	.cfi_lsda 16, Lexception3
	pushq	%rbp
	.cfi_def_cfa_offset 16
	.cfi_offset %rbp, -16
	movq	%rsp, %rbp
	.cfi_def_cfa_register %rbp
	subq	$128, %rsp
	movq	%rsi, -112(%rbp)
	movq	%rdi, -104(%rbp)
	movq	%rdi, -96(%rbp)
	movq	%rdx, -72(%rbp)
	movq	-72(%rbp), %rax
	movq	%rax, -80(%rbp)
	movq	%rsi, -48(%rbp)
Ltmp77:
	.loc	15 24 9 prologue_end
	movb	$0, -49(%rbp)
	movb	$1, -49(%rbp)
	.loc	15 24 20 is_stmt 0
	movq	%rsi, -32(%rbp)
Ltmp72:
Ltmp78:
	.loc	15 25 23 is_stmt 1
	callq	__ZN4objc7message8platform4arch11msg_send_fn17h1492aa02ac940edeE
Ltmp73:
	movq	%rax, -88(%rbp)
	jmp	LBB19_3
Ltmp79:
LBB19_1:
	.loc	15 29 1
	testb	$1, -49(%rbp)
	jne	LBB19_6
	jmp	LBB19_5
LBB19_2:
Ltmp76:
	.loc	15 0 1 is_stmt 0
	movq	%rax, %rcx
	movl	%edx, %eax
	movq	%rcx, -24(%rbp)
	movl	%eax, -16(%rbp)
	jmp	LBB19_1
LBB19_3:
	movq	-112(%rbp), %rsi
	movq	-88(%rbp), %rdi
Ltmp80:
	.loc	15 25 23 is_stmt 1
	movq	%rdi, -8(%rbp)
Ltmp81:
	.loc	15 27 42
	movq	-80(%rbp), %rax
	movq	%rax, -64(%rbp)
	.loc	15 27 47 is_stmt 0
	movb	$0, -49(%rbp)
	.loc	15 27 9
	movq	-64(%rbp), %rdx
Ltmp74:
	callq	__ZN60_$LT$$LP$$RP$$u20$as$u20$objc..message..MessageArguments$GT$6invoke17h068eb4af7a73aff5E
Ltmp75:
	movq	%rax, -120(%rbp)
	jmp	LBB19_4
LBB19_4:
	.loc	15 0 9
	movq	-96(%rbp), %rax
	movq	-104(%rbp), %rcx
	movq	-120(%rbp), %rdx
	.loc	15 26 5 is_stmt 1
	movq	%rdx, (%rcx)
	movq	$0, 8(%rcx)
Ltmp82:
	.loc	15 29 2
	addq	$128, %rsp
	popq	%rbp
	retq
LBB19_5:
	.loc	15 21 1
	movq	-24(%rbp), %rdi
	callq	__Unwind_Resume
LBB19_6:
	.loc	15 29 1
	jmp	LBB19_5
Ltmp83:
Lfunc_end19:
	.cfi_endproc
	.section	__TEXT,__gcc_except_tab
	.p2align	2
GCC_except_table19:
Lexception3:
	.byte	255
	.byte	255
	.byte	1
	.uleb128 Lcst_end3-Lcst_begin3
Lcst_begin3:
	.uleb128 Ltmp72-Lfunc_begin19
	.uleb128 Ltmp75-Ltmp72
	.uleb128 Ltmp76-Lfunc_begin19
	.byte	0
	.uleb128 Ltmp75-Lfunc_begin19
	.uleb128 Lfunc_end19-Ltmp75
	.byte	0
	.byte	0
Lcst_end3:
	.p2align	2

	.section	__TEXT,__text,regular,pure_instructions
	.globl	__ZN4objc7message8platform15send_unverified17h49989dd9822ed540E
	.p2align	4, 0x90
__ZN4objc7message8platform15send_unverified17h49989dd9822ed540E:
Lfunc_begin20:
	.loc	15 21 0
	.cfi_startproc
	.cfi_personality 155, _rust_eh_personality
	.cfi_lsda 16, Lexception4
	pushq	%rbp
	.cfi_def_cfa_offset 16
	.cfi_offset %rbp, -16
	movq	%rsp, %rbp
	.cfi_def_cfa_register %rbp
	subq	$128, %rsp
	movq	%rcx, -120(%rbp)
	movq	%rsi, -112(%rbp)
	movq	%rdi, -104(%rbp)
	movq	%rdi, -96(%rbp)
	movq	%rdx, -72(%rbp)
	movq	-72(%rbp), %rax
	movq	%rax, -80(%rbp)
	movq	%rsi, -48(%rbp)
	movq	%rcx, -40(%rbp)
Ltmp89:
	.loc	15 24 9 prologue_end
	movb	$0, -49(%rbp)
	movb	$1, -49(%rbp)
	.loc	15 24 20 is_stmt 0
	movq	%rsi, -32(%rbp)
Ltmp84:
Ltmp90:
	.loc	15 25 23 is_stmt 1
	callq	__ZN4objc7message8platform4arch11msg_send_fn17hb4963d9fc166d64cE
Ltmp85:
	movq	%rax, -88(%rbp)
	jmp	LBB20_3
Ltmp91:
LBB20_1:
	.loc	15 29 1
	testb	$1, -49(%rbp)
	jne	LBB20_6
	jmp	LBB20_5
LBB20_2:
Ltmp88:
	.loc	15 0 1 is_stmt 0
	movq	%rax, %rcx
	movl	%edx, %eax
	movq	%rcx, -24(%rbp)
	movl	%eax, -16(%rbp)
	jmp	LBB20_1
LBB20_3:
	movq	-120(%rbp), %rcx
	movq	-112(%rbp), %rsi
	movq	-88(%rbp), %rdi
Ltmp92:
	.loc	15 25 23 is_stmt 1
	movq	%rdi, -8(%rbp)
Ltmp93:
	.loc	15 27 42
	movq	-80(%rbp), %rax
	movq	%rax, -64(%rbp)
	.loc	15 27 47 is_stmt 0
	movb	$0, -49(%rbp)
	.loc	15 27 9
	movq	-64(%rbp), %rdx
Ltmp86:
	callq	__ZN64_$LT$$LP$A$C$$RP$$u20$as$u20$objc..message..MessageArguments$GT$6invoke17h815b6d4da1cc3f82E
Ltmp87:
	movq	%rax, -128(%rbp)
	jmp	LBB20_4
LBB20_4:
	.loc	15 0 9
	movq	-96(%rbp), %rax
	movq	-104(%rbp), %rcx
	movq	-128(%rbp), %rdx
	.loc	15 26 5 is_stmt 1
	movq	%rdx, (%rcx)
	movq	$0, 8(%rcx)
Ltmp94:
	.loc	15 29 2
	addq	$128, %rsp
	popq	%rbp
	retq
LBB20_5:
	.loc	15 21 1
	movq	-24(%rbp), %rdi
	callq	__Unwind_Resume
LBB20_6:
	.loc	15 29 1
	jmp	LBB20_5
Ltmp95:
Lfunc_end20:
	.cfi_endproc
	.section	__TEXT,__gcc_except_tab
	.p2align	2
GCC_except_table20:
Lexception4:
	.byte	255
	.byte	255
	.byte	1
	.uleb128 Lcst_end4-Lcst_begin4
Lcst_begin4:
	.uleb128 Ltmp84-Lfunc_begin20
	.uleb128 Ltmp87-Ltmp84
	.uleb128 Ltmp88-Lfunc_begin20
	.byte	0
	.uleb128 Ltmp87-Lfunc_begin20
	.uleb128 Lfunc_end20-Ltmp87
	.byte	0
	.byte	0
Lcst_end4:
	.p2align	2

	.section	__TEXT,__text,regular,pure_instructions
	.globl	__ZN4objc7message8platform15send_unverified17h4c6a3dbe7ceb9744E
	.p2align	4, 0x90
__ZN4objc7message8platform15send_unverified17h4c6a3dbe7ceb9744E:
Lfunc_begin21:
	.loc	15 21 0
	.cfi_startproc
	.cfi_personality 155, _rust_eh_personality
	.cfi_lsda 16, Lexception5
	pushq	%rbp
	.cfi_def_cfa_offset 16
	.cfi_offset %rbp, -16
	movq	%rsp, %rbp
	.cfi_def_cfa_register %rbp
	subq	$128, %rsp
	movq	%rcx, -120(%rbp)
	movq	%rsi, -112(%rbp)
	movq	%rdi, -104(%rbp)
	movq	%rdi, -96(%rbp)
	movq	%rdx, -72(%rbp)
	movq	-72(%rbp), %rax
	movq	%rax, -80(%rbp)
	movq	%rsi, -48(%rbp)
	movq	%rcx, -40(%rbp)
Ltmp101:
	.loc	15 24 9 prologue_end
	movb	$0, -49(%rbp)
	movb	$1, -49(%rbp)
	.loc	15 24 20 is_stmt 0
	movq	%rsi, -32(%rbp)
Ltmp96:
Ltmp102:
	.loc	15 25 23 is_stmt 1
	callq	__ZN4objc7message8platform4arch11msg_send_fn17h2751ab48390cbc69E
Ltmp97:
	movq	%rax, -88(%rbp)
	jmp	LBB21_3
Ltmp103:
LBB21_1:
	.loc	15 29 1
	testb	$1, -49(%rbp)
	jne	LBB21_6
	jmp	LBB21_5
LBB21_2:
Ltmp100:
	.loc	15 0 1 is_stmt 0
	movq	%rax, %rcx
	movl	%edx, %eax
	movq	%rcx, -24(%rbp)
	movl	%eax, -16(%rbp)
	jmp	LBB21_1
LBB21_3:
	movq	-120(%rbp), %rcx
	movq	-112(%rbp), %rsi
	movq	-88(%rbp), %rdi
Ltmp104:
	.loc	15 25 23 is_stmt 1
	movq	%rdi, -8(%rbp)
Ltmp105:
	.loc	15 27 42
	movq	-80(%rbp), %rax
	movq	%rax, -64(%rbp)
	.loc	15 27 47 is_stmt 0
	movb	$0, -49(%rbp)
	.loc	15 27 9
	movq	-64(%rbp), %rdx
Ltmp98:
	callq	__ZN64_$LT$$LP$A$C$$RP$$u20$as$u20$objc..message..MessageArguments$GT$6invoke17h3cd2251d1bb37f06E
Ltmp99:
	movb	%al, -121(%rbp)
	jmp	LBB21_4
LBB21_4:
	.loc	15 0 9
	movq	-96(%rbp), %rax
	movq	-104(%rbp), %rcx
	movb	-121(%rbp), %dl
	.loc	15 26 5 is_stmt 1
	movb	%dl, (%rcx)
	movq	$0, 8(%rcx)
Ltmp106:
	.loc	15 29 2
	addq	$128, %rsp
	popq	%rbp
	retq
LBB21_5:
	.loc	15 21 1
	movq	-24(%rbp), %rdi
	callq	__Unwind_Resume
LBB21_6:
	.loc	15 29 1
	jmp	LBB21_5
Ltmp107:
Lfunc_end21:
	.cfi_endproc
	.section	__TEXT,__gcc_except_tab
	.p2align	2
GCC_except_table21:
Lexception5:
	.byte	255
	.byte	255
	.byte	1
	.uleb128 Lcst_end5-Lcst_begin5
Lcst_begin5:
	.uleb128 Ltmp96-Lfunc_begin21
	.uleb128 Ltmp99-Ltmp96
	.uleb128 Ltmp100-Lfunc_begin21
	.byte	0
	.uleb128 Ltmp99-Lfunc_begin21
	.uleb128 Lfunc_end21-Ltmp99
	.byte	0
	.byte	0
Lcst_end5:
	.p2align	2

	.section	__TEXT,__text,regular,pure_instructions
	.globl	__ZN4objc7message8platform15send_unverified17h7bf0b217e6aae99bE
	.p2align	4, 0x90
__ZN4objc7message8platform15send_unverified17h7bf0b217e6aae99bE:
Lfunc_begin22:
	.loc	15 21 0
	.cfi_startproc
	.cfi_personality 155, _rust_eh_personality
	.cfi_lsda 16, Lexception6
	pushq	%rbp
	.cfi_def_cfa_offset 16
	.cfi_offset %rbp, -16
	movq	%rsp, %rbp
	.cfi_def_cfa_register %rbp
	subq	$128, %rsp
	movq	%rsi, -112(%rbp)
	movq	%rdi, -104(%rbp)
	movq	%rdi, -96(%rbp)
	movq	%rdx, -72(%rbp)
	movq	-72(%rbp), %rax
	movq	%rax, -80(%rbp)
	movq	%rsi, -48(%rbp)
Ltmp113:
	.loc	15 24 9 prologue_end
	movb	$0, -49(%rbp)
	movb	$1, -49(%rbp)
	.loc	15 24 20 is_stmt 0
	movq	%rsi, -32(%rbp)
Ltmp108:
Ltmp114:
	.loc	15 25 23 is_stmt 1
	callq	__ZN4objc7message8platform4arch11msg_send_fn17h1492aa02ac940edeE
Ltmp109:
	movq	%rax, -88(%rbp)
	jmp	LBB22_3
Ltmp115:
LBB22_1:
	.loc	15 29 1
	testb	$1, -49(%rbp)
	jne	LBB22_6
	jmp	LBB22_5
LBB22_2:
Ltmp112:
	.loc	15 0 1 is_stmt 0
	movq	%rax, %rcx
	movl	%edx, %eax
	movq	%rcx, -24(%rbp)
	movl	%eax, -16(%rbp)
	jmp	LBB22_1
LBB22_3:
	movq	-112(%rbp), %rsi
	movq	-88(%rbp), %rdi
Ltmp116:
	.loc	15 25 23 is_stmt 1
	movq	%rdi, -8(%rbp)
Ltmp117:
	.loc	15 27 42
	movq	-80(%rbp), %rax
	movq	%rax, -64(%rbp)
	.loc	15 27 47 is_stmt 0
	movb	$0, -49(%rbp)
	.loc	15 27 9
	movq	-64(%rbp), %rdx
Ltmp110:
	callq	__ZN60_$LT$$LP$$RP$$u20$as$u20$objc..message..MessageArguments$GT$6invoke17h068eb4af7a73aff5E
Ltmp111:
	movq	%rax, -120(%rbp)
	jmp	LBB22_4
LBB22_4:
	.loc	15 0 9
	movq	-96(%rbp), %rax
	movq	-104(%rbp), %rcx
	movq	-120(%rbp), %rdx
	.loc	15 26 5 is_stmt 1
	movq	%rdx, (%rcx)
	movq	$0, 8(%rcx)
Ltmp118:
	.loc	15 29 2
	addq	$128, %rsp
	popq	%rbp
	retq
LBB22_5:
	.loc	15 21 1
	movq	-24(%rbp), %rdi
	callq	__Unwind_Resume
LBB22_6:
	.loc	15 29 1
	jmp	LBB22_5
Ltmp119:
Lfunc_end22:
	.cfi_endproc
	.section	__TEXT,__gcc_except_tab
	.p2align	2
GCC_except_table22:
Lexception6:
	.byte	255
	.byte	255
	.byte	1
	.uleb128 Lcst_end6-Lcst_begin6
Lcst_begin6:
	.uleb128 Ltmp108-Lfunc_begin22
	.uleb128 Ltmp111-Ltmp108
	.uleb128 Ltmp112-Lfunc_begin22
	.byte	0
	.uleb128 Ltmp111-Lfunc_begin22
	.uleb128 Lfunc_end22-Ltmp111
	.byte	0
	.byte	0
Lcst_end6:
	.p2align	2

	.section	__TEXT,__text,regular,pure_instructions
	.globl	__ZN4objc7message8platform15send_unverified17h89a1560ebbba2a7fE
	.p2align	4, 0x90
__ZN4objc7message8platform15send_unverified17h89a1560ebbba2a7fE:
Lfunc_begin23:
	.loc	15 21 0
	.cfi_startproc
	.cfi_personality 155, _rust_eh_personality
	.cfi_lsda 16, Lexception7
	pushq	%rbp
	.cfi_def_cfa_offset 16
	.cfi_offset %rbp, -16
	movq	%rsp, %rbp
	.cfi_def_cfa_register %rbp
	subq	$128, %rsp
	movq	%rcx, -120(%rbp)
	movq	%rsi, -112(%rbp)
	movq	%rdi, -104(%rbp)
	movq	%rdi, -96(%rbp)
	movq	%rdx, -72(%rbp)
	movq	-72(%rbp), %rax
	movq	%rax, -80(%rbp)
	movq	%rsi, -48(%rbp)
	movq	%rcx, -40(%rbp)
Ltmp125:
	.loc	15 24 9 prologue_end
	movb	$0, -49(%rbp)
	movb	$1, -49(%rbp)
	.loc	15 24 20 is_stmt 0
	movq	%rsi, -32(%rbp)
Ltmp120:
Ltmp126:
	.loc	15 25 23 is_stmt 1
	callq	__ZN4objc7message8platform4arch11msg_send_fn17h2751ab48390cbc69E
Ltmp121:
	movq	%rax, -88(%rbp)
	jmp	LBB23_3
Ltmp127:
LBB23_1:
	.loc	15 29 1
	testb	$1, -49(%rbp)
	jne	LBB23_6
	jmp	LBB23_5
LBB23_2:
Ltmp124:
	.loc	15 0 1 is_stmt 0
	movq	%rax, %rcx
	movl	%edx, %eax
	movq	%rcx, -24(%rbp)
	movl	%eax, -16(%rbp)
	jmp	LBB23_1
LBB23_3:
	movq	-120(%rbp), %rcx
	movq	-112(%rbp), %rsi
	movq	-88(%rbp), %rdi
Ltmp128:
	.loc	15 25 23 is_stmt 1
	movq	%rdi, -8(%rbp)
Ltmp129:
	.loc	15 27 42
	movq	-80(%rbp), %rax
	movq	%rax, -64(%rbp)
	.loc	15 27 47 is_stmt 0
	movb	$0, -49(%rbp)
	.loc	15 27 9
	movq	-64(%rbp), %rdx
Ltmp122:
	callq	__ZN64_$LT$$LP$A$C$$RP$$u20$as$u20$objc..message..MessageArguments$GT$6invoke17h502553a905d0f162E
Ltmp123:
	movb	%al, -121(%rbp)
	jmp	LBB23_4
LBB23_4:
	.loc	15 0 9
	movq	-96(%rbp), %rax
	movq	-104(%rbp), %rcx
	movb	-121(%rbp), %dl
	.loc	15 26 5 is_stmt 1
	movb	%dl, (%rcx)
	movq	$0, 8(%rcx)
Ltmp130:
	.loc	15 29 2
	addq	$128, %rsp
	popq	%rbp
	retq
LBB23_5:
	.loc	15 21 1
	movq	-24(%rbp), %rdi
	callq	__Unwind_Resume
LBB23_6:
	.loc	15 29 1
	jmp	LBB23_5
Ltmp131:
Lfunc_end23:
	.cfi_endproc
	.section	__TEXT,__gcc_except_tab
	.p2align	2
GCC_except_table23:
Lexception7:
	.byte	255
	.byte	255
	.byte	1
	.uleb128 Lcst_end7-Lcst_begin7
Lcst_begin7:
	.uleb128 Ltmp120-Lfunc_begin23
	.uleb128 Ltmp123-Ltmp120
	.uleb128 Ltmp124-Lfunc_begin23
	.byte	0
	.uleb128 Ltmp123-Lfunc_begin23
	.uleb128 Lfunc_end23-Ltmp123
	.byte	0
	.byte	0
Lcst_end7:
	.p2align	2

	.section	__TEXT,__text,regular,pure_instructions
	.globl	__ZN4objc7message8platform15send_unverified17ha0de9776f005aed4E
	.p2align	4, 0x90
__ZN4objc7message8platform15send_unverified17ha0de9776f005aed4E:
Lfunc_begin24:
	.loc	15 21 0
	.cfi_startproc
	.cfi_personality 155, _rust_eh_personality
	.cfi_lsda 16, Lexception8
	pushq	%rbp
	.cfi_def_cfa_offset 16
	.cfi_offset %rbp, -16
	movq	%rsp, %rbp
	.cfi_def_cfa_register %rbp
	subq	$128, %rsp
	movq	%rcx, -120(%rbp)
	movq	%rsi, -112(%rbp)
	movq	%rdi, -104(%rbp)
	movq	%rdi, -96(%rbp)
	movq	%rdx, -72(%rbp)
	movq	-72(%rbp), %rax
	movq	%rax, -80(%rbp)
	movq	%rsi, -48(%rbp)
	movq	%rcx, -40(%rbp)
Ltmp137:
	.loc	15 24 9 prologue_end
	movb	$0, -49(%rbp)
	movb	$1, -49(%rbp)
	.loc	15 24 20 is_stmt 0
	movq	%rsi, -32(%rbp)
Ltmp132:
Ltmp138:
	.loc	15 25 23 is_stmt 1
	callq	__ZN4objc7message8platform4arch11msg_send_fn17h2751ab48390cbc69E
Ltmp133:
	movq	%rax, -88(%rbp)
	jmp	LBB24_3
Ltmp139:
LBB24_1:
	.loc	15 29 1
	testb	$1, -49(%rbp)
	jne	LBB24_6
	jmp	LBB24_5
LBB24_2:
Ltmp136:
	.loc	15 0 1 is_stmt 0
	movq	%rax, %rcx
	movl	%edx, %eax
	movq	%rcx, -24(%rbp)
	movl	%eax, -16(%rbp)
	jmp	LBB24_1
LBB24_3:
	movq	-120(%rbp), %rcx
	movq	-112(%rbp), %rsi
	movq	-88(%rbp), %rdi
Ltmp140:
	.loc	15 25 23 is_stmt 1
	movq	%rdi, -8(%rbp)
Ltmp141:
	.loc	15 27 42
	movq	-80(%rbp), %rax
	movq	%rax, -64(%rbp)
	.loc	15 27 47 is_stmt 0
	movb	$0, -49(%rbp)
	.loc	15 27 9
	movq	-64(%rbp), %rdx
Ltmp134:
	callq	__ZN64_$LT$$LP$A$C$$RP$$u20$as$u20$objc..message..MessageArguments$GT$6invoke17h21bc180fc0e5f7dfE
Ltmp135:
	movb	%al, -121(%rbp)
	jmp	LBB24_4
LBB24_4:
	.loc	15 0 9
	movq	-96(%rbp), %rax
	movq	-104(%rbp), %rcx
	movb	-121(%rbp), %dl
	.loc	15 26 5 is_stmt 1
	movb	%dl, (%rcx)
	movq	$0, 8(%rcx)
Ltmp142:
	.loc	15 29 2
	addq	$128, %rsp
	popq	%rbp
	retq
LBB24_5:
	.loc	15 21 1
	movq	-24(%rbp), %rdi
	callq	__Unwind_Resume
LBB24_6:
	.loc	15 29 1
	jmp	LBB24_5
Ltmp143:
Lfunc_end24:
	.cfi_endproc
	.section	__TEXT,__gcc_except_tab
	.p2align	2
GCC_except_table24:
Lexception8:
	.byte	255
	.byte	255
	.byte	1
	.uleb128 Lcst_end8-Lcst_begin8
Lcst_begin8:
	.uleb128 Ltmp132-Lfunc_begin24
	.uleb128 Ltmp135-Ltmp132
	.uleb128 Ltmp136-Lfunc_begin24
	.byte	0
	.uleb128 Ltmp135-Lfunc_begin24
	.uleb128 Lfunc_end24-Ltmp135
	.byte	0
	.byte	0
Lcst_end8:
	.p2align	2

	.section	__TEXT,__text,regular,pure_instructions
	.globl	__ZN4objc7message8platform15send_unverified17hb0aad910d1fb0e51E
	.p2align	4, 0x90
__ZN4objc7message8platform15send_unverified17hb0aad910d1fb0e51E:
Lfunc_begin25:
	.loc	15 21 0
	.cfi_startproc
	.cfi_personality 155, _rust_eh_personality
	.cfi_lsda 16, Lexception9
	pushq	%rbp
	.cfi_def_cfa_offset 16
	.cfi_offset %rbp, -16
	movq	%rsp, %rbp
	.cfi_def_cfa_register %rbp
	subq	$128, %rsp
	movq	%rsi, -112(%rbp)
	movq	%rdi, -104(%rbp)
	movq	%rdi, -96(%rbp)
	movq	%rdx, -72(%rbp)
	movq	-72(%rbp), %rax
	movq	%rax, -80(%rbp)
	movq	%rsi, -48(%rbp)
Ltmp149:
	.loc	15 24 9 prologue_end
	movb	$0, -49(%rbp)
	movb	$1, -49(%rbp)
	.loc	15 24 20 is_stmt 0
	movq	%rsi, -32(%rbp)
Ltmp144:
Ltmp150:
	.loc	15 25 23 is_stmt 1
	callq	__ZN4objc7message8platform4arch11msg_send_fn17h1492aa02ac940edeE
Ltmp145:
	movq	%rax, -88(%rbp)
	jmp	LBB25_3
Ltmp151:
LBB25_1:
	.loc	15 29 1
	testb	$1, -49(%rbp)
	jne	LBB25_6
	jmp	LBB25_5
LBB25_2:
Ltmp148:
	.loc	15 0 1 is_stmt 0
	movq	%rax, %rcx
	movl	%edx, %eax
	movq	%rcx, -24(%rbp)
	movl	%eax, -16(%rbp)
	jmp	LBB25_1
LBB25_3:
	movq	-112(%rbp), %rsi
	movq	-88(%rbp), %rdi
Ltmp152:
	.loc	15 25 23 is_stmt 1
	movq	%rdi, -8(%rbp)
Ltmp153:
	.loc	15 27 42
	movq	-80(%rbp), %rax
	movq	%rax, -64(%rbp)
	.loc	15 27 47 is_stmt 0
	movb	$0, -49(%rbp)
	.loc	15 27 9
	movq	-64(%rbp), %rdx
Ltmp146:
	callq	__ZN60_$LT$$LP$$RP$$u20$as$u20$objc..message..MessageArguments$GT$6invoke17h068eb4af7a73aff5E
Ltmp147:
	movq	%rax, -120(%rbp)
	jmp	LBB25_4
LBB25_4:
	.loc	15 0 9
	movq	-96(%rbp), %rax
	movq	-104(%rbp), %rcx
	movq	-120(%rbp), %rdx
	.loc	15 26 5 is_stmt 1
	movq	%rdx, (%rcx)
	movq	$0, 8(%rcx)
Ltmp154:
	.loc	15 29 2
	addq	$128, %rsp
	popq	%rbp
	retq
LBB25_5:
	.loc	15 21 1
	movq	-24(%rbp), %rdi
	callq	__Unwind_Resume
LBB25_6:
	.loc	15 29 1
	jmp	LBB25_5
Ltmp155:
Lfunc_end25:
	.cfi_endproc
	.section	__TEXT,__gcc_except_tab
	.p2align	2
GCC_except_table25:
Lexception9:
	.byte	255
	.byte	255
	.byte	1
	.uleb128 Lcst_end9-Lcst_begin9
Lcst_begin9:
	.uleb128 Ltmp144-Lfunc_begin25
	.uleb128 Ltmp147-Ltmp144
	.uleb128 Ltmp148-Lfunc_begin25
	.byte	0
	.uleb128 Ltmp147-Lfunc_begin25
	.uleb128 Lfunc_end25-Ltmp147
	.byte	0
	.byte	0
Lcst_end9:
	.p2align	2

	.section	__TEXT,__text,regular,pure_instructions
	.globl	__ZN4objc7message8platform15send_unverified17hb4da07484adb48fbE
	.p2align	4, 0x90
__ZN4objc7message8platform15send_unverified17hb4da07484adb48fbE:
Lfunc_begin26:
	.loc	15 21 0
	.cfi_startproc
	.cfi_personality 155, _rust_eh_personality
	.cfi_lsda 16, Lexception10
	pushq	%rbp
	.cfi_def_cfa_offset 16
	.cfi_offset %rbp, -16
	movq	%rsp, %rbp
	.cfi_def_cfa_register %rbp
	subq	$128, %rsp
	movq	%rsi, -112(%rbp)
	movq	%rdi, -104(%rbp)
	movq	%rdi, -96(%rbp)
	movq	%rdx, -72(%rbp)
	movq	-72(%rbp), %rax
	movq	%rax, -80(%rbp)
	movq	%rsi, -48(%rbp)
Ltmp161:
	.loc	15 24 9 prologue_end
	movb	$0, -49(%rbp)
	movb	$1, -49(%rbp)
	.loc	15 24 20 is_stmt 0
	movq	%rsi, -32(%rbp)
Ltmp156:
Ltmp162:
	.loc	15 25 23 is_stmt 1
	callq	__ZN4objc7message8platform4arch11msg_send_fn17h1492aa02ac940edeE
Ltmp157:
	movq	%rax, -88(%rbp)
	jmp	LBB26_3
Ltmp163:
LBB26_1:
	.loc	15 29 1
	testb	$1, -49(%rbp)
	jne	LBB26_6
	jmp	LBB26_5
LBB26_2:
Ltmp160:
	.loc	15 0 1 is_stmt 0
	movq	%rax, %rcx
	movl	%edx, %eax
	movq	%rcx, -24(%rbp)
	movl	%eax, -16(%rbp)
	jmp	LBB26_1
LBB26_3:
	movq	-112(%rbp), %rsi
	movq	-88(%rbp), %rdi
Ltmp164:
	.loc	15 25 23 is_stmt 1
	movq	%rdi, -8(%rbp)
Ltmp165:
	.loc	15 27 42
	movq	-80(%rbp), %rax
	movq	%rax, -64(%rbp)
	.loc	15 27 47 is_stmt 0
	movb	$0, -49(%rbp)
	.loc	15 27 9
	movq	-64(%rbp), %rdx
Ltmp158:
	callq	__ZN60_$LT$$LP$$RP$$u20$as$u20$objc..message..MessageArguments$GT$6invoke17h068eb4af7a73aff5E
Ltmp159:
	movq	%rax, -120(%rbp)
	jmp	LBB26_4
LBB26_4:
	.loc	15 0 9
	movq	-96(%rbp), %rax
	movq	-104(%rbp), %rcx
	movq	-120(%rbp), %rdx
	.loc	15 26 5 is_stmt 1
	movq	%rdx, (%rcx)
	movq	$0, 8(%rcx)
Ltmp166:
	.loc	15 29 2
	addq	$128, %rsp
	popq	%rbp
	retq
LBB26_5:
	.loc	15 21 1
	movq	-24(%rbp), %rdi
	callq	__Unwind_Resume
LBB26_6:
	.loc	15 29 1
	jmp	LBB26_5
Ltmp167:
Lfunc_end26:
	.cfi_endproc
	.section	__TEXT,__gcc_except_tab
	.p2align	2
GCC_except_table26:
Lexception10:
	.byte	255
	.byte	255
	.byte	1
	.uleb128 Lcst_end10-Lcst_begin10
Lcst_begin10:
	.uleb128 Ltmp156-Lfunc_begin26
	.uleb128 Ltmp159-Ltmp156
	.uleb128 Ltmp160-Lfunc_begin26
	.byte	0
	.uleb128 Ltmp159-Lfunc_begin26
	.uleb128 Lfunc_end26-Ltmp159
	.byte	0
	.byte	0
Lcst_end10:
	.p2align	2

	.section	__TEXT,__text,regular,pure_instructions
	.globl	__ZN4objc7message8platform15send_unverified17hc9ccc7c24809cb6eE
	.p2align	4, 0x90
__ZN4objc7message8platform15send_unverified17hc9ccc7c24809cb6eE:
Lfunc_begin27:
	.loc	15 21 0
	.cfi_startproc
	.cfi_personality 155, _rust_eh_personality
	.cfi_lsda 16, Lexception11
	pushq	%rbp
	.cfi_def_cfa_offset 16
	.cfi_offset %rbp, -16
	movq	%rsp, %rbp
	.cfi_def_cfa_register %rbp
	subq	$128, %rsp
	movq	%rcx, -120(%rbp)
	movq	%rsi, -112(%rbp)
	movq	%rdi, -104(%rbp)
	movq	%rdi, -96(%rbp)
	movq	%rdx, -72(%rbp)
	movq	-72(%rbp), %rax
	movq	%rax, -80(%rbp)
	movq	%rsi, -48(%rbp)
	movq	%rcx, -40(%rbp)
Ltmp173:
	.loc	15 24 9 prologue_end
	movb	$0, -49(%rbp)
	movb	$1, -49(%rbp)
	.loc	15 24 20 is_stmt 0
	movq	%rsi, -32(%rbp)
Ltmp168:
Ltmp174:
	.loc	15 25 23 is_stmt 1
	callq	__ZN4objc7message8platform4arch11msg_send_fn17h2751ab48390cbc69E
Ltmp169:
	movq	%rax, -88(%rbp)
	jmp	LBB27_3
Ltmp175:
LBB27_1:
	.loc	15 29 1
	testb	$1, -49(%rbp)
	jne	LBB27_6
	jmp	LBB27_5
LBB27_2:
Ltmp172:
	.loc	15 0 1 is_stmt 0
	movq	%rax, %rcx
	movl	%edx, %eax
	movq	%rcx, -24(%rbp)
	movl	%eax, -16(%rbp)
	jmp	LBB27_1
LBB27_3:
	movq	-120(%rbp), %rcx
	movq	-112(%rbp), %rsi
	movq	-88(%rbp), %rdi
Ltmp176:
	.loc	15 25 23 is_stmt 1
	movq	%rdi, -8(%rbp)
Ltmp177:
	.loc	15 27 42
	movq	-80(%rbp), %rax
	movq	%rax, -64(%rbp)
	.loc	15 27 47 is_stmt 0
	movb	$0, -49(%rbp)
	.loc	15 27 9
	movq	-64(%rbp), %rdx
Ltmp170:
	callq	__ZN64_$LT$$LP$A$C$$RP$$u20$as$u20$objc..message..MessageArguments$GT$6invoke17h0a728a3f2770f2a2E
Ltmp171:
	movb	%al, -121(%rbp)
	jmp	LBB27_4
LBB27_4:
	.loc	15 0 9
	movq	-96(%rbp), %rax
	movq	-104(%rbp), %rcx
	movb	-121(%rbp), %dl
	.loc	15 26 5 is_stmt 1
	movb	%dl, (%rcx)
	movq	$0, 8(%rcx)
Ltmp178:
	.loc	15 29 2
	addq	$128, %rsp
	popq	%rbp
	retq
LBB27_5:
	.loc	15 21 1
	movq	-24(%rbp), %rdi
	callq	__Unwind_Resume
LBB27_6:
	.loc	15 29 1
	jmp	LBB27_5
Ltmp179:
Lfunc_end27:
	.cfi_endproc
	.section	__TEXT,__gcc_except_tab
	.p2align	2
GCC_except_table27:
Lexception11:
	.byte	255
	.byte	255
	.byte	1
	.uleb128 Lcst_end11-Lcst_begin11
Lcst_begin11:
	.uleb128 Ltmp168-Lfunc_begin27
	.uleb128 Ltmp171-Ltmp168
	.uleb128 Ltmp172-Lfunc_begin27
	.byte	0
	.uleb128 Ltmp171-Lfunc_begin27
	.uleb128 Lfunc_end27-Ltmp171
	.byte	0
	.byte	0
Lcst_end11:
	.p2align	2

	.section	__TEXT,__text,regular,pure_instructions
	.globl	__ZN4objc7message8platform15send_unverified17hdee2ff71e23eae8aE
	.p2align	4, 0x90
__ZN4objc7message8platform15send_unverified17hdee2ff71e23eae8aE:
Lfunc_begin28:
	.loc	15 21 0
	.cfi_startproc
	.cfi_personality 155, _rust_eh_personality
	.cfi_lsda 16, Lexception12
	pushq	%rbp
	.cfi_def_cfa_offset 16
	.cfi_offset %rbp, -16
	movq	%rsp, %rbp
	.cfi_def_cfa_register %rbp
	subq	$128, %rsp
	movq	%rsi, -112(%rbp)
	movq	%rdi, -104(%rbp)
	movq	%rdi, -96(%rbp)
	movq	%rdx, -72(%rbp)
	movq	-72(%rbp), %rax
	movq	%rax, -80(%rbp)
	movq	%rsi, -48(%rbp)
Ltmp185:
	.loc	15 24 9 prologue_end
	movb	$0, -49(%rbp)
	movb	$1, -49(%rbp)
	.loc	15 24 20 is_stmt 0
	movq	%rsi, -32(%rbp)
Ltmp180:
Ltmp186:
	.loc	15 25 23 is_stmt 1
	callq	__ZN4objc7message8platform4arch11msg_send_fn17h89c9a0726ae98c5cE
Ltmp181:
	movq	%rax, -88(%rbp)
	jmp	LBB28_3
Ltmp187:
LBB28_1:
	.loc	15 29 1
	testb	$1, -49(%rbp)
	jne	LBB28_6
	jmp	LBB28_5
LBB28_2:
Ltmp184:
	.loc	15 0 1 is_stmt 0
	movq	%rax, %rcx
	movl	%edx, %eax
	movq	%rcx, -24(%rbp)
	movl	%eax, -16(%rbp)
	jmp	LBB28_1
LBB28_3:
	movq	-112(%rbp), %rsi
	movq	-88(%rbp), %rdi
Ltmp188:
	.loc	15 25 23 is_stmt 1
	movq	%rdi, -8(%rbp)
Ltmp189:
	.loc	15 27 42
	movq	-80(%rbp), %rax
	movq	%rax, -64(%rbp)
	.loc	15 27 47 is_stmt 0
	movb	$0, -49(%rbp)
	.loc	15 27 9
	movq	-64(%rbp), %rdx
Ltmp182:
	callq	__ZN60_$LT$$LP$$RP$$u20$as$u20$objc..message..MessageArguments$GT$6invoke17heb29ae96dd73faf8E
Ltmp183:
	movq	%rax, -120(%rbp)
	jmp	LBB28_4
LBB28_4:
	.loc	15 0 9
	movq	-96(%rbp), %rax
	movq	-104(%rbp), %rcx
	movq	-120(%rbp), %rdx
	.loc	15 26 5 is_stmt 1
	movq	%rdx, (%rcx)
	movq	$0, 8(%rcx)
Ltmp190:
	.loc	15 29 2
	addq	$128, %rsp
	popq	%rbp
	retq
LBB28_5:
	.loc	15 21 1
	movq	-24(%rbp), %rdi
	callq	__Unwind_Resume
LBB28_6:
	.loc	15 29 1
	jmp	LBB28_5
Ltmp191:
Lfunc_end28:
	.cfi_endproc
	.section	__TEXT,__gcc_except_tab
	.p2align	2
GCC_except_table28:
Lexception12:
	.byte	255
	.byte	255
	.byte	1
	.uleb128 Lcst_end12-Lcst_begin12
Lcst_begin12:
	.uleb128 Ltmp180-Lfunc_begin28
	.uleb128 Ltmp183-Ltmp180
	.uleb128 Ltmp184-Lfunc_begin28
	.byte	0
	.uleb128 Ltmp183-Lfunc_begin28
	.uleb128 Lfunc_end28-Ltmp183
	.byte	0
	.byte	0
Lcst_end12:
	.p2align	2

	.section	__TEXT,__text,regular,pure_instructions
	.globl	__ZN4objc7message8platform4arch11msg_send_fn17h1492aa02ac940edeE
	.p2align	4, 0x90
__ZN4objc7message8platform4arch11msg_send_fn17h1492aa02ac940edeE:
Lfunc_begin29:
	.file	16 "/Users/natalie/.cargo/registry/src/github.com-1ecc6299db9ec823/objc-0.2.7/src/message/apple" "x86_64.rs"
	.loc	16 13 0
	.cfi_startproc
	pushq	%rbp
	.cfi_def_cfa_offset 16
	.cfi_offset %rbp, -16
	movq	%rsp, %rbp
	.cfi_def_cfa_register %rbp
	pushq	%rax
Ltmp192:
	.loc	16 19 8 prologue_end
	movl	$8, %eax
	cmpq	$16, %rax
	jbe	LBB29_2
	.loc	16 22 9
	movq	_objc_msgSend_stret@GOTPCREL(%rip), %rax
	movq	%rax, -8(%rbp)
	.loc	16 19 5
	jmp	LBB29_3
LBB29_2:
	.loc	16 20 9
	movq	_objc_msgSend@GOTPCREL(%rip), %rax
	movq	%rax, -8(%rbp)
LBB29_3:
	.loc	16 24 2
	movq	-8(%rbp), %rax
	addq	$8, %rsp
	popq	%rbp
	retq
Ltmp193:
Lfunc_end29:
	.cfi_endproc

	.globl	__ZN4objc7message8platform4arch11msg_send_fn17h2751ab48390cbc69E
	.p2align	4, 0x90
__ZN4objc7message8platform4arch11msg_send_fn17h2751ab48390cbc69E:
Lfunc_begin30:
	.loc	16 13 0
	.cfi_startproc
	pushq	%rbp
	.cfi_def_cfa_offset 16
	.cfi_offset %rbp, -16
	movq	%rsp, %rbp
	.cfi_def_cfa_register %rbp
	pushq	%rax
Ltmp194:
	.loc	16 19 8 prologue_end
	movl	$1, %eax
	cmpq	$16, %rax
	jbe	LBB30_2
	.loc	16 22 9
	movq	_objc_msgSend_stret@GOTPCREL(%rip), %rax
	movq	%rax, -8(%rbp)
	.loc	16 19 5
	jmp	LBB30_3
LBB30_2:
	.loc	16 20 9
	movq	_objc_msgSend@GOTPCREL(%rip), %rax
	movq	%rax, -8(%rbp)
LBB30_3:
	.loc	16 24 2
	movq	-8(%rbp), %rax
	addq	$8, %rsp
	popq	%rbp
	retq
Ltmp195:
Lfunc_end30:
	.cfi_endproc

	.globl	__ZN4objc7message8platform4arch11msg_send_fn17h89c9a0726ae98c5cE
	.p2align	4, 0x90
__ZN4objc7message8platform4arch11msg_send_fn17h89c9a0726ae98c5cE:
Lfunc_begin31:
	.loc	16 13 0
	.cfi_startproc
	pushq	%rbp
	.cfi_def_cfa_offset 16
	.cfi_offset %rbp, -16
	movq	%rsp, %rbp
	.cfi_def_cfa_register %rbp
	pushq	%rax
Ltmp196:
	.loc	16 19 8 prologue_end
	movl	$8, %eax
	cmpq	$16, %rax
	jbe	LBB31_2
	.loc	16 22 9
	movq	_objc_msgSend_stret@GOTPCREL(%rip), %rax
	movq	%rax, -8(%rbp)
	.loc	16 19 5
	jmp	LBB31_3
LBB31_2:
	.loc	16 20 9
	movq	_objc_msgSend@GOTPCREL(%rip), %rax
	movq	%rax, -8(%rbp)
LBB31_3:
	.loc	16 24 2
	movq	-8(%rbp), %rax
	addq	$8, %rsp
	popq	%rbp
	retq
Ltmp197:
Lfunc_end31:
	.cfi_endproc

	.globl	__ZN4objc7message8platform4arch11msg_send_fn17hb4963d9fc166d64cE
	.p2align	4, 0x90
__ZN4objc7message8platform4arch11msg_send_fn17hb4963d9fc166d64cE:
Lfunc_begin32:
	.loc	16 13 0
	.cfi_startproc
	pushq	%rbp
	.cfi_def_cfa_offset 16
	.cfi_offset %rbp, -16
	movq	%rsp, %rbp
	.cfi_def_cfa_register %rbp
	pushq	%rax
Ltmp198:
	.loc	16 19 8 prologue_end
	movl	$8, %eax
	cmpq	$16, %rax
	jbe	LBB32_2
	.loc	16 22 9
	movq	_objc_msgSend_stret@GOTPCREL(%rip), %rax
	movq	%rax, -8(%rbp)
	.loc	16 19 5
	jmp	LBB32_3
LBB32_2:
	.loc	16 20 9
	movq	_objc_msgSend@GOTPCREL(%rip), %rax
	movq	%rax, -8(%rbp)
LBB32_3:
	.loc	16 24 2
	movq	-8(%rbp), %rax
	addq	$8, %rsp
	popq	%rbp
	retq
Ltmp199:
Lfunc_end32:
	.cfi_endproc

	.p2align	4, 0x90
__ZN4objc7runtime3Sel6as_ptr17had96c85b9ac5883dE:
Lfunc_begin33:
	.file	17 "/Users/natalie/.cargo/registry/src/github.com-1ecc6299db9ec823/objc-0.2.7/src" "runtime.rs"
	.loc	17 175 0
	.cfi_startproc
	pushq	%rbp
	.cfi_def_cfa_offset 16
	.cfi_offset %rbp, -16
	movq	%rsp, %rbp
	.cfi_def_cfa_register %rbp
	pushq	%rax
	movq	%rdi, -8(%rbp)
Ltmp200:
	.loc	17 176 9 prologue_end
	movq	(%rdi), %rax
	.loc	17 177 6
	addq	$8, %rsp
	popq	%rbp
	retq
Ltmp201:
Lfunc_end33:
	.cfi_endproc

	.p2align	4, 0x90
__ZN4objc7runtime3Sel8from_ptr17h46170875a16a98c8E:
Lfunc_begin34:
	.loc	17 167 0
	.cfi_startproc
	pushq	%rbp
	.cfi_def_cfa_offset 16
	.cfi_offset %rbp, -16
	movq	%rsp, %rbp
	.cfi_def_cfa_register %rbp
	subq	$16, %rsp
	movq	%rdi, -8(%rbp)
Ltmp202:
	.loc	17 168 9 prologue_end
	movq	%rdi, -16(%rbp)
	.loc	17 171 6
	movq	-16(%rbp), %rax
	addq	$16, %rsp
	popq	%rbp
	retq
Ltmp203:
Lfunc_end34:
	.cfi_endproc

	.p2align	4, 0x90
__ZN5alloc5alloc15exchange_malloc17hf8dc7de6aea098daE:
Lfunc_begin35:
	.file	18 "/rustc/2c8cc343237b8f7d5a3c3703e3a87f2eb2c54a74/library/alloc/src" "alloc.rs"
	.loc	18 324 0
	.cfi_startproc
	pushq	%rbp
	.cfi_def_cfa_offset 16
	.cfi_offset %rbp, -16
	movq	%rsp, %rbp
	.cfi_def_cfa_register %rbp
	subq	$208, %rsp
	movq	%rdi, -160(%rbp)
	movq	%rsi, -152(%rbp)
Ltmp204:
	.loc	18 325 61 prologue_end
	movq	%rdi, -144(%rbp)
	.loc	18 325 67 is_stmt 0
	movq	%rsi, -136(%rbp)
Ltmp205:
	.file	19 "/rustc/2c8cc343237b8f7d5a3c3703e3a87f2eb2c54a74/library/core/src/alloc" "layout.rs"
	.loc	19 120 65 is_stmt 1
	movq	%rsi, -128(%rbp)
Ltmp206:
	.file	20 "/rustc/2c8cc343237b8f7d5a3c3703e3a87f2eb2c54a74/library/core/src/ptr" "alignment.rs"
	.loc	20 89 18
	movq	%rsi, -120(%rbp)
	movq	-120(%rbp), %rax
Ltmp207:
	.loc	19 120 18
	movq	%rdi, -200(%rbp)
	movq	%rax, -192(%rbp)
Ltmp208:
	.loc	18 326 11
	leaq	l___unnamed_4(%rip), %rdi
	movq	%rdi, -112(%rbp)
	.loc	18 326 27 is_stmt 0
	movq	-200(%rbp), %rsi
	movq	-192(%rbp), %rdx
	movq	%rsi, -104(%rbp)
	movq	%rdx, -96(%rbp)
	xorl	%ecx, %ecx
Ltmp209:
	.loc	18 237 9 is_stmt 1
	callq	__ZN5alloc5alloc6Global10alloc_impl17h91f8af2a5e1a012dE
	movq	%rdx, -176(%rbp)
	movq	%rax, -184(%rbp)
Ltmp210:
	.loc	18 326 11
	movq	-184(%rbp), %rdx
	xorl	%eax, %eax
	movl	$1, %ecx
	cmpq	$0, %rdx
	cmoveq	%rcx, %rax
	.loc	18 326 5 is_stmt 0
	cmpq	$0, %rax
	jne	LBB35_2
	.loc	18 327 12 is_stmt 1
	movq	-184(%rbp), %rax
	movq	-176(%rbp), %rcx
	movq	%rax, -88(%rbp)
	movq	%rcx, -80(%rbp)
Ltmp211:
	.loc	18 327 20 is_stmt 0
	movq	%rax, -72(%rbp)
	movq	%rcx, -64(%rbp)
Ltmp212:
	.file	21 "/rustc/2c8cc343237b8f7d5a3c3703e3a87f2eb2c54a74/library/core/src/ptr" "non_null.rs"
	.loc	21 548 9 is_stmt 1
	movq	%rax, -56(%rbp)
	movq	%rcx, -48(%rbp)
Ltmp213:
	.loc	21 529 41
	movq	%rax, -40(%rbp)
	movq	%rcx, -32(%rbp)
Ltmp214:
	.loc	21 326 9
	movq	%rax, -24(%rbp)
	movq	%rcx, -16(%rbp)
Ltmp215:
	.loc	12 2037 9
	movq	%rax, -8(%rbp)
Ltmp216:
	.loc	21 201 13
	movq	%rax, -168(%rbp)
Ltmp217:
	.loc	21 326 9
	movq	-168(%rbp), %rax
Ltmp218:
	.loc	18 330 2
	addq	$208, %rsp
	popq	%rbp
	retq
LBB35_2:
Ltmp219:
	.loc	18 328 38
	movq	-200(%rbp), %rdi
	movq	-192(%rbp), %rsi
	.loc	18 328 19 is_stmt 0
	callq	__ZN5alloc5alloc18handle_alloc_error17hb5f6ff255f23ea4dE
Ltmp220:
Lfunc_end35:
	.cfi_endproc

	.p2align	4, 0x90
__ZN5alloc5alloc6Global10alloc_impl17h91f8af2a5e1a012dE:
Lfunc_begin36:
	.loc	18 172 0 is_stmt 1
	.cfi_startproc
	pushq	%rbp
	.cfi_def_cfa_offset 16
	.cfi_offset %rbp, -16
	movq	%rsp, %rbp
	.cfi_def_cfa_register %rbp
	subq	$352, %rsp
	movb	%cl, %al
	movb	%al, -345(%rbp)
	movq	%rsi, -336(%rbp)
	movq	%rdx, -328(%rbp)
	movq	%rdi, -208(%rbp)
	andb	$1, %al
	movb	%al, -193(%rbp)
Ltmp221:
	.loc	18 173 15 prologue_end
	leaq	-336(%rbp), %rax
	movq	%rax, -144(%rbp)
Ltmp222:
	.loc	19 129 9
	movq	-336(%rbp), %rax
	movq	%rax, -344(%rbp)
Ltmp223:
	.loc	18 173 9
	cmpq	$0, %rax
	jne	LBB36_2
	.loc	18 174 51
	leaq	-336(%rbp), %rax
	movq	%rax, -48(%rbp)
Ltmp224:
	.loc	19 216 71
	leaq	-336(%rbp), %rax
	movq	%rax, -40(%rbp)
Ltmp225:
	.loc	19 140 9
	movq	-328(%rbp), %rax
	movq	%rax, -32(%rbp)
Ltmp226:
	.loc	20 97 9
	movq	%rax, -232(%rbp)
	movq	-232(%rbp), %rax
	movq	%rax, -24(%rbp)
Ltmp227:
	.loc	9 599 14
	movq	%rax, -16(%rbp)
	movq	-16(%rbp), %rax
	movq	%rax, -8(%rbp)
Ltmp228:
	.loc	21 201 13
	movq	%rax, -304(%rbp)
Ltmp229:
	.loc	18 174 21
	movq	-304(%rbp), %rdi
	xorl	%eax, %eax
	movl	%eax, %esi
	callq	__ZN4core3ptr8non_null26NonNull$LT$$u5b$T$u5d$$GT$20slice_from_raw_parts17ha7a2a17f681cd444E
	.loc	18 174 18 is_stmt 0
	movq	%rax, -320(%rbp)
	movq	%rdx, -312(%rbp)
	.loc	18 174 72
	jmp	LBB36_15
LBB36_2:
	.loc	18 0 72
	movb	-345(%rbp), %al
	movq	-344(%rbp), %rcx
	.loc	18 176 13 is_stmt 1
	movq	%rcx, -136(%rbp)
Ltmp230:
	.loc	18 177 34
	testb	$1, %al
	jne	LBB36_4
	.loc	18 177 79 is_stmt 0
	movq	-336(%rbp), %rcx
	movq	-328(%rbp), %rax
	movq	%rcx, -272(%rbp)
	movq	%rax, -264(%rbp)
Ltmp231:
	.loc	18 95 27 is_stmt 1
	leaq	-272(%rbp), %rax
	movq	%rax, -104(%rbp)
Ltmp232:
	.loc	19 129 9
	movq	-272(%rbp), %rdi
Ltmp233:
	.loc	18 95 42
	leaq	-272(%rbp), %rax
	movq	%rax, -96(%rbp)
Ltmp234:
	.loc	19 140 9
	movq	-264(%rbp), %rax
	movq	%rax, -88(%rbp)
Ltmp235:
	.loc	20 97 9
	movq	%rax, -216(%rbp)
	movq	-216(%rbp), %rsi
Ltmp236:
	.loc	18 95 14
	callq	___rust_alloc
	movq	%rax, -296(%rbp)
Ltmp237:
	.loc	18 177 31
	jmp	LBB36_5
LBB36_4:
	.loc	18 177 56 is_stmt 0
	movq	-336(%rbp), %rcx
	movq	-328(%rbp), %rax
	movq	%rcx, -288(%rbp)
	movq	%rax, -280(%rbp)
Ltmp238:
	.loc	18 166 34 is_stmt 1
	leaq	-288(%rbp), %rax
	movq	%rax, -128(%rbp)
Ltmp239:
	.loc	19 129 9
	movq	-288(%rbp), %rdi
Ltmp240:
	.loc	18 166 49
	leaq	-288(%rbp), %rax
	movq	%rax, -120(%rbp)
Ltmp241:
	.loc	19 140 9
	movq	-280(%rbp), %rax
	movq	%rax, -112(%rbp)
Ltmp242:
	.loc	20 97 9
	movq	%rax, -224(%rbp)
	movq	-224(%rbp), %rsi
Ltmp243:
	.loc	18 166 14
	callq	___rust_alloc_zeroed
	movq	%rax, -296(%rbp)
Ltmp244:
LBB36_5:
	.loc	18 178 40
	movq	-296(%rbp), %rdi
	.loc	18 178 27 is_stmt 0
	callq	__ZN4core3ptr8non_null16NonNull$LT$T$GT$3new17hbe07f8c52c575838E
	movq	%rax, -240(%rbp)
Ltmp245:
	.file	22 "/rustc/2c8cc343237b8f7d5a3c3703e3a87f2eb2c54a74/library/core/src" "option.rs"
	.loc	22 1096 15 is_stmt 1
	movq	-240(%rbp), %rdx
	movl	$1, %eax
	xorl	%ecx, %ecx
	cmpq	$0, %rdx
	cmoveq	%rcx, %rax
	.loc	22 1096 9 is_stmt 0
	cmpq	$0, %rax
	jne	LBB36_7
	.loc	22 1098 21 is_stmt 1
	movq	$0, -248(%rbp)
	.loc	22 1098 28 is_stmt 0
	jmp	LBB36_8
LBB36_7:
	.loc	22 1097 18 is_stmt 1
	movq	-240(%rbp), %rax
	movq	%rax, -80(%rbp)
Ltmp246:
	.loc	22 1097 24 is_stmt 0
	movq	%rax, -248(%rbp)
Ltmp247:
LBB36_8:
	.file	23 "/rustc/2c8cc343237b8f7d5a3c3703e3a87f2eb2c54a74/library/core/src" "result.rs"
	.loc	23 2091 15 is_stmt 1
	movq	-248(%rbp), %rdx
	xorl	%eax, %eax
	movl	$1, %ecx
	cmpq	$0, %rdx
	cmoveq	%rcx, %rax
	.loc	23 2091 9 is_stmt 0
	cmpq	$0, %rax
	jne	LBB36_10
	.loc	23 2092 16 is_stmt 1
	movq	-248(%rbp), %rax
	movq	%rax, -72(%rbp)
Ltmp248:
	.loc	23 2092 22 is_stmt 0
	movq	%rax, -256(%rbp)
Ltmp249:
	.loc	23 2092 45
	jmp	LBB36_11
LBB36_10:
Ltmp250:
	.loc	23 2093 23 is_stmt 1
	movq	$0, -256(%rbp)
Ltmp251:
LBB36_11:
	.loc	18 178 27
	movq	-256(%rbp), %rdx
	xorl	%eax, %eax
	movl	$1, %ecx
	cmpq	$0, %rdx
	cmoveq	%rcx, %rax
	cmpq	$0, %rax
	jne	LBB36_13
	.loc	18 0 27 is_stmt 0
	movq	-344(%rbp), %rsi
	.loc	18 178 27
	movq	-256(%rbp), %rdi
	movq	%rdi, -64(%rbp)
Ltmp252:
	.loc	18 178 27
	movq	%rdi, -56(%rbp)
Ltmp253:
	.loc	18 179 20 is_stmt 1
	callq	__ZN4core3ptr8non_null26NonNull$LT$$u5b$T$u5d$$GT$20slice_from_raw_parts17ha7a2a17f681cd444E
	.loc	18 179 17 is_stmt 0
	movq	%rax, -320(%rbp)
	movq	%rdx, -312(%rbp)
Ltmp254:
	.loc	18 180 13 is_stmt 1
	jmp	LBB36_15
LBB36_13:
Ltmp255:
	.loc	23 2107 23
	movq	$0, -320(%rbp)
Ltmp256:
LBB36_14:
	.loc	18 182 6
	movq	-320(%rbp), %rax
	movq	-312(%rbp), %rdx
	addq	$352, %rsp
	popq	%rbp
	retq
LBB36_15:
	jmp	LBB36_14
Ltmp257:
Lfunc_end36:
	.cfi_endproc

	.globl	__ZN5alloc5alloc8box_free17hdc753e37fb07f6b9E
	.p2align	4, 0x90
__ZN5alloc5alloc8box_free17hdc753e37fb07f6b9E:
Lfunc_begin37:
	.loc	18 340 0
	.cfi_startproc
	.cfi_personality 155, _rust_eh_personality
	.cfi_lsda 16, Lexception13
	pushq	%rbp
	.cfi_def_cfa_offset 16
	.cfi_offset %rbp, -16
	movq	%rsp, %rbp
	.cfi_def_cfa_register %rbp
	subq	$304, %rsp
	movq	%rdi, -288(%rbp)
	movq	%rsi, -280(%rbp)
Ltmp261:
	.loc	18 345 32 prologue_end
	leaq	-288(%rbp), %rax
	movq	%rax, -224(%rbp)
Ltmp262:
	.file	24 "/rustc/2c8cc343237b8f7d5a3c3703e3a87f2eb2c54a74/library/core/src/ptr" "unique.rs"
	.loc	24 117 18
	leaq	-288(%rbp), %rax
	movq	%rax, -216(%rbp)
Ltmp263:
	.loc	21 376 20
	movq	-288(%rbp), %rcx
	movq	-280(%rbp), %rax
	movq	%rcx, -208(%rbp)
	movq	%rax, -200(%rbp)
Ltmp264:
	.loc	18 345 20
	movq	8(%rax), %rax
	movq	%rax, -192(%rbp)
	movq	-192(%rbp), %rcx
	movq	%rcx, -304(%rbp)
	movq	%rcx, -184(%rbp)
Ltmp265:
	.loc	18 346 38
	leaq	-288(%rbp), %rax
	movq	%rax, -176(%rbp)
Ltmp266:
	.loc	24 117 18
	leaq	-288(%rbp), %rax
	movq	%rax, -168(%rbp)
Ltmp267:
	.loc	21 376 20
	movq	-288(%rbp), %rdx
	movq	-280(%rbp), %rax
	movq	%rdx, -160(%rbp)
	movq	%rax, -152(%rbp)
Ltmp268:
	.loc	18 346 21
	movq	16(%rax), %rax
	movq	%rax, -144(%rbp)
	movq	-144(%rbp), %rax
	movq	%rax, -136(%rbp)
Ltmp269:
	.loc	18 347 56
	movq	%rcx, -128(%rbp)
	.loc	18 347 62 is_stmt 0
	movq	%rax, -120(%rbp)
Ltmp270:
	.loc	19 120 65 is_stmt 1
	movq	%rax, -112(%rbp)
Ltmp271:
	.loc	20 89 18
	movq	%rax, -104(%rbp)
	movq	-104(%rbp), %rax
	movq	%rax, -296(%rbp)
Ltmp272:
	.loc	20 0 18 is_stmt 0
	movq	-296(%rbp), %rax
	movq	-304(%rbp), %rcx
	.loc	19 120 18 is_stmt 1
	movq	%rcx, -264(%rbp)
	movq	%rax, -256(%rbp)
Ltmp273:
	.loc	18 348 37
	movq	-288(%rbp), %rax
	movq	-280(%rbp), %rcx
	movq	%rax, -96(%rbp)
	movq	%rcx, -88(%rbp)
Ltmp274:
	.loc	24 137 22
	movq	%rax, -80(%rbp)
	movq	%rcx, -72(%rbp)
Ltmp275:
	.loc	21 450 41
	movq	%rax, -64(%rbp)
	movq	%rcx, -56(%rbp)
	movq	%rax, -48(%rbp)
Ltmp276:
	.loc	21 201 13
	movq	%rax, -232(%rbp)
Ltmp277:
	.loc	24 191 18
	movq	-232(%rbp), %rax
	.loc	24 191 9 is_stmt 0
	movq	%rax, -240(%rbp)
Ltmp278:
	.loc	21 768 41 is_stmt 1
	movq	-240(%rbp), %rax
	movq	%rax, -40(%rbp)
Ltmp279:
	.loc	24 104 9
	movq	%rax, -32(%rbp)
Ltmp280:
	.loc	21 326 9
	movq	%rax, -24(%rbp)
Ltmp281:
	.loc	21 201 13
	movq	%rax, -248(%rbp)
Ltmp282:
	.loc	18 348 50
	movq	-264(%rbp), %rdx
	movq	-256(%rbp), %rcx
	.loc	18 348 9 is_stmt 0
	movq	-248(%rbp), %rsi
Ltmp258:
	leaq	-272(%rbp), %rdi
	callq	__ZN63_$LT$alloc..alloc..Global$u20$as$u20$core..alloc..Allocator$GT$10deallocate17h187c9b4fedc98ba3E
Ltmp259:
	jmp	LBB37_4
Ltmp283:
LBB37_2:
	.loc	18 340 1 is_stmt 1
	movq	-16(%rbp), %rdi
	callq	__Unwind_Resume
LBB37_3:
Ltmp260:
	.loc	18 0 1 is_stmt 0
	movq	%rax, %rcx
	movl	%edx, %eax
	movq	%rcx, -16(%rbp)
	movl	%eax, -8(%rbp)
	jmp	LBB37_2
LBB37_4:
	.loc	18 350 2 is_stmt 1
	addq	$304, %rsp
	popq	%rbp
	retq
Ltmp284:
Lfunc_end37:
	.cfi_endproc
	.section	__TEXT,__gcc_except_tab
	.p2align	2
GCC_except_table37:
Lexception13:
	.byte	255
	.byte	255
	.byte	1
	.uleb128 Lcst_end13-Lcst_begin13
Lcst_begin13:
	.uleb128 Ltmp258-Lfunc_begin37
	.uleb128 Ltmp259-Ltmp258
	.uleb128 Ltmp260-Lfunc_begin37
	.byte	0
	.uleb128 Ltmp259-Lfunc_begin37
	.uleb128 Lfunc_end37-Ltmp259
	.byte	0
	.byte	0
Lcst_end13:
	.p2align	2

	.section	__TEXT,__text,regular,pure_instructions
	.globl	__ZN5alloc5boxed16Box$LT$T$C$A$GT$11into_unique17h2bec8a4d986d85faE
	.p2align	4, 0x90
__ZN5alloc5boxed16Box$LT$T$C$A$GT$11into_unique17h2bec8a4d986d85faE:
Lfunc_begin38:
	.file	25 "/rustc/2c8cc343237b8f7d5a3c3703e3a87f2eb2c54a74/library/alloc/src" "boxed.rs"
	.loc	25 1124 0
	.cfi_startproc
	.cfi_personality 155, _rust_eh_personality
	.cfi_lsda 16, Lexception14
	pushq	%rbp
	.cfi_def_cfa_offset 16
	.cfi_offset %rbp, -16
	movq	%rsp, %rbp
	.cfi_def_cfa_register %rbp
	subq	$192, %rsp
	movq	%rdi, -168(%rbp)
	movq	%rsi, -160(%rbp)
Ltmp291:
	.loc	25 1130 13 prologue_end
	movb	$1, -113(%rbp)
	.loc	25 1130 40 is_stmt 0
	leaq	-168(%rbp), %rax
	movq	%rax, -64(%rbp)
Ltmp292:
	.loc	9 1157 34 is_stmt 1
	leaq	-112(%rbp), %rax
	movq	%rax, -56(%rbp)
Ltmp293:
	.loc	25 1131 33
	movb	$0, -113(%rbp)
	movq	-168(%rbp), %rdi
	movq	-160(%rbp), %rsi
Ltmp285:
	.loc	25 1131 23 is_stmt 0
	callq	__ZN5alloc5boxed16Box$LT$T$C$A$GT$4leak17hbfaab4ecf91763deE
Ltmp286:
	movq	%rdx, -184(%rbp)
	movq	%rax, -176(%rbp)
	jmp	LBB38_4
Ltmp294:
LBB38_2:
	.loc	25 1132 5 is_stmt 1
	jmp	LBB38_5
LBB38_3:
Ltmp287:
	.loc	25 0 5 is_stmt 0
	movq	%rax, %rcx
	movl	%edx, %eax
	movq	%rcx, -48(%rbp)
	movl	%eax, -40(%rbp)
	jmp	LBB38_2
LBB38_4:
	movq	-184(%rbp), %rax
	movq	-176(%rbp), %rcx
Ltmp295:
	.loc	25 1131 23 is_stmt 1
	movq	%rcx, -32(%rbp)
	movq	%rax, -24(%rbp)
Ltmp296:
	.loc	24 180 34
	movq	%rcx, -16(%rbp)
	movq	%rax, -8(%rbp)
Ltmp297:
	.loc	21 781 18
	movq	%rcx, -104(%rbp)
	movq	%rax, -96(%rbp)
Ltmp298:
	.loc	24 191 18
	movq	-104(%rbp), %rcx
	movq	-96(%rbp), %rax
	.loc	24 191 9 is_stmt 0
	movq	%rcx, -136(%rbp)
	movq	%rax, -128(%rbp)
Ltmp299:
	.loc	25 1131 9 is_stmt 1
	movq	-136(%rbp), %rcx
	movq	-128(%rbp), %rax
	movq	%rcx, -152(%rbp)
	movq	%rax, -144(%rbp)
Ltmp300:
	.loc	25 1132 6
	movq	-152(%rbp), %rax
	movq	-144(%rbp), %rdx
	addq	$192, %rsp
	popq	%rbp
	retq
LBB38_5:
	.loc	25 1132 5 is_stmt 0
	testb	$1, -113(%rbp)
	jne	LBB38_7
LBB38_6:
	.loc	25 1124 5 is_stmt 1
	movq	-48(%rbp), %rdi
	callq	__Unwind_Resume
LBB38_7:
Ltmp288:
	.loc	25 0 5 is_stmt 0
	leaq	-168(%rbp), %rdi
	.loc	25 1132 5 is_stmt 1
	callq	__ZN4core3ptr91drop_in_place$LT$alloc..boxed..Box$LT$dyn$u20$core..any..Any$u2b$core..marker..Send$GT$$GT$17he18e1cbd9a5df960E
Ltmp289:
	jmp	LBB38_6
LBB38_8:
Ltmp290:
	.loc	25 1124 5
	callq	__ZN4core9panicking19panic_cannot_unwind17h1fbca7e1d7f56ae1E
Ltmp301:
Lfunc_end38:
	.cfi_endproc
	.section	__TEXT,__gcc_except_tab
	.p2align	2
GCC_except_table38:
Lexception14:
	.byte	255
	.byte	255
	.byte	1
	.uleb128 Lcst_end14-Lcst_begin14
Lcst_begin14:
	.uleb128 Ltmp285-Lfunc_begin38
	.uleb128 Ltmp286-Ltmp285
	.uleb128 Ltmp287-Lfunc_begin38
	.byte	0
	.uleb128 Ltmp286-Lfunc_begin38
	.uleb128 Ltmp288-Ltmp286
	.byte	0
	.byte	0
	.uleb128 Ltmp288-Lfunc_begin38
	.uleb128 Ltmp289-Ltmp288
	.uleb128 Ltmp290-Lfunc_begin38
	.byte	0
Lcst_end14:
	.p2align	2

	.section	__TEXT,__text,regular,pure_instructions
	.globl	__ZN5alloc5boxed16Box$LT$T$C$A$GT$4leak17hbfaab4ecf91763deE
	.p2align	4, 0x90
__ZN5alloc5boxed16Box$LT$T$C$A$GT$4leak17hbfaab4ecf91763deE:
Lfunc_begin39:
	.loc	25 1184 0
	.cfi_startproc
	pushq	%rbp
	.cfi_def_cfa_offset 16
	.cfi_offset %rbp, -16
	movq	%rsp, %rbp
	.cfi_def_cfa_register %rbp
	subq	$88, %rsp
	movq	%rdi, -72(%rbp)
	movq	%rsi, -64(%rbp)
Ltmp302:
	.loc	25 1188 47 prologue_end
	movq	%rdi, -56(%rbp)
	movq	%rsi, -48(%rbp)
Ltmp303:
	.loc	11 71 9
	movq	%rdi, -88(%rbp)
	movq	%rsi, -80(%rbp)
	leaq	-88(%rbp), %rax
Ltmp304:
	.loc	25 1188 24
	movq	%rax, -40(%rbp)
	movq	-88(%rbp), %rax
	movq	-80(%rbp), %rdx
	movq	%rax, -32(%rbp)
	movq	%rdx, -24(%rbp)
Ltmp305:
	.loc	24 104 9
	movq	%rax, -16(%rbp)
	movq	%rdx, -8(%rbp)
Ltmp306:
	.loc	25 1189 6
	addq	$88, %rsp
	popq	%rbp
	retq
Ltmp307:
Lfunc_end39:
	.cfi_endproc

	.globl	__ZN60_$LT$$LP$$RP$$u20$as$u20$objc..message..MessageArguments$GT$6invoke17h068eb4af7a73aff5E
	.p2align	4, 0x90
__ZN60_$LT$$LP$$RP$$u20$as$u20$objc..message..MessageArguments$GT$6invoke17h068eb4af7a73aff5E:
Lfunc_begin40:
	.file	26 "/Users/natalie/.cargo/registry/src/github.com-1ecc6299db9ec823/objc-0.2.7/src/message" "mod.rs"
	.loc	26 124 0
	.cfi_startproc
	pushq	%rbp
	.cfi_def_cfa_offset 16
	.cfi_offset %rbp, -16
	movq	%rsp, %rbp
	.cfi_def_cfa_register %rbp
	subq	$80, %rsp
	movq	%rsi, -72(%rbp)
	movq	%rdi, %rax
	movq	-72(%rbp), %rdi
	movq	%rdx, -56(%rbp)
	movq	-56(%rbp), %rcx
	movq	%rcx, -64(%rbp)
	movq	%rax, -40(%rbp)
	movq	%rdi, -32(%rbp)
Ltmp308:
	.loc	26 127 21 prologue_end
	movq	%rax, -16(%rbp)
	movq	-16(%rbp), %rax
	movq	%rax, -8(%rbp)
Ltmp309:
	.loc	26 128 26
	movq	-64(%rbp), %rcx
	movq	%rcx, -48(%rbp)
	.loc	26 128 17 is_stmt 0
	movq	-48(%rbp), %rsi
	callq	*%rax
Ltmp310:
	.loc	26 129 14 is_stmt 1
	addq	$80, %rsp
	popq	%rbp
	retq
Ltmp311:
Lfunc_end40:
	.cfi_endproc

	.globl	__ZN60_$LT$$LP$$RP$$u20$as$u20$objc..message..MessageArguments$GT$6invoke17heb29ae96dd73faf8E
	.p2align	4, 0x90
__ZN60_$LT$$LP$$RP$$u20$as$u20$objc..message..MessageArguments$GT$6invoke17heb29ae96dd73faf8E:
Lfunc_begin41:
	.loc	26 124 0
	.cfi_startproc
	pushq	%rbp
	.cfi_def_cfa_offset 16
	.cfi_offset %rbp, -16
	movq	%rsp, %rbp
	.cfi_def_cfa_register %rbp
	subq	$80, %rsp
	movq	%rsi, -72(%rbp)
	movq	%rdi, %rax
	movq	-72(%rbp), %rdi
	movq	%rdx, -56(%rbp)
	movq	-56(%rbp), %rcx
	movq	%rcx, -64(%rbp)
	movq	%rax, -40(%rbp)
	movq	%rdi, -32(%rbp)
Ltmp312:
	.loc	26 127 21 prologue_end
	movq	%rax, -16(%rbp)
	movq	-16(%rbp), %rax
	movq	%rax, -8(%rbp)
Ltmp313:
	.loc	26 128 26
	movq	-64(%rbp), %rcx
	movq	%rcx, -48(%rbp)
	.loc	26 128 17 is_stmt 0
	movq	-48(%rbp), %rsi
	callq	*%rax
Ltmp314:
	.loc	26 129 14 is_stmt 1
	addq	$80, %rsp
	popq	%rbp
	retq
Ltmp315:
Lfunc_end41:
	.cfi_endproc

	.p2align	4, 0x90
__ZN63_$LT$alloc..alloc..Global$u20$as$u20$core..alloc..Allocator$GT$10deallocate17h187c9b4fedc98ba3E:
Lfunc_begin42:
	.loc	18 246 0
	.cfi_startproc
	pushq	%rbp
	.cfi_def_cfa_offset 16
	.cfi_offset %rbp, -16
	movq	%rsp, %rbp
	.cfi_def_cfa_register %rbp
	subq	$112, %rsp
	movq	%rsi, -112(%rbp)
	movq	%rdx, -104(%rbp)
	movq	%rcx, -96(%rbp)
	movq	%rdi, -64(%rbp)
	movq	%rsi, -56(%rbp)
Ltmp316:
	.loc	18 247 12 prologue_end
	leaq	-104(%rbp), %rax
	movq	%rax, -48(%rbp)
	cmpq	$0, -104(%rbp)
	jne	LBB42_2
	.loc	18 247 9 is_stmt 0
	jmp	LBB42_3
LBB42_2:
	.loc	18 0 9
	movq	-112(%rbp), %rdi
	.loc	18 250 30 is_stmt 1
	movq	%rdi, -40(%rbp)
Ltmp317:
	.loc	21 326 9
	movq	%rdi, -32(%rbp)
Ltmp318:
	.loc	18 250 44
	movq	-104(%rbp), %rcx
	movq	-96(%rbp), %rax
	movq	%rcx, -88(%rbp)
	movq	%rax, -80(%rbp)
Ltmp319:
	.loc	18 113 34
	leaq	-88(%rbp), %rax
	movq	%rax, -24(%rbp)
Ltmp320:
	.loc	19 129 9
	movq	-88(%rbp), %rsi
Ltmp321:
	.loc	18 113 49
	leaq	-88(%rbp), %rax
	movq	%rax, -16(%rbp)
Ltmp322:
	.loc	19 140 9
	movq	-80(%rbp), %rax
	movq	%rax, -8(%rbp)
Ltmp323:
	.loc	20 97 9
	movq	%rax, -72(%rbp)
	movq	-72(%rbp), %rdx
Ltmp324:
	.loc	18 113 14
	callq	___rust_dealloc
Ltmp325:
LBB42_3:
	.loc	18 252 6
	addq	$112, %rsp
	popq	%rbp
	retq
Ltmp326:
Lfunc_end42:
	.cfi_endproc

	.globl	__ZN64_$LT$$LP$A$C$$RP$$u20$as$u20$objc..message..MessageArguments$GT$6invoke17h0a728a3f2770f2a2E
	.p2align	4, 0x90
__ZN64_$LT$$LP$A$C$$RP$$u20$as$u20$objc..message..MessageArguments$GT$6invoke17h0a728a3f2770f2a2E:
Lfunc_begin43:
	.loc	26 124 0
	.cfi_startproc
	.cfi_personality 155, _rust_eh_personality
	.cfi_lsda 16, Lexception15
	pushq	%rbp
	.cfi_def_cfa_offset 16
	.cfi_offset %rbp, -16
	movq	%rsp, %rbp
	.cfi_def_cfa_register %rbp
	subq	$128, %rsp
	movq	%rcx, -120(%rbp)
	movq	%rdx, %rcx
	movq	-120(%rbp), %rdx
	movq	%rsi, -112(%rbp)
	movq	%rdi, %rax
	movq	-112(%rbp), %rdi
	movq	%rcx, -88(%rbp)
	movq	-88(%rbp), %rcx
	movq	%rcx, -96(%rbp)
	movq	%rax, -64(%rbp)
	movq	%rdi, -56(%rbp)
	movq	%rdx, -48(%rbp)
Ltmp330:
	.loc	26 124 74 prologue_end
	movb	$0, -65(%rbp)
	movb	$1, -65(%rbp)
	movq	%rdx, -40(%rbp)
Ltmp331:
	.loc	26 127 21
	movq	%rax, -32(%rbp)
	movq	-32(%rbp), %rax
	movq	%rax, -24(%rbp)
Ltmp332:
	.loc	26 128 26
	movq	-96(%rbp), %rcx
	movq	%rcx, -80(%rbp)
	.loc	26 128 34 is_stmt 0
	movb	$0, -65(%rbp)
	.loc	26 128 17
	movq	-80(%rbp), %rsi
Ltmp327:
	callq	*%rax
Ltmp328:
	movb	%al, -97(%rbp)
	jmp	LBB43_3
Ltmp333:
LBB43_1:
	.loc	26 129 13 is_stmt 1
	testb	$1, -65(%rbp)
	jne	LBB43_5
	jmp	LBB43_4
LBB43_2:
Ltmp329:
	.loc	26 0 13 is_stmt 0
	movq	%rax, %rcx
	movl	%edx, %eax
	movq	%rcx, -16(%rbp)
	movl	%eax, -8(%rbp)
	jmp	LBB43_1
LBB43_3:
	movb	-97(%rbp), %al
	.loc	26 129 13
	movb	$0, -65(%rbp)
	.loc	26 129 14
	addq	$128, %rsp
	popq	%rbp
	retq
LBB43_4:
	.loc	26 124 13 is_stmt 1
	movq	-16(%rbp), %rdi
	callq	__Unwind_Resume
LBB43_5:
	.loc	26 129 13
	jmp	LBB43_4
Ltmp334:
Lfunc_end43:
	.cfi_endproc
	.section	__TEXT,__gcc_except_tab
	.p2align	2
GCC_except_table43:
Lexception15:
	.byte	255
	.byte	255
	.byte	1
	.uleb128 Lcst_end15-Lcst_begin15
Lcst_begin15:
	.uleb128 Ltmp327-Lfunc_begin43
	.uleb128 Ltmp328-Ltmp327
	.uleb128 Ltmp329-Lfunc_begin43
	.byte	0
	.uleb128 Ltmp328-Lfunc_begin43
	.uleb128 Lfunc_end43-Ltmp328
	.byte	0
	.byte	0
Lcst_end15:
	.p2align	2

	.section	__TEXT,__text,regular,pure_instructions
	.globl	__ZN64_$LT$$LP$A$C$$RP$$u20$as$u20$objc..message..MessageArguments$GT$6invoke17h21bc180fc0e5f7dfE
	.p2align	4, 0x90
__ZN64_$LT$$LP$A$C$$RP$$u20$as$u20$objc..message..MessageArguments$GT$6invoke17h21bc180fc0e5f7dfE:
Lfunc_begin44:
	.loc	26 124 0
	.cfi_startproc
	.cfi_personality 155, _rust_eh_personality
	.cfi_lsda 16, Lexception16
	pushq	%rbp
	.cfi_def_cfa_offset 16
	.cfi_offset %rbp, -16
	movq	%rsp, %rbp
	.cfi_def_cfa_register %rbp
	subq	$128, %rsp
	movq	%rcx, -120(%rbp)
	movq	%rdx, %rcx
	movq	-120(%rbp), %rdx
	movq	%rsi, -112(%rbp)
	movq	%rdi, %rax
	movq	-112(%rbp), %rdi
	movq	%rcx, -88(%rbp)
	movq	-88(%rbp), %rcx
	movq	%rcx, -96(%rbp)
	movq	%rax, -64(%rbp)
	movq	%rdi, -56(%rbp)
	movq	%rdx, -48(%rbp)
Ltmp338:
	.loc	26 124 74 prologue_end
	movb	$0, -65(%rbp)
	movb	$1, -65(%rbp)
	movq	%rdx, -40(%rbp)
Ltmp339:
	.loc	26 127 21
	movq	%rax, -32(%rbp)
	movq	-32(%rbp), %rax
	movq	%rax, -24(%rbp)
Ltmp340:
	.loc	26 128 26
	movq	-96(%rbp), %rcx
	movq	%rcx, -80(%rbp)
	.loc	26 128 34 is_stmt 0
	movb	$0, -65(%rbp)
	.loc	26 128 17
	movq	-80(%rbp), %rsi
Ltmp335:
	callq	*%rax
Ltmp336:
	movb	%al, -97(%rbp)
	jmp	LBB44_3
Ltmp341:
LBB44_1:
	.loc	26 129 13 is_stmt 1
	testb	$1, -65(%rbp)
	jne	LBB44_5
	jmp	LBB44_4
LBB44_2:
Ltmp337:
	.loc	26 0 13 is_stmt 0
	movq	%rax, %rcx
	movl	%edx, %eax
	movq	%rcx, -16(%rbp)
	movl	%eax, -8(%rbp)
	jmp	LBB44_1
LBB44_3:
	movb	-97(%rbp), %al
	.loc	26 129 13
	movb	$0, -65(%rbp)
	.loc	26 129 14
	addq	$128, %rsp
	popq	%rbp
	retq
LBB44_4:
	.loc	26 124 13 is_stmt 1
	movq	-16(%rbp), %rdi
	callq	__Unwind_Resume
LBB44_5:
	.loc	26 129 13
	jmp	LBB44_4
Ltmp342:
Lfunc_end44:
	.cfi_endproc
	.section	__TEXT,__gcc_except_tab
	.p2align	2
GCC_except_table44:
Lexception16:
	.byte	255
	.byte	255
	.byte	1
	.uleb128 Lcst_end16-Lcst_begin16
Lcst_begin16:
	.uleb128 Ltmp335-Lfunc_begin44
	.uleb128 Ltmp336-Ltmp335
	.uleb128 Ltmp337-Lfunc_begin44
	.byte	0
	.uleb128 Ltmp336-Lfunc_begin44
	.uleb128 Lfunc_end44-Ltmp336
	.byte	0
	.byte	0
Lcst_end16:
	.p2align	2

	.section	__TEXT,__text,regular,pure_instructions
	.globl	__ZN64_$LT$$LP$A$C$$RP$$u20$as$u20$objc..message..MessageArguments$GT$6invoke17h3cd2251d1bb37f06E
	.p2align	4, 0x90
__ZN64_$LT$$LP$A$C$$RP$$u20$as$u20$objc..message..MessageArguments$GT$6invoke17h3cd2251d1bb37f06E:
Lfunc_begin45:
	.loc	26 124 0
	.cfi_startproc
	.cfi_personality 155, _rust_eh_personality
	.cfi_lsda 16, Lexception17
	pushq	%rbp
	.cfi_def_cfa_offset 16
	.cfi_offset %rbp, -16
	movq	%rsp, %rbp
	.cfi_def_cfa_register %rbp
	subq	$128, %rsp
	movq	%rcx, -120(%rbp)
	movq	%rdx, %rcx
	movq	-120(%rbp), %rdx
	movq	%rsi, -112(%rbp)
	movq	%rdi, %rax
	movq	-112(%rbp), %rdi
	movq	%rcx, -88(%rbp)
	movq	-88(%rbp), %rcx
	movq	%rcx, -96(%rbp)
	movq	%rax, -64(%rbp)
	movq	%rdi, -56(%rbp)
	movq	%rdx, -48(%rbp)
Ltmp346:
	.loc	26 124 74 prologue_end
	movb	$0, -65(%rbp)
	movb	$1, -65(%rbp)
	movq	%rdx, -40(%rbp)
Ltmp347:
	.loc	26 127 21
	movq	%rax, -32(%rbp)
	movq	-32(%rbp), %rax
	movq	%rax, -24(%rbp)
Ltmp348:
	.loc	26 128 26
	movq	-96(%rbp), %rcx
	movq	%rcx, -80(%rbp)
	.loc	26 128 34 is_stmt 0
	movb	$0, -65(%rbp)
	.loc	26 128 17
	movq	-80(%rbp), %rsi
Ltmp343:
	callq	*%rax
Ltmp344:
	movb	%al, -97(%rbp)
	jmp	LBB45_3
Ltmp349:
LBB45_1:
	.loc	26 129 13 is_stmt 1
	testb	$1, -65(%rbp)
	jne	LBB45_5
	jmp	LBB45_4
LBB45_2:
Ltmp345:
	.loc	26 0 13 is_stmt 0
	movq	%rax, %rcx
	movl	%edx, %eax
	movq	%rcx, -16(%rbp)
	movl	%eax, -8(%rbp)
	jmp	LBB45_1
LBB45_3:
	movb	-97(%rbp), %al
	.loc	26 129 13
	movb	$0, -65(%rbp)
	.loc	26 129 14
	addq	$128, %rsp
	popq	%rbp
	retq
LBB45_4:
	.loc	26 124 13 is_stmt 1
	movq	-16(%rbp), %rdi
	callq	__Unwind_Resume
LBB45_5:
	.loc	26 129 13
	jmp	LBB45_4
Ltmp350:
Lfunc_end45:
	.cfi_endproc
	.section	__TEXT,__gcc_except_tab
	.p2align	2
GCC_except_table45:
Lexception17:
	.byte	255
	.byte	255
	.byte	1
	.uleb128 Lcst_end17-Lcst_begin17
Lcst_begin17:
	.uleb128 Ltmp343-Lfunc_begin45
	.uleb128 Ltmp344-Ltmp343
	.uleb128 Ltmp345-Lfunc_begin45
	.byte	0
	.uleb128 Ltmp344-Lfunc_begin45
	.uleb128 Lfunc_end45-Ltmp344
	.byte	0
	.byte	0
Lcst_end17:
	.p2align	2

	.section	__TEXT,__text,regular,pure_instructions
	.globl	__ZN64_$LT$$LP$A$C$$RP$$u20$as$u20$objc..message..MessageArguments$GT$6invoke17h502553a905d0f162E
	.p2align	4, 0x90
__ZN64_$LT$$LP$A$C$$RP$$u20$as$u20$objc..message..MessageArguments$GT$6invoke17h502553a905d0f162E:
Lfunc_begin46:
	.loc	26 124 0
	.cfi_startproc
	.cfi_personality 155, _rust_eh_personality
	.cfi_lsda 16, Lexception18
	pushq	%rbp
	.cfi_def_cfa_offset 16
	.cfi_offset %rbp, -16
	movq	%rsp, %rbp
	.cfi_def_cfa_register %rbp
	subq	$128, %rsp
	movq	%rcx, -120(%rbp)
	movq	%rdx, %rcx
	movq	-120(%rbp), %rdx
	movq	%rsi, -112(%rbp)
	movq	%rdi, %rax
	movq	-112(%rbp), %rdi
	movq	%rcx, -88(%rbp)
	movq	-88(%rbp), %rcx
	movq	%rcx, -96(%rbp)
	movq	%rax, -64(%rbp)
	movq	%rdi, -56(%rbp)
	movq	%rdx, -48(%rbp)
Ltmp354:
	.loc	26 124 74 prologue_end
	movb	$0, -65(%rbp)
	movb	$1, -65(%rbp)
	movq	%rdx, -40(%rbp)
Ltmp355:
	.loc	26 127 21
	movq	%rax, -32(%rbp)
	movq	-32(%rbp), %rax
	movq	%rax, -24(%rbp)
Ltmp356:
	.loc	26 128 26
	movq	-96(%rbp), %rcx
	movq	%rcx, -80(%rbp)
	.loc	26 128 34 is_stmt 0
	movb	$0, -65(%rbp)
	.loc	26 128 17
	movq	-80(%rbp), %rsi
Ltmp351:
	callq	*%rax
Ltmp352:
	movb	%al, -97(%rbp)
	jmp	LBB46_3
Ltmp357:
LBB46_1:
	.loc	26 129 13 is_stmt 1
	testb	$1, -65(%rbp)
	jne	LBB46_5
	jmp	LBB46_4
LBB46_2:
Ltmp353:
	.loc	26 0 13 is_stmt 0
	movq	%rax, %rcx
	movl	%edx, %eax
	movq	%rcx, -16(%rbp)
	movl	%eax, -8(%rbp)
	jmp	LBB46_1
LBB46_3:
	movb	-97(%rbp), %al
	.loc	26 129 13
	movb	$0, -65(%rbp)
	.loc	26 129 14
	addq	$128, %rsp
	popq	%rbp
	retq
LBB46_4:
	.loc	26 124 13 is_stmt 1
	movq	-16(%rbp), %rdi
	callq	__Unwind_Resume
LBB46_5:
	.loc	26 129 13
	jmp	LBB46_4
Ltmp358:
Lfunc_end46:
	.cfi_endproc
	.section	__TEXT,__gcc_except_tab
	.p2align	2
GCC_except_table46:
Lexception18:
	.byte	255
	.byte	255
	.byte	1
	.uleb128 Lcst_end18-Lcst_begin18
Lcst_begin18:
	.uleb128 Ltmp351-Lfunc_begin46
	.uleb128 Ltmp352-Ltmp351
	.uleb128 Ltmp353-Lfunc_begin46
	.byte	0
	.uleb128 Ltmp352-Lfunc_begin46
	.uleb128 Lfunc_end46-Ltmp352
	.byte	0
	.byte	0
Lcst_end18:
	.p2align	2

	.section	__TEXT,__text,regular,pure_instructions
	.globl	__ZN64_$LT$$LP$A$C$$RP$$u20$as$u20$objc..message..MessageArguments$GT$6invoke17h815b6d4da1cc3f82E
	.p2align	4, 0x90
__ZN64_$LT$$LP$A$C$$RP$$u20$as$u20$objc..message..MessageArguments$GT$6invoke17h815b6d4da1cc3f82E:
Lfunc_begin47:
	.loc	26 124 0
	.cfi_startproc
	.cfi_personality 155, _rust_eh_personality
	.cfi_lsda 16, Lexception19
	pushq	%rbp
	.cfi_def_cfa_offset 16
	.cfi_offset %rbp, -16
	movq	%rsp, %rbp
	.cfi_def_cfa_register %rbp
	subq	$128, %rsp
	movq	%rcx, -120(%rbp)
	movq	%rdx, %rcx
	movq	-120(%rbp), %rdx
	movq	%rsi, -112(%rbp)
	movq	%rdi, %rax
	movq	-112(%rbp), %rdi
	movq	%rcx, -88(%rbp)
	movq	-88(%rbp), %rcx
	movq	%rcx, -96(%rbp)
	movq	%rax, -64(%rbp)
	movq	%rdi, -56(%rbp)
	movq	%rdx, -48(%rbp)
Ltmp362:
	.loc	26 124 74 prologue_end
	movb	$0, -65(%rbp)
	movb	$1, -65(%rbp)
	movq	%rdx, -40(%rbp)
Ltmp363:
	.loc	26 127 21
	movq	%rax, -32(%rbp)
	movq	-32(%rbp), %rax
	movq	%rax, -24(%rbp)
Ltmp364:
	.loc	26 128 26
	movq	-96(%rbp), %rcx
	movq	%rcx, -80(%rbp)
	.loc	26 128 34 is_stmt 0
	movb	$0, -65(%rbp)
	.loc	26 128 17
	movq	-80(%rbp), %rsi
Ltmp359:
	callq	*%rax
Ltmp360:
	movq	%rax, -104(%rbp)
	jmp	LBB47_3
Ltmp365:
LBB47_1:
	.loc	26 129 13 is_stmt 1
	testb	$1, -65(%rbp)
	jne	LBB47_5
	jmp	LBB47_4
LBB47_2:
Ltmp361:
	.loc	26 0 13 is_stmt 0
	movq	%rax, %rcx
	movl	%edx, %eax
	movq	%rcx, -16(%rbp)
	movl	%eax, -8(%rbp)
	jmp	LBB47_1
LBB47_3:
	movq	-104(%rbp), %rax
	.loc	26 129 13
	movb	$0, -65(%rbp)
	.loc	26 129 14
	addq	$128, %rsp
	popq	%rbp
	retq
LBB47_4:
	.loc	26 124 13 is_stmt 1
	movq	-16(%rbp), %rdi
	callq	__Unwind_Resume
LBB47_5:
	.loc	26 129 13
	jmp	LBB47_4
Ltmp366:
Lfunc_end47:
	.cfi_endproc
	.section	__TEXT,__gcc_except_tab
	.p2align	2
GCC_except_table47:
Lexception19:
	.byte	255
	.byte	255
	.byte	1
	.uleb128 Lcst_end19-Lcst_begin19
Lcst_begin19:
	.uleb128 Ltmp359-Lfunc_begin47
	.uleb128 Ltmp360-Ltmp359
	.uleb128 Ltmp361-Lfunc_begin47
	.byte	0
	.uleb128 Ltmp360-Lfunc_begin47
	.uleb128 Lfunc_end47-Ltmp360
	.byte	0
	.byte	0
Lcst_end19:
	.p2align	2

	.section	__TEXT,__text,regular,pure_instructions
	.globl	__ZN72_$LT$objc_id..id..Id$LT$T$C$O$GT$$u20$as$u20$core..ops..deref..Deref$GT$5deref17h9d36662b5eb416f5E
	.p2align	4, 0x90
__ZN72_$LT$objc_id..id..Id$LT$T$C$O$GT$$u20$as$u20$core..ops..deref..Deref$GT$5deref17h9d36662b5eb416f5E:
Lfunc_begin48:
	.file	27 "/Users/natalie/.cargo/registry/src/github.com-1ecc6299db9ec823/objc_id-0.1.1/src" "id.rs"
	.loc	27 92 0
	.cfi_startproc
	pushq	%rbp
	.cfi_def_cfa_offset 16
	.cfi_offset %rbp, -16
	movq	%rsp, %rbp
	.cfi_def_cfa_register %rbp
	subq	$16, %rsp
	movq	%rdi, -8(%rbp)
Ltmp367:
	.loc	27 93 21 prologue_end
	callq	__ZN71_$LT$objc..rc..strong..StrongPtr$u20$as$u20$core..ops..deref..Deref$GT$5deref17hbf75be36f54cceebE
	movq	(%rax), %rax
	.loc	27 94 6
	addq	$16, %rsp
	popq	%rbp
	retq
Ltmp368:
Lfunc_end48:
	.cfi_endproc

	.globl	__ZN7objc_id2id15Id$LT$T$C$O$GT$3new17h1f1a63f4974c5951E
	.p2align	4, 0x90
__ZN7objc_id2id15Id$LT$T$C$O$GT$3new17h1f1a63f4974c5951E:
Lfunc_begin49:
	.loc	27 43 0
	.cfi_startproc
	pushq	%rbp
	.cfi_def_cfa_offset 16
	.cfi_offset %rbp, -16
	movq	%rsp, %rbp
	.cfi_def_cfa_register %rbp
	subq	$16, %rsp
	movq	%rdi, -8(%rbp)
Ltmp369:
	.loc	27 44 9 prologue_end
	movq	%rdi, -16(%rbp)
	.loc	27 45 6
	movq	-16(%rbp), %rax
	addq	$16, %rsp
	popq	%rbp
	retq
Ltmp370:
Lfunc_end49:
	.cfi_endproc

	.globl	__ZN7objc_id2id15Id$LT$T$C$O$GT$8from_ptr17hac9ec3544313acd2E
	.p2align	4, 0x90
__ZN7objc_id2id15Id$LT$T$C$O$GT$8from_ptr17hac9ec3544313acd2E:
Lfunc_begin50:
	.loc	27 51 0
	.cfi_startproc
	pushq	%rbp
	.cfi_def_cfa_offset 16
	.cfi_offset %rbp, -16
	movq	%rsp, %rbp
	.cfi_def_cfa_register %rbp
	subq	$16, %rsp
	movq	%rdi, -16(%rbp)
	movq	%rdi, -8(%rbp)
Ltmp371:
	.loc	27 52 18 prologue_end
	callq	__ZN4core3ptr7mut_ptr31_$LT$impl$u20$$BP$mut$u20$T$GT$7is_null17hb585e89fbbaf0558E
	.loc	27 52 17 is_stmt 0
	xorb	$-1, %al
	.loc	27 52 9
	xorb	$-1, %al
	testb	$1, %al
	jne	LBB50_2
	.loc	27 0 9
	movq	-16(%rbp), %rdi
	.loc	27 53 17 is_stmt 1
	callq	__ZN4objc2rc6strong9StrongPtr6retain17ha8959f26d9fd469cE
	movq	%rax, %rdi
	.loc	27 53 9 is_stmt 0
	callq	__ZN7objc_id2id15Id$LT$T$C$O$GT$3new17h1f1a63f4974c5951E
	.loc	27 54 6 is_stmt 1
	addq	$16, %rsp
	popq	%rbp
	retq
LBB50_2:
	.loc	27 52 9
	leaq	l___unnamed_7(%rip), %rdi
	leaq	l___unnamed_8(%rip), %rdx
	movl	$48, %esi
	callq	__ZN3std9panicking11begin_panic17h3526ff72da7a59f1E
Ltmp372:
Lfunc_end50:
	.cfi_endproc

	.globl	__ZN91_$LT$std..panicking..begin_panic..PanicPayload$LT$A$GT$$u20$as$u20$core..panic..BoxMeUp$GT$3get17h147156a07402040aE
	.p2align	4, 0x90
__ZN91_$LT$std..panicking..begin_panic..PanicPayload$LT$A$GT$$u20$as$u20$core..panic..BoxMeUp$GT$3get17h147156a07402040aE:
Lfunc_begin51:
	.loc	5 635 0
	.cfi_startproc
	pushq	%rbp
	.cfi_def_cfa_offset 16
	.cfi_offset %rbp, -16
	movq	%rsp, %rbp
	.cfi_def_cfa_register %rbp
	subq	$32, %rsp
	movq	%rdi, -24(%rbp)
	movq	%rdi, -16(%rbp)
Ltmp373:
	.loc	5 636 19 prologue_end
	movq	(%rdi), %rdx
	movl	$1, %eax
	xorl	%ecx, %ecx
	cmpq	$0, %rdx
	cmoveq	%rcx, %rax
	.loc	5 636 13 is_stmt 0
	cmpq	$0, %rax
	jne	LBB51_2
	.loc	5 638 25 is_stmt 1
	callq	__ZN3std7process5abort17hb525d9c740fe6234E
LBB51_2:
	.loc	5 0 25 is_stmt 0
	movq	-24(%rbp), %rax
	.loc	5 637 22 is_stmt 1
	movq	%rax, -8(%rbp)
	.loc	5 640 10
	leaq	l___unnamed_2(%rip), %rdx
	addq	$32, %rsp
	popq	%rbp
	retq
Ltmp374:
Lfunc_end51:
	.cfi_endproc

	.globl	__ZN91_$LT$std..panicking..begin_panic..PanicPayload$LT$A$GT$$u20$as$u20$core..panic..BoxMeUp$GT$8take_box17hc8df5e9124b0207fE
	.p2align	4, 0x90
__ZN91_$LT$std..panicking..begin_panic..PanicPayload$LT$A$GT$$u20$as$u20$core..panic..BoxMeUp$GT$8take_box17hc8df5e9124b0207fE:
Lfunc_begin52:
	.loc	5 622 0
	.cfi_startproc
	.cfi_personality 155, _rust_eh_personality
	.cfi_lsda 16, Lexception20
	pushq	%rbp
	.cfi_def_cfa_offset 16
	.cfi_offset %rbp, -16
	movq	%rsp, %rbp
	.cfi_def_cfa_register %rbp
	subq	$256, %rsp
	movq	%rdi, -152(%rbp)
Ltmp384:
	.loc	5 628 30 prologue_end
	movq	%rdi, -136(%rbp)
Ltmp385:
	.loc	22 1623 28
	movq	$0, -184(%rbp)
	.loc	22 1623 9 is_stmt 0
	movq	-184(%rbp), %rsi
	movq	-176(%rbp), %rdx
	callq	__ZN4core3mem7replace17hffa7d027612567d1E
	movq	%rdx, -192(%rbp)
	movq	%rax, -200(%rbp)
Ltmp386:
	.loc	5 628 30 is_stmt 1
	movq	-200(%rbp), %rdx
	movl	$1, %eax
	xorl	%ecx, %ecx
	cmpq	$0, %rdx
	cmoveq	%rcx, %rax
	.loc	5 628 24 is_stmt 0
	cmpq	$0, %rax
	jne	LBB52_2
	.loc	5 630 25 is_stmt 1
	callq	__ZN3std7process5abort17hb525d9c740fe6234E
LBB52_2:
	.loc	5 629 22
	movq	-200(%rbp), %rcx
	movq	%rcx, -240(%rbp)
	movq	-192(%rbp), %rax
	movq	%rax, -232(%rbp)
	movq	%rcx, -128(%rbp)
	movq	%rax, -120(%rbp)
Ltmp387:
	.loc	5 629 37 is_stmt 0
	movq	%rcx, -112(%rbp)
	movq	%rax, -104(%rbp)
Ltmp375:
	movl	$16, %edi
	movl	$8, %esi
Ltmp388:
	.loc	25 219 9 is_stmt 1
	callq	__ZN5alloc5alloc15exchange_malloc17hf8dc7de6aea098daE
Ltmp376:
	movq	%rax, -224(%rbp)
	jmp	LBB52_5
LBB52_3:
	.loc	25 220 5
	jmp	LBB52_6
LBB52_4:
Ltmp377:
	.loc	25 0 5 is_stmt 0
	movq	%rax, %rcx
	movl	%edx, %eax
	movq	%rcx, -96(%rbp)
	movl	%eax, -88(%rbp)
	jmp	LBB52_3
LBB52_5:
	movq	-224(%rbp), %rax
	movq	-232(%rbp), %rcx
	movq	-240(%rbp), %rdx
	.loc	25 219 18 is_stmt 1
	movq	%rdx, (%rax)
	movq	%rcx, 8(%rax)
Ltmp389:
	.loc	5 629 28
	movq	%rax, -216(%rbp)
	leaq	l___unnamed_2(%rip), %rax
	movq	%rax, -208(%rbp)
Ltmp390:
	.loc	5 632 27
	movq	-216(%rbp), %rdi
	movq	-208(%rbp), %rsi
	movq	%rdi, -80(%rbp)
	movq	%rsi, -72(%rbp)
Ltmp391:
	.loc	25 1059 39
	movq	%rdi, -64(%rbp)
	movq	%rsi, -56(%rbp)
Ltmp378:
Ltmp392:
	.loc	25 1112 31
	callq	__ZN5alloc5boxed16Box$LT$T$C$A$GT$11into_unique17h2bec8a4d986d85faE
Ltmp379:
	movq	%rdx, -256(%rbp)
	movq	%rax, -248(%rbp)
	jmp	LBB52_9
Ltmp393:
LBB52_6:
	.loc	5 622 9
	movq	-96(%rbp), %rdi
	callq	__Unwind_Resume
LBB52_7:
	.loc	5 633 9
	xorl	%eax, %eax
	testb	$1, %al
	jne	LBB52_10
	jmp	LBB52_6
LBB52_8:
Ltmp380:
	.loc	5 0 9 is_stmt 0
	movq	%rax, %rcx
	movl	%edx, %eax
	movq	%rcx, -96(%rbp)
	movl	%eax, -88(%rbp)
	jmp	LBB52_7
LBB52_9:
	movq	-256(%rbp), %rax
	movq	-248(%rbp), %rcx
Ltmp394:
	.loc	25 1112 14 is_stmt 1
	movq	%rcx, -48(%rbp)
	movq	%rax, -40(%rbp)
Ltmp395:
	.loc	25 1113 10
	movq	%rcx, -32(%rbp)
	movq	%rax, -24(%rbp)
Ltmp396:
	.loc	24 104 9
	movq	%rcx, -16(%rbp)
	movq	%rax, -8(%rbp)
Ltmp397:
	.loc	25 1113 9
	movq	%rcx, -168(%rbp)
	movq	%rax, -160(%rbp)
Ltmp398:
	.loc	25 1059 9
	movq	-168(%rbp), %rax
	movq	-160(%rbp), %rdx
Ltmp399:
	.loc	5 633 10
	addq	$256, %rsp
	popq	%rbp
	retq
LBB52_10:
Ltmp381:
	.loc	5 0 10 is_stmt 0
	leaq	-216(%rbp), %rdi
	.loc	5 633 9
	callq	__ZN4core3ptr91drop_in_place$LT$alloc..boxed..Box$LT$dyn$u20$core..any..Any$u2b$core..marker..Send$GT$$GT$17he18e1cbd9a5df960E
Ltmp382:
	jmp	LBB52_6
LBB52_11:
Ltmp383:
	.loc	5 622 9 is_stmt 1
	callq	__ZN4core9panicking19panic_cannot_unwind17h1fbca7e1d7f56ae1E
Ltmp400:
Lfunc_end52:
	.cfi_endproc
	.section	__TEXT,__gcc_except_tab
	.p2align	2
GCC_except_table52:
Lexception20:
	.byte	255
	.byte	255
	.byte	1
	.uleb128 Lcst_end20-Lcst_begin20
Lcst_begin20:
	.uleb128 Lfunc_begin52-Lfunc_begin52
	.uleb128 Ltmp375-Lfunc_begin52
	.byte	0
	.byte	0
	.uleb128 Ltmp375-Lfunc_begin52
	.uleb128 Ltmp376-Ltmp375
	.uleb128 Ltmp377-Lfunc_begin52
	.byte	0
	.uleb128 Ltmp378-Lfunc_begin52
	.uleb128 Ltmp379-Ltmp378
	.uleb128 Ltmp380-Lfunc_begin52
	.byte	0
	.uleb128 Ltmp379-Lfunc_begin52
	.uleb128 Ltmp381-Ltmp379
	.byte	0
	.byte	0
	.uleb128 Ltmp381-Lfunc_begin52
	.uleb128 Ltmp382-Ltmp381
	.uleb128 Ltmp383-Lfunc_begin52
	.byte	0
Lcst_end20:
	.p2align	2

	.section	__TEXT,__text,regular,pure_instructions
	.globl	__ZN15objc_foundation5array18NSComparisonResult13from_ordering17ha0a6d57b2780cb8eE
	.p2align	4, 0x90
__ZN15objc_foundation5array18NSComparisonResult13from_ordering17ha0a6d57b2780cb8eE:
Lfunc_begin53:
	.file	28 "/Users/natalie/.cargo/registry/src/github.com-1ecc6299db9ec823/objc-foundation-0.1.1" "src/array.rs"
	.loc	28 19 0
	.cfi_startproc
	pushq	%rbp
	.cfi_def_cfa_offset 16
	.cfi_offset %rbp, -16
	movq	%rsp, %rbp
	.cfi_def_cfa_register %rbp
	subq	$16, %rsp
	movb	%dil, %al
	movb	%al, -9(%rbp)
Ltmp401:
	.loc	28 20 15 prologue_end
	movb	-9(%rbp), %al
	movb	%al, -10(%rbp)
	.loc	28 20 9 is_stmt 0
	subb	$-1, %al
	je	LBB53_2
	jmp	LBB53_6
LBB53_6:
	.loc	28 0 9
	movb	-10(%rbp), %al
	.loc	28 20 9
	testb	%al, %al
	je	LBB53_3
	jmp	LBB53_7
LBB53_7:
	jmp	LBB53_4
	.loc	28 20 15
	ud2
LBB53_2:
	.loc	28 21 31 is_stmt 1
	movq	$-1, -8(%rbp)
	jmp	LBB53_5
LBB53_3:
	.loc	28 22 32
	movq	$0, -8(%rbp)
	jmp	LBB53_5
LBB53_4:
	.loc	28 23 34
	movq	$1, -8(%rbp)
LBB53_5:
	.loc	28 25 6
	movq	-8(%rbp), %rax
	addq	$16, %rsp
	popq	%rbp
	retq
Ltmp402:
Lfunc_end53:
	.cfi_endproc

	.globl	__ZN15objc_foundation5array18NSComparisonResult11as_ordering17hd5c9b7626b01ff96E
	.p2align	4, 0x90
__ZN15objc_foundation5array18NSComparisonResult11as_ordering17hd5c9b7626b01ff96E:
Lfunc_begin54:
	.loc	28 27 0
	.cfi_startproc
	pushq	%rbp
	.cfi_def_cfa_offset 16
	.cfi_offset %rbp, -16
	movq	%rsp, %rbp
	.cfi_def_cfa_register %rbp
	subq	$24, %rsp
	movq	%rdi, -8(%rbp)
Ltmp403:
	.loc	28 28 15 prologue_end
	movq	(%rdi), %rax
	movq	%rax, -24(%rbp)
	.loc	28 28 9 is_stmt 0
	subq	$-1, %rax
	je	LBB54_2
	jmp	LBB54_6
LBB54_6:
	.loc	28 0 9
	movq	-24(%rbp), %rax
	.loc	28 28 9
	testq	%rax, %rax
	je	LBB54_3
	jmp	LBB54_7
LBB54_7:
	jmp	LBB54_4
	.loc	28 28 15
	ud2
LBB54_2:
	.loc	28 29 46 is_stmt 1
	movb	$-1, -9(%rbp)
	jmp	LBB54_5
LBB54_3:
	.loc	28 30 41
	movb	$0, -9(%rbp)
	jmp	LBB54_5
LBB54_4:
	.loc	28 31 47
	movb	$1, -9(%rbp)
LBB54_5:
	.loc	28 33 6
	movb	-9(%rbp), %al
	addq	$24, %rsp
	popq	%rbp
	retq
Ltmp404:
Lfunc_end54:
	.cfi_endproc

	.globl	__ZN15objc_foundation5array7NSRange10from_range17h0b09551a0e99931fE
	.p2align	4, 0x90
__ZN15objc_foundation5array7NSRange10from_range17h0b09551a0e99931fE:
Lfunc_begin55:
	.loc	28 44 0
	.cfi_startproc
	pushq	%rbp
	.cfi_def_cfa_offset 16
	.cfi_offset %rbp, -16
	movq	%rsp, %rbp
	.cfi_def_cfa_register %rbp
	subq	$64, %rsp
	movq	%rdi, -48(%rbp)
	movq	%rsi, -40(%rbp)
	movq	%rdi, -16(%rbp)
	movq	%rsi, -8(%rbp)
Ltmp405:
	.loc	28 45 17 prologue_end
	cmpq	%rdi, %rsi
	setae	%al
	.loc	28 45 9 is_stmt 0
	xorb	$-1, %al
	testb	$1, %al
	jne	LBB55_2
	.loc	28 0 9
	movq	-40(%rbp), %rax
	movq	-48(%rbp), %rcx
	.loc	28 46 50 is_stmt 1
	movq	%rax, %rdx
	subq	%rcx, %rdx
	movq	%rdx, -56(%rbp)
	cmpq	%rcx, %rax
	setb	%al
	testb	$1, %al
	jne	LBB55_4
	jmp	LBB55_3
LBB55_2:
	.loc	28 45 9
	leaq	l___unnamed_9(%rip), %rdi
	leaq	l___unnamed_10(%rip), %rdx
	movl	$42, %esi
	callq	__ZN4core9panicking5panic17hc1bc45270cf64b03E
LBB55_3:
	.loc	28 0 9 is_stmt 0
	movq	-56(%rbp), %rax
	movq	-48(%rbp), %rcx
	.loc	28 46 9 is_stmt 1
	movq	%rcx, -32(%rbp)
	movq	%rax, -24(%rbp)
	.loc	28 47 6
	movq	-32(%rbp), %rax
	movq	-24(%rbp), %rdx
	addq	$64, %rsp
	popq	%rbp
	retq
LBB55_4:
	.loc	28 46 50
	leaq	_str.0(%rip), %rdi
	leaq	l___unnamed_11(%rip), %rdx
	movl	$33, %esi
	callq	__ZN4core9panicking5panic17hc1bc45270cf64b03E
Ltmp406:
Lfunc_end55:
	.cfi_endproc

	.globl	__ZN15objc_foundation5array7NSRange8as_range17h73d66fb0b335db9dE
	.p2align	4, 0x90
__ZN15objc_foundation5array7NSRange8as_range17h73d66fb0b335db9dE:
Lfunc_begin56:
	.loc	28 49 0
	.cfi_startproc
	pushq	%rbp
	.cfi_def_cfa_offset 16
	.cfi_offset %rbp, -16
	movq	%rsp, %rbp
	.cfi_def_cfa_register %rbp
	subq	$48, %rsp
	movq	%rdi, -8(%rbp)
Ltmp407:
	.loc	28 50 24 prologue_end
	movq	(%rdi), %rax
	movq	%rax, -40(%rbp)
	.loc	28 50 44 is_stmt 0
	movq	(%rdi), %rax
	addq	8(%rdi), %rax
	movq	%rax, -32(%rbp)
	setb	%al
	testb	$1, %al
	jne	LBB56_2
	.loc	28 0 44
	movq	-32(%rbp), %rax
	movq	-40(%rbp), %rcx
	.loc	28 50 9
	movq	%rcx, -24(%rbp)
	movq	%rax, -16(%rbp)
	.loc	28 51 6 is_stmt 1
	movq	-24(%rbp), %rax
	movq	-16(%rbp), %rdx
	addq	$48, %rsp
	popq	%rbp
	retq
LBB56_2:
	.loc	28 50 44
	leaq	_str.1(%rip), %rdi
	leaq	l___unnamed_12(%rip), %rdx
	movl	$28, %esi
	callq	__ZN4core9panicking5panic17hc1bc45270cf64b03E
Ltmp408:
Lfunc_end56:
	.cfi_endproc

	.globl	__ZN15objc_foundation6object9INSObject8is_equal17h2c4e8e1602ab23dcE
	.p2align	4, 0x90
__ZN15objc_foundation6object9INSObject8is_equal17h2c4e8e1602ab23dcE:
Lfunc_begin57:
	.file	29 "/Users/natalie/.cargo/registry/src/github.com-1ecc6299db9ec823/objc-foundation-0.1.1" "src/object.rs"
	.loc	29 24 0
	.cfi_startproc
	.cfi_personality 155, _rust_eh_personality
	.cfi_lsda 16, Lexception21
	pushq	%rbp
	.cfi_def_cfa_offset 16
	.cfi_offset %rbp, -16
	movq	%rsp, %rbp
	.cfi_def_cfa_register %rbp
	subq	$272, %rsp
	movq	%rdi, -272(%rbp)
	movq	%rsi, -264(%rbp)
	movq	%rdi, -176(%rbp)
	movq	%rsi, -168(%rbp)
	leaq	l___unnamed_13(%rip), %rax
	movq	%rax, -56(%rbp)
	movq	$9, -48(%rbp)
Ltmp415:
	.loc	1 54 36 prologue_end
	movb	$0, -73(%rbp)
	.loc	1 54 27 is_stmt 0
	leaq	__ZN15objc_foundation6object9INSObject8is_equal12register_sel3SEL17he040c73c09d0268bE(%rip), %rdi
	movzbl	-73(%rbp), %esi
	callq	__ZN4core4sync6atomic11AtomicUsize4load17h414ac7215cdd4711E
	movq	%rax, %rdi
	movq	%rdi, -256(%rbp)
	movq	%rdi, -40(%rbp)
Ltmp416:
	.loc	1 57 20 is_stmt 1
	callq	__ZN4core3ptr9const_ptr33_$LT$impl$u20$$BP$const$u20$T$GT$7is_null17ha546985450a90861E
	testb	$1, %al
	jne	LBB57_2
	.loc	1 0 20 is_stmt 0
	movq	-256(%rbp), %rdi
	.loc	1 62 21 is_stmt 1
	callq	__ZN4objc7runtime3Sel8from_ptr17h46170875a16a98c8E
	movq	%rax, -24(%rbp)
	movq	-24(%rbp), %rax
	movq	%rax, -88(%rbp)
	jmp	LBB57_3
LBB57_2:
	.loc	1 0 21 is_stmt 0
	leaq	l___unnamed_13(%rip), %rax
	movq	%rax, -16(%rbp)
	movq	$9, -8(%rbp)
	.loc	1 58 31 is_stmt 1
	leaq	l___unnamed_13(%rip), %rdi
	callq	_sel_registerName
	movq	%rax, -32(%rbp)
	movq	-32(%rbp), %rax
	movq	%rax, -72(%rbp)
Ltmp417:
	.loc	1 59 31
	leaq	-72(%rbp), %rdi
	callq	__ZN4objc7runtime3Sel6as_ptr17had96c85b9ac5883dE
	movq	%rax, %rsi
	.loc	1 59 54 is_stmt 0
	movb	$0, -57(%rbp)
	.loc	1 59 21
	leaq	__ZN15objc_foundation6object9INSObject8is_equal12register_sel3SEL17he040c73c09d0268bE(%rip), %rdi
	movzbl	-57(%rbp), %edx
	callq	__ZN4core4sync6atomic11AtomicUsize5store17h6f28dde4ed03a931E
	.loc	1 60 21 is_stmt 1
	movq	-72(%rbp), %rax
	movq	%rax, -88(%rbp)
Ltmp418:
LBB57_3:
	.loc	1 0 21 is_stmt 0
	movq	-272(%rbp), %rsi
	movq	-264(%rbp), %rax
	.loc	1 65 10 is_stmt 1
	movq	-88(%rbp), %rcx
Ltmp419:
	.loc	29 26 13
	movq	%rcx, -160(%rbp)
	movq	-160(%rbp), %rcx
	movq	%rcx, -248(%rbp)
Ltmp420:
	.loc	29 26 13 is_stmt 0
	movq	-248(%rbp), %rcx
	movq	%rcx, -216(%rbp)
	movq	%rax, -208(%rbp)
	movq	-216(%rbp), %rax
	movq	-208(%rbp), %rcx
	movq	%rax, -120(%rbp)
	movq	-120(%rbp), %rax
	movq	%rax, -128(%rbp)
	movq	%rsi, -104(%rbp)
	movq	%rcx, -96(%rbp)
Ltmp421:
	.loc	26 178 26 is_stmt 1
	movq	-128(%rbp), %rax
	movq	%rax, -112(%rbp)
	.loc	26 178 5 is_stmt 0
	movq	-112(%rbp), %rdx
	leaq	-240(%rbp), %rdi
	callq	__ZN4objc7message8platform15send_unverified17hc9ccc7c24809cb6eE
Ltmp422:
	.loc	29 26 13 is_stmt 1
	movq	-232(%rbp), %rdx
	movl	$1, %eax
	xorl	%ecx, %ecx
	cmpq	$0, %rdx
	cmoveq	%rcx, %rax
	cmpq	$0, %rax
	jne	LBB57_5
	movb	-240(%rbp), %al
	movb	%al, -131(%rbp)
Ltmp423:
	.loc	29 26 13 is_stmt 0
	movb	%al, -130(%rbp)
Ltmp424:
	.loc	29 26 13
	movb	%al, -129(%rbp)
Ltmp425:
	.loc	29 28 9 is_stmt 1
	cmpb	$0, %al
	setne	%al
Ltmp426:
	.loc	29 29 6
	andb	$1, %al
	movzbl	%al, %eax
	addq	$272, %rsp
	popq	%rbp
	retq
LBB57_5:
Ltmp427:
	.loc	29 26 13
	movq	-224(%rbp), %rax
	movq	%rax, -184(%rbp)
	movq	-240(%rbp), %rax
	movq	-232(%rbp), %rcx
	movq	%rcx, -192(%rbp)
	movq	%rax, -200(%rbp)
Ltmp409:
Ltmp428:
	.loc	29 26 13 is_stmt 0
	leaq	l___unnamed_14(%rip), %rsi
	leaq	-200(%rbp), %rdi
	callq	__ZN4core9panicking13panic_display17h0e09fb0b7d155fc4E
Ltmp410:
	jmp	LBB57_8
Ltmp429:
LBB57_6:
Ltmp412:
	.loc	29 0 13
	leaq	-200(%rbp), %rdi
	.loc	29 26 13
	callq	__ZN4core3ptr48drop_in_place$LT$objc..message..MessageError$GT$17h5c4247deb9137b06E
Ltmp413:
	jmp	LBB57_10
Ltmp430:
LBB57_7:
Ltmp411:
	.loc	29 0 13
	movq	%rax, %rcx
	movl	%edx, %eax
	movq	%rcx, -152(%rbp)
	movl	%eax, -144(%rbp)
	jmp	LBB57_6
LBB57_8:
	ud2
LBB57_9:
Ltmp414:
	.loc	29 24 5 is_stmt 1
	callq	__ZN4core9panicking19panic_cannot_unwind17h1fbca7e1d7f56ae1E
LBB57_10:
	movq	-152(%rbp), %rdi
	callq	__Unwind_Resume
Ltmp431:
Lfunc_end57:
	.cfi_endproc
	.section	__TEXT,__gcc_except_tab
	.p2align	2
GCC_except_table57:
Lexception21:
	.byte	255
	.byte	255
	.byte	1
	.uleb128 Lcst_end21-Lcst_begin21
Lcst_begin21:
	.uleb128 Lfunc_begin57-Lfunc_begin57
	.uleb128 Ltmp409-Lfunc_begin57
	.byte	0
	.byte	0
	.uleb128 Ltmp409-Lfunc_begin57
	.uleb128 Ltmp410-Ltmp409
	.uleb128 Ltmp411-Lfunc_begin57
	.byte	0
	.uleb128 Ltmp412-Lfunc_begin57
	.uleb128 Ltmp413-Ltmp412
	.uleb128 Ltmp414-Lfunc_begin57
	.byte	0
	.uleb128 Ltmp413-Lfunc_begin57
	.uleb128 Lfunc_end57-Ltmp413
	.byte	0
	.byte	0
Lcst_end21:
	.p2align	2

	.section	__TEXT,__text,regular,pure_instructions
	.globl	__ZN15objc_foundation6object9INSObject8is_equal17h66e22ec2cdcec9e3E
	.p2align	4, 0x90
__ZN15objc_foundation6object9INSObject8is_equal17h66e22ec2cdcec9e3E:
Lfunc_begin58:
	.loc	29 24 0
	.cfi_startproc
	.cfi_personality 155, _rust_eh_personality
	.cfi_lsda 16, Lexception22
	pushq	%rbp
	.cfi_def_cfa_offset 16
	.cfi_offset %rbp, -16
	movq	%rsp, %rbp
	.cfi_def_cfa_register %rbp
	subq	$272, %rsp
	movq	%rdi, -272(%rbp)
	movq	%rsi, -264(%rbp)
	movq	%rdi, -176(%rbp)
	movq	%rsi, -168(%rbp)
	leaq	l___unnamed_13(%rip), %rax
	movq	%rax, -56(%rbp)
	movq	$9, -48(%rbp)
Ltmp438:
	.loc	1 54 36 prologue_end
	movb	$0, -73(%rbp)
	.loc	1 54 27 is_stmt 0
	leaq	__ZN15objc_foundation6object9INSObject8is_equal12register_sel3SEL17he040c73c09d0268bE(%rip), %rdi
	movzbl	-73(%rbp), %esi
	callq	__ZN4core4sync6atomic11AtomicUsize4load17h414ac7215cdd4711E
	movq	%rax, %rdi
	movq	%rdi, -256(%rbp)
	movq	%rdi, -40(%rbp)
Ltmp439:
	.loc	1 57 20 is_stmt 1
	callq	__ZN4core3ptr9const_ptr33_$LT$impl$u20$$BP$const$u20$T$GT$7is_null17ha546985450a90861E
	testb	$1, %al
	jne	LBB58_2
	.loc	1 0 20 is_stmt 0
	movq	-256(%rbp), %rdi
	.loc	1 62 21 is_stmt 1
	callq	__ZN4objc7runtime3Sel8from_ptr17h46170875a16a98c8E
	movq	%rax, -24(%rbp)
	movq	-24(%rbp), %rax
	movq	%rax, -88(%rbp)
	jmp	LBB58_3
LBB58_2:
	.loc	1 0 21 is_stmt 0
	leaq	l___unnamed_13(%rip), %rax
	movq	%rax, -16(%rbp)
	movq	$9, -8(%rbp)
	.loc	1 58 31 is_stmt 1
	leaq	l___unnamed_13(%rip), %rdi
	callq	_sel_registerName
	movq	%rax, -32(%rbp)
	movq	-32(%rbp), %rax
	movq	%rax, -72(%rbp)
Ltmp440:
	.loc	1 59 31
	leaq	-72(%rbp), %rdi
	callq	__ZN4objc7runtime3Sel6as_ptr17had96c85b9ac5883dE
	movq	%rax, %rsi
	.loc	1 59 54 is_stmt 0
	movb	$0, -57(%rbp)
	.loc	1 59 21
	leaq	__ZN15objc_foundation6object9INSObject8is_equal12register_sel3SEL17he040c73c09d0268bE(%rip), %rdi
	movzbl	-57(%rbp), %edx
	callq	__ZN4core4sync6atomic11AtomicUsize5store17h6f28dde4ed03a931E
	.loc	1 60 21 is_stmt 1
	movq	-72(%rbp), %rax
	movq	%rax, -88(%rbp)
Ltmp441:
LBB58_3:
	.loc	1 0 21 is_stmt 0
	movq	-272(%rbp), %rsi
	movq	-264(%rbp), %rax
	.loc	1 65 10 is_stmt 1
	movq	-88(%rbp), %rcx
Ltmp442:
	.loc	29 26 13
	movq	%rcx, -160(%rbp)
	movq	-160(%rbp), %rcx
	movq	%rcx, -248(%rbp)
Ltmp443:
	.loc	29 26 13 is_stmt 0
	movq	-248(%rbp), %rcx
	movq	%rcx, -216(%rbp)
	movq	%rax, -208(%rbp)
	movq	-216(%rbp), %rax
	movq	-208(%rbp), %rcx
	movq	%rax, -120(%rbp)
	movq	-120(%rbp), %rax
	movq	%rax, -128(%rbp)
	movq	%rsi, -104(%rbp)
	movq	%rcx, -96(%rbp)
Ltmp444:
	.loc	26 178 26 is_stmt 1
	movq	-128(%rbp), %rax
	movq	%rax, -112(%rbp)
	.loc	26 178 5 is_stmt 0
	movq	-112(%rbp), %rdx
	leaq	-240(%rbp), %rdi
	callq	__ZN4objc7message8platform15send_unverified17h89a1560ebbba2a7fE
Ltmp445:
	.loc	29 26 13 is_stmt 1
	movq	-232(%rbp), %rdx
	movl	$1, %eax
	xorl	%ecx, %ecx
	cmpq	$0, %rdx
	cmoveq	%rcx, %rax
	cmpq	$0, %rax
	jne	LBB58_5
	movb	-240(%rbp), %al
	movb	%al, -131(%rbp)
Ltmp446:
	.loc	29 26 13 is_stmt 0
	movb	%al, -130(%rbp)
Ltmp447:
	.loc	29 26 13
	movb	%al, -129(%rbp)
Ltmp448:
	.loc	29 28 9 is_stmt 1
	cmpb	$0, %al
	setne	%al
Ltmp449:
	.loc	29 29 6
	andb	$1, %al
	movzbl	%al, %eax
	addq	$272, %rsp
	popq	%rbp
	retq
LBB58_5:
Ltmp450:
	.loc	29 26 13
	movq	-224(%rbp), %rax
	movq	%rax, -184(%rbp)
	movq	-240(%rbp), %rax
	movq	-232(%rbp), %rcx
	movq	%rcx, -192(%rbp)
	movq	%rax, -200(%rbp)
Ltmp432:
Ltmp451:
	.loc	29 26 13 is_stmt 0
	leaq	l___unnamed_14(%rip), %rsi
	leaq	-200(%rbp), %rdi
	callq	__ZN4core9panicking13panic_display17h0e09fb0b7d155fc4E
Ltmp433:
	jmp	LBB58_8
Ltmp452:
LBB58_6:
Ltmp435:
	.loc	29 0 13
	leaq	-200(%rbp), %rdi
	.loc	29 26 13
	callq	__ZN4core3ptr48drop_in_place$LT$objc..message..MessageError$GT$17h5c4247deb9137b06E
Ltmp436:
	jmp	LBB58_10
Ltmp453:
LBB58_7:
Ltmp434:
	.loc	29 0 13
	movq	%rax, %rcx
	movl	%edx, %eax
	movq	%rcx, -152(%rbp)
	movl	%eax, -144(%rbp)
	jmp	LBB58_6
LBB58_8:
	ud2
LBB58_9:
Ltmp437:
	.loc	29 24 5 is_stmt 1
	callq	__ZN4core9panicking19panic_cannot_unwind17h1fbca7e1d7f56ae1E
LBB58_10:
	movq	-152(%rbp), %rdi
	callq	__Unwind_Resume
Ltmp454:
Lfunc_end58:
	.cfi_endproc
	.section	__TEXT,__gcc_except_tab
	.p2align	2
GCC_except_table58:
Lexception22:
	.byte	255
	.byte	255
	.byte	1
	.uleb128 Lcst_end22-Lcst_begin22
Lcst_begin22:
	.uleb128 Lfunc_begin58-Lfunc_begin58
	.uleb128 Ltmp432-Lfunc_begin58
	.byte	0
	.byte	0
	.uleb128 Ltmp432-Lfunc_begin58
	.uleb128 Ltmp433-Ltmp432
	.uleb128 Ltmp434-Lfunc_begin58
	.byte	0
	.uleb128 Ltmp435-Lfunc_begin58
	.uleb128 Ltmp436-Ltmp435
	.uleb128 Ltmp437-Lfunc_begin58
	.byte	0
	.uleb128 Ltmp436-Lfunc_begin58
	.uleb128 Lfunc_end58-Ltmp436
	.byte	0
	.byte	0
Lcst_end22:
	.p2align	2

	.section	__TEXT,__text,regular,pure_instructions
	.globl	__ZN15objc_foundation6object9INSObject8is_equal17h97856f1c77fe92edE
	.p2align	4, 0x90
__ZN15objc_foundation6object9INSObject8is_equal17h97856f1c77fe92edE:
Lfunc_begin59:
	.loc	29 24 0
	.cfi_startproc
	.cfi_personality 155, _rust_eh_personality
	.cfi_lsda 16, Lexception23
	pushq	%rbp
	.cfi_def_cfa_offset 16
	.cfi_offset %rbp, -16
	movq	%rsp, %rbp
	.cfi_def_cfa_register %rbp
	subq	$272, %rsp
	movq	%rdi, -272(%rbp)
	movq	%rsi, -264(%rbp)
	movq	%rdi, -176(%rbp)
	movq	%rsi, -168(%rbp)
	leaq	l___unnamed_13(%rip), %rax
	movq	%rax, -56(%rbp)
	movq	$9, -48(%rbp)
Ltmp461:
	.loc	1 54 36 prologue_end
	movb	$0, -73(%rbp)
	.loc	1 54 27 is_stmt 0
	leaq	__ZN15objc_foundation6object9INSObject8is_equal12register_sel3SEL17he040c73c09d0268bE(%rip), %rdi
	movzbl	-73(%rbp), %esi
	callq	__ZN4core4sync6atomic11AtomicUsize4load17h414ac7215cdd4711E
	movq	%rax, %rdi
	movq	%rdi, -256(%rbp)
	movq	%rdi, -40(%rbp)
Ltmp462:
	.loc	1 57 20 is_stmt 1
	callq	__ZN4core3ptr9const_ptr33_$LT$impl$u20$$BP$const$u20$T$GT$7is_null17ha546985450a90861E
	testb	$1, %al
	jne	LBB59_2
	.loc	1 0 20 is_stmt 0
	movq	-256(%rbp), %rdi
	.loc	1 62 21 is_stmt 1
	callq	__ZN4objc7runtime3Sel8from_ptr17h46170875a16a98c8E
	movq	%rax, -24(%rbp)
	movq	-24(%rbp), %rax
	movq	%rax, -88(%rbp)
	jmp	LBB59_3
LBB59_2:
	.loc	1 0 21 is_stmt 0
	leaq	l___unnamed_13(%rip), %rax
	movq	%rax, -16(%rbp)
	movq	$9, -8(%rbp)
	.loc	1 58 31 is_stmt 1
	leaq	l___unnamed_13(%rip), %rdi
	callq	_sel_registerName
	movq	%rax, -32(%rbp)
	movq	-32(%rbp), %rax
	movq	%rax, -72(%rbp)
Ltmp463:
	.loc	1 59 31
	leaq	-72(%rbp), %rdi
	callq	__ZN4objc7runtime3Sel6as_ptr17had96c85b9ac5883dE
	movq	%rax, %rsi
	.loc	1 59 54 is_stmt 0
	movb	$0, -57(%rbp)
	.loc	1 59 21
	leaq	__ZN15objc_foundation6object9INSObject8is_equal12register_sel3SEL17he040c73c09d0268bE(%rip), %rdi
	movzbl	-57(%rbp), %edx
	callq	__ZN4core4sync6atomic11AtomicUsize5store17h6f28dde4ed03a931E
	.loc	1 60 21 is_stmt 1
	movq	-72(%rbp), %rax
	movq	%rax, -88(%rbp)
Ltmp464:
LBB59_3:
	.loc	1 0 21 is_stmt 0
	movq	-272(%rbp), %rsi
	movq	-264(%rbp), %rax
	.loc	1 65 10 is_stmt 1
	movq	-88(%rbp), %rcx
Ltmp465:
	.loc	29 26 13
	movq	%rcx, -160(%rbp)
	movq	-160(%rbp), %rcx
	movq	%rcx, -248(%rbp)
Ltmp466:
	.loc	29 26 13 is_stmt 0
	movq	-248(%rbp), %rcx
	movq	%rcx, -216(%rbp)
	movq	%rax, -208(%rbp)
	movq	-216(%rbp), %rax
	movq	-208(%rbp), %rcx
	movq	%rax, -120(%rbp)
	movq	-120(%rbp), %rax
	movq	%rax, -128(%rbp)
	movq	%rsi, -104(%rbp)
	movq	%rcx, -96(%rbp)
Ltmp467:
	.loc	26 178 26 is_stmt 1
	movq	-128(%rbp), %rax
	movq	%rax, -112(%rbp)
	.loc	26 178 5 is_stmt 0
	movq	-112(%rbp), %rdx
	leaq	-240(%rbp), %rdi
	callq	__ZN4objc7message8platform15send_unverified17ha0de9776f005aed4E
Ltmp468:
	.loc	29 26 13 is_stmt 1
	movq	-232(%rbp), %rdx
	movl	$1, %eax
	xorl	%ecx, %ecx
	cmpq	$0, %rdx
	cmoveq	%rcx, %rax
	cmpq	$0, %rax
	jne	LBB59_5
	movb	-240(%rbp), %al
	movb	%al, -131(%rbp)
Ltmp469:
	.loc	29 26 13 is_stmt 0
	movb	%al, -130(%rbp)
Ltmp470:
	.loc	29 26 13
	movb	%al, -129(%rbp)
Ltmp471:
	.loc	29 28 9 is_stmt 1
	cmpb	$0, %al
	setne	%al
Ltmp472:
	.loc	29 29 6
	andb	$1, %al
	movzbl	%al, %eax
	addq	$272, %rsp
	popq	%rbp
	retq
LBB59_5:
Ltmp473:
	.loc	29 26 13
	movq	-224(%rbp), %rax
	movq	%rax, -184(%rbp)
	movq	-240(%rbp), %rax
	movq	-232(%rbp), %rcx
	movq	%rcx, -192(%rbp)
	movq	%rax, -200(%rbp)
Ltmp455:
Ltmp474:
	.loc	29 26 13 is_stmt 0
	leaq	l___unnamed_14(%rip), %rsi
	leaq	-200(%rbp), %rdi
	callq	__ZN4core9panicking13panic_display17h0e09fb0b7d155fc4E
Ltmp456:
	jmp	LBB59_8
Ltmp475:
LBB59_6:
Ltmp458:
	.loc	29 0 13
	leaq	-200(%rbp), %rdi
	.loc	29 26 13
	callq	__ZN4core3ptr48drop_in_place$LT$objc..message..MessageError$GT$17h5c4247deb9137b06E
Ltmp459:
	jmp	LBB59_10
Ltmp476:
LBB59_7:
Ltmp457:
	.loc	29 0 13
	movq	%rax, %rcx
	movl	%edx, %eax
	movq	%rcx, -152(%rbp)
	movl	%eax, -144(%rbp)
	jmp	LBB59_6
LBB59_8:
	ud2
LBB59_9:
Ltmp460:
	.loc	29 24 5 is_stmt 1
	callq	__ZN4core9panicking19panic_cannot_unwind17h1fbca7e1d7f56ae1E
LBB59_10:
	movq	-152(%rbp), %rdi
	callq	__Unwind_Resume
Ltmp477:
Lfunc_end59:
	.cfi_endproc
	.section	__TEXT,__gcc_except_tab
	.p2align	2
GCC_except_table59:
Lexception23:
	.byte	255
	.byte	255
	.byte	1
	.uleb128 Lcst_end23-Lcst_begin23
Lcst_begin23:
	.uleb128 Lfunc_begin59-Lfunc_begin59
	.uleb128 Ltmp455-Lfunc_begin59
	.byte	0
	.byte	0
	.uleb128 Ltmp455-Lfunc_begin59
	.uleb128 Ltmp456-Ltmp455
	.uleb128 Ltmp457-Lfunc_begin59
	.byte	0
	.uleb128 Ltmp458-Lfunc_begin59
	.uleb128 Ltmp459-Ltmp458
	.uleb128 Ltmp460-Lfunc_begin59
	.byte	0
	.uleb128 Ltmp459-Lfunc_begin59
	.uleb128 Lfunc_end59-Ltmp459
	.byte	0
	.byte	0
Lcst_end23:
	.p2align	2

	.section	__TEXT,__text,regular,pure_instructions
	.globl	__ZN15objc_foundation6object9INSObject8is_equal17hd2b6aa212dd6c7f2E
	.p2align	4, 0x90
__ZN15objc_foundation6object9INSObject8is_equal17hd2b6aa212dd6c7f2E:
Lfunc_begin60:
	.loc	29 24 0
	.cfi_startproc
	.cfi_personality 155, _rust_eh_personality
	.cfi_lsda 16, Lexception24
	pushq	%rbp
	.cfi_def_cfa_offset 16
	.cfi_offset %rbp, -16
	movq	%rsp, %rbp
	.cfi_def_cfa_register %rbp
	subq	$272, %rsp
	movq	%rdi, -272(%rbp)
	movq	%rsi, -264(%rbp)
	movq	%rdi, -176(%rbp)
	movq	%rsi, -168(%rbp)
	leaq	l___unnamed_13(%rip), %rax
	movq	%rax, -56(%rbp)
	movq	$9, -48(%rbp)
Ltmp484:
	.loc	1 54 36 prologue_end
	movb	$0, -73(%rbp)
	.loc	1 54 27 is_stmt 0
	leaq	__ZN15objc_foundation6object9INSObject8is_equal12register_sel3SEL17he040c73c09d0268bE(%rip), %rdi
	movzbl	-73(%rbp), %esi
	callq	__ZN4core4sync6atomic11AtomicUsize4load17h414ac7215cdd4711E
	movq	%rax, %rdi
	movq	%rdi, -256(%rbp)
	movq	%rdi, -40(%rbp)
Ltmp485:
	.loc	1 57 20 is_stmt 1
	callq	__ZN4core3ptr9const_ptr33_$LT$impl$u20$$BP$const$u20$T$GT$7is_null17ha546985450a90861E
	testb	$1, %al
	jne	LBB60_2
	.loc	1 0 20 is_stmt 0
	movq	-256(%rbp), %rdi
	.loc	1 62 21 is_stmt 1
	callq	__ZN4objc7runtime3Sel8from_ptr17h46170875a16a98c8E
	movq	%rax, -24(%rbp)
	movq	-24(%rbp), %rax
	movq	%rax, -88(%rbp)
	jmp	LBB60_3
LBB60_2:
	.loc	1 0 21 is_stmt 0
	leaq	l___unnamed_13(%rip), %rax
	movq	%rax, -16(%rbp)
	movq	$9, -8(%rbp)
	.loc	1 58 31 is_stmt 1
	leaq	l___unnamed_13(%rip), %rdi
	callq	_sel_registerName
	movq	%rax, -32(%rbp)
	movq	-32(%rbp), %rax
	movq	%rax, -72(%rbp)
Ltmp486:
	.loc	1 59 31
	leaq	-72(%rbp), %rdi
	callq	__ZN4objc7runtime3Sel6as_ptr17had96c85b9ac5883dE
	movq	%rax, %rsi
	.loc	1 59 54 is_stmt 0
	movb	$0, -57(%rbp)
	.loc	1 59 21
	leaq	__ZN15objc_foundation6object9INSObject8is_equal12register_sel3SEL17he040c73c09d0268bE(%rip), %rdi
	movzbl	-57(%rbp), %edx
	callq	__ZN4core4sync6atomic11AtomicUsize5store17h6f28dde4ed03a931E
	.loc	1 60 21 is_stmt 1
	movq	-72(%rbp), %rax
	movq	%rax, -88(%rbp)
Ltmp487:
LBB60_3:
	.loc	1 0 21 is_stmt 0
	movq	-272(%rbp), %rsi
	movq	-264(%rbp), %rax
	.loc	1 65 10 is_stmt 1
	movq	-88(%rbp), %rcx
Ltmp488:
	.loc	29 26 13
	movq	%rcx, -160(%rbp)
	movq	-160(%rbp), %rcx
	movq	%rcx, -248(%rbp)
Ltmp489:
	.loc	29 26 13 is_stmt 0
	movq	-248(%rbp), %rcx
	movq	%rcx, -216(%rbp)
	movq	%rax, -208(%rbp)
	movq	-216(%rbp), %rax
	movq	-208(%rbp), %rcx
	movq	%rax, -120(%rbp)
	movq	-120(%rbp), %rax
	movq	%rax, -128(%rbp)
	movq	%rsi, -104(%rbp)
	movq	%rcx, -96(%rbp)
Ltmp490:
	.loc	26 178 26 is_stmt 1
	movq	-128(%rbp), %rax
	movq	%rax, -112(%rbp)
	.loc	26 178 5 is_stmt 0
	movq	-112(%rbp), %rdx
	leaq	-240(%rbp), %rdi
	callq	__ZN4objc7message8platform15send_unverified17h4c6a3dbe7ceb9744E
Ltmp491:
	.loc	29 26 13 is_stmt 1
	movq	-232(%rbp), %rdx
	movl	$1, %eax
	xorl	%ecx, %ecx
	cmpq	$0, %rdx
	cmoveq	%rcx, %rax
	cmpq	$0, %rax
	jne	LBB60_5
	movb	-240(%rbp), %al
	movb	%al, -131(%rbp)
Ltmp492:
	.loc	29 26 13 is_stmt 0
	movb	%al, -130(%rbp)
Ltmp493:
	.loc	29 26 13
	movb	%al, -129(%rbp)
Ltmp494:
	.loc	29 28 9 is_stmt 1
	cmpb	$0, %al
	setne	%al
Ltmp495:
	.loc	29 29 6
	andb	$1, %al
	movzbl	%al, %eax
	addq	$272, %rsp
	popq	%rbp
	retq
LBB60_5:
Ltmp496:
	.loc	29 26 13
	movq	-224(%rbp), %rax
	movq	%rax, -184(%rbp)
	movq	-240(%rbp), %rax
	movq	-232(%rbp), %rcx
	movq	%rcx, -192(%rbp)
	movq	%rax, -200(%rbp)
Ltmp478:
Ltmp497:
	.loc	29 26 13 is_stmt 0
	leaq	l___unnamed_14(%rip), %rsi
	leaq	-200(%rbp), %rdi
	callq	__ZN4core9panicking13panic_display17h0e09fb0b7d155fc4E
Ltmp479:
	jmp	LBB60_8
Ltmp498:
LBB60_6:
Ltmp481:
	.loc	29 0 13
	leaq	-200(%rbp), %rdi
	.loc	29 26 13
	callq	__ZN4core3ptr48drop_in_place$LT$objc..message..MessageError$GT$17h5c4247deb9137b06E
Ltmp482:
	jmp	LBB60_10
Ltmp499:
LBB60_7:
Ltmp480:
	.loc	29 0 13
	movq	%rax, %rcx
	movl	%edx, %eax
	movq	%rcx, -152(%rbp)
	movl	%eax, -144(%rbp)
	jmp	LBB60_6
LBB60_8:
	ud2
LBB60_9:
Ltmp483:
	.loc	29 24 5 is_stmt 1
	callq	__ZN4core9panicking19panic_cannot_unwind17h1fbca7e1d7f56ae1E
LBB60_10:
	movq	-152(%rbp), %rdi
	callq	__Unwind_Resume
Ltmp500:
Lfunc_end60:
	.cfi_endproc
	.section	__TEXT,__gcc_except_tab
	.p2align	2
GCC_except_table60:
Lexception24:
	.byte	255
	.byte	255
	.byte	1
	.uleb128 Lcst_end24-Lcst_begin24
Lcst_begin24:
	.uleb128 Lfunc_begin60-Lfunc_begin60
	.uleb128 Ltmp478-Lfunc_begin60
	.byte	0
	.byte	0
	.uleb128 Ltmp478-Lfunc_begin60
	.uleb128 Ltmp479-Ltmp478
	.uleb128 Ltmp480-Lfunc_begin60
	.byte	0
	.uleb128 Ltmp481-Lfunc_begin60
	.uleb128 Ltmp482-Ltmp481
	.uleb128 Ltmp483-Lfunc_begin60
	.byte	0
	.uleb128 Ltmp482-Lfunc_begin60
	.uleb128 Lfunc_end60-Ltmp482
	.byte	0
	.byte	0
Lcst_end24:
	.p2align	2

	.section	__TEXT,__text,regular,pure_instructions
	.globl	__ZN15objc_foundation6object9INSObject11description17h3288bce13f779d31E
	.p2align	4, 0x90
__ZN15objc_foundation6object9INSObject11description17h3288bce13f779d31E:
Lfunc_begin61:
	.loc	29 31 0
	.cfi_startproc
	.cfi_personality 155, _rust_eh_personality
	.cfi_lsda 16, Lexception25
	pushq	%rbp
	.cfi_def_cfa_offset 16
	.cfi_offset %rbp, -16
	movq	%rsp, %rbp
	.cfi_def_cfa_register %rbp
	subq	$256, %rsp
	movq	%rdi, -256(%rbp)
	movq	%rdi, -176(%rbp)
	leaq	l___unnamed_15(%rip), %rax
	movq	%rax, -56(%rbp)
	movq	$12, -48(%rbp)
Ltmp507:
	.loc	1 54 36 prologue_end
	movb	$0, -73(%rbp)
	.loc	1 54 27 is_stmt 0
	leaq	__ZN15objc_foundation6object9INSObject11description12register_sel3SEL17h96981968c9a259a2E(%rip), %rdi
	movzbl	-73(%rbp), %esi
	callq	__ZN4core4sync6atomic11AtomicUsize4load17h414ac7215cdd4711E
	movq	%rax, %rdi
	movq	%rdi, -248(%rbp)
	movq	%rdi, -40(%rbp)
Ltmp508:
	.loc	1 57 20 is_stmt 1
	callq	__ZN4core3ptr9const_ptr33_$LT$impl$u20$$BP$const$u20$T$GT$7is_null17ha546985450a90861E
	testb	$1, %al
	jne	LBB61_2
	.loc	1 0 20 is_stmt 0
	movq	-248(%rbp), %rdi
	.loc	1 62 21 is_stmt 1
	callq	__ZN4objc7runtime3Sel8from_ptr17h46170875a16a98c8E
	movq	%rax, -24(%rbp)
	movq	-24(%rbp), %rax
	movq	%rax, -88(%rbp)
	jmp	LBB61_3
LBB61_2:
	.loc	1 0 21 is_stmt 0
	leaq	l___unnamed_15(%rip), %rax
	movq	%rax, -16(%rbp)
	movq	$12, -8(%rbp)
	.loc	1 58 31 is_stmt 1
	leaq	l___unnamed_15(%rip), %rdi
	callq	_sel_registerName
	movq	%rax, -32(%rbp)
	movq	-32(%rbp), %rax
	movq	%rax, -72(%rbp)
Ltmp509:
	.loc	1 59 31
	leaq	-72(%rbp), %rdi
	callq	__ZN4objc7runtime3Sel6as_ptr17had96c85b9ac5883dE
	movq	%rax, %rsi
	.loc	1 59 54 is_stmt 0
	movb	$0, -57(%rbp)
	.loc	1 59 21
	leaq	__ZN15objc_foundation6object9INSObject11description12register_sel3SEL17h96981968c9a259a2E(%rip), %rdi
	movzbl	-57(%rbp), %edx
	callq	__ZN4core4sync6atomic11AtomicUsize5store17h6f28dde4ed03a931E
	.loc	1 60 21 is_stmt 1
	movq	-72(%rbp), %rax
	movq	%rax, -88(%rbp)
Ltmp510:
LBB61_3:
	.loc	1 0 21 is_stmt 0
	movq	-256(%rbp), %rsi
	.loc	1 65 10 is_stmt 1
	movq	-88(%rbp), %rax
Ltmp511:
	.loc	29 33 41
	movq	%rax, -168(%rbp)
	movq	-168(%rbp), %rax
	movq	%rax, -240(%rbp)
Ltmp512:
	.loc	29 33 41 is_stmt 0
	movq	-240(%rbp), %rax
	movq	%rax, -208(%rbp)
	movq	-208(%rbp), %rax
	movq	%rax, -112(%rbp)
	movq	-112(%rbp), %rax
	movq	%rax, -120(%rbp)
	movq	%rsi, -96(%rbp)
Ltmp513:
	.loc	26 178 26 is_stmt 1
	movq	-120(%rbp), %rax
	movq	%rax, -104(%rbp)
	.loc	26 178 5 is_stmt 0
	movq	-104(%rbp), %rdx
	leaq	-232(%rbp), %rdi
	callq	__ZN4objc7message8platform15send_unverified17h7bf0b217e6aae99bE
Ltmp514:
	.loc	29 33 41 is_stmt 1
	movq	-224(%rbp), %rdx
	movl	$1, %eax
	xorl	%ecx, %ecx
	cmpq	$0, %rdx
	cmoveq	%rcx, %rax
	cmpq	$0, %rax
	jne	LBB61_5
	movq	-232(%rbp), %rdi
	movq	%rdi, -144(%rbp)
Ltmp515:
	.loc	29 33 41 is_stmt 0
	movq	%rdi, -136(%rbp)
Ltmp516:
	.loc	29 33 41
	movq	%rdi, -128(%rbp)
Ltmp517:
	.loc	29 34 13 is_stmt 1
	callq	__ZN7objc_id2id15Id$LT$T$C$O$GT$8from_ptr17hac9ec3544313acd2E
Ltmp518:
	.loc	29 36 6
	addq	$256, %rsp
	popq	%rbp
	retq
LBB61_5:
Ltmp519:
	.loc	29 33 41
	movq	-216(%rbp), %rax
	movq	%rax, -184(%rbp)
	movq	-232(%rbp), %rax
	movq	-224(%rbp), %rcx
	movq	%rcx, -192(%rbp)
	movq	%rax, -200(%rbp)
Ltmp501:
Ltmp520:
	.loc	29 33 41 is_stmt 0
	leaq	l___unnamed_16(%rip), %rsi
	leaq	-200(%rbp), %rdi
	callq	__ZN4core9panicking13panic_display17h0e09fb0b7d155fc4E
Ltmp502:
	jmp	LBB61_8
Ltmp521:
LBB61_6:
Ltmp504:
	.loc	29 0 41
	leaq	-200(%rbp), %rdi
	.loc	29 33 41
	callq	__ZN4core3ptr48drop_in_place$LT$objc..message..MessageError$GT$17h5c4247deb9137b06E
Ltmp505:
	jmp	LBB61_10
Ltmp522:
LBB61_7:
Ltmp503:
	.loc	29 0 41
	movq	%rax, %rcx
	movl	%edx, %eax
	movq	%rcx, -160(%rbp)
	movl	%eax, -152(%rbp)
	jmp	LBB61_6
LBB61_8:
	ud2
LBB61_9:
Ltmp506:
	.loc	29 31 5 is_stmt 1
	callq	__ZN4core9panicking19panic_cannot_unwind17h1fbca7e1d7f56ae1E
LBB61_10:
	movq	-160(%rbp), %rdi
	callq	__Unwind_Resume
Ltmp523:
Lfunc_end61:
	.cfi_endproc
	.section	__TEXT,__gcc_except_tab
	.p2align	2
GCC_except_table61:
Lexception25:
	.byte	255
	.byte	255
	.byte	1
	.uleb128 Lcst_end25-Lcst_begin25
Lcst_begin25:
	.uleb128 Lfunc_begin61-Lfunc_begin61
	.uleb128 Ltmp501-Lfunc_begin61
	.byte	0
	.byte	0
	.uleb128 Ltmp501-Lfunc_begin61
	.uleb128 Ltmp502-Ltmp501
	.uleb128 Ltmp503-Lfunc_begin61
	.byte	0
	.uleb128 Ltmp504-Lfunc_begin61
	.uleb128 Ltmp505-Ltmp504
	.uleb128 Ltmp506-Lfunc_begin61
	.byte	0
	.uleb128 Ltmp505-Lfunc_begin61
	.uleb128 Lfunc_end61-Ltmp505
	.byte	0
	.byte	0
Lcst_end25:
	.p2align	2

	.section	__TEXT,__text,regular,pure_instructions
	.globl	__ZN15objc_foundation6object9INSObject11description17ha032e7772fd5a38aE
	.p2align	4, 0x90
__ZN15objc_foundation6object9INSObject11description17ha032e7772fd5a38aE:
Lfunc_begin62:
	.loc	29 31 0
	.cfi_startproc
	.cfi_personality 155, _rust_eh_personality
	.cfi_lsda 16, Lexception26
	pushq	%rbp
	.cfi_def_cfa_offset 16
	.cfi_offset %rbp, -16
	movq	%rsp, %rbp
	.cfi_def_cfa_register %rbp
	subq	$256, %rsp
	movq	%rdi, -256(%rbp)
	movq	%rdi, -176(%rbp)
	leaq	l___unnamed_15(%rip), %rax
	movq	%rax, -56(%rbp)
	movq	$12, -48(%rbp)
Ltmp530:
	.loc	1 54 36 prologue_end
	movb	$0, -73(%rbp)
	.loc	1 54 27 is_stmt 0
	leaq	__ZN15objc_foundation6object9INSObject11description12register_sel3SEL17h96981968c9a259a2E(%rip), %rdi
	movzbl	-73(%rbp), %esi
	callq	__ZN4core4sync6atomic11AtomicUsize4load17h414ac7215cdd4711E
	movq	%rax, %rdi
	movq	%rdi, -248(%rbp)
	movq	%rdi, -40(%rbp)
Ltmp531:
	.loc	1 57 20 is_stmt 1
	callq	__ZN4core3ptr9const_ptr33_$LT$impl$u20$$BP$const$u20$T$GT$7is_null17ha546985450a90861E
	testb	$1, %al
	jne	LBB62_2
	.loc	1 0 20 is_stmt 0
	movq	-248(%rbp), %rdi
	.loc	1 62 21 is_stmt 1
	callq	__ZN4objc7runtime3Sel8from_ptr17h46170875a16a98c8E
	movq	%rax, -24(%rbp)
	movq	-24(%rbp), %rax
	movq	%rax, -88(%rbp)
	jmp	LBB62_3
LBB62_2:
	.loc	1 0 21 is_stmt 0
	leaq	l___unnamed_15(%rip), %rax
	movq	%rax, -16(%rbp)
	movq	$12, -8(%rbp)
	.loc	1 58 31 is_stmt 1
	leaq	l___unnamed_15(%rip), %rdi
	callq	_sel_registerName
	movq	%rax, -32(%rbp)
	movq	-32(%rbp), %rax
	movq	%rax, -72(%rbp)
Ltmp532:
	.loc	1 59 31
	leaq	-72(%rbp), %rdi
	callq	__ZN4objc7runtime3Sel6as_ptr17had96c85b9ac5883dE
	movq	%rax, %rsi
	.loc	1 59 54 is_stmt 0
	movb	$0, -57(%rbp)
	.loc	1 59 21
	leaq	__ZN15objc_foundation6object9INSObject11description12register_sel3SEL17h96981968c9a259a2E(%rip), %rdi
	movzbl	-57(%rbp), %edx
	callq	__ZN4core4sync6atomic11AtomicUsize5store17h6f28dde4ed03a931E
	.loc	1 60 21 is_stmt 1
	movq	-72(%rbp), %rax
	movq	%rax, -88(%rbp)
Ltmp533:
LBB62_3:
	.loc	1 0 21 is_stmt 0
	movq	-256(%rbp), %rsi
	.loc	1 65 10 is_stmt 1
	movq	-88(%rbp), %rax
Ltmp534:
	.loc	29 33 41
	movq	%rax, -168(%rbp)
	movq	-168(%rbp), %rax
	movq	%rax, -240(%rbp)
Ltmp535:
	.loc	29 33 41 is_stmt 0
	movq	-240(%rbp), %rax
	movq	%rax, -208(%rbp)
	movq	-208(%rbp), %rax
	movq	%rax, -112(%rbp)
	movq	-112(%rbp), %rax
	movq	%rax, -120(%rbp)
	movq	%rsi, -96(%rbp)
Ltmp536:
	.loc	26 178 26 is_stmt 1
	movq	-120(%rbp), %rax
	movq	%rax, -104(%rbp)
	.loc	26 178 5 is_stmt 0
	movq	-104(%rbp), %rdx
	leaq	-232(%rbp), %rdi
	callq	__ZN4objc7message8platform15send_unverified17h05373f8facd1fa9bE
Ltmp537:
	.loc	29 33 41 is_stmt 1
	movq	-224(%rbp), %rdx
	movl	$1, %eax
	xorl	%ecx, %ecx
	cmpq	$0, %rdx
	cmoveq	%rcx, %rax
	cmpq	$0, %rax
	jne	LBB62_5
	movq	-232(%rbp), %rdi
	movq	%rdi, -144(%rbp)
Ltmp538:
	.loc	29 33 41 is_stmt 0
	movq	%rdi, -136(%rbp)
Ltmp539:
	.loc	29 33 41
	movq	%rdi, -128(%rbp)
Ltmp540:
	.loc	29 34 13 is_stmt 1
	callq	__ZN7objc_id2id15Id$LT$T$C$O$GT$8from_ptr17hac9ec3544313acd2E
Ltmp541:
	.loc	29 36 6
	addq	$256, %rsp
	popq	%rbp
	retq
LBB62_5:
Ltmp542:
	.loc	29 33 41
	movq	-216(%rbp), %rax
	movq	%rax, -184(%rbp)
	movq	-232(%rbp), %rax
	movq	-224(%rbp), %rcx
	movq	%rcx, -192(%rbp)
	movq	%rax, -200(%rbp)
Ltmp524:
Ltmp543:
	.loc	29 33 41 is_stmt 0
	leaq	l___unnamed_16(%rip), %rsi
	leaq	-200(%rbp), %rdi
	callq	__ZN4core9panicking13panic_display17h0e09fb0b7d155fc4E
Ltmp525:
	jmp	LBB62_8
Ltmp544:
LBB62_6:
Ltmp527:
	.loc	29 0 41
	leaq	-200(%rbp), %rdi
	.loc	29 33 41
	callq	__ZN4core3ptr48drop_in_place$LT$objc..message..MessageError$GT$17h5c4247deb9137b06E
Ltmp528:
	jmp	LBB62_10
Ltmp545:
LBB62_7:
Ltmp526:
	.loc	29 0 41
	movq	%rax, %rcx
	movl	%edx, %eax
	movq	%rcx, -160(%rbp)
	movl	%eax, -152(%rbp)
	jmp	LBB62_6
LBB62_8:
	ud2
LBB62_9:
Ltmp529:
	.loc	29 31 5 is_stmt 1
	callq	__ZN4core9panicking19panic_cannot_unwind17h1fbca7e1d7f56ae1E
LBB62_10:
	movq	-160(%rbp), %rdi
	callq	__Unwind_Resume
Ltmp546:
Lfunc_end62:
	.cfi_endproc
	.section	__TEXT,__gcc_except_tab
	.p2align	2
GCC_except_table62:
Lexception26:
	.byte	255
	.byte	255
	.byte	1
	.uleb128 Lcst_end26-Lcst_begin26
Lcst_begin26:
	.uleb128 Lfunc_begin62-Lfunc_begin62
	.uleb128 Ltmp524-Lfunc_begin62
	.byte	0
	.byte	0
	.uleb128 Ltmp524-Lfunc_begin62
	.uleb128 Ltmp525-Ltmp524
	.uleb128 Ltmp526-Lfunc_begin62
	.byte	0
	.uleb128 Ltmp527-Lfunc_begin62
	.uleb128 Ltmp528-Ltmp527
	.uleb128 Ltmp529-Lfunc_begin62
	.byte	0
	.uleb128 Ltmp528-Lfunc_begin62
	.uleb128 Lfunc_end62-Ltmp528
	.byte	0
	.byte	0
Lcst_end26:
	.p2align	2

	.section	__TEXT,__text,regular,pure_instructions
	.globl	__ZN15objc_foundation6object9INSObject11description17hc5931efb82ea2940E
	.p2align	4, 0x90
__ZN15objc_foundation6object9INSObject11description17hc5931efb82ea2940E:
Lfunc_begin63:
	.loc	29 31 0
	.cfi_startproc
	.cfi_personality 155, _rust_eh_personality
	.cfi_lsda 16, Lexception27
	pushq	%rbp
	.cfi_def_cfa_offset 16
	.cfi_offset %rbp, -16
	movq	%rsp, %rbp
	.cfi_def_cfa_register %rbp
	subq	$256, %rsp
	movq	%rdi, -256(%rbp)
	movq	%rdi, -176(%rbp)
	leaq	l___unnamed_15(%rip), %rax
	movq	%rax, -56(%rbp)
	movq	$12, -48(%rbp)
Ltmp553:
	.loc	1 54 36 prologue_end
	movb	$0, -73(%rbp)
	.loc	1 54 27 is_stmt 0
	leaq	__ZN15objc_foundation6object9INSObject11description12register_sel3SEL17h96981968c9a259a2E(%rip), %rdi
	movzbl	-73(%rbp), %esi
	callq	__ZN4core4sync6atomic11AtomicUsize4load17h414ac7215cdd4711E
	movq	%rax, %rdi
	movq	%rdi, -248(%rbp)
	movq	%rdi, -40(%rbp)
Ltmp554:
	.loc	1 57 20 is_stmt 1
	callq	__ZN4core3ptr9const_ptr33_$LT$impl$u20$$BP$const$u20$T$GT$7is_null17ha546985450a90861E
	testb	$1, %al
	jne	LBB63_2
	.loc	1 0 20 is_stmt 0
	movq	-248(%rbp), %rdi
	.loc	1 62 21 is_stmt 1
	callq	__ZN4objc7runtime3Sel8from_ptr17h46170875a16a98c8E
	movq	%rax, -24(%rbp)
	movq	-24(%rbp), %rax
	movq	%rax, -88(%rbp)
	jmp	LBB63_3
LBB63_2:
	.loc	1 0 21 is_stmt 0
	leaq	l___unnamed_15(%rip), %rax
	movq	%rax, -16(%rbp)
	movq	$12, -8(%rbp)
	.loc	1 58 31 is_stmt 1
	leaq	l___unnamed_15(%rip), %rdi
	callq	_sel_registerName
	movq	%rax, -32(%rbp)
	movq	-32(%rbp), %rax
	movq	%rax, -72(%rbp)
Ltmp555:
	.loc	1 59 31
	leaq	-72(%rbp), %rdi
	callq	__ZN4objc7runtime3Sel6as_ptr17had96c85b9ac5883dE
	movq	%rax, %rsi
	.loc	1 59 54 is_stmt 0
	movb	$0, -57(%rbp)
	.loc	1 59 21
	leaq	__ZN15objc_foundation6object9INSObject11description12register_sel3SEL17h96981968c9a259a2E(%rip), %rdi
	movzbl	-57(%rbp), %edx
	callq	__ZN4core4sync6atomic11AtomicUsize5store17h6f28dde4ed03a931E
	.loc	1 60 21 is_stmt 1
	movq	-72(%rbp), %rax
	movq	%rax, -88(%rbp)
Ltmp556:
LBB63_3:
	.loc	1 0 21 is_stmt 0
	movq	-256(%rbp), %rsi
	.loc	1 65 10 is_stmt 1
	movq	-88(%rbp), %rax
Ltmp557:
	.loc	29 33 41
	movq	%rax, -168(%rbp)
	movq	-168(%rbp), %rax
	movq	%rax, -240(%rbp)
Ltmp558:
	.loc	29 33 41 is_stmt 0
	movq	-240(%rbp), %rax
	movq	%rax, -208(%rbp)
	movq	-208(%rbp), %rax
	movq	%rax, -112(%rbp)
	movq	-112(%rbp), %rax
	movq	%rax, -120(%rbp)
	movq	%rsi, -96(%rbp)
Ltmp559:
	.loc	26 178 26 is_stmt 1
	movq	-120(%rbp), %rax
	movq	%rax, -104(%rbp)
	.loc	26 178 5 is_stmt 0
	movq	-104(%rbp), %rdx
	leaq	-232(%rbp), %rdi
	callq	__ZN4objc7message8platform15send_unverified17hb4da07484adb48fbE
Ltmp560:
	.loc	29 33 41 is_stmt 1
	movq	-224(%rbp), %rdx
	movl	$1, %eax
	xorl	%ecx, %ecx
	cmpq	$0, %rdx
	cmoveq	%rcx, %rax
	cmpq	$0, %rax
	jne	LBB63_5
	movq	-232(%rbp), %rdi
	movq	%rdi, -144(%rbp)
Ltmp561:
	.loc	29 33 41 is_stmt 0
	movq	%rdi, -136(%rbp)
Ltmp562:
	.loc	29 33 41
	movq	%rdi, -128(%rbp)
Ltmp563:
	.loc	29 34 13 is_stmt 1
	callq	__ZN7objc_id2id15Id$LT$T$C$O$GT$8from_ptr17hac9ec3544313acd2E
Ltmp564:
	.loc	29 36 6
	addq	$256, %rsp
	popq	%rbp
	retq
LBB63_5:
Ltmp565:
	.loc	29 33 41
	movq	-216(%rbp), %rax
	movq	%rax, -184(%rbp)
	movq	-232(%rbp), %rax
	movq	-224(%rbp), %rcx
	movq	%rcx, -192(%rbp)
	movq	%rax, -200(%rbp)
Ltmp547:
Ltmp566:
	.loc	29 33 41 is_stmt 0
	leaq	l___unnamed_16(%rip), %rsi
	leaq	-200(%rbp), %rdi
	callq	__ZN4core9panicking13panic_display17h0e09fb0b7d155fc4E
Ltmp548:
	jmp	LBB63_8
Ltmp567:
LBB63_6:
Ltmp550:
	.loc	29 0 41
	leaq	-200(%rbp), %rdi
	.loc	29 33 41
	callq	__ZN4core3ptr48drop_in_place$LT$objc..message..MessageError$GT$17h5c4247deb9137b06E
Ltmp551:
	jmp	LBB63_10
Ltmp568:
LBB63_7:
Ltmp549:
	.loc	29 0 41
	movq	%rax, %rcx
	movl	%edx, %eax
	movq	%rcx, -160(%rbp)
	movl	%eax, -152(%rbp)
	jmp	LBB63_6
LBB63_8:
	ud2
LBB63_9:
Ltmp552:
	.loc	29 31 5 is_stmt 1
	callq	__ZN4core9panicking19panic_cannot_unwind17h1fbca7e1d7f56ae1E
LBB63_10:
	movq	-160(%rbp), %rdi
	callq	__Unwind_Resume
Ltmp569:
Lfunc_end63:
	.cfi_endproc
	.section	__TEXT,__gcc_except_tab
	.p2align	2
GCC_except_table63:
Lexception27:
	.byte	255
	.byte	255
	.byte	1
	.uleb128 Lcst_end27-Lcst_begin27
Lcst_begin27:
	.uleb128 Lfunc_begin63-Lfunc_begin63
	.uleb128 Ltmp547-Lfunc_begin63
	.byte	0
	.byte	0
	.uleb128 Ltmp547-Lfunc_begin63
	.uleb128 Ltmp548-Ltmp547
	.uleb128 Ltmp549-Lfunc_begin63
	.byte	0
	.uleb128 Ltmp550-Lfunc_begin63
	.uleb128 Ltmp551-Ltmp550
	.uleb128 Ltmp552-Lfunc_begin63
	.byte	0
	.uleb128 Ltmp551-Lfunc_begin63
	.uleb128 Lfunc_end63-Ltmp551
	.byte	0
	.byte	0
Lcst_end27:
	.p2align	2

	.section	__TEXT,__text,regular,pure_instructions
	.globl	__ZN15objc_foundation6object9INSObject11description17he0eb31e6c9337456E
	.p2align	4, 0x90
__ZN15objc_foundation6object9INSObject11description17he0eb31e6c9337456E:
Lfunc_begin64:
	.loc	29 31 0
	.cfi_startproc
	.cfi_personality 155, _rust_eh_personality
	.cfi_lsda 16, Lexception28
	pushq	%rbp
	.cfi_def_cfa_offset 16
	.cfi_offset %rbp, -16
	movq	%rsp, %rbp
	.cfi_def_cfa_register %rbp
	subq	$256, %rsp
	movq	%rdi, -256(%rbp)
	movq	%rdi, -176(%rbp)
	leaq	l___unnamed_15(%rip), %rax
	movq	%rax, -56(%rbp)
	movq	$12, -48(%rbp)
Ltmp576:
	.loc	1 54 36 prologue_end
	movb	$0, -73(%rbp)
	.loc	1 54 27 is_stmt 0
	leaq	__ZN15objc_foundation6object9INSObject11description12register_sel3SEL17h96981968c9a259a2E(%rip), %rdi
	movzbl	-73(%rbp), %esi
	callq	__ZN4core4sync6atomic11AtomicUsize4load17h414ac7215cdd4711E
	movq	%rax, %rdi
	movq	%rdi, -248(%rbp)
	movq	%rdi, -40(%rbp)
Ltmp577:
	.loc	1 57 20 is_stmt 1
	callq	__ZN4core3ptr9const_ptr33_$LT$impl$u20$$BP$const$u20$T$GT$7is_null17ha546985450a90861E
	testb	$1, %al
	jne	LBB64_2
	.loc	1 0 20 is_stmt 0
	movq	-248(%rbp), %rdi
	.loc	1 62 21 is_stmt 1
	callq	__ZN4objc7runtime3Sel8from_ptr17h46170875a16a98c8E
	movq	%rax, -24(%rbp)
	movq	-24(%rbp), %rax
	movq	%rax, -88(%rbp)
	jmp	LBB64_3
LBB64_2:
	.loc	1 0 21 is_stmt 0
	leaq	l___unnamed_15(%rip), %rax
	movq	%rax, -16(%rbp)
	movq	$12, -8(%rbp)
	.loc	1 58 31 is_stmt 1
	leaq	l___unnamed_15(%rip), %rdi
	callq	_sel_registerName
	movq	%rax, -32(%rbp)
	movq	-32(%rbp), %rax
	movq	%rax, -72(%rbp)
Ltmp578:
	.loc	1 59 31
	leaq	-72(%rbp), %rdi
	callq	__ZN4objc7runtime3Sel6as_ptr17had96c85b9ac5883dE
	movq	%rax, %rsi
	.loc	1 59 54 is_stmt 0
	movb	$0, -57(%rbp)
	.loc	1 59 21
	leaq	__ZN15objc_foundation6object9INSObject11description12register_sel3SEL17h96981968c9a259a2E(%rip), %rdi
	movzbl	-57(%rbp), %edx
	callq	__ZN4core4sync6atomic11AtomicUsize5store17h6f28dde4ed03a931E
	.loc	1 60 21 is_stmt 1
	movq	-72(%rbp), %rax
	movq	%rax, -88(%rbp)
Ltmp579:
LBB64_3:
	.loc	1 0 21 is_stmt 0
	movq	-256(%rbp), %rsi
	.loc	1 65 10 is_stmt 1
	movq	-88(%rbp), %rax
Ltmp580:
	.loc	29 33 41
	movq	%rax, -168(%rbp)
	movq	-168(%rbp), %rax
	movq	%rax, -240(%rbp)
Ltmp581:
	.loc	29 33 41 is_stmt 0
	movq	-240(%rbp), %rax
	movq	%rax, -208(%rbp)
	movq	-208(%rbp), %rax
	movq	%rax, -112(%rbp)
	movq	-112(%rbp), %rax
	movq	%rax, -120(%rbp)
	movq	%rsi, -96(%rbp)
Ltmp582:
	.loc	26 178 26 is_stmt 1
	movq	-120(%rbp), %rax
	movq	%rax, -104(%rbp)
	.loc	26 178 5 is_stmt 0
	movq	-104(%rbp), %rdx
	leaq	-232(%rbp), %rdi
	callq	__ZN4objc7message8platform15send_unverified17hb0aad910d1fb0e51E
Ltmp583:
	.loc	29 33 41 is_stmt 1
	movq	-224(%rbp), %rdx
	movl	$1, %eax
	xorl	%ecx, %ecx
	cmpq	$0, %rdx
	cmoveq	%rcx, %rax
	cmpq	$0, %rax
	jne	LBB64_5
	movq	-232(%rbp), %rdi
	movq	%rdi, -144(%rbp)
Ltmp584:
	.loc	29 33 41 is_stmt 0
	movq	%rdi, -136(%rbp)
Ltmp585:
	.loc	29 33 41
	movq	%rdi, -128(%rbp)
Ltmp586:
	.loc	29 34 13 is_stmt 1
	callq	__ZN7objc_id2id15Id$LT$T$C$O$GT$8from_ptr17hac9ec3544313acd2E
Ltmp587:
	.loc	29 36 6
	addq	$256, %rsp
	popq	%rbp
	retq
LBB64_5:
Ltmp588:
	.loc	29 33 41
	movq	-216(%rbp), %rax
	movq	%rax, -184(%rbp)
	movq	-232(%rbp), %rax
	movq	-224(%rbp), %rcx
	movq	%rcx, -192(%rbp)
	movq	%rax, -200(%rbp)
Ltmp570:
Ltmp589:
	.loc	29 33 41 is_stmt 0
	leaq	l___unnamed_16(%rip), %rsi
	leaq	-200(%rbp), %rdi
	callq	__ZN4core9panicking13panic_display17h0e09fb0b7d155fc4E
Ltmp571:
	jmp	LBB64_8
Ltmp590:
LBB64_6:
Ltmp573:
	.loc	29 0 41
	leaq	-200(%rbp), %rdi
	.loc	29 33 41
	callq	__ZN4core3ptr48drop_in_place$LT$objc..message..MessageError$GT$17h5c4247deb9137b06E
Ltmp574:
	jmp	LBB64_10
Ltmp591:
LBB64_7:
Ltmp572:
	.loc	29 0 41
	movq	%rax, %rcx
	movl	%edx, %eax
	movq	%rcx, -160(%rbp)
	movl	%eax, -152(%rbp)
	jmp	LBB64_6
LBB64_8:
	ud2
LBB64_9:
Ltmp575:
	.loc	29 31 5 is_stmt 1
	callq	__ZN4core9panicking19panic_cannot_unwind17h1fbca7e1d7f56ae1E
LBB64_10:
	movq	-160(%rbp), %rdi
	callq	__Unwind_Resume
Ltmp592:
Lfunc_end64:
	.cfi_endproc
	.section	__TEXT,__gcc_except_tab
	.p2align	2
GCC_except_table64:
Lexception28:
	.byte	255
	.byte	255
	.byte	1
	.uleb128 Lcst_end28-Lcst_begin28
Lcst_begin28:
	.uleb128 Lfunc_begin64-Lfunc_begin64
	.uleb128 Ltmp570-Lfunc_begin64
	.byte	0
	.byte	0
	.uleb128 Ltmp570-Lfunc_begin64
	.uleb128 Ltmp571-Ltmp570
	.uleb128 Ltmp572-Lfunc_begin64
	.byte	0
	.uleb128 Ltmp573-Lfunc_begin64
	.uleb128 Ltmp574-Ltmp573
	.uleb128 Ltmp575-Lfunc_begin64
	.byte	0
	.uleb128 Ltmp574-Lfunc_begin64
	.uleb128 Lfunc_end64-Ltmp574
	.byte	0
	.byte	0
Lcst_end28:
	.p2align	2

	.section	__TEXT,__text,regular,pure_instructions
	.globl	__ZN15objc_foundation6string9INSString3len17h0c4b61d9947f8320E
	.p2align	4, 0x90
__ZN15objc_foundation6string9INSString3len17h0c4b61d9947f8320E:
Lfunc_begin65:
	.file	30 "/Users/natalie/.cargo/registry/src/github.com-1ecc6299db9ec823/objc-foundation-0.1.1" "src/string.rs"
	.loc	30 34 0
	.cfi_startproc
	.cfi_personality 155, _rust_eh_personality
	.cfi_lsda 16, Lexception29
	pushq	%rbp
	.cfi_def_cfa_offset 16
	.cfi_offset %rbp, -16
	movq	%rsp, %rbp
	.cfi_def_cfa_register %rbp
	subq	$272, %rsp
	movq	%rdi, -264(%rbp)
	movq	%rdi, -176(%rbp)
	leaq	l___unnamed_17(%rip), %rax
	movq	%rax, -56(%rbp)
	movq	$28, -48(%rbp)
Ltmp599:
	.loc	1 54 36 prologue_end
	movb	$0, -73(%rbp)
	.loc	1 54 27 is_stmt 0
	leaq	__ZN15objc_foundation6string9INSString3len12register_sel3SEL17h6b90bdb1ef497408E(%rip), %rdi
	movzbl	-73(%rbp), %esi
	callq	__ZN4core4sync6atomic11AtomicUsize4load17h414ac7215cdd4711E
	movq	%rax, %rdi
	movq	%rdi, -256(%rbp)
	movq	%rdi, -40(%rbp)
Ltmp600:
	.loc	1 57 20 is_stmt 1
	callq	__ZN4core3ptr9const_ptr33_$LT$impl$u20$$BP$const$u20$T$GT$7is_null17ha546985450a90861E
	testb	$1, %al
	jne	LBB65_2
	.loc	1 0 20 is_stmt 0
	movq	-256(%rbp), %rdi
	.loc	1 62 21 is_stmt 1
	callq	__ZN4objc7runtime3Sel8from_ptr17h46170875a16a98c8E
	movq	%rax, -24(%rbp)
	movq	-24(%rbp), %rax
	movq	%rax, -88(%rbp)
	jmp	LBB65_3
LBB65_2:
	.loc	1 0 21 is_stmt 0
	leaq	l___unnamed_17(%rip), %rax
	movq	%rax, -16(%rbp)
	movq	$28, -8(%rbp)
	.loc	1 58 31 is_stmt 1
	leaq	l___unnamed_17(%rip), %rdi
	callq	_sel_registerName
	movq	%rax, -32(%rbp)
	movq	-32(%rbp), %rax
	movq	%rax, -72(%rbp)
Ltmp601:
	.loc	1 59 31
	leaq	-72(%rbp), %rdi
	callq	__ZN4objc7runtime3Sel6as_ptr17had96c85b9ac5883dE
	movq	%rax, %rsi
	.loc	1 59 54 is_stmt 0
	movb	$0, -57(%rbp)
	.loc	1 59 21
	leaq	__ZN15objc_foundation6string9INSString3len12register_sel3SEL17h6b90bdb1ef497408E(%rip), %rdi
	movzbl	-57(%rbp), %edx
	callq	__ZN4core4sync6atomic11AtomicUsize5store17h6f28dde4ed03a931E
	.loc	1 60 21 is_stmt 1
	movq	-72(%rbp), %rax
	movq	%rax, -88(%rbp)
Ltmp602:
LBB65_3:
	.loc	1 0 21 is_stmt 0
	movq	-264(%rbp), %rsi
	.loc	1 65 10 is_stmt 1
	movq	-88(%rbp), %rax
Ltmp603:
	.loc	30 36 13
	movq	%rax, -168(%rbp)
	movq	-168(%rbp), %rax
	movq	%rax, -248(%rbp)
Ltmp604:
	.loc	30 36 13 is_stmt 0
	movq	-248(%rbp), %rax
	movq	%rax, -216(%rbp)
	movq	$4, -208(%rbp)
	movq	-216(%rbp), %rax
	movq	-208(%rbp), %rcx
	movq	%rax, -120(%rbp)
	movq	-120(%rbp), %rax
	movq	%rax, -128(%rbp)
	movq	%rsi, -104(%rbp)
	movq	%rcx, -96(%rbp)
Ltmp605:
	.loc	26 178 26 is_stmt 1
	movq	-128(%rbp), %rax
	movq	%rax, -112(%rbp)
	.loc	26 178 5 is_stmt 0
	movq	-112(%rbp), %rdx
	leaq	-240(%rbp), %rdi
	callq	__ZN4objc7message8platform15send_unverified17h49989dd9822ed540E
Ltmp606:
	.loc	30 36 13 is_stmt 1
	movq	-232(%rbp), %rdx
	movl	$1, %eax
	xorl	%ecx, %ecx
	cmpq	$0, %rdx
	cmoveq	%rcx, %rax
	cmpq	$0, %rax
	jne	LBB65_5
	movq	-240(%rbp), %rax
	movq	%rax, -144(%rbp)
Ltmp607:
	.loc	30 36 13 is_stmt 0
	movq	%rax, -136(%rbp)
Ltmp608:
	.loc	30 38 6 is_stmt 1
	addq	$272, %rsp
	popq	%rbp
	retq
LBB65_5:
Ltmp609:
	.loc	30 36 13
	movq	-224(%rbp), %rax
	movq	%rax, -184(%rbp)
	movq	-240(%rbp), %rax
	movq	-232(%rbp), %rcx
	movq	%rcx, -192(%rbp)
	movq	%rax, -200(%rbp)
Ltmp593:
Ltmp610:
	.loc	30 36 13 is_stmt 0
	leaq	l___unnamed_18(%rip), %rsi
	leaq	-200(%rbp), %rdi
	callq	__ZN4core9panicking13panic_display17h0e09fb0b7d155fc4E
Ltmp594:
	jmp	LBB65_8
Ltmp611:
LBB65_6:
Ltmp596:
	.loc	30 0 13
	leaq	-200(%rbp), %rdi
	.loc	30 36 13
	callq	__ZN4core3ptr48drop_in_place$LT$objc..message..MessageError$GT$17h5c4247deb9137b06E
Ltmp597:
	jmp	LBB65_10
Ltmp612:
LBB65_7:
Ltmp595:
	.loc	30 0 13
	movq	%rax, %rcx
	movl	%edx, %eax
	movq	%rcx, -160(%rbp)
	movl	%eax, -152(%rbp)
	jmp	LBB65_6
LBB65_8:
	ud2
LBB65_9:
Ltmp598:
	.loc	30 34 5 is_stmt 1
	callq	__ZN4core9panicking19panic_cannot_unwind17h1fbca7e1d7f56ae1E
LBB65_10:
	movq	-160(%rbp), %rdi
	callq	__Unwind_Resume
Ltmp613:
Lfunc_end65:
	.cfi_endproc
	.section	__TEXT,__gcc_except_tab
	.p2align	2
GCC_except_table65:
Lexception29:
	.byte	255
	.byte	255
	.byte	1
	.uleb128 Lcst_end29-Lcst_begin29
Lcst_begin29:
	.uleb128 Lfunc_begin65-Lfunc_begin65
	.uleb128 Ltmp593-Lfunc_begin65
	.byte	0
	.byte	0
	.uleb128 Ltmp593-Lfunc_begin65
	.uleb128 Ltmp594-Ltmp593
	.uleb128 Ltmp595-Lfunc_begin65
	.byte	0
	.uleb128 Ltmp596-Lfunc_begin65
	.uleb128 Ltmp597-Ltmp596
	.uleb128 Ltmp598-Lfunc_begin65
	.byte	0
	.uleb128 Ltmp597-Lfunc_begin65
	.uleb128 Lfunc_end65-Ltmp597
	.byte	0
	.byte	0
Lcst_end29:
	.p2align	2

	.section	__TEXT,__text,regular,pure_instructions
	.globl	__ZN15objc_foundation6string9INSString6as_str17he9e595f7ffcca376E
	.p2align	4, 0x90
__ZN15objc_foundation6string9INSString6as_str17he9e595f7ffcca376E:
Lfunc_begin66:
	.loc	30 40 0
	.cfi_startproc
	.cfi_personality 155, _rust_eh_personality
	.cfi_lsda 16, Lexception30
	pushq	%rbp
	.cfi_def_cfa_offset 16
	.cfi_offset %rbp, -16
	movq	%rsp, %rbp
	.cfi_def_cfa_register %rbp
	subq	$336, %rsp
	movq	%rdi, -312(%rbp)
	movq	%rdi, -208(%rbp)
	leaq	l___unnamed_19(%rip), %rax
	movq	%rax, -56(%rbp)
	movq	$11, -48(%rbp)
Ltmp620:
	.loc	1 54 36 prologue_end
	movb	$0, -73(%rbp)
	.loc	1 54 27 is_stmt 0
	leaq	__ZN15objc_foundation6string9INSString6as_str12register_sel3SEL17hd5b76231c7eaee5dE(%rip), %rdi
	movzbl	-73(%rbp), %esi
	callq	__ZN4core4sync6atomic11AtomicUsize4load17h414ac7215cdd4711E
	movq	%rax, %rdi
	movq	%rdi, -304(%rbp)
	movq	%rdi, -40(%rbp)
Ltmp621:
	.loc	1 57 20 is_stmt 1
	callq	__ZN4core3ptr9const_ptr33_$LT$impl$u20$$BP$const$u20$T$GT$7is_null17ha546985450a90861E
	testb	$1, %al
	jne	LBB66_2
	.loc	1 0 20 is_stmt 0
	movq	-304(%rbp), %rdi
	.loc	1 62 21 is_stmt 1
	callq	__ZN4objc7runtime3Sel8from_ptr17h46170875a16a98c8E
	movq	%rax, -24(%rbp)
	movq	-24(%rbp), %rax
	movq	%rax, -88(%rbp)
	jmp	LBB66_3
LBB66_2:
	.loc	1 0 21 is_stmt 0
	leaq	l___unnamed_19(%rip), %rax
	movq	%rax, -16(%rbp)
	movq	$11, -8(%rbp)
	.loc	1 58 31 is_stmt 1
	leaq	l___unnamed_19(%rip), %rdi
	callq	_sel_registerName
	movq	%rax, -32(%rbp)
	movq	-32(%rbp), %rax
	movq	%rax, -72(%rbp)
Ltmp622:
	.loc	1 59 31
	leaq	-72(%rbp), %rdi
	callq	__ZN4objc7runtime3Sel6as_ptr17had96c85b9ac5883dE
	movq	%rax, %rsi
	.loc	1 59 54 is_stmt 0
	movb	$0, -57(%rbp)
	.loc	1 59 21
	leaq	__ZN15objc_foundation6string9INSString6as_str12register_sel3SEL17hd5b76231c7eaee5dE(%rip), %rdi
	movzbl	-57(%rbp), %edx
	callq	__ZN4core4sync6atomic11AtomicUsize5store17h6f28dde4ed03a931E
	.loc	1 60 21 is_stmt 1
	movq	-72(%rbp), %rax
	movq	%rax, -88(%rbp)
Ltmp623:
LBB66_3:
	.loc	1 0 21 is_stmt 0
	movq	-312(%rbp), %rsi
	.loc	1 65 10 is_stmt 1
	movq	-88(%rbp), %rax
Ltmp624:
	.loc	30 42 40
	movq	%rax, -200(%rbp)
	movq	-200(%rbp), %rax
	movq	%rax, -296(%rbp)
Ltmp625:
	.loc	30 42 40 is_stmt 0
	movq	-296(%rbp), %rax
	movq	%rax, -264(%rbp)
	movq	-264(%rbp), %rax
	movq	%rax, -112(%rbp)
	movq	-112(%rbp), %rax
	movq	%rax, -120(%rbp)
	movq	%rsi, -96(%rbp)
Ltmp626:
	.loc	26 178 26 is_stmt 1
	movq	-120(%rbp), %rax
	movq	%rax, -104(%rbp)
	.loc	26 178 5 is_stmt 0
	movq	-104(%rbp), %rdx
	leaq	-288(%rbp), %rdi
	callq	__ZN4objc7message8platform15send_unverified17hdee2ff71e23eae8aE
Ltmp627:
	.loc	30 42 40 is_stmt 1
	movq	-280(%rbp), %rdx
	movl	$1, %eax
	xorl	%ecx, %ecx
	cmpq	$0, %rdx
	cmoveq	%rcx, %rax
	cmpq	$0, %rax
	jne	LBB66_5
	.loc	30 0 40 is_stmt 0
	movq	-312(%rbp), %rdi
	.loc	30 42 40
	movq	-288(%rbp), %rax
	movq	%rax, -328(%rbp)
	movq	%rax, -176(%rbp)
Ltmp628:
	.loc	30 42 40
	movq	%rax, -168(%rbp)
Ltmp629:
	.loc	30 42 40
	movq	%rax, -160(%rbp)
Ltmp630:
	.loc	30 43 13 is_stmt 1
	movq	%rax, -152(%rbp)
Ltmp631:
	.loc	30 45 19
	callq	__ZN15objc_foundation6string9INSString3len17h0c4b61d9947f8320E
	movq	-328(%rbp), %rdi
	movq	%rax, %rsi
	movq	%rsi, -144(%rbp)
Ltmp632:
	.loc	30 47 25
	callq	__ZN4core5slice3raw14from_raw_parts17h456ce8aba8d119caE
	movq	%rax, %rsi
	movq	%rsi, -136(%rbp)
	movq	%rdx, -128(%rbp)
	leaq	-232(%rbp), %rdi
	movq	%rdi, -320(%rbp)
Ltmp633:
	.loc	30 48 13
	callq	__ZN4core3str8converts9from_utf817h97544f31e939b049E
	movq	-320(%rbp), %rdi
	leaq	l___unnamed_20(%rip), %rsi
	callq	__ZN4core6result19Result$LT$T$C$E$GT$6unwrap17h84c901c5f340e3ceE
Ltmp634:
	.loc	30 50 6
	addq	$336, %rsp
	popq	%rbp
	retq
LBB66_5:
Ltmp635:
	.loc	30 42 40
	movq	-272(%rbp), %rax
	movq	%rax, -240(%rbp)
	movq	-288(%rbp), %rax
	movq	-280(%rbp), %rcx
	movq	%rcx, -248(%rbp)
	movq	%rax, -256(%rbp)
Ltmp614:
Ltmp636:
	.loc	30 42 40 is_stmt 0
	leaq	l___unnamed_21(%rip), %rsi
	leaq	-256(%rbp), %rdi
	callq	__ZN4core9panicking13panic_display17h0e09fb0b7d155fc4E
Ltmp615:
	jmp	LBB66_8
Ltmp637:
LBB66_6:
Ltmp617:
	.loc	30 0 40
	leaq	-256(%rbp), %rdi
	.loc	30 42 40
	callq	__ZN4core3ptr48drop_in_place$LT$objc..message..MessageError$GT$17h5c4247deb9137b06E
Ltmp618:
	jmp	LBB66_10
Ltmp638:
LBB66_7:
Ltmp616:
	.loc	30 0 40
	movq	%rax, %rcx
	movl	%edx, %eax
	movq	%rcx, -192(%rbp)
	movl	%eax, -184(%rbp)
	jmp	LBB66_6
LBB66_8:
	ud2
LBB66_9:
Ltmp619:
	.loc	30 40 5 is_stmt 1
	callq	__ZN4core9panicking19panic_cannot_unwind17h1fbca7e1d7f56ae1E
LBB66_10:
	movq	-192(%rbp), %rdi
	callq	__Unwind_Resume
Ltmp639:
Lfunc_end66:
	.cfi_endproc
	.section	__TEXT,__gcc_except_tab
	.p2align	2
GCC_except_table66:
Lexception30:
	.byte	255
	.byte	255
	.byte	1
	.uleb128 Lcst_end30-Lcst_begin30
Lcst_begin30:
	.uleb128 Lfunc_begin66-Lfunc_begin66
	.uleb128 Ltmp614-Lfunc_begin66
	.byte	0
	.byte	0
	.uleb128 Ltmp614-Lfunc_begin66
	.uleb128 Ltmp615-Ltmp614
	.uleb128 Ltmp616-Lfunc_begin66
	.byte	0
	.uleb128 Ltmp617-Lfunc_begin66
	.uleb128 Ltmp618-Ltmp617
	.uleb128 Ltmp619-Lfunc_begin66
	.byte	0
	.uleb128 Ltmp618-Lfunc_begin66
	.uleb128 Lfunc_end66-Ltmp618
	.byte	0
	.byte	0
Lcst_end30:
	.p2align	2

	.section	__TEXT,__text,regular,pure_instructions
	.globl	__ZN84_$LT$objc_foundation..data..NSData$u20$as$u20$objc_foundation..object..INSObject$GT$5class17hef68a04a41ff50b0E
	.p2align	4, 0x90
__ZN84_$LT$objc_foundation..data..NSData$u20$as$u20$objc_foundation..object..INSObject$GT$5class17hef68a04a41ff50b0E:
Lfunc_begin67:
	.file	31 "/Users/natalie/.cargo/registry/src/github.com-1ecc6299db9ec823/objc-foundation-0.1.1" "src/macros.rs"
	.loc	31 11 0
	.cfi_startproc
	pushq	%rbp
	.cfi_def_cfa_offset 16
	.cfi_offset %rbp, -16
	movq	%rsp, %rbp
	.cfi_def_cfa_register %rbp
	subq	$112, %rsp
Ltmp640:
	.loc	31 12 28 prologue_end
	leaq	l___unnamed_22(%rip), %rax
	movq	%rax, -96(%rbp)
	movq	$6, -88(%rbp)
Ltmp641:
	.loc	31 13 51
	movq	-96(%rbp), %rdi
	movq	-88(%rbp), %rsi
	.loc	31 13 23 is_stmt 0
	callq	__ZN4objc7runtime5Class3get17h3f3e693432a1e7ffE
	movq	%rax, -80(%rbp)
	movq	-80(%rbp), %rdx
	movl	$1, %eax
	xorl	%ecx, %ecx
	cmpq	$0, %rdx
	cmoveq	%rcx, %rax
	.loc	31 13 17
	cmpq	$0, %rax
	jne	LBB67_2
	.loc	31 0 17
	leaq	-96(%rbp), %rdi
	.loc	31 15 29 is_stmt 1
	callq	__ZN4core3fmt10ArgumentV111new_display17h7a7c47ec0aa2736bE
	movq	%rax, -24(%rbp)
	movq	%rdx, -16(%rbp)
	leaq	l___unnamed_23(%rip), %rsi
	leaq	-72(%rbp), %rdi
	movq	%rdi, -104(%rbp)
	movl	$2, %edx
	leaq	-24(%rbp), %rcx
	movl	$1, %r8d
	callq	__ZN4core3fmt9Arguments6new_v117hae9e272bf3ac02d7E
	movq	-104(%rbp), %rdi
	leaq	l___unnamed_24(%rip), %rsi
	callq	__ZN4core9panicking9panic_fmt17h9b5d807e24bcaaedE
LBB67_2:
	.loc	31 14 26
	movq	-80(%rbp), %rax
	movq	%rax, -8(%rbp)
Ltmp642:
	.loc	31 17 14
	addq	$112, %rsp
	popq	%rbp
	retq
Ltmp643:
Lfunc_end67:
	.cfi_endproc

	.globl	__ZN70_$LT$objc_foundation..data..NSData$u20$as$u20$core..cmp..PartialEq$GT$2eq17h4be388803b1f7ec6E
	.p2align	4, 0x90
__ZN70_$LT$objc_foundation..data..NSData$u20$as$u20$core..cmp..PartialEq$GT$2eq17h4be388803b1f7ec6E:
Lfunc_begin68:
	.loc	31 21 0
	.cfi_startproc
	pushq	%rbp
	.cfi_def_cfa_offset 16
	.cfi_offset %rbp, -16
	movq	%rsp, %rbp
	.cfi_def_cfa_register %rbp
	subq	$16, %rsp
	movq	%rdi, -16(%rbp)
	movq	%rsi, -8(%rbp)
Ltmp644:
	.loc	31 23 17 prologue_end
	callq	__ZN15objc_foundation6object9INSObject8is_equal17hd2b6aa212dd6c7f2E
	.loc	31 24 14
	andb	$1, %al
	movzbl	%al, %eax
	addq	$16, %rsp
	popq	%rbp
	retq
Ltmp645:
Lfunc_end68:
	.cfi_endproc

	.globl	__ZN66_$LT$objc_foundation..data..NSData$u20$as$u20$core..fmt..Debug$GT$3fmt17h2e7d78c50fa51d7bE
	.p2align	4, 0x90
__ZN66_$LT$objc_foundation..data..NSData$u20$as$u20$core..fmt..Debug$GT$3fmt17h2e7d78c50fa51d7bE:
Lfunc_begin69:
	.loc	31 37 0
	.cfi_startproc
	.cfi_personality 155, _rust_eh_personality
	.cfi_lsda 16, Lexception31
	pushq	%rbp
	.cfi_def_cfa_offset 16
	.cfi_offset %rbp, -16
	movq	%rsp, %rbp
	.cfi_def_cfa_register %rbp
	subq	$80, %rsp
	movq	%rsi, -56(%rbp)
	movq	%rdi, -32(%rbp)
	movq	%rsi, -24(%rbp)
Ltmp656:
	.loc	31 39 40 prologue_end
	callq	__ZN15objc_foundation6object9INSObject11description17h3288bce13f779d31E
	movq	%rax, -40(%rbp)
Ltmp646:
	leaq	-40(%rbp), %rdi
	callq	__ZN72_$LT$objc_id..id..Id$LT$T$C$O$GT$$u20$as$u20$core..ops..deref..Deref$GT$5deref17h9d36662b5eb416f5E
Ltmp647:
	movq	%rax, -48(%rbp)
	jmp	LBB69_3
LBB69_1:
Ltmp653:
	.loc	31 0 40 is_stmt 0
	leaq	-40(%rbp), %rdi
	.loc	31 40 13 is_stmt 1
	callq	__ZN4core3ptr99drop_in_place$LT$objc_id..id..Id$LT$objc_foundation..string..NSString$C$objc_id..id..Shared$GT$$GT$17h65d5c703e7b40c9bE
Ltmp654:
	jmp	LBB69_7
LBB69_2:
Ltmp652:
	.loc	31 0 13 is_stmt 0
	movq	%rax, %rcx
	movl	%edx, %eax
	movq	%rcx, -16(%rbp)
	movl	%eax, -8(%rbp)
	jmp	LBB69_1
LBB69_3:
Ltmp648:
	movq	-48(%rbp), %rdi
	.loc	31 39 40 is_stmt 1
	callq	__ZN15objc_foundation6string9INSString6as_str17he9e595f7ffcca376E
Ltmp649:
	movq	%rdx, -72(%rbp)
	movq	%rax, -64(%rbp)
	jmp	LBB69_4
LBB69_4:
Ltmp650:
	.loc	31 0 40 is_stmt 0
	movq	-56(%rbp), %rdx
	movq	-72(%rbp), %rsi
	movq	-64(%rbp), %rdi
	.loc	31 39 17
	callq	__ZN40_$LT$str$u20$as$u20$core..fmt..Debug$GT$3fmt17h4564f13343f2ac60E
Ltmp651:
	movb	%al, -73(%rbp)
	jmp	LBB69_5
LBB69_5:
	.loc	31 40 13 is_stmt 1
	leaq	-40(%rbp), %rdi
	callq	__ZN4core3ptr99drop_in_place$LT$objc_id..id..Id$LT$objc_foundation..string..NSString$C$objc_id..id..Shared$GT$$GT$17h65d5c703e7b40c9bE
	movb	-73(%rbp), %al
	.loc	31 40 14 is_stmt 0
	andb	$1, %al
	movzbl	%al, %eax
	addq	$80, %rsp
	popq	%rbp
	retq
LBB69_6:
Ltmp655:
	.loc	31 37 13 is_stmt 1
	callq	__ZN4core9panicking19panic_cannot_unwind17h1fbca7e1d7f56ae1E
LBB69_7:
	movq	-16(%rbp), %rdi
	callq	__Unwind_Resume
Ltmp657:
Lfunc_end69:
	.cfi_endproc
	.section	__TEXT,__gcc_except_tab
	.p2align	2
GCC_except_table69:
Lexception31:
	.byte	255
	.byte	255
	.byte	1
	.uleb128 Lcst_end31-Lcst_begin31
Lcst_begin31:
	.uleb128 Lfunc_begin69-Lfunc_begin69
	.uleb128 Ltmp646-Lfunc_begin69
	.byte	0
	.byte	0
	.uleb128 Ltmp646-Lfunc_begin69
	.uleb128 Ltmp647-Ltmp646
	.uleb128 Ltmp652-Lfunc_begin69
	.byte	0
	.uleb128 Ltmp653-Lfunc_begin69
	.uleb128 Ltmp654-Ltmp653
	.uleb128 Ltmp655-Lfunc_begin69
	.byte	0
	.uleb128 Ltmp648-Lfunc_begin69
	.uleb128 Ltmp651-Ltmp648
	.uleb128 Ltmp652-Lfunc_begin69
	.byte	0
	.uleb128 Ltmp651-Lfunc_begin69
	.uleb128 Lfunc_end69-Ltmp651
	.byte	0
	.byte	0
Lcst_end31:
	.p2align	2

	.section	__TEXT,__text,regular,pure_instructions
	.globl	__ZN91_$LT$objc_foundation..data..NSMutableData$u20$as$u20$objc_foundation..object..INSObject$GT$5class17hc365546275552280E
	.p2align	4, 0x90
__ZN91_$LT$objc_foundation..data..NSMutableData$u20$as$u20$objc_foundation..object..INSObject$GT$5class17hc365546275552280E:
Lfunc_begin70:
	.loc	31 11 0
	.cfi_startproc
	pushq	%rbp
	.cfi_def_cfa_offset 16
	.cfi_offset %rbp, -16
	movq	%rsp, %rbp
	.cfi_def_cfa_register %rbp
	subq	$112, %rsp
Ltmp658:
	.loc	31 12 28 prologue_end
	leaq	l___unnamed_25(%rip), %rax
	movq	%rax, -96(%rbp)
	movq	$13, -88(%rbp)
Ltmp659:
	.loc	31 13 51
	movq	-96(%rbp), %rdi
	movq	-88(%rbp), %rsi
	.loc	31 13 23 is_stmt 0
	callq	__ZN4objc7runtime5Class3get17h3f3e693432a1e7ffE
	movq	%rax, -80(%rbp)
	movq	-80(%rbp), %rdx
	movl	$1, %eax
	xorl	%ecx, %ecx
	cmpq	$0, %rdx
	cmoveq	%rcx, %rax
	.loc	31 13 17
	cmpq	$0, %rax
	jne	LBB70_2
	.loc	31 0 17
	leaq	-96(%rbp), %rdi
	.loc	31 15 29 is_stmt 1
	callq	__ZN4core3fmt10ArgumentV111new_display17h7a7c47ec0aa2736bE
	movq	%rax, -24(%rbp)
	movq	%rdx, -16(%rbp)
	leaq	l___unnamed_23(%rip), %rsi
	leaq	-72(%rbp), %rdi
	movq	%rdi, -104(%rbp)
	movl	$2, %edx
	leaq	-24(%rbp), %rcx
	movl	$1, %r8d
	callq	__ZN4core3fmt9Arguments6new_v117hae9e272bf3ac02d7E
	movq	-104(%rbp), %rdi
	leaq	l___unnamed_26(%rip), %rsi
	callq	__ZN4core9panicking9panic_fmt17h9b5d807e24bcaaedE
LBB70_2:
	.loc	31 14 26
	movq	-80(%rbp), %rax
	movq	%rax, -8(%rbp)
Ltmp660:
	.loc	31 17 14
	addq	$112, %rsp
	popq	%rbp
	retq
Ltmp661:
Lfunc_end70:
	.cfi_endproc

	.globl	__ZN77_$LT$objc_foundation..data..NSMutableData$u20$as$u20$core..cmp..PartialEq$GT$2eq17hd966cb3b929692e7E
	.p2align	4, 0x90
__ZN77_$LT$objc_foundation..data..NSMutableData$u20$as$u20$core..cmp..PartialEq$GT$2eq17hd966cb3b929692e7E:
Lfunc_begin71:
	.loc	31 21 0
	.cfi_startproc
	pushq	%rbp
	.cfi_def_cfa_offset 16
	.cfi_offset %rbp, -16
	movq	%rsp, %rbp
	.cfi_def_cfa_register %rbp
	subq	$16, %rsp
	movq	%rdi, -16(%rbp)
	movq	%rsi, -8(%rbp)
Ltmp662:
	.loc	31 23 17 prologue_end
	callq	__ZN15objc_foundation6object9INSObject8is_equal17h97856f1c77fe92edE
	.loc	31 24 14
	andb	$1, %al
	movzbl	%al, %eax
	addq	$16, %rsp
	popq	%rbp
	retq
Ltmp663:
Lfunc_end71:
	.cfi_endproc

	.globl	__ZN73_$LT$objc_foundation..data..NSMutableData$u20$as$u20$core..fmt..Debug$GT$3fmt17h5e8974e06651ee69E
	.p2align	4, 0x90
__ZN73_$LT$objc_foundation..data..NSMutableData$u20$as$u20$core..fmt..Debug$GT$3fmt17h5e8974e06651ee69E:
Lfunc_begin72:
	.loc	31 37 0
	.cfi_startproc
	.cfi_personality 155, _rust_eh_personality
	.cfi_lsda 16, Lexception32
	pushq	%rbp
	.cfi_def_cfa_offset 16
	.cfi_offset %rbp, -16
	movq	%rsp, %rbp
	.cfi_def_cfa_register %rbp
	subq	$80, %rsp
	movq	%rsi, -56(%rbp)
	movq	%rdi, -32(%rbp)
	movq	%rsi, -24(%rbp)
Ltmp674:
	.loc	31 39 40 prologue_end
	callq	__ZN15objc_foundation6object9INSObject11description17hc5931efb82ea2940E
	movq	%rax, -40(%rbp)
Ltmp664:
	leaq	-40(%rbp), %rdi
	callq	__ZN72_$LT$objc_id..id..Id$LT$T$C$O$GT$$u20$as$u20$core..ops..deref..Deref$GT$5deref17h9d36662b5eb416f5E
Ltmp665:
	movq	%rax, -48(%rbp)
	jmp	LBB72_3
LBB72_1:
Ltmp671:
	.loc	31 0 40 is_stmt 0
	leaq	-40(%rbp), %rdi
	.loc	31 40 13 is_stmt 1
	callq	__ZN4core3ptr99drop_in_place$LT$objc_id..id..Id$LT$objc_foundation..string..NSString$C$objc_id..id..Shared$GT$$GT$17h65d5c703e7b40c9bE
Ltmp672:
	jmp	LBB72_7
LBB72_2:
Ltmp670:
	.loc	31 0 13 is_stmt 0
	movq	%rax, %rcx
	movl	%edx, %eax
	movq	%rcx, -16(%rbp)
	movl	%eax, -8(%rbp)
	jmp	LBB72_1
LBB72_3:
Ltmp666:
	movq	-48(%rbp), %rdi
	.loc	31 39 40 is_stmt 1
	callq	__ZN15objc_foundation6string9INSString6as_str17he9e595f7ffcca376E
Ltmp667:
	movq	%rdx, -72(%rbp)
	movq	%rax, -64(%rbp)
	jmp	LBB72_4
LBB72_4:
Ltmp668:
	.loc	31 0 40 is_stmt 0
	movq	-56(%rbp), %rdx
	movq	-72(%rbp), %rsi
	movq	-64(%rbp), %rdi
	.loc	31 39 17
	callq	__ZN40_$LT$str$u20$as$u20$core..fmt..Debug$GT$3fmt17h4564f13343f2ac60E
Ltmp669:
	movb	%al, -73(%rbp)
	jmp	LBB72_5
LBB72_5:
	.loc	31 40 13 is_stmt 1
	leaq	-40(%rbp), %rdi
	callq	__ZN4core3ptr99drop_in_place$LT$objc_id..id..Id$LT$objc_foundation..string..NSString$C$objc_id..id..Shared$GT$$GT$17h65d5c703e7b40c9bE
	movb	-73(%rbp), %al
	.loc	31 40 14 is_stmt 0
	andb	$1, %al
	movzbl	%al, %eax
	addq	$80, %rsp
	popq	%rbp
	retq
LBB72_6:
Ltmp673:
	.loc	31 37 13 is_stmt 1
	callq	__ZN4core9panicking19panic_cannot_unwind17h1fbca7e1d7f56ae1E
LBB72_7:
	movq	-16(%rbp), %rdi
	callq	__Unwind_Resume
Ltmp675:
Lfunc_end72:
	.cfi_endproc
	.section	__TEXT,__gcc_except_tab
	.p2align	2
GCC_except_table72:
Lexception32:
	.byte	255
	.byte	255
	.byte	1
	.uleb128 Lcst_end32-Lcst_begin32
Lcst_begin32:
	.uleb128 Lfunc_begin72-Lfunc_begin72
	.uleb128 Ltmp664-Lfunc_begin72
	.byte	0
	.byte	0
	.uleb128 Ltmp664-Lfunc_begin72
	.uleb128 Ltmp665-Ltmp664
	.uleb128 Ltmp670-Lfunc_begin72
	.byte	0
	.uleb128 Ltmp671-Lfunc_begin72
	.uleb128 Ltmp672-Ltmp671
	.uleb128 Ltmp673-Lfunc_begin72
	.byte	0
	.uleb128 Ltmp666-Lfunc_begin72
	.uleb128 Ltmp669-Ltmp666
	.uleb128 Ltmp670-Lfunc_begin72
	.byte	0
	.uleb128 Ltmp669-Lfunc_begin72
	.uleb128 Lfunc_end72-Ltmp669
	.byte	0
	.byte	0
Lcst_end32:
	.p2align	2

	.section	__TEXT,__text,regular,pure_instructions
	.globl	__ZN88_$LT$objc_foundation..object..NSObject$u20$as$u20$objc_foundation..object..INSObject$GT$5class17h53525135c394fe12E
	.p2align	4, 0x90
__ZN88_$LT$objc_foundation..object..NSObject$u20$as$u20$objc_foundation..object..INSObject$GT$5class17h53525135c394fe12E:
Lfunc_begin73:
	.loc	31 11 0
	.cfi_startproc
	pushq	%rbp
	.cfi_def_cfa_offset 16
	.cfi_offset %rbp, -16
	movq	%rsp, %rbp
	.cfi_def_cfa_register %rbp
	subq	$112, %rsp
Ltmp676:
	.loc	31 12 28 prologue_end
	leaq	L___unnamed_27(%rip), %rax
	movq	%rax, -96(%rbp)
	movq	$8, -88(%rbp)
Ltmp677:
	.loc	31 13 51
	movq	-96(%rbp), %rdi
	movq	-88(%rbp), %rsi
	.loc	31 13 23 is_stmt 0
	callq	__ZN4objc7runtime5Class3get17h3f3e693432a1e7ffE
	movq	%rax, -80(%rbp)
	movq	-80(%rbp), %rdx
	movl	$1, %eax
	xorl	%ecx, %ecx
	cmpq	$0, %rdx
	cmoveq	%rcx, %rax
	.loc	31 13 17
	cmpq	$0, %rax
	jne	LBB73_2
	.loc	31 0 17
	leaq	-96(%rbp), %rdi
	.loc	31 15 29 is_stmt 1
	callq	__ZN4core3fmt10ArgumentV111new_display17h7a7c47ec0aa2736bE
	movq	%rax, -24(%rbp)
	movq	%rdx, -16(%rbp)
	leaq	l___unnamed_23(%rip), %rsi
	leaq	-72(%rbp), %rdi
	movq	%rdi, -104(%rbp)
	movl	$2, %edx
	leaq	-24(%rbp), %rcx
	movl	$1, %r8d
	callq	__ZN4core3fmt9Arguments6new_v117hae9e272bf3ac02d7E
	movq	-104(%rbp), %rdi
	leaq	l___unnamed_28(%rip), %rsi
	callq	__ZN4core9panicking9panic_fmt17h9b5d807e24bcaaedE
LBB73_2:
	.loc	31 14 26
	movq	-80(%rbp), %rax
	movq	%rax, -8(%rbp)
Ltmp678:
	.loc	31 17 14
	addq	$112, %rsp
	popq	%rbp
	retq
Ltmp679:
Lfunc_end73:
	.cfi_endproc

	.globl	__ZN74_$LT$objc_foundation..object..NSObject$u20$as$u20$core..cmp..PartialEq$GT$2eq17h7bed68eea455a118E
	.p2align	4, 0x90
__ZN74_$LT$objc_foundation..object..NSObject$u20$as$u20$core..cmp..PartialEq$GT$2eq17h7bed68eea455a118E:
Lfunc_begin74:
	.loc	31 21 0
	.cfi_startproc
	pushq	%rbp
	.cfi_def_cfa_offset 16
	.cfi_offset %rbp, -16
	movq	%rsp, %rbp
	.cfi_def_cfa_register %rbp
	subq	$16, %rsp
	movq	%rdi, -16(%rbp)
	movq	%rsi, -8(%rbp)
Ltmp680:
	.loc	31 23 17 prologue_end
	callq	__ZN15objc_foundation6object9INSObject8is_equal17h2c4e8e1602ab23dcE
	.loc	31 24 14
	andb	$1, %al
	movzbl	%al, %eax
	addq	$16, %rsp
	popq	%rbp
	retq
Ltmp681:
Lfunc_end74:
	.cfi_endproc

	.globl	__ZN70_$LT$objc_foundation..object..NSObject$u20$as$u20$core..fmt..Debug$GT$3fmt17h3045071aed946f9cE
	.p2align	4, 0x90
__ZN70_$LT$objc_foundation..object..NSObject$u20$as$u20$core..fmt..Debug$GT$3fmt17h3045071aed946f9cE:
Lfunc_begin75:
	.loc	31 37 0
	.cfi_startproc
	.cfi_personality 155, _rust_eh_personality
	.cfi_lsda 16, Lexception33
	pushq	%rbp
	.cfi_def_cfa_offset 16
	.cfi_offset %rbp, -16
	movq	%rsp, %rbp
	.cfi_def_cfa_register %rbp
	subq	$80, %rsp
	movq	%rsi, -56(%rbp)
	movq	%rdi, -32(%rbp)
	movq	%rsi, -24(%rbp)
Ltmp692:
	.loc	31 39 40 prologue_end
	callq	__ZN15objc_foundation6object9INSObject11description17ha032e7772fd5a38aE
	movq	%rax, -40(%rbp)
Ltmp682:
	leaq	-40(%rbp), %rdi
	callq	__ZN72_$LT$objc_id..id..Id$LT$T$C$O$GT$$u20$as$u20$core..ops..deref..Deref$GT$5deref17h9d36662b5eb416f5E
Ltmp683:
	movq	%rax, -48(%rbp)
	jmp	LBB75_3
LBB75_1:
Ltmp689:
	.loc	31 0 40 is_stmt 0
	leaq	-40(%rbp), %rdi
	.loc	31 40 13 is_stmt 1
	callq	__ZN4core3ptr99drop_in_place$LT$objc_id..id..Id$LT$objc_foundation..string..NSString$C$objc_id..id..Shared$GT$$GT$17h65d5c703e7b40c9bE
Ltmp690:
	jmp	LBB75_7
LBB75_2:
Ltmp688:
	.loc	31 0 13 is_stmt 0
	movq	%rax, %rcx
	movl	%edx, %eax
	movq	%rcx, -16(%rbp)
	movl	%eax, -8(%rbp)
	jmp	LBB75_1
LBB75_3:
Ltmp684:
	movq	-48(%rbp), %rdi
	.loc	31 39 40 is_stmt 1
	callq	__ZN15objc_foundation6string9INSString6as_str17he9e595f7ffcca376E
Ltmp685:
	movq	%rdx, -72(%rbp)
	movq	%rax, -64(%rbp)
	jmp	LBB75_4
LBB75_4:
Ltmp686:
	.loc	31 0 40 is_stmt 0
	movq	-56(%rbp), %rdx
	movq	-72(%rbp), %rsi
	movq	-64(%rbp), %rdi
	.loc	31 39 17
	callq	__ZN40_$LT$str$u20$as$u20$core..fmt..Debug$GT$3fmt17h4564f13343f2ac60E
Ltmp687:
	movb	%al, -73(%rbp)
	jmp	LBB75_5
LBB75_5:
	.loc	31 40 13 is_stmt 1
	leaq	-40(%rbp), %rdi
	callq	__ZN4core3ptr99drop_in_place$LT$objc_id..id..Id$LT$objc_foundation..string..NSString$C$objc_id..id..Shared$GT$$GT$17h65d5c703e7b40c9bE
	movb	-73(%rbp), %al
	.loc	31 40 14 is_stmt 0
	andb	$1, %al
	movzbl	%al, %eax
	addq	$80, %rsp
	popq	%rbp
	retq
LBB75_6:
Ltmp691:
	.loc	31 37 13 is_stmt 1
	callq	__ZN4core9panicking19panic_cannot_unwind17h1fbca7e1d7f56ae1E
LBB75_7:
	movq	-16(%rbp), %rdi
	callq	__Unwind_Resume
Ltmp693:
Lfunc_end75:
	.cfi_endproc
	.section	__TEXT,__gcc_except_tab
	.p2align	2
GCC_except_table75:
Lexception33:
	.byte	255
	.byte	255
	.byte	1
	.uleb128 Lcst_end33-Lcst_begin33
Lcst_begin33:
	.uleb128 Lfunc_begin75-Lfunc_begin75
	.uleb128 Ltmp682-Lfunc_begin75
	.byte	0
	.byte	0
	.uleb128 Ltmp682-Lfunc_begin75
	.uleb128 Ltmp683-Ltmp682
	.uleb128 Ltmp688-Lfunc_begin75
	.byte	0
	.uleb128 Ltmp689-Lfunc_begin75
	.uleb128 Ltmp690-Ltmp689
	.uleb128 Ltmp691-Lfunc_begin75
	.byte	0
	.uleb128 Ltmp684-Lfunc_begin75
	.uleb128 Ltmp687-Ltmp684
	.uleb128 Ltmp688-Lfunc_begin75
	.byte	0
	.uleb128 Ltmp687-Lfunc_begin75
	.uleb128 Lfunc_end75-Ltmp687
	.byte	0
	.byte	0
Lcst_end33:
	.p2align	2

	.section	__TEXT,__text,regular,pure_instructions
	.globl	__ZN88_$LT$objc_foundation..string..NSString$u20$as$u20$objc_foundation..object..INSObject$GT$5class17h9089236a4e258ca5E
	.p2align	4, 0x90
__ZN88_$LT$objc_foundation..string..NSString$u20$as$u20$objc_foundation..object..INSObject$GT$5class17h9089236a4e258ca5E:
Lfunc_begin76:
	.loc	31 11 0
	.cfi_startproc
	pushq	%rbp
	.cfi_def_cfa_offset 16
	.cfi_offset %rbp, -16
	movq	%rsp, %rbp
	.cfi_def_cfa_register %rbp
	subq	$112, %rsp
Ltmp694:
	.loc	31 12 28 prologue_end
	leaq	L___unnamed_29(%rip), %rax
	movq	%rax, -96(%rbp)
	movq	$8, -88(%rbp)
Ltmp695:
	.loc	31 13 51
	movq	-96(%rbp), %rdi
	movq	-88(%rbp), %rsi
	.loc	31 13 23 is_stmt 0
	callq	__ZN4objc7runtime5Class3get17h3f3e693432a1e7ffE
	movq	%rax, -80(%rbp)
	movq	-80(%rbp), %rdx
	movl	$1, %eax
	xorl	%ecx, %ecx
	cmpq	$0, %rdx
	cmoveq	%rcx, %rax
	.loc	31 13 17
	cmpq	$0, %rax
	jne	LBB76_2
	.loc	31 0 17
	leaq	-96(%rbp), %rdi
	.loc	31 15 29 is_stmt 1
	callq	__ZN4core3fmt10ArgumentV111new_display17h7a7c47ec0aa2736bE
	movq	%rax, -24(%rbp)
	movq	%rdx, -16(%rbp)
	leaq	l___unnamed_23(%rip), %rsi
	leaq	-72(%rbp), %rdi
	movq	%rdi, -104(%rbp)
	movl	$2, %edx
	leaq	-24(%rbp), %rcx
	movl	$1, %r8d
	callq	__ZN4core3fmt9Arguments6new_v117hae9e272bf3ac02d7E
	movq	-104(%rbp), %rdi
	leaq	l___unnamed_30(%rip), %rsi
	callq	__ZN4core9panicking9panic_fmt17h9b5d807e24bcaaedE
LBB76_2:
	.loc	31 14 26
	movq	-80(%rbp), %rax
	movq	%rax, -8(%rbp)
Ltmp696:
	.loc	31 17 14
	addq	$112, %rsp
	popq	%rbp
	retq
Ltmp697:
Lfunc_end76:
	.cfi_endproc

	.globl	__ZN74_$LT$objc_foundation..string..NSString$u20$as$u20$core..cmp..PartialEq$GT$2eq17heb20cd3f1e7c1825E
	.p2align	4, 0x90
__ZN74_$LT$objc_foundation..string..NSString$u20$as$u20$core..cmp..PartialEq$GT$2eq17heb20cd3f1e7c1825E:
Lfunc_begin77:
	.loc	31 21 0
	.cfi_startproc
	pushq	%rbp
	.cfi_def_cfa_offset 16
	.cfi_offset %rbp, -16
	movq	%rsp, %rbp
	.cfi_def_cfa_register %rbp
	subq	$16, %rsp
	movq	%rdi, -16(%rbp)
	movq	%rsi, -8(%rbp)
Ltmp698:
	.loc	31 23 17 prologue_end
	callq	__ZN15objc_foundation6object9INSObject8is_equal17h66e22ec2cdcec9e3E
	.loc	31 24 14
	andb	$1, %al
	movzbl	%al, %eax
	addq	$16, %rsp
	popq	%rbp
	retq
Ltmp699:
Lfunc_end77:
	.cfi_endproc

	.globl	__ZN70_$LT$objc_foundation..string..NSString$u20$as$u20$core..fmt..Debug$GT$3fmt17h1c375d86bd1a7300E
	.p2align	4, 0x90
__ZN70_$LT$objc_foundation..string..NSString$u20$as$u20$core..fmt..Debug$GT$3fmt17h1c375d86bd1a7300E:
Lfunc_begin78:
	.loc	31 37 0
	.cfi_startproc
	.cfi_personality 155, _rust_eh_personality
	.cfi_lsda 16, Lexception34
	pushq	%rbp
	.cfi_def_cfa_offset 16
	.cfi_offset %rbp, -16
	movq	%rsp, %rbp
	.cfi_def_cfa_register %rbp
	subq	$80, %rsp
	movq	%rsi, -56(%rbp)
	movq	%rdi, -32(%rbp)
	movq	%rsi, -24(%rbp)
Ltmp710:
	.loc	31 39 40 prologue_end
	callq	__ZN15objc_foundation6object9INSObject11description17he0eb31e6c9337456E
	movq	%rax, -40(%rbp)
Ltmp700:
	leaq	-40(%rbp), %rdi
	callq	__ZN72_$LT$objc_id..id..Id$LT$T$C$O$GT$$u20$as$u20$core..ops..deref..Deref$GT$5deref17h9d36662b5eb416f5E
Ltmp701:
	movq	%rax, -48(%rbp)
	jmp	LBB78_3
LBB78_1:
Ltmp707:
	.loc	31 0 40 is_stmt 0
	leaq	-40(%rbp), %rdi
	.loc	31 40 13 is_stmt 1
	callq	__ZN4core3ptr99drop_in_place$LT$objc_id..id..Id$LT$objc_foundation..string..NSString$C$objc_id..id..Shared$GT$$GT$17h65d5c703e7b40c9bE
Ltmp708:
	jmp	LBB78_7
LBB78_2:
Ltmp706:
	.loc	31 0 13 is_stmt 0
	movq	%rax, %rcx
	movl	%edx, %eax
	movq	%rcx, -16(%rbp)
	movl	%eax, -8(%rbp)
	jmp	LBB78_1
LBB78_3:
Ltmp702:
	movq	-48(%rbp), %rdi
	.loc	31 39 40 is_stmt 1
	callq	__ZN15objc_foundation6string9INSString6as_str17he9e595f7ffcca376E
Ltmp703:
	movq	%rdx, -72(%rbp)
	movq	%rax, -64(%rbp)
	jmp	LBB78_4
LBB78_4:
Ltmp704:
	.loc	31 0 40 is_stmt 0
	movq	-56(%rbp), %rdx
	movq	-72(%rbp), %rsi
	movq	-64(%rbp), %rdi
	.loc	31 39 17
	callq	__ZN40_$LT$str$u20$as$u20$core..fmt..Debug$GT$3fmt17h4564f13343f2ac60E
Ltmp705:
	movb	%al, -73(%rbp)
	jmp	LBB78_5
LBB78_5:
	.loc	31 40 13 is_stmt 1
	leaq	-40(%rbp), %rdi
	callq	__ZN4core3ptr99drop_in_place$LT$objc_id..id..Id$LT$objc_foundation..string..NSString$C$objc_id..id..Shared$GT$$GT$17h65d5c703e7b40c9bE
	movb	-73(%rbp), %al
	.loc	31 40 14 is_stmt 0
	andb	$1, %al
	movzbl	%al, %eax
	addq	$80, %rsp
	popq	%rbp
	retq
LBB78_6:
Ltmp709:
	.loc	31 37 13 is_stmt 1
	callq	__ZN4core9panicking19panic_cannot_unwind17h1fbca7e1d7f56ae1E
LBB78_7:
	movq	-16(%rbp), %rdi
	callq	__Unwind_Resume
Ltmp711:
Lfunc_end78:
	.cfi_endproc
	.section	__TEXT,__gcc_except_tab
	.p2align	2
GCC_except_table78:
Lexception34:
	.byte	255
	.byte	255
	.byte	1
	.uleb128 Lcst_end34-Lcst_begin34
Lcst_begin34:
	.uleb128 Lfunc_begin78-Lfunc_begin78
	.uleb128 Ltmp700-Lfunc_begin78
	.byte	0
	.byte	0
	.uleb128 Ltmp700-Lfunc_begin78
	.uleb128 Ltmp701-Ltmp700
	.uleb128 Ltmp706-Lfunc_begin78
	.byte	0
	.uleb128 Ltmp707-Lfunc_begin78
	.uleb128 Ltmp708-Ltmp707
	.uleb128 Ltmp709-Lfunc_begin78
	.byte	0
	.uleb128 Ltmp702-Lfunc_begin78
	.uleb128 Ltmp705-Ltmp702
	.uleb128 Ltmp706-Lfunc_begin78
	.byte	0
	.uleb128 Ltmp705-Lfunc_begin78
	.uleb128 Lfunc_end78-Ltmp705
	.byte	0
	.byte	0
Lcst_end34:
	.p2align	2

	.section	__DATA,__const
	.p2align	3
l___unnamed_1:
	.quad	__ZN4core3ptr77drop_in_place$LT$std..panicking..begin_panic..PanicPayload$LT$$RF$str$GT$$GT$17hdb91e2c85a16b1a9E
	.asciz	"\020\000\000\000\000\000\000\000\b\000\000\000\000\000\000"
	.quad	__ZN91_$LT$std..panicking..begin_panic..PanicPayload$LT$A$GT$$u20$as$u20$core..panic..BoxMeUp$GT$8take_box17hc8df5e9124b0207fE
	.quad	__ZN91_$LT$std..panicking..begin_panic..PanicPayload$LT$A$GT$$u20$as$u20$core..panic..BoxMeUp$GT$3get17h147156a07402040aE

	.section	__TEXT,__const
l___unnamed_31:
	.ascii	"invalid args"

	.section	__DATA,__const
	.p2align	3
l___unnamed_3:
	.quad	l___unnamed_31
	.asciz	"\f\000\000\000\000\000\000"

	.section	__TEXT,__const
	.p2align	3
l___unnamed_4:
	.byte	0

l___unnamed_32:
	.ascii	"/rustc/2c8cc343237b8f7d5a3c3703e3a87f2eb2c54a74/library/core/src/fmt/mod.rs"

	.section	__DATA,__const
	.p2align	3
l___unnamed_5:
	.quad	l___unnamed_32
	.asciz	"K\000\000\000\000\000\000\000\221\001\000\000\r\000\000"

	.p2align	3
l___unnamed_6:
	.quad	l___unnamed_4
	.space	8

	.section	__TEXT,__const
l___unnamed_7:
	.ascii	"Attempted to construct an Id from a null pointer"

l___unnamed_33:
	.ascii	"/Users/natalie/.cargo/registry/src/github.com-1ecc6299db9ec823/objc_id-0.1.1/src/id.rs"

	.section	__DATA,__const
	.p2align	3
l___unnamed_8:
	.quad	l___unnamed_33
	.asciz	"V\000\000\000\000\000\000\0004\000\000\000\t\000\000"

	.p2align	3
l___unnamed_2:
	.quad	__ZN4core3ptr28drop_in_place$LT$$RF$str$GT$17he36adeeefbc8c3f9E
	.asciz	"\020\000\000\000\000\000\000\000\b\000\000\000\000\000\000"
	.quad	__ZN36_$LT$T$u20$as$u20$core..any..Any$GT$7type_id17hd22afe01f2dfca56E

	.section	__TEXT,__const
l___unnamed_9:
	.ascii	"assertion failed: range.end >= range.start"

l___unnamed_34:
	.ascii	"/Users/natalie/.cargo/registry/src/github.com-1ecc6299db9ec823/objc-foundation-0.1.1/src/array.rs"

	.section	__DATA,__const
	.p2align	3
l___unnamed_10:
	.quad	l___unnamed_34
	.asciz	"a\000\000\000\000\000\000\000-\000\000\000\t\000\000"

	.p2align	3
l___unnamed_11:
	.quad	l___unnamed_34
	.asciz	"a\000\000\000\000\000\000\000.\000\000\0002\000\000"

	.section	__TEXT,__const
	.p2align	4
_str.0:
	.ascii	"attempt to subtract with overflow"

	.section	__DATA,__const
	.p2align	3
l___unnamed_12:
	.quad	l___unnamed_34
	.asciz	"a\000\000\000\000\000\000\0002\000\000\000,\000\000"

	.section	__TEXT,__const
	.p2align	4
_str.1:
	.ascii	"attempt to add with overflow"

l___unnamed_13:
	.asciz	"isEqual:"

l___unnamed_35:
	.ascii	"/Users/natalie/.cargo/registry/src/github.com-1ecc6299db9ec823/objc-foundation-0.1.1/src/object.rs"

	.section	__DATA,__const
	.p2align	3
l___unnamed_14:
	.quad	l___unnamed_35
	.asciz	"b\000\000\000\000\000\000\000\032\000\000\000\r\000\000"

	.section	__TEXT,__const
l___unnamed_15:
	.asciz	"description"

	.section	__DATA,__const
	.p2align	3
l___unnamed_16:
	.quad	l___unnamed_35
	.asciz	"b\000\000\000\000\000\000\000!\000\000\000)\000\000"

	.section	__TEXT,__const
l___unnamed_17:
	.asciz	"lengthOfBytesUsingEncoding:"

l___unnamed_36:
	.ascii	"/Users/natalie/.cargo/registry/src/github.com-1ecc6299db9ec823/objc-foundation-0.1.1/src/string.rs"

	.section	__DATA,__const
	.p2align	3
l___unnamed_18:
	.quad	l___unnamed_36
	.asciz	"b\000\000\000\000\000\000\000$\000\000\000\r\000\000"

	.section	__TEXT,__const
l___unnamed_19:
	.asciz	"UTF8String"

	.section	__DATA,__const
	.p2align	3
l___unnamed_21:
	.quad	l___unnamed_36
	.asciz	"b\000\000\000\000\000\000\000*\000\000\000(\000\000"

	.p2align	3
l___unnamed_20:
	.quad	l___unnamed_36
	.asciz	"b\000\000\000\000\000\000\0000\000\000\000#\000\000"

	.globl	__ZN15objc_foundation5array9from_refs12register_sel3SEL17h33c5e03adfd31b66E
.zerofill __DATA,__common,__ZN15objc_foundation5array9from_refs12register_sel3SEL17h33c5e03adfd31b66E,8,3
	.globl	__ZN15objc_foundation5array9from_refs12register_sel3SEL17hbdbf53c6156fc087E
.zerofill __DATA,__common,__ZN15objc_foundation5array9from_refs12register_sel3SEL17hbdbf53c6156fc087E,8,3
	.globl	__ZN15objc_foundation5array8INSArray5count12register_sel3SEL17h41c0885129aa2e13E
.zerofill __DATA,__common,__ZN15objc_foundation5array8INSArray5count12register_sel3SEL17h41c0885129aa2e13E,8,3
	.globl	__ZN15objc_foundation5array8INSArray9object_at12register_sel3SEL17h0e828938f68f0576E
.zerofill __DATA,__common,__ZN15objc_foundation5array8INSArray9object_at12register_sel3SEL17h0e828938f68f0576E,8,3
	.globl	__ZN15objc_foundation5array8INSArray12first_object12register_sel3SEL17h69d8d113af58eb53E
.zerofill __DATA,__common,__ZN15objc_foundation5array8INSArray12first_object12register_sel3SEL17h69d8d113af58eb53E,8,3
	.globl	__ZN15objc_foundation5array8INSArray11last_object12register_sel3SEL17hd6bd9c772a63538cE
.zerofill __DATA,__common,__ZN15objc_foundation5array8INSArray11last_object12register_sel3SEL17hd6bd9c772a63538cE,8,3
	.globl	__ZN15objc_foundation5array8INSArray17object_enumerator12register_sel3SEL17h47f7a7ff246bc989E
.zerofill __DATA,__common,__ZN15objc_foundation5array8INSArray17object_enumerator12register_sel3SEL17h47f7a7ff246bc989E,8,3
	.globl	__ZN15objc_foundation5array8INSArray16objects_in_range12register_sel3SEL17h9c23d2df07166521E
.zerofill __DATA,__common,__ZN15objc_foundation5array8INSArray16objects_in_range12register_sel3SEL17h9c23d2df07166521E,8,3
	.globl	__ZN15objc_foundation5array8INSArray13mut_object_at12register_sel3SEL17hdf1727a096d24fbcE
.zerofill __DATA,__common,__ZN15objc_foundation5array8INSArray13mut_object_at12register_sel3SEL17hdf1727a096d24fbcE,8,3
	.globl	__ZN15objc_foundation5array15INSMutableArray10add_object12register_sel3SEL17h0fdcea251e881be1E
.zerofill __DATA,__common,__ZN15objc_foundation5array15INSMutableArray10add_object12register_sel3SEL17h0fdcea251e881be1E,8,3
	.globl	__ZN15objc_foundation5array15INSMutableArray16insert_object_at12register_sel3SEL17h7fe0419e81f5b5feE
.zerofill __DATA,__common,__ZN15objc_foundation5array15INSMutableArray16insert_object_at12register_sel3SEL17h7fe0419e81f5b5feE,8,3
	.globl	__ZN15objc_foundation5array15INSMutableArray17replace_object_at12register_sel3SEL17h16788d66652103b7E
.zerofill __DATA,__common,__ZN15objc_foundation5array15INSMutableArray17replace_object_at12register_sel3SEL17h16788d66652103b7E,8,3
	.globl	__ZN15objc_foundation5array15INSMutableArray16remove_object_at12register_sel3SEL17ha9215cb1203e739aE
.zerofill __DATA,__common,__ZN15objc_foundation5array15INSMutableArray16remove_object_at12register_sel3SEL17ha9215cb1203e739aE,8,3
	.globl	__ZN15objc_foundation5array15INSMutableArray18remove_last_object12register_sel3SEL17h3ae44f75bd2dbf3fE
.zerofill __DATA,__common,__ZN15objc_foundation5array15INSMutableArray18remove_last_object12register_sel3SEL17h3ae44f75bd2dbf3fE,8,3
	.globl	__ZN15objc_foundation5array15INSMutableArray18remove_all_objects12register_sel3SEL17h634ea7faced615d1E
.zerofill __DATA,__common,__ZN15objc_foundation5array15INSMutableArray18remove_all_objects12register_sel3SEL17h634ea7faced615d1E,8,3
	.globl	__ZN15objc_foundation5array15INSMutableArray7sort_by12register_sel3SEL17hff24e62c944ac98dE
.zerofill __DATA,__common,__ZN15objc_foundation5array15INSMutableArray7sort_by12register_sel3SEL17hff24e62c944ac98dE,8,3
	.globl	__ZN15objc_foundation4data7INSData3len12register_sel3SEL17h7ca94feaa4121231E
.zerofill __DATA,__common,__ZN15objc_foundation4data7INSData3len12register_sel3SEL17h7ca94feaa4121231E,8,3
	.globl	__ZN15objc_foundation4data7INSData5bytes12register_sel3SEL17h76e72c740ed13725E
.zerofill __DATA,__common,__ZN15objc_foundation4data7INSData5bytes12register_sel3SEL17h76e72c740ed13725E,8,3
	.globl	__ZN15objc_foundation4data7INSData10with_bytes12register_sel3SEL17hdd1b902d4d8f613cE
.zerofill __DATA,__common,__ZN15objc_foundation4data7INSData10with_bytes12register_sel3SEL17hdd1b902d4d8f613cE,8,3
	.globl	__ZN15objc_foundation4data7INSData10with_bytes12register_sel3SEL17h0fc9c0e3d61540aaE
.zerofill __DATA,__common,__ZN15objc_foundation4data7INSData10with_bytes12register_sel3SEL17h0fc9c0e3d61540aaE,8,3
	.globl	__ZN15objc_foundation4data7INSData8from_vec12register_sel3SEL17hfe1cf9e246a8e38cE
.zerofill __DATA,__common,__ZN15objc_foundation4data7INSData8from_vec12register_sel3SEL17hfe1cf9e246a8e38cE,8,3
	.globl	__ZN15objc_foundation4data7INSData8from_vec12register_sel3SEL17he0f37b70d04bc7f7E
.zerofill __DATA,__common,__ZN15objc_foundation4data7INSData8from_vec12register_sel3SEL17he0f37b70d04bc7f7E,8,3
	.section	__TEXT,__const
l___unnamed_22:
	.ascii	"NSData"

l___unnamed_37:
	.ascii	"Class "

l___unnamed_38:
	.ascii	" not found"

	.section	__DATA,__const
	.p2align	3
l___unnamed_23:
	.quad	l___unnamed_37
	.asciz	"\006\000\000\000\000\000\000"
	.quad	l___unnamed_38
	.asciz	"\n\000\000\000\000\000\000"

	.section	__TEXT,__const
l___unnamed_39:
	.ascii	"/Users/natalie/.cargo/registry/src/github.com-1ecc6299db9ec823/objc-foundation-0.1.1/src/data.rs"

	.section	__DATA,__const
	.p2align	3
l___unnamed_24:
	.quad	l___unnamed_39
	.asciz	"`\000\000\000\000\000\000\000>\000\000\000\001\000\000"

	.globl	__ZN15objc_foundation4data14INSMutableData9bytes_mut12register_sel3SEL17h47eca487eff823c1E
.zerofill __DATA,__common,__ZN15objc_foundation4data14INSMutableData9bytes_mut12register_sel3SEL17h47eca487eff823c1E,8,3
	.globl	__ZN15objc_foundation4data14INSMutableData7set_len12register_sel3SEL17h2d3ecb61440a7fcaE
.zerofill __DATA,__common,__ZN15objc_foundation4data14INSMutableData7set_len12register_sel3SEL17h2d3ecb61440a7fcaE,8,3
	.globl	__ZN15objc_foundation4data14INSMutableData6append12register_sel3SEL17hfae99ca02c984191E
.zerofill __DATA,__common,__ZN15objc_foundation4data14INSMutableData6append12register_sel3SEL17hfae99ca02c984191E,8,3
	.globl	__ZN15objc_foundation4data14INSMutableData13replace_range12register_sel3SEL17he95581da719e8e76E
.zerofill __DATA,__common,__ZN15objc_foundation4data14INSMutableData13replace_range12register_sel3SEL17he95581da719e8e76E,8,3
	.section	__TEXT,__const
l___unnamed_25:
	.ascii	"NSMutableData"

	.section	__DATA,__const
	.p2align	3
l___unnamed_26:
	.quad	l___unnamed_39
	.asciz	"`\000\000\000\000\000\000\000t\000\000\000\001\000\000"

	.globl	__ZN15objc_foundation10dictionary9from_refs12register_sel3SEL17hc56b367edecb55c7E
.zerofill __DATA,__common,__ZN15objc_foundation10dictionary9from_refs12register_sel3SEL17hc56b367edecb55c7E,8,3
	.globl	__ZN15objc_foundation10dictionary9from_refs12register_sel3SEL17h619a0b82a57cfb33E
.zerofill __DATA,__common,__ZN15objc_foundation10dictionary9from_refs12register_sel3SEL17h619a0b82a57cfb33E,8,3
	.globl	__ZN15objc_foundation10dictionary13INSDictionary5count12register_sel3SEL17h63d48ec25078df3aE
.zerofill __DATA,__common,__ZN15objc_foundation10dictionary13INSDictionary5count12register_sel3SEL17h63d48ec25078df3aE,8,3
	.globl	__ZN15objc_foundation10dictionary13INSDictionary10object_for12register_sel3SEL17h96e3d63c28458f71E
.zerofill __DATA,__common,__ZN15objc_foundation10dictionary13INSDictionary10object_for12register_sel3SEL17h96e3d63c28458f71E,8,3
	.globl	__ZN15objc_foundation10dictionary13INSDictionary4keys12register_sel3SEL17hfc8398bce4e63b3eE
.zerofill __DATA,__common,__ZN15objc_foundation10dictionary13INSDictionary4keys12register_sel3SEL17hfc8398bce4e63b3eE,8,3
	.globl	__ZN15objc_foundation10dictionary13INSDictionary6values12register_sel3SEL17hdfd197c0a5b7434fE
.zerofill __DATA,__common,__ZN15objc_foundation10dictionary13INSDictionary6values12register_sel3SEL17hdfd197c0a5b7434fE,8,3
	.globl	__ZN15objc_foundation10dictionary13INSDictionary16keys_and_objects12register_sel3SEL17h9bf781adea543c04E
.zerofill __DATA,__common,__ZN15objc_foundation10dictionary13INSDictionary16keys_and_objects12register_sel3SEL17h9bf781adea543c04E,8,3
	.globl	__ZN15objc_foundation10dictionary13INSDictionary14key_enumerator12register_sel3SEL17h9fb7e540ad5645a7E
.zerofill __DATA,__common,__ZN15objc_foundation10dictionary13INSDictionary14key_enumerator12register_sel3SEL17h9fb7e540ad5645a7E,8,3
	.globl	__ZN15objc_foundation10dictionary13INSDictionary17object_enumerator12register_sel3SEL17h4d936b2c622cf3b5E
.zerofill __DATA,__common,__ZN15objc_foundation10dictionary13INSDictionary17object_enumerator12register_sel3SEL17h4d936b2c622cf3b5E,8,3
	.globl	__ZN15objc_foundation10dictionary13INSDictionary10keys_array12register_sel3SEL17he664f9469a2f9034E
.zerofill __DATA,__common,__ZN15objc_foundation10dictionary13INSDictionary10keys_array12register_sel3SEL17he664f9469a2f9034E,8,3
	.globl	__ZN15objc_foundation10dictionary13INSDictionary17into_values_array12register_sel3SEL17h50e71f8924e13fbaE
.zerofill __DATA,__common,__ZN15objc_foundation10dictionary13INSDictionary17into_values_array12register_sel3SEL17h50e71f8924e13fbaE,8,3
	.globl	__ZN109_$LT$objc_foundation..enumerator..NSEnumerator$LT$T$GT$$u20$as$u20$core..iter..traits..iterator..Iterator$GT$4next12register_sel3SEL17h75574d9e1c00806dE
.zerofill __DATA,__common,__ZN109_$LT$objc_foundation..enumerator..NSEnumerator$LT$T$GT$$u20$as$u20$core..iter..traits..iterator..Iterator$GT$4next12register_sel3SEL17h75574d9e1c00806dE,8,3
	.globl	__ZN15objc_foundation10enumerator9enumerate12register_sel3SEL17haca4ce315d0eee28E
.zerofill __DATA,__common,__ZN15objc_foundation10enumerator9enumerate12register_sel3SEL17haca4ce315d0eee28E,8,3
	.globl	__ZN15objc_foundation6object9INSObject9hash_code12register_sel3SEL17hab930c9c47fd6f71E
.zerofill __DATA,__common,__ZN15objc_foundation6object9INSObject9hash_code12register_sel3SEL17hab930c9c47fd6f71E,8,3
	.globl	__ZN15objc_foundation6object9INSObject8is_equal12register_sel3SEL17he040c73c09d0268bE
.zerofill __DATA,__common,__ZN15objc_foundation6object9INSObject8is_equal12register_sel3SEL17he040c73c09d0268bE,8,3
	.globl	__ZN15objc_foundation6object9INSObject11description12register_sel3SEL17h96981968c9a259a2E
.zerofill __DATA,__common,__ZN15objc_foundation6object9INSObject11description12register_sel3SEL17h96981968c9a259a2E,8,3
	.globl	__ZN15objc_foundation6object9INSObject10is_kind_of12register_sel3SEL17he8de1c1a86847f1dE
.zerofill __DATA,__common,__ZN15objc_foundation6object9INSObject10is_kind_of12register_sel3SEL17he8de1c1a86847f1dE,8,3
	.globl	__ZN15objc_foundation6object9INSObject3new12register_sel3SEL17h8702c938989f7ee3E
.zerofill __DATA,__common,__ZN15objc_foundation6object9INSObject3new12register_sel3SEL17h8702c938989f7ee3E,8,3
	.globl	__ZN15objc_foundation6object9INSObject3new12register_sel3SEL17h48816e9b50f7c805E
.zerofill __DATA,__common,__ZN15objc_foundation6object9INSObject3new12register_sel3SEL17h48816e9b50f7c805E,8,3
	.section	__TEXT,__literal8,8byte_literals
L___unnamed_27:
	.ascii	"NSObject"

	.section	__DATA,__const
	.p2align	3
l___unnamed_28:
	.quad	l___unnamed_35
	.asciz	"b\000\000\000\000\000\000\0007\000\000\000\001\000\000"

	.globl	__ZN15objc_foundation6string10INSCopying4copy12register_sel3SEL17h5dfe41d3b0851d93E
.zerofill __DATA,__common,__ZN15objc_foundation6string10INSCopying4copy12register_sel3SEL17h5dfe41d3b0851d93E,8,3
	.globl	__ZN15objc_foundation6string17INSMutableCopying12mutable_copy12register_sel3SEL17h7defa71986253c26E
.zerofill __DATA,__common,__ZN15objc_foundation6string17INSMutableCopying12mutable_copy12register_sel3SEL17h7defa71986253c26E,8,3
	.globl	__ZN15objc_foundation6string9INSString3len12register_sel3SEL17h6b90bdb1ef497408E
.zerofill __DATA,__common,__ZN15objc_foundation6string9INSString3len12register_sel3SEL17h6b90bdb1ef497408E,8,3
	.globl	__ZN15objc_foundation6string9INSString6as_str12register_sel3SEL17hd5b76231c7eaee5dE
.zerofill __DATA,__common,__ZN15objc_foundation6string9INSString6as_str12register_sel3SEL17hd5b76231c7eaee5dE,8,3
	.globl	__ZN15objc_foundation6string9INSString8from_str12register_sel3SEL17h308bf69fb39176bcE
.zerofill __DATA,__common,__ZN15objc_foundation6string9INSString8from_str12register_sel3SEL17h308bf69fb39176bcE,8,3
	.globl	__ZN15objc_foundation6string9INSString8from_str12register_sel3SEL17hb01013495efe7115E
.zerofill __DATA,__common,__ZN15objc_foundation6string9INSString8from_str12register_sel3SEL17hb01013495efe7115E,8,3
	.section	__TEXT,__literal8,8byte_literals
L___unnamed_29:
	.ascii	"NSString"

	.section	__DATA,__const
	.p2align	3
l___unnamed_30:
	.quad	l___unnamed_36
	.asciz	"b\000\000\000\000\000\000\000@\000\000\000\001\000\000"

	.globl	__ZN15objc_foundation5value8INSValue5value12register_sel3SEL17ha726f6162043ca30E
.zerofill __DATA,__common,__ZN15objc_foundation5value8INSValue5value12register_sel3SEL17ha726f6162043ca30E,8,3
	.globl	__ZN15objc_foundation5value8INSValue8encoding12register_sel3SEL17h95c7abe63c9ae77bE
.zerofill __DATA,__common,__ZN15objc_foundation5value8INSValue8encoding12register_sel3SEL17h95c7abe63c9ae77bE,8,3
	.globl	__ZN15objc_foundation5value8INSValue10from_value12register_sel3SEL17he2f2e2ee85fe51a9E
.zerofill __DATA,__common,__ZN15objc_foundation5value8INSValue10from_value12register_sel3SEL17he2f2e2ee85fe51a9E,8,3
	.globl	__ZN15objc_foundation5value8INSValue10from_value12register_sel3SEL17h7493f3f0e6bf0f9bE
.zerofill __DATA,__common,__ZN15objc_foundation5value8INSValue10from_value12register_sel3SEL17h7493f3f0e6bf0f9bE,8,3
	.section	__DATA,__const
Lsec_end0:
	.section	__DATA,__common,zerofill
Lsec_end1:
	.section	__TEXT,__text,regular,pure_instructions
Lsec_end2: