	.section	__TEXT,__text,regular,pure_instructions
	.macosx_version_min 10, 7
	.file	1 "/Users/natalie/.cargo/registry/src/github.com-1ecc6299db9ec823/objc-0.2.7" "src/macros.rs"
	.globl	__ZN102_$LT$core..iter..adapters..map..Map$LT$I$C$F$GT$$u20$as$u20$core..iter..traits..iterator..Iterator$GT$4fold17h58db8bbae0a96164E
	.p2align	4, 0x90
__ZN102_$LT$core..iter..adapters..map..Map$LT$I$C$F$GT$$u20$as$u20$core..iter..traits..iterator..Iterator$GT$4fold17h58db8bbae0a96164E:
Lfunc_begin0:
	.file	2 "/rustc/2c8cc343237b8f7d5a3c3703e3a87f2eb2c54a74/library/core/src/iter/adapters" "map.rs"
	.loc	2 120 0
	.cfi_startproc
	.cfi_personality 155, _rust_eh_personality
	.cfi_lsda 16, Lexception0
	pushq	%rbp
	.cfi_def_cfa_offset 16
	.cfi_offset %rbp, -16
	movq	%rsp, %rbp
	.cfi_def_cfa_register %rbp
	subq	$96, %rsp
	movq	%rdx, -88(%rbp)
	movq	%rdi, %rax
	movq	-88(%rbp), %rdi
	movq	%rax, -80(%rbp)
	movq	%rsi, -72(%rbp)
	movq	%rax, -48(%rbp)
	movq	%rsi, -40(%rbp)
	movq	%rdi, -24(%rbp)
Ltmp5:
	.loc	2 124 9 prologue_end
	movb	$1, -49(%rbp)
	.loc	2 124 24 is_stmt 0
	movb	$1, -50(%rbp)
Ltmp0:
	.loc	2 124 30
	callq	__ZN4core4iter8adapters3map8map_fold17h05400392b1aefa7bE
Ltmp1:
	movq	%rax, -64(%rbp)
	jmp	LBB0_3
LBB0_1:
	.loc	2 124 49
	testb	$1, -50(%rbp)
	jne	LBB0_6
	jmp	LBB0_5
LBB0_2:
Ltmp4:
	.loc	2 0 49
	movq	%rax, %rcx
	movl	%edx, %eax
	movq	%rcx, -16(%rbp)
	movl	%eax, -8(%rbp)
	jmp	LBB0_1
LBB0_3:
	movq	-64(%rbp), %rdx
	movq	-72(%rbp), %rsi
	movq	-80(%rbp), %rdi
	.loc	2 124 9
	movb	$0, -49(%rbp)
	movb	$0, -50(%rbp)
Ltmp2:
	callq	__ZN4core4iter6traits8iterator8Iterator4fold17ha36a999ca45a7f4aE
Ltmp3:
	jmp	LBB0_4
LBB0_4:
	.loc	2 125 6 is_stmt 1
	addq	$96, %rsp
	popq	%rbp
	retq
LBB0_5:
	.loc	2 124 49
	testb	$1, -49(%rbp)
	jne	LBB0_8
	jmp	LBB0_7
LBB0_6:
	jmp	LBB0_5
LBB0_7:
	.loc	2 120 5
	movq	-16(%rbp), %rdi
	callq	__Unwind_Resume
LBB0_8:
	.loc	2 124 49
	jmp	LBB0_7
Ltmp6:
Lfunc_end0:
	.cfi_endproc
	.section	__TEXT,__gcc_except_tab
	.p2align	2
GCC_except_table0:
Lexception0:
	.byte	255
	.byte	255
	.byte	1
	.uleb128 Lcst_end0-Lcst_begin0
Lcst_begin0:
	.uleb128 Ltmp0-Lfunc_begin0
	.uleb128 Ltmp3-Ltmp0
	.uleb128 Ltmp4-Lfunc_begin0
	.byte	0
	.uleb128 Ltmp3-Lfunc_begin0
	.uleb128 Lfunc_end0-Ltmp3
	.byte	0
	.byte	0
Lcst_end0:
	.p2align	2

	.section	__TEXT,__text,regular,pure_instructions
	.globl	__ZN102_$LT$core..iter..adapters..map..Map$LT$I$C$F$GT$$u20$as$u20$core..iter..traits..iterator..Iterator$GT$4fold17heee7a34cb96ddbc8E
	.p2align	4, 0x90
__ZN102_$LT$core..iter..adapters..map..Map$LT$I$C$F$GT$$u20$as$u20$core..iter..traits..iterator..Iterator$GT$4fold17heee7a34cb96ddbc8E:
Lfunc_begin1:
	.loc	2 120 0
	.cfi_startproc
	.cfi_personality 155, _rust_eh_personality
	.cfi_lsda 16, Lexception1
	pushq	%rbp
	.cfi_def_cfa_offset 16
	.cfi_offset %rbp, -16
	movq	%rsp, %rbp
	.cfi_def_cfa_register %rbp
	subq	$96, %rsp
	movq	%rdi, -80(%rbp)
	movq	%rsi, -72(%rbp)
	movq	%rdx, -64(%rbp)
	movq	%rdi, -48(%rbp)
	movq	%rsi, -40(%rbp)
	movq	%rdx, -32(%rbp)
Ltmp12:
	.loc	2 124 9 prologue_end
	movb	$1, -49(%rbp)
	.loc	2 124 24 is_stmt 0
	movb	$1, -50(%rbp)
Ltmp7:
	.loc	2 124 30
	callq	__ZN4core4iter8adapters3map8map_fold17hf764242622fe2b6aE
Ltmp8:
	jmp	LBB1_3
LBB1_1:
	.loc	2 124 49
	testb	$1, -50(%rbp)
	jne	LBB1_6
	jmp	LBB1_5
LBB1_2:
Ltmp11:
	.loc	2 0 49
	movq	%rax, %rcx
	movl	%edx, %eax
	movq	%rcx, -16(%rbp)
	movl	%eax, -8(%rbp)
	jmp	LBB1_1
LBB1_3:
	movq	-64(%rbp), %rdx
	movq	-72(%rbp), %rsi
	movq	-80(%rbp), %rdi
	.loc	2 124 9
	movb	$0, -49(%rbp)
	movb	$0, -50(%rbp)
Ltmp9:
	callq	__ZN4core4iter6traits8iterator8Iterator4fold17h260037e335ae9146E
Ltmp10:
	movq	%rax, -88(%rbp)
	jmp	LBB1_4
LBB1_4:
	.loc	2 0 9
	movq	-88(%rbp), %rax
	.loc	2 125 6 is_stmt 1
	addq	$96, %rsp
	popq	%rbp
	retq
LBB1_5:
	.loc	2 124 49
	testb	$1, -49(%rbp)
	jne	LBB1_8
	jmp	LBB1_7
LBB1_6:
	jmp	LBB1_5
LBB1_7:
	.loc	2 120 5
	movq	-16(%rbp), %rdi
	callq	__Unwind_Resume
LBB1_8:
	.loc	2 124 49
	jmp	LBB1_7
Ltmp13:
Lfunc_end1:
	.cfi_endproc
	.section	__TEXT,__gcc_except_tab
	.p2align	2
GCC_except_table1:
Lexception1:
	.byte	255
	.byte	255
	.byte	1
	.uleb128 Lcst_end1-Lcst_begin1
Lcst_begin1:
	.uleb128 Ltmp7-Lfunc_begin1
	.uleb128 Ltmp10-Ltmp7
	.uleb128 Ltmp11-Lfunc_begin1
	.byte	0
	.uleb128 Ltmp10-Lfunc_begin1
	.uleb128 Lfunc_end1-Ltmp10
	.byte	0
	.byte	0
Lcst_end1:
	.p2align	2

	.section	__TEXT,__text,regular,pure_instructions
	.globl	__ZN102_$LT$core..iter..adapters..zip..Zip$LT$A$C$B$GT$$u20$as$u20$core..iter..traits..iterator..Iterator$GT$4next17hc75b687c1267acfcE
	.p2align	4, 0x90
__ZN102_$LT$core..iter..adapters..zip..Zip$LT$A$C$B$GT$$u20$as$u20$core..iter..traits..iterator..Iterator$GT$4next17hc75b687c1267acfcE:
Lfunc_begin2:
	.file	3 "/rustc/2c8cc343237b8f7d5a3c3703e3a87f2eb2c54a74/library/core/src/iter/adapters" "zip.rs"
	.loc	3 83 0
	.cfi_startproc
	pushq	%rbp
	.cfi_def_cfa_offset 16
	.cfi_offset %rbp, -16
	movq	%rsp, %rbp
	.cfi_def_cfa_register %rbp
	subq	$16, %rsp
	movq	%rdi, -8(%rbp)
Ltmp14:
	.loc	3 84 9 prologue_end
	callq	__ZN111_$LT$core..iter..adapters..zip..Zip$LT$A$C$B$GT$$u20$as$u20$core..iter..adapters..zip..ZipImpl$LT$A$C$B$GT$$GT$4next17h7a08b499c3a8aefaE
	.loc	3 85 6
	addq	$16, %rsp
	popq	%rbp
	retq
Ltmp15:
Lfunc_end2:
	.cfi_endproc

	.globl	__ZN104_$LT$core..iter..adapters..copied..Copied$LT$I$GT$$u20$as$u20$core..iter..traits..iterator..Iterator$GT$24__iterator_get_unchecked17h4d9fb4e32d5b7452E
	.p2align	4, 0x90
__ZN104_$LT$core..iter..adapters..copied..Copied$LT$I$GT$$u20$as$u20$core..iter..traits..iterator..Iterator$GT$24__iterator_get_unchecked17h4d9fb4e32d5b7452E:
Lfunc_begin3:
	.file	4 "/rustc/2c8cc343237b8f7d5a3c3703e3a87f2eb2c54a74/library/core/src/iter/adapters" "copied.rs"
	.loc	4 96 0
	.cfi_startproc
	pushq	%rbp
	.cfi_def_cfa_offset 16
	.cfi_offset %rbp, -16
	movq	%rsp, %rbp
	.cfi_def_cfa_register %rbp
	subq	$32, %rsp
	movq	%rdi, -32(%rbp)
	movq	%rsi, -24(%rbp)
Ltmp16:
	.loc	4 102 37 prologue_end
	movq	%rdi, -16(%rbp)
	.loc	4 102 51 is_stmt 0
	movq	%rsi, -8(%rbp)
Ltmp17:
	.loc	3 563 14 is_stmt 1
	callq	__ZN72_$LT$I$u20$as$u20$core..iter..adapters..zip..SpecTrustedRandomAccess$GT$17try_get_unchecked17hee1b0274d3dae48dE
Ltmp18:
	.loc	4 102 9
	movb	(%rax), %al
	.loc	4 103 6
	addq	$32, %rsp
	popq	%rbp
	retq
Ltmp19:
Lfunc_end3:
	.cfi_endproc

	.globl	__ZN104_$LT$core..iter..adapters..copied..Copied$LT$I$GT$$u20$as$u20$core..iter..traits..iterator..Iterator$GT$9size_hint17h52e95aa47e1d10a0E
	.p2align	4, 0x90
__ZN104_$LT$core..iter..adapters..copied..Copied$LT$I$GT$$u20$as$u20$core..iter..traits..iterator..Iterator$GT$9size_hint17h52e95aa47e1d10a0E:
Lfunc_begin4:
	.loc	4 59 0
	.cfi_startproc
	pushq	%rbp
	.cfi_def_cfa_offset 16
	.cfi_offset %rbp, -16
	movq	%rsp, %rbp
	.cfi_def_cfa_register %rbp
	subq	$16, %rsp
	movq	%rdi, %rax
	movq	%rax, -16(%rbp)
	movq	%rsi, -8(%rbp)
Ltmp20:
	.loc	4 60 9 prologue_end
	callq	__ZN91_$LT$core..slice..iter..Iter$LT$T$GT$$u20$as$u20$core..iter..traits..iterator..Iterator$GT$9size_hint17hf86106b675575326E
	movq	-16(%rbp), %rax
	.loc	4 61 6
	addq	$16, %rsp
	popq	%rbp
	retq
Ltmp21:
Lfunc_end4:
	.cfi_endproc

	.globl	__ZN106_$LT$core..ops..range..Range$LT$usize$GT$$u20$as$u20$core..slice..index..SliceIndex$LT$$u5b$T$u5d$$GT$$GT$13get_unchecked17h756d4a6e8ba57a05E
	.p2align	4, 0x90
__ZN106_$LT$core..ops..range..Range$LT$usize$GT$$u20$as$u20$core..slice..index..SliceIndex$LT$$u5b$T$u5d$$GT$$GT$13get_unchecked17h756d4a6e8ba57a05E:
Lfunc_begin5:
	.file	5 "/rustc/2c8cc343237b8f7d5a3c3703e3a87f2eb2c54a74/library/core/src/slice" "index.rs"
	.loc	5 373 0
	.cfi_startproc
	pushq	%rbp
	.cfi_def_cfa_offset 16
	.cfi_offset %rbp, -16
	movq	%rsp, %rbp
	.cfi_def_cfa_register %rbp
	subq	$160, %rsp
	movq	%rdi, -128(%rbp)
	movq	%rsi, -120(%rbp)
	movq	%rdx, -112(%rbp)
	movq	%rcx, -104(%rbp)
Ltmp22:
	.loc	5 386 39 prologue_end
	movq	%rdx, -96(%rbp)
	movq	%rcx, -88(%rbp)
Ltmp23:
	.file	6 "/rustc/2c8cc343237b8f7d5a3c3703e3a87f2eb2c54a74/library/core/src/ptr" "const_ptr.rs"
	.loc	6 1650 9
	movq	%rdx, -80(%rbp)
Ltmp24:
	.loc	5 386 58
	movq	%rdi, -72(%rbp)
Ltmp25:
	.loc	6 932 18
	movq	%rdx, -64(%rbp)
	.loc	6 932 30 is_stmt 0
	movq	%rdi, -56(%rbp)
Ltmp26:
	.loc	6 473 18 is_stmt 1
	addq	%rdi, %rdx
	movq	%rdx, -48(%rbp)
	movq	-48(%rbp), %rax
	movq	%rax, -40(%rbp)
Ltmp27:
	.loc	5 386 71
	subq	%rdi, %rsi
	movq	%rsi, -32(%rbp)
Ltmp28:
	.file	7 "/rustc/2c8cc343237b8f7d5a3c3703e3a87f2eb2c54a74/library/core/src/ptr" "mod.rs"
	.loc	7 734 20
	movq	%rax, -24(%rbp)
Ltmp29:
	.loc	6 61 9
	movq	%rax, -16(%rbp)
Ltmp30:
	.loc	7 734 33
	movq	%rsi, -8(%rbp)
Ltmp31:
	.file	8 "/rustc/2c8cc343237b8f7d5a3c3703e3a87f2eb2c54a74/library/core/src/ptr" "metadata.rs"
	.loc	8 118 36
	movq	%rax, -144(%rbp)
	movq	%rsi, -136(%rbp)
	.loc	8 118 14 is_stmt 0
	movq	-144(%rbp), %rcx
	movq	-136(%rbp), %rax
	movq	%rcx, -160(%rbp)
	movq	%rax, -152(%rbp)
	movq	-160(%rbp), %rax
	movq	-152(%rbp), %rdx
Ltmp32:
	.loc	5 388 6 is_stmt 1
	addq	$160, %rsp
	popq	%rbp
	retq
Ltmp33:
Lfunc_end5:
	.cfi_endproc

	.globl	__ZN106_$LT$core..ops..range..Range$LT$usize$GT$$u20$as$u20$core..slice..index..SliceIndex$LT$$u5b$T$u5d$$GT$$GT$5index17h3987b778447eb477E
	.p2align	4, 0x90
__ZN106_$LT$core..ops..range..Range$LT$usize$GT$$u20$as$u20$core..slice..index..SliceIndex$LT$$u5b$T$u5d$$GT$$GT$5index17h3987b778447eb477E:
Lfunc_begin6:
	.loc	5 405 0
	.cfi_startproc
	pushq	%rbp
	.cfi_def_cfa_offset 16
	.cfi_offset %rbp, -16
	movq	%rsp, %rbp
	.cfi_def_cfa_register %rbp
	subq	$80, %rsp
	movq	%rdi, -72(%rbp)
	movq	%rsi, -64(%rbp)
	movq	%rdx, -56(%rbp)
	movq	%rcx, -48(%rbp)
	movq	%r8, -40(%rbp)
	movq	%rdi, -32(%rbp)
	movq	%rsi, -24(%rbp)
	movq	%rdx, -16(%rbp)
	movq	%rcx, -8(%rbp)
Ltmp34:
	.loc	5 406 12 prologue_end
	cmpq	%rsi, %rdi
	ja	LBB6_2
	.loc	5 0 12 is_stmt 0
	movq	-64(%rbp), %rax
	movq	-48(%rbp), %rcx
	.loc	5 408 19 is_stmt 1
	cmpq	%rcx, %rax
	ja	LBB6_4
	jmp	LBB6_3
LBB6_2:
	.loc	5 0 19 is_stmt 0
	movq	-40(%rbp), %rdx
	movq	-64(%rbp), %rsi
	movq	-72(%rbp), %rdi
	.loc	5 407 13 is_stmt 1
	callq	__ZN4core5slice5index22slice_index_order_fail17h0d8f800a07d5f26eE
LBB6_3:
	.loc	5 0 13 is_stmt 0
	movq	-48(%rbp), %rcx
	movq	-56(%rbp), %rdx
	movq	-64(%rbp), %rsi
	movq	-72(%rbp), %rdi
	.loc	5 412 20 is_stmt 1
	callq	__ZN106_$LT$core..ops..range..Range$LT$usize$GT$$u20$as$u20$core..slice..index..SliceIndex$LT$$u5b$T$u5d$$GT$$GT$13get_unchecked17h756d4a6e8ba57a05E
	.loc	5 413 6
	addq	$80, %rsp
	popq	%rbp
	retq
LBB6_4:
	.loc	5 0 6 is_stmt 0
	movq	-40(%rbp), %rdx
	movq	-48(%rbp), %rsi
	movq	-64(%rbp), %rdi
	.loc	5 409 13 is_stmt 1
	callq	__ZN4core5slice5index24slice_end_index_len_fail17hc921cb2f1513645aE
Ltmp35:
Lfunc_end6:
	.cfi_endproc

	.globl	__ZN108_$LT$core..iter..adapters..filter..Filter$LT$I$C$P$GT$$u20$as$u20$core..iter..traits..iterator..Iterator$GT$5count17h3f59cd11b18fa204E
	.p2align	4, 0x90
__ZN108_$LT$core..iter..adapters..filter..Filter$LT$I$C$P$GT$$u20$as$u20$core..iter..traits..iterator..Iterator$GT$5count17h3f59cd11b18fa204E:
Lfunc_begin7:
	.file	9 "/rustc/2c8cc343237b8f7d5a3c3703e3a87f2eb2c54a74/library/core/src/iter/adapters" "filter.rs"
	.loc	9 77 0
	.cfi_startproc
	.cfi_personality 155, _rust_eh_personality
	.cfi_lsda 16, Lexception2
	pushq	%rbp
	.cfi_def_cfa_offset 16
	.cfi_offset %rbp, -16
	movq	%rsp, %rbp
	.cfi_def_cfa_register %rbp
	subq	$64, %rsp
	movq	%rdi, -40(%rbp)
	movq	%rsi, -32(%rbp)
Ltmp36:
Ltmp39:
	.loc	9 83 9 prologue_end
	callq	__ZN4core4iter6traits8iterator8Iterator3map17h634d97bafbff242aE
Ltmp37:
	movq	%rdx, -64(%rbp)
	movq	%rax, -56(%rbp)
	jmp	LBB7_3
LBB7_1:
	.loc	9 83 47 is_stmt 0
	xorl	%eax, %eax
	testb	$1, %al
	jne	LBB7_5
	jmp	LBB7_4
LBB7_2:
Ltmp38:
	.loc	9 0 47
	movq	%rax, %rcx
	movl	%edx, %eax
	movq	%rcx, -16(%rbp)
	movl	%eax, -8(%rbp)
	jmp	LBB7_1
LBB7_3:
	movq	-64(%rbp), %rsi
	movq	-56(%rbp), %rdi
	.loc	9 83 9
	callq	__ZN4core4iter6traits8iterator8Iterator3sum17h51dc3f120a7972adE
	.loc	9 84 6 is_stmt 1
	addq	$64, %rsp
	popq	%rbp
	retq
LBB7_4:
	.loc	9 77 5
	movq	-16(%rbp), %rdi
	callq	__Unwind_Resume
LBB7_5:
	.loc	9 83 47
	jmp	LBB7_4
Ltmp40:
Lfunc_end7:
	.cfi_endproc
	.section	__TEXT,__gcc_except_tab
	.p2align	2
GCC_except_table7:
Lexception2:
	.byte	255
	.byte	255
	.byte	1
	.uleb128 Lcst_end2-Lcst_begin2
Lcst_begin2:
	.uleb128 Ltmp36-Lfunc_begin7
	.uleb128 Ltmp37-Ltmp36
	.uleb128 Ltmp38-Lfunc_begin7
	.byte	0
	.uleb128 Ltmp37-Lfunc_begin7
	.uleb128 Lfunc_end7-Ltmp37
	.byte	0
	.byte	0
Lcst_end2:
	.p2align	2

	.section	__TEXT,__text,regular,pure_instructions
	.globl	__ZN108_$LT$core..iter..adapters..filter..Filter$LT$I$C$P$GT$$u20$as$u20$core..iter..traits..iterator..Iterator$GT$5count8to_usize28_$u7b$$u7b$closure$u7d$$u7d$17h7ad67cfadaeb139fE
	.p2align	4, 0x90
__ZN108_$LT$core..iter..adapters..filter..Filter$LT$I$C$P$GT$$u20$as$u20$core..iter..traits..iterator..Iterator$GT$5count8to_usize28_$u7b$$u7b$closure$u7d$$u7d$17h7ad67cfadaeb139fE:
Lfunc_begin8:
	.loc	9 80 0
	.cfi_startproc
	.cfi_personality 155, _rust_eh_personality
	.cfi_lsda 16, Lexception3
	pushq	%rbp
	.cfi_def_cfa_offset 16
	.cfi_offset %rbp, -16
	movq	%rsp, %rbp
	.cfi_def_cfa_register %rbp
	subq	$48, %rsp
	movl	%esi, -36(%rbp)
	movq	%rdi, -24(%rbp)
	leaq	-36(%rbp), %rax
Ltmp44:
	.loc	9 80 22 prologue_end
	movq	%rax, -32(%rbp)
	movq	-32(%rbp), %rsi
Ltmp41:
	callq	__ZN4objc7declare10count_args28_$u7b$$u7b$closure$u7d$$u7d$17hce3e9a0cab641e20E
Ltmp42:
	movb	%al, -37(%rbp)
	jmp	LBB8_3
LBB8_1:
	.loc	9 80 13 is_stmt 0
	movq	-16(%rbp), %rdi
	callq	__Unwind_Resume
LBB8_2:
Ltmp43:
	.loc	9 0 13
	movq	%rax, %rcx
	movl	%edx, %eax
	movq	%rcx, -16(%rbp)
	movl	%eax, -8(%rbp)
	jmp	LBB8_1
LBB8_3:
	movb	-37(%rbp), %al
	.loc	9 80 22
	andb	$1, %al
	movzbl	%al, %eax
	.loc	9 80 44
	addq	$48, %rsp
	popq	%rbp
	retq
Ltmp45:
Lfunc_end8:
	.cfi_endproc
	.section	__TEXT,__gcc_except_tab
	.p2align	2
GCC_except_table8:
Lexception3:
	.byte	255
	.byte	255
	.byte	1
	.uleb128 Lcst_end3-Lcst_begin3
Lcst_begin3:
	.uleb128 Ltmp41-Lfunc_begin8
	.uleb128 Ltmp42-Ltmp41
	.uleb128 Ltmp43-Lfunc_begin8
	.byte	0
	.uleb128 Ltmp42-Lfunc_begin8
	.uleb128 Lfunc_end8-Ltmp42
	.byte	0
	.byte	0
Lcst_end3:
	.p2align	2

	.section	__TEXT,__text,regular,pure_instructions
	.globl	__ZN108_$LT$core..ops..range..RangeTo$LT$usize$GT$$u20$as$u20$core..slice..index..SliceIndex$LT$$u5b$T$u5d$$GT$$GT$5index17h0dfef73ca13810bdE
	.p2align	4, 0x90
__ZN108_$LT$core..ops..range..RangeTo$LT$usize$GT$$u20$as$u20$core..slice..index..SliceIndex$LT$$u5b$T$u5d$$GT$$GT$5index17h0dfef73ca13810bdE:
Lfunc_begin9:
	.loc	5 455 0 is_stmt 1
	.cfi_startproc
	pushq	%rbp
	.cfi_def_cfa_offset 16
	.cfi_offset %rbp, -16
	movq	%rsp, %rbp
	.cfi_def_cfa_register %rbp
	subq	$48, %rsp
	movq	%rcx, %r8
	movq	%rdx, %rcx
	movq	%rsi, %rdx
	movq	%rdi, -24(%rbp)
	movq	%rdx, -16(%rbp)
	movq	%rcx, -8(%rbp)
Ltmp46:
	.loc	5 456 9 prologue_end
	movq	$0, -40(%rbp)
	movq	%rdi, -32(%rbp)
	movq	-40(%rbp), %rdi
	movq	-32(%rbp), %rsi
	callq	__ZN106_$LT$core..ops..range..Range$LT$usize$GT$$u20$as$u20$core..slice..index..SliceIndex$LT$$u5b$T$u5d$$GT$$GT$5index17h3987b778447eb477E
	.loc	5 457 6
	addq	$48, %rsp
	popq	%rbp
	retq
Ltmp47:
Lfunc_end9:
	.cfi_endproc

	.globl	__ZN10malloc_buf21MallocBuffer$LT$T$GT$3new17h0bc2db0523d99de6E
	.p2align	4, 0x90
__ZN10malloc_buf21MallocBuffer$LT$T$GT$3new17h0bc2db0523d99de6E:
Lfunc_begin10:
	.file	10 "/Users/natalie/.cargo/registry/src/github.com-1ecc6299db9ec823/malloc_buf-0.0.6/src" "lib.rs"
	.loc	10 34 0
	.cfi_startproc
	pushq	%rbp
	.cfi_def_cfa_offset 16
	.cfi_offset %rbp, -16
	movq	%rsp, %rbp
	.cfi_def_cfa_register %rbp
	subq	$80, %rsp
	movq	%rdx, -80(%rbp)
	movq	%rsi, -72(%rbp)
	movq	%rdi, -64(%rbp)
	movq	%rdi, -56(%rbp)
	movq	%rsi, -16(%rbp)
	movq	%rdx, -8(%rbp)
Ltmp48:
	.loc	10 35 12 prologue_end
	cmpq	$0, %rdx
	ja	LBB10_2
	movb	$0, -41(%rbp)
	jmp	LBB10_3
LBB10_2:
	.loc	10 0 12 is_stmt 0
	movq	-72(%rbp), %rdi
	.loc	10 35 23
	callq	__ZN4core3ptr7mut_ptr31_$LT$impl$u20$$BP$mut$u20$T$GT$7is_null17h3c0bd1efd62d7de0E
	.loc	10 35 12
	andb	$1, %al
	movb	%al, -41(%rbp)
LBB10_3:
	testb	$1, -41(%rbp)
	jne	LBB10_5
	.loc	10 0 12
	movq	-64(%rbp), %rax
	movq	-80(%rbp), %rcx
	movq	-72(%rbp), %rdx
	.loc	10 39 22 is_stmt 1
	movq	%rdx, -24(%rbp)
	.loc	10 38 18
	movq	-24(%rbp), %rdx
	movq	%rdx, -40(%rbp)
	movq	%rcx, -32(%rbp)
	.loc	10 38 13 is_stmt 0
	movq	-40(%rbp), %rdx
	movq	-32(%rbp), %rcx
	movq	%rdx, 8(%rax)
	movq	%rcx, 16(%rax)
	movq	$1, (%rax)
	.loc	10 35 9 is_stmt 1
	jmp	LBB10_6
LBB10_5:
	.loc	10 0 9 is_stmt 0
	movq	-64(%rbp), %rax
	.loc	10 36 13 is_stmt 1
	movq	$0, (%rax)
LBB10_6:
	.loc	10 0 13 is_stmt 0
	movq	-56(%rbp), %rax
	.loc	10 44 6 is_stmt 1
	addq	$80, %rsp
	popq	%rbp
	retq
Ltmp49:
Lfunc_end10:
	.cfi_endproc

	.globl	__ZN10malloc_buf21MallocBuffer$LT$T$GT$3new17h21e5c2eaa97fc1bdE
	.p2align	4, 0x90
__ZN10malloc_buf21MallocBuffer$LT$T$GT$3new17h21e5c2eaa97fc1bdE:
Lfunc_begin11:
	.loc	10 34 0
	.cfi_startproc
	pushq	%rbp
	.cfi_def_cfa_offset 16
	.cfi_offset %rbp, -16
	movq	%rsp, %rbp
	.cfi_def_cfa_register %rbp
	subq	$80, %rsp
	movq	%rdx, -80(%rbp)
	movq	%rsi, -72(%rbp)
	movq	%rdi, -64(%rbp)
	movq	%rdi, -56(%rbp)
	movq	%rsi, -16(%rbp)
	movq	%rdx, -8(%rbp)
Ltmp50:
	.loc	10 35 12 prologue_end
	cmpq	$0, %rdx
	ja	LBB11_2
	movb	$0, -41(%rbp)
	jmp	LBB11_3
LBB11_2:
	.loc	10 0 12 is_stmt 0
	movq	-72(%rbp), %rdi
	.loc	10 35 23
	callq	__ZN4core3ptr7mut_ptr31_$LT$impl$u20$$BP$mut$u20$T$GT$7is_null17hd383d9cc2e3f945bE
	.loc	10 35 12
	andb	$1, %al
	movb	%al, -41(%rbp)
LBB11_3:
	testb	$1, -41(%rbp)
	jne	LBB11_5
	.loc	10 0 12
	movq	-64(%rbp), %rax
	movq	-80(%rbp), %rcx
	movq	-72(%rbp), %rdx
	.loc	10 39 22 is_stmt 1
	movq	%rdx, -24(%rbp)
	.loc	10 38 18
	movq	-24(%rbp), %rdx
	movq	%rdx, -40(%rbp)
	movq	%rcx, -32(%rbp)
	.loc	10 38 13 is_stmt 0
	movq	-40(%rbp), %rdx
	movq	-32(%rbp), %rcx
	movq	%rdx, 8(%rax)
	movq	%rcx, 16(%rax)
	movq	$1, (%rax)
	.loc	10 35 9 is_stmt 1
	jmp	LBB11_6
LBB11_5:
	.loc	10 0 9 is_stmt 0
	movq	-64(%rbp), %rax
	.loc	10 36 13 is_stmt 1
	movq	$0, (%rax)
LBB11_6:
	.loc	10 0 13 is_stmt 0
	movq	-56(%rbp), %rax
	.loc	10 44 6 is_stmt 1
	addq	$80, %rsp
	popq	%rbp
	retq
Ltmp51:
Lfunc_end11:
	.cfi_endproc

	.globl	__ZN10malloc_buf21MallocBuffer$LT$T$GT$3new17h5203a7df23163836E
	.p2align	4, 0x90
__ZN10malloc_buf21MallocBuffer$LT$T$GT$3new17h5203a7df23163836E:
Lfunc_begin12:
	.loc	10 34 0
	.cfi_startproc
	pushq	%rbp
	.cfi_def_cfa_offset 16
	.cfi_offset %rbp, -16
	movq	%rsp, %rbp
	.cfi_def_cfa_register %rbp
	subq	$80, %rsp
	movq	%rdx, -80(%rbp)
	movq	%rsi, -72(%rbp)
	movq	%rdi, -64(%rbp)
	movq	%rdi, -56(%rbp)
	movq	%rsi, -16(%rbp)
	movq	%rdx, -8(%rbp)
Ltmp52:
	.loc	10 35 12 prologue_end
	cmpq	$0, %rdx
	ja	LBB12_2
	movb	$0, -41(%rbp)
	jmp	LBB12_3
LBB12_2:
	.loc	10 0 12 is_stmt 0
	movq	-72(%rbp), %rdi
	.loc	10 35 23
	callq	__ZN4core3ptr7mut_ptr31_$LT$impl$u20$$BP$mut$u20$T$GT$7is_null17h67fd8ba39612d0d2E
	.loc	10 35 12
	andb	$1, %al
	movb	%al, -41(%rbp)
LBB12_3:
	testb	$1, -41(%rbp)
	jne	LBB12_5
	.loc	10 0 12
	movq	-64(%rbp), %rax
	movq	-80(%rbp), %rcx
	movq	-72(%rbp), %rdx
	.loc	10 39 22 is_stmt 1
	movq	%rdx, -24(%rbp)
	.loc	10 38 18
	movq	-24(%rbp), %rdx
	movq	%rdx, -40(%rbp)
	movq	%rcx, -32(%rbp)
	.loc	10 38 13 is_stmt 0
	movq	-40(%rbp), %rdx
	movq	-32(%rbp), %rcx
	movq	%rdx, 8(%rax)
	movq	%rcx, 16(%rax)
	movq	$1, (%rax)
	.loc	10 35 9 is_stmt 1
	jmp	LBB12_6
LBB12_5:
	.loc	10 0 9 is_stmt 0
	movq	-64(%rbp), %rax
	.loc	10 36 13 is_stmt 1
	movq	$0, (%rax)
LBB12_6:
	.loc	10 0 13 is_stmt 0
	movq	-56(%rbp), %rax
	.loc	10 44 6 is_stmt 1
	addq	$80, %rsp
	popq	%rbp
	retq
Ltmp53:
Lfunc_end12:
	.cfi_endproc

	.globl	__ZN10malloc_buf21MallocBuffer$LT$T$GT$3new17h6281ad4878592970E
	.p2align	4, 0x90
__ZN10malloc_buf21MallocBuffer$LT$T$GT$3new17h6281ad4878592970E:
Lfunc_begin13:
	.loc	10 34 0
	.cfi_startproc
	pushq	%rbp
	.cfi_def_cfa_offset 16
	.cfi_offset %rbp, -16
	movq	%rsp, %rbp
	.cfi_def_cfa_register %rbp
	subq	$80, %rsp
	movq	%rdx, -80(%rbp)
	movq	%rsi, -72(%rbp)
	movq	%rdi, -64(%rbp)
	movq	%rdi, -56(%rbp)
	movq	%rsi, -16(%rbp)
	movq	%rdx, -8(%rbp)
Ltmp54:
	.loc	10 35 12 prologue_end
	cmpq	$0, %rdx
	ja	LBB13_2
	movb	$0, -41(%rbp)
	jmp	LBB13_3
LBB13_2:
	.loc	10 0 12 is_stmt 0
	movq	-72(%rbp), %rdi
	.loc	10 35 23
	callq	__ZN4core3ptr7mut_ptr31_$LT$impl$u20$$BP$mut$u20$T$GT$7is_null17ha1b5caf55b4c2214E
	.loc	10 35 12
	andb	$1, %al
	movb	%al, -41(%rbp)
LBB13_3:
	testb	$1, -41(%rbp)
	jne	LBB13_5
	.loc	10 0 12
	movq	-64(%rbp), %rax
	movq	-80(%rbp), %rcx
	movq	-72(%rbp), %rdx
	.loc	10 39 22 is_stmt 1
	movq	%rdx, -24(%rbp)
	.loc	10 38 18
	movq	-24(%rbp), %rdx
	movq	%rdx, -40(%rbp)
	movq	%rcx, -32(%rbp)
	.loc	10 38 13 is_stmt 0
	movq	-40(%rbp), %rdx
	movq	-32(%rbp), %rcx
	movq	%rdx, 8(%rax)
	movq	%rcx, 16(%rax)
	movq	$1, (%rax)
	.loc	10 35 9 is_stmt 1
	jmp	LBB13_6
LBB13_5:
	.loc	10 0 9 is_stmt 0
	movq	-64(%rbp), %rax
	.loc	10 36 13 is_stmt 1
	movq	$0, (%rax)
LBB13_6:
	.loc	10 0 13 is_stmt 0
	movq	-56(%rbp), %rax
	.loc	10 44 6 is_stmt 1
	addq	$80, %rsp
	popq	%rbp
	retq
Ltmp55:
Lfunc_end13:
	.cfi_endproc

	.globl	__ZN10malloc_buf21MallocBuffer$LT$T$GT$3new17ha264e6bb776e7615E
	.p2align	4, 0x90
__ZN10malloc_buf21MallocBuffer$LT$T$GT$3new17ha264e6bb776e7615E:
Lfunc_begin14:
	.loc	10 34 0
	.cfi_startproc
	pushq	%rbp
	.cfi_def_cfa_offset 16
	.cfi_offset %rbp, -16
	movq	%rsp, %rbp
	.cfi_def_cfa_register %rbp
	subq	$80, %rsp
	movq	%rdx, -80(%rbp)
	movq	%rsi, -72(%rbp)
	movq	%rdi, -64(%rbp)
	movq	%rdi, -56(%rbp)
	movq	%rsi, -16(%rbp)
	movq	%rdx, -8(%rbp)
Ltmp56:
	.loc	10 35 12 prologue_end
	cmpq	$0, %rdx
	ja	LBB14_2
	movb	$0, -41(%rbp)
	jmp	LBB14_3
LBB14_2:
	.loc	10 0 12 is_stmt 0
	movq	-72(%rbp), %rdi
	.loc	10 35 23
	callq	__ZN4core3ptr7mut_ptr31_$LT$impl$u20$$BP$mut$u20$T$GT$7is_null17h895f1ebadc19f654E
	.loc	10 35 12
	andb	$1, %al
	movb	%al, -41(%rbp)
LBB14_3:
	testb	$1, -41(%rbp)
	jne	LBB14_5
	.loc	10 0 12
	movq	-64(%rbp), %rax
	movq	-80(%rbp), %rcx
	movq	-72(%rbp), %rdx
	.loc	10 39 22 is_stmt 1
	movq	%rdx, -24(%rbp)
	.loc	10 38 18
	movq	-24(%rbp), %rdx
	movq	%rdx, -40(%rbp)
	movq	%rcx, -32(%rbp)
	.loc	10 38 13 is_stmt 0
	movq	-40(%rbp), %rdx
	movq	-32(%rbp), %rcx
	movq	%rdx, 8(%rax)
	movq	%rcx, 16(%rax)
	movq	$1, (%rax)
	.loc	10 35 9 is_stmt 1
	jmp	LBB14_6
LBB14_5:
	.loc	10 0 9 is_stmt 0
	movq	-64(%rbp), %rax
	.loc	10 36 13 is_stmt 1
	movq	$0, (%rax)
LBB14_6:
	.loc	10 0 13 is_stmt 0
	movq	-56(%rbp), %rax
	.loc	10 44 6 is_stmt 1
	addq	$80, %rsp
	popq	%rbp
	retq
Ltmp57:
Lfunc_end14:
	.cfi_endproc

	.globl	__ZN111_$LT$core..iter..adapters..zip..Zip$LT$A$C$B$GT$$u20$as$u20$core..iter..adapters..zip..ZipImpl$LT$A$C$B$GT$$GT$3new17hcbe548147f5cf642E
	.p2align	4, 0x90
__ZN111_$LT$core..iter..adapters..zip..Zip$LT$A$C$B$GT$$u20$as$u20$core..iter..adapters..zip..ZipImpl$LT$A$C$B$GT$$GT$3new17hcbe548147f5cf642E:
Lfunc_begin15:
	.loc	3 262 0
	.cfi_startproc
	.cfi_personality 155, _rust_eh_personality
	.cfi_lsda 16, Lexception4
	pushq	%rbp
	.cfi_def_cfa_offset 16
	.cfi_offset %rbp, -16
	movq	%rsp, %rbp
	.cfi_def_cfa_register %rbp
	subq	$144, %rsp
	movq	%rdi, -120(%rbp)
	movq	%rdi, -112(%rbp)
	movq	%rsi, -96(%rbp)
	movq	%rdx, -88(%rbp)
	movq	%rcx, -80(%rbp)
	movq	%r8, -72(%rbp)
Ltmp58:
	leaq	-96(%rbp), %rdi
Ltmp65:
	.loc	3 263 21 prologue_end
	callq	__ZN4core4iter8adapters3zip27TrustedRandomAccessNoCoerce4size17h5f7cde24abba0bcbE
Ltmp59:
	movq	%rax, -104(%rbp)
	jmp	LBB15_3
LBB15_1:
	.loc	3 262 5
	movq	-64(%rbp), %rdi
	callq	__Unwind_Resume
LBB15_2:
Ltmp64:
	.loc	3 0 5 is_stmt 0
	movq	%rax, %rcx
	movl	%edx, %eax
	movq	%rcx, -64(%rbp)
	movl	%eax, -56(%rbp)
	jmp	LBB15_1
LBB15_3:
	movq	-104(%rbp), %rax
	.loc	3 263 21 is_stmt 1
	movq	%rax, -48(%rbp)
Ltmp66:
	.loc	3 264 28
	movq	%rax, -40(%rbp)
Ltmp60:
	leaq	-80(%rbp), %rdi
	.loc	3 264 35 is_stmt 0
	callq	__ZN4core4iter8adapters3zip27TrustedRandomAccessNoCoerce4size17h3264902f401ea6c6E
Ltmp61:
	movq	%rax, -128(%rbp)
	jmp	LBB15_4
LBB15_4:
	.loc	3 0 35
	movq	-128(%rbp), %rsi
	movq	-104(%rbp), %rdi
	.loc	3 264 35
	movq	%rsi, -32(%rbp)
Ltmp67:
	.file	11 "/rustc/2c8cc343237b8f7d5a3c3703e3a87f2eb2c54a74/library/core/src" "cmp.rs"
	.loc	11 1185 5 is_stmt 1
	movq	%rdi, -24(%rbp)
	.loc	11 1185 12 is_stmt 0
	movq	%rsi, -16(%rbp)
Ltmp62:
Ltmp68:
	.loc	11 833 13 is_stmt 1
	callq	__ZN4core3cmp6min_by17hbb079ba1ea374dd2E
Ltmp63:
	movq	%rax, -136(%rbp)
	jmp	LBB15_5
LBB15_5:
	.loc	11 0 13 is_stmt 0
	movq	-112(%rbp), %rax
	movq	-120(%rbp), %rcx
	movq	-104(%rbp), %rdx
	movq	-136(%rbp), %rsi
	.loc	11 833 13
	movq	%rsi, -8(%rbp)
Ltmp69:
	.loc	3 265 15 is_stmt 1
	movq	-96(%rbp), %r10
	movq	-88(%rbp), %r9
	.loc	3 265 18 is_stmt 0
	movq	-80(%rbp), %r8
	movq	-72(%rbp), %rdi
	.loc	3 265 9
	movq	%r10, (%rcx)
	movq	%r9, 8(%rcx)
	movq	%r8, 16(%rcx)
	movq	%rdi, 24(%rcx)
	movq	$0, 32(%rcx)
	movq	%rsi, 40(%rcx)
	movq	%rdx, 48(%rcx)
Ltmp70:
	.loc	3 266 6 is_stmt 1
	addq	$144, %rsp
	popq	%rbp
	retq
Ltmp71:
Lfunc_end15:
	.cfi_endproc
	.section	__TEXT,__gcc_except_tab
	.p2align	2
GCC_except_table15:
Lexception4:
	.byte	255
	.byte	255
	.byte	1
	.uleb128 Lcst_end4-Lcst_begin4
Lcst_begin4:
	.uleb128 Ltmp58-Lfunc_begin15
	.uleb128 Ltmp59-Ltmp58
	.uleb128 Ltmp64-Lfunc_begin15
	.byte	0
	.uleb128 Ltmp59-Lfunc_begin15
	.uleb128 Ltmp60-Ltmp59
	.byte	0
	.byte	0
	.uleb128 Ltmp60-Lfunc_begin15
	.uleb128 Ltmp63-Ltmp60
	.uleb128 Ltmp64-Lfunc_begin15
	.byte	0
Lcst_end4:
	.p2align	2

	.section	__TEXT,__text,regular,pure_instructions
	.globl	__ZN111_$LT$core..iter..adapters..zip..Zip$LT$A$C$B$GT$$u20$as$u20$core..iter..adapters..zip..ZipImpl$LT$A$C$B$GT$$GT$4next17h7a08b499c3a8aefaE
	.p2align	4, 0x90
__ZN111_$LT$core..iter..adapters..zip..Zip$LT$A$C$B$GT$$u20$as$u20$core..iter..adapters..zip..ZipImpl$LT$A$C$B$GT$$GT$4next17h7a08b499c3a8aefaE:
Lfunc_begin16:
	.loc	3 269 0
	.cfi_startproc
	.cfi_personality 155, _rust_eh_personality
	.cfi_lsda 16, Lexception5
	pushq	%rbp
	.cfi_def_cfa_offset 16
	.cfi_offset %rbp, -16
	movq	%rsp, %rbp
	.cfi_def_cfa_register %rbp
	subq	$112, %rsp
	movq	%rdi, -88(%rbp)
	movq	%rdi, -40(%rbp)
Ltmp75:
	.loc	3 270 12 prologue_end
	movq	32(%rdi), %rax
	cmpq	40(%rdi), %rax
	jb	LBB16_2
	.loc	3 279 19
	xorl	%eax, %eax
	testb	$1, %al
	jne	LBB16_8
	jmp	LBB16_7
LBB16_2:
	.loc	3 0 19 is_stmt 0
	movq	-88(%rbp), %rdi
	.loc	3 271 21 is_stmt 1
	movq	32(%rdi), %rsi
	movq	%rsi, -112(%rbp)
	movq	%rsi, -32(%rbp)
Ltmp76:
	.loc	3 274 13
	movq	32(%rdi), %rax
	incq	%rax
	movq	%rax, 32(%rdi)
	.loc	3 277 23
	callq	__ZN94_$LT$core..slice..iter..IterMut$LT$T$GT$$u20$as$u20$core..iter..traits..iterator..Iterator$GT$24__iterator_get_unchecked17h39663e09af502367E
	movq	-88(%rbp), %rdi
	movq	-112(%rbp), %rsi
	movq	%rax, -104(%rbp)
	.loc	3 277 59 is_stmt 0
	addq	$16, %rdi
Ltmp72:
	callq	__ZN81_$LT$core..str..iter..Bytes$u20$as$u20$core..iter..traits..iterator..Iterator$GT$24__iterator_get_unchecked17h9bd926c39db08deaE
Ltmp73:
	movb	%al, -89(%rbp)
	jmp	LBB16_5
Ltmp77:
LBB16_3:
	.loc	3 269 5 is_stmt 1
	movq	-24(%rbp), %rdi
	callq	__Unwind_Resume
LBB16_4:
Ltmp74:
	.loc	3 0 5 is_stmt 0
	movq	%rax, %rcx
	movl	%edx, %eax
	movq	%rcx, -24(%rbp)
	movl	%eax, -16(%rbp)
	jmp	LBB16_3
LBB16_5:
	movb	-89(%rbp), %al
	movq	-104(%rbp), %rcx
Ltmp78:
	.loc	3 277 22 is_stmt 1
	movq	%rcx, -64(%rbp)
	movb	%al, -56(%rbp)
	.loc	3 277 17 is_stmt 0
	movq	-64(%rbp), %rcx
	movb	-56(%rbp), %al
	movq	%rcx, -80(%rbp)
	movb	%al, -72(%rbp)
Ltmp79:
LBB16_6:
	.loc	3 293 6 is_stmt 1
	movq	-80(%rbp), %rax
	movb	-72(%rbp), %dl
	addq	$112, %rsp
	popq	%rbp
	retq
LBB16_7:
	.loc	3 279 19
	movb	$0, -41(%rbp)
	jmp	LBB16_9
LBB16_8:
	.loc	3 0 19 is_stmt 0
	movq	-88(%rbp), %rcx
	.loc	3 279 46
	movq	32(%rcx), %rax
	cmpq	48(%rcx), %rax
	setb	%al
	.loc	3 279 19
	andb	$1, %al
	movb	%al, -41(%rbp)
LBB16_9:
	testb	$1, -41(%rbp)
	jne	LBB16_11
	.loc	3 291 13 is_stmt 1
	movq	$0, -80(%rbp)
	.loc	3 279 16
	jmp	LBB16_12
LBB16_11:
	.loc	3 0 16 is_stmt 0
	movq	-88(%rbp), %rdi
	.loc	3 280 21 is_stmt 1
	movq	32(%rdi), %rsi
	movq	%rsi, -8(%rbp)
Ltmp80:
	.loc	3 282 13
	movq	32(%rdi), %rax
	addq	$1, %rax
	movq	%rax, 32(%rdi)
	.loc	3 283 13
	movq	40(%rdi), %rax
	addq	$1, %rax
	movq	%rax, 40(%rdi)
	.loc	3 287 17
	callq	__ZN94_$LT$core..slice..iter..IterMut$LT$T$GT$$u20$as$u20$core..iter..traits..iterator..Iterator$GT$24__iterator_get_unchecked17h39663e09af502367E
	.loc	3 289 13
	movq	$0, -80(%rbp)
Ltmp81:
LBB16_12:
	.loc	3 270 9
	jmp	LBB16_6
Ltmp82:
Lfunc_end16:
	.cfi_endproc
	.section	__TEXT,__gcc_except_tab
	.p2align	2
GCC_except_table16:
Lexception5:
	.byte	255
	.byte	255
	.byte	1
	.uleb128 Lcst_end5-Lcst_begin5
Lcst_begin5:
	.uleb128 Lfunc_begin16-Lfunc_begin16
	.uleb128 Ltmp72-Lfunc_begin16
	.byte	0
	.byte	0
	.uleb128 Ltmp72-Lfunc_begin16
	.uleb128 Ltmp73-Ltmp72
	.uleb128 Ltmp74-Lfunc_begin16
	.byte	0
	.uleb128 Ltmp73-Lfunc_begin16
	.uleb128 Lfunc_end16-Ltmp73
	.byte	0
	.byte	0
Lcst_end5:
	.p2align	2

	.section	__TEXT,__text,regular,pure_instructions
	.globl	__ZN119_$LT$core..ptr..non_null..NonNull$LT$T$GT$$u20$as$u20$core..convert..From$LT$core..ptr..unique..Unique$LT$T$GT$$GT$$GT$4from17hef825c86c6cc6f8dE
	.p2align	4, 0x90
__ZN119_$LT$core..ptr..non_null..NonNull$LT$T$GT$$u20$as$u20$core..convert..From$LT$core..ptr..unique..Unique$LT$T$GT$$GT$$GT$4from17hef825c86c6cc6f8dE:
Lfunc_begin17:
	.file	12 "/rustc/2c8cc343237b8f7d5a3c3703e3a87f2eb2c54a74/library/core/src/ptr" "non_null.rs"
	.loc	12 765 0
	.cfi_startproc
	pushq	%rbp
	.cfi_def_cfa_offset 16
	.cfi_offset %rbp, -16
	movq	%rsp, %rbp
	.cfi_def_cfa_register %rbp
	subq	$40, %rsp
	movq	%rdi, -32(%rbp)
Ltmp83:
	.loc	12 768 41 prologue_end
	movq	%rdi, -24(%rbp)
Ltmp84:
	.file	13 "/rustc/2c8cc343237b8f7d5a3c3703e3a87f2eb2c54a74/library/core/src/ptr" "unique.rs"
	.loc	13 104 9
	movq	%rdi, -16(%rbp)
Ltmp85:
	.loc	12 326 9
	movq	%rdi, -8(%rbp)
Ltmp86:
	.loc	12 201 13
	movq	%rdi, -40(%rbp)
Ltmp87:
	.loc	12 769 6
	movq	-40(%rbp), %rax
	addq	$40, %rsp
	popq	%rbp
	retq
Ltmp88:
Lfunc_end17:
	.cfi_endproc

	.p2align	4, 0x90
__ZN122_$LT$alloc..collections..TryReserveError$u20$as$u20$core..convert..From$LT$alloc..collections..TryReserveErrorKind$GT$$GT$4from17h2d6cdb088090bff6E:
Lfunc_begin18:
	.file	14 "/rustc/2c8cc343237b8f7d5a3c3703e3a87f2eb2c54a74/library/alloc/src/collections" "mod.rs"
	.loc	14 116 0
	.cfi_startproc
	pushq	%rbp
	.cfi_def_cfa_offset 16
	.cfi_offset %rbp, -16
	movq	%rsp, %rbp
	.cfi_def_cfa_register %rbp
	subq	$32, %rsp
	movq	%rdi, -16(%rbp)
	movq	%rsi, -8(%rbp)
Ltmp89:
	.loc	14 117 9 prologue_end
	movq	%rdi, -32(%rbp)
	movq	%rsi, -24(%rbp)
	.loc	14 118 6
	movq	-32(%rbp), %rax
	movq	-24(%rbp), %rdx
	addq	$32, %rsp
	popq	%rbp
	retq
Ltmp90:
Lfunc_end18:
	.cfi_endproc

	.globl	__ZN132_$LT$alloc..vec..Vec$LT$T$C$A$GT$$u20$as$u20$alloc..vec..spec_extend..SpecExtend$LT$$RF$T$C$core..slice..iter..Iter$LT$T$GT$$GT$$GT$11spec_extend17he6deb41c1be6578fE
	.p2align	4, 0x90
__ZN132_$LT$alloc..vec..Vec$LT$T$C$A$GT$$u20$as$u20$alloc..vec..spec_extend..SpecExtend$LT$$RF$T$C$core..slice..iter..Iter$LT$T$GT$$GT$$GT$11spec_extend17he6deb41c1be6578fE:
Lfunc_begin19:
	.file	15 "/rustc/2c8cc343237b8f7d5a3c3703e3a87f2eb2c54a74/library/alloc/src/vec" "spec_extend.rs"
	.loc	15 53 0
	.cfi_startproc
	pushq	%rbp
	.cfi_def_cfa_offset 16
	.cfi_offset %rbp, -16
	movq	%rsp, %rbp
	.cfi_def_cfa_register %rbp
	subq	$48, %rsp
	movq	%rdi, -48(%rbp)
	movq	%rsi, -40(%rbp)
	movq	%rdx, -32(%rbp)
	movq	%rdi, -24(%rbp)
Ltmp91:
	.loc	15 54 21 prologue_end
	leaq	-40(%rbp), %rdi
	callq	__ZN4core5slice4iter13Iter$LT$T$GT$8as_slice17h733235cfe5598a5bE
	movq	-48(%rbp), %rdi
	movq	%rax, %rsi
	movq	%rsi, -16(%rbp)
	movq	%rdx, -8(%rbp)
Ltmp92:
	.loc	15 55 18
	callq	__ZN5alloc3vec16Vec$LT$T$C$A$GT$15append_elements17h6d281f96402f7453E
Ltmp93:
	.loc	15 56 6
	addq	$48, %rsp
	popq	%rbp
	retq
Ltmp94:
Lfunc_end19:
	.cfi_endproc

	.globl	__ZN42_$LT$$RF$T$u20$as$u20$core..fmt..Debug$GT$3fmt17h263e0ad94f17436cE
	.p2align	4, 0x90
__ZN42_$LT$$RF$T$u20$as$u20$core..fmt..Debug$GT$3fmt17h263e0ad94f17436cE:
Lfunc_begin20:
	.file	16 "/rustc/2c8cc343237b8f7d5a3c3703e3a87f2eb2c54a74/library/core/src/fmt" "mod.rs"
	.loc	16 2377 0
	.cfi_startproc
	pushq	%rbp
	.cfi_def_cfa_offset 16
	.cfi_offset %rbp, -16
	movq	%rsp, %rbp
	.cfi_def_cfa_register %rbp
	subq	$16, %rsp
	movq	%rdi, -16(%rbp)
	movq	%rsi, -8(%rbp)
Ltmp95:
	.loc	16 2377 71 prologue_end
	movq	(%rdi), %rdi
	.loc	16 2377 62 is_stmt 0
	callq	__ZN57_$LT$objc..runtime..Class$u20$as$u20$core..fmt..Debug$GT$3fmt17h7ccd7cc90ca577bfE
	.loc	16 2377 84
	andb	$1, %al
	movzbl	%al, %eax
	addq	$16, %rsp
	popq	%rbp
	retq
Ltmp96:
Lfunc_end20:
	.cfi_endproc

	.globl	__ZN42_$LT$$RF$T$u20$as$u20$core..fmt..Debug$GT$3fmt17h8aa3a606c27065dcE
	.p2align	4, 0x90
__ZN42_$LT$$RF$T$u20$as$u20$core..fmt..Debug$GT$3fmt17h8aa3a606c27065dcE:
Lfunc_begin21:
	.loc	16 2377 0 is_stmt 1
	.cfi_startproc
	pushq	%rbp
	.cfi_def_cfa_offset 16
	.cfi_offset %rbp, -16
	movq	%rsp, %rbp
	.cfi_def_cfa_register %rbp
	subq	$16, %rsp
	movq	%rdi, -16(%rbp)
	movq	%rsi, -8(%rbp)
Ltmp97:
	.loc	16 2377 71 prologue_end
	movq	(%rdi), %rdi
	.loc	16 2377 62 is_stmt 0
	callq	__ZN58_$LT$alloc..string..String$u20$as$u20$core..fmt..Debug$GT$3fmt17hbd9fd89a9eeeab13E
	.loc	16 2377 84
	andb	$1, %al
	movzbl	%al, %eax
	addq	$16, %rsp
	popq	%rbp
	retq
Ltmp98:
Lfunc_end21:
	.cfi_endproc

	.globl	__ZN42_$LT$$RF$T$u20$as$u20$core..fmt..Debug$GT$3fmt17hf8d10d72498cf0fdE
	.p2align	4, 0x90
__ZN42_$LT$$RF$T$u20$as$u20$core..fmt..Debug$GT$3fmt17hf8d10d72498cf0fdE:
Lfunc_begin22:
	.loc	16 2377 0 is_stmt 1
	.cfi_startproc
	pushq	%rbp
	.cfi_def_cfa_offset 16
	.cfi_offset %rbp, -16
	movq	%rsp, %rbp
	.cfi_def_cfa_register %rbp
	subq	$16, %rsp
	movq	%rdi, -16(%rbp)
	movq	%rsi, -8(%rbp)
Ltmp99:
	.loc	16 2377 71 prologue_end
	movq	(%rdi), %rdi
	.loc	16 2377 62 is_stmt 0
	callq	__ZN60_$LT$objc..runtime..Protocol$u20$as$u20$core..fmt..Debug$GT$3fmt17h89054ab63399373cE
	.loc	16 2377 84
	andb	$1, %al
	movzbl	%al, %eax
	addq	$16, %rsp
	popq	%rbp
	retq
Ltmp100:
Lfunc_end22:
	.cfi_endproc

	.globl	__ZN44_$LT$$RF$T$u20$as$u20$core..fmt..Display$GT$3fmt17ha6145efffd5687eeE
	.p2align	4, 0x90
__ZN44_$LT$$RF$T$u20$as$u20$core..fmt..Display$GT$3fmt17ha6145efffd5687eeE:
Lfunc_begin23:
	.loc	16 2377 0 is_stmt 1
	.cfi_startproc
	pushq	%rbp
	.cfi_def_cfa_offset 16
	.cfi_offset %rbp, -16
	movq	%rsp, %rbp
	.cfi_def_cfa_register %rbp
	subq	$16, %rsp
	movq	%rsi, %rdx
	movq	%rdi, %rax
	movq	%rax, -16(%rbp)
	movq	%rdx, -8(%rbp)
Ltmp101:
	.loc	16 2377 71 prologue_end
	movq	(%rax), %rdi
	movq	8(%rax), %rsi
	.loc	16 2377 62 is_stmt 0
	callq	__ZN42_$LT$str$u20$as$u20$core..fmt..Display$GT$3fmt17hd1cabce055ea2fbdE
	.loc	16 2377 84
	andb	$1, %al
	movzbl	%al, %eax
	addq	$16, %rsp
	popq	%rbp
	retq
Ltmp102:
Lfunc_end23:
	.cfi_endproc

	.globl	__ZN44_$LT$$RF$T$u20$as$u20$core..fmt..Pointer$GT$3fmt17hae143beda267e46cE
	.p2align	4, 0x90
__ZN44_$LT$$RF$T$u20$as$u20$core..fmt..Pointer$GT$3fmt17hae143beda267e46cE:
Lfunc_begin24:
	.loc	16 2525 0 is_stmt 1
	.cfi_startproc
	pushq	%rbp
	.cfi_def_cfa_offset 16
	.cfi_offset %rbp, -16
	movq	%rsp, %rbp
	.cfi_def_cfa_register %rbp
	subq	$32, %rsp
	movq	%rdi, -16(%rbp)
	movq	%rsi, -8(%rbp)
Ltmp103:
	.loc	16 2526 24 prologue_end
	movq	(%rdi), %rax
	movq	%rax, -24(%rbp)
	.loc	16 2526 9 is_stmt 0
	leaq	-24(%rbp), %rdi
	callq	__ZN54_$LT$$BP$const$u20$T$u20$as$u20$core..fmt..Pointer$GT$3fmt17h0a4d2ff1c5163e12E
	.loc	16 2527 6 is_stmt 1
	andb	$1, %al
	movzbl	%al, %eax
	addq	$32, %rsp
	popq	%rbp
	retq
Ltmp104:
Lfunc_end24:
	.cfi_endproc

	.p2align	4, 0x90
__ZN4core3cmp5impls50_$LT$impl$u20$core..cmp..Ord$u20$for$u20$usize$GT$3cmp17hc6728de7ecb0db22E:
Lfunc_begin25:
	.loc	11 1454 0
	.cfi_startproc
	pushq	%rbp
	.cfi_def_cfa_offset 16
	.cfi_offset %rbp, -16
	movq	%rsp, %rbp
	.cfi_def_cfa_register %rbp
	subq	$40, %rsp
	movq	%rdi, -40(%rbp)
	movq	%rsi, -32(%rbp)
	movq	%rdi, -16(%rbp)
	movq	%rsi, -8(%rbp)
Ltmp105:
	.loc	11 1457 24 prologue_end
	movq	(%rdi), %rax
	cmpq	(%rsi), %rax
	jb	LBB25_2
	.loc	11 0 24 is_stmt 0
	movq	-32(%rbp), %rcx
	movq	-40(%rbp), %rax
	.loc	11 1458 29 is_stmt 1
	movq	(%rax), %rax
	cmpq	(%rcx), %rax
	je	LBB25_5
	jmp	LBB25_4
LBB25_2:
	.loc	11 1457 41
	movb	$-1, -17(%rbp)
LBB25_3:
	.loc	11 1460 18
	movb	-17(%rbp), %al
	addq	$40, %rsp
	popq	%rbp
	retq
LBB25_4:
	.loc	11 1459 28
	movb	$1, -17(%rbp)
	.loc	11 1458 26
	jmp	LBB25_6
LBB25_5:
	.loc	11 1458 47 is_stmt 0
	movb	$0, -17(%rbp)
LBB25_6:
	.loc	11 1457 21 is_stmt 1
	jmp	LBB25_3
Ltmp106:
Lfunc_end25:
	.cfi_endproc

	.globl	__ZN4core3cmp5impls69_$LT$impl$u20$core..cmp..PartialEq$LT$$RF$B$GT$$u20$for$u20$$RF$A$GT$2eq17hfb014b4adf4d92faE
	.p2align	4, 0x90
__ZN4core3cmp5impls69_$LT$impl$u20$core..cmp..PartialEq$LT$$RF$B$GT$$u20$for$u20$$RF$A$GT$2eq17hfb014b4adf4d92faE:
Lfunc_begin26:
	.loc	11 1530 0
	.cfi_startproc
	pushq	%rbp
	.cfi_def_cfa_offset 16
	.cfi_offset %rbp, -16
	movq	%rsp, %rbp
	.cfi_def_cfa_register %rbp
	subq	$16, %rsp
	movq	%rsi, %rax
	movq	%rdi, %rcx
	movq	%rcx, -16(%rbp)
	movq	%rax, -8(%rbp)
Ltmp107:
	.loc	11 1531 27 prologue_end
	movq	(%rcx), %rdi
	movq	8(%rcx), %rsi
	.loc	11 1531 34 is_stmt 0
	movq	(%rax), %rdx
	movq	8(%rax), %rcx
	.loc	11 1531 13
	callq	__ZN4core3str6traits54_$LT$impl$u20$core..cmp..PartialEq$u20$for$u20$str$GT$2eq17h6c37971531516a51E
	.loc	11 1532 10 is_stmt 1
	andb	$1, %al
	movzbl	%al, %eax
	addq	$16, %rsp
	popq	%rbp
	retq
Ltmp108:
Lfunc_end26:
	.cfi_endproc

	.globl	__ZN4core3cmp6max_by17h25d3f804ab117346E
	.p2align	4, 0x90
__ZN4core3cmp6max_by17h25d3f804ab117346E:
Lfunc_begin27:
	.loc	11 1295 0
	.cfi_startproc
	.cfi_personality 155, _rust_eh_personality
	.cfi_lsda 16, Lexception6
	pushq	%rbp
	.cfi_def_cfa_offset 16
	.cfi_offset %rbp, -16
	movq	%rsp, %rbp
	.cfi_def_cfa_register %rbp
	subq	$96, %rsp
	movq	%rdi, -80(%rbp)
	movq	%rsi, -72(%rbp)
Ltmp112:
	.loc	11 1300 11 prologue_end
	movb	$1, -25(%rbp)
	movb	$1, -26(%rbp)
	leaq	-80(%rbp), %rax
	movq	%rax, -48(%rbp)
	leaq	-72(%rbp), %rax
	movq	%rax, -40(%rbp)
	movq	-48(%rbp), %rdi
	movq	-40(%rbp), %rsi
Ltmp109:
	callq	__ZN4core3ops8function6FnOnce9call_once17h09840e0ccc7443feE
Ltmp110:
	movb	%al, -81(%rbp)
	jmp	LBB27_3
LBB27_1:
	.loc	11 1304 1
	jmp	LBB27_4
LBB27_2:
Ltmp111:
	.loc	11 0 1 is_stmt 0
	movq	%rax, %rcx
	movl	%edx, %eax
	movq	%rcx, -16(%rbp)
	movl	%eax, -8(%rbp)
	jmp	LBB27_1
LBB27_3:
	movb	-81(%rbp), %al
	.loc	11 1300 11 is_stmt 1
	movb	%al, -49(%rbp)
	movb	-49(%rbp), %al
	.loc	11 1300 5 is_stmt 0
	incb	%al
	subb	$2, %al
	jb	LBB27_6
	jmp	LBB27_15
LBB27_15:
	jmp	LBB27_7
LBB27_4:
	.loc	11 1304 1 is_stmt 1
	testb	$1, -25(%rbp)
	jne	LBB27_12
	jmp	LBB27_11
	.loc	11 1300 11
	ud2
LBB27_6:
	.loc	11 1301 45
	movb	$0, -26(%rbp)
	movq	-72(%rbp), %rax
	movq	%rax, -64(%rbp)
	jmp	LBB27_8
LBB27_7:
	.loc	11 1302 30
	movb	$0, -25(%rbp)
	movq	-80(%rbp), %rax
	movq	%rax, -64(%rbp)
LBB27_8:
	.loc	11 1304 1
	testb	$1, -26(%rbp)
	jne	LBB27_10
LBB27_9:
	testb	$1, -25(%rbp)
	jne	LBB27_14
	jmp	LBB27_13
LBB27_10:
	jmp	LBB27_9
LBB27_11:
	.loc	11 1295 1
	movq	-16(%rbp), %rdi
	callq	__Unwind_Resume
LBB27_12:
	.loc	11 1304 1
	jmp	LBB27_11
LBB27_13:
	.loc	11 1304 2 is_stmt 0
	movq	-64(%rbp), %rax
	addq	$96, %rsp
	popq	%rbp
	retq
LBB27_14:
	.loc	11 1304 1
	jmp	LBB27_13
Ltmp113:
Lfunc_end27:
	.cfi_endproc
	.section	__TEXT,__gcc_except_tab
	.p2align	2
GCC_except_table27:
Lexception6:
	.byte	255
	.byte	255
	.byte	1
	.uleb128 Lcst_end6-Lcst_begin6
Lcst_begin6:
	.uleb128 Ltmp109-Lfunc_begin27
	.uleb128 Ltmp110-Ltmp109
	.uleb128 Ltmp111-Lfunc_begin27
	.byte	0
	.uleb128 Ltmp110-Lfunc_begin27
	.uleb128 Lfunc_end27-Ltmp110
	.byte	0
	.byte	0
Lcst_end6:
	.p2align	2

	.section	__TEXT,__text,regular,pure_instructions
	.globl	__ZN4core3cmp6min_by17hbb079ba1ea374dd2E
	.p2align	4, 0x90
__ZN4core3cmp6min_by17hbb079ba1ea374dd2E:
Lfunc_begin28:
	.loc	11 1204 0 is_stmt 1
	.cfi_startproc
	.cfi_personality 155, _rust_eh_personality
	.cfi_lsda 16, Lexception7
	pushq	%rbp
	.cfi_def_cfa_offset 16
	.cfi_offset %rbp, -16
	movq	%rsp, %rbp
	.cfi_def_cfa_register %rbp
	subq	$96, %rsp
	movq	%rdi, -80(%rbp)
	movq	%rsi, -72(%rbp)
Ltmp117:
	.loc	11 1209 11 prologue_end
	movb	$1, -25(%rbp)
	movb	$1, -26(%rbp)
	leaq	-80(%rbp), %rax
	movq	%rax, -48(%rbp)
	leaq	-72(%rbp), %rax
	movq	%rax, -40(%rbp)
	movq	-48(%rbp), %rdi
	movq	-40(%rbp), %rsi
Ltmp114:
	callq	__ZN4core3ops8function6FnOnce9call_once17h09840e0ccc7443feE
Ltmp115:
	movb	%al, -81(%rbp)
	jmp	LBB28_3
LBB28_1:
	.loc	11 1213 1
	jmp	LBB28_4
LBB28_2:
Ltmp116:
	.loc	11 0 1 is_stmt 0
	movq	%rax, %rcx
	movl	%edx, %eax
	movq	%rcx, -16(%rbp)
	movl	%eax, -8(%rbp)
	jmp	LBB28_1
LBB28_3:
	movb	-81(%rbp), %al
	.loc	11 1209 11 is_stmt 1
	movb	%al, -49(%rbp)
	movb	-49(%rbp), %al
	.loc	11 1209 5 is_stmt 0
	incb	%al
	subb	$2, %al
	jb	LBB28_6
	jmp	LBB28_15
LBB28_15:
	jmp	LBB28_7
LBB28_4:
	.loc	11 1213 1 is_stmt 1
	testb	$1, -25(%rbp)
	jne	LBB28_12
	jmp	LBB28_11
	.loc	11 1209 11
	ud2
LBB28_6:
	.loc	11 1210 45
	movb	$0, -25(%rbp)
	movq	-80(%rbp), %rax
	movq	%rax, -64(%rbp)
	jmp	LBB28_8
LBB28_7:
	.loc	11 1211 30
	movb	$0, -26(%rbp)
	movq	-72(%rbp), %rax
	movq	%rax, -64(%rbp)
LBB28_8:
	.loc	11 1213 1
	testb	$1, -26(%rbp)
	jne	LBB28_10
LBB28_9:
	testb	$1, -25(%rbp)
	jne	LBB28_14
	jmp	LBB28_13
LBB28_10:
	jmp	LBB28_9
LBB28_11:
	.loc	11 1204 1
	movq	-16(%rbp), %rdi
	callq	__Unwind_Resume
LBB28_12:
	.loc	11 1213 1
	jmp	LBB28_11
LBB28_13:
	.loc	11 1213 2 is_stmt 0
	movq	-64(%rbp), %rax
	addq	$96, %rsp
	popq	%rbp
	retq
LBB28_14:
	.loc	11 1213 1
	jmp	LBB28_13
Ltmp118:
Lfunc_end28:
	.cfi_endproc
	.section	__TEXT,__gcc_except_tab
	.p2align	2
GCC_except_table28:
Lexception7:
	.byte	255
	.byte	255
	.byte	1
	.uleb128 Lcst_end7-Lcst_begin7
Lcst_begin7:
	.uleb128 Ltmp114-Lfunc_begin28
	.uleb128 Ltmp115-Ltmp114
	.uleb128 Ltmp116-Lfunc_begin28
	.byte	0
	.uleb128 Ltmp115-Lfunc_begin28
	.uleb128 Lfunc_end28-Ltmp115
	.byte	0
	.byte	0
Lcst_end7:
	.p2align	2

	.section	__TEXT,__text,regular,pure_instructions
	.p2align	4, 0x90
__ZN4core3ffi5c_str4CStr17to_bytes_with_nul17hf43aca90ae5e0130E:
Lfunc_begin29:
	.file	17 "/rustc/2c8cc343237b8f7d5a3c3703e3a87f2eb2c54a74/library/core/src/ffi" "c_str.rs"
	.loc	17 584 0 is_stmt 1
	.cfi_startproc
	pushq	%rbp
	.cfi_def_cfa_offset 16
	.cfi_offset %rbp, -16
	movq	%rsp, %rbp
	.cfi_def_cfa_register %rbp
	subq	$16, %rsp
	movq	%rsi, %rdx
	movq	%rdi, %rax
	movq	%rax, -16(%rbp)
	movq	%rdx, -8(%rbp)
Ltmp119:
	.loc	17 588 6 prologue_end
	addq	$16, %rsp
	popq	%rbp
	retq
Ltmp120:
Lfunc_end29:
	.cfi_endproc

	.p2align	4, 0x90
__ZN4core3ffi5c_str4CStr6as_ptr17h896bafdbedc16042E:
Lfunc_begin30:
	.loc	17 502 0
	.cfi_startproc
	pushq	%rbp
	.cfi_def_cfa_offset 16
	.cfi_offset %rbp, -16
	movq	%rsp, %rbp
	.cfi_def_cfa_register %rbp
	subq	$32, %rsp
	movq	%rdi, %rax
	movq	%rax, -32(%rbp)
	movq	%rsi, -24(%rbp)
Ltmp121:
	.loc	17 503 9 prologue_end
	movq	%rax, -16(%rbp)
	movq	%rsi, -8(%rbp)
	.loc	17 504 6
	addq	$32, %rsp
	popq	%rbp
	retq
Ltmp122:
Lfunc_end30:
	.cfi_endproc

	.p2align	4, 0x90
__ZN4core3ffi5c_str4CStr8from_ptr17h52bf98b7b8508666E:
Lfunc_begin31:
	.loc	17 256 0
	.cfi_startproc
	pushq	%rbp
	.cfi_def_cfa_offset 16
	.cfi_offset %rbp, -16
	movq	%rsp, %rbp
	.cfi_def_cfa_register %rbp
	subq	$176, %rsp
	movq	%rdi, -176(%rbp)
	movq	%rdi, -112(%rbp)
Ltmp123:
	.loc	17 289 53 prologue_end
	movq	%rdi, -168(%rbp)
	.loc	17 289 23 is_stmt 0
	movq	-168(%rbp), %rdi
	callq	__ZN4core3ffi5c_str4CStr8from_ptr9strlen_rt17h166552da2f23bf2dE
	movq	-176(%rbp), %rdi
	movq	%rax, -104(%rbp)
Ltmp124:
	.loc	17 290 71 is_stmt 1
	movq	%rdi, -96(%rbp)
Ltmp125:
	.loc	6 61 9
	movq	%rdi, -88(%rbp)
Ltmp126:
	.loc	17 290 83
	incq	%rax
	movq	%rax, -80(%rbp)
Ltmp127:
	.file	18 "/rustc/2c8cc343237b8f7d5a3c3703e3a87f2eb2c54a74/library/core/src/slice" "raw.rs"
	.loc	18 100 37
	movq	%rdi, -72(%rbp)
	.loc	18 100 43 is_stmt 0
	movq	%rax, -64(%rbp)
Ltmp128:
	.loc	7 734 20 is_stmt 1
	movq	%rdi, -56(%rbp)
Ltmp129:
	.loc	6 61 9
	movq	%rdi, -48(%rbp)
Ltmp130:
	.loc	7 734 33
	movq	%rax, -40(%rbp)
Ltmp131:
	.loc	8 118 36
	movq	%rdi, -144(%rbp)
	movq	%rax, -136(%rbp)
	.loc	8 118 14 is_stmt 0
	movq	-144(%rbp), %rcx
	movq	-136(%rbp), %rax
	movq	%rcx, -160(%rbp)
	movq	%rax, -152(%rbp)
	movq	-160(%rbp), %rcx
	movq	-152(%rbp), %rax
Ltmp132:
	.loc	17 290 49 is_stmt 1
	movq	%rcx, -32(%rbp)
	movq	%rax, -24(%rbp)
Ltmp133:
	.loc	17 449 48
	movq	%rcx, -128(%rbp)
	movq	%rax, -120(%rbp)
	.loc	17 449 18 is_stmt 0
	movq	-128(%rbp), %rax
	movq	-120(%rbp), %rdx
	movq	%rax, -16(%rbp)
	movq	%rdx, -8(%rbp)
Ltmp134:
	.loc	17 292 6 is_stmt 1
	addq	$176, %rsp
	popq	%rbp
	retq
Ltmp135:
Lfunc_end31:
	.cfi_endproc

	.p2align	4, 0x90
__ZN4core3ffi5c_str4CStr8to_bytes17hdea54009865e68beE:
Lfunc_begin32:
	.loc	17 556 0
	.cfi_startproc
	pushq	%rbp
	.cfi_def_cfa_offset 16
	.cfi_offset %rbp, -16
	movq	%rsp, %rbp
	.cfi_def_cfa_register %rbp
	subq	$112, %rsp
	movq	%rsi, %rcx
	movq	%rdi, %rdx
	movq	%rdx, -88(%rbp)
	movq	%rcx, -80(%rbp)
Ltmp136:
	.loc	17 557 21 prologue_end
	movq	%rdx, -72(%rbp)
	movq	%rcx, -64(%rbp)
Ltmp137:
	.loc	17 587 18
	movq	%rdx, -56(%rbp)
	movq	%rcx, -48(%rbp)
Ltmp138:
	.loc	17 559 18
	movq	%rdx, -40(%rbp)
	movq	%rcx, -32(%rbp)
	.loc	17 559 40 is_stmt 0
	movq	%rcx, %rsi
	decq	%rsi
	.loc	17 559 38
	movq	%rsi, -112(%rbp)
Ltmp139:
	.file	19 "/rustc/2c8cc343237b8f7d5a3c3703e3a87f2eb2c54a74/library/core/src/slice" "mod.rs"
	.loc	19 405 20 is_stmt 1
	movq	-112(%rbp), %rax
	movq	%rax, -24(%rbp)
	.loc	19 405 40 is_stmt 0
	movq	%rdx, -16(%rbp)
	movq	%rcx, -8(%rbp)
Ltmp140:
	.loc	5 445 18 is_stmt 1
	movq	$0, -104(%rbp)
	movq	%rax, -96(%rbp)
	movq	-104(%rbp), %rdi
	movq	-96(%rbp), %rsi
	callq	__ZN106_$LT$core..ops..range..Range$LT$usize$GT$$u20$as$u20$core..slice..index..SliceIndex$LT$$u5b$T$u5d$$GT$$GT$13get_unchecked17h756d4a6e8ba57a05E
Ltmp141:
	.loc	17 560 6
	addq	$112, %rsp
	popq	%rbp
	retq
Ltmp142:
Lfunc_end32:
	.cfi_endproc

	.globl	__ZN4core3fmt10ArgumentV111new_display17h4553d5da4ff6c971E
	.p2align	4, 0x90
__ZN4core3fmt10ArgumentV111new_display17h4553d5da4ff6c971E:
Lfunc_begin33:
	.loc	16 327 0
	.cfi_startproc
	pushq	%rbp
	.cfi_def_cfa_offset 16
	.cfi_offset %rbp, -16
	movq	%rsp, %rbp
	.cfi_def_cfa_register %rbp
	subq	$56, %rsp
	movq	%rdi, -40(%rbp)
Ltmp143:
	.loc	16 328 23 prologue_end
	movq	%rdi, -32(%rbp)
	.loc	16 328 26 is_stmt 0
	movq	__ZN4core3fmt3num3imp54_$LT$impl$u20$core..fmt..Display$u20$for$u20$usize$GT$3fmt17ha5c925fcd7ed33faE@GOTPCREL(%rip), %rax
	movq	%rax, -24(%rbp)
Ltmp144:
	.loc	16 347 42 is_stmt 1
	movq	%rax, -16(%rbp)
	movq	-16(%rbp), %rax
	.loc	16 347 68 is_stmt 0
	movq	%rdi, -8(%rbp)
	movq	-8(%rbp), %rcx
	.loc	16 347 18
	movq	%rcx, -56(%rbp)
	movq	%rax, -48(%rbp)
Ltmp145:
	.loc	16 329 10 is_stmt 1
	movq	-56(%rbp), %rax
	movq	-48(%rbp), %rdx
	addq	$56, %rsp
	popq	%rbp
	retq
Ltmp146:
Lfunc_end33:
	.cfi_endproc

	.globl	__ZN4core3fmt10ArgumentV111new_display17h7a7c47ec0aa2736bE
	.p2align	4, 0x90
__ZN4core3fmt10ArgumentV111new_display17h7a7c47ec0aa2736bE:
Lfunc_begin34:
	.loc	16 327 0
	.cfi_startproc
	pushq	%rbp
	.cfi_def_cfa_offset 16
	.cfi_offset %rbp, -16
	movq	%rsp, %rbp
	.cfi_def_cfa_register %rbp
	subq	$56, %rsp
	movq	%rdi, -40(%rbp)
Ltmp147:
	.loc	16 328 23 prologue_end
	movq	%rdi, -32(%rbp)
	.loc	16 328 26 is_stmt 0
	leaq	__ZN44_$LT$$RF$T$u20$as$u20$core..fmt..Display$GT$3fmt17ha6145efffd5687eeE(%rip), %rax
	movq	%rax, -24(%rbp)
Ltmp148:
	.loc	16 347 42 is_stmt 1
	movq	%rax, -16(%rbp)
	movq	-16(%rbp), %rax
	.loc	16 347 68 is_stmt 0
	movq	%rdi, -8(%rbp)
	movq	-8(%rbp), %rcx
	.loc	16 347 18
	movq	%rcx, -56(%rbp)
	movq	%rax, -48(%rbp)
Ltmp149:
	.loc	16 329 10 is_stmt 1
	movq	-56(%rbp), %rax
	movq	-48(%rbp), %rdx
	addq	$56, %rsp
	popq	%rbp
	retq
Ltmp150:
Lfunc_end34:
	.cfi_endproc

	.globl	__ZN4core3fmt10ArgumentV111new_pointer17h9c10129638cd92a3E
	.p2align	4, 0x90
__ZN4core3fmt10ArgumentV111new_pointer17h9c10129638cd92a3E:
Lfunc_begin35:
	.loc	16 327 0
	.cfi_startproc
	pushq	%rbp
	.cfi_def_cfa_offset 16
	.cfi_offset %rbp, -16
	movq	%rsp, %rbp
	.cfi_def_cfa_register %rbp
	subq	$56, %rsp
	movq	%rdi, -40(%rbp)
Ltmp151:
	.loc	16 328 23 prologue_end
	movq	%rdi, -32(%rbp)
	.loc	16 328 26 is_stmt 0
	leaq	__ZN44_$LT$$RF$T$u20$as$u20$core..fmt..Pointer$GT$3fmt17hae143beda267e46cE(%rip), %rax
	movq	%rax, -24(%rbp)
Ltmp152:
	.loc	16 347 42 is_stmt 1
	movq	%rax, -16(%rbp)
	movq	-16(%rbp), %rax
	.loc	16 347 68 is_stmt 0
	movq	%rdi, -8(%rbp)
	movq	-8(%rbp), %rcx
	.loc	16 347 18
	movq	%rcx, -56(%rbp)
	movq	%rax, -48(%rbp)
Ltmp153:
	.loc	16 329 10 is_stmt 1
	movq	-56(%rbp), %rax
	movq	-48(%rbp), %rdx
	addq	$56, %rsp
	popq	%rbp
	retq
Ltmp154:
Lfunc_end35:
	.cfi_endproc

	.globl	__ZN4core3fmt10ArgumentV19new_debug17h019289e4778a1c14E
	.p2align	4, 0x90
__ZN4core3fmt10ArgumentV19new_debug17h019289e4778a1c14E:
Lfunc_begin36:
	.loc	16 327 0
	.cfi_startproc
	pushq	%rbp
	.cfi_def_cfa_offset 16
	.cfi_offset %rbp, -16
	movq	%rsp, %rbp
	.cfi_def_cfa_register %rbp
	subq	$56, %rsp
	movq	%rdi, -40(%rbp)
Ltmp155:
	.loc	16 328 23 prologue_end
	movq	%rdi, -32(%rbp)
	.loc	16 328 26 is_stmt 0
	leaq	__ZN42_$LT$$RF$T$u20$as$u20$core..fmt..Debug$GT$3fmt17hf8d10d72498cf0fdE(%rip), %rax
	movq	%rax, -24(%rbp)
Ltmp156:
	.loc	16 347 42 is_stmt 1
	movq	%rax, -16(%rbp)
	movq	-16(%rbp), %rax
	.loc	16 347 68 is_stmt 0
	movq	%rdi, -8(%rbp)
	movq	-8(%rbp), %rcx
	.loc	16 347 18
	movq	%rcx, -56(%rbp)
	movq	%rax, -48(%rbp)
Ltmp157:
	.loc	16 329 10 is_stmt 1
	movq	-56(%rbp), %rax
	movq	-48(%rbp), %rdx
	addq	$56, %rsp
	popq	%rbp
	retq
Ltmp158:
Lfunc_end36:
	.cfi_endproc

	.globl	__ZN4core3fmt10ArgumentV19new_debug17h20db6541868fd067E
	.p2align	4, 0x90
__ZN4core3fmt10ArgumentV19new_debug17h20db6541868fd067E:
Lfunc_begin37:
	.loc	16 327 0
	.cfi_startproc
	pushq	%rbp
	.cfi_def_cfa_offset 16
	.cfi_offset %rbp, -16
	movq	%rsp, %rbp
	.cfi_def_cfa_register %rbp
	subq	$56, %rsp
	movq	%rdi, -40(%rbp)
Ltmp159:
	.loc	16 328 23 prologue_end
	movq	%rdi, -32(%rbp)
	.loc	16 328 26 is_stmt 0
	leaq	__ZN55_$LT$objc..runtime..Sel$u20$as$u20$core..fmt..Debug$GT$3fmt17h5964fce143f73ce6E(%rip), %rax
	movq	%rax, -24(%rbp)
Ltmp160:
	.loc	16 347 42 is_stmt 1
	movq	%rax, -16(%rbp)
	movq	-16(%rbp), %rax
	.loc	16 347 68 is_stmt 0
	movq	%rdi, -8(%rbp)
	movq	-8(%rbp), %rcx
	.loc	16 347 18
	movq	%rcx, -56(%rbp)
	movq	%rax, -48(%rbp)
Ltmp161:
	.loc	16 329 10 is_stmt 1
	movq	-56(%rbp), %rax
	movq	-48(%rbp), %rdx
	addq	$56, %rsp
	popq	%rbp
	retq
Ltmp162:
Lfunc_end37:
	.cfi_endproc

	.globl	__ZN4core3fmt10ArgumentV19new_debug17hf6611b34bbc87383E
	.p2align	4, 0x90
__ZN4core3fmt10ArgumentV19new_debug17hf6611b34bbc87383E:
Lfunc_begin38:
	.loc	16 327 0
	.cfi_startproc
	pushq	%rbp
	.cfi_def_cfa_offset 16
	.cfi_offset %rbp, -16
	movq	%rsp, %rbp
	.cfi_def_cfa_register %rbp
	subq	$56, %rsp
	movq	%rdi, -40(%rbp)
Ltmp163:
	.loc	16 328 23 prologue_end
	movq	%rdi, -32(%rbp)
	.loc	16 328 26 is_stmt 0
	leaq	__ZN42_$LT$$RF$T$u20$as$u20$core..fmt..Debug$GT$3fmt17h263e0ad94f17436cE(%rip), %rax
	movq	%rax, -24(%rbp)
Ltmp164:
	.loc	16 347 42 is_stmt 1
	movq	%rax, -16(%rbp)
	movq	-16(%rbp), %rax
	.loc	16 347 68 is_stmt 0
	movq	%rdi, -8(%rbp)
	movq	-8(%rbp), %rcx
	.loc	16 347 18
	movq	%rcx, -56(%rbp)
	movq	%rax, -48(%rbp)
Ltmp165:
	.loc	16 329 10 is_stmt 1
	movq	-56(%rbp), %rax
	movq	-48(%rbp), %rdx
	addq	$56, %rsp
	popq	%rbp
	retq
Ltmp166:
Lfunc_end38:
	.cfi_endproc

	.p2align	4, 0x90
__ZN4core3fmt9Arguments6new_v117h76ec19257ab01895E:
Lfunc_begin39:
	.loc	16 399 0
	.cfi_startproc
	pushq	%rbp
	.cfi_def_cfa_offset 16
	.cfi_offset %rbp, -16
	movq	%rsp, %rbp
	.cfi_def_cfa_register %rbp
	subq	$160, %rsp
	movq	%r8, -152(%rbp)
	movq	%rcx, -144(%rbp)
	movq	%rdx, -136(%rbp)
	movq	%rsi, -128(%rbp)
	movq	%rdi, -120(%rbp)
	movq	%rdi, -112(%rbp)
	movq	%rsi, -32(%rbp)
	movq	%rdx, -24(%rbp)
	movq	%rcx, -16(%rbp)
	movq	%r8, -8(%rbp)
Ltmp167:
	.loc	16 400 12 prologue_end
	cmpq	%r8, %rdx
	jb	LBB39_2
	.loc	16 0 12 is_stmt 0
	movq	-136(%rbp), %rax
	movq	-152(%rbp), %rcx
	.loc	16 400 56
	addq	$1, %rcx
	.loc	16 400 41
	cmpq	%rcx, %rax
	seta	%al
	.loc	16 400 12
	andb	$1, %al
	movb	%al, -97(%rbp)
	jmp	LBB39_3
LBB39_2:
	movb	$1, -97(%rbp)
LBB39_3:
	testb	$1, -97(%rbp)
	jne	LBB39_5
	.loc	16 0 12
	movq	-112(%rbp), %rax
	movq	-120(%rbp), %rcx
	movq	-152(%rbp), %rdx
	movq	-144(%rbp), %rsi
	movq	-136(%rbp), %rdi
	movq	-128(%rbp), %r8
	.loc	16 403 34 is_stmt 1
	movq	$0, -48(%rbp)
	.loc	16 403 9 is_stmt 0
	movq	%r8, 16(%rcx)
	movq	%rdi, 24(%rcx)
	movq	-48(%rbp), %r8
	movq	-40(%rbp), %rdi
	movq	%r8, (%rcx)
	movq	%rdi, 8(%rcx)
	movq	%rsi, 32(%rcx)
	movq	%rdx, 40(%rcx)
	.loc	16 404 6 is_stmt 1
	addq	$160, %rsp
	popq	%rbp
	retq
LBB39_5:
	.loc	16 401 13
	leaq	l___unnamed_4(%rip), %rsi
	leaq	l___unnamed_5(%rip), %rcx
	xorl	%eax, %eax
	movl	%eax, %r8d
	leaq	-96(%rbp), %rdi
	movq	%rdi, -160(%rbp)
	movl	$1, %edx
	callq	__ZN4core3fmt9Arguments6new_v117h76ec19257ab01895E
	movq	-160(%rbp), %rdi
	leaq	l___unnamed_6(%rip), %rsi
	callq	__ZN4core9panicking9panic_fmt17h9b5d807e24bcaaedE
Ltmp168:
Lfunc_end39:
	.cfi_endproc

	.globl	__ZN4core3mem6forget17h75b50fb28367f019E
	.p2align	4, 0x90
__ZN4core3mem6forget17h75b50fb28367f019E:
Lfunc_begin40:
	.file	20 "/rustc/2c8cc343237b8f7d5a3c3703e3a87f2eb2c54a74/library/core/src/mem" "mod.rs"
	.loc	20 148 0
	.cfi_startproc
	pushq	%rbp
	.cfi_def_cfa_offset 16
	.cfi_offset %rbp, -16
	movq	%rsp, %rbp
	.cfi_def_cfa_register %rbp
	pushq	%rax
	movq	%rdi, -8(%rbp)
Ltmp169:
	.loc	20 150 2 prologue_end
	addq	$8, %rsp
	popq	%rbp
	retq
Ltmp170:
Lfunc_end40:
	.cfi_endproc

	.globl	__ZN4core3mem6forget17hec80d061f291facdE
	.p2align	4, 0x90
__ZN4core3mem6forget17hec80d061f291facdE:
Lfunc_begin41:
	.loc	20 148 0
	.cfi_startproc
	pushq	%rbp
	.cfi_def_cfa_offset 16
	.cfi_offset %rbp, -16
	movq	%rsp, %rbp
	.cfi_def_cfa_register %rbp
	pushq	%rax
	movq	%rdi, -8(%rbp)
Ltmp171:
	.loc	20 150 2 prologue_end
	addq	$8, %rsp
	popq	%rbp
	retq
Ltmp172:
Lfunc_end41:
	.cfi_endproc

	.p2align	4, 0x90
__ZN4core3num23_$LT$impl$u20$usize$GT$11checked_add17hae57d7c6f87a05d4E:
Lfunc_begin42:
	.file	21 "/rustc/2c8cc343237b8f7d5a3c3703e3a87f2eb2c54a74/library/core/src/num" "uint_macros.rs"
	.loc	21 442 0
	.cfi_startproc
	pushq	%rbp
	.cfi_def_cfa_offset 16
	.cfi_offset %rbp, -16
	movq	%rsp, %rbp
	.cfi_def_cfa_register %rbp
	subq	$120, %rsp
	movq	%rdi, -80(%rbp)
	movq	%rsi, -72(%rbp)
Ltmp173:
	.loc	21 443 26 prologue_end
	movq	%rdi, -64(%rbp)
	.loc	21 443 47 is_stmt 0
	movq	%rsi, -56(%rbp)
Ltmp174:
	.loc	21 1479 26 is_stmt 1
	addq	%rsi, %rdi
	setb	%al
	andb	$1, %al
	movq	%rdi, -48(%rbp)
	movb	%al, -40(%rbp)
	movq	-48(%rbp), %rcx
	movb	-40(%rbp), %al
	.loc	21 1479 18 is_stmt 0
	movq	%rcx, -32(%rbp)
	.loc	21 1479 21
	movb	%al, %dl
	andb	$1, %dl
	movb	%dl, -17(%rbp)
Ltmp175:
	.loc	21 1480 13 is_stmt 1
	movq	%rcx, -96(%rbp)
	andb	$1, %al
	movb	%al, -88(%rbp)
Ltmp176:
	.loc	21 443 18
	movq	-96(%rbp), %rax
	movq	%rax, -120(%rbp)
	movq	%rax, -16(%rbp)
	.loc	21 443 21 is_stmt 0
	movb	-88(%rbp), %al
	movb	%al, %cl
	andb	$1, %cl
	movb	%cl, -2(%rbp)
Ltmp177:
	.loc	21 444 16 is_stmt 1
	andb	$1, %al
	movb	%al, -1(%rbp)
	testb	$1, -1(%rbp)
	jne	LBB42_2
	.loc	21 0 16 is_stmt 0
	movq	-120(%rbp), %rax
	.loc	21 444 42
	movq	%rax, -104(%rbp)
	movq	$1, -112(%rbp)
	.loc	21 444 13
	jmp	LBB42_3
LBB42_2:
	.loc	21 444 30
	movq	$0, -112(%rbp)
Ltmp178:
LBB42_3:
	.loc	21 445 10 is_stmt 1
	movq	-112(%rbp), %rax
	movq	-104(%rbp), %rdx
	addq	$120, %rsp
	popq	%rbp
	retq
Ltmp179:
Lfunc_end42:
	.cfi_endproc

	.p2align	4, 0x90
__ZN4core3ops8function6FnOnce9call_once17h09840e0ccc7443feE:
Lfunc_begin43:
	.file	22 "/rustc/2c8cc343237b8f7d5a3c3703e3a87f2eb2c54a74/library/core/src/ops" "function.rs"
	.loc	22 250 0
	.cfi_startproc
	pushq	%rbp
	.cfi_def_cfa_offset 16
	.cfi_offset %rbp, -16
	movq	%rsp, %rbp
	.cfi_def_cfa_register %rbp
	subq	$32, %rsp
	movq	%rdi, -24(%rbp)
	movq	%rsi, -16(%rbp)
Ltmp180:
	.loc	22 250 5 prologue_end
	movq	-24(%rbp), %rdi
	movq	-16(%rbp), %rsi
	callq	__ZN4core3cmp5impls50_$LT$impl$u20$core..cmp..Ord$u20$for$u20$usize$GT$3cmp17hc6728de7ecb0db22E
	addq	$32, %rsp
	popq	%rbp
	retq
Ltmp181:
Lfunc_end43:
	.cfi_endproc

	.globl	__ZN4core3ptr109drop_in_place$LT$alloc..boxed..Box$LT$core..cell..UnsafeCell$LT$$BP$mut$u20$objc..runtime..Object$GT$$GT$$GT$17h30e8eb6ddfa6d969E
	.p2align	4, 0x90
__ZN4core3ptr109drop_in_place$LT$alloc..boxed..Box$LT$core..cell..UnsafeCell$LT$$BP$mut$u20$objc..runtime..Object$GT$$GT$$GT$17h30e8eb6ddfa6d969E:
Lfunc_begin44:
	.loc	7 490 0
	.cfi_startproc
	pushq	%rbp
	.cfi_def_cfa_offset 16
	.cfi_offset %rbp, -16
	movq	%rsp, %rbp
	.cfi_def_cfa_register %rbp
	subq	$32, %rsp
	movq	%rdi, -32(%rbp)
	movq	%rdi, -24(%rbp)
	movq	-32(%rbp), %rax
Ltmp182:
	.loc	7 490 1 prologue_end
	movq	(%rax), %rdi
	callq	__ZN5alloc5alloc8box_free17hd890cfad011b1ca6E
	addq	$32, %rsp
	popq	%rbp
	retq
Ltmp183:
Lfunc_end44:
	.cfi_endproc

	.globl	__ZN4core3ptr39drop_in_place$LT$objc..encode..Code$GT$17h364efdf35ed86222E
	.p2align	4, 0x90
__ZN4core3ptr39drop_in_place$LT$objc..encode..Code$GT$17h364efdf35ed86222E:
Lfunc_begin45:
	.loc	7 490 0
	.cfi_startproc
	pushq	%rbp
	.cfi_def_cfa_offset 16
	.cfi_offset %rbp, -16
	movq	%rsp, %rbp
	.cfi_def_cfa_register %rbp
	subq	$32, %rsp
	movq	%rdi, -24(%rbp)
	movq	%rdi, -8(%rbp)
Ltmp184:
	.loc	7 490 1 prologue_end
	movzbl	(%rdi), %eax
	movq	%rax, -16(%rbp)
	testq	%rax, %rax
	je	LBB45_2
	jmp	LBB45_4
LBB45_4:
	.loc	7 0 1 is_stmt 0
	movq	-16(%rbp), %rax
	.loc	7 490 1
	subq	$1, %rax
	je	LBB45_3
	jmp	LBB45_5
LBB45_5:
	.loc	7 0 1
	movq	-16(%rbp), %rax
	.loc	7 490 1
	subq	$2, %rax
	je	LBB45_2
	jmp	LBB45_1
LBB45_1:
	.loc	7 0 1
	movq	-24(%rbp), %rdi
	.loc	7 490 1
	addq	$8, %rdi
	callq	__ZN4core3ptr55drop_in_place$LT$malloc_buf..MallocBuffer$LT$u8$GT$$GT$17hf02dc657d6543ca3E
LBB45_2:
	addq	$32, %rsp
	popq	%rbp
	retq
LBB45_3:
	.loc	7 0 1
	movq	-24(%rbp), %rdi
	.loc	7 490 1
	addq	$8, %rdi
	callq	__ZN4core3ptr42drop_in_place$LT$alloc..string..String$GT$17hef0d0483296c488eE
	jmp	LBB45_2
Ltmp185:
Lfunc_end45:
	.cfi_endproc

	.globl	__ZN4core3ptr42drop_in_place$LT$alloc..string..String$GT$17hef0d0483296c488eE
	.p2align	4, 0x90
__ZN4core3ptr42drop_in_place$LT$alloc..string..String$GT$17hef0d0483296c488eE:
Lfunc_begin46:
	.loc	7 490 0 is_stmt 1
	.cfi_startproc
	pushq	%rbp
	.cfi_def_cfa_offset 16
	.cfi_offset %rbp, -16
	movq	%rsp, %rbp
	.cfi_def_cfa_register %rbp
	subq	$16, %rsp
	movq	%rdi, -8(%rbp)
Ltmp186:
	.loc	7 490 1 prologue_end
	callq	__ZN4core3ptr46drop_in_place$LT$alloc..vec..Vec$LT$u8$GT$$GT$17hb356054604c443a0E
	addq	$16, %rsp
	popq	%rbp
	retq
Ltmp187:
Lfunc_end46:
	.cfi_endproc

	.globl	__ZN4core3ptr42drop_in_place$LT$malloc_buf..MallocPtr$GT$17h78aec2962186dfaeE
	.p2align	4, 0x90
__ZN4core3ptr42drop_in_place$LT$malloc_buf..MallocPtr$GT$17h78aec2962186dfaeE:
Lfunc_begin47:
	.loc	7 490 0
	.cfi_startproc
	pushq	%rbp
	.cfi_def_cfa_offset 16
	.cfi_offset %rbp, -16
	movq	%rsp, %rbp
	.cfi_def_cfa_register %rbp
	subq	$16, %rsp
	movq	%rdi, -8(%rbp)
Ltmp188:
	.loc	7 490 1 prologue_end
	callq	__ZN63_$LT$malloc_buf..MallocPtr$u20$as$u20$core..ops..drop..Drop$GT$4drop17hb8804a4387f8c4bfE
	addq	$16, %rsp
	popq	%rbp
	retq
Ltmp189:
Lfunc_end47:
	.cfi_endproc

	.globl	__ZN4core3ptr43drop_in_place$LT$objc..encode..Encoding$GT$17hb1c534326c594804E
	.p2align	4, 0x90
__ZN4core3ptr43drop_in_place$LT$objc..encode..Encoding$GT$17hb1c534326c594804E:
Lfunc_begin48:
	.loc	7 490 0
	.cfi_startproc
	pushq	%rbp
	.cfi_def_cfa_offset 16
	.cfi_offset %rbp, -16
	movq	%rsp, %rbp
	.cfi_def_cfa_register %rbp
	subq	$16, %rsp
	movq	%rdi, -8(%rbp)
Ltmp190:
	.loc	7 490 1 prologue_end
	callq	__ZN4core3ptr39drop_in_place$LT$objc..encode..Code$GT$17h364efdf35ed86222E
	addq	$16, %rsp
	popq	%rbp
	retq
Ltmp191:
Lfunc_end48:
	.cfi_endproc

	.globl	__ZN4core3ptr45drop_in_place$LT$objc..declare..ClassDecl$GT$17h0603be9956263deaE
	.p2align	4, 0x90
__ZN4core3ptr45drop_in_place$LT$objc..declare..ClassDecl$GT$17h0603be9956263deaE:
Lfunc_begin49:
	.loc	7 490 0
	.cfi_startproc
	pushq	%rbp
	.cfi_def_cfa_offset 16
	.cfi_offset %rbp, -16
	movq	%rsp, %rbp
	.cfi_def_cfa_register %rbp
	subq	$16, %rsp
	movq	%rdi, -8(%rbp)
Ltmp192:
	.loc	7 490 1 prologue_end
	callq	__ZN66_$LT$objc..declare..ClassDecl$u20$as$u20$core..ops..drop..Drop$GT$4drop17h052e087e7119a232E
	addq	$16, %rsp
	popq	%rbp
	retq
Ltmp193:
Lfunc_end49:
	.cfi_endproc

	.p2align	4, 0x90
__ZN4core3ptr46drop_in_place$LT$$RF$alloc..string..String$GT$17hd3c76e550494649eE:
Lfunc_begin50:
	.loc	7 490 0
	.cfi_startproc
	pushq	%rbp
	.cfi_def_cfa_offset 16
	.cfi_offset %rbp, -16
	movq	%rsp, %rbp
	.cfi_def_cfa_register %rbp
	pushq	%rax
	movq	%rdi, -8(%rbp)
Ltmp194:
	.loc	7 490 1 prologue_end
	addq	$8, %rsp
	popq	%rbp
	retq
Ltmp195:
Lfunc_end50:
	.cfi_endproc

	.globl	__ZN4core3ptr46drop_in_place$LT$alloc..vec..Vec$LT$u8$GT$$GT$17hb356054604c443a0E
	.p2align	4, 0x90
__ZN4core3ptr46drop_in_place$LT$alloc..vec..Vec$LT$u8$GT$$GT$17hb356054604c443a0E:
Lfunc_begin51:
	.loc	7 490 0
	.cfi_startproc
	.cfi_personality 155, _rust_eh_personality
	.cfi_lsda 16, Lexception8
	pushq	%rbp
	.cfi_def_cfa_offset 16
	.cfi_offset %rbp, -16
	movq	%rsp, %rbp
	.cfi_def_cfa_register %rbp
	subq	$32, %rsp
	movq	%rdi, -32(%rbp)
	movq	%rdi, -24(%rbp)
Ltmp196:
Ltmp202:
	.loc	7 490 1 prologue_end
	callq	__ZN70_$LT$alloc..vec..Vec$LT$T$C$A$GT$$u20$as$u20$core..ops..drop..Drop$GT$4drop17h21562529fbbee361E
Ltmp197:
	jmp	LBB51_3
LBB51_1:
Ltmp199:
	.loc	7 0 1 is_stmt 0
	movq	-32(%rbp), %rdi
	.loc	7 490 1
	callq	__ZN4core3ptr53drop_in_place$LT$alloc..raw_vec..RawVec$LT$u8$GT$$GT$17h7402c1db9d8211e6E
Ltmp200:
	jmp	LBB51_5
LBB51_2:
Ltmp198:
	.loc	7 0 1
	movq	%rax, %rcx
	movl	%edx, %eax
	movq	%rcx, -16(%rbp)
	movl	%eax, -8(%rbp)
	jmp	LBB51_1
LBB51_3:
	movq	-32(%rbp), %rdi
	.loc	7 490 1
	callq	__ZN4core3ptr53drop_in_place$LT$alloc..raw_vec..RawVec$LT$u8$GT$$GT$17h7402c1db9d8211e6E
	addq	$32, %rsp
	popq	%rbp
	retq
LBB51_4:
Ltmp201:
	callq	__ZN4core9panicking19panic_cannot_unwind17h1fbca7e1d7f56ae1E
LBB51_5:
	movq	-16(%rbp), %rdi
	callq	__Unwind_Resume
Ltmp203:
Lfunc_end51:
	.cfi_endproc
	.section	__TEXT,__gcc_except_tab
	.p2align	2
GCC_except_table51:
Lexception8:
	.byte	255
	.byte	255
	.byte	1
	.uleb128 Lcst_end8-Lcst_begin8
Lcst_begin8:
	.uleb128 Ltmp196-Lfunc_begin51
	.uleb128 Ltmp197-Ltmp196
	.uleb128 Ltmp198-Lfunc_begin51
	.byte	0
	.uleb128 Ltmp199-Lfunc_begin51
	.uleb128 Ltmp200-Ltmp199
	.uleb128 Ltmp201-Lfunc_begin51
	.byte	0
	.uleb128 Ltmp200-Lfunc_begin51
	.uleb128 Lfunc_end51-Ltmp200
	.byte	0
	.byte	0
Lcst_end8:
	.p2align	2

	.section	__TEXT,__text,regular,pure_instructions
	.globl	__ZN4core3ptr47drop_in_place$LT$alloc..ffi..c_str..CString$GT$17h0decd509e0f9989dE
	.p2align	4, 0x90
__ZN4core3ptr47drop_in_place$LT$alloc..ffi..c_str..CString$GT$17h0decd509e0f9989dE:
Lfunc_begin52:
	.loc	7 490 0 is_stmt 1
	.cfi_startproc
	.cfi_personality 155, _rust_eh_personality
	.cfi_lsda 16, Lexception9
	pushq	%rbp
	.cfi_def_cfa_offset 16
	.cfi_offset %rbp, -16
	movq	%rsp, %rbp
	.cfi_def_cfa_register %rbp
	subq	$32, %rsp
	movq	%rdi, -32(%rbp)
	movq	%rdi, -24(%rbp)
Ltmp204:
Ltmp210:
	.loc	7 490 1 prologue_end
	callq	__ZN68_$LT$alloc..ffi..c_str..CString$u20$as$u20$core..ops..drop..Drop$GT$4drop17hc55c19c0a4becd25E
Ltmp205:
	jmp	LBB52_3
LBB52_1:
Ltmp207:
	.loc	7 0 1 is_stmt 0
	movq	-32(%rbp), %rdi
	.loc	7 490 1
	callq	__ZN4core3ptr58drop_in_place$LT$alloc..boxed..Box$LT$$u5b$u8$u5d$$GT$$GT$17h99e3e3095123f631E
Ltmp208:
	jmp	LBB52_5
LBB52_2:
Ltmp206:
	.loc	7 0 1
	movq	%rax, %rcx
	movl	%edx, %eax
	movq	%rcx, -16(%rbp)
	movl	%eax, -8(%rbp)
	jmp	LBB52_1
LBB52_3:
	movq	-32(%rbp), %rdi
	.loc	7 490 1
	callq	__ZN4core3ptr58drop_in_place$LT$alloc..boxed..Box$LT$$u5b$u8$u5d$$GT$$GT$17h99e3e3095123f631E
	addq	$32, %rsp
	popq	%rbp
	retq
LBB52_4:
Ltmp209:
	callq	__ZN4core9panicking19panic_cannot_unwind17h1fbca7e1d7f56ae1E
LBB52_5:
	movq	-16(%rbp), %rdi
	callq	__Unwind_Resume
Ltmp211:
Lfunc_end52:
	.cfi_endproc
	.section	__TEXT,__gcc_except_tab
	.p2align	2
GCC_except_table52:
Lexception9:
	.byte	255
	.byte	255
	.byte	1
	.uleb128 Lcst_end9-Lcst_begin9
Lcst_begin9:
	.uleb128 Ltmp204-Lfunc_begin52
	.uleb128 Ltmp205-Ltmp204
	.uleb128 Ltmp206-Lfunc_begin52
	.byte	0
	.uleb128 Ltmp207-Lfunc_begin52
	.uleb128 Ltmp208-Ltmp207
	.uleb128 Ltmp209-Lfunc_begin52
	.byte	0
	.uleb128 Ltmp208-Lfunc_begin52
	.uleb128 Lfunc_end52-Ltmp208
	.byte	0
	.byte	0
Lcst_end9:
	.p2align	2

	.section	__TEXT,__text,regular,pure_instructions
	.globl	__ZN4core3ptr48drop_in_place$LT$alloc..ffi..c_str..NulError$GT$17h7a6238505f34127dE
	.p2align	4, 0x90
__ZN4core3ptr48drop_in_place$LT$alloc..ffi..c_str..NulError$GT$17h7a6238505f34127dE:
Lfunc_begin53:
	.loc	7 490 0 is_stmt 1
	.cfi_startproc
	pushq	%rbp
	.cfi_def_cfa_offset 16
	.cfi_offset %rbp, -16
	movq	%rsp, %rbp
	.cfi_def_cfa_register %rbp
	subq	$16, %rsp
	movq	%rdi, -8(%rbp)
Ltmp212:
	.loc	7 490 1 prologue_end
	addq	$8, %rdi
	callq	__ZN4core3ptr46drop_in_place$LT$alloc..vec..Vec$LT$u8$GT$$GT$17hb356054604c443a0E
	addq	$16, %rsp
	popq	%rbp
	retq
Ltmp213:
Lfunc_end53:
	.cfi_endproc

	.p2align	4, 0x90
__ZN4core3ptr48drop_in_place$LT$core..str..error..Utf8Error$GT$17h1a4265ea7521d356E:
Lfunc_begin54:
	.loc	7 490 0
	.cfi_startproc
	pushq	%rbp
	.cfi_def_cfa_offset 16
	.cfi_offset %rbp, -16
	movq	%rsp, %rbp
	.cfi_def_cfa_register %rbp
	pushq	%rax
	movq	%rdi, -8(%rbp)
Ltmp214:
	.loc	7 490 1 prologue_end
	addq	$8, %rsp
	popq	%rbp
	retq
Ltmp215:
Lfunc_end54:
	.cfi_endproc

	.globl	__ZN4core3ptr53drop_in_place$LT$alloc..raw_vec..RawVec$LT$u8$GT$$GT$17h7402c1db9d8211e6E
	.p2align	4, 0x90
__ZN4core3ptr53drop_in_place$LT$alloc..raw_vec..RawVec$LT$u8$GT$$GT$17h7402c1db9d8211e6E:
Lfunc_begin55:
	.loc	7 490 0
	.cfi_startproc
	pushq	%rbp
	.cfi_def_cfa_offset 16
	.cfi_offset %rbp, -16
	movq	%rsp, %rbp
	.cfi_def_cfa_register %rbp
	subq	$16, %rsp
	movq	%rdi, -8(%rbp)
Ltmp216:
	.loc	7 490 1 prologue_end
	callq	__ZN77_$LT$alloc..raw_vec..RawVec$LT$T$C$A$GT$$u20$as$u20$core..ops..drop..Drop$GT$4drop17hf74dfd96485394deE
	addq	$16, %rsp
	popq	%rbp
	retq
Ltmp217:
Lfunc_end55:
	.cfi_endproc

	.globl	__ZN4core3ptr55drop_in_place$LT$malloc_buf..MallocBuffer$LT$u8$GT$$GT$17hf02dc657d6543ca3E
	.p2align	4, 0x90
__ZN4core3ptr55drop_in_place$LT$malloc_buf..MallocBuffer$LT$u8$GT$$GT$17hf02dc657d6543ca3E:
Lfunc_begin56:
	.loc	7 490 0
	.cfi_startproc
	pushq	%rbp
	.cfi_def_cfa_offset 16
	.cfi_offset %rbp, -16
	movq	%rsp, %rbp
	.cfi_def_cfa_register %rbp
	subq	$16, %rsp
	movq	%rdi, -8(%rbp)
Ltmp218:
	.loc	7 490 1 prologue_end
	callq	__ZN4core3ptr42drop_in_place$LT$malloc_buf..MallocPtr$GT$17h78aec2962186dfaeE
	addq	$16, %rsp
	popq	%rbp
	retq
Ltmp219:
Lfunc_end56:
	.cfi_endproc

	.globl	__ZN4core3ptr58drop_in_place$LT$alloc..boxed..Box$LT$$u5b$u8$u5d$$GT$$GT$17h99e3e3095123f631E
	.p2align	4, 0x90
__ZN4core3ptr58drop_in_place$LT$alloc..boxed..Box$LT$$u5b$u8$u5d$$GT$$GT$17h99e3e3095123f631E:
Lfunc_begin57:
	.loc	7 490 0
	.cfi_startproc
	pushq	%rbp
	.cfi_def_cfa_offset 16
	.cfi_offset %rbp, -16
	movq	%rsp, %rbp
	.cfi_def_cfa_register %rbp
	subq	$32, %rsp
	movq	%rdi, -32(%rbp)
	movq	%rdi, -24(%rbp)
	movq	-32(%rbp), %rax
Ltmp220:
	.loc	7 490 1 prologue_end
	movq	(%rax), %rdi
	movq	8(%rax), %rsi
	callq	__ZN5alloc5alloc8box_free17he4eff7cec1eb5c11E
	addq	$32, %rsp
	popq	%rbp
	retq
Ltmp221:
Lfunc_end57:
	.cfi_endproc

	.globl	__ZN4core3ptr73drop_in_place$LT$core..option..Option$LT$objc..declare..ClassDecl$GT$$GT$17hebf133d7782e2998E
	.p2align	4, 0x90
__ZN4core3ptr73drop_in_place$LT$core..option..Option$LT$objc..declare..ClassDecl$GT$$GT$17hebf133d7782e2998E:
Lfunc_begin58:
	.loc	7 490 0
	.cfi_startproc
	pushq	%rbp
	.cfi_def_cfa_offset 16
	.cfi_offset %rbp, -16
	movq	%rsp, %rbp
	.cfi_def_cfa_register %rbp
	subq	$16, %rsp
	movq	%rdi, -16(%rbp)
	movq	%rdi, -8(%rbp)
Ltmp222:
	.loc	7 490 1 prologue_end
	cmpq	$0, (%rdi)
	jne	LBB58_2
LBB58_1:
	addq	$16, %rsp
	popq	%rbp
	retq
LBB58_2:
	.loc	7 0 1 is_stmt 0
	movq	-16(%rbp), %rdi
	.loc	7 490 1
	addq	$8, %rdi
	callq	__ZN4core3ptr45drop_in_place$LT$objc..declare..ClassDecl$GT$17h0603be9956263deaE
	jmp	LBB58_1
Ltmp223:
Lfunc_end58:
	.cfi_endproc

	.globl	__ZN4core3ptr7mut_ptr31_$LT$impl$u20$$BP$mut$u20$T$GT$7is_null17h34fc6c47af94d561E
	.p2align	4, 0x90
__ZN4core3ptr7mut_ptr31_$LT$impl$u20$$BP$mut$u20$T$GT$7is_null17h34fc6c47af94d561E:
Lfunc_begin59:
	.file	23 "/rustc/2c8cc343237b8f7d5a3c3703e3a87f2eb2c54a74/library/core/src/ptr" "mut_ptr.rs"
	.loc	23 35 0 is_stmt 1
	.cfi_startproc
	pushq	%rbp
	.cfi_def_cfa_offset 16
	.cfi_offset %rbp, -16
	movq	%rsp, %rbp
	.cfi_def_cfa_register %rbp
	subq	$48, %rsp
	movq	%rdi, -40(%rbp)
Ltmp224:
	.loc	23 52 36 prologue_end
	movq	%rdi, -48(%rbp)
	.loc	23 52 18 is_stmt 0
	movq	-48(%rbp), %rax
	movq	%rax, -32(%rbp)
Ltmp225:
	.loc	23 38 13 is_stmt 1
	movq	%rax, -24(%rbp)
Ltmp226:
	.loc	23 215 33
	movq	%rax, -16(%rbp)
	.loc	23 215 18 is_stmt 0
	movq	%rax, -8(%rbp)
Ltmp227:
	.loc	23 38 13 is_stmt 1
	cmpq	$0, -8(%rbp)
	sete	%al
Ltmp228:
	.loc	23 53 6
	andb	$1, %al
	movzbl	%al, %eax
	addq	$48, %rsp
	popq	%rbp
	retq
Ltmp229:
Lfunc_end59:
	.cfi_endproc

	.globl	__ZN4core3ptr7mut_ptr31_$LT$impl$u20$$BP$mut$u20$T$GT$7is_null17h3c0bd1efd62d7de0E
	.p2align	4, 0x90
__ZN4core3ptr7mut_ptr31_$LT$impl$u20$$BP$mut$u20$T$GT$7is_null17h3c0bd1efd62d7de0E:
Lfunc_begin60:
	.loc	23 35 0
	.cfi_startproc
	pushq	%rbp
	.cfi_def_cfa_offset 16
	.cfi_offset %rbp, -16
	movq	%rsp, %rbp
	.cfi_def_cfa_register %rbp
	subq	$48, %rsp
	movq	%rdi, -40(%rbp)
Ltmp230:
	.loc	23 52 36 prologue_end
	movq	%rdi, -48(%rbp)
	.loc	23 52 18 is_stmt 0
	movq	-48(%rbp), %rax
	movq	%rax, -32(%rbp)
Ltmp231:
	.loc	23 38 13 is_stmt 1
	movq	%rax, -24(%rbp)
Ltmp232:
	.loc	23 215 33
	movq	%rax, -16(%rbp)
	.loc	23 215 18 is_stmt 0
	movq	%rax, -8(%rbp)
Ltmp233:
	.loc	23 38 13 is_stmt 1
	cmpq	$0, -8(%rbp)
	sete	%al
Ltmp234:
	.loc	23 53 6
	andb	$1, %al
	movzbl	%al, %eax
	addq	$48, %rsp
	popq	%rbp
	retq
Ltmp235:
Lfunc_end60:
	.cfi_endproc

	.globl	__ZN4core3ptr7mut_ptr31_$LT$impl$u20$$BP$mut$u20$T$GT$7is_null17h40df0ba5d1358791E
	.p2align	4, 0x90
__ZN4core3ptr7mut_ptr31_$LT$impl$u20$$BP$mut$u20$T$GT$7is_null17h40df0ba5d1358791E:
Lfunc_begin61:
	.loc	23 35 0
	.cfi_startproc
	pushq	%rbp
	.cfi_def_cfa_offset 16
	.cfi_offset %rbp, -16
	movq	%rsp, %rbp
	.cfi_def_cfa_register %rbp
	subq	$48, %rsp
	movq	%rdi, -40(%rbp)
Ltmp236:
	.loc	23 52 36 prologue_end
	movq	%rdi, -48(%rbp)
	.loc	23 52 18 is_stmt 0
	movq	-48(%rbp), %rax
	movq	%rax, -32(%rbp)
Ltmp237:
	.loc	23 38 13 is_stmt 1
	movq	%rax, -24(%rbp)
Ltmp238:
	.loc	23 215 33
	movq	%rax, -16(%rbp)
	.loc	23 215 18 is_stmt 0
	movq	%rax, -8(%rbp)
Ltmp239:
	.loc	23 38 13 is_stmt 1
	cmpq	$0, -8(%rbp)
	sete	%al
Ltmp240:
	.loc	23 53 6
	andb	$1, %al
	movzbl	%al, %eax
	addq	$48, %rsp
	popq	%rbp
	retq
Ltmp241:
Lfunc_end61:
	.cfi_endproc

	.globl	__ZN4core3ptr7mut_ptr31_$LT$impl$u20$$BP$mut$u20$T$GT$7is_null17h4c0c6815a3661bc4E
	.p2align	4, 0x90
__ZN4core3ptr7mut_ptr31_$LT$impl$u20$$BP$mut$u20$T$GT$7is_null17h4c0c6815a3661bc4E:
Lfunc_begin62:
	.loc	23 35 0
	.cfi_startproc
	pushq	%rbp
	.cfi_def_cfa_offset 16
	.cfi_offset %rbp, -16
	movq	%rsp, %rbp
	.cfi_def_cfa_register %rbp
	subq	$48, %rsp
	movq	%rdi, -40(%rbp)
Ltmp242:
	.loc	23 52 36 prologue_end
	movq	%rdi, -48(%rbp)
	.loc	23 52 18 is_stmt 0
	movq	-48(%rbp), %rax
	movq	%rax, -32(%rbp)
Ltmp243:
	.loc	23 38 13 is_stmt 1
	movq	%rax, -24(%rbp)
Ltmp244:
	.loc	23 215 33
	movq	%rax, -16(%rbp)
	.loc	23 215 18 is_stmt 0
	movq	%rax, -8(%rbp)
Ltmp245:
	.loc	23 38 13 is_stmt 1
	cmpq	$0, -8(%rbp)
	sete	%al
Ltmp246:
	.loc	23 53 6
	andb	$1, %al
	movzbl	%al, %eax
	addq	$48, %rsp
	popq	%rbp
	retq
Ltmp247:
Lfunc_end62:
	.cfi_endproc

	.globl	__ZN4core3ptr7mut_ptr31_$LT$impl$u20$$BP$mut$u20$T$GT$7is_null17h67fd8ba39612d0d2E
	.p2align	4, 0x90
__ZN4core3ptr7mut_ptr31_$LT$impl$u20$$BP$mut$u20$T$GT$7is_null17h67fd8ba39612d0d2E:
Lfunc_begin63:
	.loc	23 35 0
	.cfi_startproc
	pushq	%rbp
	.cfi_def_cfa_offset 16
	.cfi_offset %rbp, -16
	movq	%rsp, %rbp
	.cfi_def_cfa_register %rbp
	subq	$48, %rsp
	movq	%rdi, -40(%rbp)
Ltmp248:
	.loc	23 52 36 prologue_end
	movq	%rdi, -48(%rbp)
	.loc	23 52 18 is_stmt 0
	movq	-48(%rbp), %rax
	movq	%rax, -32(%rbp)
Ltmp249:
	.loc	23 38 13 is_stmt 1
	movq	%rax, -24(%rbp)
Ltmp250:
	.loc	23 215 33
	movq	%rax, -16(%rbp)
	.loc	23 215 18 is_stmt 0
	movq	%rax, -8(%rbp)
Ltmp251:
	.loc	23 38 13 is_stmt 1
	cmpq	$0, -8(%rbp)
	sete	%al
Ltmp252:
	.loc	23 53 6
	andb	$1, %al
	movzbl	%al, %eax
	addq	$48, %rsp
	popq	%rbp
	retq
Ltmp253:
Lfunc_end63:
	.cfi_endproc

	.globl	__ZN4core3ptr7mut_ptr31_$LT$impl$u20$$BP$mut$u20$T$GT$7is_null17h684a12bd2a42336cE
	.p2align	4, 0x90
__ZN4core3ptr7mut_ptr31_$LT$impl$u20$$BP$mut$u20$T$GT$7is_null17h684a12bd2a42336cE:
Lfunc_begin64:
	.loc	23 35 0
	.cfi_startproc
	pushq	%rbp
	.cfi_def_cfa_offset 16
	.cfi_offset %rbp, -16
	movq	%rsp, %rbp
	.cfi_def_cfa_register %rbp
	subq	$48, %rsp
	movq	%rdi, -40(%rbp)
Ltmp254:
	.loc	23 52 36 prologue_end
	movq	%rdi, -48(%rbp)
	.loc	23 52 18 is_stmt 0
	movq	-48(%rbp), %rax
	movq	%rax, -32(%rbp)
Ltmp255:
	.loc	23 38 13 is_stmt 1
	movq	%rax, -24(%rbp)
Ltmp256:
	.loc	23 215 33
	movq	%rax, -16(%rbp)
	.loc	23 215 18 is_stmt 0
	movq	%rax, -8(%rbp)
Ltmp257:
	.loc	23 38 13 is_stmt 1
	cmpq	$0, -8(%rbp)
	sete	%al
Ltmp258:
	.loc	23 53 6
	andb	$1, %al
	movzbl	%al, %eax
	addq	$48, %rsp
	popq	%rbp
	retq
Ltmp259:
Lfunc_end64:
	.cfi_endproc

	.globl	__ZN4core3ptr7mut_ptr31_$LT$impl$u20$$BP$mut$u20$T$GT$7is_null17h895f1ebadc19f654E
	.p2align	4, 0x90
__ZN4core3ptr7mut_ptr31_$LT$impl$u20$$BP$mut$u20$T$GT$7is_null17h895f1ebadc19f654E:
Lfunc_begin65:
	.loc	23 35 0
	.cfi_startproc
	pushq	%rbp
	.cfi_def_cfa_offset 16
	.cfi_offset %rbp, -16
	movq	%rsp, %rbp
	.cfi_def_cfa_register %rbp
	subq	$48, %rsp
	movq	%rdi, -40(%rbp)
Ltmp260:
	.loc	23 52 36 prologue_end
	movq	%rdi, -48(%rbp)
	.loc	23 52 18 is_stmt 0
	movq	-48(%rbp), %rax
	movq	%rax, -32(%rbp)
Ltmp261:
	.loc	23 38 13 is_stmt 1
	movq	%rax, -24(%rbp)
Ltmp262:
	.loc	23 215 33
	movq	%rax, -16(%rbp)
	.loc	23 215 18 is_stmt 0
	movq	%rax, -8(%rbp)
Ltmp263:
	.loc	23 38 13 is_stmt 1
	cmpq	$0, -8(%rbp)
	sete	%al
Ltmp264:
	.loc	23 53 6
	andb	$1, %al
	movzbl	%al, %eax
	addq	$48, %rsp
	popq	%rbp
	retq
Ltmp265:
Lfunc_end65:
	.cfi_endproc

	.globl	__ZN4core3ptr7mut_ptr31_$LT$impl$u20$$BP$mut$u20$T$GT$7is_null17ha1b5caf55b4c2214E
	.p2align	4, 0x90
__ZN4core3ptr7mut_ptr31_$LT$impl$u20$$BP$mut$u20$T$GT$7is_null17ha1b5caf55b4c2214E:
Lfunc_begin66:
	.loc	23 35 0
	.cfi_startproc
	pushq	%rbp
	.cfi_def_cfa_offset 16
	.cfi_offset %rbp, -16
	movq	%rsp, %rbp
	.cfi_def_cfa_register %rbp
	subq	$48, %rsp
	movq	%rdi, -40(%rbp)
Ltmp266:
	.loc	23 52 36 prologue_end
	movq	%rdi, -48(%rbp)
	.loc	23 52 18 is_stmt 0
	movq	-48(%rbp), %rax
	movq	%rax, -32(%rbp)
Ltmp267:
	.loc	23 38 13 is_stmt 1
	movq	%rax, -24(%rbp)
Ltmp268:
	.loc	23 215 33
	movq	%rax, -16(%rbp)
	.loc	23 215 18 is_stmt 0
	movq	%rax, -8(%rbp)
Ltmp269:
	.loc	23 38 13 is_stmt 1
	cmpq	$0, -8(%rbp)
	sete	%al
Ltmp270:
	.loc	23 53 6
	andb	$1, %al
	movzbl	%al, %eax
	addq	$48, %rsp
	popq	%rbp
	retq
Ltmp271:
Lfunc_end66:
	.cfi_endproc

	.globl	__ZN4core3ptr7mut_ptr31_$LT$impl$u20$$BP$mut$u20$T$GT$7is_null17hd383d9cc2e3f945bE
	.p2align	4, 0x90
__ZN4core3ptr7mut_ptr31_$LT$impl$u20$$BP$mut$u20$T$GT$7is_null17hd383d9cc2e3f945bE:
Lfunc_begin67:
	.loc	23 35 0
	.cfi_startproc
	pushq	%rbp
	.cfi_def_cfa_offset 16
	.cfi_offset %rbp, -16
	movq	%rsp, %rbp
	.cfi_def_cfa_register %rbp
	subq	$48, %rsp
	movq	%rdi, -40(%rbp)
Ltmp272:
	.loc	23 52 36 prologue_end
	movq	%rdi, -48(%rbp)
	.loc	23 52 18 is_stmt 0
	movq	-48(%rbp), %rax
	movq	%rax, -32(%rbp)
Ltmp273:
	.loc	23 38 13 is_stmt 1
	movq	%rax, -24(%rbp)
Ltmp274:
	.loc	23 215 33
	movq	%rax, -16(%rbp)
	.loc	23 215 18 is_stmt 0
	movq	%rax, -8(%rbp)
Ltmp275:
	.loc	23 38 13 is_stmt 1
	cmpq	$0, -8(%rbp)
	sete	%al
Ltmp276:
	.loc	23 53 6
	andb	$1, %al
	movzbl	%al, %eax
	addq	$48, %rsp
	popq	%rbp
	retq
Ltmp277:
Lfunc_end67:
	.cfi_endproc

	.globl	__ZN4core3ptr8non_null16NonNull$LT$T$GT$3new17hbe07f8c52c575838E
	.p2align	4, 0x90
__ZN4core3ptr8non_null16NonNull$LT$T$GT$3new17hbe07f8c52c575838E:
Lfunc_begin68:
	.loc	12 222 0
	.cfi_startproc
	pushq	%rbp
	.cfi_def_cfa_offset 16
	.cfi_offset %rbp, -16
	movq	%rsp, %rbp
	.cfi_def_cfa_register %rbp
	subq	$88, %rsp
	movq	%rdi, -88(%rbp)
	movq	%rdi, -56(%rbp)
Ltmp278:
	.loc	12 223 13 prologue_end
	movq	%rdi, -48(%rbp)
Ltmp279:
	.loc	23 52 36
	movq	%rdi, -64(%rbp)
	.loc	23 52 18 is_stmt 0
	movq	-64(%rbp), %rax
	movq	%rax, -40(%rbp)
Ltmp280:
	.loc	23 38 13 is_stmt 1
	movq	%rax, -32(%rbp)
Ltmp281:
	.loc	23 215 33
	movq	%rax, -24(%rbp)
	.loc	23 215 18 is_stmt 0
	movq	%rax, -16(%rbp)
Ltmp282:
	.loc	23 38 13 is_stmt 1
	cmpq	$0, -16(%rbp)
	sete	%al
Ltmp283:
	.loc	12 223 12
	xorb	$-1, %al
	testb	$1, %al
	jne	LBB68_2
	.loc	12 227 13
	movq	$0, -80(%rbp)
	.loc	12 223 9
	jmp	LBB68_3
LBB68_2:
	.loc	12 0 9 is_stmt 0
	movq	-88(%rbp), %rax
	.loc	12 225 47 is_stmt 1
	movq	%rax, -8(%rbp)
Ltmp284:
	.loc	12 201 13
	movq	%rax, -72(%rbp)
Ltmp285:
	.loc	12 225 13
	movq	-72(%rbp), %rax
	movq	%rax, -80(%rbp)
LBB68_3:
	.loc	12 229 6
	movq	-80(%rbp), %rax
	addq	$88, %rsp
	popq	%rbp
	retq
Ltmp286:
Lfunc_end68:
	.cfi_endproc

	.globl	__ZN4core3ptr8non_null26NonNull$LT$$u5b$T$u5d$$GT$20slice_from_raw_parts17ha7a2a17f681cd444E
	.p2align	4, 0x90
__ZN4core3ptr8non_null26NonNull$LT$$u5b$T$u5d$$GT$20slice_from_raw_parts17ha7a2a17f681cd444E:
Lfunc_begin69:
	.loc	12 482 0
	.cfi_startproc
	pushq	%rbp
	.cfi_def_cfa_offset 16
	.cfi_offset %rbp, -16
	movq	%rsp, %rbp
	.cfi_def_cfa_register %rbp
	subq	$128, %rsp
	movq	%rdi, -80(%rbp)
	movq	%rsi, -72(%rbp)
Ltmp287:
	.loc	12 484 70 prologue_end
	movq	%rdi, -64(%rbp)
Ltmp288:
	.loc	12 326 9
	movq	%rdi, -56(%rbp)
Ltmp289:
	.loc	12 484 85
	movq	%rsi, -48(%rbp)
Ltmp290:
	.loc	7 766 24
	movq	%rdi, -40(%rbp)
Ltmp291:
	.loc	23 60 9
	movq	%rdi, -32(%rbp)
Ltmp292:
	.loc	7 766 37
	movq	%rsi, -24(%rbp)
Ltmp293:
	.loc	8 135 36
	movq	%rdi, -96(%rbp)
	movq	%rsi, -88(%rbp)
	.loc	8 135 14 is_stmt 0
	movq	-96(%rbp), %rcx
	movq	-88(%rbp), %rax
	movq	%rcx, -112(%rbp)
	movq	%rax, -104(%rbp)
	movq	-112(%rbp), %rcx
	movq	-104(%rbp), %rax
	movq	%rcx, -16(%rbp)
	movq	%rax, -8(%rbp)
Ltmp294:
	.loc	12 201 13 is_stmt 1
	movq	%rcx, -128(%rbp)
	movq	%rax, -120(%rbp)
Ltmp295:
	.loc	12 485 6
	movq	-128(%rbp), %rax
	movq	-120(%rbp), %rdx
	addq	$128, %rsp
	popq	%rbp
	retq
Ltmp296:
Lfunc_end69:
	.cfi_endproc

	.globl	__ZN4core3ptr9const_ptr33_$LT$impl$u20$$BP$const$u20$T$GT$7is_null17h098d9fb94f78fdceE
	.p2align	4, 0x90
__ZN4core3ptr9const_ptr33_$LT$impl$u20$$BP$const$u20$T$GT$7is_null17h098d9fb94f78fdceE:
Lfunc_begin70:
	.loc	6 36 0
	.cfi_startproc
	pushq	%rbp
	.cfi_def_cfa_offset 16
	.cfi_offset %rbp, -16
	movq	%rsp, %rbp
	.cfi_def_cfa_register %rbp
	subq	$48, %rsp
	movq	%rdi, -40(%rbp)
Ltmp297:
	.loc	6 53 36 prologue_end
	movq	%rdi, -48(%rbp)
	.loc	6 53 18 is_stmt 0
	movq	-48(%rbp), %rax
	movq	%rax, -32(%rbp)
Ltmp298:
	.loc	6 39 13 is_stmt 1
	movq	%rax, -24(%rbp)
Ltmp299:
	.loc	6 209 33
	movq	%rax, -16(%rbp)
	.loc	6 209 18 is_stmt 0
	movq	%rax, -8(%rbp)
Ltmp300:
	.loc	6 39 13 is_stmt 1
	cmpq	$0, -8(%rbp)
	sete	%al
Ltmp301:
	.loc	6 54 6
	andb	$1, %al
	movzbl	%al, %eax
	addq	$48, %rsp
	popq	%rbp
	retq
Ltmp302:
Lfunc_end70:
	.cfi_endproc

	.globl	__ZN4core3ptr9const_ptr33_$LT$impl$u20$$BP$const$u20$T$GT$7is_null17h508ce25d2168c0cfE
	.p2align	4, 0x90
__ZN4core3ptr9const_ptr33_$LT$impl$u20$$BP$const$u20$T$GT$7is_null17h508ce25d2168c0cfE:
Lfunc_begin71:
	.loc	6 36 0
	.cfi_startproc
	pushq	%rbp
	.cfi_def_cfa_offset 16
	.cfi_offset %rbp, -16
	movq	%rsp, %rbp
	.cfi_def_cfa_register %rbp
	subq	$48, %rsp
	movq	%rdi, -40(%rbp)
Ltmp303:
	.loc	6 53 36 prologue_end
	movq	%rdi, -48(%rbp)
	.loc	6 53 18 is_stmt 0
	movq	-48(%rbp), %rax
	movq	%rax, -32(%rbp)
Ltmp304:
	.loc	6 39 13 is_stmt 1
	movq	%rax, -24(%rbp)
Ltmp305:
	.loc	6 209 33
	movq	%rax, -16(%rbp)
	.loc	6 209 18 is_stmt 0
	movq	%rax, -8(%rbp)
Ltmp306:
	.loc	6 39 13 is_stmt 1
	cmpq	$0, -8(%rbp)
	sete	%al
Ltmp307:
	.loc	6 54 6
	andb	$1, %al
	movzbl	%al, %eax
	addq	$48, %rsp
	popq	%rbp
	retq
Ltmp308:
Lfunc_end71:
	.cfi_endproc

	.globl	__ZN4core3ptr9const_ptr33_$LT$impl$u20$$BP$const$u20$T$GT$7is_null17h655812aed581712cE
	.p2align	4, 0x90
__ZN4core3ptr9const_ptr33_$LT$impl$u20$$BP$const$u20$T$GT$7is_null17h655812aed581712cE:
Lfunc_begin72:
	.loc	6 36 0
	.cfi_startproc
	pushq	%rbp
	.cfi_def_cfa_offset 16
	.cfi_offset %rbp, -16
	movq	%rsp, %rbp
	.cfi_def_cfa_register %rbp
	subq	$48, %rsp
	movq	%rdi, -40(%rbp)
Ltmp309:
	.loc	6 53 36 prologue_end
	movq	%rdi, -48(%rbp)
	.loc	6 53 18 is_stmt 0
	movq	-48(%rbp), %rax
	movq	%rax, -32(%rbp)
Ltmp310:
	.loc	6 39 13 is_stmt 1
	movq	%rax, -24(%rbp)
Ltmp311:
	.loc	6 209 33
	movq	%rax, -16(%rbp)
	.loc	6 209 18 is_stmt 0
	movq	%rax, -8(%rbp)
Ltmp312:
	.loc	6 39 13 is_stmt 1
	cmpq	$0, -8(%rbp)
	sete	%al
Ltmp313:
	.loc	6 54 6
	andb	$1, %al
	movzbl	%al, %eax
	addq	$48, %rsp
	popq	%rbp
	retq
Ltmp314:
Lfunc_end72:
	.cfi_endproc

	.globl	__ZN4core3ptr9const_ptr33_$LT$impl$u20$$BP$const$u20$T$GT$7is_null17ha546985450a90861E
	.p2align	4, 0x90
__ZN4core3ptr9const_ptr33_$LT$impl$u20$$BP$const$u20$T$GT$7is_null17ha546985450a90861E:
Lfunc_begin73:
	.loc	6 36 0
	.cfi_startproc
	pushq	%rbp
	.cfi_def_cfa_offset 16
	.cfi_offset %rbp, -16
	movq	%rsp, %rbp
	.cfi_def_cfa_register %rbp
	subq	$48, %rsp
	movq	%rdi, -40(%rbp)
Ltmp315:
	.loc	6 53 36 prologue_end
	movq	%rdi, -48(%rbp)
	.loc	6 53 18 is_stmt 0
	movq	-48(%rbp), %rax
	movq	%rax, -32(%rbp)
Ltmp316:
	.loc	6 39 13 is_stmt 1
	movq	%rax, -24(%rbp)
Ltmp317:
	.loc	6 209 33
	movq	%rax, -16(%rbp)
	.loc	6 209 18 is_stmt 0
	movq	%rax, -8(%rbp)
Ltmp318:
	.loc	6 39 13 is_stmt 1
	cmpq	$0, -8(%rbp)
	sete	%al
Ltmp319:
	.loc	6 54 6
	andb	$1, %al
	movzbl	%al, %eax
	addq	$48, %rsp
	popq	%rbp
	retq
Ltmp320:
Lfunc_end73:
	.cfi_endproc

	.globl	__ZN4core3ptr9const_ptr33_$LT$impl$u20$$BP$const$u20$T$GT$7is_null17hba4bd5b1fde37bc0E
	.p2align	4, 0x90
__ZN4core3ptr9const_ptr33_$LT$impl$u20$$BP$const$u20$T$GT$7is_null17hba4bd5b1fde37bc0E:
Lfunc_begin74:
	.loc	6 36 0
	.cfi_startproc
	pushq	%rbp
	.cfi_def_cfa_offset 16
	.cfi_offset %rbp, -16
	movq	%rsp, %rbp
	.cfi_def_cfa_register %rbp
	subq	$48, %rsp
	movq	%rdi, -40(%rbp)
Ltmp321:
	.loc	6 53 36 prologue_end
	movq	%rdi, -48(%rbp)
	.loc	6 53 18 is_stmt 0
	movq	-48(%rbp), %rax
	movq	%rax, -32(%rbp)
Ltmp322:
	.loc	6 39 13 is_stmt 1
	movq	%rax, -24(%rbp)
Ltmp323:
	.loc	6 209 33
	movq	%rax, -16(%rbp)
	.loc	6 209 18 is_stmt 0
	movq	%rax, -8(%rbp)
Ltmp324:
	.loc	6 39 13 is_stmt 1
	cmpq	$0, -8(%rbp)
	sete	%al
Ltmp325:
	.loc	6 54 6
	andb	$1, %al
	movzbl	%al, %eax
	addq	$48, %rsp
	popq	%rbp
	retq
Ltmp326:
Lfunc_end74:
	.cfi_endproc

	.globl	__ZN4core3ptr9const_ptr33_$LT$impl$u20$$BP$const$u20$T$GT$7sub_ptr17hae8a5e12840a3f96E
	.p2align	4, 0x90
__ZN4core3ptr9const_ptr33_$LT$impl$u20$$BP$const$u20$T$GT$7sub_ptr17hae8a5e12840a3f96E:
Lfunc_begin75:
	.loc	6 791 0
	.cfi_startproc
	pushq	%rbp
	.cfi_def_cfa_offset 16
	.cfi_offset %rbp, -16
	movq	%rsp, %rbp
	.cfi_def_cfa_register %rbp
	subq	$64, %rsp
	movq	%rdi, -56(%rbp)
	movq	%rsi, -48(%rbp)
	movq	%rdi, -32(%rbp)
	movq	%rsi, -24(%rbp)
Ltmp327:
	.loc	20 309 5 prologue_end
	movq	$1, -16(%rbp)
Ltmp328:
	.loc	6 806 17
	movb	$1, %al
	testb	$1, %al
	jne	LBB75_2
	movb	$0, -33(%rbp)
	jmp	LBB75_3
LBB75_2:
	movb	$1, -33(%rbp)
LBB75_3:
	.loc	6 806 9 is_stmt 0
	movb	-33(%rbp), %al
	xorb	$-1, %al
	testb	$1, %al
	jne	LBB75_5
	.loc	6 0 9
	movq	-48(%rbp), %rcx
	movq	-56(%rbp), %rax
	.loc	6 808 18 is_stmt 1
	subq	%rcx, %rax
	shrq	$0, %rax
	movq	%rax, -8(%rbp)
	movq	-8(%rbp), %rax
Ltmp329:
	.loc	6 809 6
	addq	$64, %rsp
	popq	%rbp
	retq
LBB75_5:
Ltmp330:
	.loc	6 806 9
	leaq	l___unnamed_7(%rip), %rdi
	leaq	l___unnamed_8(%rip), %rdx
	movl	$73, %esi
	callq	__ZN4core9panicking5panic17hc1bc45270cf64b03E
Ltmp331:
Lfunc_end75:
	.cfi_endproc

	.globl	__ZN4core3str11validations15next_code_point17h828386dbf8709789E
	.p2align	4, 0x90
__ZN4core3str11validations15next_code_point17h828386dbf8709789E:
Lfunc_begin76:
	.file	24 "/rustc/2c8cc343237b8f7d5a3c3703e3a87f2eb2c54a74/library/core/src/str" "validations.rs"
	.loc	24 36 0
	.cfi_startproc
	pushq	%rbp
	.cfi_def_cfa_offset 16
	.cfi_offset %rbp, -16
	movq	%rsp, %rbp
	.cfi_def_cfa_register %rbp
	subq	$144, %rsp
	movq	%rdi, -128(%rbp)
	movq	%rdi, -88(%rbp)
Ltmp332:
	.loc	24 38 14 prologue_end
	callq	__ZN91_$LT$core..slice..iter..Iter$LT$T$GT$$u20$as$u20$core..iter..traits..iterator..Iterator$GT$4next17hc68f72d700275be3E
	movq	%rax, -104(%rbp)
Ltmp333:
	.file	25 "/rustc/2c8cc343237b8f7d5a3c3703e3a87f2eb2c54a74/library/core/src" "option.rs"
	.loc	25 2407 15
	movq	-104(%rbp), %rdx
	movl	$1, %eax
	xorl	%ecx, %ecx
	cmpq	$0, %rdx
	cmoveq	%rcx, %rax
	.loc	25 2407 9 is_stmt 0
	cmpq	$0, %rax
	jne	LBB76_2
	.loc	25 2409 21 is_stmt 1
	movq	$0, -112(%rbp)
	.loc	25 2409 44 is_stmt 0
	jmp	LBB76_3
LBB76_2:
	.loc	25 2408 18 is_stmt 1
	movq	-104(%rbp), %rax
	movq	%rax, -64(%rbp)
Ltmp334:
	.loc	25 2408 24 is_stmt 0
	movq	%rax, -112(%rbp)
Ltmp335:
LBB76_3:
	.loc	24 38 14 is_stmt 1
	movq	-112(%rbp), %rdx
	xorl	%eax, %eax
	movl	$1, %ecx
	cmpq	$0, %rdx
	cmoveq	%rcx, %rax
	cmpq	$0, %rax
	jne	LBB76_5
	movq	-112(%rbp), %rax
	movq	%rax, -56(%rbp)
	.loc	24 38 13 is_stmt 0
	movb	(%rax), %al
	movb	%al, -129(%rbp)
	movb	%al, -42(%rbp)
Ltmp336:
	.loc	24 39 8 is_stmt 1
	cmpb	$-128, %al
	jb	LBB76_8
	jmp	LBB76_7
Ltmp337:
LBB76_5:
	.loc	25 2420 21
	movl	$0, -120(%rbp)
Ltmp338:
LBB76_6:
	.loc	24 70 2
	jmp	LBB76_9
LBB76_7:
	.loc	24 0 2 is_stmt 0
	movb	-129(%rbp), %al
	movq	-128(%rbp), %rdi
Ltmp339:
	.loc	24 46 32 is_stmt 1
	movb	%al, -41(%rbp)
Ltmp340:
	.loc	24 12 5
	andb	$31, %al
	movzbl	%al, %eax
	movl	%eax, -136(%rbp)
	movl	%eax, -40(%rbp)
Ltmp341:
	.loc	24 49 23
	callq	__ZN91_$LT$core..slice..iter..Iter$LT$T$GT$$u20$as$u20$core..iter..traits..iterator..Iterator$GT$4next17hc68f72d700275be3E
	movq	%rax, %rdi
	leaq	l___unnamed_9(%rip), %rsi
	callq	__ZN4core6option15Option$LT$T$GT$16unwrap_unchecked17h7e04d7a8a8db720aE
	movl	-136(%rbp), %ecx
	movq	%rax, %rdx
	movb	-129(%rbp), %al
	.loc	24 49 22 is_stmt 0
	movb	(%rdx), %dl
	movb	%dl, -130(%rbp)
	movb	%dl, -33(%rbp)
Ltmp342:
	.loc	24 50 37 is_stmt 1
	movl	%ecx, -32(%rbp)
	.loc	24 50 43 is_stmt 0
	movb	%dl, -26(%rbp)
Ltmp343:
	.loc	24 18 5 is_stmt 1
	shll	$6, %ecx
	.loc	24 18 17 is_stmt 0
	andb	$63, %dl
	movzbl	%dl, %edx
	.loc	24 18 5
	orl	%edx, %ecx
	movl	%ecx, -92(%rbp)
Ltmp344:
	.loc	24 51 8 is_stmt 1
	cmpb	$-32, %al
	jae	LBB76_11
	jmp	LBB76_10
Ltmp345:
LBB76_8:
	.loc	24 0 8 is_stmt 0
	movb	-129(%rbp), %al
	.loc	24 40 21 is_stmt 1
	movzbl	%al, %eax
	.loc	24 40 16 is_stmt 0
	movl	%eax, -116(%rbp)
	movl	$1, -120(%rbp)
	.file	26 "/Users/natalie/.cargo/registry/src/github.com-1ecc6299db9ec823/objc-0.2.7" "src/lib.rs"
	.loc	26 1 1 is_stmt 1
	jmp	LBB76_6
Ltmp346:
LBB76_9:
	.loc	24 70 2
	movl	-120(%rbp), %eax
	movl	-116(%rbp), %edx
	addq	$144, %rsp
	popq	%rbp
	retq
LBB76_10:
Ltmp347:
	.loc	24 69 10
	movl	-92(%rbp), %eax
	.loc	24 69 5 is_stmt 0
	movl	%eax, -116(%rbp)
	movl	$1, -120(%rbp)
Ltmp348:
	.loc	24 70 2 is_stmt 1
	jmp	LBB76_9
LBB76_11:
	.loc	24 0 2 is_stmt 0
	movq	-128(%rbp), %rdi
Ltmp349:
	.loc	24 56 27 is_stmt 1
	callq	__ZN91_$LT$core..slice..iter..Iter$LT$T$GT$$u20$as$u20$core..iter..traits..iterator..Iterator$GT$4next17hc68f72d700275be3E
	movq	%rax, %rdi
	leaq	l___unnamed_10(%rip), %rsi
	callq	__ZN4core6option15Option$LT$T$GT$16unwrap_unchecked17h7e04d7a8a8db720aE
	movb	-130(%rbp), %dl
	movl	-136(%rbp), %ecx
	movq	%rax, %rsi
	movb	-129(%rbp), %al
	.loc	24 56 26 is_stmt 0
	movb	(%rsi), %sil
	movb	%sil, -25(%rbp)
Ltmp350:
	.loc	24 57 38 is_stmt 1
	andb	$63, %dl
	movzbl	%dl, %edx
	movl	%edx, -24(%rbp)
	.loc	24 57 62 is_stmt 0
	movb	%sil, -17(%rbp)
Ltmp351:
	.loc	24 18 5 is_stmt 1
	shll	$6, %edx
	.loc	24 18 17 is_stmt 0
	andb	$63, %sil
	movzbl	%sil, %esi
	.loc	24 18 5
	orl	%esi, %edx
	movl	%edx, -140(%rbp)
	movl	%edx, -16(%rbp)
Ltmp352:
	.loc	24 58 14 is_stmt 1
	shll	$12, %ecx
	.loc	24 58 9 is_stmt 0
	orl	%edx, %ecx
	movl	%ecx, -92(%rbp)
	.loc	24 59 12 is_stmt 1
	cmpb	$-16, %al
	jae	LBB76_13
Ltmp353:
LBB76_12:
	.loc	24 51 5
	jmp	LBB76_10
LBB76_13:
	.loc	24 0 5 is_stmt 0
	movq	-128(%rbp), %rdi
Ltmp354:
	.loc	24 64 31 is_stmt 1
	callq	__ZN91_$LT$core..slice..iter..Iter$LT$T$GT$$u20$as$u20$core..iter..traits..iterator..Iterator$GT$4next17hc68f72d700275be3E
	movq	%rax, %rdi
	leaq	l___unnamed_11(%rip), %rsi
	callq	__ZN4core6option15Option$LT$T$GT$16unwrap_unchecked17h7e04d7a8a8db720aE
	movl	-140(%rbp), %ecx
	movq	%rax, %rdx
	movl	-136(%rbp), %eax
	.loc	24 64 30 is_stmt 0
	movb	(%rdx), %dl
	movb	%dl, -9(%rbp)
Ltmp355:
	.loc	24 65 18 is_stmt 1
	andl	$7, %eax
	shll	$18, %eax
	.loc	24 65 56 is_stmt 0
	movl	%ecx, -8(%rbp)
	.loc	24 65 61
	movb	%dl, -1(%rbp)
Ltmp356:
	.loc	24 18 5 is_stmt 1
	shll	$6, %ecx
	.loc	24 18 17 is_stmt 0
	andb	$63, %dl
	movzbl	%dl, %edx
	.loc	24 18 5
	orl	%edx, %ecx
Ltmp357:
	.loc	24 65 13 is_stmt 1
	orl	%ecx, %eax
	movl	%eax, -92(%rbp)
Ltmp358:
	.loc	24 59 9
	jmp	LBB76_12
Ltmp359:
Lfunc_end76:
	.cfi_endproc

	.globl	__ZN4core3str21_$LT$impl$u20$str$GT$17trim_left_matches17hb2be7b58d199db2aE
	.p2align	4, 0x90
__ZN4core3str21_$LT$impl$u20$str$GT$17trim_left_matches17hb2be7b58d199db2aE:
Lfunc_begin77:
	.file	27 "/rustc/2c8cc343237b8f7d5a3c3703e3a87f2eb2c54a74/library/core/src/str" "mod.rs"
	.loc	27 2257 0
	.cfi_startproc
	pushq	%rbp
	.cfi_def_cfa_offset 16
	.cfi_offset %rbp, -16
	movq	%rsp, %rbp
	.cfi_def_cfa_register %rbp
	subq	$32, %rsp
	movq	%rdi, -32(%rbp)
	movq	%rsi, -24(%rbp)
	movq	%rdx, -16(%rbp)
	movq	%rcx, -8(%rbp)
Ltmp360:
	.loc	27 2258 9 prologue_end
	callq	__ZN4core3str21_$LT$impl$u20$str$GT$18trim_start_matches17h16134fd77708e01eE
	.loc	27 2259 6
	addq	$32, %rsp
	popq	%rbp
	retq
Ltmp361:
Lfunc_end77:
	.cfi_endproc

	.globl	__ZN4core3str21_$LT$impl$u20$str$GT$18trim_start_matches17h16134fd77708e01eE
	.p2align	4, 0x90
__ZN4core3str21_$LT$impl$u20$str$GT$18trim_start_matches17h16134fd77708e01eE:
Lfunc_begin78:
	.loc	27 2107 0
	.cfi_startproc
	.cfi_personality 155, _rust_eh_personality
	.cfi_lsda 16, Lexception10
	pushq	%rbp
	.cfi_def_cfa_offset 16
	.cfi_offset %rbp, -16
	movq	%rsp, %rbp
	.cfi_def_cfa_register %rbp
	subq	$352, %rsp
	movq	%rdi, -320(%rbp)
	movq	%rsi, -312(%rbp)
	movq	%rdx, -304(%rbp)
	movq	%rcx, -296(%rbp)
	movq	%rdi, -168(%rbp)
	movq	%rsi, -160(%rbp)
	movq	%rdx, -152(%rbp)
	movq	%rcx, -144(%rbp)
Ltmp370:
	.loc	27 2108 13 prologue_end
	movb	$1, -169(%rbp)
	.loc	27 2108 21 is_stmt 0
	movq	%rdi, -136(%rbp)
	movq	%rsi, -128(%rbp)
Ltmp371:
	.loc	27 160 9 is_stmt 1
	movq	%rdi, -120(%rbp)
	movq	%rsi, -112(%rbp)
Ltmp372:
	.loc	27 327 18
	movq	%rdi, -104(%rbp)
	movq	%rsi, -96(%rbp)
	movq	-96(%rbp), %rax
	movq	%rax, -288(%rbp)
Ltmp373:
	.loc	27 0 18 is_stmt 0
	movq	-312(%rbp), %r8
	movq	-320(%rbp), %rcx
	movq	-296(%rbp), %rdx
	movq	-304(%rbp), %rsi
	movq	-288(%rbp), %rax
	.loc	27 160 9 is_stmt 1
	movq	%rax, -280(%rbp)
Ltmp374:
	.loc	27 2109 27
	movb	$0, -169(%rbp)
Ltmp362:
	leaq	-272(%rbp), %rdi
	callq	__ZN66_$LT$$RF$$u5b$char$u5d$$u20$as$u20$core..str..pattern..Pattern$GT$13into_searcher17h7263dcbac6914f98E
Ltmp363:
	jmp	LBB78_4
Ltmp375:
LBB78_2:
	.loc	27 2115 5
	testb	$1, -169(%rbp)
	jne	LBB78_14
	jmp	LBB78_13
LBB78_3:
Ltmp364:
	.loc	27 0 5 is_stmt 0
	movq	%rax, %rcx
	movl	%edx, %eax
	movq	%rcx, -88(%rbp)
	movl	%eax, -80(%rbp)
	jmp	LBB78_2
LBB78_4:
Ltmp365:
	leaq	-216(%rbp), %rdi
	leaq	-272(%rbp), %rsi
Ltmp376:
	.loc	27 2110 31 is_stmt 1
	callq	__ZN86_$LT$core..str..pattern..CharSliceSearcher$u20$as$u20$core..str..pattern..Searcher$GT$11next_reject17hb31970ff17313ccfE
Ltmp366:
	jmp	LBB78_7
Ltmp377:
LBB78_5:
	.loc	27 2115 5
	jmp	LBB78_2
LBB78_6:
Ltmp369:
	.loc	27 0 5 is_stmt 0
	movq	%rax, %rcx
	movl	%edx, %eax
	movq	%rcx, -88(%rbp)
	movl	%eax, -80(%rbp)
	jmp	LBB78_5
LBB78_7:
Ltmp378:
	.loc	27 2110 16 is_stmt 1
	cmpq	$1, -216(%rbp)
	jne	LBB78_9
	.loc	27 2110 22 is_stmt 0
	movq	-208(%rbp), %rax
	movq	%rax, -72(%rbp)
	.loc	27 2111 13 is_stmt 1
	movq	%rax, -280(%rbp)
Ltmp379:
LBB78_9:
	.loc	27 0 13 is_stmt 0
	movq	-312(%rbp), %rax
	movq	-320(%rbp), %rcx
	.loc	27 2114 18 is_stmt 1
	movq	%rcx, -64(%rbp)
	movq	%rax, -56(%rbp)
	.loc	27 2114 37 is_stmt 0
	movq	-280(%rbp), %rdx
	movq	%rdx, -336(%rbp)
	.loc	27 2114 40
	movq	%rcx, -48(%rbp)
	movq	%rax, -40(%rbp)
Ltmp380:
	.loc	27 160 9 is_stmt 1
	movq	%rcx, -32(%rbp)
	movq	%rax, -24(%rbp)
Ltmp381:
	.loc	27 327 18
	movq	%rcx, -16(%rbp)
	movq	%rax, -8(%rbp)
	movq	-8(%rbp), %rax
	movq	%rax, -328(%rbp)
Ltmp382:
	.loc	27 0 18 is_stmt 0
	movq	-312(%rbp), %rcx
	movq	-320(%rbp), %rdx
	movq	-328(%rbp), %rax
	movq	-336(%rbp), %rsi
	.loc	27 2114 37 is_stmt 1
	movq	%rsi, -192(%rbp)
	movq	%rax, -184(%rbp)
Ltmp383:
	.loc	27 511 20
	movq	-192(%rbp), %rdi
	movq	-184(%rbp), %rsi
Ltmp367:
	callq	__ZN4core3str6traits108_$LT$impl$u20$core..slice..index..SliceIndex$LT$str$GT$$u20$for$u20$core..ops..range..Range$LT$usize$GT$$GT$13get_unchecked17h4c25e360f2e2bc4fE
Ltmp368:
	movq	%rdx, -352(%rbp)
	movq	%rax, -344(%rbp)
	jmp	LBB78_11
Ltmp384:
LBB78_11:
	.loc	27 0 20 is_stmt 0
	movq	-352(%rbp), %rdx
	movq	-344(%rbp), %rax
	.loc	27 2115 6 is_stmt 1
	addq	$352, %rsp
	popq	%rbp
	retq
LBB78_13:
	.loc	27 2107 5
	movq	-88(%rbp), %rdi
	callq	__Unwind_Resume
LBB78_14:
	.loc	27 2115 5
	jmp	LBB78_13
Ltmp385:
Lfunc_end78:
	.cfi_endproc
	.section	__TEXT,__gcc_except_tab
	.p2align	2
GCC_except_table78:
Lexception10:
	.byte	255
	.byte	255
	.byte	1
	.uleb128 Lcst_end10-Lcst_begin10
Lcst_begin10:
	.uleb128 Ltmp362-Lfunc_begin78
	.uleb128 Ltmp363-Ltmp362
	.uleb128 Ltmp364-Lfunc_begin78
	.byte	0
	.uleb128 Ltmp365-Lfunc_begin78
	.uleb128 Ltmp368-Ltmp365
	.uleb128 Ltmp369-Lfunc_begin78
	.byte	0
	.uleb128 Ltmp368-Lfunc_begin78
	.uleb128 Lfunc_end78-Ltmp368
	.byte	0
	.byte	0
Lcst_end10:
	.p2align	2

	.section	__TEXT,__text,regular,pure_instructions
	.p2align	4, 0x90
__ZN4core3str21_$LT$impl$u20$str$GT$3len17hb7c65d124adb9ceeE:
Lfunc_begin79:
	.loc	27 159 0
	.cfi_startproc
	pushq	%rbp
	.cfi_def_cfa_offset 16
	.cfi_offset %rbp, -16
	movq	%rsp, %rbp
	.cfi_def_cfa_register %rbp
	subq	$48, %rsp
	movq	%rdi, -48(%rbp)
	movq	%rsi, -40(%rbp)
Ltmp386:
	.loc	27 160 9 prologue_end
	movq	%rdi, -32(%rbp)
	movq	%rsi, -24(%rbp)
Ltmp387:
	.loc	27 327 18
	movq	%rdi, -16(%rbp)
	movq	%rsi, -8(%rbp)
	movq	-8(%rbp), %rax
Ltmp388:
	.loc	27 161 6
	addq	$48, %rsp
	popq	%rbp
	retq
Ltmp389:
Lfunc_end79:
	.cfi_endproc

	.p2align	4, 0x90
__ZN4core3str21_$LT$impl$u20$str$GT$5bytes17hcad0a8d394b09269E:
Lfunc_begin80:
	.loc	27 864 0
	.cfi_startproc
	pushq	%rbp
	.cfi_def_cfa_offset 16
	.cfi_offset %rbp, -16
	movq	%rsp, %rbp
	.cfi_def_cfa_register %rbp
	subq	$80, %rsp
	movq	%rdi, -64(%rbp)
	movq	%rsi, -56(%rbp)
Ltmp390:
	.loc	27 865 15 prologue_end
	movq	%rdi, -48(%rbp)
	movq	%rsi, -40(%rbp)
Ltmp391:
	.loc	27 327 18
	movq	%rdi, -32(%rbp)
	movq	%rsi, -24(%rbp)
	movq	-32(%rbp), %rdi
	movq	-24(%rbp), %rsi
Ltmp392:
	.loc	27 865 15
	movq	%rdi, -16(%rbp)
	movq	%rsi, -8(%rbp)
Ltmp393:
	.loc	19 742 9
	callq	__ZN4core5slice4iter13Iter$LT$T$GT$3new17hc1c791524a04eb27E
	movq	%rax, %rdi
	movq	%rdx, %rsi
Ltmp394:
	.loc	27 865 15
	callq	__ZN4core4iter6traits8iterator8Iterator6copied17ha1a81cd1437d7cc7E
	.loc	27 865 9 is_stmt 0
	movq	%rax, -80(%rbp)
	movq	%rdx, -72(%rbp)
	.loc	27 866 6 is_stmt 1
	movq	-80(%rbp), %rax
	movq	-72(%rbp), %rdx
	addq	$80, %rsp
	popq	%rbp
	retq
Ltmp395:
Lfunc_end80:
	.cfi_endproc

	.p2align	4, 0x90
__ZN4core3str21_$LT$impl$u20$str$GT$5chars17h9d0aaaa366bea169E:
Lfunc_begin81:
	.loc	27 782 0
	.cfi_startproc
	pushq	%rbp
	.cfi_def_cfa_offset 16
	.cfi_offset %rbp, -16
	movq	%rsp, %rbp
	.cfi_def_cfa_register %rbp
	subq	$80, %rsp
	movq	%rdi, -64(%rbp)
	movq	%rsi, -56(%rbp)
Ltmp396:
	.loc	27 783 23 prologue_end
	movq	%rdi, -48(%rbp)
	movq	%rsi, -40(%rbp)
Ltmp397:
	.loc	27 327 18
	movq	%rdi, -32(%rbp)
	movq	%rsi, -24(%rbp)
	movq	-32(%rbp), %rdi
	movq	-24(%rbp), %rsi
Ltmp398:
	.loc	27 783 23
	movq	%rdi, -16(%rbp)
	movq	%rsi, -8(%rbp)
Ltmp399:
	.loc	19 742 9
	callq	__ZN4core5slice4iter13Iter$LT$T$GT$3new17hc1c791524a04eb27E
Ltmp400:
	.loc	27 783 9
	movq	%rax, -80(%rbp)
	movq	%rdx, -72(%rbp)
	.loc	27 784 6
	movq	-80(%rbp), %rax
	movq	-72(%rbp), %rdx
	addq	$80, %rsp
	popq	%rbp
	retq
Ltmp401:
Lfunc_end81:
	.cfi_endproc

	.p2align	4, 0x90
__ZN4core3str6traits108_$LT$impl$u20$core..slice..index..SliceIndex$LT$str$GT$$u20$for$u20$core..ops..range..Range$LT$usize$GT$$GT$13get_unchecked17h4c25e360f2e2bc4fE:
Lfunc_begin82:
	.file	28 "/rustc/2c8cc343237b8f7d5a3c3703e3a87f2eb2c54a74/library/core/src/str" "traits.rs"
	.loc	28 197 0
	.cfi_startproc
	pushq	%rbp
	.cfi_def_cfa_offset 16
	.cfi_offset %rbp, -16
	movq	%rsp, %rbp
	.cfi_def_cfa_register %rbp
	subq	$192, %rsp
	movq	%rdi, -160(%rbp)
	movq	%rsi, -152(%rbp)
	movq	%rdx, -144(%rbp)
	movq	%rcx, -136(%rbp)
Ltmp402:
	.loc	28 198 21 prologue_end
	movq	%rdx, -128(%rbp)
	movq	%rcx, -120(%rbp)
Ltmp403:
	.loc	28 201 28
	movq	%rdx, -112(%rbp)
	movq	%rcx, -104(%rbp)
Ltmp404:
	.loc	6 1650 9
	movq	%rdx, -96(%rbp)
Ltmp405:
	.loc	28 201 47
	movq	%rdi, -88(%rbp)
Ltmp406:
	.loc	6 932 18
	movq	%rdx, -80(%rbp)
	.loc	6 932 30 is_stmt 0
	movq	%rdi, -72(%rbp)
Ltmp407:
	.loc	6 473 18 is_stmt 1
	addq	%rdi, %rdx
	movq	%rdx, -64(%rbp)
	movq	-64(%rbp), %rax
	movq	%rax, -56(%rbp)
Ltmp408:
	.loc	28 202 19
	subq	%rdi, %rsi
	movq	%rsi, -48(%rbp)
Ltmp409:
	.loc	28 203 35
	movq	%rax, -40(%rbp)
	.loc	28 203 40 is_stmt 0
	movq	%rsi, -32(%rbp)
Ltmp410:
	.loc	7 734 20 is_stmt 1
	movq	%rax, -24(%rbp)
Ltmp411:
	.loc	6 61 9
	movq	%rax, -16(%rbp)
Ltmp412:
	.loc	7 734 33
	movq	%rsi, -8(%rbp)
Ltmp413:
	.loc	8 118 36
	movq	%rax, -176(%rbp)
	movq	%rsi, -168(%rbp)
	.loc	8 118 14 is_stmt 0
	movq	-176(%rbp), %rcx
	movq	-168(%rbp), %rax
	movq	%rcx, -192(%rbp)
	movq	%rax, -184(%rbp)
	movq	-192(%rbp), %rax
	movq	-184(%rbp), %rdx
Ltmp414:
	.loc	28 204 6 is_stmt 1
	addq	$192, %rsp
	popq	%rbp
	retq
Ltmp415:
Lfunc_end82:
	.cfi_endproc

	.p2align	4, 0x90
__ZN4core3str6traits54_$LT$impl$u20$core..cmp..PartialEq$u20$for$u20$str$GT$2eq17h6c37971531516a51E:
Lfunc_begin83:
	.loc	28 28 0
	.cfi_startproc
	pushq	%rbp
	.cfi_def_cfa_offset 16
	.cfi_offset %rbp, -16
	movq	%rsp, %rbp
	.cfi_def_cfa_register %rbp
	subq	$112, %rsp
	movq	%rdi, -80(%rbp)
	movq	%rsi, -72(%rbp)
	movq	%rdx, -64(%rbp)
	movq	%rcx, -56(%rbp)
Ltmp416:
	.loc	28 29 9 prologue_end
	movq	%rdi, -48(%rbp)
	movq	%rsi, -40(%rbp)
Ltmp417:
	.loc	27 327 18
	movq	%rdi, -112(%rbp)
	movq	%rsi, -104(%rbp)
Ltmp418:
	.loc	28 29 9
	leaq	-112(%rbp), %rax
	movq	%rax, -32(%rbp)
	.loc	28 29 28 is_stmt 0
	movq	%rdx, -24(%rbp)
	movq	%rcx, -16(%rbp)
Ltmp419:
	.loc	27 327 18 is_stmt 1
	movq	%rdx, -96(%rbp)
	movq	%rcx, -88(%rbp)
Ltmp420:
	.loc	28 29 28
	leaq	-96(%rbp), %rax
	movq	%rax, -8(%rbp)
Ltmp421:
	.loc	11 1531 27
	movq	-112(%rbp), %rdi
	movq	-104(%rbp), %rsi
	.loc	11 1531 34 is_stmt 0
	movq	-96(%rbp), %rdx
	movq	-88(%rbp), %rcx
	.loc	11 1531 13
	callq	__ZN4core5slice3cmp81_$LT$impl$u20$core..cmp..PartialEq$LT$$u5b$B$u5d$$GT$$u20$for$u20$$u5b$A$u5d$$GT$2eq17hd1a9c2141ee73f83E
Ltmp422:
	.loc	28 30 6 is_stmt 1
	andb	$1, %al
	movzbl	%al, %eax
	addq	$112, %rsp
	popq	%rbp
	retq
Ltmp423:
Lfunc_end83:
	.cfi_endproc

	.globl	__ZN4core3str7pattern8Searcher11next_reject17h66b9de79926b86a0E
	.p2align	4, 0x90
__ZN4core3str7pattern8Searcher11next_reject17h66b9de79926b86a0E:
Lfunc_begin84:
	.file	29 "/rustc/2c8cc343237b8f7d5a3c3703e3a87f2eb2c54a74/library/core/src/str" "pattern.rs"
	.loc	29 248 0
	.cfi_startproc
	pushq	%rbp
	.cfi_def_cfa_offset 16
	.cfi_offset %rbp, -16
	movq	%rsp, %rbp
	.cfi_def_cfa_register %rbp
	subq	$96, %rsp
	movq	%rsi, -88(%rbp)
	movq	%rdi, -80(%rbp)
	movq	%rdi, -72(%rbp)
	movq	%rsi, -24(%rbp)
LBB84_1:
	movq	-88(%rbp), %rsi
	leaq	-64(%rbp), %rdi
Ltmp424:
	.loc	29 250 19 prologue_end
	callq	__ZN97_$LT$core..str..pattern..MultiCharEqSearcher$LT$C$GT$$u20$as$u20$core..str..pattern..Searcher$GT$4next17h8ceb764a79e4e622E
	movq	-64(%rbp), %rax
	movq	%rax, -96(%rbp)
	.loc	29 250 13 is_stmt 0
	subq	$1, %rax
	je	LBB84_3
	jmp	LBB84_6
LBB84_6:
	.loc	29 0 13
	movq	-96(%rbp), %rax
	.loc	29 250 13
	subq	$2, %rax
	je	LBB84_4
	jmp	LBB84_2
LBB84_2:
	.loc	26 1 1 is_stmt 1
	jmp	LBB84_1
LBB84_3:
	.loc	26 0 1 is_stmt 0
	movq	-80(%rbp), %rax
	.loc	29 251 36 is_stmt 1
	movq	-56(%rbp), %rdx
	movq	%rdx, -16(%rbp)
	.loc	29 251 39 is_stmt 0
	movq	-48(%rbp), %rcx
	movq	%rcx, -8(%rbp)
Ltmp425:
	.loc	29 251 57
	movq	%rdx, -40(%rbp)
	movq	%rcx, -32(%rbp)
	.loc	29 251 52
	movq	-40(%rbp), %rdx
	movq	-32(%rbp), %rcx
	movq	%rdx, 8(%rax)
	movq	%rcx, 16(%rax)
	movq	$1, (%rax)
Ltmp426:
	.loc	26 1 1 is_stmt 1
	jmp	LBB84_5
LBB84_4:
	.loc	26 0 1 is_stmt 0
	movq	-80(%rbp), %rax
	.loc	29 252 44 is_stmt 1
	movq	$0, (%rax)
LBB84_5:
	.loc	29 0 44 is_stmt 0
	movq	-72(%rbp), %rax
	.loc	29 256 6 is_stmt 1
	addq	$96, %rsp
	popq	%rbp
	retq
Ltmp427:
Lfunc_end84:
	.cfi_endproc

	.p2align	4, 0x90
__ZN4core3str8converts19from_utf8_unchecked17h97df310b316961d9E:
Lfunc_begin85:
	.file	30 "/rustc/2c8cc343237b8f7d5a3c3703e3a87f2eb2c54a74/library/core/src/str" "converts.rs"
	.loc	30 170 0
	.cfi_startproc
	pushq	%rbp
	.cfi_def_cfa_offset 16
	.cfi_offset %rbp, -16
	movq	%rsp, %rbp
	.cfi_def_cfa_register %rbp
	subq	$32, %rsp
	movq	%rdi, -32(%rbp)
	movq	%rsi, -24(%rbp)
Ltmp428:
	.loc	30 173 14 prologue_end
	movq	%rdi, -16(%rbp)
	movq	%rsi, -8(%rbp)
	movq	-16(%rbp), %rax
	movq	-8(%rbp), %rdx
	.loc	30 174 2
	addq	$32, %rsp
	popq	%rbp
	retq
Ltmp429:
Lfunc_end85:
	.cfi_endproc

	.p2align	4, 0x90
__ZN4core4hint21unreachable_unchecked17h401469371f629e47E:
Lfunc_begin86:
	.file	31 "/rustc/2c8cc343237b8f7d5a3c3703e3a87f2eb2c54a74/library/core/src" "hint.rs"
	.loc	31 100 0
	.cfi_startproc
	pushq	%rbp
	.cfi_def_cfa_offset 16
	.cfi_offset %rbp, -16
	movq	%rsp, %rbp
	.cfi_def_cfa_register %rbp
Ltmp430:
	.loc	31 104 9 prologue_end
	ud2
Ltmp431:
Lfunc_end86:
	.cfi_endproc

	.globl	__ZN4core4iter6traits8iterator8Iterator3map17h634d97bafbff242aE
	.p2align	4, 0x90
__ZN4core4iter6traits8iterator8Iterator3map17h634d97bafbff242aE:
Lfunc_begin87:
	.file	32 "/rustc/2c8cc343237b8f7d5a3c3703e3a87f2eb2c54a74/library/core/src/iter/traits" "iterator.rs"
	.loc	32 782 0
	.cfi_startproc
	pushq	%rbp
	.cfi_def_cfa_offset 16
	.cfi_offset %rbp, -16
	movq	%rsp, %rbp
	.cfi_def_cfa_register %rbp
	subq	$32, %rsp
	movq	%rdi, -24(%rbp)
	movq	%rsi, -16(%rbp)
Ltmp432:
	.loc	32 787 9 prologue_end
	callq	__ZN4core4iter8adapters3map16Map$LT$I$C$F$GT$3new17h5dcf8142f2c5c35eE
	.loc	32 788 6
	addq	$32, %rsp
	popq	%rbp
	retq
Ltmp433:
Lfunc_end87:
	.cfi_endproc

	.globl	__ZN4core4iter6traits8iterator8Iterator3map17hd67e12fcad221283E
	.p2align	4, 0x90
__ZN4core4iter6traits8iterator8Iterator3map17hd67e12fcad221283E:
Lfunc_begin88:
	.loc	32 782 0
	.cfi_startproc
	pushq	%rbp
	.cfi_def_cfa_offset 16
	.cfi_offset %rbp, -16
	movq	%rsp, %rbp
	.cfi_def_cfa_register %rbp
	subq	$32, %rsp
	movq	%rdi, -24(%rbp)
	movq	%rsi, -16(%rbp)
Ltmp434:
	.loc	32 787 9 prologue_end
	callq	__ZN4core4iter8adapters3map16Map$LT$I$C$F$GT$3new17h0e9d91d62639f864E
	.loc	32 788 6
	addq	$32, %rsp
	popq	%rbp
	retq
Ltmp435:
Lfunc_end88:
	.cfi_endproc

	.globl	__ZN4core4iter6traits8iterator8Iterator3sum17h51dc3f120a7972adE
	.p2align	4, 0x90
__ZN4core4iter6traits8iterator8Iterator3sum17h51dc3f120a7972adE:
Lfunc_begin89:
	.loc	32 3403 0
	.cfi_startproc
	pushq	%rbp
	.cfi_def_cfa_offset 16
	.cfi_offset %rbp, -16
	movq	%rsp, %rbp
	.cfi_def_cfa_register %rbp
	subq	$16, %rsp
	movq	%rdi, -16(%rbp)
	movq	%rsi, -8(%rbp)
Ltmp436:
	.loc	32 3408 9 prologue_end
	callq	__ZN56_$LT$usize$u20$as$u20$core..iter..traits..accum..Sum$GT$3sum17h64c1a20d418544e6E
	.loc	32 3409 6
	addq	$16, %rsp
	popq	%rbp
	retq
Ltmp437:
Lfunc_end89:
	.cfi_endproc

	.globl	__ZN4core4iter6traits8iterator8Iterator3zip17hd52d6f6b17f85489E
	.p2align	4, 0x90
__ZN4core4iter6traits8iterator8Iterator3zip17hd52d6f6b17f85489E:
Lfunc_begin90:
	.loc	32 623 0
	.cfi_startproc
	.cfi_personality 155, _rust_eh_personality
	.cfi_lsda 16, Lexception11
	pushq	%rbp
	.cfi_def_cfa_offset 16
	.cfi_offset %rbp, -16
	movq	%rsp, %rbp
	.cfi_def_cfa_register %rbp
	subq	$128, %rsp
	movq	%r8, -112(%rbp)
	movq	%rcx, -96(%rbp)
	movq	%rdx, -120(%rbp)
	movq	%rsi, %rax
	movq	-112(%rbp), %rsi
	movq	%rax, -104(%rbp)
	movq	%rdi, %rcx
	movq	-96(%rbp), %rdi
	movq	%rcx, -88(%rbp)
	movq	%rcx, -80(%rbp)
	movq	%rax, -48(%rbp)
	movq	%rdx, -40(%rbp)
	movq	%rdi, -32(%rbp)
	movq	%rsi, -24(%rbp)
Ltmp443:
	.loc	32 628 18 prologue_end
	movb	$1, -49(%rbp)
Ltmp438:
	.loc	32 628 24 is_stmt 0
	callq	__ZN63_$LT$I$u20$as$u20$core..iter..traits..collect..IntoIterator$GT$9into_iter17h38e750d126fa2187E
Ltmp439:
	movq	%rdx, -72(%rbp)
	movq	%rax, -64(%rbp)
	jmp	LBB90_3
LBB90_1:
	.loc	32 628 41
	testb	$1, -49(%rbp)
	jne	LBB90_6
	jmp	LBB90_5
LBB90_2:
Ltmp442:
	.loc	32 0 41
	movq	%rax, %rcx
	movl	%edx, %eax
	movq	%rcx, -16(%rbp)
	movl	%eax, -8(%rbp)
	jmp	LBB90_1
LBB90_3:
	movq	-72(%rbp), %r8
	movq	-64(%rbp), %rcx
	movq	-120(%rbp), %rdx
	movq	-104(%rbp), %rsi
	movq	-88(%rbp), %rdi
	.loc	32 628 9
	movb	$0, -49(%rbp)
Ltmp440:
	callq	__ZN4core4iter8adapters3zip16Zip$LT$A$C$B$GT$3new17h009c8c5e43f24e50E
Ltmp441:
	jmp	LBB90_4
LBB90_4:
	.loc	32 0 9
	movq	-80(%rbp), %rax
	.loc	32 629 6 is_stmt 1
	addq	$128, %rsp
	popq	%rbp
	retq
LBB90_5:
	.loc	32 623 5
	movq	-16(%rbp), %rdi
	callq	__Unwind_Resume
LBB90_6:
	.loc	32 628 41
	jmp	LBB90_5
Ltmp444:
Lfunc_end90:
	.cfi_endproc
	.section	__TEXT,__gcc_except_tab
	.p2align	2
GCC_except_table90:
Lexception11:
	.byte	255
	.byte	255
	.byte	1
	.uleb128 Lcst_end11-Lcst_begin11
Lcst_begin11:
	.uleb128 Ltmp438-Lfunc_begin90
	.uleb128 Ltmp441-Ltmp438
	.uleb128 Ltmp442-Lfunc_begin90
	.byte	0
	.uleb128 Ltmp441-Lfunc_begin90
	.uleb128 Lfunc_end90-Ltmp441
	.byte	0
	.byte	0
Lcst_end11:
	.p2align	2

	.section	__TEXT,__text,regular,pure_instructions
	.globl	__ZN4core4iter6traits8iterator8Iterator4fold17h260037e335ae9146E
	.p2align	4, 0x90
__ZN4core4iter6traits8iterator8Iterator4fold17h260037e335ae9146E:
Lfunc_begin91:
	.loc	32 2431 0
	.cfi_startproc
	.cfi_personality 155, _rust_eh_personality
	.cfi_lsda 16, Lexception12
	pushq	%rbp
	.cfi_def_cfa_offset 16
	.cfi_offset %rbp, -16
	movq	%rsp, %rbp
	.cfi_def_cfa_register %rbp
	subq	$112, %rsp
	movq	%rdi, -96(%rbp)
	movq	%rsi, -88(%rbp)
	movq	%rdx, -32(%rbp)
Ltmp450:
	.loc	32 2436 25 prologue_end
	movb	$1, -33(%rbp)
	movq	%rdx, -72(%rbp)
LBB91_1:
Ltmp445:
	.loc	32 0 25 is_stmt 0
	leaq	-96(%rbp), %rdi
Ltmp451:
	.loc	32 2437 29 is_stmt 1
	callq	__ZN81_$LT$core..str..iter..Chars$u20$as$u20$core..iter..traits..iterator..Iterator$GT$4next17h88b232316ce46569E
Ltmp446:
	movl	%eax, -100(%rbp)
	jmp	LBB91_4
Ltmp452:
LBB91_2:
	.loc	32 2441 5
	testb	$1, -33(%rbp)
	jne	LBB91_11
	jmp	LBB91_10
LBB91_3:
Ltmp449:
	.loc	32 0 5 is_stmt 0
	movq	%rax, %rcx
	movl	%edx, %eax
	movq	%rcx, -24(%rbp)
	movl	%eax, -16(%rbp)
	jmp	LBB91_2
LBB91_4:
	movl	-100(%rbp), %eax
Ltmp453:
	.loc	32 2437 29 is_stmt 1
	movl	%eax, -60(%rbp)
	.loc	32 2437 19 is_stmt 0
	movl	$1, %eax
	xorl	%ecx, %ecx
	cmpl	$1114112, -60(%rbp)
	cmoveq	%rcx, %rax
	cmpq	$1, %rax
	jne	LBB91_6
	.loc	32 2437 24
	movl	-60(%rbp), %eax
	movl	%eax, -4(%rbp)
	.loc	32 2438 23 is_stmt 1
	movb	$0, -33(%rbp)
	movq	-72(%rbp), %rcx
	.loc	32 2438 21 is_stmt 0
	movq	%rcx, -56(%rbp)
	movl	%eax, -48(%rbp)
	movq	-56(%rbp), %rsi
	movl	-48(%rbp), %edx
Ltmp447:
	leaq	-80(%rbp), %rdi
	callq	__ZN4core4iter8adapters3map8map_fold28_$u7b$$u7b$closure$u7d$$u7d$17h969923cb01373f61E
Ltmp448:
	movq	%rax, -112(%rbp)
	jmp	LBB91_9
Ltmp454:
LBB91_6:
	.loc	32 2437 9 is_stmt 1
	jmp	LBB91_7
Ltmp455:
LBB91_7:
	.loc	32 2441 5
	jmp	LBB91_8
LBB91_8:
	.loc	32 2441 6 is_stmt 0
	movq	-72(%rbp), %rax
	addq	$112, %rsp
	popq	%rbp
	retq
LBB91_9:
	.loc	32 0 6
	movq	-112(%rbp), %rax
Ltmp456:
	.loc	32 2438 13 is_stmt 1
	movb	$1, -33(%rbp)
	movq	%rax, -72(%rbp)
Ltmp457:
	.loc	32 2437 9
	jmp	LBB91_1
Ltmp458:
LBB91_10:
	.loc	32 2441 5
	jmp	LBB91_12
LBB91_11:
	jmp	LBB91_10
LBB91_12:
	.loc	32 2431 5
	movq	-24(%rbp), %rdi
	callq	__Unwind_Resume
Ltmp459:
Lfunc_end91:
	.cfi_endproc
	.section	__TEXT,__gcc_except_tab
	.p2align	2
GCC_except_table91:
Lexception12:
	.byte	255
	.byte	255
	.byte	1
	.uleb128 Lcst_end12-Lcst_begin12
Lcst_begin12:
	.uleb128 Ltmp445-Lfunc_begin91
	.uleb128 Ltmp448-Ltmp445
	.uleb128 Ltmp449-Lfunc_begin91
	.byte	0
	.uleb128 Ltmp448-Lfunc_begin91
	.uleb128 Lfunc_end91-Ltmp448
	.byte	0
	.byte	0
Lcst_end12:
	.p2align	2

	.section	__TEXT,__text,regular,pure_instructions
	.globl	__ZN4core4iter6traits8iterator8Iterator4fold17ha36a999ca45a7f4aE
	.p2align	4, 0x90
__ZN4core4iter6traits8iterator8Iterator4fold17ha36a999ca45a7f4aE:
Lfunc_begin92:
	.loc	32 2431 0
	.cfi_startproc
	.cfi_personality 155, _rust_eh_personality
	.cfi_lsda 16, Lexception13
	pushq	%rbp
	.cfi_def_cfa_offset 16
	.cfi_offset %rbp, -16
	movq	%rsp, %rbp
	.cfi_def_cfa_register %rbp
	subq	$96, %rsp
	movq	%rdi, -88(%rbp)
	movq	%rsi, -80(%rbp)
	movq	%rdx, -72(%rbp)
Ltmp465:
	.loc	32 2436 25 prologue_end
	movb	$1, -41(%rbp)
LBB92_1:
Ltmp460:
	.loc	32 0 25 is_stmt 0
	leaq	-88(%rbp), %rdi
Ltmp466:
	.loc	32 2437 29 is_stmt 1
	callq	__ZN91_$LT$core..slice..iter..Iter$LT$T$GT$$u20$as$u20$core..iter..traits..iterator..Iterator$GT$4next17h5da4a60e3865fa8dE
Ltmp461:
	movq	%rax, -96(%rbp)
	jmp	LBB92_4
Ltmp467:
LBB92_2:
	.loc	32 2441 5
	testb	$1, -41(%rbp)
	jne	LBB92_11
	jmp	LBB92_10
LBB92_3:
Ltmp464:
	.loc	32 0 5 is_stmt 0
	movq	%rax, %rcx
	movl	%edx, %eax
	movq	%rcx, -24(%rbp)
	movl	%eax, -16(%rbp)
	jmp	LBB92_2
LBB92_4:
	movq	-96(%rbp), %rax
Ltmp468:
	.loc	32 2437 29 is_stmt 1
	movq	%rax, -64(%rbp)
	.loc	32 2437 19 is_stmt 0
	movq	-64(%rbp), %rdx
	movl	$1, %eax
	xorl	%ecx, %ecx
	cmpq	$0, %rdx
	cmoveq	%rcx, %rax
	cmpq	$1, %rax
	jne	LBB92_6
	.loc	32 2437 24
	movq	-64(%rbp), %rax
	movq	%rax, -8(%rbp)
	.loc	32 2438 23 is_stmt 1
	movb	$0, -41(%rbp)
	.loc	32 2438 21 is_stmt 0
	movq	%rax, -56(%rbp)
	movq	-56(%rbp), %rsi
Ltmp462:
	leaq	-72(%rbp), %rdi
	callq	__ZN4core4iter8adapters3map8map_fold28_$u7b$$u7b$closure$u7d$$u7d$17h5524cfc48b0b0d9dE
Ltmp463:
	jmp	LBB92_9
Ltmp469:
LBB92_6:
	.loc	32 2437 9 is_stmt 1
	jmp	LBB92_7
Ltmp470:
LBB92_7:
	.loc	32 2441 5
	jmp	LBB92_8
LBB92_8:
	.loc	32 2441 6 is_stmt 0
	addq	$96, %rsp
	popq	%rbp
	retq
LBB92_9:
Ltmp471:
	.loc	32 2438 13 is_stmt 1
	movb	$1, -41(%rbp)
Ltmp472:
	.loc	32 2437 9
	jmp	LBB92_1
Ltmp473:
LBB92_10:
	.loc	32 2441 5
	jmp	LBB92_12
LBB92_11:
	jmp	LBB92_10
LBB92_12:
	.loc	32 2431 5
	movq	-24(%rbp), %rdi
	callq	__Unwind_Resume
Ltmp474:
Lfunc_end92:
	.cfi_endproc
	.section	__TEXT,__gcc_except_tab
	.p2align	2
GCC_except_table92:
Lexception13:
	.byte	255
	.byte	255
	.byte	1
	.uleb128 Lcst_end13-Lcst_begin13
Lcst_begin13:
	.uleb128 Ltmp460-Lfunc_begin92
	.uleb128 Ltmp463-Ltmp460
	.uleb128 Ltmp464-Lfunc_begin92
	.byte	0
	.uleb128 Ltmp463-Lfunc_begin92
	.uleb128 Lfunc_end92-Ltmp463
	.byte	0
	.byte	0
Lcst_end13:
	.p2align	2

	.section	__TEXT,__text,regular,pure_instructions
	.globl	__ZN4core4iter6traits8iterator8Iterator6copied17ha1a81cd1437d7cc7E
	.p2align	4, 0x90
__ZN4core4iter6traits8iterator8Iterator6copied17ha1a81cd1437d7cc7E:
Lfunc_begin93:
	.loc	32 3249 0
	.cfi_startproc
	pushq	%rbp
	.cfi_def_cfa_offset 16
	.cfi_offset %rbp, -16
	movq	%rsp, %rbp
	.cfi_def_cfa_register %rbp
	subq	$16, %rsp
	movq	%rdi, -16(%rbp)
	movq	%rsi, -8(%rbp)
Ltmp475:
	.loc	32 3254 9 prologue_end
	callq	__ZN4core4iter8adapters6copied15Copied$LT$I$GT$3new17hebc8eac1d3d7eadcE
	.loc	32 3255 6
	addq	$16, %rsp
	popq	%rbp
	retq
Ltmp476:
Lfunc_end93:
	.cfi_endproc

	.globl	__ZN4core4iter6traits8iterator8Iterator6filter17h4688284ab72b4043E
	.p2align	4, 0x90
__ZN4core4iter6traits8iterator8Iterator6filter17h4688284ab72b4043E:
Lfunc_begin94:
	.loc	32 902 0
	.cfi_startproc
	pushq	%rbp
	.cfi_def_cfa_offset 16
	.cfi_offset %rbp, -16
	movq	%rsp, %rbp
	.cfi_def_cfa_register %rbp
	subq	$32, %rsp
	movq	%rdi, -24(%rbp)
	movq	%rsi, -16(%rbp)
Ltmp477:
	.loc	32 907 9 prologue_end
	callq	__ZN4core4iter8adapters6filter19Filter$LT$I$C$P$GT$3new17hc82a89195f30a051E
	.loc	32 908 6
	addq	$32, %rsp
	popq	%rbp
	retq
Ltmp478:
Lfunc_end94:
	.cfi_endproc

	.globl	__ZN4core4iter6traits8iterator8Iterator8for_each17hd20b178d053dca49E
	.p2align	4, 0x90
__ZN4core4iter6traits8iterator8Iterator8for_each17hd20b178d053dca49E:
Lfunc_begin95:
	.loc	32 827 0
	.cfi_startproc
	.cfi_personality 155, _rust_eh_personality
	.cfi_lsda 16, Lexception14
	pushq	%rbp
	.cfi_def_cfa_offset 16
	.cfi_offset %rbp, -16
	movq	%rsp, %rbp
	.cfi_def_cfa_register %rbp
	subq	$64, %rsp
	movq	%rdi, -48(%rbp)
	movq	%rsi, -40(%rbp)
	movq	%rdx, -32(%rbp)
Ltmp482:
	.loc	32 837 28 prologue_end
	movq	%rdx, -24(%rbp)
Ltmp483:
	.loc	32 834 13
	movq	%rdx, -56(%rbp)
Ltmp484:
	.loc	32 837 9
	movq	-56(%rbp), %rdx
Ltmp479:
	callq	__ZN102_$LT$core..iter..adapters..map..Map$LT$I$C$F$GT$$u20$as$u20$core..iter..traits..iterator..Iterator$GT$4fold17h58db8bbae0a96164E
Ltmp480:
	jmp	LBB95_3
LBB95_1:
	.loc	32 837 30 is_stmt 0
	xorl	%eax, %eax
	testb	$1, %al
	jne	LBB95_5
	jmp	LBB95_4
LBB95_2:
Ltmp481:
	.loc	32 0 30
	movq	%rax, %rcx
	movl	%edx, %eax
	movq	%rcx, -16(%rbp)
	movl	%eax, -8(%rbp)
	jmp	LBB95_1
LBB95_3:
	.loc	32 838 6 is_stmt 1
	addq	$64, %rsp
	popq	%rbp
	retq
LBB95_4:
	.loc	32 827 5
	movq	-16(%rbp), %rdi
	callq	__Unwind_Resume
LBB95_5:
	.loc	32 837 30
	jmp	LBB95_4
Ltmp485:
Lfunc_end95:
	.cfi_endproc
	.section	__TEXT,__gcc_except_tab
	.p2align	2
GCC_except_table95:
Lexception14:
	.byte	255
	.byte	255
	.byte	1
	.uleb128 Lcst_end14-Lcst_begin14
Lcst_begin14:
	.uleb128 Ltmp479-Lfunc_begin95
	.uleb128 Ltmp480-Ltmp479
	.uleb128 Ltmp481-Lfunc_begin95
	.byte	0
	.uleb128 Ltmp480-Lfunc_begin95
	.uleb128 Lfunc_end95-Ltmp480
	.byte	0
	.byte	0
Lcst_end14:
	.p2align	2

	.section	__TEXT,__text,regular,pure_instructions
	.globl	__ZN4core4iter6traits8iterator8Iterator8for_each4call28_$u7b$$u7b$closure$u7d$$u7d$17h92cec8f9d690376eE
	.p2align	4, 0x90
__ZN4core4iter6traits8iterator8Iterator8for_each4call28_$u7b$$u7b$closure$u7d$$u7d$17h92cec8f9d690376eE:
Lfunc_begin96:
	.loc	32 834 0
	.cfi_startproc
	pushq	%rbp
	.cfi_def_cfa_offset 16
	.cfi_offset %rbp, -16
	movq	%rsp, %rbp
	.cfi_def_cfa_register %rbp
	subq	$48, %rsp
	movq	%rdi, -32(%rbp)
	movq	%rsi, -16(%rbp)
	movq	%rdx, -8(%rbp)
Ltmp486:
	.loc	32 834 29 prologue_end
	movq	%rsi, -48(%rbp)
	movq	%rdx, -40(%rbp)
	movq	-48(%rbp), %rsi
	movq	-40(%rbp), %rdx
	callq	__ZN92_$LT$alloc..string..String$u20$as$u20$core..iter..traits..collect..Extend$LT$$RF$str$GT$$GT$6extend28_$u7b$$u7b$closure$u7d$$u7d$17h4387af873450a7c0E
	.loc	32 834 36 is_stmt 0
	addq	$48, %rsp
	popq	%rbp
	retq
Ltmp487:
Lfunc_end96:
	.cfi_endproc

	.globl	__ZN4core4iter8adapters3map16Map$LT$I$C$F$GT$3new17h0e9d91d62639f864E
	.p2align	4, 0x90
__ZN4core4iter8adapters3map16Map$LT$I$C$F$GT$3new17h0e9d91d62639f864E:
Lfunc_begin97:
	.loc	2 68 0 is_stmt 1
	.cfi_startproc
	pushq	%rbp
	.cfi_def_cfa_offset 16
	.cfi_offset %rbp, -16
	movq	%rsp, %rbp
	.cfi_def_cfa_register %rbp
	subq	$40, %rsp
	movq	%rdi, -24(%rbp)
	movq	%rsi, -16(%rbp)
Ltmp488:
	.loc	2 69 9 prologue_end
	movq	%rdi, -40(%rbp)
	movq	%rsi, -32(%rbp)
	.loc	2 70 6
	movq	-40(%rbp), %rax
	movq	-32(%rbp), %rdx
	addq	$40, %rsp
	popq	%rbp
	retq
Ltmp489:
Lfunc_end97:
	.cfi_endproc

	.globl	__ZN4core4iter8adapters3map16Map$LT$I$C$F$GT$3new17h5dcf8142f2c5c35eE
	.p2align	4, 0x90
__ZN4core4iter8adapters3map16Map$LT$I$C$F$GT$3new17h5dcf8142f2c5c35eE:
Lfunc_begin98:
	.loc	2 68 0
	.cfi_startproc
	pushq	%rbp
	.cfi_def_cfa_offset 16
	.cfi_offset %rbp, -16
	movq	%rsp, %rbp
	.cfi_def_cfa_register %rbp
	subq	$40, %rsp
	movq	%rdi, -24(%rbp)
	movq	%rsi, -16(%rbp)
Ltmp490:
	.loc	2 69 9 prologue_end
	movq	%rdi, -40(%rbp)
	movq	%rsi, -32(%rbp)
	.loc	2 70 6
	movq	-40(%rbp), %rax
	movq	-32(%rbp), %rdx
	addq	$40, %rsp
	popq	%rbp
	retq
Ltmp491:
Lfunc_end98:
	.cfi_endproc

	.globl	__ZN4core4iter8adapters3map8map_fold17h05400392b1aefa7bE
	.p2align	4, 0x90
__ZN4core4iter8adapters3map8map_fold17h05400392b1aefa7bE:
Lfunc_begin99:
	.loc	2 80 0
	.cfi_startproc
	pushq	%rbp
	.cfi_def_cfa_offset 16
	.cfi_offset %rbp, -16
	movq	%rsp, %rbp
	.cfi_def_cfa_register %rbp
	subq	$24, %rsp
	movq	%rdi, -8(%rbp)
Ltmp492:
	.loc	2 84 5 prologue_end
	movq	%rdi, -24(%rbp)
	.loc	2 85 2
	movq	-24(%rbp), %rax
	addq	$24, %rsp
	popq	%rbp
	retq
Ltmp493:
Lfunc_end99:
	.cfi_endproc

	.globl	__ZN4core4iter8adapters3map8map_fold17hf764242622fe2b6aE
	.p2align	4, 0x90
__ZN4core4iter8adapters3map8map_fold17hf764242622fe2b6aE:
Lfunc_begin100:
	.loc	2 80 0
	.cfi_startproc
	pushq	%rbp
	.cfi_def_cfa_offset 16
	.cfi_offset %rbp, -16
	movq	%rsp, %rbp
	.cfi_def_cfa_register %rbp
Ltmp494:
	.loc	2 85 2 prologue_end
	popq	%rbp
	retq
Ltmp495:
Lfunc_end100:
	.cfi_endproc

	.globl	__ZN4core4iter8adapters3map8map_fold28_$u7b$$u7b$closure$u7d$$u7d$17h5524cfc48b0b0d9dE
	.p2align	4, 0x90
__ZN4core4iter8adapters3map8map_fold28_$u7b$$u7b$closure$u7d$$u7d$17h5524cfc48b0b0d9dE:
Lfunc_begin101:
	.loc	2 84 0
	.cfi_startproc
	.cfi_personality 155, _rust_eh_personality
	.cfi_lsda 16, Lexception15
	pushq	%rbp
	.cfi_def_cfa_offset 16
	.cfi_offset %rbp, -16
	movq	%rsp, %rbp
	.cfi_def_cfa_register %rbp
	subq	$96, %rsp
	movq	%rdi, -96(%rbp)
	movq	%rdi, -40(%rbp)
	movq	%rsi, -24(%rbp)
Ltmp501:
	.loc	2 84 23 prologue_end
	movb	$1, -41(%rbp)
	.loc	2 84 28 is_stmt 0
	movq	%rsi, -56(%rbp)
	movq	-56(%rbp), %rsi
Ltmp496:
	callq	__ZN4objc7declare20method_type_encoding28_$u7b$$u7b$closure$u7d$$u7d$17hb8492835445eb8e5E
Ltmp497:
	movq	%rdx, -88(%rbp)
	movq	%rax, -80(%rbp)
	jmp	LBB101_3
LBB101_1:
	.loc	2 84 34
	testb	$1, -41(%rbp)
	jne	LBB101_6
	jmp	LBB101_5
LBB101_2:
Ltmp500:
	.loc	2 0 34
	movq	%rax, %rcx
	movl	%edx, %eax
	movq	%rcx, -16(%rbp)
	movl	%eax, -8(%rbp)
	jmp	LBB101_1
LBB101_3:
	movq	-96(%rbp), %rdi
	movq	-88(%rbp), %rax
	movq	-80(%rbp), %rcx
	.loc	2 84 21
	movb	$0, -41(%rbp)
	movq	%rcx, -72(%rbp)
	movq	%rax, -64(%rbp)
	movq	-72(%rbp), %rsi
	movq	-64(%rbp), %rdx
Ltmp498:
	callq	__ZN4core4iter6traits8iterator8Iterator8for_each4call28_$u7b$$u7b$closure$u7d$$u7d$17h92cec8f9d690376eE
Ltmp499:
	jmp	LBB101_4
LBB101_4:
	.loc	2 84 35
	addq	$96, %rsp
	popq	%rbp
	retq
LBB101_5:
	.loc	2 84 5
	movq	-16(%rbp), %rdi
	callq	__Unwind_Resume
LBB101_6:
	.loc	2 84 34
	jmp	LBB101_5
Ltmp502:
Lfunc_end101:
	.cfi_endproc
	.section	__TEXT,__gcc_except_tab
	.p2align	2
GCC_except_table101:
Lexception15:
	.byte	255
	.byte	255
	.byte	1
	.uleb128 Lcst_end15-Lcst_begin15
Lcst_begin15:
	.uleb128 Ltmp496-Lfunc_begin101
	.uleb128 Ltmp499-Ltmp496
	.uleb128 Ltmp500-Lfunc_begin101
	.byte	0
	.uleb128 Ltmp499-Lfunc_begin101
	.uleb128 Lfunc_end101-Ltmp499
	.byte	0
	.byte	0
Lcst_end15:
	.p2align	2

	.section	__TEXT,__text,regular,pure_instructions
	.globl	__ZN4core4iter8adapters3map8map_fold28_$u7b$$u7b$closure$u7d$$u7d$17h969923cb01373f61E
	.p2align	4, 0x90
__ZN4core4iter8adapters3map8map_fold28_$u7b$$u7b$closure$u7d$$u7d$17h969923cb01373f61E:
Lfunc_begin102:
	.loc	2 84 0 is_stmt 1
	.cfi_startproc
	.cfi_personality 155, _rust_eh_personality
	.cfi_lsda 16, Lexception16
	pushq	%rbp
	.cfi_def_cfa_offset 16
	.cfi_offset %rbp, -16
	movq	%rsp, %rbp
	.cfi_def_cfa_register %rbp
	subq	$96, %rsp
	movq	%rdi, -88(%rbp)
	movq	%rsi, -80(%rbp)
	movq	%rdi, -40(%rbp)
	movq	%rsi, -32(%rbp)
	movl	%edx, -20(%rbp)
Ltmp508:
	.loc	2 84 23 prologue_end
	movb	$1, -41(%rbp)
	.loc	2 84 28 is_stmt 0
	movl	%edx, -48(%rbp)
	movl	-48(%rbp), %esi
Ltmp503:
	callq	__ZN108_$LT$core..iter..adapters..filter..Filter$LT$I$C$P$GT$$u20$as$u20$core..iter..traits..iterator..Iterator$GT$5count8to_usize28_$u7b$$u7b$closure$u7d$$u7d$17h7ad67cfadaeb139fE
Ltmp504:
	movq	%rax, -72(%rbp)
	jmp	LBB102_3
LBB102_1:
	.loc	2 84 34
	testb	$1, -41(%rbp)
	jne	LBB102_6
	jmp	LBB102_5
LBB102_2:
Ltmp507:
	.loc	2 0 34
	movq	%rax, %rcx
	movl	%edx, %eax
	movq	%rcx, -16(%rbp)
	movl	%eax, -8(%rbp)
	jmp	LBB102_1
LBB102_3:
	movq	-88(%rbp), %rdi
	movq	-72(%rbp), %rax
	movq	-80(%rbp), %rcx
	.loc	2 84 21
	movb	$0, -41(%rbp)
	movq	%rcx, -64(%rbp)
	movq	%rax, -56(%rbp)
	movq	-64(%rbp), %rsi
	movq	-56(%rbp), %rdx
Ltmp505:
	callq	__ZN56_$LT$usize$u20$as$u20$core..iter..traits..accum..Sum$GT$3sum28_$u7b$$u7b$closure$u7d$$u7d$17h331238aadb37bbc9E
Ltmp506:
	movq	%rax, -96(%rbp)
	jmp	LBB102_4
LBB102_4:
	.loc	2 0 21
	movq	-96(%rbp), %rax
	.loc	2 84 35
	addq	$96, %rsp
	popq	%rbp
	retq
LBB102_5:
	.loc	2 84 5
	movq	-16(%rbp), %rdi
	callq	__Unwind_Resume
LBB102_6:
	.loc	2 84 34
	jmp	LBB102_5
Ltmp509:
Lfunc_end102:
	.cfi_endproc
	.section	__TEXT,__gcc_except_tab
	.p2align	2
GCC_except_table102:
Lexception16:
	.byte	255
	.byte	255
	.byte	1
	.uleb128 Lcst_end16-Lcst_begin16
Lcst_begin16:
	.uleb128 Ltmp503-Lfunc_begin102
	.uleb128 Ltmp506-Ltmp503
	.uleb128 Ltmp507-Lfunc_begin102
	.byte	0
	.uleb128 Ltmp506-Lfunc_begin102
	.uleb128 Lfunc_end102-Ltmp506
	.byte	0
	.byte	0
Lcst_end16:
	.p2align	2

	.section	__TEXT,__text,regular,pure_instructions
	.globl	__ZN4core4iter8adapters3zip16Zip$LT$A$C$B$GT$3new17h009c8c5e43f24e50E
	.p2align	4, 0x90
__ZN4core4iter8adapters3zip16Zip$LT$A$C$B$GT$3new17h009c8c5e43f24e50E:
Lfunc_begin103:
	.loc	3 22 0 is_stmt 1
	.cfi_startproc
	pushq	%rbp
	.cfi_def_cfa_offset 16
	.cfi_offset %rbp, -16
	movq	%rsp, %rbp
	.cfi_def_cfa_register %rbp
	subq	$48, %rsp
	movq	%rdi, %rax
	movq	%rax, -40(%rbp)
	movq	%rsi, -32(%rbp)
	movq	%rdx, -24(%rbp)
	movq	%rcx, -16(%rbp)
	movq	%r8, -8(%rbp)
Ltmp510:
	.loc	3 23 9 prologue_end
	callq	__ZN111_$LT$core..iter..adapters..zip..Zip$LT$A$C$B$GT$$u20$as$u20$core..iter..adapters..zip..ZipImpl$LT$A$C$B$GT$$GT$3new17hcbe548147f5cf642E
	movq	-40(%rbp), %rax
	.loc	3 24 6
	addq	$48, %rsp
	popq	%rbp
	retq
Ltmp511:
Lfunc_end103:
	.cfi_endproc

	.globl	__ZN4core4iter8adapters3zip27TrustedRandomAccessNoCoerce4size17h3264902f401ea6c6E
	.p2align	4, 0x90
__ZN4core4iter8adapters3zip27TrustedRandomAccessNoCoerce4size17h3264902f401ea6c6E:
Lfunc_begin104:
	.loc	3 538 0
	.cfi_startproc
	pushq	%rbp
	.cfi_def_cfa_offset 16
	.cfi_offset %rbp, -16
	movq	%rsp, %rbp
	.cfi_def_cfa_register %rbp
	subq	$32, %rsp
	movq	%rdi, %rsi
	movq	%rsi, -8(%rbp)
Ltmp512:
	.loc	3 542 9 prologue_end
	leaq	-32(%rbp), %rdi
	callq	__ZN81_$LT$core..str..iter..Bytes$u20$as$u20$core..iter..traits..iterator..Iterator$GT$9size_hint17h5b083a17db277372E
	movq	-32(%rbp), %rax
	.loc	3 543 6
	addq	$32, %rsp
	popq	%rbp
	retq
Ltmp513:
Lfunc_end104:
	.cfi_endproc

	.globl	__ZN4core4iter8adapters3zip27TrustedRandomAccessNoCoerce4size17h5f7cde24abba0bcbE
	.p2align	4, 0x90
__ZN4core4iter8adapters3zip27TrustedRandomAccessNoCoerce4size17h5f7cde24abba0bcbE:
Lfunc_begin105:
	.loc	3 538 0
	.cfi_startproc
	pushq	%rbp
	.cfi_def_cfa_offset 16
	.cfi_offset %rbp, -16
	movq	%rsp, %rbp
	.cfi_def_cfa_register %rbp
	subq	$32, %rsp
	movq	%rdi, %rsi
	movq	%rsi, -8(%rbp)
Ltmp514:
	.loc	3 542 9 prologue_end
	leaq	-32(%rbp), %rdi
	callq	__ZN94_$LT$core..slice..iter..IterMut$LT$T$GT$$u20$as$u20$core..iter..traits..iterator..Iterator$GT$9size_hint17h6a88944f12ca1a2fE
	movq	-32(%rbp), %rax
	.loc	3 543 6
	addq	$32, %rsp
	popq	%rbp
	retq
Ltmp515:
Lfunc_end105:
	.cfi_endproc

	.globl	__ZN4core4iter8adapters6copied15Copied$LT$I$GT$3new17hebc8eac1d3d7eadcE
	.p2align	4, 0x90
__ZN4core4iter8adapters6copied15Copied$LT$I$GT$3new17hebc8eac1d3d7eadcE:
Lfunc_begin106:
	.loc	4 25 0
	.cfi_startproc
	pushq	%rbp
	.cfi_def_cfa_offset 16
	.cfi_offset %rbp, -16
	movq	%rsp, %rbp
	.cfi_def_cfa_register %rbp
	subq	$32, %rsp
	movq	%rdi, -16(%rbp)
	movq	%rsi, -8(%rbp)
Ltmp516:
	.loc	4 26 9 prologue_end
	movq	%rdi, -32(%rbp)
	movq	%rsi, -24(%rbp)
	.loc	4 27 6
	movq	-32(%rbp), %rax
	movq	-24(%rbp), %rdx
	addq	$32, %rsp
	popq	%rbp
	retq
Ltmp517:
Lfunc_end106:
	.cfi_endproc

	.globl	__ZN4core4iter8adapters6filter19Filter$LT$I$C$P$GT$3new17hc82a89195f30a051E
	.p2align	4, 0x90
__ZN4core4iter8adapters6filter19Filter$LT$I$C$P$GT$3new17hc82a89195f30a051E:
Lfunc_begin107:
	.loc	9 21 0
	.cfi_startproc
	pushq	%rbp
	.cfi_def_cfa_offset 16
	.cfi_offset %rbp, -16
	movq	%rsp, %rbp
	.cfi_def_cfa_register %rbp
	subq	$40, %rsp
	movq	%rdi, -24(%rbp)
	movq	%rsi, -16(%rbp)
Ltmp518:
	.loc	9 22 9 prologue_end
	movq	%rdi, -40(%rbp)
	movq	%rsi, -32(%rbp)
	.loc	9 23 6
	movq	-40(%rbp), %rax
	movq	-32(%rbp), %rdx
	addq	$40, %rsp
	popq	%rbp
	retq
Ltmp519:
Lfunc_end107:
	.cfi_endproc

	.p2align	4, 0x90
__ZN4core4sync6atomic11AtomicUsize4load17hd8211d786b7a7ae7E:
Lfunc_begin108:
	.file	33 "/rustc/2c8cc343237b8f7d5a3c3703e3a87f2eb2c54a74/library/core/src/sync" "atomic.rs"
	.loc	33 2125 0
	.cfi_startproc
	pushq	%rbp
	.cfi_def_cfa_offset 16
	.cfi_offset %rbp, -16
	movq	%rsp, %rbp
	.cfi_def_cfa_register %rbp
	subq	$32, %rsp
	movb	%sil, %al
	movq	%rdi, -24(%rbp)
	movb	%al, -9(%rbp)
Ltmp520:
	.loc	33 2127 38 prologue_end
	movq	%rdi, -8(%rbp)
	.loc	33 2127 26 is_stmt 0
	movzbl	%al, %esi
	callq	__ZN4core4sync6atomic11atomic_load17h38c27615fc794740E
	.loc	33 2128 14 is_stmt 1
	addq	$32, %rsp
	popq	%rbp
	retq
Ltmp521:
Lfunc_end108:
	.cfi_endproc

	.p2align	4, 0x90
__ZN4core4sync6atomic11AtomicUsize5store17ha8caddc55034abe5E:
Lfunc_begin109:
	.loc	33 2152 0
	.cfi_startproc
	pushq	%rbp
	.cfi_def_cfa_offset 16
	.cfi_offset %rbp, -16
	movq	%rsp, %rbp
	.cfi_def_cfa_register %rbp
	subq	$32, %rsp
	movb	%dl, %al
	movq	%rdi, -32(%rbp)
	movq	%rsi, -24(%rbp)
	movb	%al, -9(%rbp)
Ltmp522:
	.loc	33 2154 39 prologue_end
	movq	%rdi, -8(%rbp)
	.loc	33 2154 26 is_stmt 0
	movzbl	%al, %edx
	callq	__ZN4core4sync6atomic12atomic_store17h96a39aea984d4a5dE
	.loc	33 2155 14 is_stmt 1
	addq	$32, %rsp
	popq	%rbp
	retq
Ltmp523:
Lfunc_end109:
	.cfi_endproc

	.globl	__ZN4core4sync6atomic11atomic_load17h38c27615fc794740E
	.p2align	4, 0x90
__ZN4core4sync6atomic11atomic_load17h38c27615fc794740E:
Lfunc_begin110:
	.loc	33 3019 0
	.cfi_startproc
	pushq	%rbp
	.cfi_def_cfa_offset 16
	.cfi_offset %rbp, -16
	movq	%rsp, %rbp
	.cfi_def_cfa_register %rbp
	subq	$160, %rsp
	movq	%rdi, -136(%rbp)
	movb	%sil, %al
	movb	%al, -113(%rbp)
	movq	%rdi, -8(%rbp)
Ltmp524:
	.loc	33 3022 15 prologue_end
	movzbl	-113(%rbp), %eax
	movq	%rax, -128(%rbp)
	.loc	33 0 15 is_stmt 0
	movq	-128(%rbp), %rax
	leaq	LJTI110_0(%rip), %rcx
	movslq	(%rcx,%rax,4), %rax
	addq	%rcx, %rax
	jmpq	*%rax
	.loc	33 3022 15
	ud2
LBB110_2:
	.loc	33 0 15
	movq	-136(%rbp), %rax
	.loc	33 3023 24 is_stmt 1
	movq	(%rax), %rax
	movq	%rax, -112(%rbp)
	.loc	33 3023 59 is_stmt 0
	jmp	LBB110_7
LBB110_3:
	.loc	33 3026 24 is_stmt 1
	leaq	l___unnamed_12(%rip), %rsi
	leaq	l___unnamed_5(%rip), %rcx
	xorl	%eax, %eax
	movl	%eax, %r8d
	leaq	-104(%rbp), %rdi
	movq	%rdi, -144(%rbp)
	movl	$1, %edx
	callq	__ZN4core3fmt9Arguments6new_v117h76ec19257ab01895E
	movq	-144(%rbp), %rdi
	leaq	l___unnamed_13(%rip), %rsi
	callq	__ZN4core9panicking9panic_fmt17h9b5d807e24bcaaedE
LBB110_4:
	.loc	33 0 24 is_stmt 0
	movq	-136(%rbp), %rax
	.loc	33 3024 24 is_stmt 1
	movq	(%rax), %rax
	movq	%rax, -112(%rbp)
	.loc	33 3024 59 is_stmt 0
	jmp	LBB110_7
LBB110_5:
	.loc	33 3027 23 is_stmt 1
	leaq	l___unnamed_14(%rip), %rsi
	leaq	l___unnamed_5(%rip), %rcx
	xorl	%eax, %eax
	movl	%eax, %r8d
	leaq	-56(%rbp), %rdi
	movq	%rdi, -152(%rbp)
	movl	$1, %edx
	callq	__ZN4core3fmt9Arguments6new_v117h76ec19257ab01895E
	movq	-152(%rbp), %rdi
	leaq	l___unnamed_15(%rip), %rsi
	callq	__ZN4core9panicking9panic_fmt17h9b5d807e24bcaaedE
LBB110_6:
	.loc	33 0 23 is_stmt 0
	movq	-136(%rbp), %rax
	.loc	33 3025 23 is_stmt 1
	movq	(%rax), %rax
	movq	%rax, -112(%rbp)
LBB110_7:
	.loc	33 3030 2
	movq	-112(%rbp), %rax
	addq	$160, %rsp
	popq	%rbp
	retq
Ltmp525:
Lfunc_end110:
	.cfi_endproc
	.p2align	2, 0x90
	.data_region jt32
.set L110_0_set_2, LBB110_2-LJTI110_0
.set L110_0_set_3, LBB110_3-LJTI110_0
.set L110_0_set_4, LBB110_4-LJTI110_0
.set L110_0_set_5, LBB110_5-LJTI110_0
.set L110_0_set_6, LBB110_6-LJTI110_0
LJTI110_0:
	.long	L110_0_set_2
	.long	L110_0_set_3
	.long	L110_0_set_4
	.long	L110_0_set_5
	.long	L110_0_set_6
	.end_data_region

	.globl	__ZN4core4sync6atomic12atomic_store17h96a39aea984d4a5dE
	.p2align	4, 0x90
__ZN4core4sync6atomic12atomic_store17h96a39aea984d4a5dE:
Lfunc_begin111:
	.loc	33 3004 0
	.cfi_startproc
	pushq	%rbp
	.cfi_def_cfa_offset 16
	.cfi_offset %rbp, -16
	movq	%rsp, %rbp
	.cfi_def_cfa_register %rbp
	subq	$160, %rsp
	movq	%rsi, -144(%rbp)
	movq	%rdi, -136(%rbp)
	movb	%dl, %al
	movb	%al, -113(%rbp)
	movq	%rdi, -16(%rbp)
	movq	%rsi, -8(%rbp)
Ltmp526:
	.loc	33 3007 15 prologue_end
	movzbl	-113(%rbp), %eax
	movq	%rax, -128(%rbp)
	.loc	33 0 15 is_stmt 0
	movq	-128(%rbp), %rax
	leaq	LJTI111_0(%rip), %rcx
	movslq	(%rcx,%rax,4), %rax
	addq	%rcx, %rax
	jmpq	*%rax
	.loc	33 3007 15
	ud2
LBB111_2:
	.loc	33 0 15
	movq	-136(%rbp), %rax
	movq	-144(%rbp), %rcx
	.loc	33 3008 24 is_stmt 1
	movq	%rcx, (%rax)
	.loc	33 3008 65 is_stmt 0
	jmp	LBB111_7
LBB111_3:
	.loc	33 0 65
	movq	-136(%rbp), %rax
	movq	-144(%rbp), %rcx
	.loc	33 3009 24 is_stmt 1
	movq	%rcx, (%rax)
	.loc	33 3009 65 is_stmt 0
	jmp	LBB111_7
LBB111_4:
	.loc	33 3011 24 is_stmt 1
	leaq	l___unnamed_16(%rip), %rsi
	leaq	l___unnamed_5(%rip), %rcx
	xorl	%eax, %eax
	movl	%eax, %r8d
	leaq	-112(%rbp), %rdi
	movq	%rdi, -152(%rbp)
	movl	$1, %edx
	callq	__ZN4core3fmt9Arguments6new_v117h76ec19257ab01895E
	movq	-152(%rbp), %rdi
	leaq	l___unnamed_17(%rip), %rsi
	callq	__ZN4core9panicking9panic_fmt17h9b5d807e24bcaaedE
LBB111_5:
	.loc	33 3012 23
	leaq	l___unnamed_18(%rip), %rsi
	leaq	l___unnamed_5(%rip), %rcx
	xorl	%eax, %eax
	movl	%eax, %r8d
	leaq	-64(%rbp), %rdi
	movq	%rdi, -160(%rbp)
	movl	$1, %edx
	callq	__ZN4core3fmt9Arguments6new_v117h76ec19257ab01895E
	movq	-160(%rbp), %rdi
	leaq	l___unnamed_19(%rip), %rsi
	callq	__ZN4core9panicking9panic_fmt17h9b5d807e24bcaaedE
LBB111_6:
	.loc	33 0 23 is_stmt 0
	movq	-136(%rbp), %rcx
	movq	-144(%rbp), %rax
	.loc	33 3010 23 is_stmt 1
	xchgq	%rax, (%rcx)
LBB111_7:
	.loc	33 3015 2
	addq	$160, %rsp
	popq	%rbp
	retq
Ltmp527:
Lfunc_end111:
	.cfi_endproc
	.p2align	2, 0x90
	.data_region jt32
.set L111_0_set_2, LBB111_2-LJTI111_0
.set L111_0_set_3, LBB111_3-LJTI111_0
.set L111_0_set_4, LBB111_4-LJTI111_0
.set L111_0_set_5, LBB111_5-LJTI111_0
.set L111_0_set_6, LBB111_6-LJTI111_0
LJTI111_0:
	.long	L111_0_set_2
	.long	L111_0_set_3
	.long	L111_0_set_4
	.long	L111_0_set_5
	.long	L111_0_set_6
	.end_data_region

	.p2align	4, 0x90
__ZN4core5alloc6layout6Layout5array5inner17hab0526e4522d921cE:
Lfunc_begin112:
	.file	34 "/rustc/2c8cc343237b8f7d5a3c3703e3a87f2eb2c54a74/library/core/src/alloc" "layout.rs"
	.loc	34 441 0
	.cfi_startproc
	pushq	%rbp
	.cfi_def_cfa_offset 16
	.cfi_offset %rbp, -16
	movq	%rsp, %rbp
	.cfi_def_cfa_register %rbp
	subq	$176, %rsp
	movq	%rdi, -168(%rbp)
	movq	%rsi, -160(%rbp)
	movq	%rdx, -152(%rbp)
	movq	%rdi, -88(%rbp)
	movq	%rsi, -80(%rbp)
	movq	%rdx, -72(%rbp)
Ltmp528:
	.loc	34 452 16 prologue_end
	cmpq	$0, %rdi
	jne	LBB112_2
	movb	$0, -121(%rbp)
	jmp	LBB112_5
LBB112_2:
	.loc	34 0 16 is_stmt 0
	movq	-168(%rbp), %rax
	movq	-160(%rbp), %rcx
	.loc	34 452 68
	movq	%rcx, -64(%rbp)
Ltmp529:
	.loc	34 93 32 is_stmt 1
	movq	%rcx, -56(%rbp)
Ltmp530:
	.file	35 "/rustc/2c8cc343237b8f7d5a3c3703e3a87f2eb2c54a74/library/core/src/ptr" "alignment.rs"
	.loc	35 97 9
	movq	%rcx, -104(%rbp)
	movq	-104(%rbp), %rdx
Ltmp531:
	.loc	34 93 31
	subq	$1, %rdx
	.loc	34 93 9 is_stmt 0
	movabsq	$9223372036854775807, %rcx
	subq	%rdx, %rcx
	movq	%rcx, -176(%rbp)
Ltmp532:
	.loc	34 452 41 is_stmt 1
	cmpq	$0, %rax
	sete	%al
	testb	$1, %al
	jne	LBB112_4
	.loc	34 0 41 is_stmt 0
	movq	-168(%rbp), %rcx
	movq	-176(%rbp), %rax
	.loc	34 452 41
	xorl	%edx, %edx
	divq	%rcx
	movq	%rax, %rcx
	movq	-152(%rbp), %rax
	.loc	34 452 37
	cmpq	%rcx, %rax
	seta	%al
	.loc	34 452 16
	andb	$1, %al
	movb	%al, -121(%rbp)
	jmp	LBB112_5
LBB112_4:
	.loc	34 452 41
	leaq	_str.0(%rip), %rdi
	leaq	l___unnamed_20(%rip), %rdx
	movl	$25, %esi
	callq	__ZN4core9panicking5panic17hc1bc45270cf64b03E
LBB112_5:
	.loc	34 452 16
	testb	$1, -121(%rbp)
	jne	LBB112_7
	.loc	34 0 16
	movq	-160(%rbp), %rax
	movq	-152(%rbp), %rdx
	movq	-168(%rbp), %rcx
	.loc	34 456 30 is_stmt 1
	imulq	%rdx, %rcx
	movq	%rcx, -48(%rbp)
Ltmp533:
	.loc	34 461 59
	movq	%rcx, -40(%rbp)
	.loc	34 461 71 is_stmt 0
	movq	%rax, -32(%rbp)
Ltmp534:
	.loc	35 97 9 is_stmt 1
	movq	%rax, -96(%rbp)
	movq	-96(%rbp), %rax
	movq	%rax, -24(%rbp)
Ltmp535:
	.loc	34 120 65
	movq	%rax, -16(%rbp)
Ltmp536:
	.loc	35 89 18
	movq	%rax, -8(%rbp)
	movq	-8(%rbp), %rax
Ltmp537:
	.loc	34 120 18
	movq	%rcx, -120(%rbp)
	movq	%rax, -112(%rbp)
Ltmp538:
	.loc	34 461 22
	movq	-120(%rbp), %rcx
	movq	-112(%rbp), %rax
	movq	%rcx, -144(%rbp)
	movq	%rax, -136(%rbp)
Ltmp539:
	.loc	34 462 10
	jmp	LBB112_8
LBB112_7:
	.loc	34 453 24
	movq	$0, -136(%rbp)
LBB112_8:
	.loc	34 462 10
	movq	-144(%rbp), %rax
	movq	-136(%rbp), %rdx
	addq	$176, %rsp
	popq	%rbp
	retq
Ltmp540:
Lfunc_end112:
	.cfi_endproc

	.globl	__ZN4core5array85_$LT$impl$u20$core..ops..index..Index$LT$I$GT$$u20$for$u20$$u5b$T$u3b$$u20$N$u5d$$GT$5index17hcb567b4d7b2eee9fE
	.p2align	4, 0x90
__ZN4core5array85_$LT$impl$u20$core..ops..index..Index$LT$I$GT$$u20$for$u20$$u5b$T$u3b$$u20$N$u5d$$GT$5index17hcb567b4d7b2eee9fE:
Lfunc_begin113:
	.file	36 "/rustc/2c8cc343237b8f7d5a3c3703e3a87f2eb2c54a74/library/core/src/array" "mod.rs"
	.loc	36 357 0
	.cfi_startproc
	pushq	%rbp
	.cfi_def_cfa_offset 16
	.cfi_offset %rbp, -16
	movq	%rsp, %rbp
	.cfi_def_cfa_register %rbp
	subq	$16, %rsp
	movq	%rdx, %rcx
	movq	%rsi, %rdx
	movq	%rdi, -16(%rbp)
	movq	%rdx, -8(%rbp)
	movl	$30, %esi
Ltmp541:
	.loc	36 358 9 prologue_end
	callq	__ZN4core5slice5index74_$LT$impl$u20$core..ops..index..Index$LT$I$GT$$u20$for$u20$$u5b$T$u5d$$GT$5index17h2884bb1f8caa8e16E
	.loc	36 359 6
	addq	$16, %rsp
	popq	%rbp
	retq
Ltmp542:
Lfunc_end113:
	.cfi_endproc

	.globl	__ZN4core5array92_$LT$impl$u20$core..convert..AsRef$LT$$u5b$T$u5d$$GT$$u20$for$u20$$u5b$T$u3b$$u20$N$u5d$$GT$6as_ref17hc7b9d63b96e31324E
	.p2align	4, 0x90
__ZN4core5array92_$LT$impl$u20$core..convert..AsRef$LT$$u5b$T$u5d$$GT$$u20$for$u20$$u5b$T$u3b$$u20$N$u5d$$GT$6as_ref17hc7b9d63b96e31324E:
Lfunc_begin114:
	.loc	36 171 0
	.cfi_startproc
	pushq	%rbp
	.cfi_def_cfa_offset 16
	.cfi_offset %rbp, -16
	movq	%rsp, %rbp
	.cfi_def_cfa_register %rbp
	subq	$48, %rsp
	movq	%rdi, -48(%rbp)
Ltmp543:
	.loc	36 172 10 prologue_end
	movq	%rdi, -24(%rbp)
Ltmp544:
	.loc	36 358 22
	movq	%rdi, -16(%rbp)
	movq	$0, -8(%rbp)
Ltmp545:
	.loc	5 18 9
	leaq	l___unnamed_21(%rip), %rdx
	xorl	%eax, %eax
	movl	%eax, %esi
	callq	__ZN97_$LT$core..ops..range..RangeFull$u20$as$u20$core..slice..index..SliceIndex$LT$$u5b$T$u5d$$GT$$GT$5index17hebe4737e3b54d6c5E
Ltmp546:
	.loc	36 173 6
	addq	$48, %rsp
	popq	%rbp
	retq
Ltmp547:
Lfunc_end114:
	.cfi_endproc

	.globl	__ZN4core5slice29_$LT$impl$u20$$u5b$T$u5d$$GT$3len17he01cb98ff974d997E
	.p2align	4, 0x90
__ZN4core5slice29_$LT$impl$u20$$u5b$T$u5d$$GT$3len17he01cb98ff974d997E:
Lfunc_begin115:
	.loc	19 136 0
	.cfi_startproc
	pushq	%rbp
	.cfi_def_cfa_offset 16
	.cfi_offset %rbp, -16
	movq	%rsp, %rbp
	.cfi_def_cfa_register %rbp
	subq	$48, %rsp
	movq	%rdi, -32(%rbp)
	movq	%rsi, -24(%rbp)
Ltmp548:
	.loc	19 137 23 prologue_end
	movq	%rdi, -16(%rbp)
	movq	%rsi, -8(%rbp)
Ltmp549:
	.loc	8 98 14
	movq	%rdi, -48(%rbp)
	movq	%rsi, -40(%rbp)
	movq	-40(%rbp), %rax
Ltmp550:
	.loc	19 138 6
	addq	$48, %rsp
	popq	%rbp
	retq
Ltmp551:
Lfunc_end115:
	.cfi_endproc

	.globl	__ZN4core5slice29_$LT$impl$u20$$u5b$T$u5d$$GT$4iter17hc24c18f4af966d4eE
	.p2align	4, 0x90
__ZN4core5slice29_$LT$impl$u20$$u5b$T$u5d$$GT$4iter17hc24c18f4af966d4eE:
Lfunc_begin116:
	.loc	19 741 0
	.cfi_startproc
	pushq	%rbp
	.cfi_def_cfa_offset 16
	.cfi_offset %rbp, -16
	movq	%rsp, %rbp
	.cfi_def_cfa_register %rbp
	subq	$16, %rsp
	movq	%rdi, -16(%rbp)
	movq	%rsi, -8(%rbp)
Ltmp552:
	.loc	19 742 9 prologue_end
	callq	__ZN4core5slice4iter13Iter$LT$T$GT$3new17hf10ad86500617df3E
	.loc	19 743 6
	addq	$16, %rsp
	popq	%rbp
	retq
Ltmp553:
Lfunc_end116:
	.cfi_endproc

	.globl	__ZN4core5slice29_$LT$impl$u20$$u5b$T$u5d$$GT$8iter_mut17hfde3afb2867953cfE
	.p2align	4, 0x90
__ZN4core5slice29_$LT$impl$u20$$u5b$T$u5d$$GT$8iter_mut17hfde3afb2867953cfE:
Lfunc_begin117:
	.loc	19 760 0
	.cfi_startproc
	pushq	%rbp
	.cfi_def_cfa_offset 16
	.cfi_offset %rbp, -16
	movq	%rsp, %rbp
	.cfi_def_cfa_register %rbp
	subq	$16, %rsp
	movq	%rdi, -16(%rbp)
	movq	%rsi, -8(%rbp)
Ltmp554:
	.loc	19 761 9 prologue_end
	callq	__ZN4core5slice4iter16IterMut$LT$T$GT$3new17h589aaed72f6c202dE
	.loc	19 762 6
	addq	$16, %rsp
	popq	%rbp
	retq
Ltmp555:
Lfunc_end117:
	.cfi_endproc

	.globl	__ZN4core5slice3cmp81_$LT$impl$u20$core..cmp..PartialEq$LT$$u5b$B$u5d$$GT$$u20$for$u20$$u5b$A$u5d$$GT$2eq17hd1a9c2141ee73f83E
	.p2align	4, 0x90
__ZN4core5slice3cmp81_$LT$impl$u20$core..cmp..PartialEq$LT$$u5b$B$u5d$$GT$$u20$for$u20$$u5b$A$u5d$$GT$2eq17hd1a9c2141ee73f83E:
Lfunc_begin118:
	.file	37 "/rustc/2c8cc343237b8f7d5a3c3703e3a87f2eb2c54a74/library/core/src/slice" "cmp.rs"
	.loc	37 25 0
	.cfi_startproc
	pushq	%rbp
	.cfi_def_cfa_offset 16
	.cfi_offset %rbp, -16
	movq	%rsp, %rbp
	.cfi_def_cfa_register %rbp
	subq	$32, %rsp
	movq	%rdi, -32(%rbp)
	movq	%rsi, -24(%rbp)
	movq	%rdx, -16(%rbp)
	movq	%rcx, -8(%rbp)
Ltmp556:
	.loc	37 26 9 prologue_end
	callq	__ZN73_$LT$$u5b$A$u5d$$u20$as$u20$core..slice..cmp..SlicePartialEq$LT$B$GT$$GT$5equal17hd53d732ae6d0d7ceE
	.loc	37 27 6
	andb	$1, %al
	movzbl	%al, %eax
	addq	$32, %rsp
	popq	%rbp
	retq
Ltmp557:
Lfunc_end118:
	.cfi_endproc

	.globl	__ZN4core5slice3raw14from_raw_parts17h456ce8aba8d119caE
	.p2align	4, 0x90
__ZN4core5slice3raw14from_raw_parts17h456ce8aba8d119caE:
Lfunc_begin119:
	.loc	18 92 0
	.cfi_startproc
	pushq	%rbp
	.cfi_def_cfa_offset 16
	.cfi_offset %rbp, -16
	movq	%rsp, %rbp
	.cfi_def_cfa_register %rbp
	subq	$88, %rsp
	movq	%rdi, -56(%rbp)
	movq	%rsi, -48(%rbp)
Ltmp558:
	.loc	18 100 37 prologue_end
	movq	%rdi, -40(%rbp)
	.loc	18 100 43 is_stmt 0
	movq	%rsi, -32(%rbp)
Ltmp559:
	.loc	7 734 20 is_stmt 1
	movq	%rdi, -24(%rbp)
Ltmp560:
	.loc	6 61 9
	movq	%rdi, -16(%rbp)
Ltmp561:
	.loc	7 734 33
	movq	%rsi, -8(%rbp)
Ltmp562:
	.loc	8 118 36
	movq	%rdi, -72(%rbp)
	movq	%rsi, -64(%rbp)
	.loc	8 118 14 is_stmt 0
	movq	-72(%rbp), %rcx
	movq	-64(%rbp), %rax
	movq	%rcx, -88(%rbp)
	movq	%rax, -80(%rbp)
	movq	-88(%rbp), %rax
	movq	-80(%rbp), %rdx
Ltmp563:
	.loc	18 102 2 is_stmt 1
	addq	$88, %rsp
	popq	%rbp
	retq
Ltmp564:
Lfunc_end119:
	.cfi_endproc

	.globl	__ZN4core5slice4iter13Iter$LT$T$GT$3new17haabf574c23906c98E
	.p2align	4, 0x90
__ZN4core5slice4iter13Iter$LT$T$GT$3new17haabf574c23906c98E:
Lfunc_begin120:
	.file	38 "/rustc/2c8cc343237b8f7d5a3c3703e3a87f2eb2c54a74/library/core/src/slice" "iter.rs"
	.loc	38 82 0
	.cfi_startproc
	pushq	%rbp
	.cfi_def_cfa_offset 16
	.cfi_offset %rbp, -16
	movq	%rsp, %rbp
	.cfi_def_cfa_register %rbp
	subq	$280, %rsp
	movq	%rdi, -280(%rbp)
	movq	%rsi, -272(%rbp)
	movq	%rdi, -208(%rbp)
	movq	%rsi, -200(%rbp)
Ltmp565:
	.loc	38 83 19 prologue_end
	movq	%rdi, -184(%rbp)
	movq	%rsi, -176(%rbp)
Ltmp566:
	.loc	19 477 9
	movq	%rdi, -168(%rbp)
Ltmp567:
	.loc	38 86 21
	movq	%rdi, -160(%rbp)
Ltmp568:
	.loc	6 53 36
	movq	%rdi, -232(%rbp)
	.loc	6 53 18 is_stmt 0
	movq	-232(%rbp), %rax
	movq	%rax, -152(%rbp)
Ltmp569:
	.loc	6 39 13 is_stmt 1
	movq	%rax, -144(%rbp)
Ltmp570:
	.loc	6 209 33
	movq	%rax, -136(%rbp)
	.loc	6 209 18 is_stmt 0
	movq	%rax, -128(%rbp)
Ltmp571:
	.loc	38 89 20 is_stmt 1
	xorl	%eax, %eax
	testb	$1, %al
	jne	LBB120_2
	.loc	38 0 20 is_stmt 0
	movq	-280(%rbp), %rax
	movq	-272(%rbp), %rcx
	.loc	38 89 76
	movq	%rax, -40(%rbp)
	.loc	38 89 84
	movq	%rcx, -32(%rbp)
Ltmp572:
	.loc	6 932 18 is_stmt 1
	movq	%rax, -24(%rbp)
	.loc	6 932 30 is_stmt 0
	movq	%rcx, -16(%rbp)
Ltmp573:
	.loc	6 473 18 is_stmt 1
	shlq	$2, %rcx
	addq	%rcx, %rax
	movq	%rax, -248(%rbp)
Ltmp574:
	.loc	38 89 17
	jmp	LBB120_3
LBB120_2:
	.loc	38 0 17 is_stmt 0
	movq	-272(%rbp), %rcx
	movq	-280(%rbp), %rax
	.loc	38 89 32
	movq	%rax, -120(%rbp)
	.loc	38 89 54
	movq	%rcx, -112(%rbp)
Ltmp575:
	.loc	6 1118 9 is_stmt 1
	movq	%rax, -104(%rbp)
Ltmp576:
	.loc	6 61 9
	movq	%rax, -96(%rbp)
Ltmp577:
	.loc	6 1118 40
	movq	%rcx, -88(%rbp)
Ltmp578:
	.loc	6 1100 9
	movq	%rax, -80(%rbp)
	.loc	6 1100 30 is_stmt 0
	movq	%rcx, -72(%rbp)
Ltmp579:
	.loc	6 555 18 is_stmt 1
	addq	%rcx, %rax
	movq	%rax, -64(%rbp)
	movq	-64(%rbp), %rax
	movq	%rax, -56(%rbp)
Ltmp580:
	.loc	6 100 29
	movq	%rax, -48(%rbp)
Ltmp581:
	.loc	8 118 36
	movq	%rax, -216(%rbp)
	.loc	8 118 14 is_stmt 0
	movq	-216(%rbp), %rax
	movq	%rax, -224(%rbp)
	movq	-224(%rbp), %rax
	movq	%rax, -248(%rbp)
Ltmp582:
LBB120_3:
	.loc	8 0 14
	movq	-280(%rbp), %rax
Ltmp583:
	.loc	38 91 48 is_stmt 1
	movq	%rax, -8(%rbp)
Ltmp584:
	.loc	12 201 13
	movq	%rax, -240(%rbp)
Ltmp585:
	.loc	38 91 64
	movq	-248(%rbp), %rax
	.loc	38 91 13 is_stmt 0
	movq	-240(%rbp), %rcx
	movq	%rcx, -256(%rbp)
	movq	%rax, -264(%rbp)
Ltmp586:
	.loc	38 93 6 is_stmt 1
	movq	-264(%rbp), %rax
	movq	-256(%rbp), %rdx
	addq	$280, %rsp
	popq	%rbp
	retq
Ltmp587:
Lfunc_end120:
	.cfi_endproc

	.globl	__ZN4core5slice4iter13Iter$LT$T$GT$3new17hc1c791524a04eb27E
	.p2align	4, 0x90
__ZN4core5slice4iter13Iter$LT$T$GT$3new17hc1c791524a04eb27E:
Lfunc_begin121:
	.loc	38 82 0
	.cfi_startproc
	pushq	%rbp
	.cfi_def_cfa_offset 16
	.cfi_offset %rbp, -16
	movq	%rsp, %rbp
	.cfi_def_cfa_register %rbp
	subq	$280, %rsp
	movq	%rdi, -280(%rbp)
	movq	%rsi, -272(%rbp)
	movq	%rdi, -208(%rbp)
	movq	%rsi, -200(%rbp)
Ltmp588:
	.loc	38 83 19 prologue_end
	movq	%rdi, -184(%rbp)
	movq	%rsi, -176(%rbp)
Ltmp589:
	.loc	19 477 9
	movq	%rdi, -168(%rbp)
Ltmp590:
	.loc	38 86 21
	movq	%rdi, -160(%rbp)
Ltmp591:
	.loc	6 53 36
	movq	%rdi, -232(%rbp)
	.loc	6 53 18 is_stmt 0
	movq	-232(%rbp), %rax
	movq	%rax, -152(%rbp)
Ltmp592:
	.loc	6 39 13 is_stmt 1
	movq	%rax, -144(%rbp)
Ltmp593:
	.loc	6 209 33
	movq	%rax, -136(%rbp)
	.loc	6 209 18 is_stmt 0
	movq	%rax, -128(%rbp)
Ltmp594:
	.loc	38 89 20 is_stmt 1
	xorl	%eax, %eax
	testb	$1, %al
	jne	LBB121_2
	.loc	38 0 20 is_stmt 0
	movq	-272(%rbp), %rcx
	movq	-280(%rbp), %rax
	.loc	38 89 76
	movq	%rax, -40(%rbp)
	.loc	38 89 84
	movq	%rcx, -32(%rbp)
Ltmp595:
	.loc	6 932 18 is_stmt 1
	movq	%rax, -24(%rbp)
	.loc	6 932 30 is_stmt 0
	movq	%rcx, -16(%rbp)
Ltmp596:
	.loc	6 473 18 is_stmt 1
	addq	%rcx, %rax
	movq	%rax, -248(%rbp)
Ltmp597:
	.loc	38 89 17
	jmp	LBB121_3
LBB121_2:
	.loc	38 0 17 is_stmt 0
	movq	-272(%rbp), %rcx
	movq	-280(%rbp), %rax
	.loc	38 89 32
	movq	%rax, -120(%rbp)
	.loc	38 89 54
	movq	%rcx, -112(%rbp)
Ltmp598:
	.loc	6 1118 9 is_stmt 1
	movq	%rax, -104(%rbp)
Ltmp599:
	.loc	6 61 9
	movq	%rax, -96(%rbp)
Ltmp600:
	.loc	6 1118 40
	movq	%rcx, -88(%rbp)
Ltmp601:
	.loc	6 1100 9
	movq	%rax, -80(%rbp)
	.loc	6 1100 30 is_stmt 0
	movq	%rcx, -72(%rbp)
Ltmp602:
	.loc	6 555 18 is_stmt 1
	addq	%rcx, %rax
	movq	%rax, -64(%rbp)
	movq	-64(%rbp), %rax
	movq	%rax, -56(%rbp)
Ltmp603:
	.loc	6 100 29
	movq	%rax, -48(%rbp)
Ltmp604:
	.loc	8 118 36
	movq	%rax, -216(%rbp)
	.loc	8 118 14 is_stmt 0
	movq	-216(%rbp), %rax
	movq	%rax, -224(%rbp)
	movq	-224(%rbp), %rax
	movq	%rax, -248(%rbp)
Ltmp605:
LBB121_3:
	.loc	8 0 14
	movq	-280(%rbp), %rax
Ltmp606:
	.loc	38 91 48 is_stmt 1
	movq	%rax, -8(%rbp)
Ltmp607:
	.loc	12 201 13
	movq	%rax, -240(%rbp)
Ltmp608:
	.loc	38 91 64
	movq	-248(%rbp), %rax
	.loc	38 91 13 is_stmt 0
	movq	-240(%rbp), %rcx
	movq	%rcx, -256(%rbp)
	movq	%rax, -264(%rbp)
Ltmp609:
	.loc	38 93 6 is_stmt 1
	movq	-264(%rbp), %rax
	movq	-256(%rbp), %rdx
	addq	$280, %rsp
	popq	%rbp
	retq
Ltmp610:
Lfunc_end121:
	.cfi_endproc

	.globl	__ZN4core5slice4iter13Iter$LT$T$GT$3new17hf10ad86500617df3E
	.p2align	4, 0x90
__ZN4core5slice4iter13Iter$LT$T$GT$3new17hf10ad86500617df3E:
Lfunc_begin122:
	.loc	38 82 0
	.cfi_startproc
	pushq	%rbp
	.cfi_def_cfa_offset 16
	.cfi_offset %rbp, -16
	movq	%rsp, %rbp
	.cfi_def_cfa_register %rbp
	subq	$280, %rsp
	movq	%rdi, -280(%rbp)
	movq	%rsi, -272(%rbp)
	movq	%rdi, -208(%rbp)
	movq	%rsi, -200(%rbp)
Ltmp611:
	.loc	38 83 19 prologue_end
	movq	%rdi, -184(%rbp)
	movq	%rsi, -176(%rbp)
Ltmp612:
	.loc	19 477 9
	movq	%rdi, -168(%rbp)
Ltmp613:
	.loc	38 86 21
	movq	%rdi, -160(%rbp)
Ltmp614:
	.loc	6 53 36
	movq	%rdi, -232(%rbp)
	.loc	6 53 18 is_stmt 0
	movq	-232(%rbp), %rax
	movq	%rax, -152(%rbp)
Ltmp615:
	.loc	6 39 13 is_stmt 1
	movq	%rax, -144(%rbp)
Ltmp616:
	.loc	6 209 33
	movq	%rax, -136(%rbp)
	.loc	6 209 18 is_stmt 0
	movq	%rax, -128(%rbp)
Ltmp617:
	.loc	38 89 20 is_stmt 1
	xorl	%eax, %eax
	testb	$1, %al
	jne	LBB122_2
	.loc	38 0 20 is_stmt 0
	movq	-280(%rbp), %rax
	movq	-272(%rbp), %rcx
	.loc	38 89 76
	movq	%rax, -40(%rbp)
	.loc	38 89 84
	movq	%rcx, -32(%rbp)
Ltmp618:
	.loc	6 932 18 is_stmt 1
	movq	%rax, -24(%rbp)
	.loc	6 932 30 is_stmt 0
	movq	%rcx, -16(%rbp)
Ltmp619:
	.loc	6 473 18 is_stmt 1
	shlq	$5, %rcx
	addq	%rcx, %rax
	movq	%rax, -248(%rbp)
Ltmp620:
	.loc	38 89 17
	jmp	LBB122_3
LBB122_2:
	.loc	38 0 17 is_stmt 0
	movq	-272(%rbp), %rcx
	movq	-280(%rbp), %rax
	.loc	38 89 32
	movq	%rax, -120(%rbp)
	.loc	38 89 54
	movq	%rcx, -112(%rbp)
Ltmp621:
	.loc	6 1118 9 is_stmt 1
	movq	%rax, -104(%rbp)
Ltmp622:
	.loc	6 61 9
	movq	%rax, -96(%rbp)
Ltmp623:
	.loc	6 1118 40
	movq	%rcx, -88(%rbp)
Ltmp624:
	.loc	6 1100 9
	movq	%rax, -80(%rbp)
	.loc	6 1100 30 is_stmt 0
	movq	%rcx, -72(%rbp)
Ltmp625:
	.loc	6 555 18 is_stmt 1
	addq	%rcx, %rax
	movq	%rax, -64(%rbp)
	movq	-64(%rbp), %rax
	movq	%rax, -56(%rbp)
Ltmp626:
	.loc	6 100 29
	movq	%rax, -48(%rbp)
Ltmp627:
	.loc	8 118 36
	movq	%rax, -216(%rbp)
	.loc	8 118 14 is_stmt 0
	movq	-216(%rbp), %rax
	movq	%rax, -224(%rbp)
	movq	-224(%rbp), %rax
	movq	%rax, -248(%rbp)
Ltmp628:
LBB122_3:
	.loc	8 0 14
	movq	-280(%rbp), %rax
Ltmp629:
	.loc	38 91 48 is_stmt 1
	movq	%rax, -8(%rbp)
Ltmp630:
	.loc	12 201 13
	movq	%rax, -240(%rbp)
Ltmp631:
	.loc	38 91 64
	movq	-248(%rbp), %rax
	.loc	38 91 13 is_stmt 0
	movq	-240(%rbp), %rcx
	movq	%rcx, -256(%rbp)
	movq	%rax, -264(%rbp)
Ltmp632:
	.loc	38 93 6 is_stmt 1
	movq	-264(%rbp), %rax
	movq	-256(%rbp), %rdx
	addq	$280, %rsp
	popq	%rbp
	retq
Ltmp633:
Lfunc_end122:
	.cfi_endproc

	.globl	__ZN4core5slice4iter13Iter$LT$T$GT$8as_slice17h733235cfe5598a5bE
	.p2align	4, 0x90
__ZN4core5slice4iter13Iter$LT$T$GT$8as_slice17h733235cfe5598a5bE:
Lfunc_begin123:
	.loc	38 122 0
	.cfi_startproc
	pushq	%rbp
	.cfi_def_cfa_offset 16
	.cfi_offset %rbp, -16
	movq	%rsp, %rbp
	.cfi_def_cfa_register %rbp
	subq	$224, %rsp
	movq	%rdi, -224(%rbp)
	movq	%rdi, -160(%rbp)
Ltmp634:
	.loc	38 123 9 prologue_end
	movq	%rdi, -152(%rbp)
Ltmp635:
	.file	39 "/rustc/2c8cc343237b8f7d5a3c3703e3a87f2eb2c54a74/library/core/src/slice/iter" "macros.rs"
	.loc	39 68 41
	movq	8(%rdi), %rax
	movq	%rax, -216(%rbp)
	movq	%rax, -144(%rbp)
	movq	%rax, -136(%rbp)
	.loc	39 16 21
	movq	8(%rdi), %rax
	movq	%rax, -208(%rbp)
	movq	%rax, -128(%rbp)
Ltmp636:
	.loc	39 17 12
	xorl	%eax, %eax
	testb	$1, %al
	jne	LBB123_2
	.loc	39 0 12 is_stmt 0
	movq	-208(%rbp), %rsi
	movq	-224(%rbp), %rax
	.loc	39 25 22 is_stmt 1
	movq	(%rax), %rdi
	.loc	39 25 40 is_stmt 0
	movq	%rsi, -48(%rbp)
	.loc	39 25 22
	callq	__ZN4core3ptr9const_ptr33_$LT$impl$u20$$BP$const$u20$T$GT$7sub_ptr17hae8a5e12840a3f96E
	movq	%rax, -200(%rbp)
	.loc	39 17 9 is_stmt 1
	jmp	LBB123_3
LBB123_2:
	.loc	39 0 9 is_stmt 0
	movq	-208(%rbp), %rcx
	movq	-224(%rbp), %rax
	.loc	39 20 13 is_stmt 1
	movq	(%rax), %rax
	movq	%rax, -120(%rbp)
Ltmp637:
	.loc	6 209 33
	movq	%rax, -112(%rbp)
	.loc	6 209 18 is_stmt 0
	movq	%rax, -104(%rbp)
	movq	-104(%rbp), %rax
	movq	%rax, -96(%rbp)
Ltmp638:
	.loc	39 20 43 is_stmt 1
	movq	%rcx, -88(%rbp)
Ltmp639:
	.loc	12 326 9
	movq	%rcx, -80(%rbp)
Ltmp640:
	.loc	23 215 33
	movq	%rcx, -72(%rbp)
	.loc	23 215 18 is_stmt 0
	movq	%rcx, -64(%rbp)
	movq	-64(%rbp), %rcx
	movq	%rcx, -56(%rbp)
Ltmp641:
	.loc	21 1203 13 is_stmt 1
	subq	%rcx, %rax
	movq	%rax, -200(%rbp)
Ltmp642:
LBB123_3:
	.loc	21 0 13 is_stmt 0
	movq	-216(%rbp), %rcx
Ltmp643:
	.loc	18 100 37 is_stmt 1
	movq	%rcx, -40(%rbp)
	.loc	18 100 43 is_stmt 0
	movq	-200(%rbp), %rax
	movq	%rax, -32(%rbp)
Ltmp644:
	.loc	7 734 20 is_stmt 1
	movq	%rcx, -24(%rbp)
Ltmp645:
	.loc	6 61 9
	movq	%rcx, -16(%rbp)
Ltmp646:
	.loc	7 734 33
	movq	%rax, -8(%rbp)
Ltmp647:
	.loc	8 118 36
	movq	%rcx, -176(%rbp)
	movq	%rax, -168(%rbp)
	.loc	8 118 14 is_stmt 0
	movq	-176(%rbp), %rcx
	movq	-168(%rbp), %rax
	movq	%rcx, -192(%rbp)
	movq	%rax, -184(%rbp)
	movq	-192(%rbp), %rax
	movq	-184(%rbp), %rdx
Ltmp648:
	.loc	38 124 6 is_stmt 1
	addq	$224, %rsp
	popq	%rbp
	retq
Ltmp649:
Lfunc_end123:
	.cfi_endproc

	.globl	__ZN4core5slice4iter16IterMut$LT$T$GT$3new17h589aaed72f6c202dE
	.p2align	4, 0x90
__ZN4core5slice4iter16IterMut$LT$T$GT$3new17h589aaed72f6c202dE:
Lfunc_begin124:
	.loc	38 203 0
	.cfi_startproc
	pushq	%rbp
	.cfi_def_cfa_offset 16
	.cfi_offset %rbp, -16
	movq	%rsp, %rbp
	.cfi_def_cfa_register %rbp
	subq	$288, %rsp
	movq	%rdi, -288(%rbp)
	movq	%rsi, -280(%rbp)
	movq	%rdi, -216(%rbp)
	movq	%rsi, -208(%rbp)
Ltmp650:
	.loc	38 204 19 prologue_end
	movq	%rdi, -192(%rbp)
	movq	%rsi, -184(%rbp)
Ltmp651:
	.loc	19 507 9
	movq	%rdi, -176(%rbp)
Ltmp652:
	.loc	38 222 21
	movq	%rdi, -168(%rbp)
Ltmp653:
	.loc	23 52 36
	movq	%rdi, -240(%rbp)
	.loc	23 52 18 is_stmt 0
	movq	-240(%rbp), %rax
	movq	%rax, -160(%rbp)
Ltmp654:
	.loc	23 38 13 is_stmt 1
	movq	%rax, -152(%rbp)
Ltmp655:
	.loc	23 215 33
	movq	%rax, -144(%rbp)
	.loc	23 215 18 is_stmt 0
	movq	%rax, -136(%rbp)
Ltmp656:
	.loc	38 225 20 is_stmt 1
	xorl	%eax, %eax
	testb	$1, %al
	jne	LBB124_2
	.loc	38 0 20 is_stmt 0
	movq	-280(%rbp), %rcx
	movq	-288(%rbp), %rax
	.loc	38 225 76
	movq	%rax, -48(%rbp)
	.loc	38 225 84
	movq	%rcx, -40(%rbp)
Ltmp657:
	.loc	23 1034 18 is_stmt 1
	movq	%rax, -32(%rbp)
	.loc	23 1034 30 is_stmt 0
	movq	%rcx, -24(%rbp)
Ltmp658:
	.loc	23 487 18 is_stmt 1
	addq	%rcx, %rax
	movq	%rax, -16(%rbp)
	movq	-16(%rbp), %rax
	movq	%rax, -256(%rbp)
Ltmp659:
	.loc	38 225 17
	jmp	LBB124_3
LBB124_2:
	.loc	38 0 17 is_stmt 0
	movq	-280(%rbp), %rcx
	movq	-288(%rbp), %rax
	.loc	38 225 32
	movq	%rax, -128(%rbp)
	.loc	38 225 54
	movq	%rcx, -120(%rbp)
Ltmp660:
	.loc	23 1220 9 is_stmt 1
	movq	%rax, -112(%rbp)
Ltmp661:
	.loc	23 60 9
	movq	%rax, -104(%rbp)
Ltmp662:
	.loc	23 1220 40
	movq	%rcx, -96(%rbp)
Ltmp663:
	.loc	23 1202 9
	movq	%rax, -88(%rbp)
	.loc	23 1202 30 is_stmt 0
	movq	%rcx, -80(%rbp)
Ltmp664:
	.loc	23 568 18 is_stmt 1
	addq	%rcx, %rax
	movq	%rax, -72(%rbp)
	movq	-72(%rbp), %rax
	movq	%rax, -64(%rbp)
Ltmp665:
	.loc	23 99 33
	movq	%rax, -56(%rbp)
Ltmp666:
	.loc	8 135 36
	movq	%rax, -224(%rbp)
	.loc	8 135 14 is_stmt 0
	movq	-224(%rbp), %rax
	movq	%rax, -232(%rbp)
	movq	-232(%rbp), %rax
	movq	%rax, -256(%rbp)
Ltmp667:
LBB124_3:
	.loc	8 0 14
	movq	-288(%rbp), %rax
Ltmp668:
	.loc	38 227 48 is_stmt 1
	movq	%rax, -8(%rbp)
Ltmp669:
	.loc	12 201 13
	movq	%rax, -248(%rbp)
Ltmp670:
	.loc	38 227 54
	movq	-256(%rbp), %rax
	.loc	38 227 13 is_stmt 0
	movq	-248(%rbp), %rcx
	movq	%rcx, -264(%rbp)
	movq	%rax, -272(%rbp)
Ltmp671:
	.loc	38 229 6 is_stmt 1
	movq	-272(%rbp), %rax
	movq	-264(%rbp), %rdx
	addq	$288, %rsp
	popq	%rbp
	retq
Ltmp672:
Lfunc_end124:
	.cfi_endproc

	.globl	__ZN4core5slice5index74_$LT$impl$u20$core..ops..index..Index$LT$I$GT$$u20$for$u20$$u5b$T$u5d$$GT$5index17h2884bb1f8caa8e16E
	.p2align	4, 0x90
__ZN4core5slice5index74_$LT$impl$u20$core..ops..index..Index$LT$I$GT$$u20$for$u20$$u5b$T$u5d$$GT$5index17h2884bb1f8caa8e16E:
Lfunc_begin125:
	.loc	5 17 0
	.cfi_startproc
	pushq	%rbp
	.cfi_def_cfa_offset 16
	.cfi_offset %rbp, -16
	movq	%rsp, %rbp
	.cfi_def_cfa_register %rbp
	subq	$32, %rsp
	movq	%rdx, -32(%rbp)
	movq	%rsi, %rdx
	movq	%rdi, %rsi
	movq	-32(%rbp), %rdi
	movq	%rsi, -24(%rbp)
	movq	%rdx, -16(%rbp)
	movq	%rdi, -8(%rbp)
Ltmp673:
	.loc	5 18 9 prologue_end
	callq	__ZN108_$LT$core..ops..range..RangeTo$LT$usize$GT$$u20$as$u20$core..slice..index..SliceIndex$LT$$u5b$T$u5d$$GT$$GT$5index17h0dfef73ca13810bdE
	.loc	5 19 6
	addq	$32, %rsp
	popq	%rbp
	retq
Ltmp674:
Lfunc_end125:
	.cfi_endproc

	.p2align	4, 0x90
__ZN4core5slice6memchr12memchr_naive17hb41e0510c9a2cb6dE:
Lfunc_begin126:
	.file	40 "/rustc/2c8cc343237b8f7d5a3c3703e3a87f2eb2c54a74/library/core/src/slice" "memchr.rs"
	.loc	40 48 0
	.cfi_startproc
	pushq	%rbp
	.cfi_def_cfa_offset 16
	.cfi_offset %rbp, -16
	movq	%rsp, %rbp
	.cfi_def_cfa_register %rbp
	subq	$80, %rsp
	movq	%rdx, -72(%rbp)
	movq	%rsi, -64(%rbp)
	movb	%dil, %al
	movb	%al, -49(%rbp)
	movb	%al, -17(%rbp)
	movq	%rsi, -16(%rbp)
	movq	%rdx, -8(%rbp)
Ltmp675:
	.loc	40 49 17 prologue_end
	movq	$0, -32(%rbp)
LBB126_1:
	.loc	40 0 17 is_stmt 0
	movq	-72(%rbp), %rax
Ltmp676:
	.loc	40 52 11 is_stmt 1
	cmpq	%rax, -32(%rbp)
	jb	LBB126_3
	.loc	40 60 5
	movq	$0, -48(%rbp)
Ltmp677:
	.loc	40 61 2
	jmp	LBB126_8
LBB126_3:
	.loc	40 0 2 is_stmt 0
	movq	-72(%rbp), %rcx
Ltmp678:
	.loc	40 53 17 is_stmt 1
	movq	-32(%rbp), %rax
	movq	%rax, -80(%rbp)
	.loc	40 53 12 is_stmt 0
	cmpq	%rcx, %rax
	setb	%al
	testb	$1, %al
	jne	LBB126_4
	jmp	LBB126_5
LBB126_4:
	.loc	40 0 12
	movq	-64(%rbp), %rax
	movq	-80(%rbp), %rcx
	movb	-49(%rbp), %dl
	.loc	40 53 12
	cmpb	%dl, (%rax,%rcx)
	je	LBB126_7
	jmp	LBB126_6
LBB126_5:
	.loc	40 0 12
	movq	-72(%rbp), %rsi
	movq	-80(%rbp), %rdi
	.loc	40 53 12
	leaq	l___unnamed_22(%rip), %rdx
	callq	__ZN4core9panicking18panic_bounds_check17hacb8a94866cda541E
LBB126_6:
	.loc	40 57 9 is_stmt 1
	movq	-32(%rbp), %rax
	addq	$1, %rax
	movq	%rax, -32(%rbp)
	.loc	40 52 5
	jmp	LBB126_1
LBB126_7:
	.loc	40 54 25
	movq	-32(%rbp), %rax
	.loc	40 54 20 is_stmt 0
	movq	%rax, -40(%rbp)
	movq	$1, -48(%rbp)
Ltmp679:
LBB126_8:
	.loc	40 61 2 is_stmt 1
	movq	-48(%rbp), %rax
	movq	-40(%rbp), %rdx
	addq	$80, %rsp
	popq	%rbp
	retq
Ltmp680:
Lfunc_end126:
	.cfi_endproc

	.p2align	4, 0x90
__ZN4core5slice6memchr6memchr17ha879744b6a11c9a0E:
Lfunc_begin127:
	.loc	40 38 0
	.cfi_startproc
	pushq	%rbp
	.cfi_def_cfa_offset 16
	.cfi_offset %rbp, -16
	movq	%rsp, %rbp
	.cfi_def_cfa_register %rbp
	subq	$64, %rsp
	movq	%rdx, -64(%rbp)
	movq	%rsi, -56(%rbp)
	movb	%dil, %al
	movb	%al, -41(%rbp)
	movb	%al, -17(%rbp)
	movq	%rsi, -16(%rbp)
	movq	%rdx, -8(%rbp)
Ltmp681:
	.loc	40 40 8 prologue_end
	cmpq	$16, %rdx
	jb	LBB127_2
	.loc	40 0 8 is_stmt 0
	movq	-64(%rbp), %rdx
	movq	-56(%rbp), %rsi
	movb	-41(%rbp), %al
	.loc	40 44 5 is_stmt 1
	movzbl	%al, %edi
	callq	__ZN4core5slice6memchr14memchr_aligned17h35d16807f0081d88E
	movq	%rdx, -32(%rbp)
	movq	%rax, -40(%rbp)
	.loc	40 45 2
	jmp	LBB127_3
LBB127_2:
	.loc	40 0 2 is_stmt 0
	movq	-64(%rbp), %rdx
	movq	-56(%rbp), %rsi
	movb	-41(%rbp), %al
	.loc	40 41 16 is_stmt 1
	movzbl	%al, %edi
	callq	__ZN4core5slice6memchr12memchr_naive17hb41e0510c9a2cb6dE
	movq	%rdx, -32(%rbp)
	movq	%rax, -40(%rbp)
LBB127_3:
	.loc	40 45 2
	movq	-40(%rbp), %rax
	movq	-32(%rbp), %rdx
	addq	$64, %rsp
	popq	%rbp
	retq
Ltmp682:
Lfunc_end127:
	.cfi_endproc

	.globl	__ZN4core6option15Option$LT$T$GT$16unwrap_unchecked17h7e04d7a8a8db720aE
	.p2align	4, 0x90
__ZN4core6option15Option$LT$T$GT$16unwrap_unchecked17h7e04d7a8a8db720aE:
Lfunc_begin128:
	.loc	25 933 0
	.cfi_startproc
	.cfi_personality 155, _rust_eh_personality
	.cfi_lsda 16, Lexception17
	pushq	%rbp
	.cfi_def_cfa_offset 16
	.cfi_offset %rbp, -16
	movq	%rsp, %rbp
	.cfi_def_cfa_register %rbp
	subq	$32, %rsp
	movq	%rdi, -32(%rbp)
Ltmp686:
	.loc	25 935 15 prologue_end
	movq	-32(%rbp), %rdx
	movl	$1, %eax
	xorl	%ecx, %ecx
	cmpq	$0, %rdx
	cmoveq	%rcx, %rax
	.loc	25 935 9 is_stmt 0
	cmpq	$0, %rax
	jne	LBB128_2
Ltmp683:
	.loc	25 938 30 is_stmt 1
	callq	__ZN4core4hint21unreachable_unchecked17h401469371f629e47E
Ltmp684:
	jmp	LBB128_5
LBB128_2:
	.loc	25 936 18
	movq	-32(%rbp), %rax
	movq	%rax, -24(%rbp)
	.loc	25 940 6
	addq	$32, %rsp
	popq	%rbp
	retq
LBB128_3:
	.loc	25 940 5 is_stmt 0
	movq	-32(%rbp), %rdx
	movl	$1, %eax
	xorl	%ecx, %ecx
	cmpq	$0, %rdx
	cmoveq	%rcx, %rax
	cmpq	$1, %rax
	je	LBB128_6
	jmp	LBB128_7
LBB128_4:
Ltmp685:
	.loc	25 0 5
	movq	%rax, %rcx
	movl	%edx, %eax
	movq	%rcx, -16(%rbp)
	movl	%eax, -8(%rbp)
	jmp	LBB128_3
LBB128_5:
	ud2
LBB128_6:
	.loc	25 940 5
	movb	$1, %al
	testb	$1, %al
	jne	LBB128_8
	jmp	LBB128_7
LBB128_7:
	.loc	25 933 5 is_stmt 1
	movq	-16(%rbp), %rdi
	callq	__Unwind_Resume
LBB128_8:
	.loc	25 940 5
	jmp	LBB128_7
Ltmp687:
Lfunc_end128:
	.cfi_endproc
	.section	__TEXT,__gcc_except_tab
	.p2align	2
GCC_except_table128:
Lexception17:
	.byte	255
	.byte	255
	.byte	1
	.uleb128 Lcst_end17-Lcst_begin17
Lcst_begin17:
	.uleb128 Ltmp683-Lfunc_begin128
	.uleb128 Ltmp684-Ltmp683
	.uleb128 Ltmp685-Lfunc_begin128
	.byte	0
	.uleb128 Ltmp684-Lfunc_begin128
	.uleb128 Lfunc_end128-Ltmp684
	.byte	0
	.byte	0
Lcst_end17:
	.p2align	2

	.section	__TEXT,__text,regular,pure_instructions
	.globl	__ZN4core6option15Option$LT$T$GT$3map17ha65bc0f51c61057aE
	.p2align	4, 0x90
__ZN4core6option15Option$LT$T$GT$3map17ha65bc0f51c61057aE:
Lfunc_begin129:
	.loc	25 964 0
	.cfi_startproc
	pushq	%rbp
	.cfi_def_cfa_offset 16
	.cfi_offset %rbp, -16
	movq	%rsp, %rbp
	.cfi_def_cfa_register %rbp
	subq	$32, %rsp
	movl	%edi, -32(%rbp)
	movl	%esi, -28(%rbp)
Ltmp688:
	.loc	25 969 15 prologue_end
	movb	$1, -9(%rbp)
	movl	-32(%rbp), %eax
	.loc	25 969 9 is_stmt 0
	cmpq	$0, %rax
	jne	LBB129_2
	.loc	25 971 21 is_stmt 1
	movl	$1114112, -20(%rbp)
	jmp	LBB129_3
LBB129_2:
	.loc	25 970 18
	movl	-28(%rbp), %eax
	movl	%eax, -4(%rbp)
Ltmp689:
	.loc	25 970 29 is_stmt 0
	movb	$0, -9(%rbp)
	movl	%eax, -16(%rbp)
	movl	-16(%rbp), %edi
	callq	__ZN81_$LT$core..str..iter..Chars$u20$as$u20$core..iter..traits..iterator..Iterator$GT$4next28_$u7b$$u7b$closure$u7d$$u7d$17hf8d22e7a882902adE
	.loc	25 970 24
	movl	%eax, -20(%rbp)
Ltmp690:
LBB129_3:
	.loc	25 973 5 is_stmt 1
	testb	$1, -9(%rbp)
	jne	LBB129_5
LBB129_4:
	.loc	25 973 6 is_stmt 0
	movl	-20(%rbp), %eax
	addq	$32, %rsp
	popq	%rbp
	retq
LBB129_5:
	.loc	25 973 5
	jmp	LBB129_4
Ltmp691:
Lfunc_end129:
	.cfi_endproc

	.globl	__ZN4core6option15Option$LT$T$GT$6map_or17hd8cb5680a5065f8bE
	.p2align	4, 0x90
__ZN4core6option15Option$LT$T$GT$6map_or17hd8cb5680a5065f8bE:
Lfunc_begin130:
	.loc	25 1026 0 is_stmt 1
	.cfi_startproc
	.cfi_personality 155, _rust_eh_personality
	.cfi_lsda 16, Lexception18
	pushq	%rbp
	.cfi_def_cfa_offset 16
	.cfi_offset %rbp, -16
	movq	%rsp, %rbp
	.cfi_def_cfa_register %rbp
	subq	$96, %rsp
	movq	%rsi, -80(%rbp)
	movq	%rdi, -72(%rbp)
	movq	%rsi, -40(%rbp)
Ltmp695:
	.loc	25 1032 15 prologue_end
	movb	$1, -41(%rbp)
	movb	$1, -42(%rbp)
	movq	-72(%rbp), %rdx
	movl	$1, %eax
	xorl	%ecx, %ecx
	cmpq	$0, %rdx
	cmoveq	%rcx, %rax
	.loc	25 1032 9 is_stmt 0
	cmpq	$0, %rax
	jne	LBB130_2
	.loc	25 0 9
	movq	-80(%rbp), %rax
	.loc	25 1034 21 is_stmt 1
	movb	$0, -41(%rbp)
	movq	%rax, -64(%rbp)
	jmp	LBB130_6
LBB130_2:
	.loc	25 1033 18
	movq	-72(%rbp), %rax
	movq	%rax, -24(%rbp)
Ltmp696:
	.loc	25 1033 24 is_stmt 0
	movb	$0, -42(%rbp)
	movq	%rax, -56(%rbp)
	movq	-56(%rbp), %rdi
Ltmp692:
	callq	__ZN4objc7declare9ClassDecl15with_superclass28_$u7b$$u7b$closure$u7d$$u7d$17hbd7a66165ac11c14E
Ltmp693:
	movq	%rax, -88(%rbp)
	jmp	LBB130_5
Ltmp697:
LBB130_3:
	.loc	25 1036 5 is_stmt 1
	testb	$1, -41(%rbp)
	jne	LBB130_10
	jmp	LBB130_9
LBB130_4:
Ltmp694:
	.loc	25 0 5 is_stmt 0
	movq	%rax, %rcx
	movl	%edx, %eax
	movq	%rcx, -16(%rbp)
	movl	%eax, -8(%rbp)
	jmp	LBB130_3
LBB130_5:
	movq	-88(%rbp), %rax
Ltmp698:
	.loc	25 1033 24 is_stmt 1
	movq	%rax, -64(%rbp)
Ltmp699:
LBB130_6:
	.loc	25 1036 5
	testb	$1, -42(%rbp)
	jne	LBB130_8
LBB130_7:
	testb	$1, -41(%rbp)
	jne	LBB130_12
	jmp	LBB130_11
LBB130_8:
	jmp	LBB130_7
LBB130_9:
	.loc	25 1026 5
	movq	-16(%rbp), %rdi
	callq	__Unwind_Resume
LBB130_10:
	.loc	25 1036 5
	jmp	LBB130_9
LBB130_11:
	.loc	25 1036 6 is_stmt 0
	movq	-64(%rbp), %rax
	addq	$96, %rsp
	popq	%rbp
	retq
LBB130_12:
	.loc	25 1036 5
	jmp	LBB130_11
Ltmp700:
Lfunc_end130:
	.cfi_endproc
	.section	__TEXT,__gcc_except_tab
	.p2align	2
GCC_except_table130:
Lexception18:
	.byte	255
	.byte	255
	.byte	1
	.uleb128 Lcst_end18-Lcst_begin18
Lcst_begin18:
	.uleb128 Ltmp692-Lfunc_begin130
	.uleb128 Ltmp693-Ltmp692
	.uleb128 Ltmp694-Lfunc_begin130
	.byte	0
	.uleb128 Ltmp693-Lfunc_begin130
	.uleb128 Lfunc_end130-Ltmp693
	.byte	0
	.byte	0
Lcst_end18:
	.p2align	2

	.section	__TEXT,__text,regular,pure_instructions
	.globl	__ZN4core6option15Option$LT$T$GT$6unwrap17h6c7757d4d3071081E
	.p2align	4, 0x90
__ZN4core6option15Option$LT$T$GT$6unwrap17h6c7757d4d3071081E:
Lfunc_begin131:
	.loc	25 820 0 is_stmt 1
	.cfi_startproc
	pushq	%rbp
	.cfi_def_cfa_offset 16
	.cfi_offset %rbp, -16
	movq	%rsp, %rbp
	.cfi_def_cfa_register %rbp
	subq	$32, %rsp
	movq	%rdi, -32(%rbp)
Ltmp701:
	movq	%rsi, -24(%rbp)
Ltmp702:
	.loc	25 821 9 prologue_end
	cmpq	$0, (%rdi)
Ltmp703:
	jne	LBB131_2
Ltmp704:
	.loc	25 0 9 is_stmt 0
	movq	-24(%rbp), %rdx
	.loc	25 823 21 is_stmt 1
	leaq	l___unnamed_23(%rip), %rdi
	movl	$43, %esi
	callq	__ZN4core9panicking5panic17hc1bc45270cf64b03E
Ltmp705:
LBB131_2:
	.loc	25 0 21 is_stmt 0
	movq	-32(%rbp), %rcx
	.loc	25 822 18 is_stmt 1
	movq	8(%rcx), %rax
	movq	16(%rcx), %rdx
	movq	%rax, -16(%rbp)
	movq	%rdx, -8(%rbp)
	.loc	25 825 6
	addq	$32, %rsp
	popq	%rbp
	retq
Ltmp706:
Lfunc_end131:
	.cfi_endproc

	.globl	__ZN4core6option15Option$LT$T$GT$6unwrap17h8192bb32b768860fE
	.p2align	4, 0x90
__ZN4core6option15Option$LT$T$GT$6unwrap17h8192bb32b768860fE:
Lfunc_begin132:
	.loc	25 820 0
	.cfi_startproc
	pushq	%rbp
	.cfi_def_cfa_offset 16
	.cfi_offset %rbp, -16
	movq	%rsp, %rbp
	.cfi_def_cfa_register %rbp
	subq	$32, %rsp
	movq	%rdi, -32(%rbp)
Ltmp707:
	movq	%rsi, -24(%rbp)
Ltmp708:
	.loc	25 821 9 prologue_end
	cmpq	$0, (%rdi)
Ltmp709:
	jne	LBB132_2
Ltmp710:
	.loc	25 0 9 is_stmt 0
	movq	-24(%rbp), %rdx
	.loc	25 823 21 is_stmt 1
	leaq	l___unnamed_23(%rip), %rdi
	movl	$43, %esi
	callq	__ZN4core9panicking5panic17hc1bc45270cf64b03E
Ltmp711:
LBB132_2:
	.loc	25 0 21 is_stmt 0
	movq	-32(%rbp), %rcx
	.loc	25 822 18 is_stmt 1
	movq	8(%rcx), %rax
	movq	16(%rcx), %rdx
	movq	%rax, -16(%rbp)
	movq	%rdx, -8(%rbp)
	.loc	25 825 6
	addq	$32, %rsp
	popq	%rbp
	retq
Ltmp712:
Lfunc_end132:
	.cfi_endproc

	.globl	__ZN4core6option15Option$LT$T$GT$6unwrap17h854fd398c73ddf32E
	.p2align	4, 0x90
__ZN4core6option15Option$LT$T$GT$6unwrap17h854fd398c73ddf32E:
Lfunc_begin133:
	.loc	25 820 0
	.cfi_startproc
	pushq	%rbp
	.cfi_def_cfa_offset 16
	.cfi_offset %rbp, -16
	movq	%rsp, %rbp
	.cfi_def_cfa_register %rbp
	subq	$32, %rsp
	movq	%rdi, -32(%rbp)
Ltmp713:
	movq	%rsi, -24(%rbp)
Ltmp714:
	.loc	25 821 9 prologue_end
	cmpq	$0, (%rdi)
Ltmp715:
	jne	LBB133_2
Ltmp716:
	.loc	25 0 9 is_stmt 0
	movq	-24(%rbp), %rdx
	.loc	25 823 21 is_stmt 1
	leaq	l___unnamed_23(%rip), %rdi
	movl	$43, %esi
	callq	__ZN4core9panicking5panic17hc1bc45270cf64b03E
Ltmp717:
LBB133_2:
	.loc	25 0 21 is_stmt 0
	movq	-32(%rbp), %rcx
	.loc	25 822 18 is_stmt 1
	movq	8(%rcx), %rax
	movq	16(%rcx), %rdx
	movq	%rax, -16(%rbp)
	movq	%rdx, -8(%rbp)
	.loc	25 825 6
	addq	$32, %rsp
	popq	%rbp
	retq
Ltmp718:
Lfunc_end133:
	.cfi_endproc

	.globl	__ZN4core6option15Option$LT$T$GT$6unwrap17h98d45fc6ded93e9fE
	.p2align	4, 0x90
__ZN4core6option15Option$LT$T$GT$6unwrap17h98d45fc6ded93e9fE:
Lfunc_begin134:
	.loc	25 820 0
	.cfi_startproc
	pushq	%rbp
	.cfi_def_cfa_offset 16
	.cfi_offset %rbp, -16
	movq	%rsp, %rbp
	.cfi_def_cfa_register %rbp
	subq	$32, %rsp
	movq	%rdi, -32(%rbp)
Ltmp719:
	movq	%rsi, -24(%rbp)
Ltmp720:
	.loc	25 821 9 prologue_end
	cmpq	$0, (%rdi)
Ltmp721:
	jne	LBB134_2
Ltmp722:
	.loc	25 0 9 is_stmt 0
	movq	-24(%rbp), %rdx
	.loc	25 823 21 is_stmt 1
	leaq	l___unnamed_23(%rip), %rdi
	movl	$43, %esi
	callq	__ZN4core9panicking5panic17hc1bc45270cf64b03E
Ltmp723:
LBB134_2:
	.loc	25 0 21 is_stmt 0
	movq	-32(%rbp), %rcx
	.loc	25 822 18 is_stmt 1
	movq	8(%rcx), %rax
	movq	16(%rcx), %rdx
	movq	%rax, -16(%rbp)
	movq	%rdx, -8(%rbp)
	.loc	25 825 6
	addq	$32, %rsp
	popq	%rbp
	retq
Ltmp724:
Lfunc_end134:
	.cfi_endproc

	.globl	__ZN4core6option15Option$LT$T$GT$6unwrap17haa53b32d750eb340E
	.p2align	4, 0x90
__ZN4core6option15Option$LT$T$GT$6unwrap17haa53b32d750eb340E:
Lfunc_begin135:
	.loc	25 820 0
	.cfi_startproc
	pushq	%rbp
	.cfi_def_cfa_offset 16
	.cfi_offset %rbp, -16
	movq	%rsp, %rbp
	.cfi_def_cfa_register %rbp
	subq	$32, %rsp
	movq	%rdi, -32(%rbp)
Ltmp725:
	movq	%rsi, -24(%rbp)
Ltmp726:
	.loc	25 821 9 prologue_end
	cmpq	$0, (%rdi)
Ltmp727:
	jne	LBB135_2
Ltmp728:
	.loc	25 0 9 is_stmt 0
	movq	-24(%rbp), %rdx
	.loc	25 823 21 is_stmt 1
	leaq	l___unnamed_23(%rip), %rdi
	movl	$43, %esi
	callq	__ZN4core9panicking5panic17hc1bc45270cf64b03E
Ltmp729:
LBB135_2:
	.loc	25 0 21 is_stmt 0
	movq	-32(%rbp), %rcx
	.loc	25 822 18 is_stmt 1
	movq	8(%rcx), %rax
	movq	16(%rcx), %rdx
	movq	%rax, -16(%rbp)
	movq	%rdx, -8(%rbp)
	.loc	25 825 6
	addq	$32, %rsp
	popq	%rbp
	retq
Ltmp730:
Lfunc_end135:
	.cfi_endproc

	.globl	__ZN4core6result19Result$LT$T$C$E$GT$16unwrap_unchecked17h3612fee7c4415c46E
	.p2align	4, 0x90
__ZN4core6result19Result$LT$T$C$E$GT$16unwrap_unchecked17h3612fee7c4415c46E:
Lfunc_begin136:
	.file	41 "/rustc/2c8cc343237b8f7d5a3c3703e3a87f2eb2c54a74/library/core/src" "result.rs"
	.loc	41 1530 0
	.cfi_startproc
	.cfi_personality 155, _rust_eh_personality
	.cfi_lsda 16, Lexception19
	pushq	%rbp
	.cfi_def_cfa_offset 16
	.cfi_offset %rbp, -16
	movq	%rsp, %rbp
	.cfi_def_cfa_register %rbp
	subq	$64, %rsp
	movq	%rdi, -48(%rbp)
	movq	%rsi, -40(%rbp)
Ltmp734:
	.loc	41 1532 15 prologue_end
	xorl	%eax, %eax
	movl	$1, %ecx
	cmpq	$0, -40(%rbp)
	cmoveq	%rcx, %rax
	.loc	41 1532 9 is_stmt 0
	cmpq	$0, %rax
	jne	LBB136_2
	.loc	41 1533 16 is_stmt 1
	movq	-48(%rbp), %rcx
	movq	%rcx, -64(%rbp)
	movq	-40(%rbp), %rax
	movq	%rax, -56(%rbp)
	movq	%rcx, -16(%rbp)
	movq	%rax, -8(%rbp)
	.loc	41 1537 5
	xorl	%eax, %eax
	movl	$1, %ecx
	cmpq	$0, -40(%rbp)
	cmoveq	%rcx, %rax
	cmpq	$0, %rax
	je	LBB136_10
	jmp	LBB136_11
LBB136_2:
Ltmp731:
	.loc	41 1535 32
	callq	__ZN4core4hint21unreachable_unchecked17h401469371f629e47E
Ltmp732:
	jmp	LBB136_5
LBB136_3:
	.loc	41 1537 5
	xorl	%eax, %eax
	movl	$1, %ecx
	cmpq	$0, -40(%rbp)
	cmoveq	%rcx, %rax
	cmpq	$0, %rax
	je	LBB136_6
	jmp	LBB136_7
LBB136_4:
Ltmp733:
	.loc	41 0 5 is_stmt 0
	movq	%rax, %rcx
	movl	%edx, %eax
	movq	%rcx, -32(%rbp)
	movl	%eax, -24(%rbp)
	jmp	LBB136_3
LBB136_5:
	ud2
LBB136_6:
	.loc	41 1537 5
	movb	$1, %al
	testb	$1, %al
	jne	LBB136_9
	jmp	LBB136_8
LBB136_7:
	jmp	LBB136_8
LBB136_8:
	.loc	41 1530 5 is_stmt 1
	movq	-32(%rbp), %rdi
	callq	__Unwind_Resume
LBB136_9:
	.loc	41 1537 5
	jmp	LBB136_8
LBB136_10:
	.loc	41 0 5 is_stmt 0
	movq	-56(%rbp), %rdx
	movq	-64(%rbp), %rax
	.loc	41 1537 6
	addq	$64, %rsp
	popq	%rbp
	retq
LBB136_11:
	.loc	41 1537 5
	jmp	LBB136_10
Ltmp735:
Lfunc_end136:
	.cfi_endproc
	.section	__TEXT,__gcc_except_tab
	.p2align	2
GCC_except_table136:
Lexception19:
	.byte	255
	.byte	255
	.byte	1
	.uleb128 Lcst_end19-Lcst_begin19
Lcst_begin19:
	.uleb128 Ltmp731-Lfunc_begin136
	.uleb128 Ltmp732-Ltmp731
	.uleb128 Ltmp733-Lfunc_begin136
	.byte	0
	.uleb128 Ltmp732-Lfunc_begin136
	.uleb128 Lfunc_end136-Ltmp732
	.byte	0
	.byte	0
Lcst_end19:
	.p2align	2

	.section	__TEXT,__text,regular,pure_instructions
	.globl	__ZN4core6result19Result$LT$T$C$E$GT$5is_ok17h6de7867d185008c5E
	.p2align	4, 0x90
__ZN4core6result19Result$LT$T$C$E$GT$5is_ok17h6de7867d185008c5E:
Lfunc_begin137:
	.loc	41 541 0 is_stmt 1
	.cfi_startproc
	pushq	%rbp
	.cfi_def_cfa_offset 16
	.cfi_offset %rbp, -16
	movq	%rsp, %rbp
	.cfi_def_cfa_register %rbp
	subq	$16, %rsp
	movq	%rdi, -8(%rbp)
Ltmp736:
	.loc	41 542 9 prologue_end
	cmpq	$0, (%rdi)
	jne	LBB137_2
	movb	$1, -9(%rbp)
	jmp	LBB137_3
LBB137_2:
	movb	$0, -9(%rbp)
LBB137_3:
	.loc	41 543 6
	movb	-9(%rbp), %al
	andb	$1, %al
	movzbl	%al, %eax
	addq	$16, %rsp
	popq	%rbp
	retq
Ltmp737:
Lfunc_end137:
	.cfi_endproc

	.globl	__ZN4core6result19Result$LT$T$C$E$GT$6unwrap17h0cfbbeee1a4b786aE
	.p2align	4, 0x90
__ZN4core6result19Result$LT$T$C$E$GT$6unwrap17h0cfbbeee1a4b786aE:
Lfunc_begin138:
	.loc	41 1106 0
	.cfi_startproc
	.cfi_personality 155, _rust_eh_personality
	.cfi_lsda 16, Lexception20
	pushq	%rbp
	.cfi_def_cfa_offset 16
	.cfi_offset %rbp, -16
	movq	%rsp, %rbp
	.cfi_def_cfa_register %rbp
	subq	$80, %rsp
	movq	%rdi, -80(%rbp)
Ltmp744:
	movq	%rsi, -72(%rbp)
Ltmp745:
	.loc	41 1110 15 prologue_end
	movq	16(%rdi), %rdx
	movl	$1, %eax
	xorl	%ecx, %ecx
	cmpq	$0, %rdx
	cmoveq	%rcx, %rax
	.loc	41 1110 9 is_stmt 0
	cmpq	$0, %rax
Ltmp746:
	jne	LBB138_2
Ltmp747:
	.loc	41 0 9
	movq	-80(%rbp), %rcx
	.loc	41 1111 16 is_stmt 1
	movq	(%rcx), %rax
	movq	8(%rcx), %rdx
	movq	%rax, -16(%rbp)
	movq	%rdx, -8(%rbp)
	.loc	41 1114 6
	addq	$80, %rsp
	popq	%rbp
	retq
Ltmp748:
LBB138_2:
	.loc	41 0 6 is_stmt 0
	movq	-72(%rbp), %r8
	movq	-80(%rbp), %rcx
	.loc	41 1112 17 is_stmt 1
	movq	24(%rcx), %rax
	movq	%rax, -40(%rbp)
	movq	16(%rcx), %rax
	movq	%rax, -48(%rbp)
	movq	(%rcx), %rax
	movq	8(%rcx), %rcx
	movq	%rcx, -56(%rbp)
	movq	%rax, -64(%rbp)
Ltmp738:
Ltmp749:
	.loc	41 1112 23 is_stmt 0
	leaq	l___unnamed_24(%rip), %rdi
	leaq	l___unnamed_1(%rip), %rcx
	movl	$43, %esi
	leaq	-64(%rbp), %rdx
	callq	__ZN4core6result13unwrap_failed17h533573e6d3b6061cE
Ltmp739:
	jmp	LBB138_5
Ltmp750:
LBB138_3:
Ltmp741:
	.loc	41 0 23
	leaq	-64(%rbp), %rdi
	.loc	41 1112 86
	callq	__ZN4core3ptr48drop_in_place$LT$alloc..ffi..c_str..NulError$GT$17h7a6238505f34127dE
Ltmp742:
	jmp	LBB138_7
Ltmp751:
LBB138_4:
Ltmp740:
	.loc	41 0 86
	movq	%rax, %rcx
	movl	%edx, %eax
	movq	%rcx, -32(%rbp)
	movl	%eax, -24(%rbp)
	jmp	LBB138_3
Ltmp752:
LBB138_5:
	ud2
Ltmp753:
LBB138_6:
Ltmp743:
	.loc	41 1106 5 is_stmt 1
	callq	__ZN4core9panicking19panic_cannot_unwind17h1fbca7e1d7f56ae1E
Ltmp754:
LBB138_7:
	movq	-32(%rbp), %rdi
	callq	__Unwind_Resume
Ltmp755:
Lfunc_end138:
	.cfi_endproc
	.section	__TEXT,__gcc_except_tab
	.p2align	2
GCC_except_table138:
Lexception20:
	.byte	255
	.byte	255
	.byte	1
	.uleb128 Lcst_end20-Lcst_begin20
Lcst_begin20:
	.uleb128 Ltmp738-Lfunc_begin138
	.uleb128 Ltmp739-Ltmp738
	.uleb128 Ltmp740-Lfunc_begin138
	.byte	0
	.uleb128 Ltmp741-Lfunc_begin138
	.uleb128 Ltmp742-Ltmp741
	.uleb128 Ltmp743-Lfunc_begin138
	.byte	0
	.uleb128 Ltmp742-Lfunc_begin138
	.uleb128 Lfunc_end138-Ltmp742
	.byte	0
	.byte	0
Lcst_end20:
	.p2align	2

	.section	__TEXT,__text,regular,pure_instructions
	.globl	__ZN4core6result19Result$LT$T$C$E$GT$6unwrap17h84c901c5f340e3ceE
	.p2align	4, 0x90
__ZN4core6result19Result$LT$T$C$E$GT$6unwrap17h84c901c5f340e3ceE:
Lfunc_begin139:
	.loc	41 1106 0
	.cfi_startproc
	.cfi_personality 155, _rust_eh_personality
	.cfi_lsda 16, Lexception21
	pushq	%rbp
	.cfi_def_cfa_offset 16
	.cfi_offset %rbp, -16
	movq	%rsp, %rbp
	.cfi_def_cfa_register %rbp
	subq	$64, %rsp
	movq	%rdi, -64(%rbp)
Ltmp759:
	movq	%rsi, -56(%rbp)
Ltmp760:
	.loc	41 1110 9 prologue_end
	cmpq	$0, (%rdi)
Ltmp761:
	jne	LBB139_2
Ltmp762:
	.loc	41 0 9 is_stmt 0
	movq	-64(%rbp), %rcx
	.loc	41 1111 16 is_stmt 1
	movq	8(%rcx), %rax
	movq	16(%rcx), %rdx
	movq	%rax, -16(%rbp)
	movq	%rdx, -8(%rbp)
	.loc	41 1114 6
	addq	$64, %rsp
	popq	%rbp
	retq
Ltmp763:
LBB139_2:
	.loc	41 0 6 is_stmt 0
	movq	-56(%rbp), %r8
	movq	-64(%rbp), %rcx
	.loc	41 1112 17 is_stmt 1
	movq	8(%rcx), %rax
	movq	16(%rcx), %rcx
	movq	%rcx, -40(%rbp)
	movq	%rax, -48(%rbp)
Ltmp756:
Ltmp764:
	.loc	41 1112 23 is_stmt 0
	leaq	l___unnamed_24(%rip), %rdi
	leaq	l___unnamed_2(%rip), %rcx
	movl	$43, %esi
	leaq	-48(%rbp), %rdx
	callq	__ZN4core6result13unwrap_failed17h533573e6d3b6061cE
Ltmp757:
	jmp	LBB139_5
Ltmp765:
LBB139_3:
	.loc	41 1106 5 is_stmt 1
	movq	-32(%rbp), %rdi
	callq	__Unwind_Resume
Ltmp766:
LBB139_4:
Ltmp758:
	.loc	41 0 5 is_stmt 0
	movq	%rax, %rcx
	movl	%edx, %eax
	movq	%rcx, -32(%rbp)
	movl	%eax, -24(%rbp)
	jmp	LBB139_3
Ltmp767:
LBB139_5:
	ud2
Lfunc_end139:
	.cfi_endproc
	.section	__TEXT,__gcc_except_tab
	.p2align	2
GCC_except_table139:
Lexception21:
	.byte	255
	.byte	255
	.byte	1
	.uleb128 Lcst_end21-Lcst_begin21
Lcst_begin21:
	.uleb128 Ltmp756-Lfunc_begin139
	.uleb128 Ltmp757-Ltmp756
	.uleb128 Ltmp758-Lfunc_begin139
	.byte	0
	.uleb128 Ltmp757-Lfunc_begin139
	.uleb128 Lfunc_end139-Ltmp757
	.byte	0
	.byte	0
Lcst_end21:
	.p2align	2

	.section	__TEXT,__text,regular,pure_instructions
	.globl	__ZN4core6result19Result$LT$T$C$E$GT$7map_err17h7bebee3f42ee7362E
	.p2align	4, 0x90
__ZN4core6result19Result$LT$T$C$E$GT$7map_err17h7bebee3f42ee7362E:
Lfunc_begin140:
	.loc	41 857 0 is_stmt 1
	.cfi_startproc
	pushq	%rbp
	.cfi_def_cfa_offset 16
	.cfi_offset %rbp, -16
	movq	%rsp, %rbp
	.cfi_def_cfa_register %rbp
	subq	$96, %rsp
	movq	%rdi, -88(%rbp)
	movq	%rsi, -80(%rbp)
Ltmp768:
	.loc	41 858 15 prologue_end
	movb	$1, -33(%rbp)
	movabsq	$-9223372036854775807, %rdx
	movl	$1, %eax
	xorl	%ecx, %ecx
	cmpq	%rdx, -80(%rbp)
	cmoveq	%rcx, %rax
	.loc	41 858 9 is_stmt 0
	cmpq	$0, %rax
	jne	LBB140_2
Ltmp769:
	.loc	41 859 22 is_stmt 1
	movabsq	$-9223372036854775807, %rax
	movq	%rax, -64(%rbp)
Ltmp770:
	.loc	41 859 26 is_stmt 0
	jmp	LBB140_3
LBB140_2:
	.loc	41 860 17 is_stmt 1
	movq	-88(%rbp), %rcx
	movq	-80(%rbp), %rax
	movq	%rcx, -16(%rbp)
	movq	%rax, -8(%rbp)
Ltmp771:
	.loc	41 860 27 is_stmt 0
	movb	$0, -33(%rbp)
	movq	%rcx, -56(%rbp)
	movq	%rax, -48(%rbp)
	movq	-56(%rbp), %rdi
	movq	-48(%rbp), %rsi
	callq	__ZN5alloc7raw_vec14handle_reserve28_$u7b$$u7b$closure$u7d$$u7d$17he090c6cbe7c4fb19E
	.loc	41 860 23
	movq	%rax, -72(%rbp)
	movq	%rdx, -64(%rbp)
Ltmp772:
LBB140_3:
	.loc	41 862 5 is_stmt 1
	testb	$1, -33(%rbp)
	jne	LBB140_5
LBB140_4:
	.loc	41 862 6 is_stmt 0
	movq	-72(%rbp), %rax
	movq	-64(%rbp), %rdx
	addq	$96, %rsp
	popq	%rbp
	retq
LBB140_5:
	.loc	41 862 5
	jmp	LBB140_4
Ltmp773:
Lfunc_end140:
	.cfi_endproc

	.globl	__ZN4core6result19Result$LT$T$C$E$GT$7map_err17h8ff23050df906e32E
	.p2align	4, 0x90
__ZN4core6result19Result$LT$T$C$E$GT$7map_err17h8ff23050df906e32E:
Lfunc_begin141:
	.loc	41 857 0 is_stmt 1
	.cfi_startproc
	pushq	%rbp
	.cfi_def_cfa_offset 16
	.cfi_offset %rbp, -16
	movq	%rsp, %rbp
	.cfi_def_cfa_register %rbp
	subq	$80, %rsp
	movq	%rdi, -72(%rbp)
	movq	%rdi, -64(%rbp)
	movq	%rsi, -56(%rbp)
	movq	%rdx, -48(%rbp)
Ltmp774:
	.loc	41 858 15 prologue_end
	movb	$1, -33(%rbp)
	xorl	%eax, %eax
	movl	$1, %ecx
	cmpq	$0, -48(%rbp)
	cmoveq	%rcx, %rax
	.loc	41 858 9 is_stmt 0
	cmpq	$0, %rax
	jne	LBB141_2
	.loc	41 0 9
	movq	-72(%rbp), %rax
	.loc	41 859 16 is_stmt 1
	movq	-56(%rbp), %rdx
	movq	-48(%rbp), %rcx
	movq	%rdx, -16(%rbp)
	movq	%rcx, -8(%rbp)
Ltmp775:
	.loc	41 859 22 is_stmt 0
	movq	%rdx, 8(%rax)
	movq	%rcx, 16(%rax)
	movq	$0, (%rax)
Ltmp776:
	.loc	41 859 26
	jmp	LBB141_3
LBB141_2:
Ltmp777:
	.loc	41 860 27 is_stmt 1
	movb	$0, -33(%rbp)
	callq	__ZN5alloc7raw_vec11finish_grow28_$u7b$$u7b$closure$u7d$$u7d$17h3e656189bf6f3db5E
	movq	%rax, %rcx
	movq	-72(%rbp), %rax
	.loc	41 860 23 is_stmt 0
	movq	%rcx, 8(%rax)
	movq	%rdx, 16(%rax)
	movq	$1, (%rax)
Ltmp778:
LBB141_3:
	.loc	41 862 5 is_stmt 1
	testb	$1, -33(%rbp)
	jne	LBB141_5
LBB141_4:
	.loc	41 0 5 is_stmt 0
	movq	-64(%rbp), %rax
	.loc	41 862 6
	addq	$80, %rsp
	popq	%rbp
	retq
LBB141_5:
	.loc	41 862 5
	jmp	LBB141_4
Ltmp779:
Lfunc_end141:
	.cfi_endproc

	.globl	__ZN4core6result19Result$LT$T$C$E$GT$7map_err17hd50f9b8f79ad82faE
	.p2align	4, 0x90
__ZN4core6result19Result$LT$T$C$E$GT$7map_err17hd50f9b8f79ad82faE:
Lfunc_begin142:
	.loc	41 857 0 is_stmt 1
	.cfi_startproc
	pushq	%rbp
	.cfi_def_cfa_offset 16
	.cfi_offset %rbp, -16
	movq	%rsp, %rbp
	.cfi_def_cfa_register %rbp
	subq	$80, %rsp
	movq	%rcx, -80(%rbp)
	movq	%rdi, -72(%rbp)
	movq	%rdi, -64(%rbp)
	movq	%rsi, -56(%rbp)
	movq	%rdx, -48(%rbp)
	movq	%rcx, -32(%rbp)
Ltmp780:
	.loc	41 858 15 prologue_end
	movb	$1, -33(%rbp)
	movq	-56(%rbp), %rdx
	xorl	%eax, %eax
	movl	$1, %ecx
	cmpq	$0, %rdx
	cmoveq	%rcx, %rax
	.loc	41 858 9 is_stmt 0
	cmpq	$0, %rax
	jne	LBB142_2
	.loc	41 0 9
	movq	-72(%rbp), %rax
	.loc	41 859 16 is_stmt 1
	movq	-56(%rbp), %rdx
	movq	-48(%rbp), %rcx
	movq	%rdx, -16(%rbp)
	movq	%rcx, -8(%rbp)
Ltmp781:
	.loc	41 859 22 is_stmt 0
	movq	%rdx, 8(%rax)
	movq	%rcx, 16(%rax)
	movq	$0, (%rax)
Ltmp782:
	.loc	41 859 26
	jmp	LBB142_3
LBB142_2:
	.loc	41 0 26
	movq	-80(%rbp), %rdi
Ltmp783:
	.loc	41 860 27 is_stmt 1
	movb	$0, -33(%rbp)
	callq	__ZN5alloc7raw_vec11finish_grow28_$u7b$$u7b$closure$u7d$$u7d$17h4842d0e0c841a3fdE
	movq	%rax, %rcx
	movq	-72(%rbp), %rax
	.loc	41 860 23 is_stmt 0
	movq	%rcx, 8(%rax)
	movq	%rdx, 16(%rax)
	movq	$1, (%rax)
Ltmp784:
LBB142_3:
	.loc	41 862 5 is_stmt 1
	testb	$1, -33(%rbp)
	jne	LBB142_5
LBB142_4:
	.loc	41 0 5 is_stmt 0
	movq	-64(%rbp), %rax
	.loc	41 862 6
	addq	$80, %rsp
	popq	%rbp
	retq
LBB142_5:
	.loc	41 862 5
	jmp	LBB142_4
Ltmp785:
Lfunc_end142:
	.cfi_endproc

	.globl	__ZN50_$LT$T$u20$as$u20$core..convert..Into$LT$U$GT$$GT$4into17h028bd26134cab04cE
	.p2align	4, 0x90
__ZN50_$LT$T$u20$as$u20$core..convert..Into$LT$U$GT$$GT$4into17h028bd26134cab04cE:
Lfunc_begin143:
	.file	42 "/rustc/2c8cc343237b8f7d5a3c3703e3a87f2eb2c54a74/library/core/src/convert" "mod.rs"
	.loc	42 725 0 is_stmt 1
	.cfi_startproc
	pushq	%rbp
	.cfi_def_cfa_offset 16
	.cfi_offset %rbp, -16
	movq	%rsp, %rbp
	.cfi_def_cfa_register %rbp
	subq	$32, %rsp
	movq	%rdi, %rax
	movq	%rax, -32(%rbp)
Ltmp786:
	.loc	42 726 17 prologue_end
	movq	(%rsi), %rax
	movq	%rax, -24(%rbp)
	movq	8(%rsi), %rax
	movq	%rax, -16(%rbp)
	movq	16(%rsi), %rax
	movq	%rax, -8(%rbp)
	.loc	42 726 9 is_stmt 0
	leaq	-24(%rbp), %rsi
Ltmp787:
	callq	__ZN5alloc6string104_$LT$impl$u20$core..convert..From$LT$alloc..string..String$GT$$u20$for$u20$alloc..vec..Vec$LT$u8$GT$$GT$4from17h22722a3519b4c4e0E
	movq	-32(%rbp), %rax
	.loc	42 727 6 is_stmt 1
	addq	$32, %rsp
	popq	%rbp
	retq
Ltmp788:
Lfunc_end143:
	.cfi_endproc

	.globl	__ZN50_$LT$T$u20$as$u20$core..convert..Into$LT$U$GT$$GT$4into17h5d93131b49e7ffd1E
	.p2align	4, 0x90
__ZN50_$LT$T$u20$as$u20$core..convert..Into$LT$U$GT$$GT$4into17h5d93131b49e7ffd1E:
Lfunc_begin144:
	.loc	42 725 0
	.cfi_startproc
	pushq	%rbp
	.cfi_def_cfa_offset 16
	.cfi_offset %rbp, -16
	movq	%rsp, %rbp
	.cfi_def_cfa_register %rbp
	subq	$16, %rsp
	movq	%rdi, -16(%rbp)
	movq	%rsi, -8(%rbp)
Ltmp789:
	.loc	42 726 9 prologue_end
	callq	__ZN122_$LT$alloc..collections..TryReserveError$u20$as$u20$core..convert..From$LT$alloc..collections..TryReserveErrorKind$GT$$GT$4from17h2d6cdb088090bff6E
	.loc	42 727 6
	addq	$16, %rsp
	popq	%rbp
	retq
Ltmp790:
Lfunc_end144:
	.cfi_endproc

	.globl	__ZN50_$LT$T$u20$as$u20$core..convert..Into$LT$U$GT$$GT$4into17ha8d7a56469e7b602E
	.p2align	4, 0x90
__ZN50_$LT$T$u20$as$u20$core..convert..Into$LT$U$GT$$GT$4into17ha8d7a56469e7b602E:
Lfunc_begin145:
	.loc	42 725 0
	.cfi_startproc
	pushq	%rbp
	.cfi_def_cfa_offset 16
	.cfi_offset %rbp, -16
	movq	%rsp, %rbp
	.cfi_def_cfa_register %rbp
	subq	$16, %rsp
	movq	%rdi, -8(%rbp)
Ltmp791:
	.loc	42 726 9 prologue_end
	callq	__ZN119_$LT$core..ptr..non_null..NonNull$LT$T$GT$$u20$as$u20$core..convert..From$LT$core..ptr..unique..Unique$LT$T$GT$$GT$$GT$4from17hef825c86c6cc6f8dE
	.loc	42 727 6
	addq	$16, %rsp
	popq	%rbp
	retq
Ltmp792:
Lfunc_end145:
	.cfi_endproc

	.globl	__ZN52_$LT$$BP$mut$u20$T$u20$as$u20$core..fmt..Pointer$GT$3fmt17h627353f3c6e09913E
	.p2align	4, 0x90
__ZN52_$LT$$BP$mut$u20$T$u20$as$u20$core..fmt..Pointer$GT$3fmt17h627353f3c6e09913E:
Lfunc_begin146:
	.loc	16 2518 0
	.cfi_startproc
	pushq	%rbp
	.cfi_def_cfa_offset 16
	.cfi_offset %rbp, -16
	movq	%rsp, %rbp
	.cfi_def_cfa_register %rbp
	subq	$32, %rsp
	movq	%rdi, -16(%rbp)
	movq	%rsi, -8(%rbp)
Ltmp793:
	.loc	16 2519 24 prologue_end
	movq	(%rdi), %rax
	movq	%rax, -24(%rbp)
	.loc	16 2519 9 is_stmt 0
	leaq	-24(%rbp), %rdi
	callq	__ZN54_$LT$$BP$const$u20$T$u20$as$u20$core..fmt..Pointer$GT$3fmt17h0a4d2ff1c5163e12E
	.loc	16 2520 6 is_stmt 1
	andb	$1, %al
	movzbl	%al, %eax
	addq	$32, %rsp
	popq	%rbp
	retq
Ltmp794:
Lfunc_end146:
	.cfi_endproc

	.globl	__ZN52_$LT$T$u20$as$u20$alloc..slice..hack..ConvertVec$GT$6to_vec17h85bcecd3399c0088E
	.p2align	4, 0x90
__ZN52_$LT$T$u20$as$u20$alloc..slice..hack..ConvertVec$GT$6to_vec17h85bcecd3399c0088E:
Lfunc_begin147:
	.file	43 "/rustc/2c8cc343237b8f7d5a3c3703e3a87f2eb2c54a74/library/alloc/src" "slice.rs"
	.loc	43 161 0
	.cfi_startproc
	.cfi_personality 155, _rust_eh_personality
	.cfi_lsda 16, Lexception22
	pushq	%rbp
	.cfi_def_cfa_offset 16
	.cfi_offset %rbp, -16
	movq	%rsp, %rbp
	.cfi_def_cfa_register %rbp
	subq	$448, %rsp
	movq	%rdx, -432(%rbp)
	movq	%rsi, -424(%rbp)
	movq	%rdi, -416(%rbp)
	movq	%rdi, -408(%rbp)
	movq	%rsi, -320(%rbp)
	movq	%rdx, -312(%rbp)
Ltmp798:
	.loc	43 162 47 prologue_end
	movq	%rsi, -280(%rbp)
	movq	%rdx, -272(%rbp)
Ltmp799:
	.loc	19 137 23
	movq	%rsi, -264(%rbp)
	movq	%rdx, -256(%rbp)
Ltmp800:
	.loc	8 98 14
	movq	%rsi, -384(%rbp)
	movq	%rdx, -376(%rbp)
	movq	-376(%rbp), %rdi
	movq	%rdi, -248(%rbp)
Ltmp801:
	.file	44 "/rustc/2c8cc343237b8f7d5a3c3703e3a87f2eb2c54a74/library/alloc/src/vec" "mod.rs"
	.loc	44 676 45
	movq	%rdi, -240(%rbp)
Ltmp802:
	.file	45 "/rustc/2c8cc343237b8f7d5a3c3703e3a87f2eb2c54a74/library/alloc/src" "raw_vec.rs"
	.loc	45 131 37
	movb	$0, -361(%rbp)
	.loc	45 131 9 is_stmt 0
	movzbl	-361(%rbp), %esi
Ltmp795:
	callq	__ZN5alloc7raw_vec19RawVec$LT$T$C$A$GT$11allocate_in17h903cfa9724cf5c54E
Ltmp796:
	movq	%rdx, -400(%rbp)
	movq	%rax, -392(%rbp)
	jmp	LBB147_3
Ltmp803:
LBB147_1:
	.loc	43 171 9 is_stmt 1
	xorl	%eax, %eax
	testb	$1, %al
	jne	LBB147_6
	jmp	LBB147_5
LBB147_2:
Ltmp797:
	.loc	43 0 9 is_stmt 0
	movq	%rax, %rcx
	movl	%edx, %eax
	movq	%rcx, -232(%rbp)
	movl	%eax, -224(%rbp)
	jmp	LBB147_1
LBB147_3:
Ltmp804:
	movq	-416(%rbp), %rax
	movq	-424(%rbp), %rcx
	movq	-432(%rbp), %rdx
	movq	-400(%rbp), %rsi
	movq	-392(%rbp), %rdi
Ltmp805:
	.loc	44 676 9 is_stmt 1
	movq	%rdi, (%rax)
	movq	%rsi, 8(%rax)
	movq	$0, 16(%rax)
Ltmp806:
	.loc	43 167 17
	movq	%rcx, -216(%rbp)
	movq	%rdx, -208(%rbp)
Ltmp807:
	.loc	19 477 9
	movq	%rcx, -200(%rbp)
Ltmp808:
	.loc	43 167 51
	movq	%rax, -192(%rbp)
Ltmp809:
	.loc	44 1280 19
	movq	%rax, -184(%rbp)
Ltmp810:
	.loc	45 224 9
	movq	8(%rax), %rax
	movq	%rax, -440(%rbp)
	movq	%rax, -176(%rbp)
Ltmp811:
	.loc	13 104 9
	movq	%rax, -168(%rbp)
Ltmp812:
	.loc	12 326 9
	movq	%rax, -160(%rbp)
Ltmp813:
	.loc	44 1282 21
	movq	%rax, -152(%rbp)
Ltmp814:
	.loc	23 52 36
	movq	%rax, -360(%rbp)
	.loc	23 52 18 is_stmt 0
	movq	-360(%rbp), %rax
	movq	%rax, -144(%rbp)
Ltmp815:
	.loc	23 38 13 is_stmt 1
	movq	%rax, -136(%rbp)
Ltmp816:
	.loc	23 215 33
	movq	%rax, -128(%rbp)
	.loc	23 215 18 is_stmt 0
	movq	%rax, -120(%rbp)
	movq	-120(%rbp), %rax
Ltmp817:
	.loc	23 0 18
	movq	-432(%rbp), %rax
	movq	-424(%rbp), %rsi
	movq	-440(%rbp), %rdi
	.loc	43 167 67 is_stmt 1
	movq	%rsi, -112(%rbp)
	movq	%rax, -104(%rbp)
Ltmp818:
	.loc	19 137 23
	movq	%rsi, -96(%rbp)
	movq	%rax, -88(%rbp)
Ltmp819:
	.loc	8 98 14
	movq	%rsi, -352(%rbp)
	movq	%rax, -344(%rbp)
	movq	-344(%rbp), %rdx
	movq	%rdx, -80(%rbp)
Ltmp820:
	.loc	6 1297 38
	movq	%rsi, -72(%rbp)
	.loc	6 1297 44 is_stmt 0
	movq	%rdi, -64(%rbp)
	.loc	6 1297 50
	movq	%rdx, -56(%rbp)
Ltmp821:
	.file	46 "/rustc/2c8cc343237b8f7d5a3c3703e3a87f2eb2c54a74/library/core/src" "intrinsics.rs"
	.loc	46 2372 9 is_stmt 1
	shlq	$0, %rdx
	callq	_memcpy
	movq	-424(%rbp), %rsi
	movq	-432(%rbp), %rdx
	movq	-416(%rbp), %rcx
	movq	-408(%rbp), %rax
Ltmp822:
	.loc	43 168 17
	movq	%rcx, -48(%rbp)
	.loc	43 168 27 is_stmt 0
	movq	%rsi, -40(%rbp)
	movq	%rdx, -32(%rbp)
Ltmp823:
	.loc	19 137 23 is_stmt 1
	movq	%rsi, -24(%rbp)
	movq	%rdx, -16(%rbp)
Ltmp824:
	.loc	8 98 14
	movq	%rsi, -336(%rbp)
	movq	%rdx, -328(%rbp)
	movq	-328(%rbp), %rdx
	movq	%rdx, -8(%rbp)
Ltmp825:
	.loc	44 1377 9
	movq	%rdx, 16(%rcx)
Ltmp826:
	.loc	43 171 10
	addq	$448, %rsp
	popq	%rbp
	retq
Ltmp827:
LBB147_5:
	.loc	43 161 9
	movq	-232(%rbp), %rdi
	callq	__Unwind_Resume
LBB147_6:
	.loc	43 171 9
	jmp	LBB147_5
Ltmp828:
Lfunc_end147:
	.cfi_endproc
	.section	__TEXT,__gcc_except_tab
	.p2align	2
GCC_except_table147:
Lexception22:
	.byte	255
	.byte	255
	.byte	1
	.uleb128 Lcst_end22-Lcst_begin22
Lcst_begin22:
	.uleb128 Ltmp795-Lfunc_begin147
	.uleb128 Ltmp796-Ltmp795
	.uleb128 Ltmp797-Lfunc_begin147
	.byte	0
	.uleb128 Ltmp796-Lfunc_begin147
	.uleb128 Lfunc_end147-Ltmp796
	.byte	0
	.byte	0
Lcst_end22:
	.p2align	2

	.section	__TEXT,__text,regular,pure_instructions
	.globl	__ZN54_$LT$$BP$const$u20$T$u20$as$u20$core..fmt..Pointer$GT$3fmt17h0a4d2ff1c5163e12E
	.p2align	4, 0x90
__ZN54_$LT$$BP$const$u20$T$u20$as$u20$core..fmt..Pointer$GT$3fmt17h0a4d2ff1c5163e12E:
Lfunc_begin148:
	.loc	16 2478 0
	.cfi_startproc
	pushq	%rbp
	.cfi_def_cfa_offset 16
	.cfi_offset %rbp, -16
	movq	%rsp, %rbp
	.cfi_def_cfa_register %rbp
	subq	$32, %rsp
	movq	%rdi, -32(%rbp)
	movq	%rsi, -24(%rbp)
Ltmp829:
	.loc	16 2480 28 prologue_end
	movq	(%rdi), %rdi
	.loc	16 2480 27 is_stmt 0
	movq	%rdi, -16(%rbp)
Ltmp830:
	.loc	6 241 9 is_stmt 1
	movq	%rdi, -8(%rbp)
Ltmp831:
	.loc	16 2480 9
	callq	__ZN4core3fmt17pointer_fmt_inner17hfee30366ae14be28E
	.loc	16 2481 6
	andb	$1, %al
	movzbl	%al, %eax
	addq	$32, %rsp
	popq	%rbp
	retq
Ltmp832:
Lfunc_end148:
	.cfi_endproc

	.globl	__ZN56_$LT$usize$u20$as$u20$core..iter..traits..accum..Sum$GT$3sum17h64c1a20d418544e6E
	.p2align	4, 0x90
__ZN56_$LT$usize$u20$as$u20$core..iter..traits..accum..Sum$GT$3sum17h64c1a20d418544e6E:
Lfunc_begin149:
	.file	47 "/rustc/2c8cc343237b8f7d5a3c3703e3a87f2eb2c54a74/library/core/src/iter/traits" "accum.rs"
	.loc	47 49 0
	.cfi_startproc
	pushq	%rbp
	.cfi_def_cfa_offset 16
	.cfi_offset %rbp, -16
	movq	%rsp, %rbp
	.cfi_def_cfa_register %rbp
	subq	$16, %rsp
	movq	%rdi, -16(%rbp)
	movq	%rsi, -8(%rbp)
Ltmp833:
	.loc	47 50 17 prologue_end
	xorl	%eax, %eax
	movl	%eax, %edx
	callq	__ZN102_$LT$core..iter..adapters..map..Map$LT$I$C$F$GT$$u20$as$u20$core..iter..traits..iterator..Iterator$GT$4fold17heee7a34cb96ddbc8E
	.loc	47 55 14
	addq	$16, %rsp
	popq	%rbp
	retq
Ltmp834:
Lfunc_end149:
	.cfi_endproc

	.globl	__ZN56_$LT$usize$u20$as$u20$core..iter..traits..accum..Sum$GT$3sum28_$u7b$$u7b$closure$u7d$$u7d$17h331238aadb37bbc9E
	.p2align	4, 0x90
__ZN56_$LT$usize$u20$as$u20$core..iter..traits..accum..Sum$GT$3sum28_$u7b$$u7b$closure$u7d$$u7d$17h331238aadb37bbc9E:
Lfunc_begin150:
	.loc	47 53 0
	.cfi_startproc
	pushq	%rbp
	.cfi_def_cfa_offset 16
	.cfi_offset %rbp, -16
	movq	%rsp, %rbp
	.cfi_def_cfa_register %rbp
	subq	$32, %rsp
	movq	%rdi, -24(%rbp)
	movq	%rsi, -16(%rbp)
	movq	%rdx, -8(%rbp)
Ltmp835:
	.loc	47 53 28 prologue_end
	addq	%rdx, %rsi
	movq	%rsi, -32(%rbp)
	setb	%al
	testb	$1, %al
	jne	LBB150_2
	.loc	47 0 28 is_stmt 0
	movq	-32(%rbp), %rax
	.loc	47 53 33
	addq	$32, %rsp
	popq	%rbp
	retq
LBB150_2:
	.loc	47 53 28
	leaq	_str.1(%rip), %rdi
	leaq	l___unnamed_25(%rip), %rdx
	movl	$28, %esi
	callq	__ZN4core9panicking5panic17hc1bc45270cf64b03E
Ltmp836:
Lfunc_end150:
	.cfi_endproc

	.p2align	4, 0x90
__ZN58_$LT$alloc..string..String$u20$as$u20$core..fmt..Debug$GT$3fmt17hbd9fd89a9eeeab13E:
Lfunc_begin151:
	.file	48 "/rustc/2c8cc343237b8f7d5a3c3703e3a87f2eb2c54a74/library/alloc/src" "string.rs"
	.loc	48 2282 0 is_stmt 1
	.cfi_startproc
	pushq	%rbp
	.cfi_def_cfa_offset 16
	.cfi_offset %rbp, -16
	movq	%rsp, %rbp
	.cfi_def_cfa_register %rbp
	subq	$64, %rsp
	movq	%rsi, -64(%rbp)
	movq	%rdi, -56(%rbp)
	movq	%rsi, -48(%rbp)
Ltmp837:
	.loc	48 2283 27 prologue_end
	movq	%rdi, -40(%rbp)
Ltmp838:
	.loc	48 2460 43
	callq	__ZN72_$LT$alloc..vec..Vec$LT$T$C$A$GT$$u20$as$u20$core..ops..deref..Deref$GT$5deref17ha195b773218a2aacE
	movq	%rax, %rcx
	movq	%rdx, %rax
	movq	-64(%rbp), %rdx
	movq	%rcx, -32(%rbp)
	movq	%rax, -24(%rbp)
Ltmp839:
	.loc	30 173 14
	movq	%rcx, -16(%rbp)
	movq	%rax, -8(%rbp)
	movq	-16(%rbp), %rdi
	movq	-8(%rbp), %rsi
Ltmp840:
	.loc	48 2283 9
	callq	__ZN40_$LT$str$u20$as$u20$core..fmt..Debug$GT$3fmt17h4564f13343f2ac60E
	.loc	48 2284 6
	andb	$1, %al
	movzbl	%al, %eax
	addq	$64, %rsp
	popq	%rbp
	retq
Ltmp841:
Lfunc_end151:
	.cfi_endproc

	.globl	__ZN5alloc3ffi5c_str7CString3new17h00a2498310bf5e0aE
	.p2align	4, 0x90
__ZN5alloc3ffi5c_str7CString3new17h00a2498310bf5e0aE:
Lfunc_begin152:
	.file	49 "/rustc/2c8cc343237b8f7d5a3c3703e3a87f2eb2c54a74/library/alloc/src/ffi" "c_str.rs"
	.loc	49 261 0
	.cfi_startproc
	pushq	%rbp
	.cfi_def_cfa_offset 16
	.cfi_offset %rbp, -16
	movq	%rsp, %rbp
	.cfi_def_cfa_register %rbp
	subq	$32, %rsp
	movq	%rdi, %rax
	movq	%rax, -32(%rbp)
Ltmp842:
	.loc	49 316 9 prologue_end
	movq	(%rsi), %rax
	movq	%rax, -24(%rbp)
	movq	8(%rsi), %rax
	movq	%rax, -16(%rbp)
	movq	16(%rsi), %rax
	movq	%rax, -8(%rbp)
	leaq	-24(%rbp), %rsi
Ltmp843:
	callq	__ZN66_$LT$T$u20$as$u20$alloc..ffi..c_str..CString..new..SpecNewImpl$GT$13spec_new_impl17h333650c4f8289859E
	movq	-32(%rbp), %rax
	.loc	49 317 6
	addq	$32, %rsp
	popq	%rbp
	retq
Ltmp844:
Lfunc_end152:
	.cfi_endproc

	.globl	__ZN5alloc3ffi5c_str7CString3new17h34871322914214adE
	.p2align	4, 0x90
__ZN5alloc3ffi5c_str7CString3new17h34871322914214adE:
Lfunc_begin153:
	.loc	49 261 0
	.cfi_startproc
	pushq	%rbp
	.cfi_def_cfa_offset 16
	.cfi_offset %rbp, -16
	movq	%rsp, %rbp
	.cfi_def_cfa_register %rbp
	subq	$32, %rsp
	movq	%rdi, %rax
	movq	%rax, -24(%rbp)
	movq	%rsi, -16(%rbp)
	movq	%rdx, -8(%rbp)
Ltmp845:
	.loc	49 316 9 prologue_end
	callq	__ZN72_$LT$$RF$str$u20$as$u20$alloc..ffi..c_str..CString..new..SpecNewImpl$GT$13spec_new_impl17h92fd9a324c566e58E
	movq	-24(%rbp), %rax
	.loc	49 317 6
	addq	$32, %rsp
	popq	%rbp
	retq
Ltmp846:
Lfunc_end153:
	.cfi_endproc

	.p2align	4, 0x90
__ZN5alloc3str56_$LT$impl$u20$alloc..borrow..ToOwned$u20$for$u20$str$GT$8to_owned17hcddc5bb8486dbc17E:
Lfunc_begin154:
	.file	50 "/rustc/2c8cc343237b8f7d5a3c3703e3a87f2eb2c54a74/library/alloc/src" "str.rs"
	.loc	50 208 0
	.cfi_startproc
	pushq	%rbp
	.cfi_def_cfa_offset 16
	.cfi_offset %rbp, -16
	movq	%rsp, %rbp
	.cfi_def_cfa_register %rbp
	subq	$112, %rsp
	movq	%rdi, -112(%rbp)
	movq	%rdi, -104(%rbp)
	movq	%rsi, -48(%rbp)
	movq	%rdx, -40(%rbp)
Ltmp847:
	.loc	50 209 46 prologue_end
	movq	%rsi, -32(%rbp)
	movq	%rdx, -24(%rbp)
Ltmp848:
	.loc	27 327 18
	movq	%rsi, -16(%rbp)
	movq	%rdx, -8(%rbp)
	movq	-16(%rbp), %rsi
	movq	-8(%rbp), %rdx
Ltmp849:
	.loc	50 209 46
	leaq	-96(%rbp), %rdi
	callq	__ZN5alloc5slice64_$LT$impl$u20$alloc..borrow..ToOwned$u20$for$u20$$u5b$T$u5d$$GT$8to_owned17h5b80f0a7badca3f3E
	movq	-112(%rbp), %rdi
	movq	-104(%rbp), %rax
Ltmp850:
	.loc	48 846 23
	movq	-96(%rbp), %rcx
	movq	%rcx, -72(%rbp)
	movq	-88(%rbp), %rcx
	movq	%rcx, -64(%rbp)
	movq	-80(%rbp), %rcx
	movq	%rcx, -56(%rbp)
	.loc	48 846 9 is_stmt 0
	movq	-72(%rbp), %rcx
	movq	%rcx, (%rdi)
	movq	-64(%rbp), %rcx
	movq	%rcx, 8(%rdi)
	movq	-56(%rbp), %rcx
	movq	%rcx, 16(%rdi)
Ltmp851:
	.loc	50 210 6 is_stmt 1
	addq	$112, %rsp
	popq	%rbp
	retq
Ltmp852:
Lfunc_end154:
	.cfi_endproc

	.globl	__ZN5alloc3vec16Vec$LT$T$C$A$GT$15append_elements17h6d281f96402f7453E
	.p2align	4, 0x90
__ZN5alloc3vec16Vec$LT$T$C$A$GT$15append_elements17h6d281f96402f7453E:
Lfunc_begin155:
	.loc	44 1950 0
	.cfi_startproc
	pushq	%rbp
	.cfi_def_cfa_offset 16
	.cfi_offset %rbp, -16
	movq	%rsp, %rbp
	.cfi_def_cfa_register %rbp
	subq	$224, %rsp
	movq	%rdx, -224(%rbp)
	movq	%rsi, %rax
	movq	-224(%rbp), %rsi
	movq	%rdi, -200(%rbp)
	movq	%rax, -216(%rbp)
	movq	%rsi, -208(%rbp)
	movq	%rdi, -184(%rbp)
	movq	%rax, -176(%rbp)
	movq	%rsi, -168(%rbp)
Ltmp853:
	.loc	44 1951 30 prologue_end
	movq	%rsi, -160(%rbp)
Ltmp854:
	.loc	44 1952 9
	callq	__ZN5alloc3vec16Vec$LT$T$C$A$GT$7reserve17hd27eab9f8cfd3748E
	movq	-216(%rbp), %rsi
	movq	-208(%rbp), %rdx
	movq	-200(%rbp), %rdi
	.loc	44 1953 19
	movq	%rdi, -152(%rbp)
Ltmp855:
	.loc	44 2062 9
	movq	16(%rdi), %rcx
	movq	%rcx, -144(%rbp)
Ltmp856:
	.loc	44 1954 43
	movq	%rsi, -136(%rbp)
	.loc	44 1954 62 is_stmt 0
	movq	%rdi, -128(%rbp)
Ltmp857:
	.loc	44 1280 19 is_stmt 1
	movq	%rdi, -120(%rbp)
Ltmp858:
	.loc	45 224 9
	movq	8(%rdi), %rax
	movq	%rax, -112(%rbp)
Ltmp859:
	.loc	13 104 9
	movq	%rax, -104(%rbp)
Ltmp860:
	.loc	12 326 9
	movq	%rax, -96(%rbp)
Ltmp861:
	.loc	44 1282 21
	movq	%rax, -88(%rbp)
Ltmp862:
	.loc	23 52 36
	movq	%rax, -192(%rbp)
	.loc	23 52 18 is_stmt 0
	movq	-192(%rbp), %rdi
	movq	%rdi, -80(%rbp)
Ltmp863:
	.loc	23 38 13 is_stmt 1
	movq	%rdi, -72(%rbp)
Ltmp864:
	.loc	23 215 33
	movq	%rdi, -64(%rbp)
	.loc	23 215 18 is_stmt 0
	movq	%rdi, -56(%rbp)
Ltmp865:
	.loc	44 1954 84 is_stmt 1
	movq	%rcx, -48(%rbp)
Ltmp866:
	.loc	23 1034 18
	movq	%rax, -40(%rbp)
	.loc	23 1034 30 is_stmt 0
	movq	%rcx, -32(%rbp)
Ltmp867:
	.loc	23 487 18 is_stmt 1
	addq	%rcx, %rax
	movq	%rax, -24(%rbp)
	movq	-24(%rbp), %rdi
	movq	%rdi, -16(%rbp)
Ltmp868:
	.loc	44 1954 90
	movq	%rdx, -8(%rbp)
Ltmp869:
	.loc	46 2372 9
	shlq	$0, %rdx
	callq	_memcpy
	movq	-208(%rbp), %rdx
	movq	-200(%rbp), %rdi
Ltmp870:
	.loc	44 1955 9
	addq	16(%rdi), %rdx
	movq	%rdx, 16(%rdi)
Ltmp871:
	.loc	44 1956 6
	addq	$224, %rsp
	popq	%rbp
	retq
Ltmp872:
Lfunc_end155:
	.cfi_endproc

	.globl	__ZN5alloc3vec16Vec$LT$T$C$A$GT$17extend_from_slice17h6513dbf82af746e6E
	.p2align	4, 0x90
__ZN5alloc3vec16Vec$LT$T$C$A$GT$17extend_from_slice17h6513dbf82af746e6E:
Lfunc_begin156:
	.loc	44 2397 0
	.cfi_startproc
	pushq	%rbp
	.cfi_def_cfa_offset 16
	.cfi_offset %rbp, -16
	movq	%rsp, %rbp
	.cfi_def_cfa_register %rbp
	subq	$64, %rsp
	movq	%rdx, -64(%rbp)
	movq	%rsi, %rax
	movq	-64(%rbp), %rsi
	movq	%rax, -56(%rbp)
	movq	%rdi, %rax
	movq	-56(%rbp), %rdi
	movq	%rax, -48(%rbp)
	movq	%rax, -40(%rbp)
	movq	%rdi, -32(%rbp)
	movq	%rsi, -24(%rbp)
Ltmp873:
	.loc	44 2398 26 prologue_end
	movq	%rdi, -16(%rbp)
	movq	%rsi, -8(%rbp)
Ltmp874:
	.loc	19 742 9
	callq	__ZN4core5slice4iter13Iter$LT$T$GT$3new17hc1c791524a04eb27E
	movq	-48(%rbp), %rdi
	movq	%rax, %rsi
Ltmp875:
	.loc	44 2398 9
	callq	__ZN132_$LT$alloc..vec..Vec$LT$T$C$A$GT$$u20$as$u20$alloc..vec..spec_extend..SpecExtend$LT$$RF$T$C$core..slice..iter..Iter$LT$T$GT$$GT$$GT$11spec_extend17he6deb41c1be6578fE
	.loc	44 2399 6
	addq	$64, %rsp
	popq	%rbp
	retq
Ltmp876:
Lfunc_end156:
	.cfi_endproc

	.globl	__ZN5alloc3vec16Vec$LT$T$C$A$GT$7reserve17hd27eab9f8cfd3748E
	.p2align	4, 0x90
__ZN5alloc3vec16Vec$LT$T$C$A$GT$7reserve17hd27eab9f8cfd3748E:
Lfunc_begin157:
	.loc	44 911 0
	.cfi_startproc
	pushq	%rbp
	.cfi_def_cfa_offset 16
	.cfi_offset %rbp, -16
	movq	%rsp, %rbp
	.cfi_def_cfa_register %rbp
	subq	$16, %rsp
	movq	%rsi, %rdx
	movq	%rdi, -16(%rbp)
	movq	%rdx, -8(%rbp)
Ltmp877:
	.loc	44 912 26 prologue_end
	movq	16(%rdi), %rsi
	.loc	44 912 9 is_stmt 0
	callq	__ZN5alloc7raw_vec19RawVec$LT$T$C$A$GT$7reserve17h0d8232419a13a5fcE
	.loc	44 913 6 is_stmt 1
	addq	$16, %rsp
	popq	%rbp
	retq
Ltmp878:
Lfunc_end157:
	.cfi_endproc

	.p2align	4, 0x90
__ZN5alloc5alloc15exchange_malloc17he00aa2dd21a4f2f4E:
Lfunc_begin158:
	.file	51 "/rustc/2c8cc343237b8f7d5a3c3703e3a87f2eb2c54a74/library/alloc/src" "alloc.rs"
	.loc	51 324 0
	.cfi_startproc
	pushq	%rbp
	.cfi_def_cfa_offset 16
	.cfi_offset %rbp, -16
	movq	%rsp, %rbp
	.cfi_def_cfa_register %rbp
	subq	$208, %rsp
	movq	%rdi, -160(%rbp)
	movq	%rsi, -152(%rbp)
Ltmp879:
	.loc	51 325 61 prologue_end
	movq	%rdi, -144(%rbp)
	.loc	51 325 67 is_stmt 0
	movq	%rsi, -136(%rbp)
Ltmp880:
	.loc	34 120 65 is_stmt 1
	movq	%rsi, -128(%rbp)
Ltmp881:
	.loc	35 89 18
	movq	%rsi, -120(%rbp)
	movq	-120(%rbp), %rax
Ltmp882:
	.loc	34 120 18
	movq	%rdi, -200(%rbp)
	movq	%rax, -192(%rbp)
Ltmp883:
	.loc	51 326 11
	leaq	l___unnamed_5(%rip), %rdi
	movq	%rdi, -112(%rbp)
	.loc	51 326 27 is_stmt 0
	movq	-200(%rbp), %rsi
	movq	-192(%rbp), %rdx
	movq	%rsi, -104(%rbp)
	movq	%rdx, -96(%rbp)
	xorl	%ecx, %ecx
Ltmp884:
	.loc	51 237 9 is_stmt 1
	callq	__ZN5alloc5alloc6Global10alloc_impl17h2aff2e1234f3c94dE
	movq	%rdx, -176(%rbp)
	movq	%rax, -184(%rbp)
Ltmp885:
	.loc	51 326 11
	movq	-184(%rbp), %rdx
	xorl	%eax, %eax
	movl	$1, %ecx
	cmpq	$0, %rdx
	cmoveq	%rcx, %rax
	.loc	51 326 5 is_stmt 0
	cmpq	$0, %rax
	jne	LBB158_2
	.loc	51 327 12 is_stmt 1
	movq	-184(%rbp), %rax
	movq	-176(%rbp), %rcx
	movq	%rax, -88(%rbp)
	movq	%rcx, -80(%rbp)
Ltmp886:
	.loc	51 327 20 is_stmt 0
	movq	%rax, -72(%rbp)
	movq	%rcx, -64(%rbp)
Ltmp887:
	.loc	12 548 9 is_stmt 1
	movq	%rax, -56(%rbp)
	movq	%rcx, -48(%rbp)
Ltmp888:
	.loc	12 529 41
	movq	%rax, -40(%rbp)
	movq	%rcx, -32(%rbp)
Ltmp889:
	.loc	12 326 9
	movq	%rax, -24(%rbp)
	movq	%rcx, -16(%rbp)
Ltmp890:
	.loc	23 2037 9
	movq	%rax, -8(%rbp)
Ltmp891:
	.loc	12 201 13
	movq	%rax, -168(%rbp)
Ltmp892:
	.loc	12 326 9
	movq	-168(%rbp), %rax
Ltmp893:
	.loc	51 330 2
	addq	$208, %rsp
	popq	%rbp
	retq
LBB158_2:
Ltmp894:
	.loc	51 328 38
	movq	-200(%rbp), %rdi
	movq	-192(%rbp), %rsi
	.loc	51 328 19 is_stmt 0
	callq	__ZN5alloc5alloc18handle_alloc_error17hb5f6ff255f23ea4dE
Ltmp895:
Lfunc_end158:
	.cfi_endproc

	.p2align	4, 0x90
__ZN5alloc5alloc6Global10alloc_impl17h2aff2e1234f3c94dE:
Lfunc_begin159:
	.loc	51 172 0 is_stmt 1
	.cfi_startproc
	pushq	%rbp
	.cfi_def_cfa_offset 16
	.cfi_offset %rbp, -16
	movq	%rsp, %rbp
	.cfi_def_cfa_register %rbp
	subq	$352, %rsp
	movb	%cl, %al
	movb	%al, -345(%rbp)
	movq	%rsi, -336(%rbp)
	movq	%rdx, -328(%rbp)
	movq	%rdi, -208(%rbp)
	andb	$1, %al
	movb	%al, -193(%rbp)
Ltmp896:
	.loc	51 173 15 prologue_end
	leaq	-336(%rbp), %rax
	movq	%rax, -144(%rbp)
Ltmp897:
	.loc	34 129 9
	movq	-336(%rbp), %rax
	movq	%rax, -344(%rbp)
Ltmp898:
	.loc	51 173 9
	cmpq	$0, %rax
	jne	LBB159_2
	.loc	51 174 51
	leaq	-336(%rbp), %rax
	movq	%rax, -48(%rbp)
Ltmp899:
	.loc	34 216 71
	leaq	-336(%rbp), %rax
	movq	%rax, -40(%rbp)
Ltmp900:
	.loc	34 140 9
	movq	-328(%rbp), %rax
	movq	%rax, -32(%rbp)
Ltmp901:
	.loc	35 97 9
	movq	%rax, -232(%rbp)
	movq	-232(%rbp), %rax
	movq	%rax, -24(%rbp)
Ltmp902:
	.loc	7 599 14
	movq	%rax, -16(%rbp)
	movq	-16(%rbp), %rax
	movq	%rax, -8(%rbp)
Ltmp903:
	.loc	12 201 13
	movq	%rax, -304(%rbp)
Ltmp904:
	.loc	51 174 21
	movq	-304(%rbp), %rdi
	xorl	%eax, %eax
	movl	%eax, %esi
	callq	__ZN4core3ptr8non_null26NonNull$LT$$u5b$T$u5d$$GT$20slice_from_raw_parts17ha7a2a17f681cd444E
	.loc	51 174 18 is_stmt 0
	movq	%rax, -320(%rbp)
	movq	%rdx, -312(%rbp)
	.loc	51 174 72
	jmp	LBB159_15
LBB159_2:
	.loc	51 0 72
	movb	-345(%rbp), %al
	movq	-344(%rbp), %rcx
	.loc	51 176 13 is_stmt 1
	movq	%rcx, -136(%rbp)
Ltmp905:
	.loc	51 177 34
	testb	$1, %al
	jne	LBB159_4
	.loc	51 177 79 is_stmt 0
	movq	-336(%rbp), %rcx
	movq	-328(%rbp), %rax
	movq	%rcx, -272(%rbp)
	movq	%rax, -264(%rbp)
Ltmp906:
	.loc	51 95 27 is_stmt 1
	leaq	-272(%rbp), %rax
	movq	%rax, -104(%rbp)
Ltmp907:
	.loc	34 129 9
	movq	-272(%rbp), %rdi
Ltmp908:
	.loc	51 95 42
	leaq	-272(%rbp), %rax
	movq	%rax, -96(%rbp)
Ltmp909:
	.loc	34 140 9
	movq	-264(%rbp), %rax
	movq	%rax, -88(%rbp)
Ltmp910:
	.loc	35 97 9
	movq	%rax, -216(%rbp)
	movq	-216(%rbp), %rsi
Ltmp911:
	.loc	51 95 14
	callq	___rust_alloc
	movq	%rax, -296(%rbp)
Ltmp912:
	.loc	51 177 31
	jmp	LBB159_5
LBB159_4:
	.loc	51 177 56 is_stmt 0
	movq	-336(%rbp), %rcx
	movq	-328(%rbp), %rax
	movq	%rcx, -288(%rbp)
	movq	%rax, -280(%rbp)
Ltmp913:
	.loc	51 166 34 is_stmt 1
	leaq	-288(%rbp), %rax
	movq	%rax, -128(%rbp)
Ltmp914:
	.loc	34 129 9
	movq	-288(%rbp), %rdi
Ltmp915:
	.loc	51 166 49
	leaq	-288(%rbp), %rax
	movq	%rax, -120(%rbp)
Ltmp916:
	.loc	34 140 9
	movq	-280(%rbp), %rax
	movq	%rax, -112(%rbp)
Ltmp917:
	.loc	35 97 9
	movq	%rax, -224(%rbp)
	movq	-224(%rbp), %rsi
Ltmp918:
	.loc	51 166 14
	callq	___rust_alloc_zeroed
	movq	%rax, -296(%rbp)
Ltmp919:
LBB159_5:
	.loc	51 178 40
	movq	-296(%rbp), %rdi
	.loc	51 178 27 is_stmt 0
	callq	__ZN4core3ptr8non_null16NonNull$LT$T$GT$3new17hbe07f8c52c575838E
	movq	%rax, -240(%rbp)
Ltmp920:
	.loc	25 1096 15 is_stmt 1
	movq	-240(%rbp), %rdx
	movl	$1, %eax
	xorl	%ecx, %ecx
	cmpq	$0, %rdx
	cmoveq	%rcx, %rax
	.loc	25 1096 9 is_stmt 0
	cmpq	$0, %rax
	jne	LBB159_7
	.loc	25 1098 21 is_stmt 1
	movq	$0, -248(%rbp)
	.loc	25 1098 28 is_stmt 0
	jmp	LBB159_8
LBB159_7:
	.loc	25 1097 18 is_stmt 1
	movq	-240(%rbp), %rax
	movq	%rax, -80(%rbp)
Ltmp921:
	.loc	25 1097 24 is_stmt 0
	movq	%rax, -248(%rbp)
Ltmp922:
LBB159_8:
	.loc	41 2091 15 is_stmt 1
	movq	-248(%rbp), %rdx
	xorl	%eax, %eax
	movl	$1, %ecx
	cmpq	$0, %rdx
	cmoveq	%rcx, %rax
	.loc	41 2091 9 is_stmt 0
	cmpq	$0, %rax
	jne	LBB159_10
	.loc	41 2092 16 is_stmt 1
	movq	-248(%rbp), %rax
	movq	%rax, -72(%rbp)
Ltmp923:
	.loc	41 2092 22 is_stmt 0
	movq	%rax, -256(%rbp)
Ltmp924:
	.loc	41 2092 45
	jmp	LBB159_11
LBB159_10:
Ltmp925:
	.loc	41 2093 23 is_stmt 1
	movq	$0, -256(%rbp)
Ltmp926:
LBB159_11:
	.loc	51 178 27
	movq	-256(%rbp), %rdx
	xorl	%eax, %eax
	movl	$1, %ecx
	cmpq	$0, %rdx
	cmoveq	%rcx, %rax
	cmpq	$0, %rax
	jne	LBB159_13
	.loc	51 0 27 is_stmt 0
	movq	-344(%rbp), %rsi
	.loc	51 178 27
	movq	-256(%rbp), %rdi
	movq	%rdi, -64(%rbp)
Ltmp927:
	.loc	51 178 27
	movq	%rdi, -56(%rbp)
Ltmp928:
	.loc	51 179 20 is_stmt 1
	callq	__ZN4core3ptr8non_null26NonNull$LT$$u5b$T$u5d$$GT$20slice_from_raw_parts17ha7a2a17f681cd444E
	.loc	51 179 17 is_stmt 0
	movq	%rax, -320(%rbp)
	movq	%rdx, -312(%rbp)
Ltmp929:
	.loc	51 180 13 is_stmt 1
	jmp	LBB159_15
LBB159_13:
Ltmp930:
	.loc	41 2107 23
	movq	$0, -320(%rbp)
Ltmp931:
LBB159_14:
	.loc	51 182 6
	movq	-320(%rbp), %rax
	movq	-312(%rbp), %rdx
	addq	$352, %rsp
	popq	%rbp
	retq
LBB159_15:
	jmp	LBB159_14
Ltmp932:
Lfunc_end159:
	.cfi_endproc

	.p2align	4, 0x90
__ZN5alloc5alloc6Global9grow_impl17h0ff7b8a2d019e3dbE:
Lfunc_begin160:
	.loc	51 186 0
	.cfi_startproc
	pushq	%rbp
	.cfi_def_cfa_offset 16
	.cfi_offset %rbp, -16
	movq	%rsp, %rbp
	.cfi_def_cfa_register %rbp
	subq	$736, %rsp
	movq	%rsi, -688(%rbp)
	movq	%rdi, -680(%rbp)
	movb	16(%rbp), %al
	movb	%al, -665(%rbp)
	movq	%rdx, -656(%rbp)
	movq	%rcx, -648(%rbp)
	movq	%r8, -640(%rbp)
	movq	%r9, -632(%rbp)
	movq	%rdi, -504(%rbp)
	movq	%rsi, -496(%rbp)
	andb	$1, %al
	movb	%al, -481(%rbp)
Ltmp933:
	.loc	51 198 15 prologue_end
	leaq	-656(%rbp), %rax
	movq	%rax, -392(%rbp)
Ltmp934:
	.loc	34 129 9
	movq	-656(%rbp), %rax
	movq	%rax, -664(%rbp)
Ltmp935:
	.loc	51 198 9
	cmpq	$0, %rax
	jne	LBB160_2
	.loc	51 0 9 is_stmt 0
	movq	-680(%rbp), %rdi
	movb	-665(%rbp), %al
	.loc	51 199 34 is_stmt 1
	movq	-640(%rbp), %rsi
	movq	-632(%rbp), %rdx
	.loc	51 199 18 is_stmt 0
	movzbl	%al, %ecx
	andl	$1, %ecx
	callq	__ZN5alloc5alloc6Global10alloc_impl17h2aff2e1234f3c94dE
	movq	%rdx, -616(%rbp)
	movq	%rax, -624(%rbp)
	.loc	51 199 52
	jmp	LBB160_16
LBB160_2:
	.loc	51 203 25 is_stmt 1
	leaq	-656(%rbp), %rax
	movq	%rax, -384(%rbp)
Ltmp936:
	.loc	34 140 9
	movq	-648(%rbp), %rax
	movq	%rax, -376(%rbp)
Ltmp937:
	.loc	35 97 9
	movq	%rax, -536(%rbp)
	movq	-536(%rbp), %rax
Ltmp938:
	.loc	51 203 47
	leaq	-640(%rbp), %rcx
	movq	%rcx, -368(%rbp)
Ltmp939:
	.loc	34 140 9
	movq	-632(%rbp), %rcx
	movq	%rcx, -360(%rbp)
Ltmp940:
	.loc	35 97 9
	movq	%rcx, -528(%rbp)
	movq	-528(%rbp), %rcx
Ltmp941:
	.loc	51 203 25
	cmpq	%rcx, %rax
	je	LBB160_4
	.loc	51 0 25 is_stmt 0
	movq	-680(%rbp), %rdi
	movb	-665(%rbp), %al
	movq	-664(%rbp), %rcx
	.loc	51 222 13 is_stmt 1
	movq	%rcx, -160(%rbp)
Ltmp942:
	.loc	51 223 47
	movq	-640(%rbp), %rsi
	movq	-632(%rbp), %rdx
	.loc	51 223 31 is_stmt 0
	movzbl	%al, %ecx
	andl	$1, %ecx
	callq	__ZN5alloc5alloc6Global10alloc_impl17h2aff2e1234f3c94dE
	movq	%rdx, -544(%rbp)
	movq	%rax, -552(%rbp)
Ltmp943:
	.loc	41 2091 15 is_stmt 1
	movq	-552(%rbp), %rdx
	xorl	%eax, %eax
	movl	$1, %ecx
	cmpq	$0, %rdx
	cmoveq	%rcx, %rax
	.loc	41 2091 9 is_stmt 0
	cmpq	$0, %rax
	je	LBB160_17
	jmp	LBB160_18
Ltmp944:
LBB160_4:
	.loc	41 0 9
	movq	-688(%rbp), %rdi
	movq	-664(%rbp), %rax
	.loc	51 203 13 is_stmt 1
	movq	%rax, -352(%rbp)
Ltmp945:
	.loc	51 204 32
	leaq	-640(%rbp), %rax
	movq	%rax, -344(%rbp)
Ltmp946:
	.loc	34 129 9
	movq	-640(%rbp), %rcx
	movq	%rcx, -704(%rbp)
	movq	%rcx, -336(%rbp)
Ltmp947:
	.loc	51 207 48
	leaq	-656(%rbp), %rax
	movq	%rax, -328(%rbp)
	.loc	51 209 39
	movq	%rdi, -320(%rbp)
Ltmp948:
	.loc	12 326 9
	movq	%rdi, -312(%rbp)
Ltmp949:
	.loc	51 209 53
	movq	-656(%rbp), %rdx
	movq	-648(%rbp), %rax
	movq	%rdx, -608(%rbp)
	movq	%rax, -600(%rbp)
	.loc	51 209 65 is_stmt 0
	movq	%rcx, -304(%rbp)
Ltmp950:
	.loc	51 132 34 is_stmt 1
	leaq	-608(%rbp), %rax
	movq	%rax, -296(%rbp)
Ltmp951:
	.loc	34 129 9
	movq	-608(%rbp), %rsi
Ltmp952:
	.loc	51 132 49
	leaq	-608(%rbp), %rax
	movq	%rax, -288(%rbp)
Ltmp953:
	.loc	34 140 9
	movq	-600(%rbp), %rax
	movq	%rax, -280(%rbp)
Ltmp954:
	.loc	35 97 9
	movq	%rax, -520(%rbp)
	movq	-520(%rbp), %rdx
Ltmp955:
	.loc	51 132 14
	callq	___rust_realloc
	movq	%rax, %rdi
	movq	%rdi, -696(%rbp)
	movq	%rdi, -272(%rbp)
Ltmp956:
	.loc	51 210 27
	callq	__ZN4core3ptr8non_null16NonNull$LT$T$GT$3new17hbe07f8c52c575838E
	movq	%rax, -576(%rbp)
Ltmp957:
	.loc	25 1096 15
	movq	-576(%rbp), %rdx
	movl	$1, %eax
	xorl	%ecx, %ecx
	cmpq	$0, %rdx
	cmoveq	%rcx, %rax
	.loc	25 1096 9 is_stmt 0
	cmpq	$0, %rax
	jne	LBB160_6
	.loc	25 1098 21 is_stmt 1
	movq	$0, -584(%rbp)
	.loc	25 1098 28 is_stmt 0
	jmp	LBB160_7
LBB160_6:
	.loc	25 1097 18 is_stmt 1
	movq	-576(%rbp), %rax
	movq	%rax, -264(%rbp)
Ltmp958:
	.loc	25 1097 24 is_stmt 0
	movq	%rax, -584(%rbp)
Ltmp959:
LBB160_7:
	.loc	41 2091 15 is_stmt 1
	movq	-584(%rbp), %rdx
	xorl	%eax, %eax
	movl	$1, %ecx
	cmpq	$0, %rdx
	cmoveq	%rcx, %rax
	.loc	41 2091 9 is_stmt 0
	cmpq	$0, %rax
	jne	LBB160_9
	.loc	41 2092 16 is_stmt 1
	movq	-584(%rbp), %rax
	movq	%rax, -256(%rbp)
Ltmp960:
	.loc	41 2092 22 is_stmt 0
	movq	%rax, -592(%rbp)
Ltmp961:
	.loc	41 2092 45
	jmp	LBB160_10
LBB160_9:
Ltmp962:
	.loc	41 2093 23 is_stmt 1
	movq	$0, -592(%rbp)
Ltmp963:
LBB160_10:
	.loc	51 210 27
	movq	-592(%rbp), %rdx
	xorl	%eax, %eax
	movl	$1, %ecx
	cmpq	$0, %rdx
	cmoveq	%rcx, %rax
	cmpq	$0, %rax
	jne	LBB160_12
	.loc	51 0 27 is_stmt 0
	movb	-665(%rbp), %al
	.loc	51 210 27
	movq	-592(%rbp), %rcx
	movq	%rcx, -712(%rbp)
	movq	%rcx, -248(%rbp)
Ltmp964:
	.loc	51 210 27
	movq	%rcx, -240(%rbp)
Ltmp965:
	.loc	51 211 20 is_stmt 1
	testb	$1, %al
	jne	LBB160_15
	jmp	LBB160_14
Ltmp966:
LBB160_12:
	.loc	41 2107 23
	movq	$0, -624(%rbp)
Ltmp967:
LBB160_13:
	.loc	51 229 6
	jmp	LBB160_22
LBB160_14:
	.loc	51 0 6 is_stmt 0
	movq	-704(%rbp), %rsi
	movq	-712(%rbp), %rdi
Ltmp968:
	.loc	51 214 20 is_stmt 1
	callq	__ZN4core3ptr8non_null26NonNull$LT$$u5b$T$u5d$$GT$20slice_from_raw_parts17ha7a2a17f681cd444E
	.loc	51 214 17 is_stmt 0
	movq	%rax, -624(%rbp)
	movq	%rdx, -616(%rbp)
Ltmp969:
	.loc	51 215 13 is_stmt 1
	jmp	LBB160_16
LBB160_15:
	.loc	51 0 13 is_stmt 0
	movq	-664(%rbp), %rax
	movq	-704(%rbp), %rdx
	movq	-696(%rbp), %rcx
Ltmp970:
	.loc	51 212 21 is_stmt 1
	movq	%rcx, -232(%rbp)
	.loc	51 212 33 is_stmt 0
	movq	%rax, -224(%rbp)
Ltmp971:
	.loc	23 1034 18 is_stmt 1
	movq	%rcx, -216(%rbp)
	.loc	23 1034 30 is_stmt 0
	movq	%rax, -208(%rbp)
Ltmp972:
	.loc	23 487 18 is_stmt 1
	addq	%rax, %rcx
	movq	%rcx, -200(%rbp)
	movq	-200(%rbp), %rdi
	movq	%rdi, -192(%rbp)
Ltmp973:
	.loc	51 212 58
	subq	%rax, %rdx
	movq	%rdx, -184(%rbp)
Ltmp974:
	.loc	23 1488 30
	movq	%rdi, -176(%rbp)
	.loc	23 1488 41 is_stmt 0
	movq	%rdx, -168(%rbp)
Ltmp975:
	.loc	46 2529 9 is_stmt 1
	shlq	$0, %rdx
	xorl	%esi, %esi
	callq	_memset
Ltmp976:
	.loc	51 211 17
	jmp	LBB160_14
Ltmp977:
LBB160_16:
	.loc	51 229 6
	jmp	LBB160_22
LBB160_17:
Ltmp978:
	.loc	41 2092 16
	movq	-552(%rbp), %rcx
	movq	-544(%rbp), %rax
	movq	%rcx, -152(%rbp)
	movq	%rax, -144(%rbp)
Ltmp979:
	.loc	41 2092 22 is_stmt 0
	movq	%rcx, -568(%rbp)
	movq	%rax, -560(%rbp)
Ltmp980:
	.loc	41 2092 45
	jmp	LBB160_19
LBB160_18:
Ltmp981:
	.loc	41 2093 23 is_stmt 1
	movq	$0, -568(%rbp)
Ltmp982:
LBB160_19:
	.loc	51 223 31
	movq	-568(%rbp), %rdx
	xorl	%eax, %eax
	movl	$1, %ecx
	cmpq	$0, %rdx
	cmoveq	%rcx, %rax
	cmpq	$0, %rax
	jne	LBB160_21
	.loc	51 0 31 is_stmt 0
	movq	-688(%rbp), %rsi
	movq	-664(%rbp), %rdx
	.loc	51 223 31
	movq	-568(%rbp), %rax
	movq	%rax, -728(%rbp)
	movq	-560(%rbp), %rcx
	movq	%rcx, -720(%rbp)
	movq	%rax, -136(%rbp)
	movq	%rcx, -128(%rbp)
Ltmp983:
	.loc	51 223 31
	movq	%rax, -120(%rbp)
	movq	%rcx, -112(%rbp)
Ltmp984:
	.loc	51 224 42 is_stmt 1
	movq	%rsi, -104(%rbp)
	movq	%rsi, -96(%rbp)
	.loc	51 224 56 is_stmt 0
	movq	%rax, -88(%rbp)
	movq	%rcx, -80(%rbp)
Ltmp985:
	.loc	12 548 9 is_stmt 1
	movq	%rax, -72(%rbp)
	movq	%rcx, -64(%rbp)
Ltmp986:
	.loc	12 529 41
	movq	%rax, -56(%rbp)
	movq	%rcx, -48(%rbp)
Ltmp987:
	.loc	12 326 9
	movq	%rax, -40(%rbp)
	movq	%rcx, -32(%rbp)
Ltmp988:
	.loc	23 2037 9
	movq	%rax, -24(%rbp)
Ltmp989:
	.loc	12 201 13
	movq	%rax, -512(%rbp)
Ltmp990:
	.loc	12 326 9
	movq	-512(%rbp), %rdi
	movq	%rdi, -16(%rbp)
Ltmp991:
	.loc	51 224 78
	movq	%rdx, -8(%rbp)
Ltmp992:
	.loc	46 2372 9
	shlq	$0, %rdx
	callq	_memcpy
	movq	-680(%rbp), %rdi
	movq	-688(%rbp), %rsi
Ltmp993:
	.loc	51 225 38
	movq	-656(%rbp), %rdx
	movq	-648(%rbp), %rcx
	.loc	51 225 17 is_stmt 0
	callq	__ZN63_$LT$alloc..alloc..Global$u20$as$u20$core..alloc..Allocator$GT$10deallocate17hcdfb6b5a3c8a4087E
	movq	-728(%rbp), %rcx
	movq	-720(%rbp), %rax
	.loc	51 226 17 is_stmt 1
	movq	%rcx, -624(%rbp)
	movq	%rax, -616(%rbp)
Ltmp994:
	.loc	51 227 13
	jmp	LBB160_16
LBB160_21:
Ltmp995:
	.loc	41 2107 23
	movq	$0, -624(%rbp)
Ltmp996:
	.loc	26 1 1
	jmp	LBB160_13
LBB160_22:
	.loc	51 229 6
	movq	-624(%rbp), %rax
	movq	-616(%rbp), %rdx
	addq	$736, %rsp
	popq	%rbp
	retq
Ltmp997:
Lfunc_end160:
	.cfi_endproc

	.globl	__ZN5alloc5alloc8box_free17hd890cfad011b1ca6E
	.p2align	4, 0x90
__ZN5alloc5alloc8box_free17hd890cfad011b1ca6E:
Lfunc_begin161:
	.loc	51 340 0
	.cfi_startproc
	.cfi_personality 155, _rust_eh_personality
	.cfi_lsda 16, Lexception23
	pushq	%rbp
	.cfi_def_cfa_offset 16
	.cfi_offset %rbp, -16
	movq	%rsp, %rbp
	.cfi_def_cfa_register %rbp
	subq	$256, %rsp
	movq	%rdi, -240(%rbp)
Ltmp1001:
	.loc	51 345 32 prologue_end
	leaq	-240(%rbp), %rax
	movq	%rax, -184(%rbp)
Ltmp1002:
	.loc	13 117 18
	leaq	-240(%rbp), %rax
	movq	%rax, -176(%rbp)
Ltmp1003:
	.loc	12 376 20
	movq	-240(%rbp), %rax
	movq	%rax, -168(%rbp)
Ltmp1004:
	.loc	51 345 20
	movq	$8, -160(%rbp)
	movq	-160(%rbp), %rcx
	movq	%rcx, -256(%rbp)
	movq	%rcx, -152(%rbp)
Ltmp1005:
	.loc	51 346 38
	leaq	-240(%rbp), %rax
	movq	%rax, -144(%rbp)
Ltmp1006:
	.loc	13 117 18
	leaq	-240(%rbp), %rax
	movq	%rax, -136(%rbp)
Ltmp1007:
	.loc	12 376 20
	movq	-240(%rbp), %rax
	movq	%rax, -128(%rbp)
Ltmp1008:
	.loc	51 346 21
	movq	$8, -120(%rbp)
	movq	-120(%rbp), %rax
	movq	%rax, -112(%rbp)
Ltmp1009:
	.loc	51 347 56
	movq	%rcx, -104(%rbp)
	.loc	51 347 62 is_stmt 0
	movq	%rax, -96(%rbp)
Ltmp1010:
	.loc	34 120 65 is_stmt 1
	movq	%rax, -88(%rbp)
Ltmp1011:
	.loc	35 89 18
	movq	%rax, -80(%rbp)
	movq	-80(%rbp), %rax
	movq	%rax, -248(%rbp)
Ltmp1012:
	.loc	35 0 18 is_stmt 0
	movq	-248(%rbp), %rax
	movq	-256(%rbp), %rcx
	.loc	34 120 18 is_stmt 1
	movq	%rcx, -224(%rbp)
	movq	%rax, -216(%rbp)
Ltmp1013:
	.loc	51 348 37
	movq	-240(%rbp), %rax
	movq	%rax, -72(%rbp)
Ltmp1014:
	.loc	13 137 22
	movq	%rax, -64(%rbp)
Ltmp1015:
	.loc	12 450 41
	movq	%rax, -56(%rbp)
	movq	%rax, -48(%rbp)
Ltmp1016:
	.loc	12 201 13
	movq	%rax, -192(%rbp)
Ltmp1017:
	.loc	13 191 18
	movq	-192(%rbp), %rax
	.loc	13 191 9 is_stmt 0
	movq	%rax, -200(%rbp)
Ltmp1018:
	.loc	12 768 41 is_stmt 1
	movq	-200(%rbp), %rax
	movq	%rax, -40(%rbp)
Ltmp1019:
	.loc	13 104 9
	movq	%rax, -32(%rbp)
Ltmp1020:
	.loc	12 326 9
	movq	%rax, -24(%rbp)
Ltmp1021:
	.loc	12 201 13
	movq	%rax, -208(%rbp)
Ltmp1022:
	.loc	51 348 50
	movq	-224(%rbp), %rdx
	movq	-216(%rbp), %rcx
	.loc	51 348 9 is_stmt 0
	movq	-208(%rbp), %rsi
Ltmp998:
	leaq	-232(%rbp), %rdi
	callq	__ZN63_$LT$alloc..alloc..Global$u20$as$u20$core..alloc..Allocator$GT$10deallocate17hcdfb6b5a3c8a4087E
Ltmp999:
	jmp	LBB161_4
Ltmp1023:
LBB161_2:
	.loc	51 340 1 is_stmt 1
	movq	-16(%rbp), %rdi
	callq	__Unwind_Resume
LBB161_3:
Ltmp1000:
	.loc	51 0 1 is_stmt 0
	movq	%rax, %rcx
	movl	%edx, %eax
	movq	%rcx, -16(%rbp)
	movl	%eax, -8(%rbp)
	jmp	LBB161_2
LBB161_4:
	.loc	51 350 2 is_stmt 1
	addq	$256, %rsp
	popq	%rbp
	retq
Ltmp1024:
Lfunc_end161:
	.cfi_endproc
	.section	__TEXT,__gcc_except_tab
	.p2align	2
GCC_except_table161:
Lexception23:
	.byte	255
	.byte	255
	.byte	1
	.uleb128 Lcst_end23-Lcst_begin23
Lcst_begin23:
	.uleb128 Ltmp998-Lfunc_begin161
	.uleb128 Ltmp999-Ltmp998
	.uleb128 Ltmp1000-Lfunc_begin161
	.byte	0
	.uleb128 Ltmp999-Lfunc_begin161
	.uleb128 Lfunc_end161-Ltmp999
	.byte	0
	.byte	0
Lcst_end23:
	.p2align	2

	.section	__TEXT,__text,regular,pure_instructions
	.globl	__ZN5alloc5alloc8box_free17he4eff7cec1eb5c11E
	.p2align	4, 0x90
__ZN5alloc5alloc8box_free17he4eff7cec1eb5c11E:
Lfunc_begin162:
	.loc	51 340 0
	.cfi_startproc
	.cfi_personality 155, _rust_eh_personality
	.cfi_lsda 16, Lexception24
	pushq	%rbp
	.cfi_def_cfa_offset 16
	.cfi_offset %rbp, -16
	movq	%rsp, %rbp
	.cfi_def_cfa_register %rbp
	subq	$304, %rsp
	movq	%rdi, -288(%rbp)
	movq	%rsi, -280(%rbp)
Ltmp1028:
	.loc	51 345 32 prologue_end
	leaq	-288(%rbp), %rax
	movq	%rax, -224(%rbp)
Ltmp1029:
	.loc	13 117 18
	leaq	-288(%rbp), %rax
	movq	%rax, -216(%rbp)
Ltmp1030:
	.loc	12 376 20
	movq	-288(%rbp), %rcx
	movq	-280(%rbp), %rax
	movq	%rcx, -208(%rbp)
	movq	%rax, -200(%rbp)
Ltmp1031:
	.loc	51 345 20
	shlq	$0, %rax
	movq	%rax, -192(%rbp)
	movq	-192(%rbp), %rcx
	movq	%rcx, -304(%rbp)
	movq	%rcx, -184(%rbp)
Ltmp1032:
	.loc	51 346 38
	leaq	-288(%rbp), %rax
	movq	%rax, -176(%rbp)
Ltmp1033:
	.loc	13 117 18
	leaq	-288(%rbp), %rax
	movq	%rax, -168(%rbp)
Ltmp1034:
	.loc	12 376 20
	movq	-288(%rbp), %rdx
	movq	-280(%rbp), %rax
	movq	%rdx, -160(%rbp)
	movq	%rax, -152(%rbp)
Ltmp1035:
	.loc	51 346 21
	movq	$1, -144(%rbp)
	movq	-144(%rbp), %rax
	movq	%rax, -136(%rbp)
Ltmp1036:
	.loc	51 347 56
	movq	%rcx, -128(%rbp)
	.loc	51 347 62 is_stmt 0
	movq	%rax, -120(%rbp)
Ltmp1037:
	.loc	34 120 65 is_stmt 1
	movq	%rax, -112(%rbp)
Ltmp1038:
	.loc	35 89 18
	movq	%rax, -104(%rbp)
	movq	-104(%rbp), %rax
	movq	%rax, -296(%rbp)
Ltmp1039:
	.loc	35 0 18 is_stmt 0
	movq	-296(%rbp), %rax
	movq	-304(%rbp), %rcx
	.loc	34 120 18 is_stmt 1
	movq	%rcx, -264(%rbp)
	movq	%rax, -256(%rbp)
Ltmp1040:
	.loc	51 348 37
	movq	-288(%rbp), %rax
	movq	-280(%rbp), %rcx
	movq	%rax, -96(%rbp)
	movq	%rcx, -88(%rbp)
Ltmp1041:
	.loc	13 137 22
	movq	%rax, -80(%rbp)
	movq	%rcx, -72(%rbp)
Ltmp1042:
	.loc	12 450 41
	movq	%rax, -64(%rbp)
	movq	%rcx, -56(%rbp)
	movq	%rax, -48(%rbp)
Ltmp1043:
	.loc	12 201 13
	movq	%rax, -232(%rbp)
Ltmp1044:
	.loc	13 191 18
	movq	-232(%rbp), %rax
	.loc	13 191 9 is_stmt 0
	movq	%rax, -240(%rbp)
Ltmp1045:
	.loc	12 768 41 is_stmt 1
	movq	-240(%rbp), %rax
	movq	%rax, -40(%rbp)
Ltmp1046:
	.loc	13 104 9
	movq	%rax, -32(%rbp)
Ltmp1047:
	.loc	12 326 9
	movq	%rax, -24(%rbp)
Ltmp1048:
	.loc	12 201 13
	movq	%rax, -248(%rbp)
Ltmp1049:
	.loc	51 348 50
	movq	-264(%rbp), %rdx
	movq	-256(%rbp), %rcx
	.loc	51 348 9 is_stmt 0
	movq	-248(%rbp), %rsi
Ltmp1025:
	leaq	-272(%rbp), %rdi
	callq	__ZN63_$LT$alloc..alloc..Global$u20$as$u20$core..alloc..Allocator$GT$10deallocate17hcdfb6b5a3c8a4087E
Ltmp1026:
	jmp	LBB162_4
Ltmp1050:
LBB162_2:
	.loc	51 340 1 is_stmt 1
	movq	-16(%rbp), %rdi
	callq	__Unwind_Resume
LBB162_3:
Ltmp1027:
	.loc	51 0 1 is_stmt 0
	movq	%rax, %rcx
	movl	%edx, %eax
	movq	%rcx, -16(%rbp)
	movl	%eax, -8(%rbp)
	jmp	LBB162_2
LBB162_4:
	.loc	51 350 2 is_stmt 1
	addq	$304, %rsp
	popq	%rbp
	retq
Ltmp1051:
Lfunc_end162:
	.cfi_endproc
	.section	__TEXT,__gcc_except_tab
	.p2align	2
GCC_except_table162:
Lexception24:
	.byte	255
	.byte	255
	.byte	1
	.uleb128 Lcst_end24-Lcst_begin24
Lcst_begin24:
	.uleb128 Ltmp1025-Lfunc_begin162
	.uleb128 Ltmp1026-Ltmp1025
	.uleb128 Ltmp1027-Lfunc_begin162
	.byte	0
	.uleb128 Ltmp1026-Lfunc_begin162
	.uleb128 Lfunc_end162-Ltmp1026
	.byte	0
	.byte	0
Lcst_end24:
	.p2align	2

	.section	__TEXT,__text,regular,pure_instructions
	.globl	__ZN5alloc5slice64_$LT$impl$u20$alloc..borrow..ToOwned$u20$for$u20$$u5b$T$u5d$$GT$8to_owned17h5b80f0a7badca3f3E
	.p2align	4, 0x90
__ZN5alloc5slice64_$LT$impl$u20$alloc..borrow..ToOwned$u20$for$u20$$u5b$T$u5d$$GT$8to_owned17h5b80f0a7badca3f3E:
Lfunc_begin163:
	.loc	43 790 0
	.cfi_startproc
	pushq	%rbp
	.cfi_def_cfa_offset 16
	.cfi_offset %rbp, -16
	movq	%rsp, %rbp
	.cfi_def_cfa_register %rbp
	subq	$96, %rsp
	movq	%rdi, %rax
	movq	%rax, -88(%rbp)
	movq	%rsi, -80(%rbp)
	movq	%rdx, -72(%rbp)
Ltmp1052:
	.loc	43 791 9 prologue_end
	movq	%rsi, -48(%rbp)
	movq	%rdx, -40(%rbp)
Ltmp1053:
	.loc	43 416 9
	movq	%rsi, -32(%rbp)
	movq	%rdx, -24(%rbp)
Ltmp1054:
	.loc	43 441 22
	movq	%rsi, -16(%rbp)
	movq	%rdx, -8(%rbp)
Ltmp1055:
	.loc	43 111 9
	callq	__ZN52_$LT$T$u20$as$u20$alloc..slice..hack..ConvertVec$GT$6to_vec17h85bcecd3399c0088E
	movq	-88(%rbp), %rax
Ltmp1056:
	.loc	43 792 6
	addq	$96, %rsp
	popq	%rbp
	retq
Ltmp1057:
Lfunc_end163:
	.cfi_endproc

	.p2align	4, 0x90
__ZN5alloc6string6String8push_str17h53fd51f71798ad37E:
Lfunc_begin164:
	.loc	48 925 0
	.cfi_startproc
	pushq	%rbp
	.cfi_def_cfa_offset 16
	.cfi_offset %rbp, -16
	movq	%rsp, %rbp
	.cfi_def_cfa_register %rbp
	subq	$64, %rsp
	movq	%rdi, -56(%rbp)
	movq	%rsi, -48(%rbp)
	movq	%rdx, -40(%rbp)
Ltmp1058:
	.loc	48 926 36 prologue_end
	movq	%rsi, -32(%rbp)
	movq	%rdx, -24(%rbp)
Ltmp1059:
	.loc	27 327 18
	movq	%rsi, -16(%rbp)
	movq	%rdx, -8(%rbp)
	movq	-16(%rbp), %rsi
	movq	-8(%rbp), %rdx
Ltmp1060:
	.loc	48 926 9
	callq	__ZN5alloc3vec16Vec$LT$T$C$A$GT$17extend_from_slice17h6513dbf82af746e6E
	.loc	48 927 6
	addq	$64, %rsp
	popq	%rbp
	retq
Ltmp1061:
Lfunc_end164:
	.cfi_endproc

	.globl	__ZN5alloc7raw_vec11finish_grow17h20d0bc50feeea590E
	.p2align	4, 0x90
__ZN5alloc7raw_vec11finish_grow17h20d0bc50feeea590E:
Lfunc_begin165:
	.loc	45 448 0
	.cfi_startproc
	pushq	%rbp
	.cfi_def_cfa_offset 16
	.cfi_offset %rbp, -16
	movq	%rsp, %rbp
	.cfi_def_cfa_register %rbp
	subq	$512, %rsp
	movq	%r8, -504(%rbp)
	movq	%rcx, -496(%rbp)
Ltmp1062:
	movq	%rdi, -488(%rbp)
	movq	%rdi, -480(%rbp)
	movq	%rsi, -240(%rbp)
	movq	%rdx, -232(%rbp)
Ltmp1063:
	movq	%r8, -224(%rbp)
Ltmp1064:
	.loc	45 457 22 prologue_end
	leaq	-432(%rbp), %rdi
	callq	__ZN4core6result19Result$LT$T$C$E$GT$7map_err17h8ff23050df906e32E
Ltmp1065:
	.loc	41 2091 9
	cmpq	$0, -432(%rbp)
Ltmp1066:
	jne	LBB165_2
Ltmp1067:
	.loc	41 2092 16
	movq	-424(%rbp), %rcx
	movq	-416(%rbp), %rax
	movq	%rcx, -184(%rbp)
	movq	%rax, -176(%rbp)
Ltmp1068:
	.loc	41 2092 22 is_stmt 0
	movq	%rcx, -448(%rbp)
	movq	%rax, -440(%rbp)
	movq	$0, -456(%rbp)
Ltmp1069:
	.loc	41 2092 45
	jmp	LBB165_3
Ltmp1070:
LBB165_2:
	.loc	41 2093 17 is_stmt 1
	movq	-424(%rbp), %rcx
	movq	-416(%rbp), %rax
	movq	%rcx, -200(%rbp)
	movq	%rax, -192(%rbp)
Ltmp1071:
	.loc	41 2093 42 is_stmt 0
	movq	%rcx, -304(%rbp)
	movq	%rax, -296(%rbp)
	.loc	41 2093 23
	movq	-304(%rbp), %rcx
	movq	-296(%rbp), %rax
	movq	%rcx, -448(%rbp)
	movq	%rax, -440(%rbp)
	movq	$1, -456(%rbp)
Ltmp1072:
LBB165_3:
	.loc	45 457 22 is_stmt 1
	cmpq	$0, -456(%rbp)
	jne	LBB165_5
Ltmp1073:
	movq	-448(%rbp), %rcx
	movq	-440(%rbp), %rax
	movq	%rcx, -120(%rbp)
	movq	%rax, -112(%rbp)
Ltmp1074:
	.loc	45 457 22 is_stmt 0
	movq	%rcx, -472(%rbp)
	movq	%rax, -464(%rbp)
Ltmp1075:
	.loc	45 509 9 is_stmt 1
	movabsq	$-9223372036854775807, %rax
	movq	%rax, -368(%rbp)
Ltmp1076:
	.loc	41 2091 15
	movabsq	$-9223372036854775807, %rdx
	movl	$1, %eax
	xorl	%ecx, %ecx
	cmpq	%rdx, -368(%rbp)
	cmoveq	%rcx, %rax
	.loc	41 2091 9 is_stmt 0
	cmpq	$0, %rax
	je	LBB165_7
	jmp	LBB165_8
Ltmp1077:
LBB165_5:
	.loc	41 0 9
	movq	-488(%rbp), %rax
	.loc	45 457 62 is_stmt 1
	movq	-448(%rbp), %rdx
	movq	-440(%rbp), %rcx
	movq	%rdx, -168(%rbp)
	movq	%rcx, -160(%rbp)
Ltmp1078:
	.loc	45 457 62 is_stmt 0
	movq	%rdx, -408(%rbp)
	movq	%rcx, -400(%rbp)
Ltmp1079:
	.loc	41 2107 17 is_stmt 1
	movq	-408(%rbp), %rdx
	movq	-400(%rbp), %rcx
	movq	%rdx, -152(%rbp)
	movq	%rcx, -144(%rbp)
Ltmp1080:
	.loc	41 2107 38 is_stmt 0
	movq	%rdx, -136(%rbp)
	movq	%rcx, -128(%rbp)
Ltmp1081:
	.loc	14 117 9 is_stmt 1
	movq	%rdx, -288(%rbp)
	movq	%rcx, -280(%rbp)
Ltmp1082:
	.loc	41 2107 23
	movq	-288(%rbp), %rdx
	movq	-280(%rbp), %rcx
	movq	%rdx, 8(%rax)
	movq	%rcx, 16(%rax)
	movq	$1, (%rax)
Ltmp1083:
LBB165_6:
	.loc	45 473 2
	jmp	LBB165_12
Ltmp1084:
LBB165_7:
	.loc	41 2092 22
	movabsq	$-9223372036854775807, %rax
	movq	%rax, -384(%rbp)
Ltmp1085:
	.loc	41 2092 45 is_stmt 0
	jmp	LBB165_9
Ltmp1086:
LBB165_8:
	.loc	41 2093 17 is_stmt 1
	movq	-376(%rbp), %rcx
	movq	-368(%rbp), %rax
	movq	%rcx, -104(%rbp)
	movq	%rax, -96(%rbp)
Ltmp1087:
	.loc	41 2093 42 is_stmt 0
	movq	%rcx, -272(%rbp)
	movq	%rax, -264(%rbp)
	.loc	41 2093 23
	movq	-272(%rbp), %rcx
	movq	-264(%rbp), %rax
	movq	%rcx, -392(%rbp)
	movq	%rax, -384(%rbp)
Ltmp1088:
LBB165_9:
	.loc	45 459 5 is_stmt 1
	movabsq	$-9223372036854775807, %rdx
	movl	$1, %eax
	xorl	%ecx, %ecx
	cmpq	%rdx, -384(%rbp)
	cmoveq	%rcx, %rax
	cmpq	$0, %rax
	jne	LBB165_11
Ltmp1089:
	.loc	45 0 5 is_stmt 0
	movq	-496(%rbp), %rdx
Ltmp1090:
	.loc	45 461 25 is_stmt 1
	movl	$1, %eax
	xorl	%ecx, %ecx
	cmpq	$0, 16(%rdx)
	cmoveq	%rcx, %rax
	cmpq	$1, %rax
	je	LBB165_13
	jmp	LBB165_14
Ltmp1091:
LBB165_11:
	.loc	45 0 25 is_stmt 0
	movq	-488(%rbp), %rax
	.loc	45 459 35 is_stmt 1
	movq	-392(%rbp), %rdx
	movq	-384(%rbp), %rcx
	movq	%rdx, -88(%rbp)
	movq	%rcx, -80(%rbp)
Ltmp1092:
	.loc	45 459 35 is_stmt 0
	movq	%rdx, -360(%rbp)
	movq	%rcx, -352(%rbp)
Ltmp1093:
	.loc	41 2107 17 is_stmt 1
	movq	-360(%rbp), %rdx
	movq	-352(%rbp), %rcx
	movq	%rdx, -72(%rbp)
	movq	%rcx, -64(%rbp)
Ltmp1094:
	.loc	41 2107 38 is_stmt 0
	movq	%rdx, -56(%rbp)
	movq	%rcx, -48(%rbp)
	.loc	41 2107 23
	movq	%rdx, 8(%rax)
	movq	%rcx, 16(%rax)
	movq	$1, (%rax)
Ltmp1095:
	.loc	26 1 1 is_stmt 1
	jmp	LBB165_6
Ltmp1096:
LBB165_12:
	.loc	26 0 1 is_stmt 0
	movq	-480(%rbp), %rax
	.loc	45 473 2 is_stmt 1
	addq	$512, %rsp
	popq	%rbp
	retq
Ltmp1097:
LBB165_13:
	.loc	45 0 2 is_stmt 0
	movq	-504(%rbp), %rdi
	movq	-496(%rbp), %rax
Ltmp1098:
	.loc	45 461 31 is_stmt 1
	movq	(%rax), %rsi
	movq	%rsi, -40(%rbp)
	.loc	45 461 36 is_stmt 0
	movq	8(%rax), %rcx
	movq	16(%rax), %rax
	movq	%rcx, -328(%rbp)
	movq	%rax, -320(%rbp)
	leaq	-328(%rbp), %rax
	.loc	45 465 32 is_stmt 1
	movq	%rax, -32(%rbp)
Ltmp1099:
	.loc	34 140 9
	movq	-320(%rbp), %rax
	movq	%rax, -24(%rbp)
Ltmp1100:
	.loc	35 97 9
	movq	%rax, -256(%rbp)
	leaq	-472(%rbp), %rax
Ltmp1101:
	.loc	45 465 54
	movq	%rax, -16(%rbp)
Ltmp1102:
	.loc	34 140 9
	movq	-464(%rbp), %rax
	movq	%rax, -8(%rbp)
Ltmp1103:
	.loc	35 97 9
	movq	%rax, -248(%rbp)
Ltmp1104:
	.loc	45 466 29
	movq	-328(%rbp), %rdx
	movq	-320(%rbp), %rcx
	.loc	45 466 41 is_stmt 0
	movq	-472(%rbp), %r8
	movq	-464(%rbp), %r9
	.loc	45 466 13
	callq	__ZN63_$LT$alloc..alloc..Global$u20$as$u20$core..alloc..Allocator$GT$4grow17h3733957dbdf1c08dE
	movq	%rdx, -336(%rbp)
	movq	%rax, -344(%rbp)
Ltmp1105:
	.loc	45 461 18 is_stmt 1
	jmp	LBB165_15
Ltmp1106:
LBB165_14:
	.loc	45 0 18 is_stmt 0
	movq	-504(%rbp), %rdi
	.loc	45 469 24 is_stmt 1
	movq	-472(%rbp), %rsi
	movq	-464(%rbp), %rdx
	.loc	45 469 9 is_stmt 0
	callq	__ZN63_$LT$alloc..alloc..Global$u20$as$u20$core..alloc..Allocator$GT$8allocate17h8bb8f9659661898cE
	movq	%rdx, -336(%rbp)
	movq	%rax, -344(%rbp)
Ltmp1107:
LBB165_15:
	.loc	45 0 9
	movq	-488(%rbp), %rdi
Ltmp1108:
	.loc	45 472 5 is_stmt 1
	movq	-344(%rbp), %rsi
	movq	-336(%rbp), %rdx
	.loc	45 472 20 is_stmt 0
	leaq	-472(%rbp), %rax
	movq	%rax, -312(%rbp)
	.loc	45 472 5
	movq	-312(%rbp), %rcx
	callq	__ZN4core6result19Result$LT$T$C$E$GT$7map_err17hd50f9b8f79ad82faE
Ltmp1109:
	.loc	45 473 2 is_stmt 1
	jmp	LBB165_12
Ltmp1110:
Lfunc_end165:
	.cfi_endproc

	.globl	__ZN5alloc7raw_vec11finish_grow28_$u7b$$u7b$closure$u7d$$u7d$17h3e656189bf6f3db5E
	.p2align	4, 0x90
__ZN5alloc7raw_vec11finish_grow28_$u7b$$u7b$closure$u7d$$u7d$17h3e656189bf6f3db5E:
Lfunc_begin166:
	.loc	45 457 0
	.cfi_startproc
	pushq	%rbp
	.cfi_def_cfa_offset 16
	.cfi_offset %rbp, -16
	movq	%rsp, %rbp
	.cfi_def_cfa_register %rbp
	subq	$32, %rsp
Ltmp1111:
	.loc	45 457 45 prologue_end
	movq	$0, -24(%rbp)
	.loc	45 457 61 is_stmt 0
	movq	-32(%rbp), %rax
	movq	-24(%rbp), %rdx
	addq	$32, %rsp
	popq	%rbp
	retq
Ltmp1112:
Lfunc_end166:
	.cfi_endproc

	.globl	__ZN5alloc7raw_vec11finish_grow28_$u7b$$u7b$closure$u7d$$u7d$17h4842d0e0c841a3fdE
	.p2align	4, 0x90
__ZN5alloc7raw_vec11finish_grow28_$u7b$$u7b$closure$u7d$$u7d$17h4842d0e0c841a3fdE:
Lfunc_begin167:
	.loc	45 472 0 is_stmt 1
	.cfi_startproc
	pushq	%rbp
	.cfi_def_cfa_offset 16
	.cfi_offset %rbp, -16
	movq	%rsp, %rbp
	.cfi_def_cfa_register %rbp
	subq	$32, %rsp
	movq	%rdi, -32(%rbp)
Ltmp1113:
	.loc	45 472 45 prologue_end
	movq	-32(%rbp), %rax
	movq	(%rax), %rcx
	movq	8(%rax), %rax
	.loc	45 472 24 is_stmt 0
	movq	%rcx, -24(%rbp)
	movq	%rax, -16(%rbp)
	movq	-24(%rbp), %rdi
	movq	-16(%rbp), %rsi
	callq	__ZN50_$LT$T$u20$as$u20$core..convert..Into$LT$U$GT$$GT$4into17h5d93131b49e7ffd1E
	.loc	45 472 84
	addq	$32, %rsp
	popq	%rbp
	retq
Ltmp1114:
Lfunc_end167:
	.cfi_endproc

	.p2align	4, 0x90
__ZN5alloc7raw_vec14handle_reserve17h00c019e589a2f80bE:
Lfunc_begin168:
	.loc	45 487 0 is_stmt 1
	.cfi_startproc
	pushq	%rbp
	.cfi_def_cfa_offset 16
	.cfi_offset %rbp, -16
	movq	%rsp, %rbp
	.cfi_def_cfa_register %rbp
	subq	$48, %rsp
	movq	%rdi, -32(%rbp)
	movq	%rsi, -24(%rbp)
Ltmp1115:
	.loc	45 488 11 prologue_end
	callq	__ZN4core6result19Result$LT$T$C$E$GT$7map_err17h7bebee3f42ee7362E
	movq	%rdx, -40(%rbp)
	movq	%rax, -48(%rbp)
	movabsq	$-9223372036854775807, %rdx
	movl	$1, %eax
	xorl	%ecx, %ecx
	cmpq	%rdx, -40(%rbp)
	cmoveq	%rcx, %rax
	.loc	45 488 5 is_stmt 0
	cmpq	$0, %rax
	jne	LBB168_2
	.loc	45 493 2 is_stmt 1
	addq	$48, %rsp
	popq	%rbp
	retq
LBB168_2:
	.loc	45 488 11
	movl	$1, %eax
	xorl	%ecx, %ecx
	cmpq	$0, -40(%rbp)
	cmoveq	%rcx, %rax
	.loc	45 488 5 is_stmt 0
	cmpq	$0, %rax
	jne	LBB168_4
	.loc	45 489 34 is_stmt 1
	callq	__ZN5alloc7raw_vec17capacity_overflow17h082ee8492f253a0eE
LBB168_4:
	.loc	45 490 26
	movq	-48(%rbp), %rdi
	movq	-40(%rbp), %rsi
	movq	%rdi, -16(%rbp)
	movq	%rsi, -8(%rbp)
Ltmp1116:
	.loc	45 490 43 is_stmt 0
	callq	__ZN5alloc5alloc18handle_alloc_error17hb5f6ff255f23ea4dE
Ltmp1117:
Lfunc_end168:
	.cfi_endproc

	.globl	__ZN5alloc7raw_vec14handle_reserve28_$u7b$$u7b$closure$u7d$$u7d$17he090c6cbe7c4fb19E
	.p2align	4, 0x90
__ZN5alloc7raw_vec14handle_reserve28_$u7b$$u7b$closure$u7d$$u7d$17he090c6cbe7c4fb19E:
Lfunc_begin169:
	.loc	45 488 0 is_stmt 1
	.cfi_startproc
	pushq	%rbp
	.cfi_def_cfa_offset 16
	.cfi_offset %rbp, -16
	movq	%rsp, %rbp
	.cfi_def_cfa_register %rbp
	subq	$72, %rsp
	movq	%rdi, -72(%rbp)
	movq	%rsi, -64(%rbp)
Ltmp1118:
	.loc	45 488 30 prologue_end
	leaq	-72(%rbp), %rax
	movq	%rax, -32(%rbp)
Ltmp1119:
	.loc	14 75 9
	leaq	-72(%rbp), %rax
	movq	%rax, -24(%rbp)
Ltmp1120:
	.loc	14 80 10
	movl	$1, %eax
	xorl	%ecx, %ecx
	cmpq	$0, -64(%rbp)
	cmoveq	%rcx, %rax
	cmpq	$0, %rax
	jne	LBB169_2
	movq	$0, -48(%rbp)
	jmp	LBB169_3
LBB169_2:
	.loc	14 94 9
	leaq	-72(%rbp), %rax
	movq	%rax, -16(%rbp)
Ltmp1121:
	.loc	14 94 9 is_stmt 0
	leaq	-72(%rbp), %rax
	movq	%rax, -8(%rbp)
Ltmp1122:
	.loc	34 36 16 is_stmt 1
	movq	-72(%rbp), %rcx
	movq	-64(%rbp), %rax
Ltmp1123:
	.loc	14 80 10
	movq	%rcx, -56(%rbp)
	movq	%rax, -48(%rbp)
Ltmp1124:
LBB169_3:
	.loc	45 488 38
	movq	-56(%rbp), %rax
	movq	-48(%rbp), %rdx
	addq	$72, %rsp
	popq	%rbp
	retq
Ltmp1125:
Lfunc_end169:
	.cfi_endproc

	.globl	__ZN5alloc7raw_vec19RawVec$LT$T$C$A$GT$11allocate_in17h903cfa9724cf5c54E
	.p2align	4, 0x90
__ZN5alloc7raw_vec19RawVec$LT$T$C$A$GT$11allocate_in17h903cfa9724cf5c54E:
Lfunc_begin170:
	.loc	45 169 0
	.cfi_startproc
	.cfi_personality 155, _rust_eh_personality
	.cfi_lsda 16, Lexception25
	pushq	%rbp
	.cfi_def_cfa_offset 16
	.cfi_offset %rbp, -16
	movq	%rsp, %rbp
	.cfi_def_cfa_register %rbp
	subq	$384, %rsp
	movq	%rdi, -296(%rbp)
	movb	%sil, %al
	andb	$1, %al
	movb	%al, -281(%rbp)
	movq	%rdi, -168(%rbp)
Ltmp1141:
	.loc	45 171 12 prologue_end
	movb	$1, -177(%rbp)
	xorl	%eax, %eax
	testb	$1, %al
	jne	LBB170_2
	.loc	45 0 12 is_stmt 0
	movq	-296(%rbp), %rax
	.loc	45 171 25
	cmpq	$0, %rax
	sete	%al
	.loc	45 171 12
	andb	$1, %al
	movb	%al, -249(%rbp)
	jmp	LBB170_3
LBB170_2:
	movb	$1, -249(%rbp)
LBB170_3:
	testb	$1, -249(%rbp)
	jne	LBB170_5
	.loc	45 0 12
	movq	-296(%rbp), %rax
	.loc	45 176 51 is_stmt 1
	movq	%rax, -144(%rbp)
Ltmp1142:
	.loc	20 459 5
	movq	$1, -136(%rbp)
Ltmp1143:
	.loc	35 89 18
	movq	$1, -128(%rbp)
	movq	-128(%rbp), %rax
	movq	%rax, -304(%rbp)
	jmp	LBB170_10
Ltmp1144:
LBB170_5:
	.loc	45 172 26
	movb	$0, -177(%rbp)
Ltmp1138:
	.loc	45 172 13 is_stmt 0
	callq	__ZN5alloc7raw_vec19RawVec$LT$T$C$A$GT$6new_in17hf2594131f8f12962E
Ltmp1139:
	movq	%rdx, -320(%rbp)
	movq	%rax, -312(%rbp)
	jmp	LBB170_8
LBB170_6:
	.loc	45 202 5 is_stmt 1
	testb	$1, -177(%rbp)
	jne	LBB170_25
	jmp	LBB170_24
LBB170_7:
Ltmp1140:
	.loc	45 0 5 is_stmt 0
	movq	%rax, %rcx
	movl	%edx, %eax
	movq	%rcx, -160(%rbp)
	movl	%eax, -152(%rbp)
	jmp	LBB170_6
LBB170_8:
	movq	-320(%rbp), %rax
	movq	-312(%rbp), %rcx
	.loc	45 172 13 is_stmt 1
	movq	%rcx, -272(%rbp)
	movq	%rax, -264(%rbp)
LBB170_9:
	.loc	45 202 6
	movq	-272(%rbp), %rax
	movq	-264(%rbp), %rdx
	addq	$384, %rsp
	popq	%rbp
	retq
LBB170_10:
Ltmp1126:
	.loc	45 0 6 is_stmt 0
	movq	-296(%rbp), %rdx
	movq	-304(%rbp), %rsi
	movl	$1, %edi
Ltmp1145:
	.loc	34 438 16 is_stmt 1
	callq	__ZN4core5alloc6layout6Layout5array5inner17hab0526e4522d921cE
Ltmp1127:
	movq	%rdx, -336(%rbp)
	movq	%rax, -328(%rbp)
	jmp	LBB170_11
LBB170_11:
	.loc	34 0 16 is_stmt 0
	movq	-336(%rbp), %rax
	movq	-328(%rbp), %rcx
	.loc	34 438 16
	movq	%rcx, -248(%rbp)
	movq	%rax, -240(%rbp)
Ltmp1146:
	.loc	45 176 32 is_stmt 1
	xorl	%eax, %eax
	movl	$1, %ecx
	cmpq	$0, -240(%rbp)
	cmoveq	%rcx, %rax
	.loc	45 176 26 is_stmt 0
	cmpq	$0, %rax
	jne	LBB170_13
	.loc	45 177 20 is_stmt 1
	movq	-248(%rbp), %rcx
	movq	%rcx, -352(%rbp)
	movq	-240(%rbp), %rax
	movq	%rax, -344(%rbp)
	movq	%rcx, -120(%rbp)
	movq	%rax, -112(%rbp)
Ltmp1147:
	.loc	45 177 31 is_stmt 0
	movq	%rcx, -104(%rbp)
	movq	%rax, -96(%rbp)
Ltmp1148:
	.loc	45 509 9 is_stmt 1
	movabsq	$-9223372036854775807, %rax
	movq	%rax, -224(%rbp)
Ltmp1149:
	.loc	45 180 19
	movabsq	$-9223372036854775807, %rdx
	movl	$1, %eax
	xorl	%ecx, %ecx
	cmpq	%rdx, -224(%rbp)
	cmoveq	%rcx, %rax
	.loc	45 180 13 is_stmt 0
	cmpq	$0, %rax
	je	LBB170_15
	jmp	LBB170_16
Ltmp1150:
LBB170_13:
Ltmp1128:
	.loc	45 178 27 is_stmt 1
	callq	__ZN5alloc7raw_vec17capacity_overflow17h082ee8492f253a0eE
Ltmp1129:
	jmp	LBB170_14
LBB170_14:
	.loc	45 0 27 is_stmt 0
	ud2
LBB170_15:
Ltmp1151:
	.loc	45 184 32 is_stmt 1
	movb	-281(%rbp), %al
	andb	$1, %al
	movzbl	%al, %eax
	.loc	45 184 26 is_stmt 0
	cmpq	$0, %rax
	je	LBB170_17
	jmp	LBB170_18
LBB170_16:
Ltmp1130:
	.loc	45 182 27 is_stmt 1
	callq	__ZN5alloc7raw_vec17capacity_overflow17h082ee8492f253a0eE
Ltmp1131:
	jmp	LBB170_14
LBB170_17:
Ltmp1134:
	.loc	45 0 27 is_stmt 0
	movq	-344(%rbp), %rdx
	movq	-352(%rbp), %rsi
	leaq	-280(%rbp), %rdi
	.loc	45 185 45 is_stmt 1
	callq	__ZN63_$LT$alloc..alloc..Global$u20$as$u20$core..alloc..Allocator$GT$8allocate17h8bb8f9659661898cE
Ltmp1135:
	movq	%rdx, -368(%rbp)
	movq	%rax, -360(%rbp)
	jmp	LBB170_21
LBB170_18:
Ltmp1132:
	.loc	45 0 45 is_stmt 0
	movq	-344(%rbp), %rdx
	movq	-352(%rbp), %rsi
	leaq	-280(%rbp), %rdi
	.loc	45 186 38 is_stmt 1
	callq	__ZN63_$LT$alloc..alloc..Global$u20$as$u20$core..alloc..Allocator$GT$15allocate_zeroed17h9d0d5276f6146ea5E
Ltmp1133:
	movq	%rdx, -384(%rbp)
	movq	%rax, -376(%rbp)
	jmp	LBB170_19
LBB170_19:
	.loc	45 0 38 is_stmt 0
	movq	-384(%rbp), %rax
	movq	-376(%rbp), %rcx
	.loc	45 186 38
	movq	%rcx, -216(%rbp)
	movq	%rax, -208(%rbp)
LBB170_20:
Ltmp1152:
	.loc	45 188 29 is_stmt 1
	movq	-216(%rbp), %rdx
	xorl	%eax, %eax
	movl	$1, %ecx
	cmpq	$0, %rdx
	cmoveq	%rcx, %rax
	.loc	45 188 23 is_stmt 0
	cmpq	$0, %rax
	je	LBB170_22
	jmp	LBB170_23
Ltmp1153:
LBB170_21:
	.loc	45 0 23
	movq	-368(%rbp), %rax
	movq	-360(%rbp), %rcx
	.loc	45 185 45 is_stmt 1
	movq	%rcx, -216(%rbp)
	movq	%rax, -208(%rbp)
	.loc	45 185 66 is_stmt 0
	jmp	LBB170_20
LBB170_22:
	.loc	45 0 66
	movq	-296(%rbp), %rax
Ltmp1154:
	.loc	45 189 20 is_stmt 1
	movq	-216(%rbp), %rcx
	movq	-208(%rbp), %rdx
	movq	%rcx, -88(%rbp)
	movq	%rdx, -80(%rbp)
Ltmp1155:
	.loc	45 189 28 is_stmt 0
	movq	%rcx, -72(%rbp)
	movq	%rdx, -64(%rbp)
Ltmp1156:
	.loc	45 197 53 is_stmt 1
	movq	%rcx, -56(%rbp)
	movq	%rdx, -48(%rbp)
Ltmp1157:
	.loc	12 450 41
	movq	%rcx, -40(%rbp)
	movq	%rdx, -32(%rbp)
	movq	%rcx, -24(%rbp)
Ltmp1158:
	.loc	12 201 13
	movq	%rcx, -192(%rbp)
Ltmp1159:
	.loc	12 326 9
	movq	-192(%rbp), %rcx
	movq	%rcx, -16(%rbp)
Ltmp1160:
	.loc	13 87 59
	movq	%rcx, -8(%rbp)
Ltmp1161:
	.loc	12 201 13
	movq	%rcx, -176(%rbp)
Ltmp1162:
	.loc	13 87 18
	movq	-176(%rbp), %rcx
	movq	%rcx, -200(%rbp)
Ltmp1163:
	.loc	45 196 13
	movq	-200(%rbp), %rcx
	movq	%rcx, -264(%rbp)
	movq	%rax, -272(%rbp)
Ltmp1164:
	.loc	45 171 9
	jmp	LBB170_9
LBB170_23:
Ltmp1136:
	.loc	45 0 9 is_stmt 0
	movq	-344(%rbp), %rsi
	movq	-352(%rbp), %rdi
Ltmp1165:
	.loc	45 190 27 is_stmt 1
	callq	__ZN5alloc5alloc18handle_alloc_error17hb5f6ff255f23ea4dE
Ltmp1137:
	jmp	LBB170_14
Ltmp1166:
LBB170_24:
	.loc	45 169 5
	movq	-160(%rbp), %rdi
	callq	__Unwind_Resume
LBB170_25:
	.loc	45 202 5
	jmp	LBB170_24
Ltmp1167:
Lfunc_end170:
	.cfi_endproc
	.section	__TEXT,__gcc_except_tab
	.p2align	2
GCC_except_table170:
Lexception25:
	.byte	255
	.byte	255
	.byte	1
	.uleb128 Lcst_end25-Lcst_begin25
Lcst_begin25:
	.uleb128 Ltmp1138-Lfunc_begin170
	.uleb128 Ltmp1137-Ltmp1138
	.uleb128 Ltmp1140-Lfunc_begin170
	.byte	0
	.uleb128 Ltmp1137-Lfunc_begin170
	.uleb128 Lfunc_end170-Ltmp1137
	.byte	0
	.byte	0
Lcst_end25:
	.p2align	2

	.section	__TEXT,__text,regular,pure_instructions
	.globl	__ZN5alloc7raw_vec19RawVec$LT$T$C$A$GT$13needs_to_grow17h1bf25a5ed7ac1a35E
	.p2align	4, 0x90
__ZN5alloc7raw_vec19RawVec$LT$T$C$A$GT$13needs_to_grow17h1bf25a5ed7ac1a35E:
Lfunc_begin171:
	.loc	45 360 0
	.cfi_startproc
	pushq	%rbp
	.cfi_def_cfa_offset 16
	.cfi_offset %rbp, -16
	movq	%rsp, %rbp
	.cfi_def_cfa_register %rbp
	subq	$72, %rsp
	movq	%rdi, -72(%rbp)
	movq	%rsi, -64(%rbp)
	movq	%rdx, -56(%rbp)
	movq	%rdi, -40(%rbp)
	movq	%rsi, -32(%rbp)
	movq	%rdx, -24(%rbp)
Ltmp1168:
	.loc	45 361 22 prologue_end
	movq	%rdi, -16(%rbp)
Ltmp1169:
	.loc	45 232 12
	xorl	%eax, %eax
	testb	$1, %al
	jne	LBB171_2
	.loc	45 0 12 is_stmt 0
	movq	-72(%rbp), %rax
	.loc	45 232 44
	movq	(%rax), %rax
	movq	%rax, -48(%rbp)
	.loc	45 232 9
	jmp	LBB171_3
LBB171_2:
	.loc	45 232 24
	movq	$-1, -48(%rbp)
Ltmp1170:
LBB171_3:
	.loc	45 0 24
	movq	-56(%rbp), %rax
	movq	-64(%rbp), %rdx
	.loc	45 361 51 is_stmt 1
	movq	%rdx, -8(%rbp)
Ltmp1171:
	.loc	21 1203 38
	movq	-48(%rbp), %rcx
	.loc	21 1203 13 is_stmt 0
	subq	%rdx, %rcx
Ltmp1172:
	.loc	45 361 9 is_stmt 1
	cmpq	%rcx, %rax
	seta	%al
	.loc	45 362 6
	andb	$1, %al
	movzbl	%al, %eax
	addq	$72, %rsp
	popq	%rbp
	retq
Ltmp1173:
Lfunc_end171:
	.cfi_endproc

	.globl	__ZN5alloc7raw_vec19RawVec$LT$T$C$A$GT$14current_memory17he0c55e387a212d78E
	.p2align	4, 0x90
__ZN5alloc7raw_vec19RawVec$LT$T$C$A$GT$14current_memory17he0c55e387a212d78E:
Lfunc_begin172:
	.loc	45 240 0
	.cfi_startproc
	pushq	%rbp
	.cfi_def_cfa_offset 16
	.cfi_offset %rbp, -16
	movq	%rsp, %rbp
	.cfi_def_cfa_register %rbp
	subq	$176, %rsp
	movq	%rsi, -152(%rbp)
	movq	%rdi, -144(%rbp)
	movq	%rdi, -136(%rbp)
	movq	%rsi, -80(%rbp)
Ltmp1174:
	.loc	45 241 12 prologue_end
	xorl	%eax, %eax
	testb	$1, %al
	jne	LBB172_2
	.loc	45 0 12 is_stmt 0
	movq	-152(%rbp), %rax
	.loc	45 241 25
	cmpq	$0, (%rax)
	sete	%al
	.loc	45 241 12
	andb	$1, %al
	movb	%al, -121(%rbp)
	jmp	LBB172_3
LBB172_2:
	movb	$1, -121(%rbp)
LBB172_3:
	testb	$1, -121(%rbp)
	jne	LBB172_5
	.loc	45 0 12
	movq	-152(%rbp), %rax
	.loc	45 247 49 is_stmt 1
	movq	(%rax), %rdx
	movq	%rdx, -72(%rbp)
Ltmp1175:
	.loc	20 459 5
	movq	$1, -64(%rbp)
Ltmp1176:
	.loc	35 89 18
	movq	$1, -56(%rbp)
	movq	-56(%rbp), %rsi
Ltmp1177:
	.loc	34 438 16
	movl	$1, %edi
	callq	__ZN4core5alloc6layout6Layout5array5inner17hab0526e4522d921cE
	movq	%rax, %rdi
	movq	%rdx, %rsi
Ltmp1178:
	.loc	45 247 30
	leaq	l___unnamed_26(%rip), %rdx
	callq	__ZN4core6result19Result$LT$T$C$E$GT$16unwrap_unchecked17h3612fee7c4415c46E
	movq	%rax, %rcx
	movq	-152(%rbp), %rax
	movq	%rcx, -168(%rbp)
	movq	%rdx, -160(%rbp)
	movq	%rcx, -48(%rbp)
	movq	%rdx, -40(%rbp)
Ltmp1179:
	.loc	45 248 23
	movq	8(%rax), %rax
	movq	%rax, -32(%rbp)
Ltmp1180:
	.loc	13 137 22
	movq	%rax, -24(%rbp)
Ltmp1181:
	.loc	12 450 41
	movq	%rax, -16(%rbp)
	movq	%rax, -8(%rbp)
Ltmp1182:
	.loc	12 201 13
	movq	%rax, -88(%rbp)
Ltmp1183:
	.loc	13 191 18
	movq	-88(%rbp), %rax
	.loc	13 191 9 is_stmt 0
	movq	%rax, -96(%rbp)
Ltmp1184:
	.loc	45 248 23 is_stmt 1
	movq	-96(%rbp), %rdi
	callq	__ZN50_$LT$T$u20$as$u20$core..convert..Into$LT$U$GT$$GT$4into17ha8d7a56469e7b602E
	movq	-168(%rbp), %rcx
	movq	-160(%rbp), %rdx
	movq	%rax, %rsi
	movq	-144(%rbp), %rax
	.loc	45 248 22 is_stmt 0
	movq	%rsi, -120(%rbp)
	movq	%rcx, -112(%rbp)
	movq	%rdx, -104(%rbp)
	.loc	45 248 17
	movq	-120(%rbp), %rcx
	movq	%rcx, (%rax)
	movq	-112(%rbp), %rcx
	movq	%rcx, 8(%rax)
	movq	-104(%rbp), %rcx
	movq	%rcx, 16(%rax)
Ltmp1185:
	.loc	45 241 9 is_stmt 1
	jmp	LBB172_6
LBB172_5:
	.loc	45 0 9 is_stmt 0
	movq	-144(%rbp), %rax
	.loc	45 242 13 is_stmt 1
	movq	$0, 16(%rax)
LBB172_6:
	.loc	45 0 13 is_stmt 0
	movq	-136(%rbp), %rax
	.loc	45 251 6 is_stmt 1
	addq	$176, %rsp
	popq	%rbp
	retq
Ltmp1186:
Lfunc_end172:
	.cfi_endproc

	.globl	__ZN5alloc7raw_vec19RawVec$LT$T$C$A$GT$14grow_amortized17hcaa2d3ef417d4ad4E
	.p2align	4, 0x90
__ZN5alloc7raw_vec19RawVec$LT$T$C$A$GT$14grow_amortized17hcaa2d3ef417d4ad4E:
Lfunc_begin173:
	.loc	45 379 0
	.cfi_startproc
	pushq	%rbp
	.cfi_def_cfa_offset 16
	.cfi_offset %rbp, -16
	movq	%rsp, %rbp
	.cfi_def_cfa_register %rbp
	subq	$656, %rsp
	movq	%rdi, -624(%rbp)
	movq	%rsi, -616(%rbp)
	movq	%rdx, -608(%rbp)
	movq	%rdi, -352(%rbp)
	movq	%rsi, -344(%rbp)
	movq	%rdx, -336(%rbp)
Ltmp1187:
	.loc	45 383 12 prologue_end
	xorl	%eax, %eax
	testb	$1, %al
	jne	LBB173_2
	.loc	45 0 12 is_stmt 0
	movq	-608(%rbp), %rsi
	movq	-616(%rbp), %rdi
	.loc	45 390 28 is_stmt 1
	callq	__ZN4core3num23_$LT$impl$u20$usize$GT$11checked_add17hae57d7c6f87a05d4E
	movq	%rdx, -528(%rbp)
	movq	%rax, -536(%rbp)
	.loc	45 390 62 is_stmt 0
	movq	$0, -512(%rbp)
Ltmp1188:
	.loc	25 1096 9 is_stmt 1
	cmpq	$0, -536(%rbp)
	je	LBB173_4
	jmp	LBB173_5
Ltmp1189:
LBB173_2:
	.loc	45 386 24
	movq	$0, -576(%rbp)
	movq	-584(%rbp), %rdi
	movq	-576(%rbp), %rsi
	callq	__ZN50_$LT$T$u20$as$u20$core..convert..Into$LT$U$GT$$GT$4into17h5d93131b49e7ffd1E
	.loc	45 386 20 is_stmt 0
	movq	%rax, -600(%rbp)
	movq	%rdx, -592(%rbp)
LBB173_3:
	.loc	45 403 6 is_stmt 1
	movq	-600(%rbp), %rax
	movq	-592(%rbp), %rdx
	addq	$656, %rsp
	popq	%rbp
	retq
LBB173_4:
Ltmp1190:
	.loc	25 1098 25
	movq	-520(%rbp), %rcx
	movq	-512(%rbp), %rax
	.loc	25 1098 21 is_stmt 0
	movq	%rcx, -552(%rbp)
	movq	%rax, -544(%rbp)
	.loc	25 1098 28
	jmp	LBB173_6
LBB173_5:
	.loc	25 1097 18 is_stmt 1
	movq	-528(%rbp), %rax
	movq	%rax, -328(%rbp)
Ltmp1191:
	.loc	25 1097 24 is_stmt 0
	movq	%rax, -552(%rbp)
	movabsq	$-9223372036854775807, %rax
	movq	%rax, -544(%rbp)
Ltmp1192:
LBB173_6:
	.loc	41 2091 15 is_stmt 1
	movabsq	$-9223372036854775807, %rdx
	movl	$1, %eax
	xorl	%ecx, %ecx
	cmpq	%rdx, -544(%rbp)
	cmoveq	%rcx, %rax
	.loc	41 2091 9 is_stmt 0
	cmpq	$0, %rax
	jne	LBB173_8
	.loc	41 2092 16 is_stmt 1
	movq	-552(%rbp), %rax
	movq	%rax, -304(%rbp)
Ltmp1193:
	.loc	41 2092 22 is_stmt 0
	movq	%rax, -568(%rbp)
	movabsq	$-9223372036854775807, %rax
	movq	%rax, -560(%rbp)
Ltmp1194:
	.loc	41 2092 45
	jmp	LBB173_9
LBB173_8:
	.loc	41 2093 17 is_stmt 1
	movq	-552(%rbp), %rcx
	movq	-544(%rbp), %rax
	movq	%rcx, -320(%rbp)
	movq	%rax, -312(%rbp)
Ltmp1195:
	.loc	41 2093 42 is_stmt 0
	movq	%rcx, -400(%rbp)
	movq	%rax, -392(%rbp)
	.loc	41 2093 23
	movq	-400(%rbp), %rcx
	movq	-392(%rbp), %rax
	movq	%rcx, -568(%rbp)
	movq	%rax, -560(%rbp)
Ltmp1196:
LBB173_9:
	.loc	45 390 28 is_stmt 1
	movabsq	$-9223372036854775807, %rdx
	movl	$1, %eax
	xorl	%ecx, %ecx
	cmpq	%rdx, -560(%rbp)
	cmoveq	%rcx, %rax
	cmpq	$0, %rax
	jne	LBB173_11
	.loc	45 0 28 is_stmt 0
	movq	-624(%rbp), %rax
	.loc	45 390 28
	movq	-568(%rbp), %rsi
	movq	%rsi, -248(%rbp)
Ltmp1197:
	.loc	45 390 28
	movq	%rsi, -240(%rbp)
Ltmp1198:
	.loc	45 394 28 is_stmt 1
	movq	(%rax), %rdi
	shlq	$1, %rdi
	movq	%rdi, -232(%rbp)
	.loc	45 394 42 is_stmt 0
	movq	%rsi, -224(%rbp)
Ltmp1199:
	.loc	11 1276 5 is_stmt 1
	movq	%rdi, -216(%rbp)
	.loc	11 1276 12 is_stmt 0
	movq	%rsi, -208(%rbp)
Ltmp1200:
	.loc	11 803 13 is_stmt 1
	callq	__ZN4core3cmp6max_by17h25d3f804ab117346E
	movq	%rax, %rsi
	movq	%rsi, -200(%rbp)
Ltmp1201:
	.loc	45 395 52
	movq	%rsi, -192(%rbp)
	.loc	45 395 19 is_stmt 0
	movq	$8, -184(%rbp)
Ltmp1202:
	.loc	11 1276 5 is_stmt 1
	movq	$8, -176(%rbp)
	.loc	11 1276 12 is_stmt 0
	movq	%rsi, -168(%rbp)
Ltmp1203:
	.loc	11 803 13 is_stmt 1
	movl	$8, %edi
	callq	__ZN4core3cmp6max_by17h25d3f804ab117346E
	movq	%rax, %rdx
	movq	%rdx, -648(%rbp)
	movq	%rdx, -160(%rbp)
Ltmp1204:
	.loc	45 397 45
	movq	%rdx, -152(%rbp)
Ltmp1205:
	.loc	20 459 5
	movq	$1, -144(%rbp)
Ltmp1206:
	.loc	35 89 18
	movq	$1, -136(%rbp)
	movq	-136(%rbp), %rsi
Ltmp1207:
	.loc	34 438 16
	movl	$1, %edi
	callq	__ZN4core5alloc6layout6Layout5array5inner17hab0526e4522d921cE
	movq	-624(%rbp), %rsi
	movq	%rax, -640(%rbp)
	movq	%rdx, -632(%rbp)
	movq	%rax, -128(%rbp)
	movq	%rdx, -120(%rbp)
Ltmp1208:
	.loc	45 400 43
	leaq	-440(%rbp), %rdi
	callq	__ZN5alloc7raw_vec19RawVec$LT$T$C$A$GT$14current_memory17he0c55e387a212d78E
	movq	-640(%rbp), %rsi
	movq	-632(%rbp), %rdx
	movq	-624(%rbp), %r8
	.loc	45 400 19 is_stmt 0
	leaq	-464(%rbp), %rdi
	leaq	-440(%rbp), %rcx
	callq	__ZN5alloc7raw_vec11finish_grow17h20d0bc50feeea590E
Ltmp1209:
	.loc	41 2091 9 is_stmt 1
	cmpq	$0, -464(%rbp)
	je	LBB173_13
	jmp	LBB173_14
Ltmp1210:
LBB173_11:
	.loc	45 390 79
	movq	-568(%rbp), %rcx
	movq	-560(%rbp), %rax
	movq	%rcx, -296(%rbp)
	movq	%rax, -288(%rbp)
Ltmp1211:
	.loc	45 390 79 is_stmt 0
	movq	%rcx, -504(%rbp)
	movq	%rax, -496(%rbp)
Ltmp1212:
	.loc	41 2107 17 is_stmt 1
	movq	-504(%rbp), %rcx
	movq	-496(%rbp), %rax
	movq	%rcx, -280(%rbp)
	movq	%rax, -272(%rbp)
Ltmp1213:
	.loc	41 2107 38 is_stmt 0
	movq	%rcx, -264(%rbp)
	movq	%rax, -256(%rbp)
Ltmp1214:
	.loc	14 117 9 is_stmt 1
	movq	%rcx, -384(%rbp)
	movq	%rax, -376(%rbp)
Ltmp1215:
	.loc	41 2107 23
	movq	-384(%rbp), %rcx
	movq	-376(%rbp), %rax
	movq	%rcx, -600(%rbp)
	movq	%rax, -592(%rbp)
Ltmp1216:
LBB173_12:
	.loc	26 1 1
	jmp	LBB173_3
LBB173_13:
Ltmp1217:
	.loc	41 2092 16
	movq	-456(%rbp), %rcx
	movq	-448(%rbp), %rax
	movq	%rcx, -96(%rbp)
	movq	%rax, -88(%rbp)
Ltmp1218:
	.loc	41 2092 22 is_stmt 0
	movq	%rcx, -480(%rbp)
	movq	%rax, -472(%rbp)
	movq	$0, -488(%rbp)
Ltmp1219:
	.loc	41 2092 45
	jmp	LBB173_15
LBB173_14:
	.loc	41 2093 17 is_stmt 1
	movq	-456(%rbp), %rcx
	movq	-448(%rbp), %rax
	movq	%rcx, -112(%rbp)
	movq	%rax, -104(%rbp)
Ltmp1220:
	.loc	41 2093 42 is_stmt 0
	movq	%rcx, -368(%rbp)
	movq	%rax, -360(%rbp)
	.loc	41 2093 23
	movq	-368(%rbp), %rcx
	movq	-360(%rbp), %rax
	movq	%rcx, -480(%rbp)
	movq	%rax, -472(%rbp)
	movq	$1, -488(%rbp)
Ltmp1221:
LBB173_15:
	.loc	45 400 19 is_stmt 1
	cmpq	$0, -488(%rbp)
	jne	LBB173_17
	.loc	45 0 19 is_stmt 0
	movq	-648(%rbp), %rcx
	movq	-624(%rbp), %rdi
	.loc	45 400 19
	movq	-480(%rbp), %rsi
	movq	-472(%rbp), %rdx
	movq	%rsi, -32(%rbp)
	movq	%rdx, -24(%rbp)
Ltmp1222:
	.loc	45 400 19
	movq	%rsi, -16(%rbp)
	movq	%rdx, -8(%rbp)
Ltmp1223:
	.loc	45 401 9 is_stmt 1
	callq	__ZN5alloc7raw_vec19RawVec$LT$T$C$A$GT$15set_ptr_and_cap17h19205358da136e2bE
	.loc	45 402 9
	movabsq	$-9223372036854775807, %rax
	movq	%rax, -592(%rbp)
Ltmp1224:
	.loc	45 403 6
	jmp	LBB173_3
LBB173_17:
Ltmp1225:
	.loc	45 400 82
	movq	-480(%rbp), %rcx
	movq	-472(%rbp), %rax
	movq	%rcx, -80(%rbp)
	movq	%rax, -72(%rbp)
Ltmp1226:
	.loc	45 400 82 is_stmt 0
	movq	%rcx, -416(%rbp)
	movq	%rax, -408(%rbp)
Ltmp1227:
	.loc	41 2107 17 is_stmt 1
	movq	-416(%rbp), %rcx
	movq	-408(%rbp), %rax
	movq	%rcx, -64(%rbp)
	movq	%rax, -56(%rbp)
Ltmp1228:
	.loc	41 2107 38 is_stmt 0
	movq	%rcx, -48(%rbp)
	movq	%rax, -40(%rbp)
	.loc	41 2107 23
	movq	%rcx, -600(%rbp)
	movq	%rax, -592(%rbp)
Ltmp1229:
	.loc	26 1 1 is_stmt 1
	jmp	LBB173_12
Ltmp1230:
Lfunc_end173:
	.cfi_endproc

	.globl	__ZN5alloc7raw_vec19RawVec$LT$T$C$A$GT$15set_ptr_and_cap17h19205358da136e2bE
	.p2align	4, 0x90
__ZN5alloc7raw_vec19RawVec$LT$T$C$A$GT$15set_ptr_and_cap17h19205358da136e2bE:
Lfunc_begin174:
	.loc	45 364 0
	.cfi_startproc
	pushq	%rbp
	.cfi_def_cfa_offset 16
	.cfi_offset %rbp, -16
	movq	%rsp, %rbp
	.cfi_def_cfa_register %rbp
	subq	$112, %rsp
	movq	%rdi, -88(%rbp)
	movq	%rsi, -80(%rbp)
	movq	%rdx, -72(%rbp)
	movq	%rcx, -64(%rbp)
Ltmp1231:
	.loc	45 368 51 prologue_end
	movq	%rsi, -56(%rbp)
	movq	%rdx, -48(%rbp)
Ltmp1232:
	.loc	12 450 41
	movq	%rsi, -40(%rbp)
	movq	%rdx, -32(%rbp)
	movq	%rsi, -24(%rbp)
Ltmp1233:
	.loc	12 201 13
	movq	%rsi, -104(%rbp)
Ltmp1234:
	.loc	12 326 9
	movq	-104(%rbp), %rax
	movq	%rax, -16(%rbp)
Ltmp1235:
	.loc	13 87 59
	movq	%rax, -8(%rbp)
Ltmp1236:
	.loc	12 201 13
	movq	%rax, -96(%rbp)
Ltmp1237:
	.loc	13 87 18
	movq	-96(%rbp), %rax
	movq	%rax, -112(%rbp)
Ltmp1238:
	.loc	45 368 9
	movq	-112(%rbp), %rax
	movq	%rax, 8(%rdi)
	.loc	45 369 9
	movq	%rcx, (%rdi)
	.loc	45 370 6
	addq	$112, %rsp
	popq	%rbp
	retq
Ltmp1239:
Lfunc_end174:
	.cfi_endproc

	.globl	__ZN5alloc7raw_vec19RawVec$LT$T$C$A$GT$6new_in17hf2594131f8f12962E
	.p2align	4, 0x90
__ZN5alloc7raw_vec19RawVec$LT$T$C$A$GT$6new_in17hf2594131f8f12962E:
Lfunc_begin175:
	.loc	45 121 0
	.cfi_startproc
	pushq	%rbp
	.cfi_def_cfa_offset 16
	.cfi_offset %rbp, -16
	movq	%rsp, %rbp
	.cfi_def_cfa_register %rbp
	subq	$96, %rsp
Ltmp1240:
	.loc	20 459 5 prologue_end
	movq	$1, -48(%rbp)
Ltmp1241:
	.loc	7 599 14
	movq	$1, -40(%rbp)
	movq	-40(%rbp), %rax
	movq	%rax, -96(%rbp)
	movq	%rax, -32(%rbp)
Ltmp1242:
	.loc	7 0 14 is_stmt 0
	movq	-96(%rbp), %rax
Ltmp1243:
	.loc	12 97 36 is_stmt 1
	movq	%rax, -8(%rbp)
Ltmp1244:
	.loc	12 201 13
	movq	%rax, -64(%rbp)
Ltmp1245:
	.loc	13 191 18
	movq	-64(%rbp), %rax
	.loc	13 191 9 is_stmt 0
	movq	%rax, -72(%rbp)
Ltmp1246:
	.loc	45 123 9 is_stmt 1
	movq	-72(%rbp), %rax
	movq	%rax, -80(%rbp)
	movq	$0, -88(%rbp)
	.loc	45 124 6
	movq	-88(%rbp), %rax
	movq	-80(%rbp), %rdx
	addq	$96, %rsp
	popq	%rbp
	retq
Ltmp1247:
Lfunc_end175:
	.cfi_endproc

	.globl	__ZN5alloc7raw_vec19RawVec$LT$T$C$A$GT$7reserve17h0d8232419a13a5fcE
	.p2align	4, 0x90
__ZN5alloc7raw_vec19RawVec$LT$T$C$A$GT$7reserve17h0d8232419a13a5fcE:
Lfunc_begin176:
	.loc	45 274 0
	.cfi_startproc
	pushq	%rbp
	.cfi_def_cfa_offset 16
	.cfi_offset %rbp, -16
	movq	%rsp, %rbp
	.cfi_def_cfa_register %rbp
	subq	$48, %rsp
	movq	%rdi, -48(%rbp)
	movq	%rsi, -40(%rbp)
	movq	%rdx, -32(%rbp)
	movq	%rdi, -24(%rbp)
	movq	%rsi, -16(%rbp)
	movq	%rdx, -8(%rbp)
Ltmp1248:
	.loc	45 288 12 prologue_end
	callq	__ZN5alloc7raw_vec19RawVec$LT$T$C$A$GT$13needs_to_grow17h1bf25a5ed7ac1a35E
	testb	$1, %al
	jne	LBB176_2
LBB176_1:
	.loc	45 291 6
	addq	$48, %rsp
	popq	%rbp
	retq
LBB176_2:
	.loc	45 0 6 is_stmt 0
	movq	-32(%rbp), %rdx
	movq	-40(%rbp), %rsi
	movq	-48(%rbp), %rdi
	.loc	45 289 13 is_stmt 1
	callq	__ZN5alloc7raw_vec19RawVec$LT$T$C$A$GT$7reserve21do_reserve_and_handle17h8109d8a675ab7e0eE
	.loc	45 288 9
	jmp	LBB176_1
Ltmp1249:
Lfunc_end176:
	.cfi_endproc

	.globl	__ZN5alloc7raw_vec19RawVec$LT$T$C$A$GT$7reserve21do_reserve_and_handle17h8109d8a675ab7e0eE
	.p2align	4, 0x90
__ZN5alloc7raw_vec19RawVec$LT$T$C$A$GT$7reserve21do_reserve_and_handle17h8109d8a675ab7e0eE:
Lfunc_begin177:
	.loc	45 280 0
	.cfi_startproc
	pushq	%rbp
	.cfi_def_cfa_offset 16
	.cfi_offset %rbp, -16
	movq	%rsp, %rbp
	.cfi_def_cfa_register %rbp
	subq	$32, %rsp
	movq	%rdi, -24(%rbp)
	movq	%rsi, -16(%rbp)
	movq	%rdx, -8(%rbp)
Ltmp1250:
	.loc	45 285 28 prologue_end
	callq	__ZN5alloc7raw_vec19RawVec$LT$T$C$A$GT$14grow_amortized17hcaa2d3ef417d4ad4E
	movq	%rax, %rdi
	movq	%rdx, %rsi
	.loc	45 285 13 is_stmt 0
	callq	__ZN5alloc7raw_vec14handle_reserve17h00c019e589a2f80bE
	.loc	45 286 10 is_stmt 1
	addq	$32, %rsp
	popq	%rbp
	retq
Ltmp1251:
Lfunc_end177:
	.cfi_endproc

	.p2align	4, 0x90
__ZN60_$LT$alloc..string..String$u20$as$u20$core..fmt..Display$GT$3fmt17hde71edc8b2a331cbE:
Lfunc_begin178:
	.loc	48 2274 0
	.cfi_startproc
	pushq	%rbp
	.cfi_def_cfa_offset 16
	.cfi_offset %rbp, -16
	movq	%rsp, %rbp
	.cfi_def_cfa_register %rbp
	subq	$64, %rsp
	movq	%rsi, -64(%rbp)
	movq	%rdi, -56(%rbp)
	movq	%rsi, -48(%rbp)
Ltmp1252:
	.loc	48 2275 29 prologue_end
	movq	%rdi, -40(%rbp)
Ltmp1253:
	.loc	48 2460 43
	callq	__ZN72_$LT$alloc..vec..Vec$LT$T$C$A$GT$$u20$as$u20$core..ops..deref..Deref$GT$5deref17ha195b773218a2aacE
	movq	%rax, %rcx
	movq	%rdx, %rax
	movq	-64(%rbp), %rdx
	movq	%rcx, -32(%rbp)
	movq	%rax, -24(%rbp)
Ltmp1254:
	.loc	30 173 14
	movq	%rcx, -16(%rbp)
	movq	%rax, -8(%rbp)
	movq	-16(%rbp), %rdi
	movq	-8(%rbp), %rsi
Ltmp1255:
	.loc	48 2275 9
	callq	__ZN42_$LT$str$u20$as$u20$core..fmt..Display$GT$3fmt17hd1cabce055ea2fbdE
	.loc	48 2276 6
	andb	$1, %al
	movzbl	%al, %eax
	addq	$64, %rsp
	popq	%rbp
	retq
Ltmp1256:
Lfunc_end178:
	.cfi_endproc

	.globl	__ZN63_$LT$I$u20$as$u20$core..iter..traits..collect..IntoIterator$GT$9into_iter17h38e750d126fa2187E
	.p2align	4, 0x90
__ZN63_$LT$I$u20$as$u20$core..iter..traits..collect..IntoIterator$GT$9into_iter17h38e750d126fa2187E:
Lfunc_begin179:
	.file	52 "/rustc/2c8cc343237b8f7d5a3c3703e3a87f2eb2c54a74/library/core/src/iter/traits" "collect.rs"
	.loc	52 272 0
	.cfi_startproc
	pushq	%rbp
	.cfi_def_cfa_offset 16
	.cfi_offset %rbp, -16
	movq	%rsp, %rbp
	.cfi_def_cfa_register %rbp
	subq	$16, %rsp
	movq	%rsi, %rdx
	movq	%rdi, %rax
	movq	%rax, -16(%rbp)
	movq	%rdx, -8(%rbp)
Ltmp1257:
	.loc	52 274 6 prologue_end
	addq	$16, %rsp
	popq	%rbp
	retq
Ltmp1258:
Lfunc_end179:
	.cfi_endproc

	.globl	__ZN63_$LT$I$u20$as$u20$core..iter..traits..collect..IntoIterator$GT$9into_iter17h3e7226cf23149597E
	.p2align	4, 0x90
__ZN63_$LT$I$u20$as$u20$core..iter..traits..collect..IntoIterator$GT$9into_iter17h3e7226cf23149597E:
Lfunc_begin180:
	.loc	52 272 0
	.cfi_startproc
	pushq	%rbp
	.cfi_def_cfa_offset 16
	.cfi_offset %rbp, -16
	movq	%rsp, %rbp
	.cfi_def_cfa_register %rbp
	subq	$16, %rsp
	movq	%rsi, %rdx
	movq	%rdi, %rax
	movq	%rax, -16(%rbp)
	movq	%rdx, -8(%rbp)
Ltmp1259:
	.loc	52 274 6 prologue_end
	addq	$16, %rsp
	popq	%rbp
	retq
Ltmp1260:
Lfunc_end180:
	.cfi_endproc

	.globl	__ZN63_$LT$I$u20$as$u20$core..iter..traits..collect..IntoIterator$GT$9into_iter17h4d1f7040cd61aa76E
	.p2align	4, 0x90
__ZN63_$LT$I$u20$as$u20$core..iter..traits..collect..IntoIterator$GT$9into_iter17h4d1f7040cd61aa76E:
Lfunc_begin181:
	.loc	52 272 0
	.cfi_startproc
	pushq	%rbp
	.cfi_def_cfa_offset 16
	.cfi_offset %rbp, -16
	movq	%rsp, %rbp
	.cfi_def_cfa_register %rbp
	subq	$16, %rsp
	movq	%rdi, %rax
	movq	%rax, -8(%rbp)
Ltmp1261:
	.loc	52 273 9 prologue_end
	movl	$56, %edx
	callq	_memcpy
Ltmp1262:
	.loc	52 0 9 is_stmt 0
	movq	-8(%rbp), %rax
	.loc	52 274 6 is_stmt 1
	addq	$16, %rsp
	popq	%rbp
	retq
Ltmp1263:
Lfunc_end181:
	.cfi_endproc

	.p2align	4, 0x90
__ZN63_$LT$alloc..alloc..Global$u20$as$u20$core..alloc..Allocator$GT$10deallocate17hcdfb6b5a3c8a4087E:
Lfunc_begin182:
	.loc	51 246 0
	.cfi_startproc
	pushq	%rbp
	.cfi_def_cfa_offset 16
	.cfi_offset %rbp, -16
	movq	%rsp, %rbp
	.cfi_def_cfa_register %rbp
	subq	$112, %rsp
	movq	%rsi, -112(%rbp)
	movq	%rdx, -104(%rbp)
	movq	%rcx, -96(%rbp)
	movq	%rdi, -64(%rbp)
	movq	%rsi, -56(%rbp)
Ltmp1264:
	.loc	51 247 12 prologue_end
	leaq	-104(%rbp), %rax
	movq	%rax, -48(%rbp)
	cmpq	$0, -104(%rbp)
	jne	LBB182_2
	.loc	51 247 9 is_stmt 0
	jmp	LBB182_3
LBB182_2:
	.loc	51 0 9
	movq	-112(%rbp), %rdi
	.loc	51 250 30 is_stmt 1
	movq	%rdi, -40(%rbp)
Ltmp1265:
	.loc	12 326 9
	movq	%rdi, -32(%rbp)
Ltmp1266:
	.loc	51 250 44
	movq	-104(%rbp), %rcx
	movq	-96(%rbp), %rax
	movq	%rcx, -88(%rbp)
	movq	%rax, -80(%rbp)
Ltmp1267:
	.loc	51 113 34
	leaq	-88(%rbp), %rax
	movq	%rax, -24(%rbp)
Ltmp1268:
	.loc	34 129 9
	movq	-88(%rbp), %rsi
Ltmp1269:
	.loc	51 113 49
	leaq	-88(%rbp), %rax
	movq	%rax, -16(%rbp)
Ltmp1270:
	.loc	34 140 9
	movq	-80(%rbp), %rax
	movq	%rax, -8(%rbp)
Ltmp1271:
	.loc	35 97 9
	movq	%rax, -72(%rbp)
	movq	-72(%rbp), %rdx
Ltmp1272:
	.loc	51 113 14
	callq	___rust_dealloc
Ltmp1273:
LBB182_3:
	.loc	51 252 6
	addq	$112, %rsp
	popq	%rbp
	retq
Ltmp1274:
Lfunc_end182:
	.cfi_endproc

	.p2align	4, 0x90
__ZN63_$LT$alloc..alloc..Global$u20$as$u20$core..alloc..Allocator$GT$15allocate_zeroed17h9d0d5276f6146ea5E:
Lfunc_begin183:
	.loc	51 241 0
	.cfi_startproc
	pushq	%rbp
	.cfi_def_cfa_offset 16
	.cfi_offset %rbp, -16
	movq	%rsp, %rbp
	.cfi_def_cfa_register %rbp
	subq	$32, %rsp
	movq	%rdi, -24(%rbp)
	movq	%rsi, -16(%rbp)
	movq	%rdx, -8(%rbp)
	movl	$1, %ecx
Ltmp1275:
	.loc	51 242 9 prologue_end
	callq	__ZN5alloc5alloc6Global10alloc_impl17h2aff2e1234f3c94dE
	.loc	51 243 6
	addq	$32, %rsp
	popq	%rbp
	retq
Ltmp1276:
Lfunc_end183:
	.cfi_endproc

	.p2align	4, 0x90
__ZN63_$LT$alloc..alloc..Global$u20$as$u20$core..alloc..Allocator$GT$4grow17h3733957dbdf1c08dE:
Lfunc_begin184:
	.loc	51 255 0
	.cfi_startproc
	pushq	%rbp
	.cfi_def_cfa_offset 16
	.cfi_offset %rbp, -16
	movq	%rsp, %rbp
	.cfi_def_cfa_register %rbp
	subq	$64, %rsp
	movq	%rdi, -48(%rbp)
	movq	%rsi, -40(%rbp)
	movq	%rdx, -32(%rbp)
	movq	%rcx, -24(%rbp)
	movq	%r8, -16(%rbp)
	movq	%r9, -8(%rbp)
Ltmp1277:
	.loc	51 262 18 prologue_end
	movq	%rsp, %rax
	movl	$0, (%rax)
	callq	__ZN5alloc5alloc6Global9grow_impl17h0ff7b8a2d019e3dbE
	.loc	51 263 6
	addq	$64, %rsp
	popq	%rbp
	retq
Ltmp1278:
Lfunc_end184:
	.cfi_endproc

	.p2align	4, 0x90
__ZN63_$LT$alloc..alloc..Global$u20$as$u20$core..alloc..Allocator$GT$8allocate17h8bb8f9659661898cE:
Lfunc_begin185:
	.loc	51 236 0
	.cfi_startproc
	pushq	%rbp
	.cfi_def_cfa_offset 16
	.cfi_offset %rbp, -16
	movq	%rsp, %rbp
	.cfi_def_cfa_register %rbp
	subq	$32, %rsp
	movq	%rdi, -24(%rbp)
	movq	%rsi, -16(%rbp)
	movq	%rdx, -8(%rbp)
	xorl	%ecx, %ecx
Ltmp1279:
	.loc	51 237 9 prologue_end
	callq	__ZN5alloc5alloc6Global10alloc_impl17h2aff2e1234f3c94dE
	.loc	51 238 6
	addq	$32, %rsp
	popq	%rbp
	retq
Ltmp1280:
Lfunc_end185:
	.cfi_endproc

	.p2align	4, 0x90
__ZN65_$LT$alloc..string..String$u20$as$u20$core..ops..deref..Deref$GT$5deref17he4fc2163b434e3b7E:
Lfunc_begin186:
	.loc	48 2459 0
	.cfi_startproc
	pushq	%rbp
	.cfi_def_cfa_offset 16
	.cfi_offset %rbp, -16
	movq	%rsp, %rbp
	.cfi_def_cfa_register %rbp
	subq	$48, %rsp
	movq	%rdi, -40(%rbp)
Ltmp1281:
	.loc	48 2460 43 prologue_end
	callq	__ZN72_$LT$alloc..vec..Vec$LT$T$C$A$GT$$u20$as$u20$core..ops..deref..Deref$GT$5deref17ha195b773218a2aacE
	movq	%rax, -32(%rbp)
	movq	%rdx, -24(%rbp)
Ltmp1282:
	.loc	30 173 14
	movq	%rax, -16(%rbp)
	movq	%rdx, -8(%rbp)
	movq	-16(%rbp), %rax
	movq	-8(%rbp), %rdx
Ltmp1283:
	.loc	48 2461 6
	addq	$48, %rsp
	popq	%rbp
	retq
Ltmp1284:
Lfunc_end186:
	.cfi_endproc

	.p2align	4, 0x90
