	.section	__TEXT,__text,regular,pure_instructions
	.macosx_version_min 10, 7
	.p2align	4, 0x90
__ZN3std6thread6Thread6unpark17h45e01ff0f93d369dE:
Lfunc_begin0:
	.file	1 "/rustc/2c8cc343237b8f7d5a3c3703e3a87f2eb2c54a74/library/std/src/thread" "mod.rs"
	.loc	1 1266 0
	.cfi_startproc
	pushq	%rbp
	.cfi_def_cfa_offset 16
	.cfi_offset %rbp, -16
	movq	%rsp, %rbp
	.cfi_def_cfa_register %rbp
	subq	$64, %rsp
	movq	%rdi, -56(%rbp)
Ltmp0:
	.loc	1 1267 9 prologue_end
	movq	%rdi, -48(%rbp)
Ltmp1:
	.file	2 "/rustc/2c8cc343237b8f7d5a3c3703e3a87f2eb2c54a74/library/core/src" "pin.rs"
	.loc	2 667 39
	movq	%rdi, -40(%rbp)
Ltmp2:
	.file	3 "/rustc/2c8cc343237b8f7d5a3c3703e3a87f2eb2c54a74/library/alloc/src" "sync.rs"
	.loc	3 1391 10
	movq	%rdi, -32(%rbp)
Ltmp3:
	.loc	3 1115 18
	movq	%rdi, -24(%rbp)
Ltmp4:
	.file	4 "/rustc/2c8cc343237b8f7d5a3c3703e3a87f2eb2c54a74/library/core/src/ptr" "non_null.rs"
	.loc	4 376 20
	movq	(%rdi), %rax
	movq	%rax, -16(%rbp)
Ltmp5:
	.loc	3 1391 9
	addq	$16, %rax
Ltmp6:
	.loc	2 667 37
	movq	%rax, -8(%rbp)
Ltmp7:
	.loc	2 653 9
	movq	%rax, -64(%rbp)
Ltmp8:
	.loc	1 1267 9
	movq	-64(%rbp), %rdi
	callq	__ZN3std6thread5Inner6parker17h9ed24f2a52f27ed9E
	movq	%rax, %rdi
	callq	__ZN3std3sys4unix14thread_parking6darwin6Parker6unpark17hf9f8f62ccf2600e9E
	.loc	1 1268 6
	addq	$64, %rsp
	popq	%rbp
	retq
Ltmp9:
Lfunc_end0:
	.cfi_endproc

	.globl	__ZN42_$LT$$RF$T$u20$as$u20$core..fmt..Debug$GT$3fmt17h5c54aea1280c070eE
	.p2align	4, 0x90
__ZN42_$LT$$RF$T$u20$as$u20$core..fmt..Debug$GT$3fmt17h5c54aea1280c070eE:
Lfunc_begin1:
	.file	5 "/rustc/2c8cc343237b8f7d5a3c3703e3a87f2eb2c54a74/library/core/src/fmt" "mod.rs"
	.loc	5 2377 0
	.cfi_startproc
	pushq	%rbp
	.cfi_def_cfa_offset 16
	.cfi_offset %rbp, -16
	movq	%rsp, %rbp
	.cfi_def_cfa_register %rbp
	subq	$16, %rsp
	movq	%rdi, -16(%rbp)
	movq	%rsi, -8(%rbp)
Ltmp10:
	.loc	5 2377 71 prologue_end
	movq	(%rdi), %rdi
	.loc	5 2377 62 is_stmt 0
	callq	__ZN68_$LT$core..sync..atomic..AtomicUsize$u20$as$u20$core..fmt..Debug$GT$3fmt17hdbca57d1da936e5cE
	.loc	5 2377 84
	andb	$1, %al
	movzbl	%al, %eax
	addq	$16, %rsp
	popq	%rbp
	retq
Ltmp11:
Lfunc_end1:
	.cfi_endproc

	.globl	__ZN42_$LT$$RF$T$u20$as$u20$core..fmt..Debug$GT$3fmt17h6a19ea123403e8acE
	.p2align	4, 0x90
__ZN42_$LT$$RF$T$u20$as$u20$core..fmt..Debug$GT$3fmt17h6a19ea123403e8acE:
Lfunc_begin2:
	.loc	5 2377 0 is_stmt 1
	.cfi_startproc
	pushq	%rbp
	.cfi_def_cfa_offset 16
	.cfi_offset %rbp, -16
	movq	%rsp, %rbp
	.cfi_def_cfa_register %rbp
	subq	$16, %rsp
	movq	%rdi, -16(%rbp)
	movq	%rsi, -8(%rbp)
Ltmp12:
	.loc	5 2377 71 prologue_end
	movq	(%rdi), %rdi
	.loc	5 2377 62 is_stmt 0
	callq	__ZN4core3fmt3num52_$LT$impl$u20$core..fmt..Debug$u20$for$u20$usize$GT$3fmt17h02c9263e43355ab0E
	.loc	5 2377 84
	andb	$1, %al
	movzbl	%al, %eax
	addq	$16, %rsp
	popq	%rbp
	retq
Ltmp13:
Lfunc_end2:
	.cfi_endproc

	.globl	__ZN42_$LT$$RF$T$u20$as$u20$core..fmt..Debug$GT$3fmt17h77cdb49476f76823E
	.p2align	4, 0x90
__ZN42_$LT$$RF$T$u20$as$u20$core..fmt..Debug$GT$3fmt17h77cdb49476f76823E:
Lfunc_begin3:
	.loc	5 2377 0 is_stmt 1
	.cfi_startproc
	pushq	%rbp
	.cfi_def_cfa_offset 16
	.cfi_offset %rbp, -16
	movq	%rsp, %rbp
	.cfi_def_cfa_register %rbp
	subq	$16, %rsp
	movq	%rdi, -16(%rbp)
	movq	%rsi, -8(%rbp)
Ltmp14:
	.loc	5 2377 71 prologue_end
	movq	(%rdi), %rdi
	.loc	5 2377 62 is_stmt 0
	callq	__ZN70_$LT$once_cell..race..OnceNonZeroUsize$u20$as$u20$core..fmt..Debug$GT$3fmt17he38429f35b15f114E
	.loc	5 2377 84
	andb	$1, %al
	movzbl	%al, %eax
	addq	$16, %rsp
	popq	%rbp
	retq
Ltmp15:
Lfunc_end3:
	.cfi_endproc

	.p2align	4, 0x90
__ZN4core3fmt3num52_$LT$impl$u20$core..fmt..Debug$u20$for$u20$usize$GT$3fmt17h02c9263e43355ab0E:
Lfunc_begin4:
	.file	6 "/rustc/2c8cc343237b8f7d5a3c3703e3a87f2eb2c54a74/library/core/src/fmt" "num.rs"
	.loc	6 185 0 is_stmt 1
	.cfi_startproc
	pushq	%rbp
	.cfi_def_cfa_offset 16
	.cfi_offset %rbp, -16
	movq	%rsp, %rbp
	.cfi_def_cfa_register %rbp
	subq	$48, %rsp
	movq	%rsi, -48(%rbp)
	movq	%rdi, %rax
	movq	-48(%rbp), %rdi
	movq	%rax, -40(%rbp)
	movq	%rdi, -32(%rbp)
	movq	%rax, -16(%rbp)
	movq	%rdi, -8(%rbp)
Ltmp16:
	.loc	6 186 20 prologue_end
	callq	__ZN4core3fmt9Formatter15debug_lower_hex17h0921e6b9188d914eE
	testb	$1, %al
	jne	LBB4_2
	.loc	6 0 20 is_stmt 0
	movq	-32(%rbp), %rdi
	.loc	6 188 27 is_stmt 1
	callq	__ZN4core3fmt9Formatter15debug_upper_hex17h8ce487049a6cccf8E
	testb	$1, %al
	jne	LBB4_5
	jmp	LBB4_4
LBB4_2:
	.loc	6 0 27 is_stmt 0
	movq	-32(%rbp), %rsi
	movq	-40(%rbp), %rdi
	.loc	6 187 21 is_stmt 1
	callq	__ZN4core3fmt3num55_$LT$impl$u20$core..fmt..LowerHex$u20$for$u20$usize$GT$3fmt17h84f349805fe63f8dE
	andb	$1, %al
	movb	%al, -17(%rbp)
LBB4_3:
	.loc	6 193 14
	movb	-17(%rbp), %al
	andb	$1, %al
	movzbl	%al, %eax
	addq	$48, %rsp
	popq	%rbp
	retq
LBB4_4:
	.loc	6 0 14 is_stmt 0
	movq	-32(%rbp), %rsi
	movq	-40(%rbp), %rdi
	.loc	6 191 21 is_stmt 1
	callq	__ZN4core3fmt3num3imp54_$LT$impl$u20$core..fmt..Display$u20$for$u20$usize$GT$3fmt17ha5c925fcd7ed33faE
	andb	$1, %al
	movb	%al, -17(%rbp)
	.loc	6 188 24
	jmp	LBB4_6
LBB4_5:
	.loc	6 0 24 is_stmt 0
	movq	-32(%rbp), %rsi
	movq	-40(%rbp), %rdi
	.loc	6 189 21 is_stmt 1
	callq	__ZN4core3fmt3num55_$LT$impl$u20$core..fmt..UpperHex$u20$for$u20$usize$GT$3fmt17h49aa717311edc293E
	andb	$1, %al
	movb	%al, -17(%rbp)
LBB4_6:
	.loc	6 186 17
	jmp	LBB4_3
Ltmp17:
Lfunc_end4:
	.cfi_endproc

	.p2align	4, 0x90
__ZN4core3fmt9Arguments6new_v117hd7e62057d3e1f071E:
Lfunc_begin5:
	.loc	5 399 0
	.cfi_startproc
	pushq	%rbp
	.cfi_def_cfa_offset 16
	.cfi_offset %rbp, -16
	movq	%rsp, %rbp
	.cfi_def_cfa_register %rbp
	subq	$160, %rsp
	movq	%r8, -152(%rbp)
	movq	%rcx, -144(%rbp)
	movq	%rdx, -136(%rbp)
	movq	%rsi, -128(%rbp)
	movq	%rdi, -120(%rbp)
	movq	%rdi, -112(%rbp)
	movq	%rsi, -32(%rbp)
	movq	%rdx, -24(%rbp)
	movq	%rcx, -16(%rbp)
	movq	%r8, -8(%rbp)
Ltmp18:
	.loc	5 400 12 prologue_end
	cmpq	%r8, %rdx
	jb	LBB5_2
	.loc	5 0 12 is_stmt 0
	movq	-136(%rbp), %rax
	movq	-152(%rbp), %rcx
	.loc	5 400 56
	addq	$1, %rcx
	.loc	5 400 41
	cmpq	%rcx, %rax
	seta	%al
	.loc	5 400 12
	andb	$1, %al
	movb	%al, -97(%rbp)
	jmp	LBB5_3
LBB5_2:
	movb	$1, -97(%rbp)
LBB5_3:
	testb	$1, -97(%rbp)
	jne	LBB5_5
	.loc	5 0 12
	movq	-112(%rbp), %rax
	movq	-120(%rbp), %rcx
	movq	-152(%rbp), %rdx
	movq	-144(%rbp), %rsi
	movq	-136(%rbp), %rdi
	movq	-128(%rbp), %r8
	.loc	5 403 34 is_stmt 1
	movq	$0, -48(%rbp)
	.loc	5 403 9 is_stmt 0
	movq	%r8, 16(%rcx)
	movq	%rdi, 24(%rcx)
	movq	-48(%rbp), %r8
	movq	-40(%rbp), %rdi
	movq	%r8, (%rcx)
	movq	%rdi, 8(%rcx)
	movq	%rsi, 32(%rcx)
	movq	%rdx, 40(%rcx)
	.loc	5 404 6 is_stmt 1
	addq	$160, %rsp
	popq	%rbp
	retq
LBB5_5:
	.loc	5 401 13
	leaq	l___unnamed_4(%rip), %rsi
	leaq	l___unnamed_5(%rip), %rcx
	xorl	%eax, %eax
	movl	%eax, %r8d
	leaq	-96(%rbp), %rdi
	movq	%rdi, -160(%rbp)
	movl	$1, %edx
	callq	__ZN4core3fmt9Arguments6new_v117hd7e62057d3e1f071E
	movq	-160(%rbp), %rdi
	leaq	l___unnamed_6(%rip), %rsi
	callq	__ZN4core9panicking9panic_fmt17h9b5d807e24bcaaedE
Ltmp19:
Lfunc_end5:
	.cfi_endproc

	.globl	__ZN4core3mem7replace17h9f9d82d6e29aad18E
	.p2align	4, 0x90
__ZN4core3mem7replace17h9f9d82d6e29aad18E:
Lfunc_begin6:
	.file	7 "/rustc/2c8cc343237b8f7d5a3c3703e3a87f2eb2c54a74/library/core/src/mem" "mod.rs"
	.loc	7 905 0
	.cfi_startproc
	pushq	%rbp
	.cfi_def_cfa_offset 16
	.cfi_offset %rbp, -16
	movq	%rsp, %rbp
	.cfi_def_cfa_register %rbp
	subq	$112, %rsp
	movq	%rdi, -112(%rbp)
	movq	%rsi, -96(%rbp)
	movq	%rdi, -72(%rbp)
Ltmp20:
	.loc	7 910 32 prologue_end
	movq	%rdi, -64(%rbp)
Ltmp21:
	.file	8 "/rustc/2c8cc343237b8f7d5a3c3703e3a87f2eb2c54a74/library/core/src/ptr" "mod.rs"
	.loc	8 1157 34
	leaq	-80(%rbp), %rax
	movq	%rax, -56(%rbp)
	.loc	8 1157 9 is_stmt 0
	movq	(%rdi), %rax
	movq	%rax, -80(%rbp)
	.loc	8 1158 9 is_stmt 1
	movq	-80(%rbp), %rax
	movq	%rax, -104(%rbp)
	movq	%rax, -48(%rbp)
	.loc	8 0 9 is_stmt 0
	movq	-104(%rbp), %rax
	movq	-112(%rbp), %rcx
Ltmp22:
	.file	9 "/rustc/2c8cc343237b8f7d5a3c3703e3a87f2eb2c54a74/library/core/src/mem" "maybe_uninit.rs"
	.loc	9 627 38 is_stmt 1
	movq	%rax, -24(%rbp)
Ltmp23:
	.file	10 "/rustc/2c8cc343237b8f7d5a3c3703e3a87f2eb2c54a74/library/core/src/mem" "manually_drop.rs"
	.loc	10 89 9
	movq	%rax, -16(%rbp)
Ltmp24:
	.loc	7 911 20
	movq	%rcx, -8(%rbp)
	.loc	7 911 26 is_stmt 0
	movq	-96(%rbp), %rdx
	movq	%rdx, -88(%rbp)
Ltmp25:
	.loc	8 1354 9 is_stmt 1
	movq	-88(%rbp), %rdx
	movq	%rdx, (%rcx)
Ltmp26:
	.loc	7 914 2
	addq	$112, %rsp
	popq	%rbp
	retq
Ltmp27:
Lfunc_end6:
	.cfi_endproc

	.globl	__ZN4core3ops8function5impls79_$LT$impl$u20$core..ops..function..FnMut$LT$A$GT$$u20$for$u20$$RF$mut$u20$F$GT$8call_mut17h09b99285b93e2b73E
	.p2align	4, 0x90
__ZN4core3ops8function5impls79_$LT$impl$u20$core..ops..function..FnMut$LT$A$GT$$u20$for$u20$$RF$mut$u20$F$GT$8call_mut17h09b99285b93e2b73E:
Lfunc_begin7:
	.file	11 "/rustc/2c8cc343237b8f7d5a3c3703e3a87f2eb2c54a74/library/core/src/ops" "function.rs"
	.loc	11 297 0
	.cfi_startproc
	pushq	%rbp
	.cfi_def_cfa_offset 16
	.cfi_offset %rbp, -16
	movq	%rsp, %rbp
	.cfi_def_cfa_register %rbp
	subq	$16, %rsp
	movq	%rdi, %rax
	movq	%rax, -8(%rbp)
Ltmp28:
	.loc	11 298 13 prologue_end
	movq	(%rax), %rdi
	movq	8(%rax), %rax
	callq	*32(%rax)
	.loc	11 299 10
	andb	$1, %al
	movzbl	%al, %eax
	addq	$16, %rsp
	popq	%rbp
	retq
Ltmp29:
Lfunc_end7:
	.cfi_endproc

	.p2align	4, 0x90
__ZN4core3ptr30drop_in_place$LT$$RF$usize$GT$17h70bd4f2a90f43885E:
Lfunc_begin8:
	.loc	8 490 0
	.cfi_startproc
	pushq	%rbp
	.cfi_def_cfa_offset 16
	.cfi_offset %rbp, -16
	movq	%rsp, %rbp
	.cfi_def_cfa_register %rbp
	pushq	%rax
	movq	%rdi, -8(%rbp)
Ltmp30:
	.loc	8 490 1 prologue_end
	addq	$8, %rsp
	popq	%rbp
	retq
Ltmp31:
Lfunc_end8:
	.cfi_endproc

	.globl	__ZN4core3ptr39drop_in_place$LT$std..thread..Inner$GT$17h4d3e57f5d4bbe974E
	.p2align	4, 0x90
__ZN4core3ptr39drop_in_place$LT$std..thread..Inner$GT$17h4d3e57f5d4bbe974E:
Lfunc_begin9:
	.loc	8 490 0
	.cfi_startproc
	.cfi_personality 155, _rust_eh_personality
	.cfi_lsda 16, Lexception0
	pushq	%rbp
	.cfi_def_cfa_offset 16
	.cfi_offset %rbp, -16
	movq	%rsp, %rbp
	.cfi_def_cfa_register %rbp
	subq	$32, %rsp
	movq	%rdi, -32(%rbp)
	movq	%rdi, -24(%rbp)
Ltmp32:
Ltmp38:
	.loc	8 490 1 prologue_end
	callq	__ZN4core3ptr75drop_in_place$LT$core..option..Option$LT$alloc..ffi..c_str..CString$GT$$GT$17h7383892732e87f3dE
Ltmp33:
	jmp	LBB9_3
LBB9_1:
	.loc	8 0 1 is_stmt 0
	movq	-32(%rbp), %rdi
	.loc	8 490 1
	addq	$16, %rdi
Ltmp35:
	callq	__ZN4core3ptr67drop_in_place$LT$std..sys..unix..thread_parking..darwin..Parker$GT$17hdd3ec9c026ffd140E
Ltmp36:
	jmp	LBB9_5
LBB9_2:
Ltmp34:
	.loc	8 0 1
	movq	%rax, %rcx
	movl	%edx, %eax
	movq	%rcx, -16(%rbp)
	movl	%eax, -8(%rbp)
	jmp	LBB9_1
LBB9_3:
	movq	-32(%rbp), %rdi
	.loc	8 490 1
	addq	$16, %rdi
	callq	__ZN4core3ptr67drop_in_place$LT$std..sys..unix..thread_parking..darwin..Parker$GT$17hdd3ec9c026ffd140E
	addq	$32, %rsp
	popq	%rbp
	retq
LBB9_4:
Ltmp37:
	callq	__ZN4core9panicking19panic_cannot_unwind17h1fbca7e1d7f56ae1E
LBB9_5:
	movq	-16(%rbp), %rdi
	callq	__Unwind_Resume
Ltmp39:
Lfunc_end9:
	.cfi_endproc
	.section	__TEXT,__gcc_except_tab
	.p2align	2
GCC_except_table9:
Lexception0:
	.byte	255
	.byte	255
	.byte	1
	.uleb128 Lcst_end0-Lcst_begin0
Lcst_begin0:
	.uleb128 Ltmp32-Lfunc_begin9
	.uleb128 Ltmp33-Ltmp32
	.uleb128 Ltmp34-Lfunc_begin9
	.byte	0
	.uleb128 Ltmp35-Lfunc_begin9
	.uleb128 Ltmp36-Ltmp35
	.uleb128 Ltmp37-Lfunc_begin9
	.byte	0
	.uleb128 Ltmp36-Lfunc_begin9
	.uleb128 Lfunc_end9-Ltmp36
	.byte	0
	.byte	0
Lcst_end0:
	.p2align	2

	.section	__TEXT,__text,regular,pure_instructions
	.globl	__ZN4core3ptr40drop_in_place$LT$std..thread..Thread$GT$17h403ecf8e5181ab08E
	.p2align	4, 0x90
__ZN4core3ptr40drop_in_place$LT$std..thread..Thread$GT$17h403ecf8e5181ab08E:
Lfunc_begin10:
	.loc	8 490 0 is_stmt 1
	.cfi_startproc
	pushq	%rbp
	.cfi_def_cfa_offset 16
	.cfi_offset %rbp, -16
	movq	%rsp, %rbp
	.cfi_def_cfa_register %rbp
	subq	$16, %rsp
	movq	%rdi, -8(%rbp)
Ltmp40:
	.loc	8 490 1 prologue_end
	callq	__ZN4core3ptr85drop_in_place$LT$core..pin..Pin$LT$alloc..sync..Arc$LT$std..thread..Inner$GT$$GT$$GT$17habf5e636e2d73dd4E
	addq	$16, %rsp
	popq	%rbp
	retq
Ltmp41:
Lfunc_end10:
	.cfi_endproc

	.globl	__ZN4core3ptr42drop_in_place$LT$once_cell..imp..Guard$GT$17hea6ff8d3800fa925E
	.p2align	4, 0x90
__ZN4core3ptr42drop_in_place$LT$once_cell..imp..Guard$GT$17hea6ff8d3800fa925E:
Lfunc_begin11:
	.loc	8 490 0
	.cfi_startproc
	pushq	%rbp
	.cfi_def_cfa_offset 16
	.cfi_offset %rbp, -16
	movq	%rsp, %rbp
	.cfi_def_cfa_register %rbp
	subq	$16, %rsp
	movq	%rdi, -8(%rbp)
Ltmp42:
	.loc	8 490 1 prologue_end
	callq	__ZN63_$LT$once_cell..imp..Guard$u20$as$u20$core..ops..drop..Drop$GT$4drop17h5d0d8424f2402f18E
	addq	$16, %rsp
	popq	%rbp
	retq
Ltmp43:
Lfunc_end11:
	.cfi_endproc

	.globl	__ZN4core3ptr43drop_in_place$LT$once_cell..imp..Waiter$GT$17he6bb2574da238754E
	.p2align	4, 0x90
__ZN4core3ptr43drop_in_place$LT$once_cell..imp..Waiter$GT$17he6bb2574da238754E:
Lfunc_begin12:
	.loc	8 490 0
	.cfi_startproc
	pushq	%rbp
	.cfi_def_cfa_offset 16
	.cfi_offset %rbp, -16
	movq	%rsp, %rbp
	.cfi_def_cfa_register %rbp
	subq	$16, %rsp
	movq	%rdi, -8(%rbp)
Ltmp44:
	.loc	8 490 1 prologue_end
	callq	__ZN4core3ptr92drop_in_place$LT$core..cell..Cell$LT$core..option..Option$LT$std..thread..Thread$GT$$GT$$GT$17hd182796fd4514993E
	addq	$16, %rsp
	popq	%rbp
	retq
Ltmp45:
Lfunc_end12:
	.cfi_endproc

	.globl	__ZN4core3ptr47drop_in_place$LT$alloc..ffi..c_str..CString$GT$17hec45701dc2896098E
	.p2align	4, 0x90
__ZN4core3ptr47drop_in_place$LT$alloc..ffi..c_str..CString$GT$17hec45701dc2896098E:
Lfunc_begin13:
	.loc	8 490 0
	.cfi_startproc
	.cfi_personality 155, _rust_eh_personality
	.cfi_lsda 16, Lexception1
	pushq	%rbp
	.cfi_def_cfa_offset 16
	.cfi_offset %rbp, -16
	movq	%rsp, %rbp
	.cfi_def_cfa_register %rbp
	subq	$32, %rsp
	movq	%rdi, -32(%rbp)
	movq	%rdi, -24(%rbp)
Ltmp46:
Ltmp52:
	.loc	8 490 1 prologue_end
	callq	__ZN68_$LT$alloc..ffi..c_str..CString$u20$as$u20$core..ops..drop..Drop$GT$4drop17h4c66e4e583ab337cE
Ltmp47:
	jmp	LBB13_3
LBB13_1:
Ltmp49:
	.loc	8 0 1 is_stmt 0
	movq	-32(%rbp), %rdi
	.loc	8 490 1
	callq	__ZN4core3ptr58drop_in_place$LT$alloc..boxed..Box$LT$$u5b$u8$u5d$$GT$$GT$17h789f4db766f77f27E
Ltmp50:
	jmp	LBB13_5
LBB13_2:
Ltmp48:
	.loc	8 0 1
	movq	%rax, %rcx
	movl	%edx, %eax
	movq	%rcx, -16(%rbp)
	movl	%eax, -8(%rbp)
	jmp	LBB13_1
LBB13_3:
	movq	-32(%rbp), %rdi
	.loc	8 490 1
	callq	__ZN4core3ptr58drop_in_place$LT$alloc..boxed..Box$LT$$u5b$u8$u5d$$GT$$GT$17h789f4db766f77f27E
	addq	$32, %rsp
	popq	%rbp
	retq
LBB13_4:
Ltmp51:
	callq	__ZN4core9panicking19panic_cannot_unwind17h1fbca7e1d7f56ae1E
LBB13_5:
	movq	-16(%rbp), %rdi
	callq	__Unwind_Resume
Ltmp53:
Lfunc_end13:
	.cfi_endproc
	.section	__TEXT,__gcc_except_tab
	.p2align	2
GCC_except_table13:
Lexception1:
	.byte	255
	.byte	255
	.byte	1
	.uleb128 Lcst_end1-Lcst_begin1
Lcst_begin1:
	.uleb128 Ltmp46-Lfunc_begin13
	.uleb128 Ltmp47-Ltmp46
	.uleb128 Ltmp48-Lfunc_begin13
	.byte	0
	.uleb128 Ltmp49-Lfunc_begin13
	.uleb128 Ltmp50-Ltmp49
	.uleb128 Ltmp51-Lfunc_begin13
	.byte	0
	.uleb128 Ltmp50-Lfunc_begin13
	.uleb128 Lfunc_end13-Ltmp50
	.byte	0
	.byte	0
Lcst_end1:
	.p2align	2

	.section	__TEXT,__text,regular,pure_instructions
	.p2align	4, 0x90
__ZN4core3ptr56drop_in_place$LT$$RF$core..sync..atomic..AtomicUsize$GT$17h8ca00a64fc5d4f2fE:
Lfunc_begin14:
	.loc	8 490 0 is_stmt 1
	.cfi_startproc
	pushq	%rbp
	.cfi_def_cfa_offset 16
	.cfi_offset %rbp, -16
	movq	%rsp, %rbp
	.cfi_def_cfa_register %rbp
	pushq	%rax
	movq	%rdi, -8(%rbp)
Ltmp54:
	.loc	8 490 1 prologue_end
	addq	$8, %rsp
	popq	%rbp
	retq
Ltmp55:
Lfunc_end14:
	.cfi_endproc

	.p2align	4, 0x90
__ZN4core3ptr58drop_in_place$LT$$RF$once_cell..race..OnceNonZeroUsize$GT$17hcd25346d88bef8f6E:
Lfunc_begin15:
	.loc	8 490 0
	.cfi_startproc
	pushq	%rbp
	.cfi_def_cfa_offset 16
	.cfi_offset %rbp, -16
	movq	%rsp, %rbp
	.cfi_def_cfa_register %rbp
	pushq	%rax
	movq	%rdi, -8(%rbp)
Ltmp56:
	.loc	8 490 1 prologue_end
	addq	$8, %rsp
	popq	%rbp
	retq
Ltmp57:
Lfunc_end15:
	.cfi_endproc

	.globl	__ZN4core3ptr58drop_in_place$LT$alloc..boxed..Box$LT$$u5b$u8$u5d$$GT$$GT$17h789f4db766f77f27E
	.p2align	4, 0x90
__ZN4core3ptr58drop_in_place$LT$alloc..boxed..Box$LT$$u5b$u8$u5d$$GT$$GT$17h789f4db766f77f27E:
Lfunc_begin16:
	.loc	8 490 0
	.cfi_startproc
	pushq	%rbp
	.cfi_def_cfa_offset 16
	.cfi_offset %rbp, -16
	movq	%rsp, %rbp
	.cfi_def_cfa_register %rbp
	subq	$32, %rsp
	movq	%rdi, -32(%rbp)
	movq	%rdi, -24(%rbp)
	movq	-32(%rbp), %rax
Ltmp58:
	.loc	8 490 1 prologue_end
	movq	(%rax), %rdi
	movq	8(%rax), %rsi
	callq	__ZN5alloc5alloc8box_free17hb681dda36d0be3b9E
	addq	$32, %rsp
	popq	%rbp
	retq
Ltmp59:
Lfunc_end16:
	.cfi_endproc

	.globl	__ZN4core3ptr63drop_in_place$LT$alloc..sync..Arc$LT$std..thread..Inner$GT$$GT$17h9e3039540d92e6c5E
	.p2align	4, 0x90
__ZN4core3ptr63drop_in_place$LT$alloc..sync..Arc$LT$std..thread..Inner$GT$$GT$17h9e3039540d92e6c5E:
Lfunc_begin17:
	.loc	8 490 0
	.cfi_startproc
	pushq	%rbp
	.cfi_def_cfa_offset 16
	.cfi_offset %rbp, -16
	movq	%rsp, %rbp
	.cfi_def_cfa_register %rbp
	subq	$16, %rsp
	movq	%rdi, -8(%rbp)
Ltmp60:
	.loc	8 490 1 prologue_end
	callq	__ZN67_$LT$alloc..sync..Arc$LT$T$GT$$u20$as$u20$core..ops..drop..Drop$GT$4drop17h9a3a43325f2342b1E
	addq	$16, %rsp
	popq	%rbp
	retq
Ltmp61:
Lfunc_end17:
	.cfi_endproc

	.globl	__ZN4core3ptr64drop_in_place$LT$alloc..sync..Weak$LT$std..thread..Inner$GT$$GT$17hc57f2111e135a64dE
	.p2align	4, 0x90
__ZN4core3ptr64drop_in_place$LT$alloc..sync..Weak$LT$std..thread..Inner$GT$$GT$17hc57f2111e135a64dE:
Lfunc_begin18:
	.loc	8 490 0
	.cfi_startproc
	pushq	%rbp
	.cfi_def_cfa_offset 16
	.cfi_offset %rbp, -16
	movq	%rsp, %rbp
	.cfi_def_cfa_register %rbp
	subq	$16, %rsp
	movq	%rdi, -8(%rbp)
Ltmp62:
	.loc	8 490 1 prologue_end
	callq	__ZN68_$LT$alloc..sync..Weak$LT$T$GT$$u20$as$u20$core..ops..drop..Drop$GT$4drop17h991eb9a1860ac064E
	addq	$16, %rsp
	popq	%rbp
	retq
Ltmp63:
Lfunc_end18:
	.cfi_endproc

	.globl	__ZN4core3ptr67drop_in_place$LT$std..sys..unix..thread_parking..darwin..Parker$GT$17hdd3ec9c026ffd140E
	.p2align	4, 0x90
__ZN4core3ptr67drop_in_place$LT$std..sys..unix..thread_parking..darwin..Parker$GT$17hdd3ec9c026ffd140E:
Lfunc_begin19:
	.loc	8 490 0
	.cfi_startproc
	pushq	%rbp
	.cfi_def_cfa_offset 16
	.cfi_offset %rbp, -16
	movq	%rsp, %rbp
	.cfi_def_cfa_register %rbp
	subq	$16, %rsp
	movq	%rdi, -8(%rbp)
Ltmp64:
	.loc	8 490 1 prologue_end
	callq	__ZN88_$LT$std..sys..unix..thread_parking..darwin..Parker$u20$as$u20$core..ops..drop..Drop$GT$4drop17h35b9841f27a0bb12E
	addq	$16, %rsp
	popq	%rbp
	retq
Ltmp65:
Lfunc_end19:
	.cfi_endproc

	.globl	__ZN4core3ptr68drop_in_place$LT$core..option..Option$LT$std..thread..Thread$GT$$GT$17ha8d959616399b053E
	.p2align	4, 0x90
__ZN4core3ptr68drop_in_place$LT$core..option..Option$LT$std..thread..Thread$GT$$GT$17ha8d959616399b053E:
Lfunc_begin20:
	.loc	8 490 0
	.cfi_startproc
	pushq	%rbp
	.cfi_def_cfa_offset 16
	.cfi_offset %rbp, -16
	movq	%rsp, %rbp
	.cfi_def_cfa_register %rbp
	subq	$16, %rsp
	movq	%rdi, -16(%rbp)
	movq	%rdi, -8(%rbp)
Ltmp66:
	.loc	8 490 1 prologue_end
	movq	(%rdi), %rdx
	movl	$1, %eax
	xorl	%ecx, %ecx
	cmpq	$0, %rdx
	cmoveq	%rcx, %rax
	cmpq	$0, %rax
	jne	LBB20_2
LBB20_1:
	addq	$16, %rsp
	popq	%rbp
	retq
LBB20_2:
	.loc	8 0 1 is_stmt 0
	movq	-16(%rbp), %rdi
	.loc	8 490 1
	callq	__ZN4core3ptr40drop_in_place$LT$std..thread..Thread$GT$17h403ecf8e5181ab08E
	jmp	LBB20_1
Ltmp67:
Lfunc_end20:
	.cfi_endproc

	.globl	__ZN4core3ptr75drop_in_place$LT$core..option..Option$LT$alloc..ffi..c_str..CString$GT$$GT$17h7383892732e87f3dE
	.p2align	4, 0x90
__ZN4core3ptr75drop_in_place$LT$core..option..Option$LT$alloc..ffi..c_str..CString$GT$$GT$17h7383892732e87f3dE:
Lfunc_begin21:
	.loc	8 490 0 is_stmt 1
	.cfi_startproc
	pushq	%rbp
	.cfi_def_cfa_offset 16
	.cfi_offset %rbp, -16
	movq	%rsp, %rbp
	.cfi_def_cfa_register %rbp
	subq	$16, %rsp
	movq	%rdi, -16(%rbp)
	movq	%rdi, -8(%rbp)
Ltmp68:
	.loc	8 490 1 prologue_end
	movq	(%rdi), %rdx
	movl	$1, %eax
	xorl	%ecx, %ecx
	cmpq	$0, %rdx
	cmoveq	%rcx, %rax
	cmpq	$0, %rax
	jne	LBB21_2
LBB21_1:
	addq	$16, %rsp
	popq	%rbp
	retq
LBB21_2:
	.loc	8 0 1 is_stmt 0
	movq	-16(%rbp), %rdi
	.loc	8 490 1
	callq	__ZN4core3ptr47drop_in_place$LT$alloc..ffi..c_str..CString$GT$17hec45701dc2896098E
	jmp	LBB21_1
Ltmp69:
Lfunc_end21:
	.cfi_endproc

	.globl	__ZN4core3ptr7mut_ptr31_$LT$impl$u20$$BP$mut$u20$T$GT$7is_null17h5d44853b0653cb28E
	.p2align	4, 0x90
__ZN4core3ptr7mut_ptr31_$LT$impl$u20$$BP$mut$u20$T$GT$7is_null17h5d44853b0653cb28E:
Lfunc_begin22:
	.file	12 "/rustc/2c8cc343237b8f7d5a3c3703e3a87f2eb2c54a74/library/core/src/ptr" "mut_ptr.rs"
	.loc	12 35 0 is_stmt 1
	.cfi_startproc
	pushq	%rbp
	.cfi_def_cfa_offset 16
	.cfi_offset %rbp, -16
	movq	%rsp, %rbp
	.cfi_def_cfa_register %rbp
	subq	$48, %rsp
	movq	%rdi, -40(%rbp)
Ltmp70:
	.loc	12 52 36 prologue_end
	movq	%rdi, -48(%rbp)
	.loc	12 52 18 is_stmt 0
	movq	-48(%rbp), %rax
	movq	%rax, -32(%rbp)
Ltmp71:
	.loc	12 38 13 is_stmt 1
	movq	%rax, -24(%rbp)
Ltmp72:
	.loc	12 215 33
	movq	%rax, -16(%rbp)
	.loc	12 215 18 is_stmt 0
	movq	%rax, -8(%rbp)
Ltmp73:
	.loc	12 38 13 is_stmt 1
	cmpq	$0, -8(%rbp)
	sete	%al
Ltmp74:
	.loc	12 53 6
	andb	$1, %al
	movzbl	%al, %eax
	addq	$48, %rsp
	popq	%rbp
	retq
Ltmp75:
Lfunc_end22:
	.cfi_endproc

	.globl	__ZN4core3ptr85drop_in_place$LT$core..pin..Pin$LT$alloc..sync..Arc$LT$std..thread..Inner$GT$$GT$$GT$17habf5e636e2d73dd4E
	.p2align	4, 0x90
__ZN4core3ptr85drop_in_place$LT$core..pin..Pin$LT$alloc..sync..Arc$LT$std..thread..Inner$GT$$GT$$GT$17habf5e636e2d73dd4E:
Lfunc_begin23:
	.loc	8 490 0
	.cfi_startproc
	pushq	%rbp
	.cfi_def_cfa_offset 16
	.cfi_offset %rbp, -16
	movq	%rsp, %rbp
	.cfi_def_cfa_register %rbp
	subq	$16, %rsp
	movq	%rdi, -8(%rbp)
Ltmp76:
	.loc	8 490 1 prologue_end
	callq	__ZN4core3ptr63drop_in_place$LT$alloc..sync..Arc$LT$std..thread..Inner$GT$$GT$17h9e3039540d92e6c5E
	addq	$16, %rsp
	popq	%rbp
	retq
Ltmp77:
Lfunc_end23:
	.cfi_endproc

	.globl	__ZN4core3ptr92drop_in_place$LT$core..cell..Cell$LT$core..option..Option$LT$std..thread..Thread$GT$$GT$$GT$17hd182796fd4514993E
	.p2align	4, 0x90
__ZN4core3ptr92drop_in_place$LT$core..cell..Cell$LT$core..option..Option$LT$std..thread..Thread$GT$$GT$$GT$17hd182796fd4514993E:
Lfunc_begin24:
	.loc	8 490 0
	.cfi_startproc
	pushq	%rbp
	.cfi_def_cfa_offset 16
	.cfi_offset %rbp, -16
	movq	%rsp, %rbp
	.cfi_def_cfa_register %rbp
	subq	$16, %rsp
	movq	%rdi, -8(%rbp)
Ltmp78:
	.loc	8 490 1 prologue_end
	callq	__ZN4core3ptr98drop_in_place$LT$core..cell..UnsafeCell$LT$core..option..Option$LT$std..thread..Thread$GT$$GT$$GT$17he26117c904bcbc87E
	addq	$16, %rsp
	popq	%rbp
	retq
Ltmp79:
Lfunc_end24:
	.cfi_endproc

	.globl	__ZN4core3ptr98drop_in_place$LT$core..cell..UnsafeCell$LT$core..option..Option$LT$std..thread..Thread$GT$$GT$$GT$17he26117c904bcbc87E
	.p2align	4, 0x90
__ZN4core3ptr98drop_in_place$LT$core..cell..UnsafeCell$LT$core..option..Option$LT$std..thread..Thread$GT$$GT$$GT$17he26117c904bcbc87E:
Lfunc_begin25:
	.loc	8 490 0
	.cfi_startproc
	pushq	%rbp
	.cfi_def_cfa_offset 16
	.cfi_offset %rbp, -16
	movq	%rsp, %rbp
	.cfi_def_cfa_register %rbp
	subq	$16, %rsp
	movq	%rdi, -8(%rbp)
Ltmp80:
	.loc	8 490 1 prologue_end
	callq	__ZN4core3ptr68drop_in_place$LT$core..option..Option$LT$std..thread..Thread$GT$$GT$17ha8d959616399b053E
	addq	$16, %rsp
	popq	%rbp
	retq
Ltmp81:
Lfunc_end25:
	.cfi_endproc

	.globl	__ZN4core4cell13Cell$LT$T$GT$3new17he2bda8fbdbc5e3a4E
	.p2align	4, 0x90
__ZN4core4cell13Cell$LT$T$GT$3new17he2bda8fbdbc5e3a4E:
Lfunc_begin26:
	.file	13 "/rustc/2c8cc343237b8f7d5a3c3703e3a87f2eb2c54a74/library/core/src" "cell.rs"
	.loc	13 345 0
	.cfi_startproc
	pushq	%rbp
	.cfi_def_cfa_offset 16
	.cfi_offset %rbp, -16
	movq	%rsp, %rbp
	.cfi_def_cfa_register %rbp
	subq	$32, %rsp
	movq	%rdi, -16(%rbp)
Ltmp82:
	.loc	13 346 39 prologue_end
	movq	%rdi, -8(%rbp)
Ltmp83:
	.loc	13 1953 9
	movq	%rdi, -24(%rbp)
Ltmp84:
	.loc	13 346 9
	movq	-24(%rbp), %rax
	movq	%rax, -32(%rbp)
	.loc	13 347 6
	movq	-32(%rbp), %rax
	addq	$32, %rsp
	popq	%rbp
	retq
Ltmp85:
Lfunc_end26:
	.cfi_endproc

	.globl	__ZN4core4cell13Cell$LT$T$GT$4take17hf5abcd9aeede93a7E
	.p2align	4, 0x90
__ZN4core4cell13Cell$LT$T$GT$4take17hf5abcd9aeede93a7E:
Lfunc_begin27:
	.loc	13 566 0
	.cfi_startproc
	pushq	%rbp
	.cfi_def_cfa_offset 16
	.cfi_offset %rbp, -16
	movq	%rsp, %rbp
	.cfi_def_cfa_register %rbp
	subq	$16, %rsp
	movq	%rdi, -16(%rbp)
	movq	%rdi, -8(%rbp)
Ltmp86:
	.loc	13 567 22 prologue_end
	callq	__ZN72_$LT$core..option..Option$LT$T$GT$$u20$as$u20$core..default..Default$GT$7default17hace6f5e1f061cb92E
	movq	-16(%rbp), %rdi
	movq	%rax, %rsi
	.loc	13 567 9 is_stmt 0
	callq	__ZN4core4cell13Cell$LT$T$GT$7replace17h3d4725fa2c865795E
	.loc	13 568 6 is_stmt 1
	addq	$16, %rsp
	popq	%rbp
	retq
Ltmp87:
Lfunc_end27:
	.cfi_endproc

	.globl	__ZN4core4cell13Cell$LT$T$GT$7replace17h3d4725fa2c865795E
	.p2align	4, 0x90
__ZN4core4cell13Cell$LT$T$GT$7replace17h3d4725fa2c865795E:
Lfunc_begin28:
	.loc	13 410 0
	.cfi_startproc
	.cfi_personality 155, _rust_eh_personality
	.cfi_lsda 16, Lexception2
	pushq	%rbp
	.cfi_def_cfa_offset 16
	.cfi_offset %rbp, -16
	movq	%rsp, %rbp
	.cfi_def_cfa_register %rbp
	subq	$48, %rsp
	movq	%rsi, -40(%rbp)
	movq	%rdi, -32(%rbp)
Ltmp94:
	.loc	13 413 37 prologue_end
	movq	%rdi, -24(%rbp)
	.loc	13 413 57 is_stmt 0
	movq	-40(%rbp), %rsi
Ltmp88:
	.loc	13 413 9
	callq	__ZN4core3mem7replace17h9f9d82d6e29aad18E
Ltmp89:
	movq	%rax, -48(%rbp)
	jmp	LBB28_3
LBB28_1:
	.loc	13 414 5 is_stmt 1
	xorl	%eax, %eax
	testb	$1, %al
	jne	LBB28_5
	jmp	LBB28_4
LBB28_2:
Ltmp90:
	.loc	13 0 5 is_stmt 0
	movq	%rax, %rcx
	movl	%edx, %eax
	movq	%rcx, -16(%rbp)
	movl	%eax, -8(%rbp)
	jmp	LBB28_1
LBB28_3:
	movq	-48(%rbp), %rax
	.loc	13 414 6
	addq	$48, %rsp
	popq	%rbp
	retq
LBB28_4:
	.loc	13 410 5 is_stmt 1
	movq	-16(%rbp), %rdi
	callq	__Unwind_Resume
LBB28_5:
Ltmp91:
	.loc	13 0 5 is_stmt 0
	leaq	-40(%rbp), %rdi
	.loc	13 414 5 is_stmt 1
	callq	__ZN4core3ptr68drop_in_place$LT$core..option..Option$LT$std..thread..Thread$GT$$GT$17ha8d959616399b053E
Ltmp92:
	jmp	LBB28_4
LBB28_6:
Ltmp93:
	.loc	13 410 5
	callq	__ZN4core9panicking19panic_cannot_unwind17h1fbca7e1d7f56ae1E
Ltmp95:
Lfunc_end28:
	.cfi_endproc
	.section	__TEXT,__gcc_except_tab
	.p2align	2
GCC_except_table28:
Lexception2:
	.byte	255
	.byte	255
	.byte	1
	.uleb128 Lcst_end2-Lcst_begin2
Lcst_begin2:
	.uleb128 Ltmp88-Lfunc_begin28
	.uleb128 Ltmp89-Ltmp88
	.uleb128 Ltmp90-Lfunc_begin28
	.byte	0
	.uleb128 Ltmp89-Lfunc_begin28
	.uleb128 Ltmp91-Ltmp89
	.byte	0
	.byte	0
	.uleb128 Ltmp91-Lfunc_begin28
	.uleb128 Ltmp92-Ltmp91
	.uleb128 Ltmp93-Lfunc_begin28
	.byte	0
Lcst_end2:
	.p2align	2

	.section	__TEXT,__text,regular,pure_instructions
	.p2align	4, 0x90
__ZN4core4sync6atomic10AtomicBool3new17h0500c8065fc0fe32E:
Lfunc_begin29:
	.file	14 "/rustc/2c8cc343237b8f7d5a3c3703e3a87f2eb2c54a74/library/core/src/sync" "atomic.rs"
	.loc	14 304 0
	.cfi_startproc
	pushq	%rbp
	.cfi_def_cfa_offset 16
	.cfi_offset %rbp, -16
	movq	%rsp, %rbp
	.cfi_def_cfa_register %rbp
	pushq	%rax
	movb	%dil, %al
	movb	%al, %cl
	andb	$1, %cl
	movb	%cl, -2(%rbp)
Ltmp96:
	.loc	14 305 41 prologue_end
	andb	$1, %al
	movb	%al, -1(%rbp)
Ltmp97:
	.loc	13 1953 9
	movb	%al, -3(%rbp)
Ltmp98:
	.loc	14 305 9
	movb	-3(%rbp), %al
	movb	%al, -8(%rbp)
	.loc	14 306 6
	movb	-8(%rbp), %al
	addq	$8, %rsp
	popq	%rbp
	retq
Ltmp99:
Lfunc_end29:
	.cfi_endproc

	.p2align	4, 0x90
__ZN4core4sync6atomic10AtomicBool4load17h95ae7932988e0349E:
Lfunc_begin30:
	.loc	14 453 0
	.cfi_startproc
	pushq	%rbp
	.cfi_def_cfa_offset 16
	.cfi_offset %rbp, -16
	movq	%rsp, %rbp
	.cfi_def_cfa_register %rbp
	subq	$32, %rsp
	movb	%sil, %al
	movq	%rdi, -24(%rbp)
	movb	%al, -9(%rbp)
Ltmp100:
	.loc	14 456 30 prologue_end
	movq	%rdi, -8(%rbp)
	.loc	14 456 18 is_stmt 0
	movzbl	%al, %esi
	callq	__ZN4core4sync6atomic11atomic_load17hbb6eaaad552e2f35E
	cmpb	$0, %al
	setne	%al
	.loc	14 457 6 is_stmt 1
	andb	$1, %al
	movzbl	%al, %eax
	addq	$32, %rsp
	popq	%rbp
	retq
Ltmp101:
Lfunc_end30:
	.cfi_endproc

	.p2align	4, 0x90
__ZN4core4sync6atomic10AtomicBool5store17h90d98c01dfe97db5E:
Lfunc_begin31:
	.loc	14 481 0
	.cfi_startproc
	pushq	%rbp
	.cfi_def_cfa_offset 16
	.cfi_offset %rbp, -16
	movq	%rsp, %rbp
	.cfi_def_cfa_register %rbp
	subq	$32, %rsp
	movb	%dl, %al
	movb	%sil, %cl
	movq	%rdi, -24(%rbp)
	movb	%cl, %dl
	andb	$1, %dl
	movb	%dl, -10(%rbp)
	movb	%al, -9(%rbp)
Ltmp102:
	.loc	14 485 26 prologue_end
	movq	%rdi, -8(%rbp)
	.loc	14 485 40 is_stmt 0
	andb	$1, %cl
	.loc	14 485 13
	movzbl	%cl, %esi
	movzbl	%al, %edx
	callq	__ZN4core4sync6atomic12atomic_store17h75ed86ae44613cb6E
	.loc	14 487 6 is_stmt 1
	addq	$32, %rsp
	popq	%rbp
	retq
Ltmp103:
Lfunc_end31:
	.cfi_endproc

	.globl	__ZN4core4sync6atomic10atomic_sub17he465655c7b861069E
	.p2align	4, 0x90
__ZN4core4sync6atomic10atomic_sub17he465655c7b861069E:
Lfunc_begin32:
	.loc	14 3069 0
	.cfi_startproc
	pushq	%rbp
	.cfi_def_cfa_offset 16
	.cfi_offset %rbp, -16
	movq	%rsp, %rbp
	.cfi_def_cfa_register %rbp
	subq	$56, %rsp
	movq	%rsi, -56(%rbp)
	movq	%rdi, -48(%rbp)
	movb	%dl, %al
	movb	%al, -25(%rbp)
	movq	%rdi, -16(%rbp)
	movq	%rsi, -8(%rbp)
Ltmp104:
	.loc	14 3072 15 prologue_end
	movzbl	-25(%rbp), %eax
	movq	%rax, -40(%rbp)
	.loc	14 0 15 is_stmt 0
	movq	-40(%rbp), %rax
	leaq	LJTI32_0(%rip), %rcx
	movslq	(%rcx,%rax,4), %rax
	addq	%rcx, %rax
	jmpq	*%rax
	.loc	14 3072 15
	ud2
LBB32_2:
	.loc	14 0 15
	movq	-48(%rbp), %rcx
	movq	-56(%rbp), %rax
	.loc	14 3073 24 is_stmt 1
	negq	%rax
	lock		xaddq	%rax, (%rcx)
	movq	%rax, -24(%rbp)
	.loc	14 3073 64 is_stmt 0
	jmp	LBB32_7
LBB32_3:
	.loc	14 0 64
	movq	-48(%rbp), %rcx
	movq	-56(%rbp), %rax
	.loc	14 3075 24 is_stmt 1
	negq	%rax
	lock		xaddq	%rax, (%rcx)
	movq	%rax, -24(%rbp)
	.loc	14 3075 64 is_stmt 0
	jmp	LBB32_7
LBB32_4:
	.loc	14 0 64
	movq	-48(%rbp), %rcx
	movq	-56(%rbp), %rax
	.loc	14 3074 24 is_stmt 1
	negq	%rax
	lock		xaddq	%rax, (%rcx)
	movq	%rax, -24(%rbp)
	.loc	14 3074 64 is_stmt 0
	jmp	LBB32_7
LBB32_5:
	.loc	14 0 64
	movq	-48(%rbp), %rcx
	movq	-56(%rbp), %rax
	.loc	14 3076 23 is_stmt 1
	negq	%rax
	lock		xaddq	%rax, (%rcx)
	movq	%rax, -24(%rbp)
	.loc	14 3076 62 is_stmt 0
	jmp	LBB32_7
LBB32_6:
	.loc	14 0 62
	movq	-48(%rbp), %rcx
	movq	-56(%rbp), %rax
	.loc	14 3077 23 is_stmt 1
	negq	%rax
	lock		xaddq	%rax, (%rcx)
	movq	%rax, -24(%rbp)
LBB32_7:
	.loc	14 3080 2
	movq	-24(%rbp), %rax
	addq	$56, %rsp
	popq	%rbp
	retq
Ltmp105:
Lfunc_end32:
	.cfi_endproc
	.p2align	2, 0x90
	.data_region jt32
.set L32_0_set_2, LBB32_2-LJTI32_0
.set L32_0_set_3, LBB32_3-LJTI32_0
.set L32_0_set_4, LBB32_4-LJTI32_0
.set L32_0_set_5, LBB32_5-LJTI32_0
.set L32_0_set_6, LBB32_6-LJTI32_0
LJTI32_0:
	.long	L32_0_set_2
	.long	L32_0_set_3
	.long	L32_0_set_4
	.long	L32_0_set_5
	.long	L32_0_set_6
	.end_data_region

	.globl	__ZN4core4sync6atomic11atomic_load17h84320365713df2adE
	.p2align	4, 0x90
__ZN4core4sync6atomic11atomic_load17h84320365713df2adE:
Lfunc_begin33:
	.loc	14 3019 0
	.cfi_startproc
	pushq	%rbp
	.cfi_def_cfa_offset 16
	.cfi_offset %rbp, -16
	movq	%rsp, %rbp
	.cfi_def_cfa_register %rbp
	subq	$160, %rsp
	movq	%rdi, -136(%rbp)
	movb	%sil, %al
	movb	%al, -113(%rbp)
	movq	%rdi, -8(%rbp)
Ltmp106:
	.loc	14 3022 15 prologue_end
	movzbl	-113(%rbp), %eax
	movq	%rax, -128(%rbp)
	.loc	14 0 15 is_stmt 0
	movq	-128(%rbp), %rax
	leaq	LJTI33_0(%rip), %rcx
	movslq	(%rcx,%rax,4), %rax
	addq	%rcx, %rax
	jmpq	*%rax
	.loc	14 3022 15
	ud2
LBB33_2:
	.loc	14 0 15
	movq	-136(%rbp), %rax
	.loc	14 3023 24 is_stmt 1
	movq	(%rax), %rax
	movq	%rax, -112(%rbp)
	.loc	14 3023 59 is_stmt 0
	jmp	LBB33_7
LBB33_3:
	.loc	14 3026 24 is_stmt 1
	leaq	l___unnamed_7(%rip), %rsi
	leaq	l___unnamed_5(%rip), %rcx
	xorl	%eax, %eax
	movl	%eax, %r8d
	leaq	-104(%rbp), %rdi
	movq	%rdi, -144(%rbp)
	movl	$1, %edx
	callq	__ZN4core3fmt9Arguments6new_v117hd7e62057d3e1f071E
	movq	-144(%rbp), %rdi
	leaq	l___unnamed_8(%rip), %rsi
	callq	__ZN4core9panicking9panic_fmt17h9b5d807e24bcaaedE
LBB33_4:
	.loc	14 0 24 is_stmt 0
	movq	-136(%rbp), %rax
	.loc	14 3024 24 is_stmt 1
	movq	(%rax), %rax
	movq	%rax, -112(%rbp)
	.loc	14 3024 59 is_stmt 0
	jmp	LBB33_7
LBB33_5:
	.loc	14 3027 23 is_stmt 1
	leaq	l___unnamed_9(%rip), %rsi
	leaq	l___unnamed_5(%rip), %rcx
	xorl	%eax, %eax
	movl	%eax, %r8d
	leaq	-56(%rbp), %rdi
	movq	%rdi, -152(%rbp)
	movl	$1, %edx
	callq	__ZN4core3fmt9Arguments6new_v117hd7e62057d3e1f071E
	movq	-152(%rbp), %rdi
	leaq	l___unnamed_10(%rip), %rsi
	callq	__ZN4core9panicking9panic_fmt17h9b5d807e24bcaaedE
LBB33_6:
	.loc	14 0 23 is_stmt 0
	movq	-136(%rbp), %rax
	.loc	14 3025 23 is_stmt 1
	movq	(%rax), %rax
	movq	%rax, -112(%rbp)
LBB33_7:
	.loc	14 3030 2
	movq	-112(%rbp), %rax
	addq	$160, %rsp
	popq	%rbp
	retq
Ltmp107:
Lfunc_end33:
	.cfi_endproc
	.p2align	2, 0x90
	.data_region jt32
.set L33_0_set_2, LBB33_2-LJTI33_0
.set L33_0_set_3, LBB33_3-LJTI33_0
.set L33_0_set_4, LBB33_4-LJTI33_0
.set L33_0_set_5, LBB33_5-LJTI33_0
.set L33_0_set_6, LBB33_6-LJTI33_0
LJTI33_0:
	.long	L33_0_set_2
	.long	L33_0_set_3
	.long	L33_0_set_4
	.long	L33_0_set_5
	.long	L33_0_set_6
	.end_data_region

	.globl	__ZN4core4sync6atomic11atomic_load17hbb6eaaad552e2f35E
	.p2align	4, 0x90
__ZN4core4sync6atomic11atomic_load17hbb6eaaad552e2f35E:
Lfunc_begin34:
	.loc	14 3019 0
	.cfi_startproc
	pushq	%rbp
	.cfi_def_cfa_offset 16
	.cfi_offset %rbp, -16
	movq	%rsp, %rbp
	.cfi_def_cfa_register %rbp
	subq	$144, %rsp
	movq	%rdi, -128(%rbp)
	movb	%sil, %al
	movb	%al, -106(%rbp)
	movq	%rdi, -8(%rbp)
Ltmp108:
	.loc	14 3022 15 prologue_end
	movzbl	-106(%rbp), %eax
	movq	%rax, -120(%rbp)
	.loc	14 0 15 is_stmt 0
	movq	-120(%rbp), %rax
	leaq	LJTI34_0(%rip), %rcx
	movslq	(%rcx,%rax,4), %rax
	addq	%rcx, %rax
	jmpq	*%rax
	.loc	14 3022 15
	ud2
LBB34_2:
	.loc	14 0 15
	movq	-128(%rbp), %rax
	.loc	14 3023 24 is_stmt 1
	movb	(%rax), %al
	movb	%al, -105(%rbp)
	.loc	14 3023 59 is_stmt 0
	jmp	LBB34_7
LBB34_3:
	.loc	14 3026 24 is_stmt 1
	leaq	l___unnamed_7(%rip), %rsi
	leaq	l___unnamed_5(%rip), %rcx
	xorl	%eax, %eax
	movl	%eax, %r8d
	leaq	-104(%rbp), %rdi
	movq	%rdi, -136(%rbp)
	movl	$1, %edx
	callq	__ZN4core3fmt9Arguments6new_v117hd7e62057d3e1f071E
	movq	-136(%rbp), %rdi
	leaq	l___unnamed_8(%rip), %rsi
	callq	__ZN4core9panicking9panic_fmt17h9b5d807e24bcaaedE
LBB34_4:
	.loc	14 0 24 is_stmt 0
	movq	-128(%rbp), %rax
	.loc	14 3024 24 is_stmt 1
	movb	(%rax), %al
	movb	%al, -105(%rbp)
	.loc	14 3024 59 is_stmt 0
	jmp	LBB34_7
LBB34_5:
	.loc	14 3027 23 is_stmt 1
	leaq	l___unnamed_9(%rip), %rsi
	leaq	l___unnamed_5(%rip), %rcx
	xorl	%eax, %eax
	movl	%eax, %r8d
	leaq	-56(%rbp), %rdi
	movq	%rdi, -144(%rbp)
	movl	$1, %edx
	callq	__ZN4core3fmt9Arguments6new_v117hd7e62057d3e1f071E
	movq	-144(%rbp), %rdi
	leaq	l___unnamed_10(%rip), %rsi
	callq	__ZN4core9panicking9panic_fmt17h9b5d807e24bcaaedE
LBB34_6:
	.loc	14 0 23 is_stmt 0
	movq	-128(%rbp), %rax
	.loc	14 3025 23 is_stmt 1
	movb	(%rax), %al
	movb	%al, -105(%rbp)
LBB34_7:
	.loc	14 3030 2
	movb	-105(%rbp), %al
	addq	$144, %rsp
	popq	%rbp
	retq
Ltmp109:
Lfunc_end34:
	.cfi_endproc
	.p2align	2, 0x90
	.data_region jt32
.set L34_0_set_2, LBB34_2-LJTI34_0
.set L34_0_set_3, LBB34_3-LJTI34_0
.set L34_0_set_4, LBB34_4-LJTI34_0
.set L34_0_set_5, LBB34_5-LJTI34_0
.set L34_0_set_6, LBB34_6-LJTI34_0
LJTI34_0:
	.long	L34_0_set_2
	.long	L34_0_set_3
	.long	L34_0_set_4
	.long	L34_0_set_5
	.long	L34_0_set_6
	.end_data_region

	.globl	__ZN4core4sync6atomic11atomic_swap17hdf70b2cf25f19421E
	.p2align	4, 0x90
__ZN4core4sync6atomic11atomic_swap17hdf70b2cf25f19421E:
Lfunc_begin35:
	.loc	14 3035 0
	.cfi_startproc
	pushq	%rbp
	.cfi_def_cfa_offset 16
	.cfi_offset %rbp, -16
	movq	%rsp, %rbp
	.cfi_def_cfa_register %rbp
	subq	$56, %rsp
	movq	%rsi, -56(%rbp)
	movq	%rdi, -48(%rbp)
	movb	%dl, %al
	movb	%al, -25(%rbp)
	movq	%rdi, -16(%rbp)
	movq	%rsi, -8(%rbp)
Ltmp110:
	.loc	14 3038 15 prologue_end
	movzbl	-25(%rbp), %eax
	movq	%rax, -40(%rbp)
	.loc	14 0 15 is_stmt 0
	movq	-40(%rbp), %rax
	leaq	LJTI35_0(%rip), %rcx
	movslq	(%rcx,%rax,4), %rax
	addq	%rcx, %rax
	jmpq	*%rax
	.loc	14 3038 15
	ud2
LBB35_2:
	.loc	14 0 15
	movq	-48(%rbp), %rcx
	movq	-56(%rbp), %rax
	.loc	14 3039 24 is_stmt 1
	xchgq	%rax, (%rcx)
	movq	%rax, -24(%rbp)
	.loc	14 3039 64 is_stmt 0
	jmp	LBB35_7
LBB35_3:
	.loc	14 0 64
	movq	-48(%rbp), %rcx
	movq	-56(%rbp), %rax
	.loc	14 3041 24 is_stmt 1
	xchgq	%rax, (%rcx)
	movq	%rax, -24(%rbp)
	.loc	14 3041 64 is_stmt 0
	jmp	LBB35_7
LBB35_4:
	.loc	14 0 64
	movq	-48(%rbp), %rcx
	movq	-56(%rbp), %rax
	.loc	14 3040 24 is_stmt 1
	xchgq	%rax, (%rcx)
	movq	%rax, -24(%rbp)
	.loc	14 3040 64 is_stmt 0
	jmp	LBB35_7
LBB35_5:
	.loc	14 0 64
	movq	-48(%rbp), %rcx
	movq	-56(%rbp), %rax
	.loc	14 3042 23 is_stmt 1
	xchgq	%rax, (%rcx)
	movq	%rax, -24(%rbp)
	.loc	14 3042 62 is_stmt 0
	jmp	LBB35_7
LBB35_6:
	.loc	14 0 62
	movq	-48(%rbp), %rcx
	movq	-56(%rbp), %rax
	.loc	14 3043 23 is_stmt 1
	xchgq	%rax, (%rcx)
	movq	%rax, -24(%rbp)
LBB35_7:
	.loc	14 3046 2
	movq	-24(%rbp), %rax
	addq	$56, %rsp
	popq	%rbp
	retq
Ltmp111:
Lfunc_end35:
	.cfi_endproc
	.p2align	2, 0x90
	.data_region jt32
.set L35_0_set_2, LBB35_2-LJTI35_0
.set L35_0_set_3, LBB35_3-LJTI35_0
.set L35_0_set_4, LBB35_4-LJTI35_0
.set L35_0_set_5, LBB35_5-LJTI35_0
.set L35_0_set_6, LBB35_6-LJTI35_0
LJTI35_0:
	.long	L35_0_set_2
	.long	L35_0_set_3
	.long	L35_0_set_4
	.long	L35_0_set_5
	.long	L35_0_set_6
	.end_data_region

	.globl	__ZN4core4sync6atomic12atomic_store17h75ed86ae44613cb6E
	.p2align	4, 0x90
__ZN4core4sync6atomic12atomic_store17h75ed86ae44613cb6E:
Lfunc_begin36:
	.loc	14 3004 0
	.cfi_startproc
	pushq	%rbp
	.cfi_def_cfa_offset 16
	.cfi_offset %rbp, -16
	movq	%rsp, %rbp
	.cfi_def_cfa_register %rbp
	subq	$160, %rsp
	movq	%rdi, -144(%rbp)
	movb	%dl, %cl
	movb	%sil, %al
	movb	%al, -129(%rbp)
	movb	%cl, -113(%rbp)
	movq	%rdi, -16(%rbp)
	movb	%al, -1(%rbp)
Ltmp112:
	.loc	14 3007 15 prologue_end
	movzbl	-113(%rbp), %eax
	movq	%rax, -128(%rbp)
	.loc	14 0 15 is_stmt 0
	movq	-128(%rbp), %rax
	leaq	LJTI36_0(%rip), %rcx
	movslq	(%rcx,%rax,4), %rax
	addq	%rcx, %rax
	jmpq	*%rax
	.loc	14 3007 15
	ud2
LBB36_2:
	.loc	14 0 15
	movq	-144(%rbp), %rax
	movb	-129(%rbp), %cl
	.loc	14 3008 24 is_stmt 1
	movb	%cl, (%rax)
	.loc	14 3008 65 is_stmt 0
	jmp	LBB36_7
LBB36_3:
	.loc	14 0 65
	movq	-144(%rbp), %rax
	movb	-129(%rbp), %cl
	.loc	14 3009 24 is_stmt 1
	movb	%cl, (%rax)
	.loc	14 3009 65 is_stmt 0
	jmp	LBB36_7
LBB36_4:
	.loc	14 3011 24 is_stmt 1
	leaq	l___unnamed_11(%rip), %rsi
	leaq	l___unnamed_5(%rip), %rcx
	xorl	%eax, %eax
	movl	%eax, %r8d
	leaq	-112(%rbp), %rdi
	movq	%rdi, -152(%rbp)
	movl	$1, %edx
	callq	__ZN4core3fmt9Arguments6new_v117hd7e62057d3e1f071E
	movq	-152(%rbp), %rdi
	leaq	l___unnamed_12(%rip), %rsi
	callq	__ZN4core9panicking9panic_fmt17h9b5d807e24bcaaedE
LBB36_5:
	.loc	14 3012 23
	leaq	l___unnamed_13(%rip), %rsi
	leaq	l___unnamed_5(%rip), %rcx
	xorl	%eax, %eax
	movl	%eax, %r8d
	leaq	-64(%rbp), %rdi
	movq	%rdi, -160(%rbp)
	movl	$1, %edx
	callq	__ZN4core3fmt9Arguments6new_v117hd7e62057d3e1f071E
	movq	-160(%rbp), %rdi
	leaq	l___unnamed_14(%rip), %rsi
	callq	__ZN4core9panicking9panic_fmt17h9b5d807e24bcaaedE
LBB36_6:
	.loc	14 0 23 is_stmt 0
	movq	-144(%rbp), %rcx
	movb	-129(%rbp), %al
	.loc	14 3010 23 is_stmt 1
	xchgb	%al, (%rcx)
LBB36_7:
	.loc	14 3015 2
	addq	$160, %rsp
	popq	%rbp
	retq
Ltmp113:
Lfunc_end36:
	.cfi_endproc
	.p2align	2, 0x90
	.data_region jt32
.set L36_0_set_2, LBB36_2-LJTI36_0
.set L36_0_set_3, LBB36_3-LJTI36_0
.set L36_0_set_4, LBB36_4-LJTI36_0
.set L36_0_set_5, LBB36_5-LJTI36_0
.set L36_0_set_6, LBB36_6-LJTI36_0
LJTI36_0:
	.long	L36_0_set_2
	.long	L36_0_set_3
	.long	L36_0_set_4
	.long	L36_0_set_5
	.long	L36_0_set_6
	.end_data_region

	.globl	__ZN4core4sync6atomic18AtomicPtr$LT$T$GT$16compare_exchange17hc860e7b827f272b1E
	.p2align	4, 0x90
__ZN4core4sync6atomic18AtomicPtr$LT$T$GT$16compare_exchange17hc860e7b827f272b1E:
Lfunc_begin37:
	.loc	14 1347 0
	.cfi_startproc
	pushq	%rbp
	.cfi_def_cfa_offset 16
	.cfi_offset %rbp, -16
	movq	%rsp, %rbp
	.cfi_def_cfa_register %rbp
	subq	$48, %rsp
	movb	%r8b, %al
	movq	%rdi, -40(%rbp)
	movq	%rsi, -32(%rbp)
	movq	%rdx, -24(%rbp)
	movb	%cl, -10(%rbp)
	movb	%al, -9(%rbp)
Ltmp114:
	.loc	14 1355 42 prologue_end
	movq	%rdi, -8(%rbp)
	.loc	14 1355 18 is_stmt 0
	movzbl	%cl, %ecx
	movzbl	%al, %r8d
	callq	__ZN4core4sync6atomic23atomic_compare_exchange17h0f513d2a043e8e6cE
	.loc	14 1356 6 is_stmt 1
	addq	$48, %rsp
	popq	%rbp
	retq
Ltmp115:
Lfunc_end37:
	.cfi_endproc

	.globl	__ZN4core4sync6atomic18AtomicPtr$LT$T$GT$4load17hf90da014d40dec35E
	.p2align	4, 0x90
__ZN4core4sync6atomic18AtomicPtr$LT$T$GT$4load17hf90da014d40dec35E:
Lfunc_begin38:
	.loc	14 1189 0
	.cfi_startproc
	pushq	%rbp
	.cfi_def_cfa_offset 16
	.cfi_offset %rbp, -16
	movq	%rsp, %rbp
	.cfi_def_cfa_register %rbp
	subq	$32, %rsp
	movb	%sil, %al
	movq	%rdi, -24(%rbp)
	movb	%al, -9(%rbp)
Ltmp116:
	.loc	14 1191 30 prologue_end
	movq	%rdi, -8(%rbp)
	.loc	14 1191 18 is_stmt 0
	movzbl	%al, %esi
	callq	__ZN4core4sync6atomic11atomic_load17h84320365713df2adE
	.loc	14 1192 6 is_stmt 1
	addq	$32, %rsp
	popq	%rbp
	retq
Ltmp117:
Lfunc_end38:
	.cfi_endproc

	.globl	__ZN4core4sync6atomic18AtomicPtr$LT$T$GT$4swap17h90f774847890b6beE
	.p2align	4, 0x90
__ZN4core4sync6atomic18AtomicPtr$LT$T$GT$4swap17h90f774847890b6beE:
Lfunc_begin39:
	.loc	14 1251 0
	.cfi_startproc
	pushq	%rbp
	.cfi_def_cfa_offset 16
	.cfi_offset %rbp, -16
	movq	%rsp, %rbp
	.cfi_def_cfa_register %rbp
	subq	$32, %rsp
	movb	%dl, %al
	movq	%rdi, -32(%rbp)
	movq	%rsi, -24(%rbp)
	movb	%al, -9(%rbp)
Ltmp118:
	.loc	14 1253 30 prologue_end
	movq	%rdi, -8(%rbp)
	.loc	14 1253 18 is_stmt 0
	movzbl	%al, %edx
	callq	__ZN4core4sync6atomic11atomic_swap17hdf70b2cf25f19421E
	.loc	14 1254 6 is_stmt 1
	addq	$32, %rsp
	popq	%rbp
	retq
Ltmp119:
Lfunc_end39:
	.cfi_endproc

	.globl	__ZN4core4sync6atomic23atomic_compare_exchange17h0f513d2a043e8e6cE
	.p2align	4, 0x90
__ZN4core4sync6atomic23atomic_compare_exchange17h0f513d2a043e8e6cE:
Lfunc_begin40:
	.loc	14 3085 0
	.cfi_startproc
	pushq	%rbp
	.cfi_def_cfa_offset 16
	.cfi_offset %rbp, -16
	movq	%rsp, %rbp
	.cfi_def_cfa_register %rbp
	subq	$288, %rsp
	movq	%rdx, -216(%rbp)
	movq	%rsi, -208(%rbp)
	movq	%rdi, -200(%rbp)
	movb	%r8b, %al
	movq	%rdi, -48(%rbp)
	movq	%rsi, -40(%rbp)
	movq	%rdx, -32(%rbp)
	movb	%cl, -18(%rbp)
	movb	%al, -17(%rbp)
Ltmp120:
	.loc	14 3094 15 prologue_end
	movb	%cl, -152(%rbp)
	movb	%al, -151(%rbp)
	movzbl	-152(%rbp), %eax
	movq	%rax, -192(%rbp)
	.loc	14 0 15 is_stmt 0
	movq	-192(%rbp), %rax
	leaq	LJTI40_0(%rip), %rcx
	movslq	(%rcx,%rax,4), %rax
	addq	%rcx, %rax
	jmpq	*%rax
	.loc	14 3094 9
	ud2
LBB40_2:
	.loc	14 3094 15
	movzbl	-151(%rbp), %eax
	movq	%rax, -224(%rbp)
	testq	%rax, %rax
	.loc	14 3094 9
	je	LBB40_21
	jmp	LBB40_38
LBB40_38:
	.loc	14 0 9
	movq	-224(%rbp), %rax
	.loc	14 3094 9
	subq	$2, %rax
	je	LBB40_22
	jmp	LBB40_39
LBB40_39:
	.loc	14 0 9
	movq	-224(%rbp), %rax
	.loc	14 3094 9
	subq	$4, %rax
	je	LBB40_23
	jmp	LBB40_7
LBB40_3:
	.loc	14 3094 15
	movzbl	-151(%rbp), %eax
	movq	%rax, -232(%rbp)
	testq	%rax, %rax
	.loc	14 3094 9
	je	LBB40_18
	jmp	LBB40_36
LBB40_36:
	.loc	14 0 9
	movq	-232(%rbp), %rax
	.loc	14 3094 9
	subq	$2, %rax
	je	LBB40_19
	jmp	LBB40_37
LBB40_37:
	.loc	14 0 9
	movq	-232(%rbp), %rax
	.loc	14 3094 9
	subq	$4, %rax
	je	LBB40_20
	jmp	LBB40_7
LBB40_4:
	.loc	14 3094 15
	movzbl	-151(%rbp), %eax
	movq	%rax, -240(%rbp)
	testq	%rax, %rax
	.loc	14 3094 9
	je	LBB40_15
	jmp	LBB40_34
LBB40_34:
	.loc	14 0 9
	movq	-240(%rbp), %rax
	.loc	14 3094 9
	subq	$2, %rax
	je	LBB40_16
	jmp	LBB40_35
LBB40_35:
	.loc	14 0 9
	movq	-240(%rbp), %rax
	.loc	14 3094 9
	subq	$4, %rax
	je	LBB40_17
	jmp	LBB40_7
LBB40_5:
	.loc	14 3094 15
	movzbl	-151(%rbp), %eax
	movq	%rax, -248(%rbp)
	testq	%rax, %rax
	.loc	14 3094 9
	je	LBB40_12
	jmp	LBB40_32
LBB40_32:
	.loc	14 0 9
	movq	-248(%rbp), %rax
	.loc	14 3094 9
	subq	$2, %rax
	je	LBB40_13
	jmp	LBB40_33
LBB40_33:
	.loc	14 0 9
	movq	-248(%rbp), %rax
	.loc	14 3094 9
	subq	$4, %rax
	je	LBB40_14
	jmp	LBB40_7
LBB40_6:
	.loc	14 3094 15
	movzbl	-151(%rbp), %eax
	movq	%rax, -256(%rbp)
	testq	%rax, %rax
	.loc	14 3094 9
	je	LBB40_8
	jmp	LBB40_30
LBB40_30:
	.loc	14 0 9
	movq	-256(%rbp), %rax
	.loc	14 3094 9
	subq	$2, %rax
	je	LBB40_9
	jmp	LBB40_31
LBB40_31:
	.loc	14 0 9
	movq	-256(%rbp), %rax
	.loc	14 3094 9
	subq	$4, %rax
	je	LBB40_10
	jmp	LBB40_7
LBB40_7:
	.loc	14 3094 15
	movzbl	-151(%rbp), %eax
	.loc	14 3094 9
	cmpq	$1, %rax
	je	LBB40_24
	jmp	LBB40_25
LBB40_8:
	.loc	14 0 9
	movq	-200(%rbp), %rcx
	movq	-216(%rbp), %rdx
	movq	-208(%rbp), %rax
	.loc	14 3107 34 is_stmt 1
	lock		cmpxchgq	%rdx, (%rcx)
	movq	%rax, %rcx
	sete	%al
	andb	$1, %al
	movq	%rcx, -168(%rbp)
	movb	%al, -160(%rbp)
	.loc	14 3107 87 is_stmt 0
	jmp	LBB40_11
LBB40_9:
	.loc	14 0 87
	movq	-200(%rbp), %rcx
	movq	-216(%rbp), %rdx
	movq	-208(%rbp), %rax
	.loc	14 3108 34 is_stmt 1
	lock		cmpxchgq	%rdx, (%rcx)
	movq	%rax, %rcx
	sete	%al
	andb	$1, %al
	movq	%rcx, -168(%rbp)
	movb	%al, -160(%rbp)
	.loc	14 3108 87 is_stmt 0
	jmp	LBB40_11
LBB40_10:
	.loc	14 0 87
	movq	-200(%rbp), %rcx
	movq	-216(%rbp), %rdx
	movq	-208(%rbp), %rax
	.loc	14 3109 33 is_stmt 1
	lock		cmpxchgq	%rdx, (%rcx)
	movq	%rax, %rcx
	sete	%al
	andb	$1, %al
	movq	%rcx, -168(%rbp)
	movb	%al, -160(%rbp)
LBB40_11:
	.loc	14 3093 10
	movq	-168(%rbp), %rax
	movq	%rax, -264(%rbp)
	movq	%rax, -16(%rbp)
	.loc	14 3093 15 is_stmt 0
	movb	-160(%rbp), %al
	movb	%al, %cl
	andb	$1, %cl
	movb	%cl, -1(%rbp)
Ltmp121:
	.loc	14 3114 8 is_stmt 1
	testb	$1, %al
	jne	LBB40_27
	jmp	LBB40_26
Ltmp122:
LBB40_12:
	.loc	14 0 8 is_stmt 0
	movq	-200(%rbp), %rcx
	movq	-216(%rbp), %rdx
	movq	-208(%rbp), %rax
	.loc	14 3104 34 is_stmt 1
	lock		cmpxchgq	%rdx, (%rcx)
	movq	%rax, %rcx
	sete	%al
	andb	$1, %al
	movq	%rcx, -168(%rbp)
	movb	%al, -160(%rbp)
	.loc	14 3104 87 is_stmt 0
	jmp	LBB40_11
LBB40_13:
	.loc	14 0 87
	movq	-200(%rbp), %rcx
	movq	-216(%rbp), %rdx
	movq	-208(%rbp), %rax
	.loc	14 3105 34 is_stmt 1
	lock		cmpxchgq	%rdx, (%rcx)
	movq	%rax, %rcx
	sete	%al
	andb	$1, %al
	movq	%rcx, -168(%rbp)
	movb	%al, -160(%rbp)
	.loc	14 3105 87 is_stmt 0
	jmp	LBB40_11
LBB40_14:
	.loc	14 0 87
	movq	-200(%rbp), %rcx
	movq	-216(%rbp), %rdx
	movq	-208(%rbp), %rax
	.loc	14 3106 33 is_stmt 1
	lock		cmpxchgq	%rdx, (%rcx)
	movq	%rax, %rcx
	sete	%al
	andb	$1, %al
	movq	%rcx, -168(%rbp)
	movb	%al, -160(%rbp)
	.loc	14 3106 85 is_stmt 0
	jmp	LBB40_11
LBB40_15:
	.loc	14 0 85
	movq	-200(%rbp), %rcx
	movq	-216(%rbp), %rdx
	movq	-208(%rbp), %rax
	.loc	14 3098 35 is_stmt 1
	lock		cmpxchgq	%rdx, (%rcx)
	movq	%rax, %rcx
	sete	%al
	andb	$1, %al
	movq	%rcx, -168(%rbp)
	movb	%al, -160(%rbp)
	.loc	14 3098 89 is_stmt 0
	jmp	LBB40_11
LBB40_16:
	.loc	14 0 89
	movq	-200(%rbp), %rcx
	movq	-216(%rbp), %rdx
	movq	-208(%rbp), %rax
	.loc	14 3099 35 is_stmt 1
	lock		cmpxchgq	%rdx, (%rcx)
	movq	%rax, %rcx
	sete	%al
	andb	$1, %al
	movq	%rcx, -168(%rbp)
	movb	%al, -160(%rbp)
	.loc	14 3099 89 is_stmt 0
	jmp	LBB40_11
LBB40_17:
	.loc	14 0 89
	movq	-200(%rbp), %rcx
	movq	-216(%rbp), %rdx
	movq	-208(%rbp), %rax
	.loc	14 3100 34 is_stmt 1
	lock		cmpxchgq	%rdx, (%rcx)
	movq	%rax, %rcx
	sete	%al
	andb	$1, %al
	movq	%rcx, -168(%rbp)
	movb	%al, -160(%rbp)
	.loc	14 3100 87 is_stmt 0
	jmp	LBB40_11
LBB40_18:
	.loc	14 0 87
	movq	-200(%rbp), %rcx
	movq	-216(%rbp), %rdx
	movq	-208(%rbp), %rax
	.loc	14 3101 35 is_stmt 1
	lock		cmpxchgq	%rdx, (%rcx)
	movq	%rax, %rcx
	sete	%al
	andb	$1, %al
	movq	%rcx, -168(%rbp)
	movb	%al, -160(%rbp)
	.loc	14 3101 89 is_stmt 0
	jmp	LBB40_11
LBB40_19:
	.loc	14 0 89
	movq	-200(%rbp), %rcx
	movq	-216(%rbp), %rdx
	movq	-208(%rbp), %rax
	.loc	14 3102 35 is_stmt 1
	lock		cmpxchgq	%rdx, (%rcx)
	movq	%rax, %rcx
	sete	%al
	andb	$1, %al
	movq	%rcx, -168(%rbp)
	movb	%al, -160(%rbp)
	.loc	14 3102 89 is_stmt 0
	jmp	LBB40_11
LBB40_20:
	.loc	14 0 89
	movq	-200(%rbp), %rcx
	movq	-216(%rbp), %rdx
	movq	-208(%rbp), %rax
	.loc	14 3103 34 is_stmt 1
	lock		cmpxchgq	%rdx, (%rcx)
	movq	%rax, %rcx
	sete	%al
	andb	$1, %al
	movq	%rcx, -168(%rbp)
	movb	%al, -160(%rbp)
	.loc	14 3103 87 is_stmt 0
	jmp	LBB40_11
LBB40_21:
	.loc	14 0 87
	movq	-200(%rbp), %rcx
	movq	-216(%rbp), %rdx
	movq	-208(%rbp), %rax
	.loc	14 3095 35 is_stmt 1
	lock		cmpxchgq	%rdx, (%rcx)
	movq	%rax, %rcx
	sete	%al
	andb	$1, %al
	movq	%rcx, -168(%rbp)
	movb	%al, -160(%rbp)
	.loc	14 3095 89 is_stmt 0
	jmp	LBB40_11
LBB40_22:
	.loc	14 0 89
	movq	-200(%rbp), %rcx
	movq	-216(%rbp), %rdx
	movq	-208(%rbp), %rax
	.loc	14 3096 35 is_stmt 1
	lock		cmpxchgq	%rdx, (%rcx)
	movq	%rax, %rcx
	sete	%al
	andb	$1, %al
	movq	%rcx, -168(%rbp)
	movb	%al, -160(%rbp)
	.loc	14 3096 89 is_stmt 0
	jmp	LBB40_11
LBB40_23:
	.loc	14 0 89
	movq	-200(%rbp), %rcx
	movq	-216(%rbp), %rdx
	movq	-208(%rbp), %rax
	.loc	14 3097 34 is_stmt 1
	lock		cmpxchgq	%rdx, (%rcx)
	movq	%rax, %rcx
	sete	%al
	andb	$1, %al
	movq	%rcx, -168(%rbp)
	movb	%al, -160(%rbp)
	.loc	14 3097 87 is_stmt 0
	jmp	LBB40_11
LBB40_24:
	.loc	14 3111 29 is_stmt 1
	leaq	l___unnamed_15(%rip), %rsi
	leaq	l___unnamed_5(%rip), %rcx
	xorl	%eax, %eax
	movl	%eax, %r8d
	leaq	-96(%rbp), %rdi
	movq	%rdi, -272(%rbp)
	movl	$1, %edx
	callq	__ZN4core3fmt9Arguments6new_v117hd7e62057d3e1f071E
	movq	-272(%rbp), %rdi
	leaq	l___unnamed_16(%rip), %rsi
	callq	__ZN4core9panicking9panic_fmt17h9b5d807e24bcaaedE
LBB40_25:
	.loc	14 3110 28
	leaq	l___unnamed_17(%rip), %rsi
	leaq	l___unnamed_5(%rip), %rcx
	xorl	%eax, %eax
	movl	%eax, %r8d
	leaq	-144(%rbp), %rdi
	movq	%rdi, -280(%rbp)
	movl	$1, %edx
	callq	__ZN4core3fmt9Arguments6new_v117hd7e62057d3e1f071E
	movq	-280(%rbp), %rdi
	leaq	l___unnamed_18(%rip), %rsi
	callq	__ZN4core9panicking9panic_fmt17h9b5d807e24bcaaedE
LBB40_26:
	.loc	14 0 28 is_stmt 0
	movq	-264(%rbp), %rax
Ltmp123:
	.loc	14 3114 30 is_stmt 1
	movq	%rax, -176(%rbp)
	movq	$1, -184(%rbp)
	.loc	14 3114 5 is_stmt 0
	jmp	LBB40_28
LBB40_27:
	.loc	14 0 5
	movq	-264(%rbp), %rax
	.loc	14 3114 13
	movq	%rax, -176(%rbp)
	movq	$0, -184(%rbp)
Ltmp124:
LBB40_28:
	.loc	14 3115 2 is_stmt 1
	movq	-184(%rbp), %rax
	movq	-176(%rbp), %rdx
	addq	$288, %rsp
	popq	%rbp
	retq
Ltmp125:
Lfunc_end40:
	.cfi_endproc
	.p2align	2, 0x90
	.data_region jt32
.set L40_0_set_2, LBB40_2-LJTI40_0
.set L40_0_set_3, LBB40_3-LJTI40_0
.set L40_0_set_4, LBB40_4-LJTI40_0
.set L40_0_set_5, LBB40_5-LJTI40_0
.set L40_0_set_6, LBB40_6-LJTI40_0
LJTI40_0:
	.long	L40_0_set_2
	.long	L40_0_set_3
	.long	L40_0_set_4
	.long	L40_0_set_5
	.long	L40_0_set_6
	.end_data_region

	.p2align	4, 0x90
__ZN4core4sync6atomic5fence17h8224f838941fca1dE:
Lfunc_begin41:
	.loc	14 3362 0
	.cfi_startproc
	pushq	%rbp
	.cfi_def_cfa_offset 16
	.cfi_offset %rbp, -16
	movq	%rsp, %rbp
	.cfi_def_cfa_register %rbp
	subq	$80, %rsp
	movb	%dil, %al
	movb	%al, -49(%rbp)
Ltmp126:
	.loc	14 3365 15 prologue_end
	movzbl	-49(%rbp), %eax
	movq	%rax, -64(%rbp)
	.loc	14 0 15 is_stmt 0
	movq	-64(%rbp), %rax
	leaq	LJTI41_0(%rip), %rcx
	movslq	(%rcx,%rax,4), %rax
	addq	%rcx, %rax
	jmpq	*%rax
	.loc	14 3365 15
	ud2
LBB41_2:
	.loc	14 3370 24 is_stmt 1
	leaq	l___unnamed_19(%rip), %rsi
	leaq	l___unnamed_5(%rip), %rcx
	xorl	%eax, %eax
	movl	%eax, %r8d
	leaq	-48(%rbp), %rdi
	movq	%rdi, -72(%rbp)
	movl	$1, %edx
	callq	__ZN4core3fmt9Arguments6new_v117hd7e62057d3e1f071E
	movq	-72(%rbp), %rdi
	leaq	l___unnamed_20(%rip), %rsi
	callq	__ZN4core9panicking9panic_fmt17h9b5d807e24bcaaedE
LBB41_3:
	##MEMBARRIER
	.loc	14 3367 24
	jmp	LBB41_7
LBB41_4:
	##MEMBARRIER
	.loc	14 3366 24
	jmp	LBB41_7
LBB41_5:
	##MEMBARRIER
	.loc	14 3368 23
	jmp	LBB41_7
LBB41_6:
	.loc	14 3369 23
	mfence
LBB41_7:
	.loc	14 3373 2
	addq	$80, %rsp
	popq	%rbp
	retq
Ltmp127:
Lfunc_end41:
	.cfi_endproc
	.p2align	2, 0x90
	.data_region jt32
.set L41_0_set_2, LBB41_2-LJTI41_0
.set L41_0_set_3, LBB41_3-LJTI41_0
.set L41_0_set_4, LBB41_4-LJTI41_0
.set L41_0_set_5, LBB41_5-LJTI41_0
.set L41_0_set_6, LBB41_6-LJTI41_0
LJTI41_0:
	.long	L41_0_set_2
	.long	L41_0_set_3
	.long	L41_0_set_4
	.long	L41_0_set_5
	.long	L41_0_set_6
	.end_data_region

	.globl	__ZN4core5alloc6layout6Layout13for_value_raw17h2f0b0cb0f2f67fa7E
	.p2align	4, 0x90
__ZN4core5alloc6layout6Layout13for_value_raw17h2f0b0cb0f2f67fa7E:
Lfunc_begin42:
	.file	15 "/rustc/2c8cc343237b8f7d5a3c3703e3a87f2eb2c54a74/library/core/src/alloc" "layout.rs"
	.loc	15 197 0
	.cfi_startproc
	pushq	%rbp
	.cfi_def_cfa_offset 16
	.cfi_offset %rbp, -16
	movq	%rsp, %rbp
	.cfi_def_cfa_register %rbp
	subq	$120, %rsp
	movq	%rdi, -88(%rbp)
Ltmp128:
	.loc	15 199 60 prologue_end
	movq	%rdi, -80(%rbp)
Ltmp129:
	.loc	7 387 14
	movq	$56, -72(%rbp)
	movq	-72(%rbp), %rcx
Ltmp130:
	.loc	15 199 86
	movq	%rdi, -64(%rbp)
Ltmp131:
	.loc	7 529 14
	movq	$8, -56(%rbp)
	movq	-56(%rbp), %rax
Ltmp132:
	.loc	15 199 38
	movq	%rcx, -104(%rbp)
	movq	%rax, -96(%rbp)
	.loc	15 199 14 is_stmt 0
	movq	-104(%rbp), %rcx
	movq	%rcx, -48(%rbp)
	.loc	15 199 20
	movq	-96(%rbp), %rax
	movq	%rax, -40(%rbp)
Ltmp133:
	.loc	15 201 52 is_stmt 1
	movq	%rcx, -32(%rbp)
	.loc	15 201 58 is_stmt 0
	movq	%rax, -24(%rbp)
Ltmp134:
	.loc	15 120 65 is_stmt 1
	movq	%rax, -16(%rbp)
Ltmp135:
	.file	16 "/rustc/2c8cc343237b8f7d5a3c3703e3a87f2eb2c54a74/library/core/src/ptr" "alignment.rs"
	.loc	16 89 18
	movq	%rax, -8(%rbp)
	movq	-8(%rbp), %rax
Ltmp136:
	.loc	15 120 18
	movq	%rcx, -120(%rbp)
	movq	%rax, -112(%rbp)
Ltmp137:
	.loc	15 202 6
	movq	-120(%rbp), %rax
	movq	-112(%rbp), %rdx
	addq	$120, %rsp
	popq	%rbp
	retq
Ltmp138:
Lfunc_end42:
	.cfi_endproc

	.globl	__ZN4core6option15Option$LT$T$GT$6unwrap17hadc1c5047c10901eE
	.p2align	4, 0x90
__ZN4core6option15Option$LT$T$GT$6unwrap17hadc1c5047c10901eE:
Lfunc_begin43:
	.file	17 "/rustc/2c8cc343237b8f7d5a3c3703e3a87f2eb2c54a74/library/core/src" "option.rs"
	.loc	17 820 0
	.cfi_startproc
	pushq	%rbp
	.cfi_def_cfa_offset 16
	.cfi_offset %rbp, -16
	movq	%rsp, %rbp
	.cfi_def_cfa_register %rbp
	subq	$32, %rsp
	movq	%rsi, -24(%rbp)
	movq	%rdi, -16(%rbp)
Ltmp139:
	.loc	17 821 15 prologue_end
	movq	-16(%rbp), %rdx
	movl	$1, %eax
	xorl	%ecx, %ecx
	cmpq	$0, %rdx
	cmoveq	%rcx, %rax
	.loc	17 821 9 is_stmt 0
	cmpq	$0, %rax
	jne	LBB43_2
	.loc	17 0 9
	movq	-24(%rbp), %rdx
	.loc	17 823 21 is_stmt 1
	leaq	l___unnamed_21(%rip), %rdi
	movl	$43, %esi
	callq	__ZN4core9panicking5panic17hc1bc45270cf64b03E
LBB43_2:
	.loc	17 822 18
	movq	-16(%rbp), %rax
	movq	%rax, -8(%rbp)
	.loc	17 825 6
	addq	$32, %rsp
	popq	%rbp
	retq
Ltmp140:
Lfunc_end43:
	.cfi_endproc

	.globl	__ZN4core9panicking13assert_failed17h027553750f4c4032E
	.p2align	4, 0x90
__ZN4core9panicking13assert_failed17h027553750f4c4032E:
Lfunc_begin44:
	.file	18 "/rustc/2c8cc343237b8f7d5a3c3703e3a87f2eb2c54a74/library/core/src" "panicking.rs"
	.loc	18 202 0
	.cfi_startproc
	pushq	%rbp
	.cfi_def_cfa_offset 16
	.cfi_offset %rbp, -16
	movq	%rsp, %rbp
	.cfi_def_cfa_register %rbp
	subq	$96, %rsp
	movq	%rcx, -80(%rbp)
Ltmp141:
	movq	%rdx, %rcx
	movq	-80(%rbp), %rdx
	movb	%dil, %al
	movq	%rsi, -72(%rbp)
	movq	%rcx, -64(%rbp)
	movb	%al, -1(%rbp)
Ltmp142:
	.loc	18 212 46 prologue_end
	movq	40(%rdx), %rcx
	movq	%rcx, -16(%rbp)
	movq	32(%rdx), %rcx
	movq	%rcx, -24(%rbp)
	movq	24(%rdx), %rcx
	movq	%rcx, -32(%rbp)
	movq	16(%rdx), %rcx
	movq	%rcx, -40(%rbp)
	movq	(%rdx), %rcx
	movq	8(%rdx), %rdx
	movq	%rdx, -48(%rbp)
	movq	%rcx, -56(%rbp)
	.loc	18 212 5 is_stmt 0
	movq	%rsp, %rcx
	movq	%r8, (%rcx)
	movzbl	%al, %edi
	leaq	l___unnamed_1(%rip), %r8
	leaq	-72(%rbp), %rsi
	leaq	-64(%rbp), %rcx
	leaq	-56(%rbp), %r9
	movq	%r8, %rdx
	callq	__ZN4core9panicking19assert_failed_inner17hccca5a268c0d7621E
Ltmp143:
Lfunc_end44:
	.cfi_endproc

	.globl	__ZN5alloc2rc11is_dangling17h2d4a85bbada52233E
	.p2align	4, 0x90
__ZN5alloc2rc11is_dangling17h2d4a85bbada52233E:
Lfunc_begin45:
	.file	19 "/rustc/2c8cc343237b8f7d5a3c3703e3a87f2eb2c54a74/library/alloc/src" "rc.rs"
	.loc	19 2221 0 is_stmt 1
	.cfi_startproc
	pushq	%rbp
	.cfi_def_cfa_offset 16
	.cfi_offset %rbp, -16
	movq	%rsp, %rbp
	.cfi_def_cfa_register %rbp
	subq	$32, %rsp
	movq	%rdi, -32(%rbp)
Ltmp144:
	.loc	19 2222 5 prologue_end
	movq	%rdi, -24(%rbp)
Ltmp145:
	.loc	12 215 33
	movq	%rdi, -16(%rbp)
	.loc	12 215 18 is_stmt 0
	movq	%rdi, -8(%rbp)
Ltmp146:
	.loc	19 2222 5 is_stmt 1
	cmpq	$-1, -8(%rbp)
	sete	%al
	.loc	19 2223 2
	andb	$1, %al
	movzbl	%al, %eax
	addq	$32, %rsp
	popq	%rbp
	retq
Ltmp147:
Lfunc_end45:
	.cfi_endproc

	.globl	__ZN5alloc4sync12Arc$LT$T$GT$9drop_slow17h4e462df81007cdf8E
	.p2align	4, 0x90
__ZN5alloc4sync12Arc$LT$T$GT$9drop_slow17h4e462df81007cdf8E:
Lfunc_begin46:
	.loc	3 1120 0
	.cfi_startproc
	pushq	%rbp
	.cfi_def_cfa_offset 16
	.cfi_offset %rbp, -16
	movq	%rsp, %rbp
	.cfi_def_cfa_register %rbp
	subq	$48, %rsp
	movq	%rdi, -40(%rbp)
	movq	%rdi, -24(%rbp)
Ltmp148:
	.loc	3 1123 61 prologue_end
	movq	%rdi, -16(%rbp)
Ltmp149:
	.loc	3 1646 25
	movq	(%rdi), %rdi
	movq	%rdi, -8(%rbp)
	.loc	3 1646 18 is_stmt 0
	addq	$16, %rdi
Ltmp150:
	.loc	3 1123 18 is_stmt 1
	callq	__ZN4core3ptr39drop_in_place$LT$std..thread..Inner$GT$17h4d3e57f5d4bbe974E
	movq	-40(%rbp), %rdi
	.loc	3 1126 26
	movq	(%rdi), %rax
	.loc	3 1126 14 is_stmt 0
	movq	%rax, -32(%rbp)
Ltmp151:
	.loc	7 980 24 is_stmt 1
	leaq	-32(%rbp), %rdi
	callq	__ZN4core3ptr64drop_in_place$LT$alloc..sync..Weak$LT$std..thread..Inner$GT$$GT$17hc57f2111e135a64dE
Ltmp152:
	.loc	3 1127 6
	addq	$48, %rsp
	popq	%rbp
	retq
Ltmp153:
Lfunc_end46:
	.cfi_endproc

	.globl	__ZN5alloc4sync13Weak$LT$T$GT$5inner17h0c2e30f904dead4fE
	.p2align	4, 0x90
__ZN5alloc4sync13Weak$LT$T$GT$5inner17h0c2e30f904dead4fE:
Lfunc_begin47:
	.loc	3 2092 0
	.cfi_startproc
	pushq	%rbp
	.cfi_def_cfa_offset 16
	.cfi_offset %rbp, -16
	movq	%rsp, %rbp
	.cfi_def_cfa_register %rbp
	subq	$80, %rsp
	movq	%rdi, -72(%rbp)
	movq	%rdi, -32(%rbp)
Ltmp154:
	.loc	3 2093 24 prologue_end
	movq	(%rdi), %rdi
	movq	%rdi, -24(%rbp)
	.loc	3 2093 12 is_stmt 0
	callq	__ZN5alloc2rc11is_dangling17h2d4a85bbada52233E
	testb	$1, %al
	jne	LBB47_2
	.loc	3 0 12
	movq	-72(%rbp), %rax
	.loc	3 2100 27 is_stmt 1
	movq	(%rax), %rax
	movq	%rax, -16(%rbp)
Ltmp155:
	.loc	4 326 9
	movq	%rax, -8(%rbp)
Ltmp156:
	.loc	3 2101 59
	movq	%rax, %rcx
	addq	$8, %rcx
	.loc	3 2101 17 is_stmt 0
	movq	%rcx, -48(%rbp)
	movq	%rax, -40(%rbp)
Ltmp157:
	.loc	3 2099 13 is_stmt 1
	movq	-48(%rbp), %rcx
	movq	-40(%rbp), %rax
	movq	%rcx, -64(%rbp)
	movq	%rax, -56(%rbp)
	.loc	3 2093 9
	jmp	LBB47_3
LBB47_2:
	.loc	3 2094 13
	movq	$0, -64(%rbp)
LBB47_3:
	.loc	3 2104 6
	movq	-64(%rbp), %rax
	movq	-56(%rbp), %rdx
	addq	$80, %rsp
	popq	%rbp
	retq
Ltmp158:
Lfunc_end47:
	.cfi_endproc

	.globl	__ZN5alloc5alloc8box_free17hb681dda36d0be3b9E
	.p2align	4, 0x90
__ZN5alloc5alloc8box_free17hb681dda36d0be3b9E:
Lfunc_begin48:
	.file	20 "/rustc/2c8cc343237b8f7d5a3c3703e3a87f2eb2c54a74/library/alloc/src" "alloc.rs"
	.loc	20 340 0
	.cfi_startproc
	.cfi_personality 155, _rust_eh_personality
	.cfi_lsda 16, Lexception3
	pushq	%rbp
	.cfi_def_cfa_offset 16
	.cfi_offset %rbp, -16
	movq	%rsp, %rbp
	.cfi_def_cfa_register %rbp
	subq	$304, %rsp
	movq	%rdi, -288(%rbp)
	movq	%rsi, -280(%rbp)
Ltmp162:
	.loc	20 345 32 prologue_end
	leaq	-288(%rbp), %rax
	movq	%rax, -224(%rbp)
Ltmp163:
	.file	21 "/rustc/2c8cc343237b8f7d5a3c3703e3a87f2eb2c54a74/library/core/src/ptr" "unique.rs"
	.loc	21 117 18
	leaq	-288(%rbp), %rax
	movq	%rax, -216(%rbp)
Ltmp164:
	.loc	4 376 20
	movq	-288(%rbp), %rcx
	movq	-280(%rbp), %rax
	movq	%rcx, -208(%rbp)
	movq	%rax, -200(%rbp)
Ltmp165:
	.loc	20 345 20
	shlq	$0, %rax
	movq	%rax, -192(%rbp)
	movq	-192(%rbp), %rcx
	movq	%rcx, -304(%rbp)
	movq	%rcx, -184(%rbp)
Ltmp166:
	.loc	20 346 38
	leaq	-288(%rbp), %rax
	movq	%rax, -176(%rbp)
Ltmp167:
	.loc	21 117 18
	leaq	-288(%rbp), %rax
	movq	%rax, -168(%rbp)
Ltmp168:
	.loc	4 376 20
	movq	-288(%rbp), %rdx
	movq	-280(%rbp), %rax
	movq	%rdx, -160(%rbp)
	movq	%rax, -152(%rbp)
Ltmp169:
	.loc	20 346 21
	movq	$1, -144(%rbp)
	movq	-144(%rbp), %rax
	movq	%rax, -136(%rbp)
Ltmp170:
	.loc	20 347 56
	movq	%rcx, -128(%rbp)
	.loc	20 347 62 is_stmt 0
	movq	%rax, -120(%rbp)
Ltmp171:
	.loc	15 120 65 is_stmt 1
	movq	%rax, -112(%rbp)
Ltmp172:
	.loc	16 89 18
	movq	%rax, -104(%rbp)
	movq	-104(%rbp), %rax
	movq	%rax, -296(%rbp)
Ltmp173:
	.loc	16 0 18 is_stmt 0
	movq	-296(%rbp), %rax
	movq	-304(%rbp), %rcx
	.loc	15 120 18 is_stmt 1
	movq	%rcx, -264(%rbp)
	movq	%rax, -256(%rbp)
Ltmp174:
	.loc	20 348 37
	movq	-288(%rbp), %rax
	movq	-280(%rbp), %rcx
	movq	%rax, -96(%rbp)
	movq	%rcx, -88(%rbp)
Ltmp175:
	.loc	21 137 22
	movq	%rax, -80(%rbp)
	movq	%rcx, -72(%rbp)
Ltmp176:
	.loc	4 450 41
	movq	%rax, -64(%rbp)
	movq	%rcx, -56(%rbp)
	movq	%rax, -48(%rbp)
Ltmp177:
	.loc	4 201 13
	movq	%rax, -232(%rbp)
Ltmp178:
	.loc	21 191 18
	movq	-232(%rbp), %rax
	.loc	21 191 9 is_stmt 0
	movq	%rax, -240(%rbp)
Ltmp179:
	.loc	4 768 41 is_stmt 1
	movq	-240(%rbp), %rax
	movq	%rax, -40(%rbp)
Ltmp180:
	.loc	21 104 9
	movq	%rax, -32(%rbp)
Ltmp181:
	.loc	4 326 9
	movq	%rax, -24(%rbp)
Ltmp182:
	.loc	4 201 13
	movq	%rax, -248(%rbp)
Ltmp183:
	.loc	20 348 50
	movq	-264(%rbp), %rdx
	movq	-256(%rbp), %rcx
	.loc	20 348 9 is_stmt 0
	movq	-248(%rbp), %rsi
Ltmp159:
	leaq	-272(%rbp), %rdi
	callq	__ZN63_$LT$alloc..alloc..Global$u20$as$u20$core..alloc..Allocator$GT$10deallocate17ha4ed99c75fa188e1E
Ltmp160:
	jmp	LBB48_4
Ltmp184:
LBB48_2:
	.loc	20 340 1 is_stmt 1
	movq	-16(%rbp), %rdi
	callq	__Unwind_Resume
LBB48_3:
Ltmp161:
	.loc	20 0 1 is_stmt 0
	movq	%rax, %rcx
	movl	%edx, %eax
	movq	%rcx, -16(%rbp)
	movl	%eax, -8(%rbp)
	jmp	LBB48_2
LBB48_4:
	.loc	20 350 2 is_stmt 1
	addq	$304, %rsp
	popq	%rbp
	retq
Ltmp185:
Lfunc_end48:
	.cfi_endproc
	.section	__TEXT,__gcc_except_tab
	.p2align	2
GCC_except_table48:
Lexception3:
	.byte	255
	.byte	255
	.byte	1
	.uleb128 Lcst_end3-Lcst_begin3
Lcst_begin3:
	.uleb128 Ltmp159-Lfunc_begin48
	.uleb128 Ltmp160-Ltmp159
	.uleb128 Ltmp161-Lfunc_begin48
	.byte	0
	.uleb128 Ltmp160-Lfunc_begin48
	.uleb128 Lfunc_end48-Ltmp160
	.byte	0
	.byte	0
Lcst_end3:
	.p2align	2

	.section	__TEXT,__text,regular,pure_instructions
	.p2align	4, 0x90
__ZN63_$LT$alloc..alloc..Global$u20$as$u20$core..alloc..Allocator$GT$10deallocate17ha4ed99c75fa188e1E:
Lfunc_begin49:
	.loc	20 246 0
	.cfi_startproc
	pushq	%rbp
	.cfi_def_cfa_offset 16
	.cfi_offset %rbp, -16
	movq	%rsp, %rbp
	.cfi_def_cfa_register %rbp
	subq	$112, %rsp
	movq	%rsi, -112(%rbp)
	movq	%rdx, -104(%rbp)
	movq	%rcx, -96(%rbp)
	movq	%rdi, -64(%rbp)
	movq	%rsi, -56(%rbp)
Ltmp186:
	.loc	20 247 12 prologue_end
	leaq	-104(%rbp), %rax
	movq	%rax, -48(%rbp)
	cmpq	$0, -104(%rbp)
	jne	LBB49_2
	.loc	20 247 9 is_stmt 0
	jmp	LBB49_3
LBB49_2:
	.loc	20 0 9
	movq	-112(%rbp), %rdi
	.loc	20 250 30 is_stmt 1
	movq	%rdi, -40(%rbp)
Ltmp187:
	.loc	4 326 9
	movq	%rdi, -32(%rbp)
Ltmp188:
	.loc	20 250 44
	movq	-104(%rbp), %rcx
	movq	-96(%rbp), %rax
	movq	%rcx, -88(%rbp)
	movq	%rax, -80(%rbp)
Ltmp189:
	.loc	20 113 34
	leaq	-88(%rbp), %rax
	movq	%rax, -24(%rbp)
Ltmp190:
	.loc	15 129 9
	movq	-88(%rbp), %rsi
Ltmp191:
	.loc	20 113 49
	leaq	-88(%rbp), %rax
	movq	%rax, -16(%rbp)
Ltmp192:
	.loc	15 140 9
	movq	-80(%rbp), %rax
	movq	%rax, -8(%rbp)
Ltmp193:
	.loc	16 97 9
	movq	%rax, -72(%rbp)
	movq	-72(%rbp), %rdx
Ltmp194:
	.loc	20 113 14
	callq	___rust_dealloc
Ltmp195:
LBB49_3:
	.loc	20 252 6
	addq	$112, %rsp
	popq	%rbp
	retq
Ltmp196:
Lfunc_end49:
	.cfi_endproc

	.globl	__ZN67_$LT$alloc..sync..Arc$LT$T$GT$$u20$as$u20$core..ops..drop..Drop$GT$4drop17h9a3a43325f2342b1E
	.p2align	4, 0x90
__ZN67_$LT$alloc..sync..Arc$LT$T$GT$$u20$as$u20$core..ops..drop..Drop$GT$4drop17h9a3a43325f2342b1E:
Lfunc_begin50:
	.loc	3 1706 0
	.cfi_startproc
	pushq	%rbp
	.cfi_def_cfa_offset 16
	.cfi_offset %rbp, -16
	movq	%rsp, %rbp
	.cfi_def_cfa_register %rbp
	subq	$64, %rsp
	movq	%rdi, -64(%rbp)
	movq	%rdi, -48(%rbp)
Ltmp197:
	.loc	3 1710 12 prologue_end
	movq	%rdi, -40(%rbp)
Ltmp198:
	.loc	3 1115 18
	movq	%rdi, -32(%rbp)
Ltmp199:
	.loc	4 376 20
	movq	(%rdi), %rdi
	movq	%rdi, -24(%rbp)
Ltmp200:
	.loc	3 1710 12
	movq	%rdi, -16(%rbp)
Ltmp201:
	.loc	14 2409 37
	movq	%rdi, -8(%rbp)
	.loc	14 2409 26 is_stmt 0
	movl	$1, %esi
	movl	$1, %edx
	callq	__ZN4core4sync6atomic10atomic_sub17he465655c7b861069E
Ltmp202:
	.loc	3 1710 12 is_stmt 1
	cmpq	$1, %rax
	jne	LBB50_2
	.loc	3 1742 9
	movb	$2, -49(%rbp)
	movzbl	-49(%rbp), %edi
	callq	__ZN4core4sync6atomic5fence17h8224f838941fca1dE
	movq	-64(%rbp), %rdi
	.loc	3 1745 13
	callq	__ZN5alloc4sync12Arc$LT$T$GT$9drop_slow17h4e462df81007cdf8E
	.loc	3 1747 6
	jmp	LBB50_3
LBB50_2:
	jmp	LBB50_3
LBB50_3:
	addq	$64, %rsp
	popq	%rbp
	retq
Ltmp203:
Lfunc_end50:
	.cfi_endproc

	.p2align	4, 0x90
__ZN68_$LT$alloc..ffi..c_str..CString$u20$as$u20$core..ops..drop..Drop$GT$4drop17h4c66e4e583ab337cE:
Lfunc_begin51:
	.file	22 "/rustc/2c8cc343237b8f7d5a3c3703e3a87f2eb2c54a74/library/alloc/src/ffi" "c_str.rs"
	.loc	22 701 0
	.cfi_startproc
	pushq	%rbp
	.cfi_def_cfa_offset 16
	.cfi_offset %rbp, -16
	movq	%rsp, %rbp
	.cfi_def_cfa_register %rbp
	subq	$80, %rsp
	movq	%rdi, -80(%rbp)
Ltmp204:
	.loc	22 703 14 prologue_end
	movq	(%rdi), %rax
	movq	8(%rdi), %rcx
	movq	%rax, -72(%rbp)
	movq	%rcx, -64(%rbp)
Ltmp205:
	.file	23 "/rustc/2c8cc343237b8f7d5a3c3703e3a87f2eb2c54a74/library/core/src/slice" "mod.rs"
	.loc	23 443 48
	movq	%rax, -56(%rbp)
	movq	%rcx, -48(%rbp)
Ltmp206:
	.file	24 "/rustc/2c8cc343237b8f7d5a3c3703e3a87f2eb2c54a74/library/core/src/slice" "index.rs"
	.loc	24 253 13
	movq	%rax, -40(%rbp)
	movq	%rcx, -32(%rbp)
Ltmp207:
	.loc	12 2037 9
	movq	%rax, -24(%rbp)
Ltmp208:
	.loc	12 1034 18
	movq	%rax, -16(%rbp)
Ltmp209:
	.loc	12 487 18
	movq	%rax, -8(%rbp)
	movq	-8(%rbp), %rax
Ltmp210:
	.loc	22 703 13
	movb	$0, (%rax)
	.loc	22 705 6
	addq	$80, %rsp
	popq	%rbp
	retq
Ltmp211:
Lfunc_end51:
	.cfi_endproc

	.globl	__ZN68_$LT$alloc..sync..Weak$LT$T$GT$$u20$as$u20$core..ops..drop..Drop$GT$4drop17h991eb9a1860ac064E
	.p2align	4, 0x90
__ZN68_$LT$alloc..sync..Weak$LT$T$GT$$u20$as$u20$core..ops..drop..Drop$GT$4drop17h991eb9a1860ac064E:
Lfunc_begin52:
	.loc	3 2237 0
	.cfi_startproc
	pushq	%rbp
	.cfi_def_cfa_offset 16
	.cfi_offset %rbp, -16
	movq	%rsp, %rbp
	.cfi_def_cfa_register %rbp
	subq	$144, %rsp
	movq	%rdi, -128(%rbp)
	movq	%rdi, -72(%rbp)
Ltmp212:
	.loc	3 2246 42 prologue_end
	callq	__ZN5alloc4sync13Weak$LT$T$GT$5inner17h0c2e30f904dead4fE
	movq	%rdx, -96(%rbp)
	movq	%rax, -104(%rbp)
	.loc	3 2246 28 is_stmt 0
	movq	-104(%rbp), %rdx
	movl	$1, %eax
	xorl	%ecx, %ecx
	cmpq	$0, %rdx
	cmoveq	%rcx, %rax
	cmpq	$1, %rax
	jne	LBB52_2
	.loc	3 2246 33
	movq	-104(%rbp), %rcx
	movq	-96(%rbp), %rax
	movq	%rcx, -64(%rbp)
	movq	%rax, -56(%rbp)
	.loc	3 2246 57
	movq	%rcx, -120(%rbp)
	movq	%rax, -112(%rbp)
Ltmp213:
	.loc	3 2248 12 is_stmt 1
	movq	-120(%rbp), %rdi
	movq	%rdi, -48(%rbp)
Ltmp214:
	.loc	14 2409 37
	movq	%rdi, -40(%rbp)
	.loc	14 2409 26 is_stmt 0
	movl	$1, %esi
	movl	$1, %edx
	callq	__ZN4core4sync6atomic10atomic_sub17he465655c7b861069E
Ltmp215:
	.loc	3 2248 12 is_stmt 1
	cmpq	$1, %rax
	je	LBB52_4
	jmp	LBB52_5
Ltmp216:
LBB52_2:
	.loc	3 2252 6
	jmp	LBB52_3
LBB52_3:
	addq	$144, %rsp
	popq	%rbp
	retq
LBB52_4:
Ltmp217:
	.loc	3 2249 13
	movb	$2, -81(%rbp)
	movzbl	-81(%rbp), %edi
	callq	__ZN4core4sync6atomic5fence17h8224f838941fca1dE
	movq	-128(%rbp), %rax
	.loc	3 2250 40
	movq	(%rax), %rcx
	movq	%rcx, -32(%rbp)
Ltmp218:
	.loc	4 450 41
	movq	%rcx, -24(%rbp)
	movq	%rcx, -16(%rbp)
Ltmp219:
	.loc	4 201 13
	movq	%rcx, -80(%rbp)
Ltmp220:
	.loc	3 2250 79
	movq	(%rax), %rdi
	movq	%rdi, -8(%rbp)
	.loc	3 2250 57 is_stmt 0
	callq	__ZN4core5alloc6layout6Layout13for_value_raw17h2f0b0cb0f2f67fa7E
	movq	%rax, -136(%rbp)
	movq	%rdx, %rcx
	movq	-136(%rbp), %rdx
	.loc	3 2250 22
	movq	-80(%rbp), %rsi
	leaq	l___unnamed_5(%rip), %rdi
	callq	__ZN63_$LT$alloc..alloc..Global$u20$as$u20$core..alloc..Allocator$GT$10deallocate17ha4ed99c75fa188e1E
	.loc	3 2248 9 is_stmt 1
	jmp	LBB52_6
LBB52_5:
	jmp	LBB52_6
Ltmp221:
LBB52_6:
	.loc	3 2252 6
	jmp	LBB52_3
Ltmp222:
Lfunc_end52:
	.cfi_endproc

	.globl	__ZN72_$LT$core..option..Option$LT$T$GT$$u20$as$u20$core..default..Default$GT$7default17hace6f5e1f061cb92E
	.p2align	4, 0x90
__ZN72_$LT$core..option..Option$LT$T$GT$$u20$as$u20$core..default..Default$GT$7default17hace6f5e1f061cb92E:
Lfunc_begin53:
	.loc	17 1966 0
	.cfi_startproc
	pushq	%rbp
	.cfi_def_cfa_offset 16
	.cfi_offset %rbp, -16
	movq	%rsp, %rbp
	.cfi_def_cfa_register %rbp
	pushq	%rax
Ltmp223:
	.loc	17 1967 9 prologue_end
	movq	$0, -8(%rbp)
	.loc	17 1968 6
	movq	-8(%rbp), %rax
	addq	$8, %rsp
	popq	%rbp
	retq
Ltmp224:
Lfunc_end53:
	.cfi_endproc

	.globl	__ZN63_$LT$once_cell..imp..Guard$u20$as$u20$core..ops..drop..Drop$GT$4drop17h5d0d8424f2402f18E
	.p2align	4, 0x90
__ZN63_$LT$once_cell..imp..Guard$u20$as$u20$core..ops..drop..Drop$GT$4drop17h5d0d8424f2402f18E:
Lfunc_begin54:
	.file	25 "/Users/natalie/.cargo/registry/src/github.com-1ecc6299db9ec823/once_cell-1.16.0" "src/imp_std.rs"
	.loc	25 161 0
	.cfi_startproc
	.cfi_personality 155, _rust_eh_personality
	.cfi_lsda 16, Lexception4
	pushq	%rbp
	.cfi_def_cfa_offset 16
	.cfi_offset %rbp, -16
	movq	%rsp, %rbp
	.cfi_def_cfa_register %rbp
	subq	$208, %rsp
	movq	%rdi, %rax
	movq	%rax, -56(%rbp)
Ltmp233:
	.loc	25 162 21 prologue_end
	movq	8(%rax), %rdi
	.loc	25 162 37 is_stmt 0
	movq	(%rax), %rsi
	.loc	25 162 53
	movb	$3, -161(%rbp)
	.loc	25 162 21
	movzbl	-161(%rbp), %edx
	callq	__ZN4core4sync6atomic18AtomicPtr$LT$T$GT$4swap17h90f774847890b6beE
	movq	%rax, %rdi
	movq	%rdi, -192(%rbp)
	movq	%rdi, -48(%rbp)
Ltmp234:
	.loc	25 164 21 is_stmt 1
	callq	__ZN9once_cell3imp6strict4addr17h237578b2c8e5b483E
	andq	$3, %rax
	movq	%rax, -160(%rbp)
Ltmp235:
	.loc	25 165 9
	leaq	-160(%rbp), %rax
	movq	%rax, -152(%rbp)
	leaq	L___unnamed_22(%rip), %rax
	movq	%rax, -144(%rbp)
	movq	-152(%rbp), %rax
	movq	%rax, -184(%rbp)
	movq	%rax, -40(%rbp)
	movq	-144(%rbp), %rcx
	movq	%rcx, -176(%rbp)
	movq	%rcx, -32(%rbp)
Ltmp236:
	.loc	25 165 9 is_stmt 0
	cmpq	$1, (%rax)
	sete	%al
	xorb	$-1, %al
	testb	$1, %al
	jne	LBB54_2
Ltmp237:
	.loc	25 0 9
	movq	-192(%rbp), %rdi
	.loc	25 168 30 is_stmt 1
	callq	__ZN9once_cell3imp6strict8map_addr17h431d48ad70cb608bE
	movq	%rax, -80(%rbp)
	jmp	LBB54_3
LBB54_2:
	.loc	25 0 30 is_stmt 0
	movq	-176(%rbp), %rdx
	movq	-184(%rbp), %rsi
Ltmp238:
	.loc	25 165 9 is_stmt 1
	movb	$0, -129(%rbp)
Ltmp239:
	.loc	25 165 9 is_stmt 0
	movq	$0, -112(%rbp)
	leaq	l___unnamed_23(%rip), %r8
	xorl	%edi, %edi
	leaq	-128(%rbp), %rcx
	callq	__ZN4core9panicking13assert_failed17h027553750f4c4032E
Ltmp240:
LBB54_3:
	.loc	25 169 20 is_stmt 1
	movq	-80(%rbp), %rdi
	callq	__ZN4core3ptr7mut_ptr31_$LT$impl$u20$$BP$mut$u20$T$GT$7is_null17h5d44853b0653cb28E
	.loc	25 169 19 is_stmt 0
	xorb	$-1, %al
	testb	$1, %al
	jne	LBB54_5
Ltmp241:
	.loc	25 177 6 is_stmt 1
	addq	$208, %rsp
	popq	%rbp
	retq
LBB54_5:
Ltmp242:
	.loc	25 170 28
	movq	-80(%rbp), %rax
	movq	8(%rax), %rax
	movq	%rax, -200(%rbp)
	movq	%rax, -24(%rbp)
Ltmp243:
	.loc	25 171 30
	movq	-80(%rbp), %rdi
	callq	__ZN4core4cell13Cell$LT$T$GT$4take17hf5abcd9aeede93a7E
	movq	%rax, %rdi
	leaq	l___unnamed_24(%rip), %rsi
	callq	__ZN4core6option15Option$LT$T$GT$6unwrap17hadc1c5047c10901eE
	movq	%rax, -72(%rbp)
Ltmp244:
	.loc	25 172 17
	movq	-80(%rbp), %rdi
	addq	$16, %rdi
	.loc	25 172 48 is_stmt 0
	movb	$1, -57(%rbp)
	.loc	25 172 17
	movzbl	-57(%rbp), %edx
Ltmp225:
	movl	$1, %esi
	callq	__ZN4core4sync6atomic10AtomicBool5store17h90d98c01dfe97db5E
Ltmp226:
	jmp	LBB54_8
Ltmp245:
LBB54_6:
Ltmp230:
	.loc	25 0 17
	leaq	-72(%rbp), %rdi
	.loc	25 175 13 is_stmt 1
	callq	__ZN4core3ptr40drop_in_place$LT$std..thread..Thread$GT$17h403ecf8e5181ab08E
Ltmp231:
	jmp	LBB54_11
LBB54_7:
Ltmp229:
	.loc	25 0 13 is_stmt 0
	movq	%rax, %rcx
	movl	%edx, %eax
	movq	%rcx, -16(%rbp)
	movl	%eax, -8(%rbp)
	jmp	LBB54_6
LBB54_8:
	movq	-200(%rbp), %rax
Ltmp246:
	.loc	25 173 17 is_stmt 1
	movq	%rax, -80(%rbp)
Ltmp227:
	leaq	-72(%rbp), %rdi
	.loc	25 174 17
	callq	__ZN3std6thread6Thread6unpark17h45e01ff0f93d369dE
Ltmp228:
	jmp	LBB54_9
Ltmp247:
LBB54_9:
	.loc	25 175 13
	leaq	-72(%rbp), %rdi
	callq	__ZN4core3ptr40drop_in_place$LT$std..thread..Thread$GT$17h403ecf8e5181ab08E
	jmp	LBB54_3
Ltmp248:
LBB54_10:
Ltmp232:
	.loc	25 161 5
	callq	__ZN4core9panicking19panic_cannot_unwind17h1fbca7e1d7f56ae1E
LBB54_11:
	movq	-16(%rbp), %rdi
	callq	__Unwind_Resume
Ltmp249:
Lfunc_end54:
	.cfi_endproc
	.section	__TEXT,__gcc_except_tab
	.p2align	2
GCC_except_table54:
Lexception4:
	.byte	255
	.byte	255
	.byte	1
	.uleb128 Lcst_end4-Lcst_begin4
Lcst_begin4:
	.uleb128 Lfunc_begin54-Lfunc_begin54
	.uleb128 Ltmp225-Lfunc_begin54
	.byte	0
	.byte	0
	.uleb128 Ltmp225-Lfunc_begin54
	.uleb128 Ltmp226-Ltmp225
	.uleb128 Ltmp229-Lfunc_begin54
	.byte	0
	.uleb128 Ltmp230-Lfunc_begin54
	.uleb128 Ltmp231-Ltmp230
	.uleb128 Ltmp232-Lfunc_begin54
	.byte	0
	.uleb128 Ltmp227-Lfunc_begin54
	.uleb128 Ltmp228-Ltmp227
	.uleb128 Ltmp229-Lfunc_begin54
	.byte	0
	.uleb128 Ltmp228-Lfunc_begin54
	.uleb128 Lfunc_end54-Ltmp228
	.byte	0
	.byte	0
Lcst_end4:
	.p2align	2

	.section	__TEXT,__text,regular,pure_instructions
	.p2align	4, 0x90
__ZN63_$LT$once_cell..imp..Guard$u20$as$u20$core..ops..drop..Drop$GT$4drop28_$u7b$$u7b$closure$u7d$$u7d$17hda12c01c2b2ffa2fE:
Lfunc_begin55:
	.loc	25 168 0
	.cfi_startproc
	pushq	%rbp
	.cfi_def_cfa_offset 16
	.cfi_offset %rbp, -16
	movq	%rsp, %rbp
	.cfi_def_cfa_register %rbp
	subq	$16, %rsp
	movq	%rdi, %rax
	movq	%rax, -8(%rbp)
Ltmp250:
	.loc	25 168 58 prologue_end
	andq	$-4, %rax
	.loc	25 168 73 is_stmt 0
	addq	$16, %rsp
	popq	%rbp
	retq
Ltmp251:
Lfunc_end55:
	.cfi_endproc

	.globl	__ZN9once_cell3imp18initialize_or_wait17h0c9ce2870e073081E
	.p2align	4, 0x90
__ZN9once_cell3imp18initialize_or_wait17h0c9ce2870e073081E:
Lfunc_begin56:
	.loc	25 187 0 is_stmt 1
	.cfi_startproc
	.cfi_personality 155, _rust_eh_personality
	.cfi_lsda 16, Lexception5
	pushq	%rbp
	.cfi_def_cfa_offset 16
	.cfi_offset %rbp, -16
	movq	%rsp, %rbp
	.cfi_def_cfa_register %rbp
	subq	$192, %rsp
	movq	%rdi, -144(%rbp)
	movq	%rsi, -136(%rbp)
	movq	%rdx, -128(%rbp)
Ltmp258:
	.loc	25 188 26 prologue_end
	movq	-144(%rbp), %rdi
	.loc	25 188 37 is_stmt 0
	movb	$2, -105(%rbp)
	.loc	25 188 26
	movzbl	-105(%rbp), %esi
	callq	__ZN4core4sync6atomic18AtomicPtr$LT$T$GT$4load17hf90da014d40dec35E
	movq	%rax, -120(%rbp)
LBB56_1:
Ltmp259:
	.loc	25 191 39 is_stmt 1
	movq	-120(%rbp), %rdi
	.loc	25 191 26 is_stmt 0
	callq	__ZN9once_cell3imp6strict4addr17h237578b2c8e5b483E
	andl	$3, %eax
	movq	%rax, -40(%rbp)
Ltmp260:
	.loc	25 192 15 is_stmt 1
	movq	%rax, -104(%rbp)
	leaq	-136(%rbp), %rax
	movq	%rax, -96(%rbp)
	.loc	25 192 9 is_stmt 0
	movq	-104(%rbp), %rax
	movq	%rax, -152(%rbp)
	testq	%rax, %rax
	je	LBB56_4
	jmp	LBB56_16
LBB56_16:
	.loc	25 0 9
	movq	-152(%rbp), %rax
	.loc	25 192 9
	subq	$1, %rax
	je	LBB56_5
	jmp	LBB56_17
LBB56_17:
	.loc	25 0 9
	movq	-152(%rbp), %rax
	.loc	25 192 9
	subq	$2, %rax
	je	LBB56_3
	jmp	LBB56_2
LBB56_2:
	.loc	25 215 18 is_stmt 1
	leaq	l___unnamed_25(%rip), %rdi
	leaq	l___unnamed_26(%rip), %rdx
	movl	$23, %esi
	callq	__ZN4core9panicking5panic17hc1bc45270cf64b03E
Ltmp261:
LBB56_3:
	.loc	25 218 2
	addq	$192, %rsp
	popq	%rbp
	retq
LBB56_4:
Ltmp262:
	.loc	25 192 15
	movq	-96(%rbp), %rax
	movq	(%rax), %rdx
	movl	$1, %eax
	xorl	%ecx, %ecx
	cmpq	$0, %rdx
	cmoveq	%rcx, %rax
	.loc	25 192 9 is_stmt 0
	cmpq	$0, %rax
	jne	LBB56_6
LBB56_5:
	.loc	25 212 22 is_stmt 1
	movq	-144(%rbp), %rdi
	.loc	25 212 30 is_stmt 0
	movq	-120(%rbp), %rsi
	.loc	25 212 17
	callq	__ZN9once_cell3imp4wait17h323ad4df0b06d97fE
	.loc	25 213 30 is_stmt 1
	movq	-144(%rbp), %rdi
	.loc	25 213 41 is_stmt 0
	movb	$2, -41(%rbp)
	.loc	25 213 30
	movzbl	-41(%rbp), %esi
	callq	__ZN4core4sync6atomic18AtomicPtr$LT$T$GT$4load17hf90da014d40dec35E
	.loc	25 213 17
	movq	%rax, -120(%rbp)
	.loc	25 211 50 is_stmt 1
	jmp	LBB56_1
LBB56_6:
	.loc	25 194 31
	movq	-96(%rbp), %rax
	movq	%rax, -176(%rbp)
	movq	%rax, -32(%rbp)
Ltmp263:
	.loc	25 195 32
	movq	-144(%rbp), %rax
	movq	%rax, -168(%rbp)
	.loc	25 196 21
	movq	-120(%rbp), %rdi
	movq	%rdi, -160(%rbp)
	.loc	25 197 21
	callq	__ZN9once_cell3imp6strict8map_addr17h6f07e58942c6c1acE
	movq	-168(%rbp), %rdi
	movq	-160(%rbp), %rsi
	movq	%rax, %rdx
	.loc	25 198 21
	movb	$2, -66(%rbp)
	.loc	25 199 21
	movb	$2, -65(%rbp)
	.loc	25 195 32
	movzbl	-65(%rbp), %r8d
	movzbl	-66(%rbp), %ecx
	callq	__ZN4core4sync6atomic18AtomicPtr$LT$T$GT$16compare_exchange17hc860e7b827f272b1E
	movq	%rdx, -80(%rbp)
	movq	%rax, -88(%rbp)
Ltmp264:
	.loc	25 201 24
	cmpq	$1, -88(%rbp)
	jne	LBB56_8
	.loc	25 201 28 is_stmt 0
	movq	-80(%rbp), %rax
	movq	%rax, -8(%rbp)
	.loc	25 202 21 is_stmt 1
	movq	%rax, -120(%rbp)
Ltmp265:
	.file	26 "/Users/natalie/.cargo/registry/src/github.com-1ecc6299db9ec823/once_cell-1.16.0" "src/lib.rs"
	.loc	26 1 1
	jmp	LBB56_1
LBB56_8:
	.loc	26 0 1 is_stmt 0
	movq	-176(%rbp), %rdi
Ltmp266:
	.loc	25 205 41 is_stmt 1
	movq	-144(%rbp), %rax
	.loc	25 205 33 is_stmt 0
	movq	%rax, -56(%rbp)
	movq	$0, -64(%rbp)
Ltmp252:
Ltmp267:
	.loc	25 206 20 is_stmt 1
	callq	__ZN4core3ops8function5impls79_$LT$impl$u20$core..ops..function..FnMut$LT$A$GT$$u20$for$u20$$RF$mut$u20$F$GT$8call_mut17h09b99285b93e2b73E
Ltmp253:
	movb	%al, -177(%rbp)
	jmp	LBB56_11
Ltmp268:
LBB56_9:
Ltmp255:
	.loc	25 0 20 is_stmt 0
	leaq	-64(%rbp), %rdi
	.loc	25 210 13 is_stmt 1
	callq	__ZN4core3ptr42drop_in_place$LT$once_cell..imp..Guard$GT$17hea6ff8d3800fa925E
Ltmp256:
	jmp	LBB56_13
LBB56_10:
Ltmp254:
	.loc	25 0 13 is_stmt 0
	movq	%rax, %rcx
	movl	%edx, %eax
	movq	%rcx, -24(%rbp)
	movl	%eax, -16(%rbp)
	jmp	LBB56_9
LBB56_11:
	movb	-177(%rbp), %al
Ltmp269:
	.loc	25 206 20 is_stmt 1
	testb	$1, %al
	jne	LBB56_15
	jmp	LBB56_14
Ltmp270:
LBB56_12:
Ltmp257:
	.loc	25 187 1
	callq	__ZN4core9panicking19panic_cannot_unwind17h1fbca7e1d7f56ae1E
LBB56_13:
	movq	-24(%rbp), %rdi
	callq	__Unwind_Resume
LBB56_14:
Ltmp271:
	.loc	25 210 13
	leaq	-64(%rbp), %rdi
	callq	__ZN4core3ptr42drop_in_place$LT$once_cell..imp..Guard$GT$17hea6ff8d3800fa925E
	jmp	LBB56_3
LBB56_15:
Ltmp272:
	.loc	25 207 21
	movl	$2, %eax
	movq	%rax, -64(%rbp)
	.loc	25 206 17
	jmp	LBB56_14
Ltmp273:
Lfunc_end56:
	.cfi_endproc
	.section	__TEXT,__gcc_except_tab
	.p2align	2
GCC_except_table56:
Lexception5:
	.byte	255
	.byte	255
	.byte	1
	.uleb128 Lcst_end5-Lcst_begin5
Lcst_begin5:
	.uleb128 Lfunc_begin56-Lfunc_begin56
	.uleb128 Ltmp252-Lfunc_begin56
	.byte	0
	.byte	0
	.uleb128 Ltmp252-Lfunc_begin56
	.uleb128 Ltmp253-Ltmp252
	.uleb128 Ltmp254-Lfunc_begin56
	.byte	0
	.uleb128 Ltmp255-Lfunc_begin56
	.uleb128 Ltmp256-Ltmp255
	.uleb128 Ltmp257-Lfunc_begin56
	.byte	0
	.uleb128 Ltmp256-Lfunc_begin56
	.uleb128 Lfunc_end56-Ltmp256
	.byte	0
	.byte	0
Lcst_end5:
	.p2align	2

	.section	__TEXT,__text,regular,pure_instructions
	.p2align	4, 0x90
__ZN9once_cell3imp18initialize_or_wait28_$u7b$$u7b$closure$u7d$$u7d$17h82d1f84a9c81dab3E:
Lfunc_begin57:
	.loc	25 197 0
	.cfi_startproc
	pushq	%rbp
	.cfi_def_cfa_offset 16
	.cfi_offset %rbp, -16
	movq	%rsp, %rbp
	.cfi_def_cfa_register %rbp
	subq	$16, %rsp
	movq	%rdi, %rax
	movq	%rax, -8(%rbp)
Ltmp274:
	.loc	25 197 54 prologue_end
	andq	$-4, %rax
	orq	$1, %rax
	.loc	25 197 81 is_stmt 0
	addq	$16, %rsp
	popq	%rbp
	retq
Ltmp275:
Lfunc_end57:
	.cfi_endproc

	.p2align	4, 0x90
__ZN9once_cell3imp4wait17h323ad4df0b06d97fE:
Lfunc_begin58:
	.loc	25 220 0 is_stmt 1
	.cfi_startproc
	.cfi_personality 155, _rust_eh_personality
	.cfi_lsda 16, Lexception6
	pushq	%rbp
	.cfi_def_cfa_offset 16
	.cfi_offset %rbp, -16
	movq	%rsp, %rbp
	.cfi_def_cfa_register %rbp
	subq	$224, %rsp
	movq	%rdi, -152(%rbp)
	movq	%rsi, -144(%rbp)
	movq	%rdi, -48(%rbp)
Ltmp297:
	.loc	25 221 35 prologue_end
	movq	-144(%rbp), %rdi
	.loc	25 221 22 is_stmt 0
	callq	__ZN9once_cell3imp6strict4addr17h237578b2c8e5b483E
	andq	$3, %rax
	movq	%rax, -136(%rbp)
LBB58_1:
Ltmp298:
	.loc	25 224 36 is_stmt 1
	callq	__ZN3std6thread7current17h98b7ef0e4909251eE
	.loc	25 224 31 is_stmt 0
	movq	%rax, -96(%rbp)
	.loc	25 224 21
	movq	-96(%rbp), %rdi
	callq	__ZN4core4cell13Cell$LT$T$GT$3new17he2bda8fbdbc5e3a4E
	movq	%rax, -104(%rbp)
Ltmp276:
	xorl	%edi, %edi
	.loc	25 225 23 is_stmt 1
	callq	__ZN4core4sync6atomic10AtomicBool3new17h0500c8065fc0fe32E
Ltmp277:
	movb	%al, -153(%rbp)
	jmp	LBB58_4
LBB58_2:
Ltmp281:
	.loc	25 0 23 is_stmt 0
	leaq	-104(%rbp), %rdi
	.loc	25 227 9 is_stmt 1
	callq	__ZN4core3ptr92drop_in_place$LT$core..cell..Cell$LT$core..option..Option$LT$std..thread..Thread$GT$$GT$$GT$17hd182796fd4514993E
Ltmp282:
	jmp	LBB58_7
LBB58_3:
Ltmp280:
	.loc	25 0 9 is_stmt 0
	movq	%rax, %rcx
	movl	%edx, %eax
	movq	%rcx, -40(%rbp)
	movl	%eax, -32(%rbp)
	jmp	LBB58_2
LBB58_4:
	movb	-153(%rbp), %al
	.loc	25 225 23 is_stmt 1
	movb	%al, -17(%rbp)
	movb	-17(%rbp), %al
	movb	%al, -88(%rbp)
	.loc	25 226 36
	movq	-144(%rbp), %rdi
Ltmp278:
	.loc	25 226 19 is_stmt 0
	callq	__ZN9once_cell3imp6strict8map_addr17h5ea0a5213d237fdbE
Ltmp279:
	movq	%rax, -168(%rbp)
	jmp	LBB58_5
LBB58_5:
	.loc	25 0 19
	movq	-168(%rbp), %rax
	.loc	25 223 20 is_stmt 1
	movq	-104(%rbp), %rcx
	movq	%rcx, -128(%rbp)
	movb	-88(%rbp), %cl
	movb	%cl, -112(%rbp)
	movq	%rax, -120(%rbp)
	leaq	-128(%rbp), %rdi
Ltmp299:
	.loc	25 228 18
	movq	%rdi, -16(%rbp)
Ltmp300:
	.loc	25 231 13
	movq	-144(%rbp), %rax
	movq	%rax, -184(%rbp)
	leaq	-136(%rbp), %rax
	.loc	25 232 34
	movq	%rax, -64(%rbp)
	.loc	25 232 13 is_stmt 0
	movq	-64(%rbp), %rsi
Ltmp283:
	callq	__ZN9once_cell3imp6strict8map_addr17hd634814bec3188d1E
Ltmp284:
	movq	%rax, -176(%rbp)
	jmp	LBB58_10
Ltmp301:
LBB58_6:
Ltmp296:
	.loc	25 220 1 is_stmt 1
	callq	__ZN4core9panicking19panic_cannot_unwind17h1fbca7e1d7f56ae1E
LBB58_7:
	movq	-40(%rbp), %rdi
	callq	__Unwind_Resume
LBB58_8:
Ltmp294:
	.loc	25 0 1 is_stmt 0
	leaq	-128(%rbp), %rdi
Ltmp302:
	.loc	25 248 5 is_stmt 1
	callq	__ZN4core3ptr43drop_in_place$LT$once_cell..imp..Waiter$GT$17he6bb2574da238754E
Ltmp295:
	jmp	LBB58_7
LBB58_9:
Ltmp293:
	.loc	25 0 5 is_stmt 0
	movq	%rax, %rcx
	movl	%edx, %eax
	movq	%rcx, -40(%rbp)
	movl	%eax, -32(%rbp)
	jmp	LBB58_8
LBB58_10:
	movq	-176(%rbp), %rdx
	movq	-184(%rbp), %rsi
	movq	-152(%rbp), %rdi
Ltmp303:
	.loc	25 233 13 is_stmt 1
	movb	$1, -51(%rbp)
	.loc	25 234 13
	movb	$0, -50(%rbp)
	.loc	25 230 24
	movzbl	-50(%rbp), %r8d
	movzbl	-51(%rbp), %ecx
Ltmp285:
	callq	__ZN4core4sync6atomic18AtomicPtr$LT$T$GT$16compare_exchange17hc860e7b827f272b1E
Ltmp286:
	movq	%rdx, -200(%rbp)
	movq	%rax, -192(%rbp)
	jmp	LBB58_11
LBB58_11:
	.loc	25 0 24 is_stmt 0
	movq	-200(%rbp), %rax
	movq	-192(%rbp), %rcx
	.loc	25 230 24
	movq	%rcx, -80(%rbp)
	movq	%rax, -72(%rbp)
Ltmp304:
	.loc	25 236 16 is_stmt 1
	cmpq	$1, -80(%rbp)
	jne	LBB58_13
	.loc	25 236 20 is_stmt 0
	movq	-72(%rbp), %rdi
	movq	%rdi, -216(%rbp)
	movq	%rdi, -8(%rbp)
Ltmp291:
	.loc	25 237 16 is_stmt 1
	callq	__ZN9once_cell3imp6strict4addr17h237578b2c8e5b483E
Ltmp292:
	movq	%rax, -208(%rbp)
	jmp	LBB58_19
Ltmp305:
LBB58_13:
	.loc	25 244 16
	leaq	-112(%rbp), %rdi
	.loc	25 244 35 is_stmt 0
	movb	$2, -49(%rbp)
	.loc	25 244 16
	movzbl	-49(%rbp), %esi
Ltmp287:
	callq	__ZN4core4sync6atomic10AtomicBool4load17h95ae7932988e0349E
Ltmp288:
	movb	%al, -217(%rbp)
	jmp	LBB58_14
LBB58_14:
	.loc	25 0 16
	movb	-217(%rbp), %al
	.loc	25 244 15
	xorb	$-1, %al
	testb	$1, %al
	jne	LBB58_16
Ltmp306:
	.loc	25 248 5 is_stmt 1
	leaq	-128(%rbp), %rdi
	callq	__ZN4core3ptr43drop_in_place$LT$once_cell..imp..Waiter$GT$17he6bb2574da238754E
	jmp	LBB58_18
LBB58_16:
Ltmp289:
Ltmp307:
	.loc	25 245 13
	callq	__ZN3std6thread4park17h06945b24b7e50112E
Ltmp290:
	jmp	LBB58_17
LBB58_17:
	jmp	LBB58_13
Ltmp308:
LBB58_18:
	.loc	25 249 2
	addq	$224, %rsp
	popq	%rbp
	retq
LBB58_19:
	.loc	25 0 2 is_stmt 0
	movq	-208(%rbp), %rax
Ltmp309:
	.loc	25 237 16 is_stmt 1
	andq	$3, %rax
	cmpq	-136(%rbp), %rax
	jne	LBB58_21
	.loc	25 0 16 is_stmt 0
	movq	-216(%rbp), %rax
	.loc	25 240 13 is_stmt 1
	movq	%rax, -144(%rbp)
Ltmp310:
	.loc	25 248 5
	leaq	-128(%rbp), %rdi
	callq	__ZN4core3ptr43drop_in_place$LT$once_cell..imp..Waiter$GT$17he6bb2574da238754E
	jmp	LBB58_1
LBB58_21:
	leaq	-128(%rbp), %rdi
	callq	__ZN4core3ptr43drop_in_place$LT$once_cell..imp..Waiter$GT$17he6bb2574da238754E
	jmp	LBB58_18
Ltmp311:
Lfunc_end58:
	.cfi_endproc
	.section	__TEXT,__gcc_except_tab
	.p2align	2
GCC_except_table58:
Lexception6:
	.byte	255
	.byte	255
	.byte	1
	.uleb128 Lcst_end6-Lcst_begin6
Lcst_begin6:
	.uleb128 Lfunc_begin58-Lfunc_begin58
	.uleb128 Ltmp276-Lfunc_begin58
	.byte	0
	.byte	0
	.uleb128 Ltmp276-Lfunc_begin58
	.uleb128 Ltmp277-Ltmp276
	.uleb128 Ltmp280-Lfunc_begin58
	.byte	0
	.uleb128 Ltmp281-Lfunc_begin58
	.uleb128 Ltmp282-Ltmp281
	.uleb128 Ltmp296-Lfunc_begin58
	.byte	0
	.uleb128 Ltmp278-Lfunc_begin58
	.uleb128 Ltmp279-Ltmp278
	.uleb128 Ltmp280-Lfunc_begin58
	.byte	0
	.uleb128 Ltmp283-Lfunc_begin58
	.uleb128 Ltmp284-Ltmp283
	.uleb128 Ltmp293-Lfunc_begin58
	.byte	0
	.uleb128 Ltmp284-Lfunc_begin58
	.uleb128 Ltmp294-Ltmp284
	.byte	0
	.byte	0
	.uleb128 Ltmp294-Lfunc_begin58
	.uleb128 Ltmp295-Ltmp294
	.uleb128 Ltmp296-Lfunc_begin58
	.byte	0
	.uleb128 Ltmp285-Lfunc_begin58
	.uleb128 Ltmp288-Ltmp285
	.uleb128 Ltmp293-Lfunc_begin58
	.byte	0
	.uleb128 Ltmp288-Lfunc_begin58
	.uleb128 Ltmp289-Ltmp288
	.byte	0
	.byte	0
	.uleb128 Ltmp289-Lfunc_begin58
	.uleb128 Ltmp290-Ltmp289
	.uleb128 Ltmp293-Lfunc_begin58
	.byte	0
	.uleb128 Ltmp290-Lfunc_begin58
	.uleb128 Lfunc_end58-Ltmp290
	.byte	0
	.byte	0
Lcst_end6:
	.p2align	2

	.section	__TEXT,__text,regular,pure_instructions
	.p2align	4, 0x90
__ZN9once_cell3imp4wait28_$u7b$$u7b$closure$u7d$$u7d$17hc2472badae493c43E:
Lfunc_begin59:
	.loc	25 226 0
	.cfi_startproc
	pushq	%rbp
	.cfi_def_cfa_offset 16
	.cfi_offset %rbp, -16
	movq	%rsp, %rbp
	.cfi_def_cfa_register %rbp
	subq	$16, %rsp
	movq	%rdi, %rax
	movq	%rax, -8(%rbp)
Ltmp312:
	.loc	25 226 52 prologue_end
	andq	$-4, %rax
	.loc	25 226 67 is_stmt 0
	addq	$16, %rsp
	popq	%rbp
	retq
Ltmp313:
Lfunc_end59:
	.cfi_endproc

	.p2align	4, 0x90
__ZN9once_cell3imp4wait28_$u7b$$u7b$closure$u7d$$u7d$17h187a006046342a57E:
Lfunc_begin60:
	.loc	25 232 0 is_stmt 1
	.cfi_startproc
	pushq	%rbp
	.cfi_def_cfa_offset 16
	.cfi_offset %rbp, -16
	movq	%rsp, %rbp
	.cfi_def_cfa_register %rbp
	subq	$16, %rsp
	movq	%rsi, %rax
	movq	%rdi, -16(%rbp)
	movq	%rax, -8(%rbp)
Ltmp314:
	.loc	25 232 42 prologue_end
	movq	-16(%rbp), %rcx
	.loc	25 232 38 is_stmt 0
	orq	(%rcx), %rax
	.loc	25 232 52
	addq	$16, %rsp
	popq	%rbp
	retq
Ltmp315:
Lfunc_end60:
	.cfi_endproc

	.p2align	4, 0x90
__ZN9once_cell3imp6strict4addr17h237578b2c8e5b483E:
Lfunc_begin61:
	.loc	25 258 0 is_stmt 1
	.cfi_startproc
	pushq	%rbp
	.cfi_def_cfa_offset 16
	.cfi_offset %rbp, -16
	movq	%rsp, %rbp
	.cfi_def_cfa_register %rbp
	subq	$16, %rsp
	movq	%rdi, -16(%rbp)
Ltmp316:
	.loc	25 265 18 prologue_end
	movq	%rdi, -8(%rbp)
	movq	-8(%rbp), %rax
	.loc	25 266 6
	addq	$16, %rsp
	popq	%rbp
	retq
Ltmp317:
Lfunc_end61:
	.cfi_endproc

	.p2align	4, 0x90
__ZN9once_cell3imp6strict9with_addr17h972d12437580fbf1E:
Lfunc_begin62:
	.loc	25 270 0
	.cfi_startproc
	pushq	%rbp
	.cfi_def_cfa_offset 16
	.cfi_offset %rbp, -16
	movq	%rsp, %rbp
	.cfi_def_cfa_register %rbp
	subq	$96, %rsp
	movq	%rdi, -88(%rbp)
	movq	%rsi, -96(%rbp)
	movq	%rdi, -80(%rbp)
	movq	%rsi, -72(%rbp)
Ltmp318:
	.loc	25 279 25 prologue_end
	callq	__ZN9once_cell3imp6strict4addr17h237578b2c8e5b483E
	movq	-96(%rbp), %rsi
	movq	-88(%rbp), %rdi
	movq	%rax, -64(%rbp)
Ltmp319:
	.loc	25 280 25
	movq	%rsi, -56(%rbp)
	movq	%rsi, -40(%rbp)
	movq	%rax, -32(%rbp)
Ltmp320:
	.file	27 "/rustc/2c8cc343237b8f7d5a3c3703e3a87f2eb2c54a74/library/core/src/num" "int_macros.rs"
	.loc	27 1164 13
	subq	%rax, %rsi
Ltmp321:
	.loc	25 281 22
	movq	%rsi, -48(%rbp)
	movq	%rdi, -24(%rbp)
	movq	%rsi, -16(%rbp)
Ltmp322:
	.loc	12 568 18
	addq	%rsi, %rdi
	movq	%rdi, -8(%rbp)
	movq	-8(%rbp), %rax
Ltmp323:
	.loc	25 287 6
	addq	$96, %rsp
	popq	%rbp
	retq
Ltmp324:
Lfunc_end62:
	.cfi_endproc

	.p2align	4, 0x90
__ZN9once_cell3imp6strict8map_addr17h431d48ad70cb608bE:
Lfunc_begin63:
	.loc	25 291 0
	.cfi_startproc
	.cfi_personality 155, _rust_eh_personality
	.cfi_lsda 16, Lexception7
	pushq	%rbp
	.cfi_def_cfa_offset 16
	.cfi_offset %rbp, -16
	movq	%rsp, %rbp
	.cfi_def_cfa_register %rbp
	subq	$80, %rsp
	movq	%rdi, -64(%rbp)
	movq	%rdi, -32(%rbp)
Ltmp330:
	.loc	25 295 25 prologue_end
	movb	$0, -33(%rbp)
	.loc	25 295 30 is_stmt 0
	movb	$1, -33(%rbp)
Ltmp325:
	.loc	25 295 32
	callq	__ZN9once_cell3imp6strict4addr17h237578b2c8e5b483E
Ltmp326:
	movq	%rax, -56(%rbp)
	jmp	LBB63_3
LBB63_1:
	.loc	25 295 41
	testb	$1, -33(%rbp)
	jne	LBB63_6
	jmp	LBB63_5
LBB63_2:
Ltmp329:
	.loc	25 0 41
	movq	%rax, %rcx
	movl	%edx, %eax
	movq	%rcx, -16(%rbp)
	movl	%eax, -8(%rbp)
	jmp	LBB63_1
LBB63_3:
	movq	-56(%rbp), %rax
	.loc	25 295 30
	movq	%rax, -48(%rbp)
	movb	$0, -33(%rbp)
	movq	-48(%rbp), %rdi
Ltmp327:
	callq	__ZN63_$LT$once_cell..imp..Guard$u20$as$u20$core..ops..drop..Drop$GT$4drop28_$u7b$$u7b$closure$u7d$$u7d$17hda12c01c2b2ffa2fE
Ltmp328:
	movq	%rax, -72(%rbp)
	jmp	LBB63_4
LBB63_4:
	.loc	25 0 30
	movq	-72(%rbp), %rsi
	movq	-64(%rbp), %rdi
	.loc	25 295 41
	movb	$0, -33(%rbp)
	.loc	25 295 9
	callq	__ZN9once_cell3imp6strict9with_addr17h972d12437580fbf1E
	.loc	25 296 6 is_stmt 1
	addq	$80, %rsp
	popq	%rbp
	retq
LBB63_5:
	.loc	25 291 5
	movq	-16(%rbp), %rdi
	callq	__Unwind_Resume
LBB63_6:
	.loc	25 295 41
	jmp	LBB63_5
Ltmp331:
Lfunc_end63:
	.cfi_endproc
	.section	__TEXT,__gcc_except_tab
	.p2align	2
GCC_except_table63:
Lexception7:
	.byte	255
	.byte	255
	.byte	1
	.uleb128 Lcst_end7-Lcst_begin7
Lcst_begin7:
	.uleb128 Ltmp325-Lfunc_begin63
	.uleb128 Ltmp328-Ltmp325
	.uleb128 Ltmp329-Lfunc_begin63
	.byte	0
	.uleb128 Ltmp328-Lfunc_begin63
	.uleb128 Lfunc_end63-Ltmp328
	.byte	0
	.byte	0
Lcst_end7:
	.p2align	2

	.section	__TEXT,__text,regular,pure_instructions
	.p2align	4, 0x90
__ZN9once_cell3imp6strict8map_addr17h5ea0a5213d237fdbE:
Lfunc_begin64:
	.loc	25 291 0
	.cfi_startproc
	.cfi_personality 155, _rust_eh_personality
	.cfi_lsda 16, Lexception8
	pushq	%rbp
	.cfi_def_cfa_offset 16
	.cfi_offset %rbp, -16
	movq	%rsp, %rbp
	.cfi_def_cfa_register %rbp
	subq	$80, %rsp
	movq	%rdi, -64(%rbp)
	movq	%rdi, -32(%rbp)
Ltmp337:
	.loc	25 295 25 prologue_end
	movb	$0, -33(%rbp)
	.loc	25 295 30 is_stmt 0
	movb	$1, -33(%rbp)
Ltmp332:
	.loc	25 295 32
	callq	__ZN9once_cell3imp6strict4addr17h237578b2c8e5b483E
Ltmp333:
	movq	%rax, -56(%rbp)
	jmp	LBB64_3
LBB64_1:
	.loc	25 295 41
	testb	$1, -33(%rbp)
	jne	LBB64_6
	jmp	LBB64_5
LBB64_2:
Ltmp336:
	.loc	25 0 41
	movq	%rax, %rcx
	movl	%edx, %eax
	movq	%rcx, -16(%rbp)
	movl	%eax, -8(%rbp)
	jmp	LBB64_1
LBB64_3:
	movq	-56(%rbp), %rax
	.loc	25 295 30
	movq	%rax, -48(%rbp)
	movb	$0, -33(%rbp)
	movq	-48(%rbp), %rdi
Ltmp334:
	callq	__ZN9once_cell3imp4wait28_$u7b$$u7b$closure$u7d$$u7d$17hc2472badae493c43E
Ltmp335:
	movq	%rax, -72(%rbp)
	jmp	LBB64_4
LBB64_4:
	.loc	25 0 30
	movq	-72(%rbp), %rsi
	movq	-64(%rbp), %rdi
	.loc	25 295 41
	movb	$0, -33(%rbp)
	.loc	25 295 9
	callq	__ZN9once_cell3imp6strict9with_addr17h972d12437580fbf1E
	.loc	25 296 6 is_stmt 1
	addq	$80, %rsp
	popq	%rbp
	retq
LBB64_5:
	.loc	25 291 5
	movq	-16(%rbp), %rdi
	callq	__Unwind_Resume
LBB64_6:
	.loc	25 295 41
	jmp	LBB64_5
Ltmp338:
Lfunc_end64:
	.cfi_endproc
	.section	__TEXT,__gcc_except_tab
	.p2align	2
GCC_except_table64:
Lexception8:
	.byte	255
	.byte	255
	.byte	1
	.uleb128 Lcst_end8-Lcst_begin8
Lcst_begin8:
	.uleb128 Ltmp332-Lfunc_begin64
	.uleb128 Ltmp335-Ltmp332
	.uleb128 Ltmp336-Lfunc_begin64
	.byte	0
	.uleb128 Ltmp335-Lfunc_begin64
	.uleb128 Lfunc_end64-Ltmp335
	.byte	0
	.byte	0
Lcst_end8:
	.p2align	2

	.section	__TEXT,__text,regular,pure_instructions
	.p2align	4, 0x90
__ZN9once_cell3imp6strict8map_addr17h6f07e58942c6c1acE:
Lfunc_begin65:
	.loc	25 291 0
	.cfi_startproc
	.cfi_personality 155, _rust_eh_personality
	.cfi_lsda 16, Lexception9
	pushq	%rbp
	.cfi_def_cfa_offset 16
	.cfi_offset %rbp, -16
	movq	%rsp, %rbp
	.cfi_def_cfa_register %rbp
	subq	$80, %rsp
	movq	%rdi, -64(%rbp)
	movq	%rdi, -32(%rbp)
Ltmp344:
	.loc	25 295 25 prologue_end
	movb	$0, -33(%rbp)
	.loc	25 295 30 is_stmt 0
	movb	$1, -33(%rbp)
Ltmp339:
	.loc	25 295 32
	callq	__ZN9once_cell3imp6strict4addr17h237578b2c8e5b483E
Ltmp340:
	movq	%rax, -56(%rbp)
	jmp	LBB65_3
LBB65_1:
	.loc	25 295 41
	testb	$1, -33(%rbp)
	jne	LBB65_6
	jmp	LBB65_5
LBB65_2:
Ltmp343:
	.loc	25 0 41
	movq	%rax, %rcx
	movl	%edx, %eax
	movq	%rcx, -16(%rbp)
	movl	%eax, -8(%rbp)
	jmp	LBB65_1
LBB65_3:
	movq	-56(%rbp), %rax
	.loc	25 295 30
	movq	%rax, -48(%rbp)
	movb	$0, -33(%rbp)
	movq	-48(%rbp), %rdi
Ltmp341:
	callq	__ZN9once_cell3imp18initialize_or_wait28_$u7b$$u7b$closure$u7d$$u7d$17h82d1f84a9c81dab3E
Ltmp342:
	movq	%rax, -72(%rbp)
	jmp	LBB65_4
LBB65_4:
	.loc	25 0 30
	movq	-72(%rbp), %rsi
	movq	-64(%rbp), %rdi
	.loc	25 295 41
	movb	$0, -33(%rbp)
	.loc	25 295 9
	callq	__ZN9once_cell3imp6strict9with_addr17h972d12437580fbf1E
	.loc	25 296 6 is_stmt 1
	addq	$80, %rsp
	popq	%rbp
	retq
LBB65_5:
	.loc	25 291 5
	movq	-16(%rbp), %rdi
	callq	__Unwind_Resume
LBB65_6:
	.loc	25 295 41
	jmp	LBB65_5
Ltmp345:
Lfunc_end65:
	.cfi_endproc
	.section	__TEXT,__gcc_except_tab
	.p2align	2
GCC_except_table65:
Lexception9:
	.byte	255
	.byte	255
	.byte	1
	.uleb128 Lcst_end9-Lcst_begin9
Lcst_begin9:
	.uleb128 Ltmp339-Lfunc_begin65
	.uleb128 Ltmp342-Ltmp339
	.uleb128 Ltmp343-Lfunc_begin65
	.byte	0
	.uleb128 Ltmp342-Lfunc_begin65
	.uleb128 Lfunc_end65-Ltmp342
	.byte	0
	.byte	0
Lcst_end9:
	.p2align	2

	.section	__TEXT,__text,regular,pure_instructions
	.p2align	4, 0x90
__ZN9once_cell3imp6strict8map_addr17hd634814bec3188d1E:
Lfunc_begin66:
	.loc	25 291 0
	.cfi_startproc
	.cfi_personality 155, _rust_eh_personality
	.cfi_lsda 16, Lexception10
	pushq	%rbp
	.cfi_def_cfa_offset 16
	.cfi_offset %rbp, -16
	movq	%rsp, %rbp
	.cfi_def_cfa_register %rbp
	subq	$80, %rsp
	movq	%rdi, -72(%rbp)
	movq	%rsi, -64(%rbp)
	movq	%rdi, -32(%rbp)
	movq	%rsi, -24(%rbp)
Ltmp351:
	.loc	25 295 25 prologue_end
	movb	$0, -33(%rbp)
	.loc	25 295 30 is_stmt 0
	movb	$1, -33(%rbp)
Ltmp346:
	.loc	25 295 32
	callq	__ZN9once_cell3imp6strict4addr17h237578b2c8e5b483E
Ltmp347:
	movq	%rax, -56(%rbp)
	jmp	LBB66_3
LBB66_1:
	.loc	25 295 41
	testb	$1, -33(%rbp)
	jne	LBB66_6
	jmp	LBB66_5
LBB66_2:
Ltmp350:
	.loc	25 0 41
	movq	%rax, %rcx
	movl	%edx, %eax
	movq	%rcx, -16(%rbp)
	movl	%eax, -8(%rbp)
	jmp	LBB66_1
LBB66_3:
	movq	-64(%rbp), %rdi
	movq	-56(%rbp), %rax
	.loc	25 295 30
	movq	%rax, -48(%rbp)
	movb	$0, -33(%rbp)
	movq	-48(%rbp), %rsi
Ltmp348:
	callq	__ZN9once_cell3imp4wait28_$u7b$$u7b$closure$u7d$$u7d$17h187a006046342a57E
Ltmp349:
	movq	%rax, -80(%rbp)
	jmp	LBB66_4
LBB66_4:
	.loc	25 0 30
	movq	-80(%rbp), %rsi
	movq	-72(%rbp), %rdi
	.loc	25 295 41
	movb	$0, -33(%rbp)
	.loc	25 295 9
	callq	__ZN9once_cell3imp6strict9with_addr17h972d12437580fbf1E
	.loc	25 296 6 is_stmt 1
	addq	$80, %rsp
	popq	%rbp
	retq
LBB66_5:
	.loc	25 291 5
	movq	-16(%rbp), %rdi
	callq	__Unwind_Resume
LBB66_6:
	.loc	25 295 41
	jmp	LBB66_5
Ltmp352:
Lfunc_end66:
	.cfi_endproc
	.section	__TEXT,__gcc_except_tab
	.p2align	2
GCC_except_table66:
Lexception10:
	.byte	255
	.byte	255
	.byte	1
	.uleb128 Lcst_end10-Lcst_begin10
Lcst_begin10:
	.uleb128 Ltmp346-Lfunc_begin66
	.uleb128 Ltmp349-Ltmp346
	.uleb128 Ltmp350-Lfunc_begin66
	.byte	0
	.uleb128 Ltmp349-Lfunc_begin66
	.uleb128 Lfunc_end66-Ltmp349
	.byte	0
	.byte	0
Lcst_end10:
	.p2align	2

	.section	__TEXT,__text,regular,pure_instructions
	.globl	__ZN70_$LT$once_cell..race..OnceNonZeroUsize$u20$as$u20$core..fmt..Debug$GT$3fmt17he38429f35b15f114E
	.p2align	4, 0x90
__ZN70_$LT$once_cell..race..OnceNonZeroUsize$u20$as$u20$core..fmt..Debug$GT$3fmt17he38429f35b15f114E:
Lfunc_begin67:
	.file	28 "/Users/natalie/.cargo/registry/src/github.com-1ecc6299db9ec823/once_cell-1.16.0" "src/race.rs"
	.loc	28 31 0
	.cfi_startproc
	pushq	%rbp
	.cfi_def_cfa_offset 16
	.cfi_offset %rbp, -16
	movq	%rsp, %rbp
	.cfi_def_cfa_register %rbp
	subq	$48, %rsp
	movq	%rsi, -32(%rbp)
	movq	%rdi, %rax
	movq	-32(%rbp), %rdi
	movq	%rax, -16(%rbp)
	movq	%rdi, -8(%rbp)
Ltmp353:
	.loc	28 33 5 prologue_end
	movq	%rax, -24(%rbp)
	.loc	28 31 19
	leaq	L___unnamed_27(%rip), %rsi
	movl	$16, %edx
	leaq	l___unnamed_28(%rip), %rcx
	movl	$5, %r8d
	leaq	-24(%rbp), %r9
	leaq	l___unnamed_2(%rip), %rax
	movq	%rax, (%rsp)
	callq	__ZN4core3fmt9Formatter26debug_struct_field1_finish17ha7aba2fd90afbefeE
	.loc	28 31 24 is_stmt 0
	andb	$1, %al
	movzbl	%al, %eax
	addq	$48, %rsp
	popq	%rbp
	retq
Ltmp354:
Lfunc_end67:
	.cfi_endproc

	.globl	__ZN62_$LT$once_cell..race..OnceBool$u20$as$u20$core..fmt..Debug$GT$3fmt17hcdc8358c288cb754E
	.p2align	4, 0x90
__ZN62_$LT$once_cell..race..OnceBool$u20$as$u20$core..fmt..Debug$GT$3fmt17hcdc8358c288cb754E:
Lfunc_begin68:
	.loc	28 110 0 is_stmt 1
	.cfi_startproc
	pushq	%rbp
	.cfi_def_cfa_offset 16
	.cfi_offset %rbp, -16
	movq	%rsp, %rbp
	.cfi_def_cfa_register %rbp
	subq	$48, %rsp
	movq	%rsi, -32(%rbp)
	movq	%rdi, %rax
	movq	-32(%rbp), %rdi
	movq	%rax, -16(%rbp)
	movq	%rdi, -8(%rbp)
Ltmp355:
	.loc	28 112 5 prologue_end
	movq	%rax, -24(%rbp)
	.loc	28 110 19
	leaq	L___unnamed_29(%rip), %rsi
	movl	$8, %edx
	leaq	l___unnamed_28(%rip), %rcx
	movl	$5, %r8d
	leaq	-24(%rbp), %r9
	leaq	l___unnamed_3(%rip), %rax
	movq	%rax, (%rsp)
	callq	__ZN4core3fmt9Formatter26debug_struct_field1_finish17ha7aba2fd90afbefeE
	.loc	28 110 24 is_stmt 0
	andb	$1, %al
	movzbl	%al, %eax
	addq	$48, %rsp
	popq	%rbp
	retq
Ltmp356:
Lfunc_end68:
	.cfi_endproc

	.section	__TEXT,__const
l___unnamed_30:
	.ascii	"invalid args"

	.section	__DATA,__const
	.p2align	3
l___unnamed_4:
	.quad	l___unnamed_30
	.asciz	"\f\000\000\000\000\000\000"

	.section	__TEXT,__const
	.p2align	3
l___unnamed_5:
	.byte	0

l___unnamed_31:
	.ascii	"/rustc/2c8cc343237b8f7d5a3c3703e3a87f2eb2c54a74/library/core/src/fmt/mod.rs"

	.section	__DATA,__const
	.p2align	3
l___unnamed_6:
	.quad	l___unnamed_31
	.asciz	"K\000\000\000\000\000\000\000\221\001\000\000\r\000\000"

	.section	__TEXT,__const
l___unnamed_32:
	.ascii	"there is no such thing as an acquire-release load"

	.section	__DATA,__const
	.p2align	3
l___unnamed_9:
	.quad	l___unnamed_32
	.asciz	"1\000\000\000\000\000\000"

	.section	__TEXT,__const
l___unnamed_33:
	.ascii	"/rustc/2c8cc343237b8f7d5a3c3703e3a87f2eb2c54a74/library/core/src/sync/atomic.rs"

	.section	__DATA,__const
	.p2align	3
l___unnamed_10:
	.quad	l___unnamed_33
	.asciz	"O\000\000\000\000\000\000\000\323\013\000\000\027\000\000"

	.section	__TEXT,__const
l___unnamed_34:
	.ascii	"there is no such thing as a release load"

	.section	__DATA,__const
	.p2align	3
l___unnamed_7:
	.quad	l___unnamed_34
	.asciz	"(\000\000\000\000\000\000"

	.p2align	3
l___unnamed_8:
	.quad	l___unnamed_33
	.asciz	"O\000\000\000\000\000\000\000\322\013\000\000\030\000\000"

	.section	__TEXT,__const
l___unnamed_35:
	.ascii	"there is no such thing as an acquire-release store"

	.section	__DATA,__const
	.p2align	3
l___unnamed_13:
	.quad	l___unnamed_35
	.asciz	"2\000\000\000\000\000\000"

	.p2align	3
l___unnamed_14:
	.quad	l___unnamed_33
	.asciz	"O\000\000\000\000\000\000\000\304\013\000\000\027\000\000"

	.section	__TEXT,__const
l___unnamed_36:
	.ascii	"there is no such thing as an acquire store"

	.section	__DATA,__const
	.p2align	3
l___unnamed_11:
	.quad	l___unnamed_36
	.asciz	"*\000\000\000\000\000\000"

	.p2align	3
l___unnamed_12:
	.quad	l___unnamed_33
	.asciz	"O\000\000\000\000\000\000\000\303\013\000\000\030\000\000"

	.section	__TEXT,__const
l___unnamed_37:
	.ascii	"there is no such thing as an acquire-release failure ordering"

	.section	__DATA,__const
	.p2align	3
l___unnamed_17:
	.quad	l___unnamed_37
	.asciz	"=\000\000\000\000\000\000"

	.p2align	3
l___unnamed_18:
	.quad	l___unnamed_33
	.asciz	"O\000\000\000\000\000\000\000&\f\000\000\034\000\000"

	.section	__TEXT,__const
l___unnamed_38:
	.ascii	"there is no such thing as a release failure ordering"

	.section	__DATA,__const
	.p2align	3
l___unnamed_15:
	.quad	l___unnamed_38
	.asciz	"4\000\000\000\000\000\000"

	.p2align	3
l___unnamed_16:
	.quad	l___unnamed_33
	.asciz	"O\000\000\000\000\000\000\000'\f\000\000\035\000\000"

	.section	__TEXT,__const
l___unnamed_39:
	.ascii	"there is no such thing as a relaxed fence"

	.section	__DATA,__const
	.p2align	3
l___unnamed_19:
	.quad	l___unnamed_39
	.asciz	")\000\000\000\000\000\000"

	.p2align	3
l___unnamed_20:
	.quad	l___unnamed_33
	.asciz	"O\000\000\000\000\000\000\000*\r\000\000\030\000\000"

	.section	__TEXT,__const
l___unnamed_21:
	.ascii	"called `Option::unwrap()` on a `None` value"

	.section	__DATA,__const
	.p2align	3
l___unnamed_1:
	.quad	__ZN4core3ptr30drop_in_place$LT$$RF$usize$GT$17h70bd4f2a90f43885E
	.asciz	"\b\000\000\000\000\000\000\000\b\000\000\000\000\000\000"
	.quad	__ZN42_$LT$$RF$T$u20$as$u20$core..fmt..Debug$GT$3fmt17h6a19ea123403e8acE

	.section	__TEXT,__literal8,8byte_literals
	.p2align	3
L___unnamed_22:
	.asciz	"\001\000\000\000\000\000\000"

	.section	__TEXT,__const
l___unnamed_40:
	.ascii	"/Users/natalie/.cargo/registry/src/github.com-1ecc6299db9ec823/once_cell-1.16.0/src/imp_std.rs"

	.section	__DATA,__const
	.p2align	3
l___unnamed_23:
	.quad	l___unnamed_40
	.asciz	"^\000\000\000\000\000\000\000\245\000\000\000\t\000\000"

	.p2align	3
l___unnamed_24:
	.quad	l___unnamed_40
	.asciz	"^\000\000\000\000\000\000\000\253\000\000\0006\000\000"

	.section	__TEXT,__const
l___unnamed_25:
	.ascii	"assertion failed: false"

	.section	__DATA,__const
	.p2align	3
l___unnamed_26:
	.quad	l___unnamed_40
	.asciz	"^\000\000\000\000\000\000\000\327\000\000\000\022\000\000"

	.section	__TEXT,__literal16,16byte_literals
L___unnamed_27:
	.ascii	"OnceNonZeroUsize"

	.section	__TEXT,__const
l___unnamed_28:
	.ascii	"inner"

	.section	__DATA,__const
	.p2align	3
l___unnamed_2:
	.quad	__ZN4core3ptr56drop_in_place$LT$$RF$core..sync..atomic..AtomicUsize$GT$17h8ca00a64fc5d4f2fE
	.asciz	"\b\000\000\000\000\000\000\000\b\000\000\000\000\000\000"
	.quad	__ZN42_$LT$$RF$T$u20$as$u20$core..fmt..Debug$GT$3fmt17h5c54aea1280c070eE

	.section	__TEXT,__literal8,8byte_literals
L___unnamed_29:
	.ascii	"OnceBool"

	.section	__DATA,__const
	.p2align	3
l___unnamed_3:
	.quad	__ZN4core3ptr58drop_in_place$LT$$RF$once_cell..race..OnceNonZeroUsize$GT$17hcd25346d88bef8f6E
	.asciz	"\b\000\000\000\000\000\000\000\b\000\000\000\000\000\000"
	.quad	__ZN42_$LT$$RF$T$u20$as$u20$core..fmt..Debug$GT$3fmt17h77cdb49476f76823E

	.section	__DATA,__const
Lsec_end0:
	.section	__TEXT,__text,regular,pure_instructions
Lsec_end1: