	.section	__TEXT,__text,regular,pure_instructions
	.macosx_version_min 10, 7
	.globl	__ZN102_$LT$core..iter..adapters..map..Map$LT$I$C$F$GT$$u20$as$u20$core..iter..traits..iterator..Iterator$GT$8try_fold17h6731dcb73f65f173E
	.p2align	4, 0x90
__ZN102_$LT$core..iter..adapters..map..Map$LT$I$C$F$GT$$u20$as$u20$core..iter..traits..iterator..Iterator$GT$8try_fold17h6731dcb73f65f173E:
Lfunc_begin0:
	.file	1 "/rustc/2c8cc343237b8f7d5a3c3703e3a87f2eb2c54a74/library/core/src/iter/adapters" "map.rs"
	.loc	1 111 0
	.cfi_startproc
	.cfi_personality 155, _rust_eh_personality
	.cfi_lsda 16, Lexception0
	pushq	%rbp
	.cfi_def_cfa_offset 16
	.cfi_offset %rbp, -16
	movq	%rsp, %rbp
	.cfi_def_cfa_register %rbp
	subq	$112, %rsp
	movq	%rsi, -104(%rbp)
	movq	%rdi, -96(%rbp)
	movq	%rdi, -88(%rbp)
	movq	%rsi, -48(%rbp)
	movq	%rdx, -32(%rbp)
	movq	%rcx, -24(%rbp)
Ltmp5:
	.loc	1 117 28 prologue_end
	movb	$1, -49(%rbp)
Ltmp0:
	leaq	-80(%rbp), %rdi
	.loc	1 117 34 is_stmt 0
	callq	__ZN4core4iter8adapters3map12map_try_fold17hdef2d64994640186E
Ltmp1:
	jmp	LBB0_3
LBB0_1:
	.loc	1 117 62
	testb	$1, -49(%rbp)
	jne	LBB0_6
	jmp	LBB0_5
LBB0_2:
Ltmp4:
	.loc	1 0 62
	movq	%rax, %rcx
	movl	%edx, %eax
	movq	%rcx, -16(%rbp)
	movl	%eax, -8(%rbp)
	jmp	LBB0_1
LBB0_3:
	movq	-104(%rbp), %rsi
	movq	-96(%rbp), %rdi
	.loc	1 117 9
	movb	$0, -49(%rbp)
Ltmp2:
	leaq	-80(%rbp), %rdx
	callq	__ZN4core4iter6traits8iterator8Iterator8try_fold17hda0dedc2c85905f1E
Ltmp3:
	jmp	LBB0_4
LBB0_4:
	.loc	1 0 9
	movq	-88(%rbp), %rax
	.loc	1 118 6 is_stmt 1
	addq	$112, %rsp
	popq	%rbp
	retq
LBB0_5:
	.loc	1 111 5
	movq	-16(%rbp), %rdi
	callq	__Unwind_Resume
LBB0_6:
	.loc	1 117 62
	jmp	LBB0_5
Ltmp6:
Lfunc_end0:
	.cfi_endproc
	.section	__TEXT,__gcc_except_tab
	.p2align	2
GCC_except_table0:
Lexception0:
	.byte	255
	.byte	255
	.byte	1
	.uleb128 Lcst_end0-Lcst_begin0
Lcst_begin0:
	.uleb128 Ltmp0-Lfunc_begin0
	.uleb128 Ltmp3-Ltmp0
	.uleb128 Ltmp4-Lfunc_begin0
	.byte	0
	.uleb128 Ltmp3-Lfunc_begin0
	.uleb128 Lfunc_end0-Ltmp3
	.byte	0
	.byte	0
Lcst_end0:
	.p2align	2

	.section	__TEXT,__text,regular,pure_instructions
	.globl	__ZN102_$LT$core..iter..adapters..map..Map$LT$I$C$F$GT$$u20$as$u20$core..iter..traits..iterator..Iterator$GT$8try_fold17heaed8e5d070732a8E
	.p2align	4, 0x90
__ZN102_$LT$core..iter..adapters..map..Map$LT$I$C$F$GT$$u20$as$u20$core..iter..traits..iterator..Iterator$GT$8try_fold17heaed8e5d070732a8E:
Lfunc_begin1:
	.loc	1 111 0
	.cfi_startproc
	.cfi_personality 155, _rust_eh_personality
	.cfi_lsda 16, Lexception1
	pushq	%rbp
	.cfi_def_cfa_offset 16
	.cfi_offset %rbp, -16
	movq	%rsp, %rbp
	.cfi_def_cfa_register %rbp
	subq	$112, %rsp
	movq	%rsi, -104(%rbp)
	movq	%rdi, -96(%rbp)
	movq	%rdi, -88(%rbp)
	movq	%rsi, -48(%rbp)
	movq	%rdx, -32(%rbp)
	movq	%rcx, -24(%rbp)
Ltmp12:
	.loc	1 117 28 prologue_end
	movb	$1, -49(%rbp)
Ltmp7:
	leaq	-80(%rbp), %rdi
	.loc	1 117 34 is_stmt 0
	callq	__ZN4core4iter8adapters3map12map_try_fold17h4ed34e8b92c6fd40E
Ltmp8:
	jmp	LBB1_3
LBB1_1:
	.loc	1 117 62
	testb	$1, -49(%rbp)
	jne	LBB1_6
	jmp	LBB1_5
LBB1_2:
Ltmp11:
	.loc	1 0 62
	movq	%rax, %rcx
	movl	%edx, %eax
	movq	%rcx, -16(%rbp)
	movl	%eax, -8(%rbp)
	jmp	LBB1_1
LBB1_3:
	movq	-104(%rbp), %rsi
	movq	-96(%rbp), %rdi
	.loc	1 117 9
	movb	$0, -49(%rbp)
Ltmp9:
	leaq	-80(%rbp), %rdx
	callq	__ZN4core4iter6traits8iterator8Iterator8try_fold17hc206434e9abb83faE
Ltmp10:
	jmp	LBB1_4
LBB1_4:
	.loc	1 0 9
	movq	-88(%rbp), %rax
	.loc	1 118 6 is_stmt 1
	addq	$112, %rsp
	popq	%rbp
	retq
LBB1_5:
	.loc	1 111 5
	movq	-16(%rbp), %rdi
	callq	__Unwind_Resume
LBB1_6:
	.loc	1 117 62
	jmp	LBB1_5
Ltmp13:
Lfunc_end1:
	.cfi_endproc
	.section	__TEXT,__gcc_except_tab
	.p2align	2
GCC_except_table1:
Lexception1:
	.byte	255
	.byte	255
	.byte	1
	.uleb128 Lcst_end1-Lcst_begin1
Lcst_begin1:
	.uleb128 Ltmp7-Lfunc_begin1
	.uleb128 Ltmp10-Ltmp7
	.uleb128 Ltmp11-Lfunc_begin1
	.byte	0
	.uleb128 Ltmp10-Lfunc_begin1
	.uleb128 Lfunc_end1-Ltmp10
	.byte	0
	.byte	0
Lcst_end1:
	.p2align	2

	.section	__TEXT,__text,regular,pure_instructions
	.globl	__ZN102_$LT$core..iter..adapters..map..Map$LT$I$C$F$GT$$u20$as$u20$core..iter..traits..iterator..Iterator$GT$9size_hint17h439fb01e4447e38cE
	.p2align	4, 0x90
__ZN102_$LT$core..iter..adapters..map..Map$LT$I$C$F$GT$$u20$as$u20$core..iter..traits..iterator..Iterator$GT$9size_hint17h439fb01e4447e38cE:
Lfunc_begin2:
	.loc	1 107 0
	.cfi_startproc
	pushq	%rbp
	.cfi_def_cfa_offset 16
	.cfi_offset %rbp, -16
	movq	%rsp, %rbp
	.cfi_def_cfa_register %rbp
	subq	$16, %rsp
	movq	%rdi, %rax
	movq	%rax, -16(%rbp)
	movq	%rsi, -8(%rbp)
Ltmp14:
	.loc	1 108 9 prologue_end
	callq	__ZN86_$LT$core..option..Iter$LT$A$GT$$u20$as$u20$core..iter..traits..iterator..Iterator$GT$9size_hint17hf5163496688614acE
	movq	-16(%rbp), %rax
	.loc	1 109 6
	addq	$16, %rsp
	popq	%rbp
	retq
Ltmp15:
Lfunc_end2:
	.cfi_endproc

	.globl	__ZN102_$LT$core..iter..adapters..map..Map$LT$I$C$F$GT$$u20$as$u20$core..iter..traits..iterator..Iterator$GT$9size_hint17h623397947a144e26E
	.p2align	4, 0x90
__ZN102_$LT$core..iter..adapters..map..Map$LT$I$C$F$GT$$u20$as$u20$core..iter..traits..iterator..Iterator$GT$9size_hint17h623397947a144e26E:
Lfunc_begin3:
	.loc	1 107 0
	.cfi_startproc
	pushq	%rbp
	.cfi_def_cfa_offset 16
	.cfi_offset %rbp, -16
	movq	%rsp, %rbp
	.cfi_def_cfa_register %rbp
	subq	$16, %rsp
	movq	%rdi, %rax
	movq	%rax, -16(%rbp)
	movq	%rsi, -8(%rbp)
Ltmp16:
	.loc	1 108 9 prologue_end
	callq	__ZN86_$LT$core..option..Iter$LT$A$GT$$u20$as$u20$core..iter..traits..iterator..Iterator$GT$9size_hint17h39698fa90d79d596E
	movq	-16(%rbp), %rax
	.loc	1 109 6
	addq	$16, %rsp
	popq	%rbp
	retq
Ltmp17:
Lfunc_end3:
	.cfi_endproc

	.globl	__ZN104_$LT$core..ops..control_flow..ControlFlow$LT$B$C$C$GT$$u20$as$u20$core..ops..try_trait..FromResidual$GT$13from_residual17h9b8bd3303019f9deE
	.p2align	4, 0x90
__ZN104_$LT$core..ops..control_flow..ControlFlow$LT$B$C$C$GT$$u20$as$u20$core..ops..try_trait..FromResidual$GT$13from_residual17h9b8bd3303019f9deE:
Lfunc_begin4:
	.file	2 "/rustc/2c8cc343237b8f7d5a3c3703e3a87f2eb2c54a74/library/core/src/ops" "control_flow.rs"
	.loc	2 123 0
	.cfi_startproc
	pushq	%rbp
	.cfi_def_cfa_offset 16
	.cfi_offset %rbp, -16
	movq	%rsp, %rbp
	.cfi_def_cfa_register %rbp
	subq	$224, %rsp
	movq	%rdi, -224(%rbp)
	movq	%rdi, -216(%rbp)
Ltmp18:
	.loc	2 125 32 prologue_end
	leaq	-208(%rbp), %rdi
	movl	$104, %edx
	callq	_memcpy
Ltmp19:
	.loc	2 125 57 is_stmt 0
	leaq	-104(%rbp), %rdi
	leaq	-208(%rbp), %rsi
	movl	$104, %edx
	callq	_memcpy
	movq	-224(%rbp), %rdi
	.loc	2 125 38
	leaq	-104(%rbp), %rsi
	movl	$104, %edx
	callq	_memcpy
	movq	-216(%rbp), %rax
Ltmp20:
	.loc	2 127 6 is_stmt 1
	addq	$224, %rsp
	popq	%rbp
	retq
Ltmp21:
Lfunc_end4:
	.cfi_endproc

	.globl	__ZN104_$LT$core..ops..control_flow..ControlFlow$LT$B$C$C$GT$$u20$as$u20$core..ops..try_trait..FromResidual$GT$13from_residual17hfe6018700ca429c8E
	.p2align	4, 0x90
__ZN104_$LT$core..ops..control_flow..ControlFlow$LT$B$C$C$GT$$u20$as$u20$core..ops..try_trait..FromResidual$GT$13from_residual17hfe6018700ca429c8E:
Lfunc_begin5:
	.loc	2 123 0
	.cfi_startproc
	pushq	%rbp
	.cfi_def_cfa_offset 16
	.cfi_offset %rbp, -16
	movq	%rsp, %rbp
	.cfi_def_cfa_register %rbp
	subq	$192, %rsp
	movq	%rdi, -192(%rbp)
	movq	%rdi, -184(%rbp)
Ltmp22:
	.loc	2 125 32 prologue_end
	leaq	-176(%rbp), %rdi
	movl	$88, %edx
	callq	_memcpy
Ltmp23:
	.loc	2 125 57 is_stmt 0
	leaq	-88(%rbp), %rdi
	leaq	-176(%rbp), %rsi
	movl	$88, %edx
	callq	_memcpy
	movq	-192(%rbp), %rdi
	.loc	2 125 38
	leaq	-88(%rbp), %rsi
	movl	$88, %edx
	callq	_memcpy
	movq	-184(%rbp), %rax
Ltmp24:
	.loc	2 127 6 is_stmt 1
	addq	$192, %rsp
	popq	%rbp
	retq
Ltmp25:
Lfunc_end5:
	.cfi_endproc

	.globl	__ZN107_$LT$core..iter..adapters..fuse..Fuse$LT$I$GT$$u20$as$u20$core..iter..adapters..fuse..FuseImpl$LT$I$GT$$GT$8try_fold17h4e2a4df01ddeae8fE
	.p2align	4, 0x90
__ZN107_$LT$core..iter..adapters..fuse..Fuse$LT$I$GT$$u20$as$u20$core..iter..adapters..fuse..FuseImpl$LT$I$GT$$GT$8try_fold17h4e2a4df01ddeae8fE:
Lfunc_begin6:
	.file	3 "/rustc/2c8cc343237b8f7d5a3c3703e3a87f2eb2c54a74/library/core/src/iter/adapters" "fuse.rs"
	.loc	3 346 0
	.cfi_startproc
	.cfi_personality 155, _rust_eh_personality
	.cfi_lsda 16, Lexception2
	pushq	%rbp
	.cfi_def_cfa_offset 16
	.cfi_offset %rbp, -16
	movq	%rsp, %rbp
	.cfi_def_cfa_register %rbp
	subq	$496, %rsp
	movq	%rcx, -464(%rbp)
	movq	%rdx, -456(%rbp)
	movq	%rsi, -448(%rbp)
	movq	%rdi, -440(%rbp)
	movq	%rdi, -432(%rbp)
	movq	%rsi, -64(%rbp)
	movq	%rdx, -48(%rbp)
	movq	%rcx, -40(%rbp)
Ltmp35:
	.loc	3 352 9 prologue_end
	movb	$1, -65(%rbp)
Ltmp36:
	.loc	3 352 16 is_stmt 0
	cmpq	$1, (%rsi)
	jne	LBB6_2
	.loc	3 0 16
	movq	-464(%rbp), %rcx
	movq	-456(%rbp), %rdx
	movq	-448(%rbp), %rsi
	.loc	3 352 21
	addq	$8, %rsi
	movq	%rsi, -24(%rbp)
	.loc	3 353 38 is_stmt 1
	movb	$0, -65(%rbp)
Ltmp26:
	leaq	-336(%rbp), %rdi
	.loc	3 353 19 is_stmt 0
	callq	__ZN102_$LT$core..iter..adapters..map..Map$LT$I$C$F$GT$$u20$as$u20$core..iter..traits..iterator..Iterator$GT$8try_fold17heaed8e5d070732a8E
Ltmp27:
	jmp	LBB6_5
Ltmp37:
LBB6_2:
Ltmp32:
	.loc	3 0 19
	movq	-440(%rbp), %rdi
	.loc	3 355 15 is_stmt 1
	callq	__ZN95_$LT$core..ops..control_flow..ControlFlow$LT$B$C$C$GT$$u20$as$u20$core..ops..try_trait..Try$GT$11from_output17haf23a94db338f283E
Ltmp33:
	jmp	LBB6_11
LBB6_3:
	.loc	3 356 5
	testb	$1, -65(%rbp)
	jne	LBB6_13
	jmp	LBB6_12
LBB6_4:
Ltmp34:
	.loc	3 0 5 is_stmt 0
	movq	%rax, %rcx
	movl	%edx, %eax
	movq	%rcx, -16(%rbp)
	movl	%eax, -8(%rbp)
	jmp	LBB6_3
LBB6_5:
Ltmp28:
	leaq	-424(%rbp), %rdi
	leaq	-336(%rbp), %rsi
Ltmp38:
	.loc	3 353 19 is_stmt 1
	callq	__ZN95_$LT$core..ops..control_flow..ControlFlow$LT$B$C$C$GT$$u20$as$u20$core..ops..try_trait..Try$GT$6branch17he6e88a0994de3f97E
Ltmp29:
	jmp	LBB6_6
LBB6_6:
	movl	$1, %eax
	xorl	%ecx, %ecx
	cmpq	$4, -424(%rbp)
	cmoveq	%rcx, %rax
	cmpq	$0, %rax
	jne	LBB6_8
Ltmp39:
	.loc	3 352 9
	jmp	LBB6_2
LBB6_8:
	.loc	3 0 9 is_stmt 0
	movl	$11, %ecx
	movq	%rcx, -480(%rbp)
	leaq	-248(%rbp), %rdi
	movq	%rdi, -488(%rbp)
	leaq	-424(%rbp), %rsi
Ltmp40:
	.loc	3 353 43 is_stmt 1
	rep;movsq (%rsi), %es:(%rdi)
	movq	-488(%rbp), %rsi
	movq	-480(%rbp), %rcx
	leaq	-160(%rbp), %rdi
	movq	%rdi, -472(%rbp)
Ltmp41:
	.loc	3 353 43 is_stmt 0
	rep;movsq (%rsi), %es:(%rdi)
	movq	-472(%rbp), %rsi
	movq	-440(%rbp), %rdi
Ltmp30:
	.loc	3 353 19
	callq	__ZN104_$LT$core..ops..control_flow..ControlFlow$LT$B$C$C$GT$$u20$as$u20$core..ops..try_trait..FromResidual$GT$13from_residual17hfe6018700ca429c8E
Ltmp31:
	jmp	LBB6_9
Ltmp42:
LBB6_9:
	.loc	3 356 5 is_stmt 1
	jmp	LBB6_10
LBB6_10:
	.loc	3 0 5 is_stmt 0
	movq	-432(%rbp), %rax
	.loc	3 356 6
	addq	$496, %rsp
	popq	%rbp
	retq
LBB6_11:
	.loc	3 356 5
	testb	$1, -65(%rbp)
	jne	LBB6_14
	jmp	LBB6_10
LBB6_12:
	.loc	3 346 5 is_stmt 1
	movq	-16(%rbp), %rdi
	callq	__Unwind_Resume
LBB6_13:
	.loc	3 356 5
	jmp	LBB6_12
LBB6_14:
	jmp	LBB6_10
Ltmp43:
Lfunc_end6:
	.cfi_endproc
	.section	__TEXT,__gcc_except_tab
	.p2align	2
GCC_except_table6:
Lexception2:
	.byte	255
	.byte	255
	.byte	1
	.uleb128 Lcst_end2-Lcst_begin2
Lcst_begin2:
	.uleb128 Ltmp26-Lfunc_begin6
	.uleb128 Ltmp31-Ltmp26
	.uleb128 Ltmp34-Lfunc_begin6
	.byte	0
	.uleb128 Ltmp31-Lfunc_begin6
	.uleb128 Lfunc_end6-Ltmp31
	.byte	0
	.byte	0
Lcst_end2:
	.p2align	2

	.section	__TEXT,__text,regular,pure_instructions
	.globl	__ZN107_$LT$core..iter..adapters..fuse..Fuse$LT$I$GT$$u20$as$u20$core..iter..adapters..fuse..FuseImpl$LT$I$GT$$GT$8try_fold17hf2cec5d4e3830416E
	.p2align	4, 0x90
__ZN107_$LT$core..iter..adapters..fuse..Fuse$LT$I$GT$$u20$as$u20$core..iter..adapters..fuse..FuseImpl$LT$I$GT$$GT$8try_fold17hf2cec5d4e3830416E:
Lfunc_begin7:
	.loc	3 346 0
	.cfi_startproc
	.cfi_personality 155, _rust_eh_personality
	.cfi_lsda 16, Lexception3
	pushq	%rbp
	.cfi_def_cfa_offset 16
	.cfi_offset %rbp, -16
	movq	%rsp, %rbp
	.cfi_def_cfa_register %rbp
	subq	$560, %rsp
	movq	%rcx, -528(%rbp)
	movq	%rdx, -520(%rbp)
	movq	%rsi, -512(%rbp)
	movq	%rdi, -504(%rbp)
	movq	%rdi, -496(%rbp)
	movq	%rsi, -64(%rbp)
	movq	%rdx, -48(%rbp)
	movq	%rcx, -40(%rbp)
Ltmp53:
	.loc	3 352 9 prologue_end
	movb	$1, -65(%rbp)
Ltmp54:
	.loc	3 352 16 is_stmt 0
	cmpq	$1, (%rsi)
	jne	LBB7_2
	.loc	3 0 16
	movq	-528(%rbp), %rcx
	movq	-520(%rbp), %rdx
	movq	-512(%rbp), %rsi
	.loc	3 352 21
	addq	$8, %rsi
	movq	%rsi, -24(%rbp)
	.loc	3 353 38 is_stmt 1
	movb	$0, -65(%rbp)
Ltmp44:
	leaq	-384(%rbp), %rdi
	.loc	3 353 19 is_stmt 0
	callq	__ZN102_$LT$core..iter..adapters..map..Map$LT$I$C$F$GT$$u20$as$u20$core..iter..traits..iterator..Iterator$GT$8try_fold17h6731dcb73f65f173E
Ltmp45:
	jmp	LBB7_5
Ltmp55:
LBB7_2:
Ltmp50:
	.loc	3 0 19
	movq	-504(%rbp), %rdi
	.loc	3 355 15 is_stmt 1
	callq	__ZN95_$LT$core..ops..control_flow..ControlFlow$LT$B$C$C$GT$$u20$as$u20$core..ops..try_trait..Try$GT$11from_output17h57b92220b1cf4294E
Ltmp51:
	jmp	LBB7_11
LBB7_3:
	.loc	3 356 5
	testb	$1, -65(%rbp)
	jne	LBB7_13
	jmp	LBB7_12
LBB7_4:
Ltmp52:
	.loc	3 0 5 is_stmt 0
	movq	%rax, %rcx
	movl	%edx, %eax
	movq	%rcx, -16(%rbp)
	movl	%eax, -8(%rbp)
	jmp	LBB7_3
LBB7_5:
Ltmp46:
	leaq	-488(%rbp), %rdi
	leaq	-384(%rbp), %rsi
Ltmp56:
	.loc	3 353 19 is_stmt 1
	callq	__ZN95_$LT$core..ops..control_flow..ControlFlow$LT$B$C$C$GT$$u20$as$u20$core..ops..try_trait..Try$GT$6branch17h17d70f8693d22d3eE
Ltmp47:
	jmp	LBB7_6
LBB7_6:
	movl	$1, %eax
	xorl	%ecx, %ecx
	cmpq	$9, -488(%rbp)
	cmoveq	%rcx, %rax
	cmpq	$0, %rax
	jne	LBB7_8
Ltmp57:
	.loc	3 352 9
	jmp	LBB7_2
LBB7_8:
	.loc	3 0 9 is_stmt 0
	movl	$13, %ecx
	movq	%rcx, -544(%rbp)
	leaq	-280(%rbp), %rdi
	movq	%rdi, -552(%rbp)
	leaq	-488(%rbp), %rsi
Ltmp58:
	.loc	3 353 43 is_stmt 1
	rep;movsq (%rsi), %es:(%rdi)
	movq	-552(%rbp), %rsi
	movq	-544(%rbp), %rcx
	leaq	-176(%rbp), %rdi
	movq	%rdi, -536(%rbp)
Ltmp59:
	.loc	3 353 43 is_stmt 0
	rep;movsq (%rsi), %es:(%rdi)
	movq	-536(%rbp), %rsi
	movq	-504(%rbp), %rdi
Ltmp48:
	.loc	3 353 19
	callq	__ZN104_$LT$core..ops..control_flow..ControlFlow$LT$B$C$C$GT$$u20$as$u20$core..ops..try_trait..FromResidual$GT$13from_residual17h9b8bd3303019f9deE
Ltmp49:
	jmp	LBB7_9
Ltmp60:
LBB7_9:
	.loc	3 356 5 is_stmt 1
	jmp	LBB7_10
LBB7_10:
	.loc	3 0 5 is_stmt 0
	movq	-496(%rbp), %rax
	.loc	3 356 6
	addq	$560, %rsp
	popq	%rbp
	retq
LBB7_11:
	.loc	3 356 5
	testb	$1, -65(%rbp)
	jne	LBB7_14
	jmp	LBB7_10
LBB7_12:
	.loc	3 346 5 is_stmt 1
	movq	-16(%rbp), %rdi
	callq	__Unwind_Resume
LBB7_13:
	.loc	3 356 5
	jmp	LBB7_12
LBB7_14:
	jmp	LBB7_10
Ltmp61:
Lfunc_end7:
	.cfi_endproc
	.section	__TEXT,__gcc_except_tab
	.p2align	2
GCC_except_table7:
Lexception3:
	.byte	255
	.byte	255
	.byte	1
	.uleb128 Lcst_end3-Lcst_begin3
Lcst_begin3:
	.uleb128 Ltmp44-Lfunc_begin7
	.uleb128 Ltmp49-Ltmp44
	.uleb128 Ltmp52-Lfunc_begin7
	.byte	0
	.uleb128 Ltmp49-Lfunc_begin7
	.uleb128 Lfunc_end7-Ltmp49
	.byte	0
	.byte	0
Lcst_end3:
	.p2align	2

	.section	__TEXT,__text,regular,pure_instructions
	.globl	__ZN108_$LT$core..iter..adapters..filter..Filter$LT$I$C$P$GT$$u20$as$u20$core..iter..traits..iterator..Iterator$GT$4next17h45cae8aa2d0749a3E
	.p2align	4, 0x90
__ZN108_$LT$core..iter..adapters..filter..Filter$LT$I$C$P$GT$$u20$as$u20$core..iter..traits..iterator..Iterator$GT$4next17h45cae8aa2d0749a3E:
Lfunc_begin8:
	.file	4 "/rustc/2c8cc343237b8f7d5a3c3703e3a87f2eb2c54a74/library/core/src/iter/adapters" "filter.rs"
	.loc	4 55 0
	.cfi_startproc
	pushq	%rbp
	.cfi_def_cfa_offset 16
	.cfi_offset %rbp, -16
	movq	%rsp, %rbp
	.cfi_def_cfa_register %rbp
	subq	$16, %rsp
	movq	%rsi, %rdx
	movq	%rdi, %rax
	movq	%rax, -16(%rbp)
	movq	%rdx, -8(%rbp)
Ltmp62:
	.loc	4 56 9 prologue_end
	movq	%rdx, %rsi
	callq	__ZN4core4iter6traits8iterator8Iterator4find17hb8b6cecb9a3ff4d8E
	movq	-16(%rbp), %rax
	.loc	4 57 6
	addq	$16, %rsp
	popq	%rbp
	retq
Ltmp63:
Lfunc_end8:
	.cfi_endproc

	.globl	__ZN108_$LT$core..iter..adapters..filter..Filter$LT$I$C$P$GT$$u20$as$u20$core..iter..traits..iterator..Iterator$GT$4next17h96f7fd84ac7706b0E
	.p2align	4, 0x90
__ZN108_$LT$core..iter..adapters..filter..Filter$LT$I$C$P$GT$$u20$as$u20$core..iter..traits..iterator..Iterator$GT$4next17h96f7fd84ac7706b0E:
Lfunc_begin9:
	.loc	4 55 0
	.cfi_startproc
	pushq	%rbp
	.cfi_def_cfa_offset 16
	.cfi_offset %rbp, -16
	movq	%rsp, %rbp
	.cfi_def_cfa_register %rbp
	subq	$16, %rsp
	movq	%rsi, %rdx
	movq	%rdi, %rax
	movq	%rax, -16(%rbp)
	movq	%rdx, -8(%rbp)
Ltmp64:
	.loc	4 56 9 prologue_end
	movq	%rdx, %rsi
	callq	__ZN4core4iter6traits8iterator8Iterator4find17h05483a518de142f0E
	movq	-16(%rbp), %rax
	.loc	4 57 6
	addq	$16, %rsp
	popq	%rbp
	retq
Ltmp65:
Lfunc_end9:
	.cfi_endproc

	.globl	__ZN108_$LT$core..iter..adapters..filter..Filter$LT$I$C$P$GT$$u20$as$u20$core..iter..traits..iterator..Iterator$GT$9size_hint17h334f309f84ab87a8E
	.p2align	4, 0x90
__ZN108_$LT$core..iter..adapters..filter..Filter$LT$I$C$P$GT$$u20$as$u20$core..iter..traits..iterator..Iterator$GT$9size_hint17h334f309f84ab87a8E:
Lfunc_begin10:
	.loc	4 60 0
	.cfi_startproc
	pushq	%rbp
	.cfi_def_cfa_offset 16
	.cfi_offset %rbp, -16
	movq	%rsp, %rbp
	.cfi_def_cfa_register %rbp
	subq	$64, %rsp
	movq	%rdi, -64(%rbp)
	movq	%rdi, -56(%rbp)
	movq	%rsi, -24(%rbp)
Ltmp66:
	.loc	4 61 26 prologue_end
	leaq	-48(%rbp), %rdi
	callq	__ZN114_$LT$core..iter..adapters..flatten..FlatMap$LT$I$C$U$C$F$GT$$u20$as$u20$core..iter..traits..iterator..Iterator$GT$9size_hint17h4abd5d1af517a1b6E
	movq	-64(%rbp), %rdi
	movq	-56(%rbp), %rax
	.loc	4 61 17 is_stmt 0
	movq	-40(%rbp), %rdx
	movq	-32(%rbp), %rcx
	movq	%rdx, -16(%rbp)
	movq	%rcx, -8(%rbp)
Ltmp67:
	.loc	4 62 9 is_stmt 1
	movq	$0, (%rdi)
	movq	%rdx, 8(%rdi)
	movq	%rcx, 16(%rdi)
Ltmp68:
	.loc	4 63 6
	addq	$64, %rsp
	popq	%rbp
	retq
Ltmp69:
Lfunc_end10:
	.cfi_endproc

	.globl	__ZN108_$LT$core..iter..adapters..filter..Filter$LT$I$C$P$GT$$u20$as$u20$core..iter..traits..iterator..Iterator$GT$9size_hint17h4eb8cf8b08fb2c78E
	.p2align	4, 0x90
__ZN108_$LT$core..iter..adapters..filter..Filter$LT$I$C$P$GT$$u20$as$u20$core..iter..traits..iterator..Iterator$GT$9size_hint17h4eb8cf8b08fb2c78E:
Lfunc_begin11:
	.loc	4 60 0
	.cfi_startproc
	pushq	%rbp
	.cfi_def_cfa_offset 16
	.cfi_offset %rbp, -16
	movq	%rsp, %rbp
	.cfi_def_cfa_register %rbp
	subq	$64, %rsp
	movq	%rdi, -64(%rbp)
	movq	%rdi, -56(%rbp)
	movq	%rsi, -24(%rbp)
Ltmp70:
	.loc	4 61 26 prologue_end
	leaq	-48(%rbp), %rdi
	callq	__ZN114_$LT$core..iter..adapters..flatten..FlatMap$LT$I$C$U$C$F$GT$$u20$as$u20$core..iter..traits..iterator..Iterator$GT$9size_hint17hc02fbcdb7e2aaf77E
	movq	-64(%rbp), %rdi
	movq	-56(%rbp), %rax
	.loc	4 61 17 is_stmt 0
	movq	-40(%rbp), %rdx
	movq	-32(%rbp), %rcx
	movq	%rdx, -16(%rbp)
	movq	%rcx, -8(%rbp)
Ltmp71:
	.loc	4 62 9 is_stmt 1
	movq	$0, (%rdi)
	movq	%rdx, 8(%rdi)
	movq	%rcx, 16(%rdi)
Ltmp72:
	.loc	4 63 6
	addq	$64, %rsp
	popq	%rbp
	retq
Ltmp73:
Lfunc_end11:
	.cfi_endproc

	.p2align	4, 0x90
__ZN10ttf_parser4Face6tables17h1f549ac23e2233e0E:
Lfunc_begin12:
	.file	5 "/Users/natalie/.cargo/registry/src/github.com-1ecc6299db9ec823/ttf-parser-0.17.1/src" "lib.rs"
	.loc	5 1074 0
	.cfi_startproc
	pushq	%rbp
	.cfi_def_cfa_offset 16
	.cfi_offset %rbp, -16
	movq	%rsp, %rbp
	.cfi_def_cfa_register %rbp
	pushq	%rax
	movq	%rdi, %rax
	movq	%rax, -8(%rbp)
Ltmp74:
	.loc	5 1075 9 prologue_end
	addq	$32, %rax
	.loc	5 1076 6
	addq	$8, %rsp
	popq	%rbp
	retq
Ltmp75:
Lfunc_end12:
	.cfi_endproc

	.p2align	4, 0x90
__ZN10ttf_parser6parser6Stream3new17h10b13abaadbcaaa9E:
Lfunc_begin13:
	.file	6 "/Users/natalie/.cargo/registry/src/github.com-1ecc6299db9ec823/ttf-parser-0.17.1/src" "parser.rs"
	.loc	6 664 0
	.cfi_startproc
	pushq	%rbp
	.cfi_def_cfa_offset 16
	.cfi_offset %rbp, -16
	movq	%rsp, %rbp
	.cfi_def_cfa_register %rbp
	subq	$16, %rsp
	movq	%rdi, %rax
	movq	%rsi, -16(%rbp)
	movq	%rdx, -8(%rbp)
Ltmp76:
	.loc	6 665 9 prologue_end
	movq	%rsi, (%rdi)
	movq	%rdx, 8(%rdi)
	movq	$0, 16(%rdi)
	.loc	6 666 6
	addq	$16, %rsp
	popq	%rbp
	retq
Ltmp77:
Lfunc_end13:
	.cfi_endproc

	.p2align	4, 0x90
__ZN10ttf_parser6tables4cmap8Subtable10is_unicode17h2322960c57ae297aE:
Lfunc_begin14:
	.file	7 "/Users/natalie/.cargo/registry/src/github.com-1ecc6299db9ec823/ttf-parser-0.17.1/src/tables/cmap" "mod.rs"
	.loc	7 61 0
	.cfi_startproc
	pushq	%rbp
	.cfi_def_cfa_offset 16
	.cfi_offset %rbp, -16
	movq	%rsp, %rbp
	.cfi_def_cfa_register %rbp
	subq	$32, %rsp
	movq	%rdi, -32(%rbp)
	movq	%rdi, -8(%rbp)
Ltmp78:
	.loc	7 66 15 prologue_end
	movzbl	98(%rdi), %eax
	movq	%rax, -24(%rbp)
	testq	%rax, %rax
	.loc	7 66 9 is_stmt 0
	je	LBB14_2
	jmp	LBB14_12
LBB14_12:
	.loc	7 0 9
	movq	-24(%rbp), %rax
	.loc	7 66 9
	subq	$3, %rax
	je	LBB14_3
	jmp	LBB14_1
LBB14_1:
	.loc	7 83 18 is_stmt 1
	movb	$0, -10(%rbp)
	jmp	LBB14_4
LBB14_2:
	.loc	7 67 36
	movb	$1, -10(%rbp)
	jmp	LBB14_4
LBB14_3:
	.loc	7 0 36 is_stmt 0
	movq	-32(%rbp), %rax
	.loc	7 68 36 is_stmt 1
	cmpw	$1, 96(%rax)
	je	LBB14_6
	jmp	LBB14_5
LBB14_4:
	.loc	7 85 6
	movb	-10(%rbp), %al
	andb	$1, %al
	movzbl	%al, %eax
	addq	$32, %rsp
	popq	%rbp
	retq
LBB14_5:
	.loc	7 0 6 is_stmt 0
	movq	-32(%rbp), %rax
	.loc	7 73 21 is_stmt 1
	movq	(%rax), %rax
	.loc	7 72 47
	addq	$-6, %rax
	subq	$2, %rax
	jb	LBB14_8
	jmp	LBB14_7
LBB14_6:
	.loc	7 68 91
	movb	$1, -10(%rbp)
	jmp	LBB14_4
LBB14_7:
	.loc	7 72 47
	movb	$0, -9(%rbp)
	jmp	LBB14_9
LBB14_8:
	movb	$1, -9(%rbp)
LBB14_9:
	.loc	7 0 47 is_stmt 0
	movq	-32(%rbp), %rax
Ltmp79:
	.loc	7 80 17 is_stmt 1
	cmpw	$10, 96(%rax)
	je	LBB14_11
	movb	$0, -10(%rbp)
	jmp	LBB14_4
LBB14_11:
	.loc	7 81 24
	movb	-9(%rbp), %al
	.loc	7 80 17
	andb	$1, %al
	movb	%al, -10(%rbp)
	jmp	LBB14_4
Ltmp80:
Lfunc_end14:
	.cfi_endproc

	.p2align	4, 0x90
__ZN10ttf_parser6tables4cmap9Subtables3len17h48d5dc5b2decffceE:
Lfunc_begin15:
	.loc	7 221 0
	.cfi_startproc
	pushq	%rbp
	.cfi_def_cfa_offset 16
	.cfi_offset %rbp, -16
	movq	%rsp, %rbp
	.cfi_def_cfa_register %rbp
	subq	$16, %rsp
	movq	%rdi, -8(%rbp)
Ltmp81:
	.loc	7 222 9 prologue_end
	addq	$16, %rdi
	callq	__ZN10ttf_parser6parser20LazyArray16$LT$T$GT$3len17h59f3ee5bbaf48da5E
	.loc	7 223 6
	addq	$16, %rsp
	popq	%rbp
	retq
Ltmp82:
Lfunc_end15:
	.cfi_endproc

	.globl	__ZN111_$LT$alloc..vec..Vec$LT$T$GT$$u20$as$u20$alloc..vec..spec_from_iter_nested..SpecFromIterNested$LT$T$C$I$GT$$GT$9from_iter17h45755711cdeb8004E
	.p2align	4, 0x90
__ZN111_$LT$alloc..vec..Vec$LT$T$GT$$u20$as$u20$alloc..vec..spec_from_iter_nested..SpecFromIterNested$LT$T$C$I$GT$$GT$9from_iter17h45755711cdeb8004E:
Lfunc_begin16:
	.file	8 "/rustc/2c8cc343237b8f7d5a3c3703e3a87f2eb2c54a74/library/alloc/src/vec" "spec_from_iter_nested.rs"
	.loc	8 20 0
	.cfi_startproc
	.cfi_personality 155, _rust_eh_personality
	.cfi_lsda 16, Lexception4
	pushq	%rbp
	.cfi_def_cfa_offset 16
	.cfi_offset %rbp, -16
	movq	%rsp, %rbp
	.cfi_def_cfa_register %rbp
	subq	$800, %rsp
	movq	%rsi, -728(%rbp)
Ltmp99:
	movq	%rdi, -720(%rbp)
	movq	%rdi, -712(%rbp)
Ltmp100:
	.loc	8 26 13 prologue_end
	movb	$1, -218(%rbp)
Ltmp83:
	leaq	-680(%rbp), %rdi
	.loc	8 26 32 is_stmt 0
	callq	__ZN108_$LT$core..iter..adapters..filter..Filter$LT$I$C$P$GT$$u20$as$u20$core..iter..traits..iterator..Iterator$GT$4next17h96f7fd84ac7706b0E
Ltmp101:
Ltmp84:
	jmp	LBB16_3
Ltmp102:
LBB16_1:
	.loc	8 45 5 is_stmt 1
	testb	$1, -218(%rbp)
	jne	LBB16_19
	jmp	LBB16_18
Ltmp103:
LBB16_2:
Ltmp85:
	.loc	8 0 5 is_stmt 0
	movq	%rax, %rcx
	movl	%edx, %eax
	movq	%rcx, -192(%rbp)
	movl	%eax, -184(%rbp)
	jmp	LBB16_1
Ltmp104:
LBB16_3:
	.loc	8 26 32 is_stmt 1
	movl	$1, %eax
	xorl	%ecx, %ecx
	cmpq	$9, -680(%rbp)
	cmoveq	%rcx, %rax
	.loc	8 26 26 is_stmt 0
	cmpq	$0, %rax
	jne	LBB16_5
Ltmp105:
	.loc	8 0 26
	movq	-720(%rbp), %rax
Ltmp106:
	.file	9 "/rustc/2c8cc343237b8f7d5a3c3703e3a87f2eb2c54a74/library/alloc/src/vec" "mod.rs"
	.loc	9 425 20 is_stmt 1
	movq	L___unnamed_1(%rip), %rdx
	movq	L___unnamed_1+8(%rip), %rcx
	.loc	9 425 9 is_stmt 0
	movq	%rdx, (%rax)
	movq	%rcx, 8(%rax)
	movq	$0, 16(%rax)
Ltmp107:
	.loc	8 45 5 is_stmt 1
	jmp	LBB16_20
Ltmp108:
LBB16_5:
	.loc	8 0 5 is_stmt 0
	movl	$13, %ecx
	leaq	-576(%rbp), %rdi
	leaq	-680(%rbp), %rsi
	.loc	8 28 18 is_stmt 1
	rep;movsq (%rsi), %es:(%rdi)
	movq	-728(%rbp), %rsi
Ltmp86:
	leaq	-472(%rbp), %rdi
Ltmp109:
	.loc	8 29 34
	callq	__ZN108_$LT$core..iter..adapters..filter..Filter$LT$I$C$P$GT$$u20$as$u20$core..iter..traits..iterator..Iterator$GT$9size_hint17h334f309f84ab87a8E
Ltmp87:
	jmp	LBB16_8
Ltmp110:
LBB16_6:
	.loc	8 39 13
	movb	$1, %al
	testb	$1, %al
	jne	LBB16_14
	jmp	LBB16_1
Ltmp111:
LBB16_7:
Ltmp92:
	.loc	8 0 13 is_stmt 0
	movq	%rax, %rcx
	movl	%edx, %eax
	movq	%rcx, -192(%rbp)
	movl	%eax, -184(%rbp)
	jmp	LBB16_6
Ltmp112:
LBB16_8:
	.loc	8 29 22 is_stmt 1
	movq	-472(%rbp), %rax
	movq	%rax, -176(%rbp)
Ltmp113:
	.loc	8 31 61
	movq	%rax, -168(%rbp)
Ltmp114:
	.file	10 "/rustc/2c8cc343237b8f7d5a3c3703e3a87f2eb2c54a74/library/core/src/num" "uint_macros.rs"
	.loc	10 1022 13
	incq	%rax
	movq	$-1, %rcx
	cmoveq	%rcx, %rax
	movq	%rax, -160(%rbp)
	movq	-160(%rbp), %rax
	movq	%rax, -736(%rbp)
	movq	%rax, -152(%rbp)
Ltmp115:
	.loc	10 0 13 is_stmt 0
	movq	-736(%rbp), %rsi
	.loc	8 31 21 is_stmt 1
	movq	$4, -144(%rbp)
Ltmp116:
	.file	11 "/rustc/2c8cc343237b8f7d5a3c3703e3a87f2eb2c54a74/library/core/src" "cmp.rs"
	.loc	11 1276 5
	movq	$4, -136(%rbp)
	.loc	11 1276 12 is_stmt 0
	movq	%rsi, -128(%rbp)
Ltmp88:
	movl	$4, %edi
Ltmp117:
	.loc	11 803 13 is_stmt 1
	callq	__ZN4core3cmp6max_by17h178f3351ef6ac440E
Ltmp89:
	movq	%rax, -744(%rbp)
	jmp	LBB16_10
Ltmp118:
LBB16_10:
	.loc	11 0 13 is_stmt 0
	movq	-744(%rbp), %rdi
	.loc	11 803 13
	movq	%rdi, -120(%rbp)
Ltmp119:
	.loc	8 32 53 is_stmt 1
	movq	%rdi, -112(%rbp)
Ltmp120:
	.loc	9 483 32
	movq	%rdi, -104(%rbp)
Ltmp121:
	.loc	9 676 45
	movq	%rdi, -96(%rbp)
Ltmp122:
	.file	12 "/rustc/2c8cc343237b8f7d5a3c3703e3a87f2eb2c54a74/library/alloc/src" "raw_vec.rs"
	.loc	12 131 37
	movb	$0, -217(%rbp)
	.loc	12 131 9 is_stmt 0
	movzbl	-217(%rbp), %esi
Ltmp90:
	callq	__ZN5alloc7raw_vec19RawVec$LT$T$C$A$GT$11allocate_in17he8d4b4d7011450a1E
Ltmp91:
	movq	%rdx, -760(%rbp)
	movq	%rax, -752(%rbp)
	jmp	LBB16_11
Ltmp123:
LBB16_11:
	.loc	12 0 9
	movq	-760(%rbp), %rax
	movq	-752(%rbp), %rcx
	.loc	9 676 9 is_stmt 1
	movq	%rcx, -448(%rbp)
	movq	%rax, -440(%rbp)
	movq	$0, -432(%rbp)
Ltmp124:
	.loc	8 35 32
	leaq	-448(%rbp), %rax
	movq	%rax, -88(%rbp)
Ltmp125:
	.loc	9 1280 19
	leaq	-448(%rbp), %rax
	movq	%rax, -80(%rbp)
Ltmp126:
	.loc	12 224 9
	movq	-440(%rbp), %rax
	movq	%rax, -768(%rbp)
	movq	%rax, -72(%rbp)
Ltmp127:
	.file	13 "/rustc/2c8cc343237b8f7d5a3c3703e3a87f2eb2c54a74/library/core/src/ptr" "unique.rs"
	.loc	13 104 9
	movq	%rax, -64(%rbp)
Ltmp128:
	.file	14 "/rustc/2c8cc343237b8f7d5a3c3703e3a87f2eb2c54a74/library/core/src/ptr" "non_null.rs"
	.loc	14 326 9
	movq	%rax, -56(%rbp)
Ltmp129:
	.loc	9 1282 21
	movq	%rax, -48(%rbp)
Ltmp130:
	.file	15 "/rustc/2c8cc343237b8f7d5a3c3703e3a87f2eb2c54a74/library/core/src/ptr" "mut_ptr.rs"
	.loc	15 52 36
	movq	%rax, -216(%rbp)
	.loc	15 52 18 is_stmt 0
	movq	-216(%rbp), %rax
	movq	%rax, -40(%rbp)
Ltmp131:
	.loc	15 38 13 is_stmt 1
	movq	%rax, -32(%rbp)
Ltmp132:
	.loc	15 215 33
	movq	%rax, -24(%rbp)
	.loc	15 215 18 is_stmt 0
	movq	%rax, -16(%rbp)
	movq	-16(%rbp), %rax
Ltmp133:
	.loc	15 0 18
	movl	$13, %ecx
	movq	%rcx, -784(%rbp)
	leaq	-424(%rbp), %rdi
	movq	%rdi, -792(%rbp)
	leaq	-576(%rbp), %rsi
	.loc	8 35 53 is_stmt 1
	rep;movsq (%rsi), %es:(%rdi)
	movq	-792(%rbp), %rsi
	movq	-768(%rbp), %rdi
	movq	-784(%rbp), %rcx
Ltmp134:
	.file	16 "/rustc/2c8cc343237b8f7d5a3c3703e3a87f2eb2c54a74/library/core/src/ptr" "mod.rs"
	.loc	16 1354 9
	rep;movsq (%rsi), %es:(%rdi)
	movq	-728(%rbp), %rsi
	leaq	-448(%rbp), %rax
Ltmp135:
	.loc	8 36 21
	movq	%rax, -8(%rbp)
Ltmp136:
	.loc	9 1377 9
	movq	$1, -432(%rbp)
Ltmp137:
	.loc	8 38 17
	movq	-432(%rbp), %rax
	movq	%rax, -688(%rbp)
	movq	-448(%rbp), %rax
	movq	-440(%rbp), %rcx
	movq	%rcx, -696(%rbp)
	movq	%rax, -704(%rbp)
Ltmp138:
	.loc	8 43 64
	movb	$0, -218(%rbp)
	movl	$12, %ecx
	leaq	-320(%rbp), %rdi
	movq	%rdi, -776(%rbp)
	rep;movsq (%rsi), %es:(%rdi)
	movq	-776(%rbp), %rsi
Ltmp93:
	leaq	-704(%rbp), %rdi
	.loc	8 43 9 is_stmt 0
	callq	__ZN97_$LT$alloc..vec..Vec$LT$T$C$A$GT$$u20$as$u20$alloc..vec..spec_extend..SpecExtend$LT$T$C$I$GT$$GT$11spec_extend17h09116ba6b3e911b1E
Ltmp94:
	jmp	LBB16_17
Ltmp139:
LBB16_13:
Ltmp98:
	.loc	8 20 5 is_stmt 1
	callq	__ZN4core9panicking19panic_cannot_unwind17h1fbca7e1d7f56ae1E
Ltmp140:
LBB16_14:
	.loc	8 39 13
	jmp	LBB16_1
Ltmp141:
LBB16_15:
Ltmp96:
	.loc	8 0 13 is_stmt 0
	leaq	-704(%rbp), %rdi
	.loc	8 45 5 is_stmt 1
	callq	__ZN4core3ptr78drop_in_place$LT$alloc..vec..Vec$LT$ttf_parser..tables..cmap..Subtable$GT$$GT$17h99abddb1a9fed3c1E
Ltmp97:
	jmp	LBB16_1
Ltmp142:
LBB16_16:
Ltmp95:
	.loc	8 0 5 is_stmt 0
	movq	%rax, %rcx
	movl	%edx, %eax
	movq	%rcx, -192(%rbp)
	movl	%eax, -184(%rbp)
	jmp	LBB16_15
Ltmp143:
LBB16_17:
	movq	-720(%rbp), %rax
Ltmp144:
	.loc	8 44 9 is_stmt 1
	movq	-704(%rbp), %rcx
	movq	%rcx, (%rax)
	movq	-696(%rbp), %rcx
	movq	%rcx, 8(%rax)
	movq	-688(%rbp), %rcx
	movq	%rcx, 16(%rax)
Ltmp145:
	.loc	8 45 5
	jmp	LBB16_20
Ltmp146:
LBB16_18:
	.loc	8 20 5
	movq	-192(%rbp), %rdi
	callq	__Unwind_Resume
Ltmp147:
LBB16_19:
	.loc	8 45 5
	jmp	LBB16_18
Ltmp148:
LBB16_20:
	.loc	8 0 5 is_stmt 0
	movq	-712(%rbp), %rax
	.loc	8 45 6
	addq	$800, %rsp
	popq	%rbp
	retq
Ltmp149:
Lfunc_end16:
	.cfi_endproc
	.section	__TEXT,__gcc_except_tab
	.p2align	2
GCC_except_table16:
Lexception4:
	.byte	255
	.byte	255
	.byte	1
	.uleb128 Lcst_end4-Lcst_begin4
Lcst_begin4:
	.uleb128 Ltmp83-Lfunc_begin16
	.uleb128 Ltmp84-Ltmp83
	.uleb128 Ltmp85-Lfunc_begin16
	.byte	0
	.uleb128 Ltmp86-Lfunc_begin16
	.uleb128 Ltmp91-Ltmp86
	.uleb128 Ltmp92-Lfunc_begin16
	.byte	0
	.uleb128 Ltmp93-Lfunc_begin16
	.uleb128 Ltmp94-Ltmp93
	.uleb128 Ltmp95-Lfunc_begin16
	.byte	0
	.uleb128 Ltmp96-Lfunc_begin16
	.uleb128 Ltmp97-Ltmp96
	.uleb128 Ltmp98-Lfunc_begin16
	.byte	0
	.uleb128 Ltmp97-Lfunc_begin16
	.uleb128 Lfunc_end16-Ltmp97
	.byte	0
	.byte	0
Lcst_end4:
	.p2align	2

	.section	__TEXT,__text,regular,pure_instructions
	.globl	__ZN111_$LT$alloc..vec..Vec$LT$T$GT$$u20$as$u20$alloc..vec..spec_from_iter_nested..SpecFromIterNested$LT$T$C$I$GT$$GT$9from_iter17h7aafecc00b31406bE
	.p2align	4, 0x90
__ZN111_$LT$alloc..vec..Vec$LT$T$GT$$u20$as$u20$alloc..vec..spec_from_iter_nested..SpecFromIterNested$LT$T$C$I$GT$$GT$9from_iter17h7aafecc00b31406bE:
Lfunc_begin17:
	.loc	8 20 0 is_stmt 1
	.cfi_startproc
	.cfi_personality 155, _rust_eh_personality
	.cfi_lsda 16, Lexception5
	pushq	%rbp
	.cfi_def_cfa_offset 16
	.cfi_offset %rbp, -16
	movq	%rsp, %rbp
	.cfi_def_cfa_register %rbp
	subq	$752, %rsp
	movq	%rsi, -680(%rbp)
Ltmp166:
	movq	%rdi, -672(%rbp)
	movq	%rdi, -664(%rbp)
Ltmp167:
	.loc	8 26 13 prologue_end
	movb	$1, -218(%rbp)
Ltmp150:
	leaq	-632(%rbp), %rdi
	.loc	8 26 32 is_stmt 0
	callq	__ZN108_$LT$core..iter..adapters..filter..Filter$LT$I$C$P$GT$$u20$as$u20$core..iter..traits..iterator..Iterator$GT$4next17h45cae8aa2d0749a3E
Ltmp168:
Ltmp151:
	jmp	LBB17_3
Ltmp169:
LBB17_1:
	.loc	8 45 5 is_stmt 1
	testb	$1, -218(%rbp)
	jne	LBB17_19
	jmp	LBB17_18
Ltmp170:
LBB17_2:
Ltmp152:
	.loc	8 0 5 is_stmt 0
	movq	%rax, %rcx
	movl	%edx, %eax
	movq	%rcx, -192(%rbp)
	movl	%eax, -184(%rbp)
	jmp	LBB17_1
Ltmp171:
LBB17_3:
	.loc	8 26 32 is_stmt 1
	movl	$1, %eax
	xorl	%ecx, %ecx
	cmpq	$4, -632(%rbp)
	cmoveq	%rcx, %rax
	.loc	8 26 26 is_stmt 0
	cmpq	$0, %rax
	jne	LBB17_5
Ltmp172:
	.loc	8 0 26
	movq	-672(%rbp), %rax
Ltmp173:
	.loc	9 425 20 is_stmt 1
	movq	L___unnamed_1(%rip), %rdx
	movq	L___unnamed_1+8(%rip), %rcx
	.loc	9 425 9 is_stmt 0
	movq	%rdx, (%rax)
	movq	%rcx, 8(%rax)
	movq	$0, 16(%rax)
Ltmp174:
	.loc	8 45 5 is_stmt 1
	jmp	LBB17_20
Ltmp175:
LBB17_5:
	.loc	8 0 5 is_stmt 0
	movl	$11, %ecx
	leaq	-544(%rbp), %rdi
	leaq	-632(%rbp), %rsi
	.loc	8 28 18 is_stmt 1
	rep;movsq (%rsi), %es:(%rdi)
	movq	-680(%rbp), %rsi
Ltmp153:
	leaq	-456(%rbp), %rdi
Ltmp176:
	.loc	8 29 34
	callq	__ZN108_$LT$core..iter..adapters..filter..Filter$LT$I$C$P$GT$$u20$as$u20$core..iter..traits..iterator..Iterator$GT$9size_hint17h4eb8cf8b08fb2c78E
Ltmp154:
	jmp	LBB17_8
Ltmp177:
LBB17_6:
	.loc	8 39 13
	movb	$1, %al
	testb	$1, %al
	jne	LBB17_14
	jmp	LBB17_1
Ltmp178:
LBB17_7:
Ltmp159:
	.loc	8 0 13 is_stmt 0
	movq	%rax, %rcx
	movl	%edx, %eax
	movq	%rcx, -192(%rbp)
	movl	%eax, -184(%rbp)
	jmp	LBB17_6
Ltmp179:
LBB17_8:
	.loc	8 29 22 is_stmt 1
	movq	-456(%rbp), %rax
	movq	%rax, -176(%rbp)
Ltmp180:
	.loc	8 31 61
	movq	%rax, -168(%rbp)
Ltmp181:
	.loc	10 1022 13
	incq	%rax
	movq	$-1, %rcx
	cmoveq	%rcx, %rax
	movq	%rax, -160(%rbp)
	movq	-160(%rbp), %rax
	movq	%rax, -688(%rbp)
	movq	%rax, -152(%rbp)
Ltmp182:
	.loc	10 0 13 is_stmt 0
	movq	-688(%rbp), %rsi
	.loc	8 31 21 is_stmt 1
	movq	$4, -144(%rbp)
Ltmp183:
	.loc	11 1276 5
	movq	$4, -136(%rbp)
	.loc	11 1276 12 is_stmt 0
	movq	%rsi, -128(%rbp)
Ltmp155:
	movl	$4, %edi
Ltmp184:
	.loc	11 803 13 is_stmt 1
	callq	__ZN4core3cmp6max_by17h178f3351ef6ac440E
Ltmp156:
	movq	%rax, -696(%rbp)
	jmp	LBB17_10
Ltmp185:
LBB17_10:
	.loc	11 0 13 is_stmt 0
	movq	-696(%rbp), %rdi
	.loc	11 803 13
	movq	%rdi, -120(%rbp)
Ltmp186:
	.loc	8 32 53 is_stmt 1
	movq	%rdi, -112(%rbp)
Ltmp187:
	.loc	9 483 32
	movq	%rdi, -104(%rbp)
Ltmp188:
	.loc	9 676 45
	movq	%rdi, -96(%rbp)
Ltmp189:
	.loc	12 131 37
	movb	$0, -217(%rbp)
	.loc	12 131 9 is_stmt 0
	movzbl	-217(%rbp), %esi
Ltmp157:
	callq	__ZN5alloc7raw_vec19RawVec$LT$T$C$A$GT$11allocate_in17h280de8ae0c24030bE
Ltmp158:
	movq	%rdx, -712(%rbp)
	movq	%rax, -704(%rbp)
	jmp	LBB17_11
Ltmp190:
LBB17_11:
	.loc	12 0 9
	movq	-712(%rbp), %rax
	movq	-704(%rbp), %rcx
	.loc	9 676 9 is_stmt 1
	movq	%rcx, -432(%rbp)
	movq	%rax, -424(%rbp)
	movq	$0, -416(%rbp)
Ltmp191:
	.loc	8 35 32
	leaq	-432(%rbp), %rax
	movq	%rax, -88(%rbp)
Ltmp192:
	.loc	9 1280 19
	leaq	-432(%rbp), %rax
	movq	%rax, -80(%rbp)
Ltmp193:
	.loc	12 224 9
	movq	-424(%rbp), %rax
	movq	%rax, -720(%rbp)
	movq	%rax, -72(%rbp)
Ltmp194:
	.loc	13 104 9
	movq	%rax, -64(%rbp)
Ltmp195:
	.loc	14 326 9
	movq	%rax, -56(%rbp)
Ltmp196:
	.loc	9 1282 21
	movq	%rax, -48(%rbp)
Ltmp197:
	.loc	15 52 36
	movq	%rax, -216(%rbp)
	.loc	15 52 18 is_stmt 0
	movq	-216(%rbp), %rax
	movq	%rax, -40(%rbp)
Ltmp198:
	.loc	15 38 13 is_stmt 1
	movq	%rax, -32(%rbp)
Ltmp199:
	.loc	15 215 33
	movq	%rax, -24(%rbp)
	.loc	15 215 18 is_stmt 0
	movq	%rax, -16(%rbp)
	movq	-16(%rbp), %rax
Ltmp200:
	.loc	15 0 18
	movl	$11, %ecx
	movq	%rcx, -736(%rbp)
	leaq	-408(%rbp), %rdi
	movq	%rdi, -744(%rbp)
	leaq	-544(%rbp), %rsi
	.loc	8 35 53 is_stmt 1
	rep;movsq (%rsi), %es:(%rdi)
	movq	-744(%rbp), %rsi
	movq	-720(%rbp), %rdi
	movq	-736(%rbp), %rcx
Ltmp201:
	.loc	16 1354 9
	rep;movsq (%rsi), %es:(%rdi)
	movq	-680(%rbp), %rsi
	leaq	-432(%rbp), %rax
Ltmp202:
	.loc	8 36 21
	movq	%rax, -8(%rbp)
Ltmp203:
	.loc	9 1377 9
	movq	$1, -416(%rbp)
Ltmp204:
	.loc	8 38 17
	movq	-416(%rbp), %rax
	movq	%rax, -640(%rbp)
	movq	-432(%rbp), %rax
	movq	-424(%rbp), %rcx
	movq	%rcx, -648(%rbp)
	movq	%rax, -656(%rbp)
Ltmp205:
	.loc	8 43 64
	movb	$0, -218(%rbp)
	movl	$12, %ecx
	leaq	-320(%rbp), %rdi
	movq	%rdi, -728(%rbp)
	rep;movsq (%rsi), %es:(%rdi)
	movq	-728(%rbp), %rsi
Ltmp160:
	leaq	-656(%rbp), %rdi
	.loc	8 43 9 is_stmt 0
	callq	__ZN97_$LT$alloc..vec..Vec$LT$T$C$A$GT$$u20$as$u20$alloc..vec..spec_extend..SpecExtend$LT$T$C$I$GT$$GT$11spec_extend17hc1caef69be30130bE
Ltmp161:
	jmp	LBB17_17
Ltmp206:
LBB17_13:
Ltmp165:
	.loc	8 20 5 is_stmt 1
	callq	__ZN4core9panicking19panic_cannot_unwind17h1fbca7e1d7f56ae1E
Ltmp207:
LBB17_14:
	.loc	8 39 13
	jmp	LBB17_1
Ltmp208:
LBB17_15:
Ltmp163:
	.loc	8 0 13 is_stmt 0
	leaq	-656(%rbp), %rdi
	.loc	8 45 5 is_stmt 1
	callq	__ZN4core3ptr78drop_in_place$LT$alloc..vec..Vec$LT$ttf_parser..tables..kern..Subtable$GT$$GT$17h5627c474c0aedf2dE
Ltmp164:
	jmp	LBB17_1
Ltmp209:
LBB17_16:
Ltmp162:
	.loc	8 0 5 is_stmt 0
	movq	%rax, %rcx
	movl	%edx, %eax
	movq	%rcx, -192(%rbp)
	movl	%eax, -184(%rbp)
	jmp	LBB17_15
Ltmp210:
LBB17_17:
	movq	-672(%rbp), %rax
Ltmp211:
	.loc	8 44 9 is_stmt 1
	movq	-656(%rbp), %rcx
	movq	%rcx, (%rax)
	movq	-648(%rbp), %rcx
	movq	%rcx, 8(%rax)
	movq	-640(%rbp), %rcx
	movq	%rcx, 16(%rax)
Ltmp212:
	.loc	8 45 5
	jmp	LBB17_20
Ltmp213:
LBB17_18:
	.loc	8 20 5
	movq	-192(%rbp), %rdi
	callq	__Unwind_Resume
Ltmp214:
LBB17_19:
	.loc	8 45 5
	jmp	LBB17_18
Ltmp215:
LBB17_20:
	.loc	8 0 5 is_stmt 0
	movq	-664(%rbp), %rax
	.loc	8 45 6
	addq	$752, %rsp
	popq	%rbp
	retq
Ltmp216:
Lfunc_end17:
	.cfi_endproc
	.section	__TEXT,__gcc_except_tab
	.p2align	2
GCC_except_table17:
Lexception5:
	.byte	255
	.byte	255
	.byte	1
	.uleb128 Lcst_end5-Lcst_begin5
Lcst_begin5:
	.uleb128 Ltmp150-Lfunc_begin17
	.uleb128 Ltmp151-Ltmp150
	.uleb128 Ltmp152-Lfunc_begin17
	.byte	0
	.uleb128 Ltmp153-Lfunc_begin17
	.uleb128 Ltmp158-Ltmp153
	.uleb128 Ltmp159-Lfunc_begin17
	.byte	0
	.uleb128 Ltmp160-Lfunc_begin17
	.uleb128 Ltmp161-Ltmp160
	.uleb128 Ltmp162-Lfunc_begin17
	.byte	0
	.uleb128 Ltmp163-Lfunc_begin17
	.uleb128 Ltmp164-Ltmp163
	.uleb128 Ltmp165-Lfunc_begin17
	.byte	0
	.uleb128 Ltmp164-Lfunc_begin17
	.uleb128 Lfunc_end17-Ltmp164
	.byte	0
	.byte	0
Lcst_end5:
	.p2align	2

	.section	__TEXT,__text,regular,pure_instructions
	.globl	__ZN114_$LT$core..iter..adapters..flatten..FlatMap$LT$I$C$U$C$F$GT$$u20$as$u20$core..iter..traits..iterator..Iterator$GT$8try_fold17h71d78cd7b162be1fE
	.p2align	4, 0x90
__ZN114_$LT$core..iter..adapters..flatten..FlatMap$LT$I$C$U$C$F$GT$$u20$as$u20$core..iter..traits..iterator..Iterator$GT$8try_fold17h71d78cd7b162be1fE:
Lfunc_begin18:
	.file	17 "/rustc/2c8cc343237b8f7d5a3c3703e3a87f2eb2c54a74/library/core/src/iter/adapters" "flatten.rs"
	.loc	17 60 0 is_stmt 1
	.cfi_startproc
	pushq	%rbp
	.cfi_def_cfa_offset 16
	.cfi_offset %rbp, -16
	movq	%rsp, %rbp
	.cfi_def_cfa_register %rbp
	subq	$32, %rsp
	movq	%rdi, %rax
	movq	%rax, -32(%rbp)
	movq	%rsi, -24(%rbp)
	movq	%rdx, -8(%rbp)
Ltmp217:
	.loc	17 66 9 prologue_end
	callq	__ZN116_$LT$core..iter..adapters..flatten..FlattenCompat$LT$I$C$U$GT$$u20$as$u20$core..iter..traits..iterator..Iterator$GT$8try_fold17h0e7ddfb12759e9e3E
	movq	-32(%rbp), %rax
	.loc	17 67 6
	addq	$32, %rsp
	popq	%rbp
	retq
Ltmp218:
Lfunc_end18:
	.cfi_endproc

	.globl	__ZN114_$LT$core..iter..adapters..flatten..FlatMap$LT$I$C$U$C$F$GT$$u20$as$u20$core..iter..traits..iterator..Iterator$GT$8try_fold17hf4456e97102ec2e6E
	.p2align	4, 0x90
__ZN114_$LT$core..iter..adapters..flatten..FlatMap$LT$I$C$U$C$F$GT$$u20$as$u20$core..iter..traits..iterator..Iterator$GT$8try_fold17hf4456e97102ec2e6E:
Lfunc_begin19:
	.loc	17 60 0
	.cfi_startproc
	pushq	%rbp
	.cfi_def_cfa_offset 16
	.cfi_offset %rbp, -16
	movq	%rsp, %rbp
	.cfi_def_cfa_register %rbp
	subq	$32, %rsp
	movq	%rdi, %rax
	movq	%rax, -32(%rbp)
	movq	%rsi, -24(%rbp)
	movq	%rdx, -8(%rbp)
Ltmp219:
	.loc	17 66 9 prologue_end
	callq	__ZN116_$LT$core..iter..adapters..flatten..FlattenCompat$LT$I$C$U$GT$$u20$as$u20$core..iter..traits..iterator..Iterator$GT$8try_fold17he213d9fe30f0c22dE
	movq	-32(%rbp), %rax
	.loc	17 67 6
	addq	$32, %rsp
	popq	%rbp
	retq
Ltmp220:
Lfunc_end19:
	.cfi_endproc

	.globl	__ZN114_$LT$core..iter..adapters..flatten..FlatMap$LT$I$C$U$C$F$GT$$u20$as$u20$core..iter..traits..iterator..Iterator$GT$9size_hint17h4abd5d1af517a1b6E
	.p2align	4, 0x90
__ZN114_$LT$core..iter..adapters..flatten..FlatMap$LT$I$C$U$C$F$GT$$u20$as$u20$core..iter..traits..iterator..Iterator$GT$9size_hint17h4abd5d1af517a1b6E:
Lfunc_begin20:
	.loc	17 55 0
	.cfi_startproc
	pushq	%rbp
	.cfi_def_cfa_offset 16
	.cfi_offset %rbp, -16
	movq	%rsp, %rbp
	.cfi_def_cfa_register %rbp
	subq	$16, %rsp
	movq	%rdi, %rax
	movq	%rax, -16(%rbp)
	movq	%rsi, -8(%rbp)
Ltmp221:
	.loc	17 56 9 prologue_end
	callq	__ZN116_$LT$core..iter..adapters..flatten..FlattenCompat$LT$I$C$U$GT$$u20$as$u20$core..iter..traits..iterator..Iterator$GT$9size_hint17h5fa10cd0d957a3ddE
	movq	-16(%rbp), %rax
	.loc	17 57 6
	addq	$16, %rsp
	popq	%rbp
	retq
Ltmp222:
Lfunc_end20:
	.cfi_endproc

	.globl	__ZN114_$LT$core..iter..adapters..flatten..FlatMap$LT$I$C$U$C$F$GT$$u20$as$u20$core..iter..traits..iterator..Iterator$GT$9size_hint17hc02fbcdb7e2aaf77E
	.p2align	4, 0x90
__ZN114_$LT$core..iter..adapters..flatten..FlatMap$LT$I$C$U$C$F$GT$$u20$as$u20$core..iter..traits..iterator..Iterator$GT$9size_hint17hc02fbcdb7e2aaf77E:
Lfunc_begin21:
	.loc	17 55 0
	.cfi_startproc
	pushq	%rbp
	.cfi_def_cfa_offset 16
	.cfi_offset %rbp, -16
	movq	%rsp, %rbp
	.cfi_def_cfa_register %rbp
	subq	$16, %rsp
	movq	%rdi, %rax
	movq	%rax, -16(%rbp)
	movq	%rsi, -8(%rbp)
Ltmp223:
	.loc	17 56 9 prologue_end
	callq	__ZN116_$LT$core..iter..adapters..flatten..FlattenCompat$LT$I$C$U$GT$$u20$as$u20$core..iter..traits..iterator..Iterator$GT$9size_hint17hefa7b6d08e48ba47E
	movq	-16(%rbp), %rax
	.loc	17 57 6
	addq	$16, %rsp
	popq	%rbp
	retq
Ltmp224:
Lfunc_end21:
	.cfi_endproc

	.globl	__ZN116_$LT$core..iter..adapters..flatten..FlattenCompat$LT$I$C$U$GT$$u20$as$u20$core..iter..traits..iterator..Iterator$GT$8try_fold17h0e7ddfb12759e9e3E
	.p2align	4, 0x90
__ZN116_$LT$core..iter..adapters..flatten..FlattenCompat$LT$I$C$U$GT$$u20$as$u20$core..iter..traits..iterator..Iterator$GT$8try_fold17h0e7ddfb12759e9e3E:
Lfunc_begin22:
	.loc	17 504 0
	.cfi_startproc
	.cfi_personality 155, _rust_eh_personality
	.cfi_lsda 16, Lexception6
	pushq	%rbp
	.cfi_def_cfa_offset 16
	.cfi_offset %rbp, -16
	movq	%rsp, %rbp
	.cfi_def_cfa_register %rbp
	subq	$64, %rsp
	movq	%rdi, %rax
	movq	%rax, -64(%rbp)
	movq	%rsi, -48(%rbp)
	movq	%rdx, -32(%rbp)
Ltmp228:
	.loc	17 517 42 prologue_end
	movq	%rdx, -24(%rbp)
Ltmp229:
	.loc	17 514 13
	movq	%rdx, -56(%rbp)
Ltmp230:
	.loc	17 517 9
	movq	-56(%rbp), %rdx
Ltmp225:
	callq	__ZN4core4iter8adapters7flatten26FlattenCompat$LT$I$C$U$GT$13iter_try_fold17h0f861d82675b6bccE
Ltmp226:
	jmp	LBB22_3
LBB22_1:
	.loc	17 517 47 is_stmt 0
	xorl	%eax, %eax
	testb	$1, %al
	jne	LBB22_5
	jmp	LBB22_4
LBB22_2:
Ltmp227:
	.loc	17 0 47
	movq	%rax, %rcx
	movl	%edx, %eax
	movq	%rcx, -16(%rbp)
	movl	%eax, -8(%rbp)
	jmp	LBB22_1
LBB22_3:
	movq	-64(%rbp), %rax
	.loc	17 518 6 is_stmt 1
	addq	$64, %rsp
	popq	%rbp
	retq
LBB22_4:
	.loc	17 504 5
	movq	-16(%rbp), %rdi
	callq	__Unwind_Resume
LBB22_5:
	.loc	17 517 47
	jmp	LBB22_4
Ltmp231:
Lfunc_end22:
	.cfi_endproc
	.section	__TEXT,__gcc_except_tab
	.p2align	2
GCC_except_table22:
Lexception6:
	.byte	255
	.byte	255
	.byte	1
	.uleb128 Lcst_end6-Lcst_begin6
Lcst_begin6:
	.uleb128 Ltmp225-Lfunc_begin22
	.uleb128 Ltmp226-Ltmp225
	.uleb128 Ltmp227-Lfunc_begin22
	.byte	0
	.uleb128 Ltmp226-Lfunc_begin22
	.uleb128 Lfunc_end22-Ltmp226
	.byte	0
	.byte	0
Lcst_end6:
	.p2align	2

	.section	__TEXT,__text,regular,pure_instructions
	.globl	__ZN116_$LT$core..iter..adapters..flatten..FlattenCompat$LT$I$C$U$GT$$u20$as$u20$core..iter..traits..iterator..Iterator$GT$8try_fold17he213d9fe30f0c22dE
	.p2align	4, 0x90
__ZN116_$LT$core..iter..adapters..flatten..FlattenCompat$LT$I$C$U$GT$$u20$as$u20$core..iter..traits..iterator..Iterator$GT$8try_fold17he213d9fe30f0c22dE:
Lfunc_begin23:
	.loc	17 504 0
	.cfi_startproc
	.cfi_personality 155, _rust_eh_personality
	.cfi_lsda 16, Lexception7
	pushq	%rbp
	.cfi_def_cfa_offset 16
	.cfi_offset %rbp, -16
	movq	%rsp, %rbp
	.cfi_def_cfa_register %rbp
	subq	$64, %rsp
	movq	%rdi, %rax
	movq	%rax, -64(%rbp)
	movq	%rsi, -48(%rbp)
	movq	%rdx, -32(%rbp)
Ltmp235:
	.loc	17 517 42 prologue_end
	movq	%rdx, -24(%rbp)
Ltmp236:
	.loc	17 514 13
	movq	%rdx, -56(%rbp)
Ltmp237:
	.loc	17 517 9
	movq	-56(%rbp), %rdx
Ltmp232:
	callq	__ZN4core4iter8adapters7flatten26FlattenCompat$LT$I$C$U$GT$13iter_try_fold17h57fc6dc5ae58f455E
Ltmp233:
	jmp	LBB23_3
LBB23_1:
	.loc	17 517 47 is_stmt 0
	xorl	%eax, %eax
	testb	$1, %al
	jne	LBB23_5
	jmp	LBB23_4
LBB23_2:
Ltmp234:
	.loc	17 0 47
	movq	%rax, %rcx
	movl	%edx, %eax
	movq	%rcx, -16(%rbp)
	movl	%eax, -8(%rbp)
	jmp	LBB23_1
LBB23_3:
	movq	-64(%rbp), %rax
	.loc	17 518 6 is_stmt 1
	addq	$64, %rsp
	popq	%rbp
	retq
LBB23_4:
	.loc	17 504 5
	movq	-16(%rbp), %rdi
	callq	__Unwind_Resume
LBB23_5:
	.loc	17 517 47
	jmp	LBB23_4
Ltmp238:
Lfunc_end23:
	.cfi_endproc
	.section	__TEXT,__gcc_except_tab
	.p2align	2
GCC_except_table23:
Lexception7:
	.byte	255
	.byte	255
	.byte	1
	.uleb128 Lcst_end7-Lcst_begin7
Lcst_begin7:
	.uleb128 Ltmp232-Lfunc_begin23
	.uleb128 Ltmp233-Ltmp232
	.uleb128 Ltmp234-Lfunc_begin23
	.byte	0
	.uleb128 Ltmp233-Lfunc_begin23
	.uleb128 Lfunc_end23-Ltmp233
	.byte	0
	.byte	0
Lcst_end7:
	.p2align	2

	.section	__TEXT,__text,regular,pure_instructions
	.globl	__ZN116_$LT$core..iter..adapters..flatten..FlattenCompat$LT$I$C$U$GT$$u20$as$u20$core..iter..traits..iterator..Iterator$GT$8try_fold7flatten28_$u7b$$u7b$closure$u7d$$u7d$17h2c3c8873e20114d4E
	.p2align	4, 0x90
__ZN116_$LT$core..iter..adapters..flatten..FlattenCompat$LT$I$C$U$GT$$u20$as$u20$core..iter..traits..iterator..Iterator$GT$8try_fold7flatten28_$u7b$$u7b$closure$u7d$$u7d$17h2c3c8873e20114d4E:
Lfunc_begin24:
	.loc	17 514 0
	.cfi_startproc
	pushq	%rbp
	.cfi_def_cfa_offset 16
	.cfi_offset %rbp, -16
	movq	%rsp, %rbp
	.cfi_def_cfa_register %rbp
	subq	$48, %rsp
	movq	%rdx, -40(%rbp)
	movq	%rsi, %rdx
	movq	-40(%rbp), %rsi
	movq	%rdi, %rax
	movq	%rax, -32(%rbp)
	movq	%rdx, -24(%rbp)
	movq	%rsi, -8(%rbp)
Ltmp239:
	.loc	17 514 30 prologue_end
	callq	__ZN4core4iter6traits8iterator8Iterator8try_fold17h83febf112bf37c8eE
	movq	-32(%rbp), %rax
	.loc	17 514 59 is_stmt 0
	addq	$48, %rsp
	popq	%rbp
	retq
Ltmp240:
Lfunc_end24:
	.cfi_endproc

	.globl	__ZN116_$LT$core..iter..adapters..flatten..FlattenCompat$LT$I$C$U$GT$$u20$as$u20$core..iter..traits..iterator..Iterator$GT$8try_fold7flatten28_$u7b$$u7b$closure$u7d$$u7d$17h3eb16b1cfe3d8c4dE
	.p2align	4, 0x90
__ZN116_$LT$core..iter..adapters..flatten..FlattenCompat$LT$I$C$U$GT$$u20$as$u20$core..iter..traits..iterator..Iterator$GT$8try_fold7flatten28_$u7b$$u7b$closure$u7d$$u7d$17h3eb16b1cfe3d8c4dE:
Lfunc_begin25:
	.loc	17 514 0 is_stmt 1
	.cfi_startproc
	pushq	%rbp
	.cfi_def_cfa_offset 16
	.cfi_offset %rbp, -16
	movq	%rsp, %rbp
	.cfi_def_cfa_register %rbp
	subq	$48, %rsp
	movq	%rdx, -40(%rbp)
	movq	%rsi, %rdx
	movq	-40(%rbp), %rsi
	movq	%rdi, %rax
	movq	%rax, -32(%rbp)
	movq	%rdx, -24(%rbp)
	movq	%rsi, -8(%rbp)
Ltmp241:
	.loc	17 514 30 prologue_end
	callq	__ZN4core4iter6traits8iterator8Iterator8try_fold17h81b2ec4e79631abeE
	movq	-32(%rbp), %rax
	.loc	17 514 59 is_stmt 0
	addq	$48, %rsp
	popq	%rbp
	retq
Ltmp242:
Lfunc_end25:
	.cfi_endproc

	.globl	__ZN116_$LT$core..iter..adapters..flatten..FlattenCompat$LT$I$C$U$GT$$u20$as$u20$core..iter..traits..iterator..Iterator$GT$9size_hint17h5fa10cd0d957a3ddE
	.p2align	4, 0x90
__ZN116_$LT$core..iter..adapters..flatten..FlattenCompat$LT$I$C$U$GT$$u20$as$u20$core..iter..traits..iterator..Iterator$GT$9size_hint17h5fa10cd0d957a3ddE:
Lfunc_begin26:
	.loc	17 482 0 is_stmt 1
	.cfi_startproc
	pushq	%rbp
	.cfi_def_cfa_offset 16
	.cfi_offset %rbp, -16
	movq	%rsp, %rbp
	.cfi_def_cfa_register %rbp
	subq	$1136, %rsp
	movq	%rsi, -1024(%rbp)
	movq	%rdi, -1016(%rbp)
	movq	%rdi, -1008(%rbp)
	movq	%rsi, -448(%rbp)
Ltmp243:
	.loc	17 483 26 prologue_end
	movq	%rsi, %rax
	addq	$16, %rax
	movq	%rax, -1000(%rbp)
	movq	%rax, -344(%rbp)
Ltmp244:
	.file	18 "/rustc/2c8cc343237b8f7d5a3c3703e3a87f2eb2c54a74/library/core/src" "option.rs"
	.loc	18 675 15
	movq	16(%rsi), %rdx
	movl	$1, %eax
	xorl	%ecx, %ecx
	cmpq	$0, %rdx
	cmoveq	%rcx, %rax
	.loc	18 675 9 is_stmt 0
	cmpq	$0, %rax
	jne	LBB26_2
	.loc	18 677 21 is_stmt 1
	movq	$0, -968(%rbp)
	jmp	LBB26_3
LBB26_2:
	.loc	18 0 21 is_stmt 0
	movq	-1000(%rbp), %rax
	.loc	18 676 18 is_stmt 1
	movq	%rax, -336(%rbp)
Ltmp245:
	.loc	18 676 28 is_stmt 0
	movq	%rax, -968(%rbp)
Ltmp246:
LBB26_3:
	.loc	17 483 61 is_stmt 1
	movq	$0, -928(%rbp)
	movq	$1, -936(%rbp)
	.loc	17 483 57 is_stmt 0
	movq	$0, -960(%rbp)
	movq	-936(%rbp), %rcx
	movq	-928(%rbp), %rax
	movq	%rcx, -952(%rbp)
	movq	%rax, -944(%rbp)
	.loc	17 483 26
	movq	-968(%rbp), %rsi
	leaq	-992(%rbp), %rdi
	leaq	-960(%rbp), %rdx
	callq	__ZN4core6option15Option$LT$T$GT$6map_or17haa4fecdda7ba9093E
	movq	-1024(%rbp), %rax
	.loc	17 483 14
	movq	-992(%rbp), %rcx
	movq	%rcx, -1056(%rbp)
	movq	%rcx, -328(%rbp)
	.loc	17 483 19
	movq	-984(%rbp), %rdx
	movq	%rdx, -1048(%rbp)
	movq	-976(%rbp), %rcx
	movq	%rcx, -1040(%rbp)
	movq	%rdx, -320(%rbp)
	movq	%rcx, -312(%rbp)
Ltmp247:
	.loc	17 484 26 is_stmt 1
	movq	%rax, %rcx
	addq	$56, %rcx
	movq	%rcx, -1032(%rbp)
	movq	%rcx, -304(%rbp)
Ltmp248:
	.loc	18 675 15
	movq	56(%rax), %rdx
	movl	$1, %eax
	xorl	%ecx, %ecx
	cmpq	$0, %rdx
	cmoveq	%rcx, %rax
	.loc	18 675 9 is_stmt 0
	cmpq	$0, %rax
	jne	LBB26_5
	.loc	18 677 21 is_stmt 1
	movq	$0, -896(%rbp)
	jmp	LBB26_6
LBB26_5:
	.loc	18 0 21 is_stmt 0
	movq	-1032(%rbp), %rax
	.loc	18 676 18 is_stmt 1
	movq	%rax, -296(%rbp)
Ltmp249:
	.loc	18 676 28 is_stmt 0
	movq	%rax, -896(%rbp)
Ltmp250:
LBB26_6:
	.loc	17 484 60 is_stmt 1
	movq	$0, -856(%rbp)
	movq	$1, -864(%rbp)
	.loc	17 484 56 is_stmt 0
	movq	$0, -888(%rbp)
	movq	-864(%rbp), %rcx
	movq	-856(%rbp), %rax
	movq	%rcx, -880(%rbp)
	movq	%rax, -872(%rbp)
	.loc	17 484 26
	movq	-896(%rbp), %rsi
	leaq	-920(%rbp), %rdi
	leaq	-888(%rbp), %rdx
	callq	__ZN4core6option15Option$LT$T$GT$6map_or17haa4fecdda7ba9093E
	movq	-1056(%rbp), %rax
	.loc	17 484 14
	movq	-920(%rbp), %rcx
	movq	%rcx, -288(%rbp)
	.loc	17 484 19
	movq	-912(%rbp), %rsi
	movq	%rsi, -1080(%rbp)
	movq	-904(%rbp), %rdx
	movq	%rdx, -1072(%rbp)
	movq	%rsi, -280(%rbp)
	movq	%rdx, -272(%rbp)
Ltmp251:
	.loc	17 485 18 is_stmt 1
	movq	%rax, -264(%rbp)
	.loc	17 485 37 is_stmt 0
	movq	%rcx, -256(%rbp)
Ltmp252:
	.loc	10 1022 13 is_stmt 1
	addq	%rcx, %rax
	movq	$-1, %rcx
	cmovbq	%rcx, %rax
	movq	%rax, -248(%rbp)
	movq	-248(%rbp), %rax
	movq	%rax, -1064(%rbp)
	movq	%rax, -240(%rbp)
Ltmp253:
	.loc	17 487 35
	callq	__ZN74_$LT$T$u20$as$u20$core..iter..adapters..flatten..ConstSizeIntoIterator$GT$4size17hcb857e9756fdbc89E
	movq	%rdx, -840(%rbp)
	movq	%rax, -848(%rbp)
	.loc	17 487 16 is_stmt 0
	cmpq	$1, -848(%rbp)
	jne	LBB26_8
	.loc	17 0 16
	movq	-1024(%rbp), %rax
	.loc	17 487 21
	movq	-840(%rbp), %rcx
	movq	%rcx, -1088(%rbp)
	movq	%rcx, -200(%rbp)
	.loc	17 488 34 is_stmt 1
	movq	%rax, -192(%rbp)
Ltmp254:
	.loc	3 69 9
	cmpq	$0, (%rax)
	je	LBB26_20
	jmp	LBB26_21
Ltmp255:
LBB26_8:
	.loc	3 0 9 is_stmt 0
	movq	-1024(%rbp), %rax
	.loc	17 497 16 is_stmt 1
	movq	%rax, -232(%rbp)
Ltmp256:
	.loc	3 69 9
	cmpq	$0, (%rax)
	jne	LBB26_10
	.loc	3 71 25
	movq	$0, -456(%rbp)
	movq	$1, -464(%rbp)
	.loc	3 71 21 is_stmt 0
	movq	$0, -536(%rbp)
	movq	-464(%rbp), %rcx
	movq	-456(%rbp), %rax
	movq	%rcx, -528(%rbp)
	movq	%rax, -520(%rbp)
	.loc	3 71 32
	jmp	LBB26_11
LBB26_10:
	.loc	3 0 32
	movq	-1024(%rbp), %rsi
	.loc	3 70 18 is_stmt 1
	addq	$8, %rsi
	movq	%rsi, -224(%rbp)
Ltmp257:
	.loc	3 70 31 is_stmt 0
	leaq	-536(%rbp), %rdi
	callq	__ZN102_$LT$core..iter..adapters..map..Map$LT$I$C$F$GT$$u20$as$u20$core..iter..traits..iterator..Iterator$GT$9size_hint17h623397947a144e26E
Ltmp258:
LBB26_11:
	.loc	3 0 31
	movq	-1072(%rbp), %rax
	movq	-1080(%rbp), %rcx
	movq	-1040(%rbp), %rdx
	movq	-1048(%rbp), %rsi
	.loc	17 497 15 is_stmt 1
	movq	-536(%rbp), %rdi
	movq	%rdi, -576(%rbp)
	movq	-528(%rbp), %rdi
	movq	%rdi, -568(%rbp)
	movq	-520(%rbp), %rdi
	movq	%rdi, -560(%rbp)
	movq	%rsi, -592(%rbp)
	movq	%rdx, -584(%rbp)
	movq	%rcx, -552(%rbp)
	movq	%rax, -544(%rbp)
	.loc	17 497 9 is_stmt 0
	cmpq	$0, -576(%rbp)
	jne	LBB26_13
	cmpq	$1, -568(%rbp)
	je	LBB26_14
LBB26_13:
	.loc	17 0 9
	movq	-1016(%rbp), %rax
	movq	-1064(%rbp), %rcx
	.loc	17 499 23 is_stmt 1
	movq	$0, -512(%rbp)
	.loc	17 499 18 is_stmt 0
	movq	%rcx, (%rax)
	movq	-512(%rbp), %rdx
	movq	-504(%rbp), %rcx
	movq	%rdx, 8(%rax)
	movq	%rcx, 16(%rax)
	.loc	17 499 27
	jmp	LBB26_18
LBB26_14:
	.loc	17 497 9 is_stmt 1
	cmpq	$1, -592(%rbp)
	jne	LBB26_13
	cmpq	$1, -552(%rbp)
	jne	LBB26_13
	cmpq	$0, -560(%rbp)
	jne	LBB26_13
	.loc	17 498 33
	movq	-584(%rbp), %rdi
	movq	%rdi, -216(%rbp)
	.loc	17 498 42 is_stmt 0
	movq	-544(%rbp), %rsi
	movq	%rsi, -208(%rbp)
Ltmp259:
	.loc	17 498 54
	callq	__ZN4core3num23_$LT$impl$u20$usize$GT$11checked_add17hae24128b6b3a6ca7E
	movq	-1064(%rbp), %rsi
	movq	%rax, %rcx
	movq	-1016(%rbp), %rax
	.loc	17 498 49
	movq	%rsi, (%rax)
	movq	%rcx, 8(%rax)
	movq	%rdx, 16(%rax)
Ltmp260:
LBB26_18:
	.loc	17 501 6 is_stmt 1
	jmp	LBB26_19
LBB26_19:
	.loc	17 0 6 is_stmt 0
	movq	-1008(%rbp), %rax
	.loc	17 501 6
	addq	$1136, %rsp
	popq	%rbp
	retq
LBB26_20:
Ltmp261:
	.loc	3 71 25 is_stmt 1
	movq	$0, -488(%rbp)
	movq	$1, -496(%rbp)
	.loc	3 71 21 is_stmt 0
	movq	$0, -832(%rbp)
	movq	-496(%rbp), %rcx
	movq	-488(%rbp), %rax
	movq	%rcx, -824(%rbp)
	movq	%rax, -816(%rbp)
	.loc	3 71 32
	jmp	LBB26_22
LBB26_21:
	.loc	3 0 32
	movq	-1024(%rbp), %rsi
	.loc	3 70 18 is_stmt 1
	addq	$8, %rsi
	movq	%rsi, -184(%rbp)
Ltmp262:
	.loc	3 70 31 is_stmt 0
	leaq	-832(%rbp), %rdi
	callq	__ZN102_$LT$core..iter..adapters..map..Map$LT$I$C$F$GT$$u20$as$u20$core..iter..traits..iterator..Iterator$GT$9size_hint17h623397947a144e26E
Ltmp263:
LBB26_22:
	.loc	3 0 31
	movq	-1088(%rbp), %rsi
	.loc	17 488 18 is_stmt 1
	movq	-832(%rbp), %rdi
	movq	%rdi, -176(%rbp)
	.loc	17 488 25 is_stmt 0
	movq	-824(%rbp), %rcx
	movq	%rcx, -1104(%rbp)
	movq	-816(%rbp), %rax
	movq	%rax, -1096(%rbp)
	movq	%rcx, -168(%rbp)
	movq	%rax, -160(%rbp)
Ltmp264:
	.loc	17 490 25 is_stmt 1
	movq	%rdi, -152(%rbp)
	.loc	17 490 46 is_stmt 0
	movq	%rsi, -144(%rbp)
Ltmp265:
	.loc	10 1090 19 is_stmt 1
	callq	__ZN4core3num23_$LT$impl$u20$usize$GT$11checked_mul17h64f7e27fec32d93cE
	movq	%rdx, -472(%rbp)
	movq	%rax, -480(%rbp)
	.loc	10 1090 13 is_stmt 0
	cmpq	$0, -480(%rbp)
	jne	LBB26_24
	.loc	10 1092 25 is_stmt 1
	movq	$-1, -808(%rbp)
	jmp	LBB26_25
LBB26_24:
	.loc	10 1091 22
	movq	-472(%rbp), %rax
	movq	%rax, -136(%rbp)
Ltmp266:
	.loc	10 1091 28 is_stmt 0
	movq	%rax, -808(%rbp)
Ltmp267:
LBB26_25:
	.loc	10 0 28
	movq	-1040(%rbp), %rax
	movq	-1048(%rbp), %rcx
	movq	-1064(%rbp), %rsi
	.loc	17 490 73 is_stmt 1
	movq	%rsi, -128(%rbp)
Ltmp268:
	.loc	10 1022 40
	movq	-808(%rbp), %rdx
	.loc	10 1022 13 is_stmt 0
	addq	%rsi, %rdx
	movq	$-1, %rsi
	cmovbq	%rsi, %rdx
	movq	%rdx, -120(%rbp)
	movq	-120(%rbp), %rdx
	movq	%rdx, -1112(%rbp)
	movq	%rdx, -112(%rbp)
Ltmp269:
	.loc	17 492 23 is_stmt 1
	movq	%rcx, -704(%rbp)
	movq	%rax, -696(%rbp)
Ltmp270:
	.loc	18 2407 9
	cmpq	$0, -704(%rbp)
	jne	LBB26_27
	.loc	18 2409 21
	movq	$1, -720(%rbp)
	.loc	18 2409 44 is_stmt 0
	jmp	LBB26_28
LBB26_27:
	.loc	18 2408 18 is_stmt 1
	movq	-696(%rbp), %rax
	movq	%rax, -104(%rbp)
Ltmp271:
	.loc	18 2408 24 is_stmt 0
	movq	%rax, -712(%rbp)
	movq	$0, -720(%rbp)
Ltmp272:
LBB26_28:
	.loc	17 492 23 is_stmt 1
	cmpq	$0, -720(%rbp)
	jne	LBB26_30
	.loc	17 0 23 is_stmt 0
	movq	-1072(%rbp), %rax
	movq	-1080(%rbp), %rcx
	.loc	17 492 23
	movq	-712(%rbp), %rdx
	movq	%rdx, -1120(%rbp)
	movq	%rdx, -96(%rbp)
	.loc	17 492 40
	movq	%rcx, -672(%rbp)
	movq	%rax, -664(%rbp)
Ltmp273:
	.loc	18 2407 9 is_stmt 1
	cmpq	$0, -672(%rbp)
	je	LBB26_32
	jmp	LBB26_33
Ltmp274:
LBB26_30:
	.loc	18 2420 21
	movq	$0, -800(%rbp)
Ltmp275:
LBB26_31:
	.file	19 "/Users/natalie/.cargo/registry/src/github.com-1ecc6299db9ec823/owned_ttf_parser-0.17.0" "src/lib.rs"
	.loc	19 1 1
	jmp	LBB26_37
LBB26_32:
Ltmp276:
	.loc	18 2409 21
	movq	$1, -688(%rbp)
	.loc	18 2409 44 is_stmt 0
	jmp	LBB26_34
LBB26_33:
	.loc	18 2408 18 is_stmt 1
	movq	-664(%rbp), %rax
	movq	%rax, -88(%rbp)
Ltmp277:
	.loc	18 2408 24 is_stmt 0
	movq	%rax, -680(%rbp)
	movq	$0, -688(%rbp)
Ltmp278:
LBB26_34:
	.loc	17 492 40 is_stmt 1
	cmpq	$0, -688(%rbp)
	jne	LBB26_36
	.loc	17 0 40 is_stmt 0
	movq	-1120(%rbp), %rdi
	.loc	17 492 40
	movq	-680(%rbp), %rsi
	movq	%rsi, -80(%rbp)
	.loc	17 492 23
	callq	__ZN4core3num23_$LT$impl$u20$usize$GT$11checked_add17hae24128b6b3a6ca7E
	movq	%rdx, -728(%rbp)
	movq	%rax, -736(%rbp)
Ltmp279:
	.loc	18 2407 9 is_stmt 1
	cmpq	$0, -736(%rbp)
	je	LBB26_38
	jmp	LBB26_39
Ltmp280:
LBB26_36:
	.loc	18 2420 21
	movq	$0, -800(%rbp)
Ltmp281:
	.loc	19 1 1
	jmp	LBB26_31
LBB26_37:
	jmp	LBB26_54
LBB26_38:
Ltmp282:
	.loc	18 2409 21
	movq	$1, -752(%rbp)
	.loc	18 2409 44 is_stmt 0
	jmp	LBB26_40
LBB26_39:
	.loc	18 2408 18 is_stmt 1
	movq	-728(%rbp), %rax
	movq	%rax, -72(%rbp)
Ltmp283:
	.loc	18 2408 24 is_stmt 0
	movq	%rax, -744(%rbp)
	movq	$0, -752(%rbp)
Ltmp284:
LBB26_40:
	.loc	17 492 23 is_stmt 1
	cmpq	$0, -752(%rbp)
	jne	LBB26_42
	.loc	17 0 23 is_stmt 0
	movq	-1096(%rbp), %rax
	movq	-1104(%rbp), %rcx
	.loc	17 492 23
	movq	-744(%rbp), %rdx
	movq	%rdx, -1128(%rbp)
	movq	%rdx, -64(%rbp)
	.loc	17 492 82
	movq	%rcx, -608(%rbp)
	movq	%rax, -600(%rbp)
Ltmp285:
	.loc	18 2407 9 is_stmt 1
	cmpq	$0, -608(%rbp)
	je	LBB26_43
	jmp	LBB26_44
Ltmp286:
LBB26_42:
	.loc	18 2420 21
	movq	$0, -800(%rbp)
Ltmp287:
	.loc	19 1 1
	jmp	LBB26_37
LBB26_43:
Ltmp288:
	.loc	18 2409 21
	movq	$1, -624(%rbp)
	.loc	18 2409 44 is_stmt 0
	jmp	LBB26_45
LBB26_44:
	.loc	18 2408 18 is_stmt 1
	movq	-600(%rbp), %rax
	movq	%rax, -56(%rbp)
Ltmp289:
	.loc	18 2408 24 is_stmt 0
	movq	%rax, -616(%rbp)
	movq	$0, -624(%rbp)
Ltmp290:
LBB26_45:
	.loc	17 492 82 is_stmt 1
	cmpq	$0, -624(%rbp)
	jne	LBB26_47
	.loc	17 0 82 is_stmt 0
	movq	-1088(%rbp), %rdi
	.loc	17 492 82
	movq	-616(%rbp), %rsi
	movq	%rsi, -48(%rbp)
	.loc	17 492 59
	callq	__ZN4core3num23_$LT$impl$u20$usize$GT$11checked_mul17h64f7e27fec32d93cE
	movq	%rdx, -632(%rbp)
	movq	%rax, -640(%rbp)
Ltmp291:
	.loc	18 2407 9 is_stmt 1
	cmpq	$0, -640(%rbp)
	je	LBB26_49
	jmp	LBB26_50
Ltmp292:
LBB26_47:
	.loc	18 2420 21
	movq	$0, -800(%rbp)
Ltmp293:
LBB26_48:
	.loc	19 1 1
	jmp	LBB26_37
LBB26_49:
Ltmp294:
	.loc	18 2409 21
	movq	$1, -656(%rbp)
	.loc	18 2409 44 is_stmt 0
	jmp	LBB26_51
LBB26_50:
	.loc	18 2408 18 is_stmt 1
	movq	-632(%rbp), %rax
	movq	%rax, -40(%rbp)
Ltmp295:
	.loc	18 2408 24 is_stmt 0
	movq	%rax, -648(%rbp)
	movq	$0, -656(%rbp)
Ltmp296:
LBB26_51:
	.loc	17 492 59 is_stmt 1
	cmpq	$0, -656(%rbp)
	jne	LBB26_53
	.loc	17 0 59 is_stmt 0
	movq	-1128(%rbp), %rdi
	.loc	17 492 59
	movq	-648(%rbp), %rsi
	movq	%rsi, -32(%rbp)
	.loc	17 492 23
	callq	__ZN4core3num23_$LT$impl$u20$usize$GT$11checked_add17hae24128b6b3a6ca7E
	movq	%rdx, -760(%rbp)
	movq	%rax, -768(%rbp)
Ltmp297:
	.loc	18 2407 9 is_stmt 1
	cmpq	$0, -768(%rbp)
	je	LBB26_55
	jmp	LBB26_56
Ltmp298:
LBB26_53:
	.loc	18 2420 21
	movq	$0, -800(%rbp)
Ltmp299:
	.loc	19 1 1
	jmp	LBB26_48
LBB26_54:
	.loc	17 492 21
	jmp	LBB26_60
LBB26_55:
Ltmp300:
	.loc	18 2409 21
	movq	$1, -784(%rbp)
	.loc	18 2409 44 is_stmt 0
	jmp	LBB26_57
LBB26_56:
	.loc	18 2408 18 is_stmt 1
	movq	-760(%rbp), %rax
	movq	%rax, -24(%rbp)
Ltmp301:
	.loc	18 2408 24 is_stmt 0
	movq	%rax, -776(%rbp)
	movq	$0, -784(%rbp)
Ltmp302:
LBB26_57:
	.loc	17 492 23 is_stmt 1
	cmpq	$0, -784(%rbp)
	jne	LBB26_59
	movq	-776(%rbp), %rax
	movq	%rax, -16(%rbp)
Ltmp303:
	.loc	17 492 23 is_stmt 0
	movq	%rax, -8(%rbp)
Ltmp304:
	.loc	18 2402 9 is_stmt 1
	movq	%rax, -792(%rbp)
	movq	$1, -800(%rbp)
Ltmp305:
	.loc	17 492 21
	jmp	LBB26_60
LBB26_59:
Ltmp306:
	.loc	18 2420 21
	movq	$0, -800(%rbp)
Ltmp307:
	.loc	19 1 1
	jmp	LBB26_54
LBB26_60:
	.loc	19 0 1 is_stmt 0
	movq	-1016(%rbp), %rax
	movq	-1112(%rbp), %rsi
Ltmp308:
	.loc	17 494 28 is_stmt 1
	movq	-800(%rbp), %rdx
	movq	-792(%rbp), %rcx
	.loc	17 494 20 is_stmt 0
	movq	%rsi, (%rax)
	movq	%rdx, 8(%rax)
	movq	%rcx, 16(%rax)
Ltmp309:
	.loc	17 501 6 is_stmt 1
	jmp	LBB26_19
Ltmp310:
Lfunc_end26:
	.cfi_endproc

	.globl	__ZN116_$LT$core..iter..adapters..flatten..FlattenCompat$LT$I$C$U$GT$$u20$as$u20$core..iter..traits..iterator..Iterator$GT$9size_hint17hefa7b6d08e48ba47E
	.p2align	4, 0x90
__ZN116_$LT$core..iter..adapters..flatten..FlattenCompat$LT$I$C$U$GT$$u20$as$u20$core..iter..traits..iterator..Iterator$GT$9size_hint17hefa7b6d08e48ba47E:
Lfunc_begin27:
	.loc	17 482 0
	.cfi_startproc
	pushq	%rbp
	.cfi_def_cfa_offset 16
	.cfi_offset %rbp, -16
	movq	%rsp, %rbp
	.cfi_def_cfa_register %rbp
	subq	$1136, %rsp
	movq	%rsi, -1024(%rbp)
	movq	%rdi, -1016(%rbp)
	movq	%rdi, -1008(%rbp)
	movq	%rsi, -448(%rbp)
Ltmp311:
	.loc	17 483 26 prologue_end
	movq	%rsi, %rax
	addq	$16, %rax
	movq	%rax, -1000(%rbp)
	movq	%rax, -344(%rbp)
Ltmp312:
	.loc	18 675 15
	movl	$1, %eax
	xorl	%ecx, %ecx
	cmpb	$2, 48(%rsi)
	cmoveq	%rcx, %rax
	.loc	18 675 9 is_stmt 0
	cmpq	$0, %rax
	jne	LBB27_2
	.loc	18 677 21 is_stmt 1
	movq	$0, -968(%rbp)
	jmp	LBB27_3
LBB27_2:
	.loc	18 0 21 is_stmt 0
	movq	-1000(%rbp), %rax
	.loc	18 676 18 is_stmt 1
	movq	%rax, -336(%rbp)
Ltmp313:
	.loc	18 676 28 is_stmt 0
	movq	%rax, -968(%rbp)
Ltmp314:
LBB27_3:
	.loc	17 483 61 is_stmt 1
	movq	$0, -928(%rbp)
	movq	$1, -936(%rbp)
	.loc	17 483 57 is_stmt 0
	movq	$0, -960(%rbp)
	movq	-936(%rbp), %rcx
	movq	-928(%rbp), %rax
	movq	%rcx, -952(%rbp)
	movq	%rax, -944(%rbp)
	.loc	17 483 26
	movq	-968(%rbp), %rsi
	leaq	-992(%rbp), %rdi
	leaq	-960(%rbp), %rdx
	callq	__ZN4core6option15Option$LT$T$GT$6map_or17hb6315d669178a203E
	movq	-1024(%rbp), %rdx
	.loc	17 483 14
	movq	-992(%rbp), %rax
	movq	%rax, -1056(%rbp)
	movq	%rax, -328(%rbp)
	.loc	17 483 19
	movq	-984(%rbp), %rcx
	movq	%rcx, -1048(%rbp)
	movq	-976(%rbp), %rax
	movq	%rax, -1040(%rbp)
	movq	%rcx, -320(%rbp)
	movq	%rax, -312(%rbp)
Ltmp315:
	.loc	17 484 26 is_stmt 1
	movq	%rdx, %rax
	addq	$56, %rax
	movq	%rax, -1032(%rbp)
	movq	%rax, -304(%rbp)
Ltmp316:
	.loc	18 675 15
	movl	$1, %eax
	xorl	%ecx, %ecx
	cmpb	$2, 88(%rdx)
	cmoveq	%rcx, %rax
	.loc	18 675 9 is_stmt 0
	cmpq	$0, %rax
	jne	LBB27_5
	.loc	18 677 21 is_stmt 1
	movq	$0, -896(%rbp)
	jmp	LBB27_6
LBB27_5:
	.loc	18 0 21 is_stmt 0
	movq	-1032(%rbp), %rax
	.loc	18 676 18 is_stmt 1
	movq	%rax, -296(%rbp)
Ltmp317:
	.loc	18 676 28 is_stmt 0
	movq	%rax, -896(%rbp)
Ltmp318:
LBB27_6:
	.loc	17 484 60 is_stmt 1
	movq	$0, -856(%rbp)
	movq	$1, -864(%rbp)
	.loc	17 484 56 is_stmt 0
	movq	$0, -888(%rbp)
	movq	-864(%rbp), %rcx
	movq	-856(%rbp), %rax
	movq	%rcx, -880(%rbp)
	movq	%rax, -872(%rbp)
	.loc	17 484 26
	movq	-896(%rbp), %rsi
	leaq	-920(%rbp), %rdi
	leaq	-888(%rbp), %rdx
	callq	__ZN4core6option15Option$LT$T$GT$6map_or17hb6315d669178a203E
	movq	-1056(%rbp), %rax
	.loc	17 484 14
	movq	-920(%rbp), %rcx
	movq	%rcx, -288(%rbp)
	.loc	17 484 19
	movq	-912(%rbp), %rsi
	movq	%rsi, -1080(%rbp)
	movq	-904(%rbp), %rdx
	movq	%rdx, -1072(%rbp)
	movq	%rsi, -280(%rbp)
	movq	%rdx, -272(%rbp)
Ltmp319:
	.loc	17 485 18 is_stmt 1
	movq	%rax, -264(%rbp)
	.loc	17 485 37 is_stmt 0
	movq	%rcx, -256(%rbp)
Ltmp320:
	.loc	10 1022 13 is_stmt 1
	addq	%rcx, %rax
	movq	$-1, %rcx
	cmovbq	%rcx, %rax
	movq	%rax, -248(%rbp)
	movq	-248(%rbp), %rax
	movq	%rax, -1064(%rbp)
	movq	%rax, -240(%rbp)
Ltmp321:
	.loc	17 487 35
	callq	__ZN74_$LT$T$u20$as$u20$core..iter..adapters..flatten..ConstSizeIntoIterator$GT$4size17h1a92ee7b283057cfE
	movq	%rdx, -840(%rbp)
	movq	%rax, -848(%rbp)
	.loc	17 487 16 is_stmt 0
	cmpq	$1, -848(%rbp)
	jne	LBB27_8
	.loc	17 0 16
	movq	-1024(%rbp), %rax
	.loc	17 487 21
	movq	-840(%rbp), %rcx
	movq	%rcx, -1088(%rbp)
	movq	%rcx, -200(%rbp)
	.loc	17 488 34 is_stmt 1
	movq	%rax, -192(%rbp)
Ltmp322:
	.loc	3 69 9
	cmpq	$0, (%rax)
	je	LBB27_20
	jmp	LBB27_21
Ltmp323:
LBB27_8:
	.loc	3 0 9 is_stmt 0
	movq	-1024(%rbp), %rax
	.loc	17 497 16 is_stmt 1
	movq	%rax, -232(%rbp)
Ltmp324:
	.loc	3 69 9
	cmpq	$0, (%rax)
	jne	LBB27_10
	.loc	3 71 25
	movq	$0, -456(%rbp)
	movq	$1, -464(%rbp)
	.loc	3 71 21 is_stmt 0
	movq	$0, -536(%rbp)
	movq	-464(%rbp), %rcx
	movq	-456(%rbp), %rax
	movq	%rcx, -528(%rbp)
	movq	%rax, -520(%rbp)
	.loc	3 71 32
	jmp	LBB27_11
LBB27_10:
	.loc	3 0 32
	movq	-1024(%rbp), %rsi
	.loc	3 70 18 is_stmt 1
	addq	$8, %rsi
	movq	%rsi, -224(%rbp)
Ltmp325:
	.loc	3 70 31 is_stmt 0
	leaq	-536(%rbp), %rdi
	callq	__ZN102_$LT$core..iter..adapters..map..Map$LT$I$C$F$GT$$u20$as$u20$core..iter..traits..iterator..Iterator$GT$9size_hint17h439fb01e4447e38cE
Ltmp326:
LBB27_11:
	.loc	3 0 31
	movq	-1072(%rbp), %rax
	movq	-1080(%rbp), %rcx
	movq	-1040(%rbp), %rdx
	movq	-1048(%rbp), %rsi
	.loc	17 497 15 is_stmt 1
	movq	-536(%rbp), %rdi
	movq	%rdi, -576(%rbp)
	movq	-528(%rbp), %rdi
	movq	%rdi, -568(%rbp)
	movq	-520(%rbp), %rdi
	movq	%rdi, -560(%rbp)
	movq	%rsi, -592(%rbp)
	movq	%rdx, -584(%rbp)
	movq	%rcx, -552(%rbp)
	movq	%rax, -544(%rbp)
	.loc	17 497 9 is_stmt 0
	cmpq	$0, -576(%rbp)
	jne	LBB27_13
	cmpq	$1, -568(%rbp)
	je	LBB27_14
LBB27_13:
	.loc	17 0 9
	movq	-1016(%rbp), %rax
	movq	-1064(%rbp), %rcx
	.loc	17 499 23 is_stmt 1
	movq	$0, -512(%rbp)
	.loc	17 499 18 is_stmt 0
	movq	%rcx, (%rax)
	movq	-512(%rbp), %rdx
	movq	-504(%rbp), %rcx
	movq	%rdx, 8(%rax)
	movq	%rcx, 16(%rax)
	.loc	17 499 27
	jmp	LBB27_18
LBB27_14:
	.loc	17 497 9 is_stmt 1
	cmpq	$1, -592(%rbp)
	jne	LBB27_13
	cmpq	$1, -552(%rbp)
	jne	LBB27_13
	cmpq	$0, -560(%rbp)
	jne	LBB27_13
	.loc	17 498 33
	movq	-584(%rbp), %rdi
	movq	%rdi, -216(%rbp)
	.loc	17 498 42 is_stmt 0
	movq	-544(%rbp), %rsi
	movq	%rsi, -208(%rbp)
Ltmp327:
	.loc	17 498 54
	callq	__ZN4core3num23_$LT$impl$u20$usize$GT$11checked_add17hae24128b6b3a6ca7E
	movq	-1064(%rbp), %rsi
	movq	%rax, %rcx
	movq	-1016(%rbp), %rax
	.loc	17 498 49
	movq	%rsi, (%rax)
	movq	%rcx, 8(%rax)
	movq	%rdx, 16(%rax)
Ltmp328:
LBB27_18:
	.loc	17 501 6 is_stmt 1
	jmp	LBB27_19
LBB27_19:
	.loc	17 0 6 is_stmt 0
	movq	-1008(%rbp), %rax
	.loc	17 501 6
	addq	$1136, %rsp
	popq	%rbp
	retq
LBB27_20:
Ltmp329:
	.loc	3 71 25 is_stmt 1
	movq	$0, -488(%rbp)
	movq	$1, -496(%rbp)
	.loc	3 71 21 is_stmt 0
	movq	$0, -832(%rbp)
	movq	-496(%rbp), %rcx
	movq	-488(%rbp), %rax
	movq	%rcx, -824(%rbp)
	movq	%rax, -816(%rbp)
	.loc	3 71 32
	jmp	LBB27_22
LBB27_21:
	.loc	3 0 32
	movq	-1024(%rbp), %rsi
	.loc	3 70 18 is_stmt 1
	addq	$8, %rsi
	movq	%rsi, -184(%rbp)
Ltmp330:
	.loc	3 70 31 is_stmt 0
	leaq	-832(%rbp), %rdi
	callq	__ZN102_$LT$core..iter..adapters..map..Map$LT$I$C$F$GT$$u20$as$u20$core..iter..traits..iterator..Iterator$GT$9size_hint17h439fb01e4447e38cE
Ltmp331:
LBB27_22:
	.loc	3 0 31
	movq	-1088(%rbp), %rsi
	.loc	17 488 18 is_stmt 1
	movq	-832(%rbp), %rdi
	movq	%rdi, -176(%rbp)
	.loc	17 488 25 is_stmt 0
	movq	-824(%rbp), %rcx
	movq	%rcx, -1104(%rbp)
	movq	-816(%rbp), %rax
	movq	%rax, -1096(%rbp)
	movq	%rcx, -168(%rbp)
	movq	%rax, -160(%rbp)
Ltmp332:
	.loc	17 490 25 is_stmt 1
	movq	%rdi, -152(%rbp)
	.loc	17 490 46 is_stmt 0
	movq	%rsi, -144(%rbp)
Ltmp333:
	.loc	10 1090 19 is_stmt 1
	callq	__ZN4core3num23_$LT$impl$u20$usize$GT$11checked_mul17h64f7e27fec32d93cE
	movq	%rdx, -472(%rbp)
	movq	%rax, -480(%rbp)
	.loc	10 1090 13 is_stmt 0
	cmpq	$0, -480(%rbp)
	jne	LBB27_24
	.loc	10 1092 25 is_stmt 1
	movq	$-1, -808(%rbp)
	jmp	LBB27_25
LBB27_24:
	.loc	10 1091 22
	movq	-472(%rbp), %rax
	movq	%rax, -136(%rbp)
Ltmp334:
	.loc	10 1091 28 is_stmt 0
	movq	%rax, -808(%rbp)
Ltmp335:
LBB27_25:
	.loc	10 0 28
	movq	-1040(%rbp), %rax
	movq	-1048(%rbp), %rcx
	movq	-1064(%rbp), %rsi
	.loc	17 490 73 is_stmt 1
	movq	%rsi, -128(%rbp)
Ltmp336:
	.loc	10 1022 40
	movq	-808(%rbp), %rdx
	.loc	10 1022 13 is_stmt 0
	addq	%rsi, %rdx
	movq	$-1, %rsi
	cmovbq	%rsi, %rdx
	movq	%rdx, -120(%rbp)
	movq	-120(%rbp), %rdx
	movq	%rdx, -1112(%rbp)
	movq	%rdx, -112(%rbp)
Ltmp337:
	.loc	17 492 23 is_stmt 1
	movq	%rcx, -704(%rbp)
	movq	%rax, -696(%rbp)
Ltmp338:
	.loc	18 2407 9
	cmpq	$0, -704(%rbp)
	jne	LBB27_27
	.loc	18 2409 21
	movq	$1, -720(%rbp)
	.loc	18 2409 44 is_stmt 0
	jmp	LBB27_28
LBB27_27:
	.loc	18 2408 18 is_stmt 1
	movq	-696(%rbp), %rax
	movq	%rax, -104(%rbp)
Ltmp339:
	.loc	18 2408 24 is_stmt 0
	movq	%rax, -712(%rbp)
	movq	$0, -720(%rbp)
Ltmp340:
LBB27_28:
	.loc	17 492 23 is_stmt 1
	cmpq	$0, -720(%rbp)
	jne	LBB27_30
	.loc	17 0 23 is_stmt 0
	movq	-1072(%rbp), %rax
	movq	-1080(%rbp), %rcx
	.loc	17 492 23
	movq	-712(%rbp), %rdx
	movq	%rdx, -1120(%rbp)
	movq	%rdx, -96(%rbp)
	.loc	17 492 40
	movq	%rcx, -672(%rbp)
	movq	%rax, -664(%rbp)
Ltmp341:
	.loc	18 2407 9 is_stmt 1
	cmpq	$0, -672(%rbp)
	je	LBB27_32
	jmp	LBB27_33
Ltmp342:
LBB27_30:
	.loc	18 2420 21
	movq	$0, -800(%rbp)
Ltmp343:
LBB27_31:
	.loc	19 1 1
	jmp	LBB27_37
LBB27_32:
Ltmp344:
	.loc	18 2409 21
	movq	$1, -688(%rbp)
	.loc	18 2409 44 is_stmt 0
	jmp	LBB27_34
LBB27_33:
	.loc	18 2408 18 is_stmt 1
	movq	-664(%rbp), %rax
	movq	%rax, -88(%rbp)
Ltmp345:
	.loc	18 2408 24 is_stmt 0
	movq	%rax, -680(%rbp)
	movq	$0, -688(%rbp)
Ltmp346:
LBB27_34:
	.loc	17 492 40 is_stmt 1
	cmpq	$0, -688(%rbp)
	jne	LBB27_36
	.loc	17 0 40 is_stmt 0
	movq	-1120(%rbp), %rdi
	.loc	17 492 40
	movq	-680(%rbp), %rsi
	movq	%rsi, -80(%rbp)
	.loc	17 492 23
	callq	__ZN4core3num23_$LT$impl$u20$usize$GT$11checked_add17hae24128b6b3a6ca7E
	movq	%rdx, -728(%rbp)
	movq	%rax, -736(%rbp)
Ltmp347:
	.loc	18 2407 9 is_stmt 1
	cmpq	$0, -736(%rbp)
	je	LBB27_38
	jmp	LBB27_39
Ltmp348:
LBB27_36:
	.loc	18 2420 21
	movq	$0, -800(%rbp)
Ltmp349:
	.loc	19 1 1
	jmp	LBB27_31
LBB27_37:
	jmp	LBB27_54
LBB27_38:
Ltmp350:
	.loc	18 2409 21
	movq	$1, -752(%rbp)
	.loc	18 2409 44 is_stmt 0
	jmp	LBB27_40
LBB27_39:
	.loc	18 2408 18 is_stmt 1
	movq	-728(%rbp), %rax
	movq	%rax, -72(%rbp)
Ltmp351:
	.loc	18 2408 24 is_stmt 0
	movq	%rax, -744(%rbp)
	movq	$0, -752(%rbp)
Ltmp352:
LBB27_40:
	.loc	17 492 23 is_stmt 1
	cmpq	$0, -752(%rbp)
	jne	LBB27_42
	.loc	17 0 23 is_stmt 0
	movq	-1096(%rbp), %rax
	movq	-1104(%rbp), %rcx
	.loc	17 492 23
	movq	-744(%rbp), %rdx
	movq	%rdx, -1128(%rbp)
	movq	%rdx, -64(%rbp)
	.loc	17 492 82
	movq	%rcx, -608(%rbp)
	movq	%rax, -600(%rbp)
Ltmp353:
	.loc	18 2407 9 is_stmt 1
	cmpq	$0, -608(%rbp)
	je	LBB27_43
	jmp	LBB27_44
Ltmp354:
LBB27_42:
	.loc	18 2420 21
	movq	$0, -800(%rbp)
Ltmp355:
	.loc	19 1 1
	jmp	LBB27_37
LBB27_43:
Ltmp356:
	.loc	18 2409 21
	movq	$1, -624(%rbp)
	.loc	18 2409 44 is_stmt 0
	jmp	LBB27_45
LBB27_44:
	.loc	18 2408 18 is_stmt 1
	movq	-600(%rbp), %rax
	movq	%rax, -56(%rbp)
Ltmp357:
	.loc	18 2408 24 is_stmt 0
	movq	%rax, -616(%rbp)
	movq	$0, -624(%rbp)
Ltmp358:
LBB27_45:
	.loc	17 492 82 is_stmt 1
	cmpq	$0, -624(%rbp)
	jne	LBB27_47
	.loc	17 0 82 is_stmt 0
	movq	-1088(%rbp), %rdi
	.loc	17 492 82
	movq	-616(%rbp), %rsi
	movq	%rsi, -48(%rbp)
	.loc	17 492 59
	callq	__ZN4core3num23_$LT$impl$u20$usize$GT$11checked_mul17h64f7e27fec32d93cE
	movq	%rdx, -632(%rbp)
	movq	%rax, -640(%rbp)
Ltmp359:
	.loc	18 2407 9 is_stmt 1
	cmpq	$0, -640(%rbp)
	je	LBB27_49
	jmp	LBB27_50
Ltmp360:
LBB27_47:
	.loc	18 2420 21
	movq	$0, -800(%rbp)
Ltmp361:
LBB27_48:
	.loc	19 1 1
	jmp	LBB27_37
LBB27_49:
Ltmp362:
	.loc	18 2409 21
	movq	$1, -656(%rbp)
	.loc	18 2409 44 is_stmt 0
	jmp	LBB27_51
LBB27_50:
	.loc	18 2408 18 is_stmt 1
	movq	-632(%rbp), %rax
	movq	%rax, -40(%rbp)
Ltmp363:
	.loc	18 2408 24 is_stmt 0
	movq	%rax, -648(%rbp)
	movq	$0, -656(%rbp)
Ltmp364:
LBB27_51:
	.loc	17 492 59 is_stmt 1
	cmpq	$0, -656(%rbp)
	jne	LBB27_53
	.loc	17 0 59 is_stmt 0
	movq	-1128(%rbp), %rdi
	.loc	17 492 59
	movq	-648(%rbp), %rsi
	movq	%rsi, -32(%rbp)
	.loc	17 492 23
	callq	__ZN4core3num23_$LT$impl$u20$usize$GT$11checked_add17hae24128b6b3a6ca7E
	movq	%rdx, -760(%rbp)
	movq	%rax, -768(%rbp)
Ltmp365:
	.loc	18 2407 9 is_stmt 1
	cmpq	$0, -768(%rbp)
	je	LBB27_55
	jmp	LBB27_56
Ltmp366:
LBB27_53:
	.loc	18 2420 21
	movq	$0, -800(%rbp)
Ltmp367:
	.loc	19 1 1
	jmp	LBB27_48
LBB27_54:
	.loc	17 492 21
	jmp	LBB27_60
LBB27_55:
Ltmp368:
	.loc	18 2409 21
	movq	$1, -784(%rbp)
	.loc	18 2409 44 is_stmt 0
	jmp	LBB27_57
LBB27_56:
	.loc	18 2408 18 is_stmt 1
	movq	-760(%rbp), %rax
	movq	%rax, -24(%rbp)
Ltmp369:
	.loc	18 2408 24 is_stmt 0
	movq	%rax, -776(%rbp)
	movq	$0, -784(%rbp)
Ltmp370:
LBB27_57:
	.loc	17 492 23 is_stmt 1
	cmpq	$0, -784(%rbp)
	jne	LBB27_59
	movq	-776(%rbp), %rax
	movq	%rax, -16(%rbp)
Ltmp371:
	.loc	17 492 23 is_stmt 0
	movq	%rax, -8(%rbp)
Ltmp372:
	.loc	18 2402 9 is_stmt 1
	movq	%rax, -792(%rbp)
	movq	$1, -800(%rbp)
Ltmp373:
	.loc	17 492 21
	jmp	LBB27_60
LBB27_59:
Ltmp374:
	.loc	18 2420 21
	movq	$0, -800(%rbp)
Ltmp375:
	.loc	19 1 1
	jmp	LBB27_54
LBB27_60:
	.loc	19 0 1 is_stmt 0
	movq	-1016(%rbp), %rax
	movq	-1112(%rbp), %rsi
Ltmp376:
	.loc	17 494 28 is_stmt 1
	movq	-800(%rbp), %rdx
	movq	-792(%rbp), %rcx
	.loc	17 494 20 is_stmt 0
	movq	%rsi, (%rax)
	movq	%rdx, 8(%rax)
	movq	%rcx, 16(%rax)
Ltmp377:
	.loc	17 501 6 is_stmt 1
	jmp	LBB27_19
Ltmp378:
Lfunc_end27:
	.cfi_endproc

	.globl	__ZN153_$LT$core..result..Result$LT$T$C$F$GT$$u20$as$u20$core..ops..try_trait..FromResidual$LT$core..result..Result$LT$core..convert..Infallible$C$E$GT$$GT$$GT$13from_residual17h55a040fbd02cbd36E
	.p2align	4, 0x90
__ZN153_$LT$core..result..Result$LT$T$C$F$GT$$u20$as$u20$core..ops..try_trait..FromResidual$LT$core..result..Result$LT$core..convert..Infallible$C$E$GT$$GT$$GT$13from_residual17h55a040fbd02cbd36E:
Lfunc_begin28:
	.file	20 "/rustc/2c8cc343237b8f7d5a3c3703e3a87f2eb2c54a74/library/core/src" "result.rs"
	.loc	20 2105 0
	.cfi_startproc
	pushq	%rbp
	.cfi_def_cfa_offset 16
	.cfi_offset %rbp, -16
	movq	%rsp, %rbp
	.cfi_def_cfa_register %rbp
	subq	$3, %rsp
	movb	%sil, %cl
	movq	%rdi, %rax
	movb	%cl, -3(%rbp)
Ltmp379:
	.loc	20 2107 17 prologue_end
	movb	-3(%rbp), %cl
	movb	%cl, -2(%rbp)
	movb	%cl, -1(%rbp)
Ltmp380:
	.loc	20 2107 23 is_stmt 0
	movb	%cl, 1(%rdi)
	movb	$1, (%rdi)
Ltmp381:
	.loc	20 2109 6 is_stmt 1
	addq	$3, %rsp
	popq	%rbp
	retq
Ltmp382:
Lfunc_end28:
	.cfi_endproc

	.globl	__ZN153_$LT$core..result..Result$LT$T$C$F$GT$$u20$as$u20$core..ops..try_trait..FromResidual$LT$core..result..Result$LT$core..convert..Infallible$C$E$GT$$GT$$GT$13from_residual17hb24bb4b078759439E
	.p2align	4, 0x90
__ZN153_$LT$core..result..Result$LT$T$C$F$GT$$u20$as$u20$core..ops..try_trait..FromResidual$LT$core..result..Result$LT$core..convert..Infallible$C$E$GT$$GT$$GT$13from_residual17hb24bb4b078759439E:
Lfunc_begin29:
	.loc	20 2105 0
	.cfi_startproc
	pushq	%rbp
	.cfi_def_cfa_offset 16
	.cfi_offset %rbp, -16
	movq	%rsp, %rbp
	.cfi_def_cfa_register %rbp
	subq	$3, %rsp
	movb	%sil, %cl
	movq	%rdi, %rax
	movb	%cl, -3(%rbp)
Ltmp383:
	.loc	20 2107 17 prologue_end
	movb	-3(%rbp), %cl
	movb	%cl, -2(%rbp)
	movb	%cl, -1(%rbp)
Ltmp384:
	.loc	20 2107 23 is_stmt 0
	movb	%cl, 1(%rdi)
	movb	$1, (%rdi)
Ltmp385:
	.loc	20 2109 6 is_stmt 1
	addq	$3, %rsp
	popq	%rbp
	retq
Ltmp386:
Lfunc_end29:
	.cfi_endproc

	.p2align	4, 0x90
__ZN4core3fmt9Arguments6new_v117h6801375b82cca5e2E:
Lfunc_begin30:
	.file	21 "/rustc/2c8cc343237b8f7d5a3c3703e3a87f2eb2c54a74/library/core/src/fmt" "mod.rs"
	.loc	21 399 0
	.cfi_startproc
	pushq	%rbp
	.cfi_def_cfa_offset 16
	.cfi_offset %rbp, -16
	movq	%rsp, %rbp
	.cfi_def_cfa_register %rbp
	subq	$160, %rsp
	movq	%r8, -152(%rbp)
	movq	%rcx, -144(%rbp)
	movq	%rdx, -136(%rbp)
	movq	%rsi, -128(%rbp)
	movq	%rdi, -120(%rbp)
	movq	%rdi, -112(%rbp)
	movq	%rsi, -32(%rbp)
	movq	%rdx, -24(%rbp)
	movq	%rcx, -16(%rbp)
	movq	%r8, -8(%rbp)
Ltmp387:
	.loc	21 400 12 prologue_end
	cmpq	%r8, %rdx
	jb	LBB30_2
	.loc	21 0 12 is_stmt 0
	movq	-136(%rbp), %rax
	movq	-152(%rbp), %rcx
	.loc	21 400 56
	addq	$1, %rcx
	.loc	21 400 41
	cmpq	%rcx, %rax
	seta	%al
	.loc	21 400 12
	andb	$1, %al
	movb	%al, -97(%rbp)
	jmp	LBB30_3
LBB30_2:
	movb	$1, -97(%rbp)
LBB30_3:
	testb	$1, -97(%rbp)
	jne	LBB30_5
	.loc	21 0 12
	movq	-112(%rbp), %rax
	movq	-120(%rbp), %rcx
	movq	-152(%rbp), %rdx
	movq	-144(%rbp), %rsi
	movq	-136(%rbp), %rdi
	movq	-128(%rbp), %r8
	.loc	21 403 34 is_stmt 1
	movq	$0, -48(%rbp)
	.loc	21 403 9 is_stmt 0
	movq	%r8, 16(%rcx)
	movq	%rdi, 24(%rcx)
	movq	-48(%rbp), %r8
	movq	-40(%rbp), %rdi
	movq	%r8, (%rcx)
	movq	%rdi, 8(%rcx)
	movq	%rsi, 32(%rcx)
	movq	%rdx, 40(%rcx)
	.loc	21 404 6 is_stmt 1
	addq	$160, %rsp
	popq	%rbp
	retq
LBB30_5:
	.loc	21 401 13
	leaq	l___unnamed_2(%rip), %rsi
	leaq	l___unnamed_3(%rip), %rcx
	xorl	%eax, %eax
	movl	%eax, %r8d
	leaq	-96(%rbp), %rdi
	movq	%rdi, -160(%rbp)
	movl	$1, %edx
	callq	__ZN4core3fmt9Arguments6new_v117h6801375b82cca5e2E
	movq	-160(%rbp), %rdi
	leaq	l___unnamed_4(%rip), %rsi
	callq	__ZN4core9panicking9panic_fmt17h9b5d807e24bcaaedE
Ltmp388:
Lfunc_end30:
	.cfi_endproc

	.globl	__ZN4core3mem7replace17h6f0399e50375cc85E
	.p2align	4, 0x90
__ZN4core3mem7replace17h6f0399e50375cc85E:
Lfunc_begin31:
	.file	22 "/rustc/2c8cc343237b8f7d5a3c3703e3a87f2eb2c54a74/library/core/src/mem" "mod.rs"
	.loc	22 905 0
	.cfi_startproc
	pushq	%rbp
	.cfi_def_cfa_offset 16
	.cfi_offset %rbp, -16
	movq	%rsp, %rbp
	.cfi_def_cfa_register %rbp
	subq	$120, %rsp
	movq	%rdi, -120(%rbp)
	movq	%rsi, -112(%rbp)
	movq	%rdi, -80(%rbp)
	movq	%rsi, -72(%rbp)
Ltmp389:
	.loc	22 910 32 prologue_end
	movq	%rdi, -64(%rbp)
Ltmp390:
	.loc	16 1157 34
	leaq	-88(%rbp), %rax
	movq	%rax, -56(%rbp)
	.loc	16 1157 9 is_stmt 0
	movq	(%rdi), %rax
	movq	%rax, -88(%rbp)
	.loc	16 1158 9 is_stmt 1
	movq	-88(%rbp), %rax
	movq	%rax, -104(%rbp)
	movq	%rax, -48(%rbp)
	.loc	16 0 9 is_stmt 0
	movq	-104(%rbp), %rax
	movq	-120(%rbp), %rcx
	movq	-112(%rbp), %rdx
Ltmp391:
	.file	23 "/rustc/2c8cc343237b8f7d5a3c3703e3a87f2eb2c54a74/library/core/src/mem" "maybe_uninit.rs"
	.loc	23 627 38 is_stmt 1
	movq	%rax, -24(%rbp)
Ltmp392:
	.file	24 "/rustc/2c8cc343237b8f7d5a3c3703e3a87f2eb2c54a74/library/core/src/mem" "manually_drop.rs"
	.loc	24 89 9
	movq	%rax, -16(%rbp)
Ltmp393:
	.loc	22 911 20
	movq	%rcx, -8(%rbp)
	.loc	22 911 26 is_stmt 0
	movq	%rdx, -96(%rbp)
Ltmp394:
	.loc	16 1354 9 is_stmt 1
	movq	-96(%rbp), %rdx
	movq	%rdx, (%rcx)
Ltmp395:
	.loc	22 914 2
	addq	$120, %rsp
	popq	%rbp
	retq
Ltmp396:
Lfunc_end31:
	.cfi_endproc

	.globl	__ZN4core3mem7replace17h8dec02e00bbc36c2E
	.p2align	4, 0x90
__ZN4core3mem7replace17h8dec02e00bbc36c2E:
Lfunc_begin32:
	.loc	22 905 0
	.cfi_startproc
	pushq	%rbp
	.cfi_def_cfa_offset 16
	.cfi_offset %rbp, -16
	movq	%rsp, %rbp
	.cfi_def_cfa_register %rbp
	subq	$120, %rsp
	movq	%rdi, -120(%rbp)
	movq	%rsi, -112(%rbp)
	movq	%rdi, -80(%rbp)
	movq	%rsi, -72(%rbp)
Ltmp397:
	.loc	22 910 32 prologue_end
	movq	%rdi, -64(%rbp)
Ltmp398:
	.loc	16 1157 34
	leaq	-88(%rbp), %rax
	movq	%rax, -56(%rbp)
	.loc	16 1157 9 is_stmt 0
	movq	(%rdi), %rax
	movq	%rax, -88(%rbp)
	.loc	16 1158 9 is_stmt 1
	movq	-88(%rbp), %rax
	movq	%rax, -104(%rbp)
	movq	%rax, -48(%rbp)
	.loc	16 0 9 is_stmt 0
	movq	-104(%rbp), %rax
	movq	-120(%rbp), %rcx
	movq	-112(%rbp), %rdx
Ltmp399:
	.loc	23 627 38 is_stmt 1
	movq	%rax, -24(%rbp)
Ltmp400:
	.loc	24 89 9
	movq	%rax, -16(%rbp)
Ltmp401:
	.loc	22 911 20
	movq	%rcx, -8(%rbp)
	.loc	22 911 26 is_stmt 0
	movq	%rdx, -96(%rbp)
Ltmp402:
	.loc	16 1354 9 is_stmt 1
	movq	-96(%rbp), %rdx
	movq	%rdx, (%rcx)
Ltmp403:
	.loc	22 914 2
	addq	$120, %rsp
	popq	%rbp
	retq
Ltmp404:
Lfunc_end32:
	.cfi_endproc

	.p2align	4, 0x90
__ZN4core3num23_$LT$impl$u20$usize$GT$11checked_add17hae24128b6b3a6ca7E:
Lfunc_begin33:
	.loc	10 442 0
	.cfi_startproc
	pushq	%rbp
	.cfi_def_cfa_offset 16
	.cfi_offset %rbp, -16
	movq	%rsp, %rbp
	.cfi_def_cfa_register %rbp
	subq	$120, %rsp
	movq	%rdi, -80(%rbp)
	movq	%rsi, -72(%rbp)
Ltmp405:
	.loc	10 443 26 prologue_end
	movq	%rdi, -64(%rbp)
	.loc	10 443 47 is_stmt 0
	movq	%rsi, -56(%rbp)
Ltmp406:
	.loc	10 1479 26 is_stmt 1
	addq	%rsi, %rdi
	setb	%al
	andb	$1, %al
	movq	%rdi, -48(%rbp)
	movb	%al, -40(%rbp)
	movq	-48(%rbp), %rcx
	movb	-40(%rbp), %al
	.loc	10 1479 18 is_stmt 0
	movq	%rcx, -32(%rbp)
	.loc	10 1479 21
	movb	%al, %dl
	andb	$1, %dl
	movb	%dl, -17(%rbp)
Ltmp407:
	.loc	10 1480 13 is_stmt 1
	movq	%rcx, -96(%rbp)
	andb	$1, %al
	movb	%al, -88(%rbp)
Ltmp408:
	.loc	10 443 18
	movq	-96(%rbp), %rax
	movq	%rax, -120(%rbp)
	movq	%rax, -16(%rbp)
	.loc	10 443 21 is_stmt 0
	movb	-88(%rbp), %al
	movb	%al, %cl
	andb	$1, %cl
	movb	%cl, -2(%rbp)
Ltmp409:
	.loc	10 444 16 is_stmt 1
	andb	$1, %al
	movb	%al, -1(%rbp)
	testb	$1, -1(%rbp)
	jne	LBB33_2
	.loc	10 0 16 is_stmt 0
	movq	-120(%rbp), %rax
	.loc	10 444 42
	movq	%rax, -104(%rbp)
	movq	$1, -112(%rbp)
	.loc	10 444 13
	jmp	LBB33_3
LBB33_2:
	.loc	10 444 30
	movq	$0, -112(%rbp)
Ltmp410:
LBB33_3:
	.loc	10 445 10 is_stmt 1
	movq	-112(%rbp), %rax
	movq	-104(%rbp), %rdx
	addq	$120, %rsp
	popq	%rbp
	retq
Ltmp411:
Lfunc_end33:
	.cfi_endproc

	.p2align	4, 0x90
__ZN4core3num23_$LT$impl$u20$usize$GT$11checked_mul17h64f7e27fec32d93cE:
Lfunc_begin34:
	.loc	10 558 0
	.cfi_startproc
	pushq	%rbp
	.cfi_def_cfa_offset 16
	.cfi_offset %rbp, -16
	movq	%rsp, %rbp
	.cfi_def_cfa_register %rbp
	subq	$120, %rsp
	movq	%rdi, %rax
	movq	%rax, -80(%rbp)
	movq	%rsi, -72(%rbp)
Ltmp412:
	.loc	10 559 26 prologue_end
	movq	%rax, -64(%rbp)
	.loc	10 559 47 is_stmt 0
	movq	%rsi, -56(%rbp)
Ltmp413:
	.loc	10 1677 26 is_stmt 1
	mulq	%rsi
	movq	%rax, %rcx
	seto	%al
	andb	$1, %al
	movq	%rcx, -48(%rbp)
	movb	%al, -40(%rbp)
	movq	-48(%rbp), %rcx
	movb	-40(%rbp), %al
	.loc	10 1677 18 is_stmt 0
	movq	%rcx, -32(%rbp)
	.loc	10 1677 21
	movb	%al, %dl
	andb	$1, %dl
	movb	%dl, -17(%rbp)
Ltmp414:
	.loc	10 1678 13 is_stmt 1
	movq	%rcx, -96(%rbp)
	andb	$1, %al
	movb	%al, -88(%rbp)
Ltmp415:
	.loc	10 559 18
	movq	-96(%rbp), %rax
	movq	%rax, -120(%rbp)
	movq	%rax, -16(%rbp)
	.loc	10 559 21 is_stmt 0
	movb	-88(%rbp), %al
	movb	%al, %cl
	andb	$1, %cl
	movb	%cl, -2(%rbp)
Ltmp416:
	.loc	10 560 16 is_stmt 1
	andb	$1, %al
	movb	%al, -1(%rbp)
	testb	$1, -1(%rbp)
	jne	LBB34_2
	.loc	10 0 16 is_stmt 0
	movq	-120(%rbp), %rax
	.loc	10 560 42
	movq	%rax, -104(%rbp)
	movq	$1, -112(%rbp)
	.loc	10 560 13
	jmp	LBB34_3
LBB34_2:
	.loc	10 560 30
	movq	$0, -112(%rbp)
Ltmp417:
LBB34_3:
	.loc	10 561 10 is_stmt 1
	movq	-112(%rbp), %rax
	movq	-104(%rbp), %rdx
	addq	$120, %rsp
	popq	%rbp
	retq
Ltmp418:
Lfunc_end34:
	.cfi_endproc

	.globl	__ZN4core3ops12control_flow24ControlFlow$LT$B$C$C$GT$11break_value17h57c41f0670ca003dE
	.p2align	4, 0x90
__ZN4core3ops12control_flow24ControlFlow$LT$B$C$C$GT$11break_value17h57c41f0670ca003dE:
Lfunc_begin35:
	.loc	2 183 0
	.cfi_startproc
	pushq	%rbp
	.cfi_def_cfa_offset 16
	.cfi_offset %rbp, -16
	movq	%rsp, %rbp
	.cfi_def_cfa_register %rbp
	subq	$208, %rsp
	movq	%rsi, -200(%rbp)
Ltmp419:
	movq	%rdi, -192(%rbp)
	movq	%rdi, -184(%rbp)
Ltmp420:
	.loc	2 184 15 prologue_end
	movl	$1, %eax
	xorl	%ecx, %ecx
	cmpq	$4, (%rsi)
	cmoveq	%rcx, %rax
	.loc	2 184 9 is_stmt 0
	cmpq	$0, %rax
Ltmp421:
	jne	LBB35_2
Ltmp422:
	.loc	2 0 9
	movq	-192(%rbp), %rax
	.loc	2 185 42 is_stmt 1
	movq	$4, (%rax)
	jmp	LBB35_3
Ltmp423:
LBB35_2:
	.loc	2 0 42 is_stmt 0
	movq	-200(%rbp), %rsi
	.loc	2 186 32 is_stmt 1
	leaq	-176(%rbp), %rdi
	movl	$88, %edx
	callq	_memcpy
Ltmp424:
	.loc	2 186 43 is_stmt 0
	leaq	-88(%rbp), %rdi
	leaq	-176(%rbp), %rsi
	movl	$88, %edx
	callq	_memcpy
	movq	-192(%rbp), %rdi
	.loc	2 186 38
	leaq	-88(%rbp), %rsi
	movl	$88, %edx
	callq	_memcpy
Ltmp425:
LBB35_3:
	.loc	2 0 38
	movq	-200(%rbp), %rdx
	.loc	2 188 5 is_stmt 1
	movl	$1, %eax
	xorl	%ecx, %ecx
	cmpq	$4, (%rdx)
	cmoveq	%rcx, %rax
	cmpq	$1, %rax
	jne	LBB35_5
Ltmp426:
LBB35_4:
	.loc	2 0 5 is_stmt 0
	movq	-184(%rbp), %rax
	.loc	2 188 6
	addq	$208, %rsp
	popq	%rbp
	retq
Ltmp427:
LBB35_5:
	.loc	2 188 5
	jmp	LBB35_4
Ltmp428:
Lfunc_end35:
	.cfi_endproc

	.globl	__ZN4core3ops12control_flow24ControlFlow$LT$B$C$C$GT$11break_value17hb4e1c38117ffdf50E
	.p2align	4, 0x90
__ZN4core3ops12control_flow24ControlFlow$LT$B$C$C$GT$11break_value17hb4e1c38117ffdf50E:
Lfunc_begin36:
	.loc	2 183 0 is_stmt 1
	.cfi_startproc
	pushq	%rbp
	.cfi_def_cfa_offset 16
	.cfi_offset %rbp, -16
	movq	%rsp, %rbp
	.cfi_def_cfa_register %rbp
	subq	$240, %rsp
	movq	%rsi, -232(%rbp)
Ltmp429:
	movq	%rdi, -224(%rbp)
	movq	%rdi, -216(%rbp)
Ltmp430:
	.loc	2 184 15 prologue_end
	movl	$1, %eax
	xorl	%ecx, %ecx
	cmpq	$9, (%rsi)
	cmoveq	%rcx, %rax
	.loc	2 184 9 is_stmt 0
	cmpq	$0, %rax
Ltmp431:
	jne	LBB36_2
Ltmp432:
	.loc	2 0 9
	movq	-224(%rbp), %rax
	.loc	2 185 42 is_stmt 1
	movq	$9, (%rax)
	jmp	LBB36_3
Ltmp433:
LBB36_2:
	.loc	2 0 42 is_stmt 0
	movq	-232(%rbp), %rsi
	.loc	2 186 32 is_stmt 1
	leaq	-208(%rbp), %rdi
	movl	$104, %edx
	callq	_memcpy
Ltmp434:
	.loc	2 186 43 is_stmt 0
	leaq	-104(%rbp), %rdi
	leaq	-208(%rbp), %rsi
	movl	$104, %edx
	callq	_memcpy
	movq	-224(%rbp), %rdi
	.loc	2 186 38
	leaq	-104(%rbp), %rsi
	movl	$104, %edx
	callq	_memcpy
Ltmp435:
LBB36_3:
	.loc	2 0 38
	movq	-232(%rbp), %rdx
	.loc	2 188 5 is_stmt 1
	movl	$1, %eax
	xorl	%ecx, %ecx
	cmpq	$9, (%rdx)
	cmoveq	%rcx, %rax
	cmpq	$1, %rax
	jne	LBB36_5
Ltmp436:
LBB36_4:
	.loc	2 0 5 is_stmt 0
	movq	-216(%rbp), %rax
	.loc	2 188 6
	addq	$240, %rsp
	popq	%rbp
	retq
Ltmp437:
LBB36_5:
	.loc	2 188 5
	jmp	LBB36_4
Ltmp438:
Lfunc_end36:
	.cfi_endproc

	.globl	__ZN4core3ops8function5impls79_$LT$impl$u20$core..ops..function..FnMut$LT$A$GT$$u20$for$u20$$RF$mut$u20$F$GT$8call_mut17h13a87145d2ce09c9E
	.p2align	4, 0x90
__ZN4core3ops8function5impls79_$LT$impl$u20$core..ops..function..FnMut$LT$A$GT$$u20$for$u20$$RF$mut$u20$F$GT$8call_mut17h13a87145d2ce09c9E:
Lfunc_begin37:
	.file	25 "/rustc/2c8cc343237b8f7d5a3c3703e3a87f2eb2c54a74/library/core/src/ops" "function.rs"
	.loc	25 297 0 is_stmt 1
	.cfi_startproc
	pushq	%rbp
	.cfi_def_cfa_offset 16
	.cfi_offset %rbp, -16
	movq	%rsp, %rbp
	.cfi_def_cfa_register %rbp
	subq	$16, %rsp
	movq	%rsi, -16(%rbp)
	movq	%rdi, -8(%rbp)
Ltmp439:
	.loc	25 298 13 prologue_end
	movq	(%rdi), %rdi
	.loc	25 298 30 is_stmt 0
	movq	-16(%rbp), %rsi
	.loc	25 298 13
	callq	__ZN109_$LT$owned_ttf_parser..preparse..FaceSubtables$u20$as$u20$core..convert..From$LT$$RF$ttf_parser..Face$GT$$GT$4from28_$u7b$$u7b$closure$u7d$$u7d$17h5dbd7041c8eb7011E
	.loc	25 299 10 is_stmt 1
	andb	$1, %al
	movzbl	%al, %eax
	addq	$16, %rsp
	popq	%rbp
	retq
Ltmp440:
Lfunc_end37:
	.cfi_endproc

	.globl	__ZN4core3ops8function5impls79_$LT$impl$u20$core..ops..function..FnMut$LT$A$GT$$u20$for$u20$$RF$mut$u20$F$GT$8call_mut17h74e597154f1d6eedE
	.p2align	4, 0x90
__ZN4core3ops8function5impls79_$LT$impl$u20$core..ops..function..FnMut$LT$A$GT$$u20$for$u20$$RF$mut$u20$F$GT$8call_mut17h74e597154f1d6eedE:
Lfunc_begin38:
	.loc	25 297 0
	.cfi_startproc
	pushq	%rbp
	.cfi_def_cfa_offset 16
	.cfi_offset %rbp, -16
	movq	%rsp, %rbp
	.cfi_def_cfa_register %rbp
	subq	$224, %rsp
	movq	%rdx, -224(%rbp)
	movq	%rsi, %rax
	movq	-224(%rbp), %rsi
	movq	%rax, -216(%rbp)
	movq	%rdi, -208(%rbp)
	movq	%rdi, -192(%rbp)
	leaq	-184(%rbp), %rdi
	movl	$88, %edx
	callq	_memcpy
	movq	-216(%rbp), %rsi
	movq	%rsi, -8(%rbp)
Ltmp441:
	.loc	25 298 13 prologue_end
	movq	(%rsi), %rax
	movq	%rax, -200(%rbp)
	.loc	25 298 30 is_stmt 0
	leaq	-96(%rbp), %rdi
	leaq	-184(%rbp), %rsi
	movl	$88, %edx
	callq	_memcpy
	movq	-208(%rbp), %rdi
	movq	-200(%rbp), %rsi
	.loc	25 298 13
	leaq	-96(%rbp), %rdx
	callq	__ZN4core4iter6traits8iterator8Iterator4find5check28_$u7b$$u7b$closure$u7d$$u7d$17h2129fe16d0bf506fE
	movq	-192(%rbp), %rax
	.loc	25 299 10 is_stmt 1
	addq	$224, %rsp
	popq	%rbp
	retq
Ltmp442:
Lfunc_end38:
	.cfi_endproc

	.globl	__ZN4core3ops8function5impls79_$LT$impl$u20$core..ops..function..FnMut$LT$A$GT$$u20$for$u20$$RF$mut$u20$F$GT$8call_mut17ha381f9ba330035d1E
	.p2align	4, 0x90
__ZN4core3ops8function5impls79_$LT$impl$u20$core..ops..function..FnMut$LT$A$GT$$u20$for$u20$$RF$mut$u20$F$GT$8call_mut17ha381f9ba330035d1E:
Lfunc_begin39:
	.loc	25 297 0
	.cfi_startproc
	pushq	%rbp
	.cfi_def_cfa_offset 16
	.cfi_offset %rbp, -16
	movq	%rsp, %rbp
	.cfi_def_cfa_register %rbp
	subq	$16, %rsp
	movq	%rsi, -16(%rbp)
	movq	%rdi, -8(%rbp)
Ltmp443:
	.loc	25 298 13 prologue_end
	movq	(%rdi), %rdi
	.loc	25 298 30 is_stmt 0
	movq	-16(%rbp), %rsi
	.loc	25 298 13
	callq	__ZN109_$LT$owned_ttf_parser..preparse..FaceSubtables$u20$as$u20$core..convert..From$LT$$RF$ttf_parser..Face$GT$$GT$4from28_$u7b$$u7b$closure$u7d$$u7d$17hbf8ccc21b02e43ddE
	.loc	25 299 10 is_stmt 1
	andb	$1, %al
	movzbl	%al, %eax
	addq	$16, %rsp
	popq	%rbp
	retq
Ltmp444:
Lfunc_end39:
	.cfi_endproc

	.globl	__ZN4core3ops8function5impls79_$LT$impl$u20$core..ops..function..FnMut$LT$A$GT$$u20$for$u20$$RF$mut$u20$F$GT$8call_mut17he8fe350f1b39792fE
	.p2align	4, 0x90
__ZN4core3ops8function5impls79_$LT$impl$u20$core..ops..function..FnMut$LT$A$GT$$u20$for$u20$$RF$mut$u20$F$GT$8call_mut17he8fe350f1b39792fE:
Lfunc_begin40:
	.loc	25 297 0
	.cfi_startproc
	pushq	%rbp
	.cfi_def_cfa_offset 16
	.cfi_offset %rbp, -16
	movq	%rsp, %rbp
	.cfi_def_cfa_register %rbp
	subq	$256, %rsp
	movq	%rdx, -256(%rbp)
	movq	%rsi, %rax
	movq	-256(%rbp), %rsi
	movq	%rax, -248(%rbp)
	movq	%rdi, -240(%rbp)
	movq	%rdi, -224(%rbp)
	leaq	-216(%rbp), %rdi
	movl	$104, %edx
	callq	_memcpy
	movq	-248(%rbp), %rsi
	movq	%rsi, -8(%rbp)
Ltmp445:
	.loc	25 298 13 prologue_end
	movq	(%rsi), %rax
	movq	%rax, -232(%rbp)
	.loc	25 298 30 is_stmt 0
	leaq	-112(%rbp), %rdi
	leaq	-216(%rbp), %rsi
	movl	$104, %edx
	callq	_memcpy
	movq	-240(%rbp), %rdi
	movq	-232(%rbp), %rsi
	.loc	25 298 13
	leaq	-112(%rbp), %rdx
	callq	__ZN4core4iter6traits8iterator8Iterator4find5check28_$u7b$$u7b$closure$u7d$$u7d$17hf0eeb90cf3b0fda8E
	movq	-224(%rbp), %rax
	.loc	25 299 10 is_stmt 1
	addq	$256, %rsp
	popq	%rbp
	retq
Ltmp446:
Lfunc_end40:
	.cfi_endproc

	.p2align	4, 0x90
__ZN4core3ops8function6FnOnce9call_once17h18a95adbed26e877E:
Lfunc_begin41:
	.loc	25 250 0
	.cfi_startproc
	pushq	%rbp
	.cfi_def_cfa_offset 16
	.cfi_offset %rbp, -16
	movq	%rsp, %rbp
	.cfi_def_cfa_register %rbp
	subq	$32, %rsp
	movq	%rdi, %rax
	movq	%rax, -24(%rbp)
	movq	%rsi, -16(%rbp)
Ltmp447:
	.loc	25 250 5 prologue_end
	movq	-16(%rbp), %rsi
	callq	__ZN4core4iter6traits8iterator8Iterator9size_hint17hb6591bbd031d9cf6E
	movq	-24(%rbp), %rax
	addq	$32, %rsp
	popq	%rbp
	retq
Ltmp448:
Lfunc_end41:
	.cfi_endproc

	.p2align	4, 0x90
__ZN4core3ops8function6FnOnce9call_once17hf4d41e8ae42a2a25E:
Lfunc_begin42:
	.loc	25 250 0
	.cfi_startproc
	pushq	%rbp
	.cfi_def_cfa_offset 16
	.cfi_offset %rbp, -16
	movq	%rsp, %rbp
	.cfi_def_cfa_register %rbp
	subq	$32, %rsp
	movq	%rdi, %rax
	movq	%rax, -24(%rbp)
	movq	%rsi, -16(%rbp)
Ltmp449:
	.loc	25 250 5 prologue_end
	movq	-16(%rbp), %rsi
	callq	__ZN4core4iter6traits8iterator8Iterator9size_hint17h804dfdacaf3169aeE
	movq	-24(%rbp), %rax
	addq	$32, %rsp
	popq	%rbp
	retq
Ltmp450:
Lfunc_end42:
	.cfi_endproc

	.globl	__ZN4core3ptr107drop_in_place$LT$core..pin..Pin$LT$alloc..boxed..Box$LT$owned_ttf_parser..owned..SelfRefVecFace$GT$$GT$$GT$17h839299d7fa736d4aE
	.p2align	4, 0x90
__ZN4core3ptr107drop_in_place$LT$core..pin..Pin$LT$alloc..boxed..Box$LT$owned_ttf_parser..owned..SelfRefVecFace$GT$$GT$$GT$17h839299d7fa736d4aE:
Lfunc_begin43:
	.loc	16 490 0
	.cfi_startproc
	pushq	%rbp
	.cfi_def_cfa_offset 16
	.cfi_offset %rbp, -16
	movq	%rsp, %rbp
	.cfi_def_cfa_register %rbp
	subq	$16, %rsp
	movq	%rdi, -8(%rbp)
Ltmp451:
	.loc	16 490 1 prologue_end
	callq	__ZN4core3ptr85drop_in_place$LT$alloc..boxed..Box$LT$owned_ttf_parser..owned..SelfRefVecFace$GT$$GT$17h0ad8966fd93f87dfE
	addq	$16, %rsp
	popq	%rbp
	retq
Ltmp452:
Lfunc_end43:
	.cfi_endproc

	.globl	__ZN4core3ptr55drop_in_place$LT$owned_ttf_parser..owned..OwnedFace$GT$17h57fab4d112ba37f5E
	.p2align	4, 0x90
__ZN4core3ptr55drop_in_place$LT$owned_ttf_parser..owned..OwnedFace$GT$17h57fab4d112ba37f5E:
Lfunc_begin44:
	.loc	16 490 0
	.cfi_startproc
	pushq	%rbp
	.cfi_def_cfa_offset 16
	.cfi_offset %rbp, -16
	movq	%rsp, %rbp
	.cfi_def_cfa_register %rbp
	subq	$16, %rsp
	movq	%rdi, -8(%rbp)
Ltmp453:
	.loc	16 490 1 prologue_end
	callq	__ZN4core3ptr107drop_in_place$LT$core..pin..Pin$LT$alloc..boxed..Box$LT$owned_ttf_parser..owned..SelfRefVecFace$GT$$GT$$GT$17h839299d7fa736d4aE
	addq	$16, %rsp
	popq	%rbp
	retq
Ltmp454:
Lfunc_end44:
	.cfi_endproc

	.globl	__ZN4core3ptr60drop_in_place$LT$owned_ttf_parser..owned..SelfRefVecFace$GT$17hea80e08f61a59902E
	.p2align	4, 0x90
__ZN4core3ptr60drop_in_place$LT$owned_ttf_parser..owned..SelfRefVecFace$GT$17hea80e08f61a59902E:
Lfunc_begin45:
	.loc	16 490 0
	.cfi_startproc
	pushq	%rbp
	.cfi_def_cfa_offset 16
	.cfi_offset %rbp, -16
	movq	%rsp, %rbp
	.cfi_def_cfa_register %rbp
	subq	$16, %rsp
	movq	%rdi, -8(%rbp)
Ltmp455:
	.loc	16 490 1 prologue_end
	addq	$2336, %rdi
	callq	__ZN4core3ptr46drop_in_place$LT$alloc..vec..Vec$LT$u8$GT$$GT$17hcaa087587bec7115E
	addq	$16, %rsp
	popq	%rbp
	retq
Ltmp456:
Lfunc_end45:
	.cfi_endproc

	.globl	__ZN4core3ptr78drop_in_place$LT$alloc..vec..Vec$LT$ttf_parser..tables..cmap..Subtable$GT$$GT$17h99abddb1a9fed3c1E
	.p2align	4, 0x90
__ZN4core3ptr78drop_in_place$LT$alloc..vec..Vec$LT$ttf_parser..tables..cmap..Subtable$GT$$GT$17h99abddb1a9fed3c1E:
Lfunc_begin46:
	.loc	16 490 0
	.cfi_startproc
	.cfi_personality 155, _rust_eh_personality
	.cfi_lsda 16, Lexception8
	pushq	%rbp
	.cfi_def_cfa_offset 16
	.cfi_offset %rbp, -16
	movq	%rsp, %rbp
	.cfi_def_cfa_register %rbp
	subq	$32, %rsp
	movq	%rdi, -32(%rbp)
	movq	%rdi, -24(%rbp)
Ltmp457:
Ltmp463:
	.loc	16 490 1 prologue_end
	callq	__ZN70_$LT$alloc..vec..Vec$LT$T$C$A$GT$$u20$as$u20$core..ops..drop..Drop$GT$4drop17h6071509d1e838a26E
Ltmp458:
	jmp	LBB46_3
LBB46_1:
Ltmp460:
	.loc	16 0 1 is_stmt 0
	movq	-32(%rbp), %rdi
	.loc	16 490 1
	callq	__ZN4core3ptr85drop_in_place$LT$alloc..raw_vec..RawVec$LT$ttf_parser..tables..cmap..Subtable$GT$$GT$17hcc9be61d7a824fd3E
Ltmp461:
	jmp	LBB46_5
LBB46_2:
Ltmp459:
	.loc	16 0 1
	movq	%rax, %rcx
	movl	%edx, %eax
	movq	%rcx, -16(%rbp)
	movl	%eax, -8(%rbp)
	jmp	LBB46_1
LBB46_3:
	movq	-32(%rbp), %rdi
	.loc	16 490 1
	callq	__ZN4core3ptr85drop_in_place$LT$alloc..raw_vec..RawVec$LT$ttf_parser..tables..cmap..Subtable$GT$$GT$17hcc9be61d7a824fd3E
	addq	$32, %rsp
	popq	%rbp
	retq
LBB46_4:
Ltmp462:
	callq	__ZN4core9panicking19panic_cannot_unwind17h1fbca7e1d7f56ae1E
LBB46_5:
	movq	-16(%rbp), %rdi
	callq	__Unwind_Resume
Ltmp464:
Lfunc_end46:
	.cfi_endproc
	.section	__TEXT,__gcc_except_tab
	.p2align	2
GCC_except_table46:
Lexception8:
	.byte	255
	.byte	255
	.byte	1
	.uleb128 Lcst_end8-Lcst_begin8
Lcst_begin8:
	.uleb128 Ltmp457-Lfunc_begin46
	.uleb128 Ltmp458-Ltmp457
	.uleb128 Ltmp459-Lfunc_begin46
	.byte	0
	.uleb128 Ltmp460-Lfunc_begin46
	.uleb128 Ltmp461-Ltmp460
	.uleb128 Ltmp462-Lfunc_begin46
	.byte	0
	.uleb128 Ltmp461-Lfunc_begin46
	.uleb128 Lfunc_end46-Ltmp461
	.byte	0
	.byte	0
Lcst_end8:
	.p2align	2

	.section	__TEXT,__text,regular,pure_instructions
	.globl	__ZN4core3ptr78drop_in_place$LT$alloc..vec..Vec$LT$ttf_parser..tables..kern..Subtable$GT$$GT$17h5627c474c0aedf2dE
	.p2align	4, 0x90
__ZN4core3ptr78drop_in_place$LT$alloc..vec..Vec$LT$ttf_parser..tables..kern..Subtable$GT$$GT$17h5627c474c0aedf2dE:
Lfunc_begin47:
	.loc	16 490 0 is_stmt 1
	.cfi_startproc
	.cfi_personality 155, _rust_eh_personality
	.cfi_lsda 16, Lexception9
	pushq	%rbp
	.cfi_def_cfa_offset 16
	.cfi_offset %rbp, -16
	movq	%rsp, %rbp
	.cfi_def_cfa_register %rbp
	subq	$32, %rsp
	movq	%rdi, -32(%rbp)
	movq	%rdi, -24(%rbp)
Ltmp465:
Ltmp471:
	.loc	16 490 1 prologue_end
	callq	__ZN70_$LT$alloc..vec..Vec$LT$T$C$A$GT$$u20$as$u20$core..ops..drop..Drop$GT$4drop17h477ced18b1e17882E
Ltmp466:
	jmp	LBB47_3
LBB47_1:
Ltmp468:
	.loc	16 0 1 is_stmt 0
	movq	-32(%rbp), %rdi
	.loc	16 490 1
	callq	__ZN4core3ptr85drop_in_place$LT$alloc..raw_vec..RawVec$LT$ttf_parser..tables..kern..Subtable$GT$$GT$17h1dbb83dbc7afd955E
Ltmp469:
	jmp	LBB47_5
LBB47_2:
Ltmp467:
	.loc	16 0 1
	movq	%rax, %rcx
	movl	%edx, %eax
	movq	%rcx, -16(%rbp)
	movl	%eax, -8(%rbp)
	jmp	LBB47_1
LBB47_3:
	movq	-32(%rbp), %rdi
	.loc	16 490 1
	callq	__ZN4core3ptr85drop_in_place$LT$alloc..raw_vec..RawVec$LT$ttf_parser..tables..kern..Subtable$GT$$GT$17h1dbb83dbc7afd955E
	addq	$32, %rsp
	popq	%rbp
	retq
LBB47_4:
Ltmp470:
	callq	__ZN4core9panicking19panic_cannot_unwind17h1fbca7e1d7f56ae1E
LBB47_5:
	movq	-16(%rbp), %rdi
	callq	__Unwind_Resume
Ltmp472:
Lfunc_end47:
	.cfi_endproc
	.section	__TEXT,__gcc_except_tab
	.p2align	2
GCC_except_table47:
Lexception9:
	.byte	255
	.byte	255
	.byte	1
	.uleb128 Lcst_end9-Lcst_begin9
Lcst_begin9:
	.uleb128 Ltmp465-Lfunc_begin47
	.uleb128 Ltmp466-Ltmp465
	.uleb128 Ltmp467-Lfunc_begin47
	.byte	0
	.uleb128 Ltmp468-Lfunc_begin47
	.uleb128 Ltmp469-Ltmp468
	.uleb128 Ltmp470-Lfunc_begin47
	.byte	0
	.uleb128 Ltmp469-Lfunc_begin47
	.uleb128 Lfunc_end47-Ltmp469
	.byte	0
	.byte	0
Lcst_end9:
	.p2align	2

	.section	__TEXT,__text,regular,pure_instructions
	.globl	__ZN4core3ptr85drop_in_place$LT$alloc..boxed..Box$LT$owned_ttf_parser..owned..SelfRefVecFace$GT$$GT$17h0ad8966fd93f87dfE
	.p2align	4, 0x90
__ZN4core3ptr85drop_in_place$LT$alloc..boxed..Box$LT$owned_ttf_parser..owned..SelfRefVecFace$GT$$GT$17h0ad8966fd93f87dfE:
Lfunc_begin48:
	.loc	16 490 0 is_stmt 1
	.cfi_startproc
	.cfi_personality 155, _rust_eh_personality
	.cfi_lsda 16, Lexception10
	pushq	%rbp
	.cfi_def_cfa_offset 16
	.cfi_offset %rbp, -16
	movq	%rsp, %rbp
	.cfi_def_cfa_register %rbp
	subq	$32, %rsp
	movq	%rdi, -32(%rbp)
	movq	%rdi, -24(%rbp)
Ltmp479:
	.loc	16 490 1 prologue_end
	movq	(%rdi), %rdi
Ltmp473:
	callq	__ZN4core3ptr60drop_in_place$LT$owned_ttf_parser..owned..SelfRefVecFace$GT$17hea80e08f61a59902E
Ltmp474:
	jmp	LBB48_3
LBB48_1:
	.loc	16 0 1 is_stmt 0
	movq	-32(%rbp), %rax
	.loc	16 490 1
	movq	(%rax), %rdi
Ltmp476:
	callq	__ZN5alloc5alloc8box_free17hfc779a17fed41d9aE
Ltmp477:
	jmp	LBB48_5
LBB48_2:
Ltmp475:
	.loc	16 0 1
	movq	%rax, %rcx
	movl	%edx, %eax
	movq	%rcx, -16(%rbp)
	movl	%eax, -8(%rbp)
	jmp	LBB48_1
LBB48_3:
	movq	-32(%rbp), %rax
	.loc	16 490 1
	movq	(%rax), %rdi
	callq	__ZN5alloc5alloc8box_free17hfc779a17fed41d9aE
	addq	$32, %rsp
	popq	%rbp
	retq
LBB48_4:
Ltmp478:
	callq	__ZN4core9panicking19panic_cannot_unwind17h1fbca7e1d7f56ae1E
LBB48_5:
	movq	-16(%rbp), %rdi
	callq	__Unwind_Resume
Ltmp480:
Lfunc_end48:
	.cfi_endproc
	.section	__TEXT,__gcc_except_tab
	.p2align	2
GCC_except_table48:
Lexception10:
	.byte	255
	.byte	255
	.byte	1
	.uleb128 Lcst_end10-Lcst_begin10
Lcst_begin10:
	.uleb128 Ltmp473-Lfunc_begin48
	.uleb128 Ltmp474-Ltmp473
	.uleb128 Ltmp475-Lfunc_begin48
	.byte	0
	.uleb128 Ltmp476-Lfunc_begin48
	.uleb128 Ltmp477-Ltmp476
	.uleb128 Ltmp478-Lfunc_begin48
	.byte	0
	.uleb128 Ltmp477-Lfunc_begin48
	.uleb128 Lfunc_end48-Ltmp477
	.byte	0
	.byte	0
Lcst_end10:
	.p2align	2

	.section	__TEXT,__text,regular,pure_instructions
	.globl	__ZN4core3ptr85drop_in_place$LT$alloc..raw_vec..RawVec$LT$ttf_parser..tables..cmap..Subtable$GT$$GT$17hcc9be61d7a824fd3E
	.p2align	4, 0x90
__ZN4core3ptr85drop_in_place$LT$alloc..raw_vec..RawVec$LT$ttf_parser..tables..cmap..Subtable$GT$$GT$17hcc9be61d7a824fd3E:
Lfunc_begin49:
	.loc	16 490 0 is_stmt 1
	.cfi_startproc
	pushq	%rbp
	.cfi_def_cfa_offset 16
	.cfi_offset %rbp, -16
	movq	%rsp, %rbp
	.cfi_def_cfa_register %rbp
	subq	$16, %rsp
	movq	%rdi, -8(%rbp)
Ltmp481:
	.loc	16 490 1 prologue_end
	callq	__ZN77_$LT$alloc..raw_vec..RawVec$LT$T$C$A$GT$$u20$as$u20$core..ops..drop..Drop$GT$4drop17ha3a1e9141e1117a7E
	addq	$16, %rsp
	popq	%rbp
	retq
Ltmp482:
Lfunc_end49:
	.cfi_endproc

	.globl	__ZN4core3ptr85drop_in_place$LT$alloc..raw_vec..RawVec$LT$ttf_parser..tables..kern..Subtable$GT$$GT$17h1dbb83dbc7afd955E
	.p2align	4, 0x90
__ZN4core3ptr85drop_in_place$LT$alloc..raw_vec..RawVec$LT$ttf_parser..tables..kern..Subtable$GT$$GT$17h1dbb83dbc7afd955E:
Lfunc_begin50:
	.loc	16 490 0
	.cfi_startproc
	pushq	%rbp
	.cfi_def_cfa_offset 16
	.cfi_offset %rbp, -16
	movq	%rsp, %rbp
	.cfi_def_cfa_register %rbp
	subq	$16, %rsp
	movq	%rdi, -8(%rbp)
Ltmp483:
	.loc	16 490 1 prologue_end
	callq	__ZN77_$LT$alloc..raw_vec..RawVec$LT$T$C$A$GT$$u20$as$u20$core..ops..drop..Drop$GT$4drop17hae07f836bc139d93E
	addq	$16, %rsp
	popq	%rbp
	retq
Ltmp484:
Lfunc_end50:
	.cfi_endproc

	.p2align	4, 0x90
__ZN4core4hint21unreachable_unchecked17h820649a5cea501a4E:
Lfunc_begin51:
	.file	26 "/rustc/2c8cc343237b8f7d5a3c3703e3a87f2eb2c54a74/library/core/src" "hint.rs"
	.loc	26 100 0
	.cfi_startproc
	pushq	%rbp
	.cfi_def_cfa_offset 16
	.cfi_offset %rbp, -16
	movq	%rsp, %rbp
	.cfi_def_cfa_register %rbp
Ltmp485:
	.loc	26 104 9 prologue_end
	ud2
Ltmp486:
Lfunc_end51:
	.cfi_endproc

	.globl	__ZN4core4iter6traits8iterator8Iterator3map17ha59fb12491f6f9d8E
	.p2align	4, 0x90
__ZN4core4iter6traits8iterator8Iterator3map17ha59fb12491f6f9d8E:
Lfunc_begin52:
	.file	27 "/rustc/2c8cc343237b8f7d5a3c3703e3a87f2eb2c54a74/library/core/src/iter/traits" "iterator.rs"
	.loc	27 782 0
	.cfi_startproc
	pushq	%rbp
	.cfi_def_cfa_offset 16
	.cfi_offset %rbp, -16
	movq	%rsp, %rbp
	.cfi_def_cfa_register %rbp
	subq	$16, %rsp
	movq	%rdi, -16(%rbp)
Ltmp487:
	.loc	27 787 9 prologue_end
	callq	__ZN4core4iter8adapters3map16Map$LT$I$C$F$GT$3new17h4ae378fcb66dd3cbE
	.loc	27 788 6
	addq	$16, %rsp
	popq	%rbp
	retq
Ltmp488:
Lfunc_end52:
	.cfi_endproc

	.globl	__ZN4core4iter6traits8iterator8Iterator3map17hf337ee7323a3e3dfE
	.p2align	4, 0x90
__ZN4core4iter6traits8iterator8Iterator3map17hf337ee7323a3e3dfE:
Lfunc_begin53:
	.loc	27 782 0
	.cfi_startproc
	pushq	%rbp
	.cfi_def_cfa_offset 16
	.cfi_offset %rbp, -16
	movq	%rsp, %rbp
	.cfi_def_cfa_register %rbp
	subq	$16, %rsp
	movq	%rdi, -16(%rbp)
Ltmp489:
	.loc	27 787 9 prologue_end
	callq	__ZN4core4iter8adapters3map16Map$LT$I$C$F$GT$3new17hff572770c18e83fcE
	.loc	27 788 6
	addq	$16, %rsp
	popq	%rbp
	retq
Ltmp490:
Lfunc_end53:
	.cfi_endproc

	.globl	__ZN4core4iter6traits8iterator8Iterator4find17h05483a518de142f0E
	.p2align	4, 0x90
__ZN4core4iter6traits8iterator8Iterator4find17h05483a518de142f0E:
Lfunc_begin54:
	.loc	27 2712 0
	.cfi_startproc
	pushq	%rbp
	.cfi_def_cfa_offset 16
	.cfi_offset %rbp, -16
	movq	%rsp, %rbp
	.cfi_def_cfa_register %rbp
	subq	$160, %rsp
	movq	%rdi, -152(%rbp)
	movq	%rdi, -144(%rbp)
	movq	%rsi, -24(%rbp)
	movq	%rdx, -16(%rbp)
Ltmp491:
	.loc	27 2724 33 prologue_end
	movq	%rdx, -8(%rbp)
Ltmp492:
	.loc	27 2719 13
	movq	%rdx, -32(%rbp)
Ltmp493:
	.loc	27 2724 9
	movq	-32(%rbp), %rdx
	leaq	-136(%rbp), %rdi
	callq	__ZN114_$LT$core..iter..adapters..flatten..FlatMap$LT$I$C$U$C$F$GT$$u20$as$u20$core..iter..traits..iterator..Iterator$GT$8try_fold17hf4456e97102ec2e6E
	movq	-152(%rbp), %rdi
	leaq	-136(%rbp), %rsi
	callq	__ZN4core3ops12control_flow24ControlFlow$LT$B$C$C$GT$11break_value17hb4e1c38117ffdf50E
	movq	-144(%rbp), %rax
	.loc	27 2725 6
	addq	$160, %rsp
	popq	%rbp
	retq
Ltmp494:
Lfunc_end54:
	.cfi_endproc

	.globl	__ZN4core4iter6traits8iterator8Iterator4find17hb8b6cecb9a3ff4d8E
	.p2align	4, 0x90
__ZN4core4iter6traits8iterator8Iterator4find17hb8b6cecb9a3ff4d8E:
Lfunc_begin55:
	.loc	27 2712 0
	.cfi_startproc
	pushq	%rbp
	.cfi_def_cfa_offset 16
	.cfi_offset %rbp, -16
	movq	%rsp, %rbp
	.cfi_def_cfa_register %rbp
	subq	$144, %rsp
	movq	%rdi, -136(%rbp)
	movq	%rdi, -128(%rbp)
	movq	%rsi, -24(%rbp)
	movq	%rdx, -16(%rbp)
Ltmp495:
	.loc	27 2724 33 prologue_end
	movq	%rdx, -8(%rbp)
Ltmp496:
	.loc	27 2719 13
	movq	%rdx, -32(%rbp)
Ltmp497:
	.loc	27 2724 9
	movq	-32(%rbp), %rdx
	leaq	-120(%rbp), %rdi
	callq	__ZN114_$LT$core..iter..adapters..flatten..FlatMap$LT$I$C$U$C$F$GT$$u20$as$u20$core..iter..traits..iterator..Iterator$GT$8try_fold17h71d78cd7b162be1fE
	movq	-136(%rbp), %rdi
	leaq	-120(%rbp), %rsi
	callq	__ZN4core3ops12control_flow24ControlFlow$LT$B$C$C$GT$11break_value17h57c41f0670ca003dE
	movq	-128(%rbp), %rax
	.loc	27 2725 6
	addq	$144, %rsp
	popq	%rbp
	retq
Ltmp498:
Lfunc_end55:
	.cfi_endproc

	.globl	__ZN4core4iter6traits8iterator8Iterator4find5check28_$u7b$$u7b$closure$u7d$$u7d$17h2129fe16d0bf506fE
	.p2align	4, 0x90
__ZN4core4iter6traits8iterator8Iterator4find5check28_$u7b$$u7b$closure$u7d$$u7d$17h2129fe16d0bf506fE:
Lfunc_begin56:
	.loc	27 2719 0
	.cfi_startproc
	.cfi_personality 155, _rust_eh_personality
	.cfi_lsda 16, Lexception11
	pushq	%rbp
	.cfi_def_cfa_offset 16
	.cfi_offset %rbp, -16
	movq	%rsp, %rbp
	.cfi_def_cfa_register %rbp
	subq	$176, %rsp
	movq	%rdx, -176(%rbp)
Ltmp502:
	movq	%rsi, -168(%rbp)
	movq	%rdi, %rax
	movq	-168(%rbp), %rdi
	movq	%rax, -160(%rbp)
	movq	%rax, -152(%rbp)
	movq	%rdi, -32(%rbp)
Ltmp503:
	.loc	27 2720 20 prologue_end
	movb	$1, -33(%rbp)
	movq	%rdx, -136(%rbp)
	movq	-136(%rbp), %rsi
Ltmp499:
	callq	__ZN4core3ops8function5impls79_$LT$impl$u20$core..ops..function..FnMut$LT$A$GT$$u20$for$u20$$RF$mut$u20$F$GT$8call_mut17ha381f9ba330035d1E
Ltmp504:
Ltmp500:
	.loc	27 0 20 is_stmt 0
	movb	%al, -137(%rbp)
Ltmp505:
	.loc	27 2720 20
	jmp	LBB56_3
Ltmp506:
LBB56_1:
	.loc	27 2719 13 is_stmt 1
	movq	-16(%rbp), %rdi
	callq	__Unwind_Resume
Ltmp507:
LBB56_2:
Ltmp501:
	.loc	27 0 13 is_stmt 0
	movq	%rax, %rcx
	movl	%edx, %eax
	movq	%rcx, -16(%rbp)
	movl	%eax, -8(%rbp)
	jmp	LBB56_1
Ltmp508:
LBB56_3:
	movb	-137(%rbp), %al
	.loc	27 2720 20 is_stmt 1
	testb	$1, %al
	jne	LBB56_5
	jmp	LBB56_4
Ltmp509:
LBB56_4:
	.loc	27 0 20 is_stmt 0
	movq	-160(%rbp), %rdi
	.loc	27 2720 67
	leaq	l___unnamed_5(%rip), %rsi
	movl	$88, %edx
	callq	_memcpy
	.loc	27 2720 17
	jmp	LBB56_6
Ltmp510:
LBB56_5:
	.loc	27 0 17
	movq	-176(%rbp), %rsi
	.loc	27 2720 55
	movb	$0, -33(%rbp)
	leaq	-128(%rbp), %rdi
	movl	$88, %edx
	callq	_memcpy
	movq	-160(%rbp), %rdi
	.loc	27 2720 36
	leaq	-128(%rbp), %rsi
	movl	$88, %edx
	callq	_memcpy
Ltmp511:
LBB56_6:
	.loc	27 2721 13 is_stmt 1
	testb	$1, -33(%rbp)
	jne	LBB56_8
Ltmp512:
LBB56_7:
	.loc	27 0 13 is_stmt 0
	movq	-152(%rbp), %rax
	.loc	27 2721 14
	addq	$176, %rsp
	popq	%rbp
	retq
Ltmp513:
LBB56_8:
	.loc	27 2721 13
	jmp	LBB56_7
Ltmp514:
Lfunc_end56:
	.cfi_endproc
	.section	__TEXT,__gcc_except_tab
	.p2align	2
GCC_except_table56:
Lexception11:
	.byte	255
	.byte	255
	.byte	1
	.uleb128 Lcst_end11-Lcst_begin11
Lcst_begin11:
	.uleb128 Ltmp499-Lfunc_begin56
	.uleb128 Ltmp500-Ltmp499
	.uleb128 Ltmp501-Lfunc_begin56
	.byte	0
	.uleb128 Ltmp500-Lfunc_begin56
	.uleb128 Lfunc_end56-Ltmp500
	.byte	0
	.byte	0
Lcst_end11:
	.p2align	2

	.section	__TEXT,__text,regular,pure_instructions
	.globl	__ZN4core4iter6traits8iterator8Iterator4find5check28_$u7b$$u7b$closure$u7d$$u7d$17hf0eeb90cf3b0fda8E
	.p2align	4, 0x90
__ZN4core4iter6traits8iterator8Iterator4find5check28_$u7b$$u7b$closure$u7d$$u7d$17hf0eeb90cf3b0fda8E:
Lfunc_begin57:
	.loc	27 2719 0 is_stmt 1
	.cfi_startproc
	.cfi_personality 155, _rust_eh_personality
	.cfi_lsda 16, Lexception12
	pushq	%rbp
	.cfi_def_cfa_offset 16
	.cfi_offset %rbp, -16
	movq	%rsp, %rbp
	.cfi_def_cfa_register %rbp
	subq	$192, %rsp
	movq	%rdx, -192(%rbp)
Ltmp518:
	movq	%rsi, -184(%rbp)
	movq	%rdi, %rax
	movq	-184(%rbp), %rdi
	movq	%rax, -176(%rbp)
	movq	%rax, -168(%rbp)
	movq	%rdi, -32(%rbp)
Ltmp519:
	.loc	27 2720 20 prologue_end
	movb	$1, -33(%rbp)
	movq	%rdx, -152(%rbp)
	movq	-152(%rbp), %rsi
Ltmp515:
	callq	__ZN4core3ops8function5impls79_$LT$impl$u20$core..ops..function..FnMut$LT$A$GT$$u20$for$u20$$RF$mut$u20$F$GT$8call_mut17h13a87145d2ce09c9E
Ltmp520:
Ltmp516:
	.loc	27 0 20 is_stmt 0
	movb	%al, -153(%rbp)
Ltmp521:
	.loc	27 2720 20
	jmp	LBB57_3
Ltmp522:
LBB57_1:
	.loc	27 2719 13 is_stmt 1
	movq	-16(%rbp), %rdi
	callq	__Unwind_Resume
Ltmp523:
LBB57_2:
Ltmp517:
	.loc	27 0 13 is_stmt 0
	movq	%rax, %rcx
	movl	%edx, %eax
	movq	%rcx, -16(%rbp)
	movl	%eax, -8(%rbp)
	jmp	LBB57_1
Ltmp524:
LBB57_3:
	movb	-153(%rbp), %al
	.loc	27 2720 20 is_stmt 1
	testb	$1, %al
	jne	LBB57_5
	jmp	LBB57_4
Ltmp525:
LBB57_4:
	.loc	27 0 20 is_stmt 0
	movq	-176(%rbp), %rdi
	.loc	27 2720 67
	leaq	l___unnamed_6(%rip), %rsi
	movl	$104, %edx
	callq	_memcpy
	.loc	27 2720 17
	jmp	LBB57_6
Ltmp526:
LBB57_5:
	.loc	27 0 17
	movq	-192(%rbp), %rsi
	.loc	27 2720 55
	movb	$0, -33(%rbp)
	leaq	-144(%rbp), %rdi
	movl	$104, %edx
	callq	_memcpy
	movq	-176(%rbp), %rdi
	.loc	27 2720 36
	leaq	-144(%rbp), %rsi
	movl	$104, %edx
	callq	_memcpy
Ltmp527:
LBB57_6:
	.loc	27 2721 13 is_stmt 1
	testb	$1, -33(%rbp)
	jne	LBB57_8
Ltmp528:
LBB57_7:
	.loc	27 0 13 is_stmt 0
	movq	-168(%rbp), %rax
	.loc	27 2721 14
	addq	$192, %rsp
	popq	%rbp
	retq
Ltmp529:
LBB57_8:
	.loc	27 2721 13
	jmp	LBB57_7
Ltmp530:
Lfunc_end57:
	.cfi_endproc
	.section	__TEXT,__gcc_except_tab
	.p2align	2
GCC_except_table57:
Lexception12:
	.byte	255
	.byte	255
	.byte	1
	.uleb128 Lcst_end12-Lcst_begin12
Lcst_begin12:
	.uleb128 Ltmp515-Lfunc_begin57
	.uleb128 Ltmp516-Ltmp515
	.uleb128 Ltmp517-Lfunc_begin57
	.byte	0
	.uleb128 Ltmp516-Lfunc_begin57
	.uleb128 Lfunc_end57-Ltmp516
	.byte	0
	.byte	0
Lcst_end12:
	.p2align	2

	.section	__TEXT,__text,regular,pure_instructions
	.globl	__ZN4core4iter6traits8iterator8Iterator4fuse17h130805b9abb41616E
	.p2align	4, 0x90
__ZN4core4iter6traits8iterator8Iterator4fuse17h130805b9abb41616E:
Lfunc_begin58:
	.loc	27 1623 0 is_stmt 1
	.cfi_startproc
	pushq	%rbp
	.cfi_def_cfa_offset 16
	.cfi_offset %rbp, -16
	movq	%rsp, %rbp
	.cfi_def_cfa_register %rbp
	subq	$16, %rsp
	movq	%rdi, -8(%rbp)
Ltmp531:
	.loc	27 1627 9 prologue_end
	callq	__ZN4core4iter8adapters4fuse13Fuse$LT$I$GT$3new17h79087799f3c740d1E
	.loc	27 1628 6
	addq	$16, %rsp
	popq	%rbp
	retq
Ltmp532:
Lfunc_end58:
	.cfi_endproc

	.globl	__ZN4core4iter6traits8iterator8Iterator4fuse17h18fce19ae0273199E
	.p2align	4, 0x90
__ZN4core4iter6traits8iterator8Iterator4fuse17h18fce19ae0273199E:
Lfunc_begin59:
	.loc	27 1623 0
	.cfi_startproc
	pushq	%rbp
	.cfi_def_cfa_offset 16
	.cfi_offset %rbp, -16
	movq	%rsp, %rbp
	.cfi_def_cfa_register %rbp
	subq	$16, %rsp
	movq	%rdi, -8(%rbp)
Ltmp533:
	.loc	27 1627 9 prologue_end
	callq	__ZN4core4iter8adapters4fuse13Fuse$LT$I$GT$3new17h7183166b2aeafec0E
	.loc	27 1628 6
	addq	$16, %rsp
	popq	%rbp
	retq
Ltmp534:
Lfunc_end59:
	.cfi_endproc

	.globl	__ZN4core4iter6traits8iterator8Iterator6filter17h0dab898d262d36f7E
	.p2align	4, 0x90
__ZN4core4iter6traits8iterator8Iterator6filter17h0dab898d262d36f7E:
Lfunc_begin60:
	.loc	27 902 0
	.cfi_startproc
	pushq	%rbp
	.cfi_def_cfa_offset 16
	.cfi_offset %rbp, -16
	movq	%rsp, %rbp
	.cfi_def_cfa_register %rbp
	subq	$128, %rsp
	movq	%rdi, -120(%rbp)
	movq	%rdi, -112(%rbp)
Ltmp535:
	.loc	27 907 21 prologue_end
	leaq	-104(%rbp), %rdi
	movl	$96, %edx
	callq	_memcpy
Ltmp536:
	.loc	27 0 21 is_stmt 0
	movq	-120(%rbp), %rdi
	.loc	27 907 9
	leaq	-104(%rbp), %rsi
	callq	__ZN4core4iter8adapters6filter19Filter$LT$I$C$P$GT$3new17haadfe823fcd974bbE
	movq	-112(%rbp), %rax
	.loc	27 908 6 is_stmt 1
	addq	$128, %rsp
	popq	%rbp
	retq
Ltmp537:
Lfunc_end60:
	.cfi_endproc

	.globl	__ZN4core4iter6traits8iterator8Iterator6filter17hbfe9288b625eef1eE
	.p2align	4, 0x90
__ZN4core4iter6traits8iterator8Iterator6filter17hbfe9288b625eef1eE:
Lfunc_begin61:
	.loc	27 902 0
	.cfi_startproc
	pushq	%rbp
	.cfi_def_cfa_offset 16
	.cfi_offset %rbp, -16
	movq	%rsp, %rbp
	.cfi_def_cfa_register %rbp
	subq	$128, %rsp
	movq	%rdi, -120(%rbp)
	movq	%rdi, -112(%rbp)
Ltmp538:
	.loc	27 907 21 prologue_end
	leaq	-104(%rbp), %rdi
	movl	$96, %edx
	callq	_memcpy
Ltmp539:
	.loc	27 0 21 is_stmt 0
	movq	-120(%rbp), %rdi
	.loc	27 907 9
	leaq	-104(%rbp), %rsi
	callq	__ZN4core4iter8adapters6filter19Filter$LT$I$C$P$GT$3new17h3939b13fcff5e3d8E
	movq	-112(%rbp), %rax
	.loc	27 908 6 is_stmt 1
	addq	$128, %rsp
	popq	%rbp
	retq
Ltmp540:
Lfunc_end61:
	.cfi_endproc

	.globl	__ZN4core4iter6traits8iterator8Iterator7collect17h0e37d2b3516de413E
	.p2align	4, 0x90
__ZN4core4iter6traits8iterator8Iterator7collect17h0e37d2b3516de413E:
Lfunc_begin62:
	.loc	27 1856 0
	.cfi_startproc
	pushq	%rbp
	.cfi_def_cfa_offset 16
	.cfi_offset %rbp, -16
	movq	%rsp, %rbp
	.cfi_def_cfa_register %rbp
	subq	$112, %rsp
	movq	%rdi, -112(%rbp)
	movq	%rdi, -104(%rbp)
Ltmp541:
	.loc	27 1860 33 prologue_end
	leaq	-96(%rbp), %rdi
	movl	$96, %edx
	callq	_memcpy
Ltmp542:
	.loc	27 0 33 is_stmt 0
	movq	-112(%rbp), %rdi
	.loc	27 1860 9
	leaq	-96(%rbp), %rsi
	callq	__ZN95_$LT$alloc..vec..Vec$LT$T$GT$$u20$as$u20$core..iter..traits..collect..FromIterator$LT$T$GT$$GT$9from_iter17h0c688dd0cf8ef15eE
	movq	-104(%rbp), %rax
	.loc	27 1861 6 is_stmt 1
	addq	$112, %rsp
	popq	%rbp
	retq
Ltmp543:
Lfunc_end62:
	.cfi_endproc

	.globl	__ZN4core4iter6traits8iterator8Iterator7collect17h457a5df6f2895fdfE
	.p2align	4, 0x90
__ZN4core4iter6traits8iterator8Iterator7collect17h457a5df6f2895fdfE:
Lfunc_begin63:
	.loc	27 1856 0
	.cfi_startproc
	pushq	%rbp
	.cfi_def_cfa_offset 16
	.cfi_offset %rbp, -16
	movq	%rsp, %rbp
	.cfi_def_cfa_register %rbp
	subq	$112, %rsp
	movq	%rdi, -112(%rbp)
	movq	%rdi, -104(%rbp)
Ltmp544:
	.loc	27 1860 33 prologue_end
	leaq	-96(%rbp), %rdi
	movl	$96, %edx
	callq	_memcpy
Ltmp545:
	.loc	27 0 33 is_stmt 0
	movq	-112(%rbp), %rdi
	.loc	27 1860 9
	leaq	-96(%rbp), %rsi
	callq	__ZN95_$LT$alloc..vec..Vec$LT$T$GT$$u20$as$u20$core..iter..traits..collect..FromIterator$LT$T$GT$$GT$9from_iter17h687bfa8f69a3f26aE
	movq	-104(%rbp), %rax
	.loc	27 1861 6 is_stmt 1
	addq	$112, %rsp
	popq	%rbp
	retq
Ltmp546:
Lfunc_end63:
	.cfi_endproc

	.globl	__ZN4core4iter6traits8iterator8Iterator8flat_map17h579509d6f2b86f1fE
	.p2align	4, 0x90
__ZN4core4iter6traits8iterator8Iterator8flat_map17h579509d6f2b86f1fE:
Lfunc_begin64:
	.loc	27 1471 0
	.cfi_startproc
	pushq	%rbp
	.cfi_def_cfa_offset 16
	.cfi_offset %rbp, -16
	movq	%rsp, %rbp
	.cfi_def_cfa_register %rbp
	subq	$32, %rsp
	movq	%rdi, %rax
	movq	%rax, -24(%rbp)
	movq	%rsi, -16(%rbp)
Ltmp547:
	.loc	27 1477 9 prologue_end
	callq	__ZN4core4iter8adapters7flatten24FlatMap$LT$I$C$U$C$F$GT$3new17h9b58b2ad950ebca8E
	movq	-24(%rbp), %rax
	.loc	27 1478 6
	addq	$32, %rsp
	popq	%rbp
	retq
Ltmp548:
Lfunc_end64:
	.cfi_endproc

	.globl	__ZN4core4iter6traits8iterator8Iterator8flat_map17hbc3a8b85b8c01e53E
	.p2align	4, 0x90
__ZN4core4iter6traits8iterator8Iterator8flat_map17hbc3a8b85b8c01e53E:
Lfunc_begin65:
	.loc	27 1471 0
	.cfi_startproc
	pushq	%rbp
	.cfi_def_cfa_offset 16
	.cfi_offset %rbp, -16
	movq	%rsp, %rbp
	.cfi_def_cfa_register %rbp
	subq	$32, %rsp
	movq	%rdi, %rax
	movq	%rax, -24(%rbp)
	movq	%rsi, -16(%rbp)
Ltmp549:
	.loc	27 1477 9 prologue_end
	callq	__ZN4core4iter8adapters7flatten24FlatMap$LT$I$C$U$C$F$GT$3new17ha1626a0e12ff46d2E
	movq	-24(%rbp), %rax
	.loc	27 1478 6
	addq	$32, %rsp
	popq	%rbp
	retq
Ltmp550:
Lfunc_end65:
	.cfi_endproc

	.globl	__ZN4core4iter6traits8iterator8Iterator8try_fold17h81b2ec4e79631abeE
	.p2align	4, 0x90
__ZN4core4iter6traits8iterator8Iterator8try_fold17h81b2ec4e79631abeE:
Lfunc_begin66:
	.loc	27 2254 0
	.cfi_startproc
	.cfi_personality 155, _rust_eh_personality
	.cfi_lsda 16, Lexception13
	pushq	%rbp
	.cfi_def_cfa_offset 16
	.cfi_offset %rbp, -16
	movq	%rsp, %rbp
	.cfi_def_cfa_register %rbp
	subq	$976, %rsp
	movq	%rsi, -920(%rbp)
	movq	%rdi, -912(%rbp)
	movq	%rdi, -904(%rbp)
	movq	%rdx, -896(%rbp)
	movq	%rsi, -48(%rbp)
Ltmp562:
	.loc	27 2260 25 prologue_end
	movb	$1, -49(%rbp)
LBB66_1:
Ltmp551:
	.loc	27 0 25 is_stmt 0
	movq	-920(%rbp), %rsi
	leaq	-888(%rbp), %rdi
Ltmp563:
	.loc	27 2261 29 is_stmt 1
	callq	__ZN98_$LT$ttf_parser..tables..cmap..SubtablesIter$u20$as$u20$core..iter..traits..iterator..Iterator$GT$4next17h3341682064a0c412E
Ltmp552:
	jmp	LBB66_4
Ltmp564:
LBB66_2:
	.loc	27 2265 5
	testb	$1, -49(%rbp)
	jne	LBB66_16
	jmp	LBB66_15
LBB66_3:
Ltmp561:
	.loc	27 0 5 is_stmt 0
	movq	%rax, %rcx
	movl	%edx, %eax
	movq	%rcx, -16(%rbp)
	movl	%eax, -8(%rbp)
	jmp	LBB66_2
LBB66_4:
Ltmp565:
	.loc	27 2261 19 is_stmt 1
	movl	$1, %eax
	xorl	%ecx, %ecx
	cmpq	$9, -888(%rbp)
	cmoveq	%rcx, %rax
	cmpq	$1, %rax
	jne	LBB66_6
	.loc	27 0 19 is_stmt 0
	movl	$13, %ecx
	movq	%rcx, -928(%rbp)
	leaq	-784(%rbp), %rdi
	movq	%rdi, -944(%rbp)
	leaq	-888(%rbp), %rsi
	.loc	27 2261 24
	rep;movsq (%rsi), %es:(%rdi)
	movq	-944(%rbp), %rsi
	movq	-928(%rbp), %rcx
	.loc	27 2262 23 is_stmt 1
	movb	$0, -49(%rbp)
	leaq	-368(%rbp), %rdi
	movq	%rdi, -936(%rbp)
	.loc	27 2262 30 is_stmt 0
	rep;movsq (%rsi), %es:(%rdi)
	movq	-936(%rbp), %rsi
	movq	-928(%rbp), %rcx
	leaq	-472(%rbp), %rdx
	.loc	27 2262 21
	movq	%rdx, %rdi
	rep;movsq (%rsi), %es:(%rdi)
Ltmp555:
	leaq	-576(%rbp), %rdi
	leaq	-896(%rbp), %rsi
	callq	__ZN4core3ops8function5impls79_$LT$impl$u20$core..ops..function..FnMut$LT$A$GT$$u20$for$u20$$RF$mut$u20$F$GT$8call_mut17he8fe350f1b39792fE
Ltmp556:
	jmp	LBB66_10
Ltmp566:
LBB66_6:
	.loc	27 2261 9 is_stmt 1
	jmp	LBB66_7
LBB66_7:
	.loc	27 0 9 is_stmt 0
	movq	-912(%rbp), %rdi
	.loc	27 2264 15 is_stmt 1
	movb	$0, -49(%rbp)
Ltmp553:
	callq	__ZN95_$LT$core..ops..control_flow..ControlFlow$LT$B$C$C$GT$$u20$as$u20$core..ops..try_trait..Try$GT$11from_output17h57b92220b1cf4294E
Ltmp554:
	jmp	LBB66_8
Ltmp567:
LBB66_8:
	.loc	27 2265 5
	jmp	LBB66_9
LBB66_9:
	.loc	27 0 5 is_stmt 0
	movq	-904(%rbp), %rax
	.loc	27 2265 6
	addq	$976, %rsp
	popq	%rbp
	retq
LBB66_10:
Ltmp557:
	.loc	27 0 6
	leaq	-680(%rbp), %rdi
	leaq	-576(%rbp), %rsi
Ltmp568:
	.loc	27 2262 21 is_stmt 1
	callq	__ZN95_$LT$core..ops..control_flow..ControlFlow$LT$B$C$C$GT$$u20$as$u20$core..ops..try_trait..Try$GT$6branch17h17d70f8693d22d3eE
Ltmp558:
	jmp	LBB66_11
LBB66_11:
	movl	$1, %eax
	xorl	%ecx, %ecx
	cmpq	$9, -680(%rbp)
	cmoveq	%rcx, %rax
	cmpq	$0, %rax
	jne	LBB66_13
	.loc	27 2262 13 is_stmt 0
	movb	$1, -49(%rbp)
Ltmp569:
	.loc	27 2261 9 is_stmt 1
	jmp	LBB66_1
LBB66_13:
	.loc	27 0 9 is_stmt 0
	movl	$13, %ecx
	movq	%rcx, -960(%rbp)
	leaq	-264(%rbp), %rdi
	movq	%rdi, -968(%rbp)
	leaq	-680(%rbp), %rsi
Ltmp570:
	.loc	27 2262 32 is_stmt 1
	rep;movsq (%rsi), %es:(%rdi)
	movq	-968(%rbp), %rsi
	movq	-960(%rbp), %rcx
	leaq	-160(%rbp), %rdi
	movq	%rdi, -952(%rbp)
Ltmp571:
	.loc	27 2262 32 is_stmt 0
	rep;movsq (%rsi), %es:(%rdi)
	movq	-952(%rbp), %rsi
	movq	-912(%rbp), %rdi
Ltmp559:
	.loc	27 2262 21
	callq	__ZN104_$LT$core..ops..control_flow..ControlFlow$LT$B$C$C$GT$$u20$as$u20$core..ops..try_trait..FromResidual$GT$13from_residual17h9b8bd3303019f9deE
Ltmp560:
	jmp	LBB66_14
Ltmp572:
LBB66_14:
	.loc	27 2265 5 is_stmt 1
	jmp	LBB66_9
LBB66_15:
	.loc	27 2254 5
	movq	-16(%rbp), %rdi
	callq	__Unwind_Resume
LBB66_16:
	.loc	27 2265 5
	jmp	LBB66_15
Ltmp573:
Lfunc_end66:
	.cfi_endproc
	.section	__TEXT,__gcc_except_tab
	.p2align	2
GCC_except_table66:
Lexception13:
	.byte	255
	.byte	255
	.byte	1
	.uleb128 Lcst_end13-Lcst_begin13
Lcst_begin13:
	.uleb128 Ltmp551-Lfunc_begin66
	.uleb128 Ltmp560-Ltmp551
	.uleb128 Ltmp561-Lfunc_begin66
	.byte	0
	.uleb128 Ltmp560-Lfunc_begin66
	.uleb128 Lfunc_end66-Ltmp560
	.byte	0
	.byte	0
Lcst_end13:
	.p2align	2

	.section	__TEXT,__text,regular,pure_instructions
	.globl	__ZN4core4iter6traits8iterator8Iterator8try_fold17h83febf112bf37c8eE
	.p2align	4, 0x90
__ZN4core4iter6traits8iterator8Iterator8try_fold17h83febf112bf37c8eE:
Lfunc_begin67:
	.loc	27 2254 0
	.cfi_startproc
	.cfi_personality 155, _rust_eh_personality
	.cfi_lsda 16, Lexception14
	pushq	%rbp
	.cfi_def_cfa_offset 16
	.cfi_offset %rbp, -16
	movq	%rsp, %rbp
	.cfi_def_cfa_register %rbp
	subq	$848, %rsp
	movq	%rsi, -792(%rbp)
	movq	%rdi, -784(%rbp)
	movq	%rdi, -776(%rbp)
	movq	%rdx, -768(%rbp)
	movq	%rsi, -48(%rbp)
Ltmp585:
	.loc	27 2260 25 prologue_end
	movb	$1, -49(%rbp)
LBB67_1:
Ltmp574:
	.loc	27 0 25 is_stmt 0
	movq	-792(%rbp), %rsi
	leaq	-760(%rbp), %rdi
Ltmp586:
	.loc	27 2261 29 is_stmt 1
	callq	__ZN98_$LT$ttf_parser..tables..kern..SubtablesIter$u20$as$u20$core..iter..traits..iterator..Iterator$GT$4next17hbff013e752756321E
Ltmp575:
	jmp	LBB67_4
Ltmp587:
LBB67_2:
	.loc	27 2265 5
	testb	$1, -49(%rbp)
	jne	LBB67_16
	jmp	LBB67_15
LBB67_3:
Ltmp584:
	.loc	27 0 5 is_stmt 0
	movq	%rax, %rcx
	movl	%edx, %eax
	movq	%rcx, -16(%rbp)
	movl	%eax, -8(%rbp)
	jmp	LBB67_2
LBB67_4:
Ltmp588:
	.loc	27 2261 19 is_stmt 1
	movl	$1, %eax
	xorl	%ecx, %ecx
	cmpq	$4, -760(%rbp)
	cmoveq	%rcx, %rax
	cmpq	$1, %rax
	jne	LBB67_6
	.loc	27 0 19 is_stmt 0
	movl	$11, %ecx
	movq	%rcx, -800(%rbp)
	leaq	-672(%rbp), %rdi
	movq	%rdi, -816(%rbp)
	leaq	-760(%rbp), %rsi
	.loc	27 2261 24
	rep;movsq (%rsi), %es:(%rdi)
	movq	-816(%rbp), %rsi
	movq	-800(%rbp), %rcx
	.loc	27 2262 23 is_stmt 1
	movb	$0, -49(%rbp)
	leaq	-320(%rbp), %rdi
	movq	%rdi, -808(%rbp)
	.loc	27 2262 30 is_stmt 0
	rep;movsq (%rsi), %es:(%rdi)
	movq	-808(%rbp), %rsi
	movq	-800(%rbp), %rcx
	leaq	-408(%rbp), %rdx
	.loc	27 2262 21
	movq	%rdx, %rdi
	rep;movsq (%rsi), %es:(%rdi)
Ltmp578:
	leaq	-496(%rbp), %rdi
	leaq	-768(%rbp), %rsi
	callq	__ZN4core3ops8function5impls79_$LT$impl$u20$core..ops..function..FnMut$LT$A$GT$$u20$for$u20$$RF$mut$u20$F$GT$8call_mut17h74e597154f1d6eedE
Ltmp579:
	jmp	LBB67_10
Ltmp589:
LBB67_6:
	.loc	27 2261 9 is_stmt 1
	jmp	LBB67_7
LBB67_7:
	.loc	27 0 9 is_stmt 0
	movq	-784(%rbp), %rdi
	.loc	27 2264 15 is_stmt 1
	movb	$0, -49(%rbp)
Ltmp576:
	callq	__ZN95_$LT$core..ops..control_flow..ControlFlow$LT$B$C$C$GT$$u20$as$u20$core..ops..try_trait..Try$GT$11from_output17haf23a94db338f283E
Ltmp577:
	jmp	LBB67_8
Ltmp590:
LBB67_8:
	.loc	27 2265 5
	jmp	LBB67_9
LBB67_9:
	.loc	27 0 5 is_stmt 0
	movq	-776(%rbp), %rax
	.loc	27 2265 6
	addq	$848, %rsp
	popq	%rbp
	retq
LBB67_10:
Ltmp580:
	.loc	27 0 6
	leaq	-584(%rbp), %rdi
	leaq	-496(%rbp), %rsi
Ltmp591:
	.loc	27 2262 21 is_stmt 1
	callq	__ZN95_$LT$core..ops..control_flow..ControlFlow$LT$B$C$C$GT$$u20$as$u20$core..ops..try_trait..Try$GT$6branch17he6e88a0994de3f97E
Ltmp581:
	jmp	LBB67_11
LBB67_11:
	movl	$1, %eax
	xorl	%ecx, %ecx
	cmpq	$4, -584(%rbp)
	cmoveq	%rcx, %rax
	cmpq	$0, %rax
	jne	LBB67_13
	.loc	27 2262 13 is_stmt 0
	movb	$1, -49(%rbp)
Ltmp592:
	.loc	27 2261 9 is_stmt 1
	jmp	LBB67_1
LBB67_13:
	.loc	27 0 9 is_stmt 0
	movl	$11, %ecx
	movq	%rcx, -832(%rbp)
	leaq	-232(%rbp), %rdi
	movq	%rdi, -840(%rbp)
	leaq	-584(%rbp), %rsi
Ltmp593:
	.loc	27 2262 32 is_stmt 1
	rep;movsq (%rsi), %es:(%rdi)
	movq	-840(%rbp), %rsi
	movq	-832(%rbp), %rcx
	leaq	-144(%rbp), %rdi
	movq	%rdi, -824(%rbp)
Ltmp594:
	.loc	27 2262 32 is_stmt 0
	rep;movsq (%rsi), %es:(%rdi)
	movq	-824(%rbp), %rsi
	movq	-784(%rbp), %rdi
Ltmp582:
	.loc	27 2262 21
	callq	__ZN104_$LT$core..ops..control_flow..ControlFlow$LT$B$C$C$GT$$u20$as$u20$core..ops..try_trait..FromResidual$GT$13from_residual17hfe6018700ca429c8E
Ltmp583:
	jmp	LBB67_14
Ltmp595:
LBB67_14:
	.loc	27 2265 5 is_stmt 1
	jmp	LBB67_9
LBB67_15:
	.loc	27 2254 5
	movq	-16(%rbp), %rdi
	callq	__Unwind_Resume
LBB67_16:
	.loc	27 2265 5
	jmp	LBB67_15
Ltmp596:
Lfunc_end67:
	.cfi_endproc
	.section	__TEXT,__gcc_except_tab
	.p2align	2
GCC_except_table67:
Lexception14:
	.byte	255
	.byte	255
	.byte	1
	.uleb128 Lcst_end14-Lcst_begin14
Lcst_begin14:
	.uleb128 Ltmp574-Lfunc_begin67
	.uleb128 Ltmp583-Ltmp574
	.uleb128 Ltmp584-Lfunc_begin67
	.byte	0
	.uleb128 Ltmp583-Lfunc_begin67
	.uleb128 Lfunc_end67-Ltmp583
	.byte	0
	.byte	0
Lcst_end14:
	.p2align	2

	.section	__TEXT,__text,regular,pure_instructions
	.globl	__ZN4core4iter6traits8iterator8Iterator8try_fold17hc206434e9abb83faE
	.p2align	4, 0x90
__ZN4core4iter6traits8iterator8Iterator8try_fold17hc206434e9abb83faE:
Lfunc_begin68:
	.loc	27 2254 0
	.cfi_startproc
	.cfi_personality 155, _rust_eh_personality
	.cfi_lsda 16, Lexception15
	pushq	%rbp
	.cfi_def_cfa_offset 16
	.cfi_offset %rbp, -16
	movq	%rsp, %rbp
	.cfi_def_cfa_register %rbp
	subq	$496, %rsp
	movq	%rdx, -464(%rbp)
Ltmp608:
	movq	%rsi, -456(%rbp)
	movq	%rdi, -448(%rbp)
	movq	%rdi, -440(%rbp)
	movq	%rsi, -56(%rbp)
Ltmp609:
	.loc	27 2260 25 prologue_end
	movb	$1, -57(%rbp)
Ltmp610:
LBB68_1:
Ltmp597:
	.loc	27 0 25 is_stmt 0
	movq	-456(%rbp), %rdi
Ltmp611:
	.loc	27 2261 29 is_stmt 1
	callq	__ZN86_$LT$core..option..Iter$LT$A$GT$$u20$as$u20$core..iter..traits..iterator..Iterator$GT$4next17hbbe727aa0da6f185E
Ltmp598:
	movq	%rax, -472(%rbp)
	jmp	LBB68_4
Ltmp612:
LBB68_2:
	.loc	27 2265 5
	testb	$1, -57(%rbp)
	jne	LBB68_16
	jmp	LBB68_15
Ltmp613:
LBB68_3:
Ltmp607:
	.loc	27 0 5 is_stmt 0
	movq	%rax, %rcx
	movl	%edx, %eax
	movq	%rcx, -24(%rbp)
	movl	%eax, -16(%rbp)
	jmp	LBB68_2
Ltmp614:
LBB68_4:
	movq	-472(%rbp), %rax
Ltmp615:
	.loc	27 2261 29 is_stmt 1
	movq	%rax, -432(%rbp)
	.loc	27 2261 19 is_stmt 0
	movq	-432(%rbp), %rdx
	movl	$1, %eax
	xorl	%ecx, %ecx
	cmpq	$0, %rdx
	cmoveq	%rcx, %rax
	cmpq	$1, %rax
	jne	LBB68_6
Ltmp616:
	.loc	27 0 19
	movq	-464(%rbp), %rsi
	.loc	27 2261 24
	movq	-432(%rbp), %rax
	movq	%rax, -8(%rbp)
	.loc	27 2262 23 is_stmt 1
	movb	$0, -57(%rbp)
	.loc	27 2262 21 is_stmt 0
	movq	%rax, -248(%rbp)
	movq	-248(%rbp), %rdx
Ltmp601:
	leaq	-336(%rbp), %rdi
	callq	__ZN4core4iter8adapters3map12map_try_fold28_$u7b$$u7b$closure$u7d$$u7d$17h52fdd723f7c0a351E
Ltmp602:
	jmp	LBB68_10
Ltmp617:
LBB68_6:
	.loc	27 2261 9 is_stmt 1
	jmp	LBB68_7
Ltmp618:
LBB68_7:
	.loc	27 0 9 is_stmt 0
	movq	-448(%rbp), %rdi
	.loc	27 2264 15 is_stmt 1
	movb	$0, -57(%rbp)
Ltmp599:
	callq	__ZN95_$LT$core..ops..control_flow..ControlFlow$LT$B$C$C$GT$$u20$as$u20$core..ops..try_trait..Try$GT$11from_output17haf23a94db338f283E
Ltmp600:
	jmp	LBB68_8
Ltmp619:
LBB68_8:
	.loc	27 2265 5
	jmp	LBB68_9
Ltmp620:
LBB68_9:
	.loc	27 0 5 is_stmt 0
	movq	-440(%rbp), %rax
	.loc	27 2265 6
	addq	$496, %rsp
	popq	%rbp
	retq
Ltmp621:
LBB68_10:
Ltmp603:
	.loc	27 0 6
	leaq	-424(%rbp), %rdi
	leaq	-336(%rbp), %rsi
Ltmp622:
	.loc	27 2262 21 is_stmt 1
	callq	__ZN95_$LT$core..ops..control_flow..ControlFlow$LT$B$C$C$GT$$u20$as$u20$core..ops..try_trait..Try$GT$6branch17he6e88a0994de3f97E
Ltmp604:
	jmp	LBB68_11
Ltmp623:
LBB68_11:
	movl	$1, %eax
	xorl	%ecx, %ecx
	cmpq	$4, -424(%rbp)
	cmoveq	%rcx, %rax
	cmpq	$0, %rax
	jne	LBB68_13
Ltmp624:
	.loc	27 2262 13 is_stmt 0
	movb	$1, -57(%rbp)
Ltmp625:
	.loc	27 2261 9 is_stmt 1
	jmp	LBB68_1
Ltmp626:
LBB68_13:
	.loc	27 0 9 is_stmt 0
	movl	$11, %ecx
	movq	%rcx, -488(%rbp)
	leaq	-240(%rbp), %rdi
	movq	%rdi, -496(%rbp)
	leaq	-424(%rbp), %rsi
Ltmp627:
	.loc	27 2262 32 is_stmt 1
	rep;movsq (%rsi), %es:(%rdi)
	movq	-496(%rbp), %rsi
	movq	-488(%rbp), %rcx
	leaq	-152(%rbp), %rdi
	movq	%rdi, -480(%rbp)
Ltmp628:
	.loc	27 2262 32 is_stmt 0
	rep;movsq (%rsi), %es:(%rdi)
	movq	-480(%rbp), %rsi
	movq	-448(%rbp), %rdi
Ltmp605:
	.loc	27 2262 21
	callq	__ZN104_$LT$core..ops..control_flow..ControlFlow$LT$B$C$C$GT$$u20$as$u20$core..ops..try_trait..FromResidual$GT$13from_residual17hfe6018700ca429c8E
Ltmp606:
	jmp	LBB68_14
Ltmp629:
LBB68_14:
	.loc	27 2265 5 is_stmt 1
	jmp	LBB68_9
Ltmp630:
LBB68_15:
	.loc	27 2254 5
	movq	-24(%rbp), %rdi
	callq	__Unwind_Resume
Ltmp631:
LBB68_16:
	.loc	27 2265 5
	jmp	LBB68_15
Ltmp632:
Lfunc_end68:
	.cfi_endproc
	.section	__TEXT,__gcc_except_tab
	.p2align	2
GCC_except_table68:
Lexception15:
	.byte	255
	.byte	255
	.byte	1
	.uleb128 Lcst_end15-Lcst_begin15
Lcst_begin15:
	.uleb128 Ltmp597-Lfunc_begin68
	.uleb128 Ltmp606-Ltmp597
	.uleb128 Ltmp607-Lfunc_begin68
	.byte	0
	.uleb128 Ltmp606-Lfunc_begin68
	.uleb128 Lfunc_end68-Ltmp606
	.byte	0
	.byte	0
Lcst_end15:
	.p2align	2

	.section	__TEXT,__text,regular,pure_instructions
	.globl	__ZN4core4iter6traits8iterator8Iterator8try_fold17hda0dedc2c85905f1E
	.p2align	4, 0x90
__ZN4core4iter6traits8iterator8Iterator8try_fold17hda0dedc2c85905f1E:
Lfunc_begin69:
	.loc	27 2254 0
	.cfi_startproc
	.cfi_personality 155, _rust_eh_personality
	.cfi_lsda 16, Lexception16
	pushq	%rbp
	.cfi_def_cfa_offset 16
	.cfi_offset %rbp, -16
	movq	%rsp, %rbp
	.cfi_def_cfa_register %rbp
	subq	$560, %rsp
	movq	%rdx, -528(%rbp)
Ltmp644:
	movq	%rsi, -520(%rbp)
	movq	%rdi, -512(%rbp)
	movq	%rdi, -504(%rbp)
	movq	%rsi, -56(%rbp)
Ltmp645:
	.loc	27 2260 25 prologue_end
	movb	$1, -57(%rbp)
Ltmp646:
LBB69_1:
Ltmp633:
	.loc	27 0 25 is_stmt 0
	movq	-520(%rbp), %rdi
Ltmp647:
	.loc	27 2261 29 is_stmt 1
	callq	__ZN86_$LT$core..option..Iter$LT$A$GT$$u20$as$u20$core..iter..traits..iterator..Iterator$GT$4next17h667dedbaa3e9f773E
Ltmp634:
	movq	%rax, -536(%rbp)
	jmp	LBB69_4
Ltmp648:
LBB69_2:
	.loc	27 2265 5
	testb	$1, -57(%rbp)
	jne	LBB69_16
	jmp	LBB69_15
Ltmp649:
LBB69_3:
Ltmp643:
	.loc	27 0 5 is_stmt 0
	movq	%rax, %rcx
	movl	%edx, %eax
	movq	%rcx, -24(%rbp)
	movl	%eax, -16(%rbp)
	jmp	LBB69_2
Ltmp650:
LBB69_4:
	movq	-536(%rbp), %rax
Ltmp651:
	.loc	27 2261 29 is_stmt 1
	movq	%rax, -496(%rbp)
	.loc	27 2261 19 is_stmt 0
	movq	-496(%rbp), %rdx
	movl	$1, %eax
	xorl	%ecx, %ecx
	cmpq	$0, %rdx
	cmoveq	%rcx, %rax
	cmpq	$1, %rax
	jne	LBB69_6
Ltmp652:
	.loc	27 0 19
	movq	-528(%rbp), %rsi
	.loc	27 2261 24
	movq	-496(%rbp), %rax
	movq	%rax, -8(%rbp)
	.loc	27 2262 23 is_stmt 1
	movb	$0, -57(%rbp)
	.loc	27 2262 21 is_stmt 0
	movq	%rax, -280(%rbp)
	movq	-280(%rbp), %rdx
Ltmp637:
	leaq	-384(%rbp), %rdi
	callq	__ZN4core4iter8adapters3map12map_try_fold28_$u7b$$u7b$closure$u7d$$u7d$17hf82e772a5ce46edcE
Ltmp638:
	jmp	LBB69_10
Ltmp653:
LBB69_6:
	.loc	27 2261 9 is_stmt 1
	jmp	LBB69_7
Ltmp654:
LBB69_7:
	.loc	27 0 9 is_stmt 0
	movq	-512(%rbp), %rdi
	.loc	27 2264 15 is_stmt 1
	movb	$0, -57(%rbp)
Ltmp635:
	callq	__ZN95_$LT$core..ops..control_flow..ControlFlow$LT$B$C$C$GT$$u20$as$u20$core..ops..try_trait..Try$GT$11from_output17h57b92220b1cf4294E
Ltmp636:
	jmp	LBB69_8
Ltmp655:
LBB69_8:
	.loc	27 2265 5
	jmp	LBB69_9
Ltmp656:
LBB69_9:
	.loc	27 0 5 is_stmt 0
	movq	-504(%rbp), %rax
	.loc	27 2265 6
	addq	$560, %rsp
	popq	%rbp
	retq
Ltmp657:
LBB69_10:
Ltmp639:
	.loc	27 0 6
	leaq	-488(%rbp), %rdi
	leaq	-384(%rbp), %rsi
Ltmp658:
	.loc	27 2262 21 is_stmt 1
	callq	__ZN95_$LT$core..ops..control_flow..ControlFlow$LT$B$C$C$GT$$u20$as$u20$core..ops..try_trait..Try$GT$6branch17h17d70f8693d22d3eE
Ltmp640:
	jmp	LBB69_11
Ltmp659:
LBB69_11:
	movl	$1, %eax
	xorl	%ecx, %ecx
	cmpq	$9, -488(%rbp)
	cmoveq	%rcx, %rax
	cmpq	$0, %rax
	jne	LBB69_13
Ltmp660:
	.loc	27 2262 13 is_stmt 0
	movb	$1, -57(%rbp)
Ltmp661:
	.loc	27 2261 9 is_stmt 1
	jmp	LBB69_1
Ltmp662:
LBB69_13:
	.loc	27 0 9 is_stmt 0
	movl	$13, %ecx
	movq	%rcx, -552(%rbp)
	leaq	-272(%rbp), %rdi
	movq	%rdi, -560(%rbp)
	leaq	-488(%rbp), %rsi
Ltmp663:
	.loc	27 2262 32 is_stmt 1
	rep;movsq (%rsi), %es:(%rdi)
	movq	-560(%rbp), %rsi
	movq	-552(%rbp), %rcx
	leaq	-168(%rbp), %rdi
	movq	%rdi, -544(%rbp)
Ltmp664:
	.loc	27 2262 32 is_stmt 0
	rep;movsq (%rsi), %es:(%rdi)
	movq	-544(%rbp), %rsi
	movq	-512(%rbp), %rdi
Ltmp641:
	.loc	27 2262 21
	callq	__ZN104_$LT$core..ops..control_flow..ControlFlow$LT$B$C$C$GT$$u20$as$u20$core..ops..try_trait..FromResidual$GT$13from_residual17h9b8bd3303019f9deE
Ltmp642:
	jmp	LBB69_14
Ltmp665:
LBB69_14:
	.loc	27 2265 5 is_stmt 1
	jmp	LBB69_9
Ltmp666:
LBB69_15:
	.loc	27 2254 5
	movq	-24(%rbp), %rdi
	callq	__Unwind_Resume
Ltmp667:
LBB69_16:
	.loc	27 2265 5
	jmp	LBB69_15
Ltmp668:
Lfunc_end69:
	.cfi_endproc
	.section	__TEXT,__gcc_except_tab
	.p2align	2
GCC_except_table69:
Lexception16:
	.byte	255
	.byte	255
	.byte	1
	.uleb128 Lcst_end16-Lcst_begin16
Lcst_begin16:
	.uleb128 Ltmp633-Lfunc_begin69
	.uleb128 Ltmp642-Ltmp633
	.uleb128 Ltmp643-Lfunc_begin69
	.byte	0
	.uleb128 Ltmp642-Lfunc_begin69
	.uleb128 Lfunc_end69-Ltmp642
	.byte	0
	.byte	0
Lcst_end16:
	.p2align	2

	.section	__TEXT,__text,regular,pure_instructions
	.globl	__ZN4core4iter6traits8iterator8Iterator9size_hint17h804dfdacaf3169aeE
	.p2align	4, 0x90
__ZN4core4iter6traits8iterator8Iterator9size_hint17h804dfdacaf3169aeE:
Lfunc_begin70:
	.loc	27 221 0
	.cfi_startproc
	pushq	%rbp
	.cfi_def_cfa_offset 16
	.cfi_offset %rbp, -16
	movq	%rsp, %rbp
	.cfi_def_cfa_register %rbp
	subq	$24, %rsp
	movq	%rdi, %rax
	movq	%rsi, -8(%rbp)
Ltmp669:
	.loc	27 222 13 prologue_end
	movq	$0, -24(%rbp)
	.loc	27 222 9 is_stmt 0
	movq	$0, (%rdi)
	movq	-24(%rbp), %rdx
	movq	-16(%rbp), %rcx
	movq	%rdx, 8(%rdi)
	movq	%rcx, 16(%rdi)
	.loc	27 223 6 is_stmt 1
	addq	$24, %rsp
	popq	%rbp
	retq
Ltmp670:
Lfunc_end70:
	.cfi_endproc

	.globl	__ZN4core4iter6traits8iterator8Iterator9size_hint17hb6591bbd031d9cf6E
	.p2align	4, 0x90
__ZN4core4iter6traits8iterator8Iterator9size_hint17hb6591bbd031d9cf6E:
Lfunc_begin71:
	.loc	27 221 0
	.cfi_startproc
	pushq	%rbp
	.cfi_def_cfa_offset 16
	.cfi_offset %rbp, -16
	movq	%rsp, %rbp
	.cfi_def_cfa_register %rbp
	subq	$24, %rsp
	movq	%rdi, %rax
	movq	%rsi, -8(%rbp)
Ltmp671:
	.loc	27 222 13 prologue_end
	movq	$0, -24(%rbp)
	.loc	27 222 9 is_stmt 0
	movq	$0, (%rdi)
	movq	-24(%rbp), %rdx
	movq	-16(%rbp), %rcx
	movq	%rdx, 8(%rdi)
	movq	%rcx, 16(%rdi)
	.loc	27 223 6 is_stmt 1
	addq	$24, %rsp
	popq	%rbp
	retq
Ltmp672:
Lfunc_end71:
	.cfi_endproc

	.globl	__ZN4core4iter8adapters3map12map_try_fold17h4ed34e8b92c6fd40E
	.p2align	4, 0x90
__ZN4core4iter8adapters3map12map_try_fold17h4ed34e8b92c6fd40E:
Lfunc_begin72:
	.loc	1 87 0
	.cfi_startproc
	pushq	%rbp
	.cfi_def_cfa_offset 16
	.cfi_offset %rbp, -16
	movq	%rsp, %rbp
	.cfi_def_cfa_register %rbp
	subq	$24, %rsp
	movq	%rdi, %rax
	movq	%rsi, -24(%rbp)
	movq	%rdx, -16(%rbp)
	movq	%rcx, -8(%rbp)
Ltmp673:
	.loc	1 91 5 prologue_end
	movq	%rdx, (%rdi)
	movq	%rcx, 8(%rdi)
	movq	%rsi, 16(%rdi)
	.loc	1 92 2
	addq	$24, %rsp
	popq	%rbp
	retq
Ltmp674:
Lfunc_end72:
	.cfi_endproc

	.globl	__ZN4core4iter8adapters3map12map_try_fold17hdef2d64994640186E
	.p2align	4, 0x90
__ZN4core4iter8adapters3map12map_try_fold17hdef2d64994640186E:
Lfunc_begin73:
	.loc	1 87 0
	.cfi_startproc
	pushq	%rbp
	.cfi_def_cfa_offset 16
	.cfi_offset %rbp, -16
	movq	%rsp, %rbp
	.cfi_def_cfa_register %rbp
	subq	$24, %rsp
	movq	%rdi, %rax
	movq	%rsi, -24(%rbp)
	movq	%rdx, -16(%rbp)
	movq	%rcx, -8(%rbp)
Ltmp675:
	.loc	1 91 5 prologue_end
	movq	%rdx, (%rdi)
	movq	%rcx, 8(%rdi)
	movq	%rsi, 16(%rdi)
	.loc	1 92 2
	addq	$24, %rsp
	popq	%rbp
	retq
Ltmp676:
Lfunc_end73:
	.cfi_endproc

	.globl	__ZN4core4iter8adapters3map12map_try_fold28_$u7b$$u7b$closure$u7d$$u7d$17h52fdd723f7c0a351E
	.p2align	4, 0x90
__ZN4core4iter8adapters3map12map_try_fold28_$u7b$$u7b$closure$u7d$$u7d$17h52fdd723f7c0a351E:
Lfunc_begin74:
	.loc	1 91 0
	.cfi_startproc
	.cfi_personality 155, _rust_eh_personality
	.cfi_lsda 16, Lexception17
	pushq	%rbp
	.cfi_def_cfa_offset 16
	.cfi_offset %rbp, -16
	movq	%rsp, %rbp
	.cfi_def_cfa_register %rbp
	subq	$128, %rsp
	movq	%rsi, -128(%rbp)
	movq	%rdi, -120(%rbp)
	movq	%rdi, -112(%rbp)
	movq	%rsi, -40(%rbp)
	movq	%rdx, -24(%rbp)
Ltmp682:
	.loc	1 91 23 prologue_end
	movb	$1, -41(%rbp)
	.loc	1 91 28 is_stmt 0
	movq	16(%rsi), %rsi
	movq	%rdx, -56(%rbp)
	movq	-56(%rbp), %rdx
Ltmp677:
	leaq	-80(%rbp), %rdi
	callq	__ZN109_$LT$owned_ttf_parser..preparse..FaceSubtables$u20$as$u20$core..convert..From$LT$$RF$ttf_parser..Face$GT$$GT$4from28_$u7b$$u7b$closure$u7d$$u7d$17ha3e886897f075611E
Ltmp678:
	jmp	LBB74_3
LBB74_1:
	.loc	1 91 34
	testb	$1, -41(%rbp)
	jne	LBB74_6
	jmp	LBB74_5
LBB74_2:
Ltmp681:
	.loc	1 0 34
	movq	%rax, %rcx
	movl	%edx, %eax
	movq	%rcx, -16(%rbp)
	movl	%eax, -8(%rbp)
	jmp	LBB74_1
LBB74_3:
	movq	-128(%rbp), %rsi
	movq	-120(%rbp), %rdi
	.loc	1 91 21
	movb	$0, -41(%rbp)
	movq	-64(%rbp), %rax
	movq	%rax, -88(%rbp)
	movq	-80(%rbp), %rax
	movq	-72(%rbp), %rcx
	movq	%rcx, -96(%rbp)
	movq	%rax, -104(%rbp)
Ltmp679:
	leaq	-104(%rbp), %rdx
	callq	__ZN4core4iter8adapters7flatten26FlattenCompat$LT$I$C$U$GT$13iter_try_fold7flatten28_$u7b$$u7b$closure$u7d$$u7d$17ha8ca6d356126ae6dE
Ltmp680:
	jmp	LBB74_4
LBB74_4:
	.loc	1 0 21
	movq	-112(%rbp), %rax
	.loc	1 91 35
	addq	$128, %rsp
	popq	%rbp
	retq
LBB74_5:
	.loc	1 91 5
	movq	-16(%rbp), %rdi
	callq	__Unwind_Resume
LBB74_6:
	.loc	1 91 34
	jmp	LBB74_5
Ltmp683:
Lfunc_end74:
	.cfi_endproc
	.section	__TEXT,__gcc_except_tab
	.p2align	2
GCC_except_table74:
Lexception17:
	.byte	255
	.byte	255
	.byte	1
	.uleb128 Lcst_end17-Lcst_begin17
Lcst_begin17:
	.uleb128 Ltmp677-Lfunc_begin74
	.uleb128 Ltmp680-Ltmp677
	.uleb128 Ltmp681-Lfunc_begin74
	.byte	0
	.uleb128 Ltmp680-Lfunc_begin74
	.uleb128 Lfunc_end74-Ltmp680
	.byte	0
	.byte	0
Lcst_end17:
	.p2align	2

	.section	__TEXT,__text,regular,pure_instructions
	.globl	__ZN4core4iter8adapters3map12map_try_fold28_$u7b$$u7b$closure$u7d$$u7d$17hf82e772a5ce46edcE
	.p2align	4, 0x90
__ZN4core4iter8adapters3map12map_try_fold28_$u7b$$u7b$closure$u7d$$u7d$17hf82e772a5ce46edcE:
Lfunc_begin75:
	.loc	1 91 0 is_stmt 1
	.cfi_startproc
	.cfi_personality 155, _rust_eh_personality
	.cfi_lsda 16, Lexception18
	pushq	%rbp
	.cfi_def_cfa_offset 16
	.cfi_offset %rbp, -16
	movq	%rsp, %rbp
	.cfi_def_cfa_register %rbp
	subq	$144, %rsp
	movq	%rsi, -144(%rbp)
	movq	%rdi, -136(%rbp)
	movq	%rdi, -128(%rbp)
	movq	%rsi, -40(%rbp)
	movq	%rdx, -24(%rbp)
Ltmp689:
	.loc	1 91 23 prologue_end
	movb	$1, -41(%rbp)
	.loc	1 91 28 is_stmt 0
	movq	16(%rsi), %rsi
	movq	%rdx, -56(%rbp)
	movq	-56(%rbp), %rdx
Ltmp684:
	leaq	-88(%rbp), %rdi
	callq	__ZN109_$LT$owned_ttf_parser..preparse..FaceSubtables$u20$as$u20$core..convert..From$LT$$RF$ttf_parser..Face$GT$$GT$4from28_$u7b$$u7b$closure$u7d$$u7d$17hb343ea4d52fbe2e5E
Ltmp685:
	jmp	LBB75_3
LBB75_1:
	.loc	1 91 34
	testb	$1, -41(%rbp)
	jne	LBB75_6
	jmp	LBB75_5
LBB75_2:
Ltmp688:
	.loc	1 0 34
	movq	%rax, %rcx
	movl	%edx, %eax
	movq	%rcx, -16(%rbp)
	movl	%eax, -8(%rbp)
	jmp	LBB75_1
LBB75_3:
	movq	-144(%rbp), %rsi
	movq	-136(%rbp), %rdi
	.loc	1 91 21
	movb	$0, -41(%rbp)
	movq	-64(%rbp), %rax
	movq	%rax, -96(%rbp)
	movq	-72(%rbp), %rax
	movq	%rax, -104(%rbp)
	movq	-88(%rbp), %rax
	movq	-80(%rbp), %rcx
	movq	%rcx, -112(%rbp)
	movq	%rax, -120(%rbp)
Ltmp686:
	leaq	-120(%rbp), %rdx
	callq	__ZN4core4iter8adapters7flatten26FlattenCompat$LT$I$C$U$GT$13iter_try_fold7flatten28_$u7b$$u7b$closure$u7d$$u7d$17h4ea05d9d4ac942f2E
Ltmp687:
	jmp	LBB75_4
LBB75_4:
	.loc	1 0 21
	movq	-128(%rbp), %rax
	.loc	1 91 35
	addq	$144, %rsp
	popq	%rbp
	retq
LBB75_5:
	.loc	1 91 5
	movq	-16(%rbp), %rdi
	callq	__Unwind_Resume
LBB75_6:
	.loc	1 91 34
	jmp	LBB75_5
Ltmp690:
Lfunc_end75:
	.cfi_endproc
	.section	__TEXT,__gcc_except_tab
	.p2align	2
GCC_except_table75:
Lexception18:
	.byte	255
	.byte	255
	.byte	1
	.uleb128 Lcst_end18-Lcst_begin18
Lcst_begin18:
	.uleb128 Ltmp684-Lfunc_begin75
	.uleb128 Ltmp687-Ltmp684
	.uleb128 Ltmp688-Lfunc_begin75
	.byte	0
	.uleb128 Ltmp687-Lfunc_begin75
	.uleb128 Lfunc_end75-Ltmp687
	.byte	0
	.byte	0
Lcst_end18:
	.p2align	2

	.section	__TEXT,__text,regular,pure_instructions
	.globl	__ZN4core4iter8adapters3map16Map$LT$I$C$F$GT$3new17h4ae378fcb66dd3cbE
	.p2align	4, 0x90
__ZN4core4iter8adapters3map16Map$LT$I$C$F$GT$3new17h4ae378fcb66dd3cbE:
Lfunc_begin76:
	.loc	1 68 0 is_stmt 1
	.cfi_startproc
	pushq	%rbp
	.cfi_def_cfa_offset 16
	.cfi_offset %rbp, -16
	movq	%rsp, %rbp
	.cfi_def_cfa_register %rbp
	subq	$24, %rsp
	movq	%rdi, -16(%rbp)
Ltmp691:
	.loc	1 69 9 prologue_end
	movq	%rdi, -24(%rbp)
	.loc	1 70 6
	movq	-24(%rbp), %rax
	addq	$24, %rsp
	popq	%rbp
	retq
Ltmp692:
Lfunc_end76:
	.cfi_endproc

	.globl	__ZN4core4iter8adapters3map16Map$LT$I$C$F$GT$3new17hff572770c18e83fcE
	.p2align	4, 0x90
__ZN4core4iter8adapters3map16Map$LT$I$C$F$GT$3new17hff572770c18e83fcE:
Lfunc_begin77:
	.loc	1 68 0
	.cfi_startproc
	pushq	%rbp
	.cfi_def_cfa_offset 16
	.cfi_offset %rbp, -16
	movq	%rsp, %rbp
	.cfi_def_cfa_register %rbp
	subq	$24, %rsp
	movq	%rdi, -16(%rbp)
Ltmp693:
	.loc	1 69 9 prologue_end
	movq	%rdi, -24(%rbp)
	.loc	1 70 6
	movq	-24(%rbp), %rax
	addq	$24, %rsp
	popq	%rbp
	retq
Ltmp694:
Lfunc_end77:
	.cfi_endproc

	.globl	__ZN4core4iter8adapters4fuse13Fuse$LT$I$GT$3new17h7183166b2aeafec0E
	.p2align	4, 0x90
__ZN4core4iter8adapters4fuse13Fuse$LT$I$GT$3new17h7183166b2aeafec0E:
Lfunc_begin78:
	.loc	3 24 0
	.cfi_startproc
	pushq	%rbp
	.cfi_def_cfa_offset 16
	.cfi_offset %rbp, -16
	movq	%rsp, %rbp
	.cfi_def_cfa_register %rbp
	subq	$40, %rsp
	movq	%rdi, -8(%rbp)
Ltmp695:
	.loc	3 25 22 prologue_end
	movq	%rdi, -16(%rbp)
	movq	$1, -24(%rbp)
	.loc	3 25 9 is_stmt 0
	movq	-24(%rbp), %rcx
	movq	-16(%rbp), %rax
	movq	%rcx, -40(%rbp)
	movq	%rax, -32(%rbp)
	.loc	3 26 6 is_stmt 1
	movq	-40(%rbp), %rax
	movq	-32(%rbp), %rdx
	addq	$40, %rsp
	popq	%rbp
	retq
Ltmp696:
Lfunc_end78:
	.cfi_endproc

	.globl	__ZN4core4iter8adapters4fuse13Fuse$LT$I$GT$3new17h79087799f3c740d1E
	.p2align	4, 0x90
__ZN4core4iter8adapters4fuse13Fuse$LT$I$GT$3new17h79087799f3c740d1E:
Lfunc_begin79:
	.loc	3 24 0
	.cfi_startproc
	pushq	%rbp
	.cfi_def_cfa_offset 16
	.cfi_offset %rbp, -16
	movq	%rsp, %rbp
	.cfi_def_cfa_register %rbp
	subq	$40, %rsp
	movq	%rdi, -8(%rbp)
Ltmp697:
	.loc	3 25 22 prologue_end
	movq	%rdi, -16(%rbp)
	movq	$1, -24(%rbp)
	.loc	3 25 9 is_stmt 0
	movq	-24(%rbp), %rcx
	movq	-16(%rbp), %rax
	movq	%rcx, -40(%rbp)
	movq	%rax, -32(%rbp)
	.loc	3 26 6 is_stmt 1
	movq	-40(%rbp), %rax
	movq	-32(%rbp), %rdx
	addq	$40, %rsp
	popq	%rbp
	retq
Ltmp698:
Lfunc_end79:
	.cfi_endproc

	.globl	__ZN4core4iter8adapters6filter19Filter$LT$I$C$P$GT$3new17h3939b13fcff5e3d8E
	.p2align	4, 0x90
__ZN4core4iter8adapters6filter19Filter$LT$I$C$P$GT$3new17h3939b13fcff5e3d8E:
Lfunc_begin80:
	.loc	4 21 0
	.cfi_startproc
	pushq	%rbp
	.cfi_def_cfa_offset 16
	.cfi_offset %rbp, -16
	movq	%rsp, %rbp
	.cfi_def_cfa_register %rbp
	subq	$128, %rsp
	movq	%rdi, -120(%rbp)
	movq	%rdi, -112(%rbp)
Ltmp699:
	.loc	4 22 18 prologue_end
	leaq	-104(%rbp), %rdi
	movl	$96, %edx
	callq	_memcpy
Ltmp700:
	.loc	4 0 18 is_stmt 0
	movq	-120(%rbp), %rdi
	.loc	4 22 9
	leaq	-104(%rbp), %rsi
	movl	$96, %edx
	callq	_memcpy
	movq	-112(%rbp), %rax
	.loc	4 23 6 is_stmt 1
	addq	$128, %rsp
	popq	%rbp
	retq
Ltmp701:
Lfunc_end80:
	.cfi_endproc

	.globl	__ZN4core4iter8adapters6filter19Filter$LT$I$C$P$GT$3new17haadfe823fcd974bbE
	.p2align	4, 0x90
__ZN4core4iter8adapters6filter19Filter$LT$I$C$P$GT$3new17haadfe823fcd974bbE:
Lfunc_begin81:
	.loc	4 21 0
	.cfi_startproc
	pushq	%rbp
	.cfi_def_cfa_offset 16
	.cfi_offset %rbp, -16
	movq	%rsp, %rbp
	.cfi_def_cfa_register %rbp
	subq	$128, %rsp
	movq	%rdi, -120(%rbp)
	movq	%rdi, -112(%rbp)
Ltmp702:
	.loc	4 22 18 prologue_end
	leaq	-104(%rbp), %rdi
	movl	$96, %edx
	callq	_memcpy
Ltmp703:
	.loc	4 0 18 is_stmt 0
	movq	-120(%rbp), %rdi
	.loc	4 22 9
	leaq	-104(%rbp), %rsi
	movl	$96, %edx
	callq	_memcpy
	movq	-112(%rbp), %rax
	.loc	4 23 6 is_stmt 1
	addq	$128, %rsp
	popq	%rbp
	retq
Ltmp704:
Lfunc_end81:
	.cfi_endproc

	.globl	__ZN4core4iter8adapters7flatten24FlatMap$LT$I$C$U$C$F$GT$3new17h9b58b2ad950ebca8E
	.p2align	4, 0x90
__ZN4core4iter8adapters7flatten24FlatMap$LT$I$C$U$C$F$GT$3new17h9b58b2ad950ebca8E:
Lfunc_begin82:
	.loc	17 17 0
	.cfi_startproc
	pushq	%rbp
	.cfi_def_cfa_offset 16
	.cfi_offset %rbp, -16
	movq	%rsp, %rbp
	.cfi_def_cfa_register %rbp
	subq	$144, %rsp
	movq	%rsi, -136(%rbp)
	movq	%rdi, %rax
	movq	-136(%rbp), %rdi
	movq	%rax, -128(%rbp)
	movq	%rax, -120(%rbp)
	movq	%rdi, -16(%rbp)
Ltmp705:
	.loc	17 18 45 prologue_end
	callq	__ZN4core4iter6traits8iterator8Iterator3map17hf337ee7323a3e3dfE
	movq	%rax, %rsi
	.loc	17 18 26 is_stmt 0
	leaq	-112(%rbp), %rdi
	callq	__ZN4core4iter8adapters7flatten26FlattenCompat$LT$I$C$U$GT$3new17h4b6a1e6f85c9d4aeE
	movq	-128(%rbp), %rdi
	.loc	17 18 9
	leaq	-112(%rbp), %rsi
	movl	$96, %edx
	callq	_memcpy
	movq	-120(%rbp), %rax
	.loc	17 19 6 is_stmt 1
	addq	$144, %rsp
	popq	%rbp
	retq
Ltmp706:
Lfunc_end82:
	.cfi_endproc

	.globl	__ZN4core4iter8adapters7flatten24FlatMap$LT$I$C$U$C$F$GT$3new17ha1626a0e12ff46d2E
	.p2align	4, 0x90
__ZN4core4iter8adapters7flatten24FlatMap$LT$I$C$U$C$F$GT$3new17ha1626a0e12ff46d2E:
Lfunc_begin83:
	.loc	17 17 0
	.cfi_startproc
	pushq	%rbp
	.cfi_def_cfa_offset 16
	.cfi_offset %rbp, -16
	movq	%rsp, %rbp
	.cfi_def_cfa_register %rbp
	subq	$144, %rsp
	movq	%rsi, -136(%rbp)
	movq	%rdi, %rax
	movq	-136(%rbp), %rdi
	movq	%rax, -128(%rbp)
	movq	%rax, -120(%rbp)
	movq	%rdi, -16(%rbp)
Ltmp707:
	.loc	17 18 45 prologue_end
	callq	__ZN4core4iter6traits8iterator8Iterator3map17ha59fb12491f6f9d8E
	movq	%rax, %rsi
	.loc	17 18 26 is_stmt 0
	leaq	-112(%rbp), %rdi
	callq	__ZN4core4iter8adapters7flatten26FlattenCompat$LT$I$C$U$GT$3new17h6b27c50653985e52E
	movq	-128(%rbp), %rdi
	.loc	17 18 9
	leaq	-112(%rbp), %rsi
	movl	$96, %edx
	callq	_memcpy
	movq	-120(%rbp), %rax
	.loc	17 19 6 is_stmt 1
	addq	$144, %rsp
	popq	%rbp
	retq
Ltmp708:
Lfunc_end83:
	.cfi_endproc

	.globl	__ZN4core4iter8adapters7flatten26FlattenCompat$LT$I$C$U$GT$13iter_try_fold17h0f861d82675b6bccE
	.p2align	4, 0x90
__ZN4core4iter8adapters7flatten26FlattenCompat$LT$I$C$U$GT$13iter_try_fold17h0f861d82675b6bccE:
Lfunc_begin84:
	.loc	17 362 0
	.cfi_startproc
	.cfi_personality 155, _rust_eh_personality
	.cfi_lsda 16, Lexception19
	pushq	%rbp
	.cfi_def_cfa_offset 16
	.cfi_offset %rbp, -16
	movq	%rsp, %rbp
	.cfi_def_cfa_register %rbp
	subq	$1440, %rsp
	movq	%rsi, -1360(%rbp)
	movq	%rdi, -1352(%rbp)
	movq	%rdi, -1344(%rbp)
	movq	%rdx, -1328(%rbp)
	movq	%rsi, -104(%rbp)
Ltmp731:
	.loc	17 375 9 prologue_end
	movb	$1, -105(%rbp)
Ltmp732:
	.loc	17 375 29 is_stmt 0
	movq	%rsi, %rax
	addq	$16, %rax
	movq	%rax, -1336(%rbp)
	.loc	17 375 16
	movl	$1, %eax
	xorl	%ecx, %ecx
	cmpb	$2, 48(%rsi)
	cmoveq	%rcx, %rax
	cmpq	$1, %rax
	jne	LBB84_2
	.loc	17 0 16
	movq	-1336(%rbp), %rax
	.loc	17 375 21
	movq	%rax, -56(%rbp)
	.loc	17 376 24 is_stmt 1
	movb	$0, -105(%rbp)
	.loc	17 376 19 is_stmt 0
	movq	%rax, -1144(%rbp)
	movq	-1144(%rbp), %rdx
Ltmp709:
	leaq	-1232(%rbp), %rdi
	leaq	-1328(%rbp), %rsi
	callq	__ZN116_$LT$core..iter..adapters..flatten..FlattenCompat$LT$I$C$U$GT$$u20$as$u20$core..iter..traits..iterator..Iterator$GT$8try_fold7flatten28_$u7b$$u7b$closure$u7d$$u7d$17h2c3c8873e20114d4E
Ltmp710:
	jmp	LBB84_5
Ltmp733:
LBB84_2:
	.loc	17 378 26 is_stmt 1
	movb	$2, -928(%rbp)
	.loc	17 378 9 is_stmt 0
	jmp	LBB84_11
LBB84_3:
	.loc	17 389 5 is_stmt 1
	jmp	LBB84_31
LBB84_4:
Ltmp730:
	.loc	17 0 5 is_stmt 0
	movq	%rax, %rcx
	movl	%edx, %eax
	movq	%rcx, -48(%rbp)
	movl	%eax, -40(%rbp)
	jmp	LBB84_3
LBB84_5:
Ltmp711:
	leaq	-1320(%rbp), %rdi
	leaq	-1232(%rbp), %rsi
Ltmp734:
	.loc	17 376 19 is_stmt 1
	callq	__ZN95_$LT$core..ops..control_flow..ControlFlow$LT$B$C$C$GT$$u20$as$u20$core..ops..try_trait..Try$GT$6branch17he6e88a0994de3f97E
Ltmp712:
	jmp	LBB84_6
LBB84_6:
	movl	$1, %eax
	xorl	%ecx, %ecx
	cmpq	$4, -1320(%rbp)
	cmoveq	%rcx, %rax
	cmpq	$0, %rax
	jne	LBB84_8
	.loc	17 376 13 is_stmt 0
	movb	$1, -105(%rbp)
Ltmp735:
	.loc	17 375 9 is_stmt 1
	jmp	LBB84_2
LBB84_8:
	.loc	17 0 9 is_stmt 0
	movl	$11, %ecx
	movq	%rcx, -1376(%rbp)
	leaq	-1136(%rbp), %rdi
	movq	%rdi, -1384(%rbp)
	leaq	-1320(%rbp), %rsi
Ltmp736:
	.loc	17 376 34 is_stmt 1
	rep;movsq (%rsi), %es:(%rdi)
	movq	-1384(%rbp), %rsi
	movq	-1376(%rbp), %rcx
	leaq	-1048(%rbp), %rdi
	movq	%rdi, -1368(%rbp)
Ltmp737:
	.loc	17 376 34 is_stmt 0
	rep;movsq (%rsi), %es:(%rdi)
	movq	-1368(%rbp), %rsi
	movq	-1352(%rbp), %rdi
Ltmp713:
	.loc	17 376 19
	callq	__ZN104_$LT$core..ops..control_flow..ControlFlow$LT$B$C$C$GT$$u20$as$u20$core..ops..try_trait..FromResidual$GT$13from_residual17hfe6018700ca429c8E
Ltmp714:
	jmp	LBB84_9
Ltmp738:
LBB84_9:
	.loc	19 1 1 is_stmt 1
	jmp	LBB84_10
LBB84_10:
	.loc	17 389 5
	jmp	LBB84_28
LBB84_11:
	.loc	17 0 5 is_stmt 0
	movq	-1360(%rbp), %rsi
	.loc	17 378 9 is_stmt 1
	movq	%rsi, %rax
	addq	$16, %rax
	movq	-928(%rbp), %rcx
	movq	%rcx, 48(%rsi)
	movq	-936(%rbp), %rcx
	movq	%rcx, 40(%rsi)
	movq	-944(%rbp), %rcx
	movq	%rcx, 32(%rsi)
	movq	-960(%rbp), %rcx
	movq	-952(%rbp), %rdx
	movq	%rdx, 24(%rsi)
	movq	%rcx, 16(%rsi)
	.loc	17 380 15
	movq	%rsi, -32(%rbp)
	.loc	17 380 34 is_stmt 0
	movb	$0, -105(%rbp)
	.loc	17 380 47
	movq	%rax, -24(%rbp)
	leaq	-1328(%rbp), %rcx
	.loc	17 380 68
	movq	%rcx, -16(%rbp)
Ltmp739:
	.loc	17 372 13 is_stmt 1
	movq	%rcx, -744(%rbp)
	movq	%rax, -736(%rbp)
Ltmp740:
	.loc	3 82 39
	movq	-744(%rbp), %rdx
	movq	-736(%rbp), %rcx
Ltmp715:
	leaq	-832(%rbp), %rdi
	.loc	3 82 9 is_stmt 0
	callq	__ZN107_$LT$core..iter..adapters..fuse..Fuse$LT$I$GT$$u20$as$u20$core..iter..adapters..fuse..FuseImpl$LT$I$GT$$GT$8try_fold17h4e2a4df01ddeae8fE
Ltmp716:
	jmp	LBB84_14
Ltmp741:
LBB84_12:
	.loc	17 380 78 is_stmt 1
	xorl	%eax, %eax
	testb	$1, %al
	jne	LBB84_15
	jmp	LBB84_3
LBB84_13:
Ltmp717:
	.loc	17 0 78 is_stmt 0
	movq	%rax, %rcx
	movl	%edx, %eax
	movq	%rcx, -48(%rbp)
	movl	%eax, -40(%rbp)
	jmp	LBB84_12
LBB84_14:
Ltmp718:
	leaq	-920(%rbp), %rdi
	leaq	-832(%rbp), %rsi
	.loc	17 380 15
	callq	__ZN95_$LT$core..ops..control_flow..ControlFlow$LT$B$C$C$GT$$u20$as$u20$core..ops..try_trait..Try$GT$6branch17he6e88a0994de3f97E
Ltmp719:
	jmp	LBB84_16
LBB84_15:
	.loc	17 380 78
	jmp	LBB84_3
LBB84_16:
	.loc	17 380 15
	movl	$1, %eax
	xorl	%ecx, %ecx
	cmpq	$4, -920(%rbp)
	cmoveq	%rcx, %rax
	cmpq	$0, %rax
	jne	LBB84_18
	.loc	17 380 9
	movb	$1, -105(%rbp)
	.loc	17 381 26 is_stmt 1
	movb	$2, -520(%rbp)
	.loc	17 381 9 is_stmt 0
	jmp	LBB84_20
LBB84_18:
	.loc	17 0 9
	movl	$11, %ecx
	movq	%rcx, -1400(%rbp)
	leaq	-728(%rbp), %rdi
	movq	%rdi, -1408(%rbp)
	leaq	-920(%rbp), %rsi
	.loc	17 380 79 is_stmt 1
	rep;movsq (%rsi), %es:(%rdi)
	movq	-1408(%rbp), %rsi
	movq	-1400(%rbp), %rcx
	leaq	-640(%rbp), %rdi
	movq	%rdi, -1392(%rbp)
Ltmp742:
	.loc	17 380 79 is_stmt 0
	rep;movsq (%rsi), %es:(%rdi)
	movq	-1392(%rbp), %rsi
	movq	-1352(%rbp), %rdi
Ltmp720:
	.loc	17 380 15
	callq	__ZN104_$LT$core..ops..control_flow..ControlFlow$LT$B$C$C$GT$$u20$as$u20$core..ops..try_trait..FromResidual$GT$13from_residual17hfe6018700ca429c8E
Ltmp721:
	jmp	LBB84_19
Ltmp743:
LBB84_19:
	.loc	19 1 1 is_stmt 1
	jmp	LBB84_10
LBB84_20:
	.loc	19 0 1 is_stmt 0
	movq	-1360(%rbp), %rdi
	.loc	17 381 9 is_stmt 1
	addq	$16, %rdi
	leaq	-552(%rbp), %rsi
	movl	$40, %edx
	callq	_memcpy
	movq	-1360(%rbp), %rdx
Ltmp744:
	.loc	17 383 29
	movq	%rdx, %rax
	addq	$56, %rax
	movq	%rax, -1416(%rbp)
	.loc	17 383 16 is_stmt 0
	movl	$1, %eax
	xorl	%ecx, %ecx
	cmpb	$2, 88(%rdx)
	cmoveq	%rcx, %rax
	cmpq	$1, %rax
	jne	LBB84_22
	.loc	17 0 16
	movq	-1416(%rbp), %rax
	.loc	17 383 21
	movq	%rax, -8(%rbp)
	.loc	17 384 24 is_stmt 1
	movb	$0, -105(%rbp)
	.loc	17 384 19 is_stmt 0
	movq	%rax, -336(%rbp)
	movq	-336(%rbp), %rdx
Ltmp722:
	leaq	-424(%rbp), %rdi
	leaq	-1328(%rbp), %rsi
	callq	__ZN116_$LT$core..iter..adapters..flatten..FlattenCompat$LT$I$C$U$GT$$u20$as$u20$core..iter..traits..iterator..Iterator$GT$8try_fold7flatten28_$u7b$$u7b$closure$u7d$$u7d$17h2c3c8873e20114d4E
Ltmp723:
	jmp	LBB84_23
Ltmp745:
LBB84_22:
	.loc	17 386 25 is_stmt 1
	movb	$2, -120(%rbp)
	.loc	17 386 9 is_stmt 0
	jmp	LBB84_29
LBB84_23:
Ltmp724:
	.loc	17 0 9
	leaq	-512(%rbp), %rdi
	leaq	-424(%rbp), %rsi
Ltmp746:
	.loc	17 384 19 is_stmt 1
	callq	__ZN95_$LT$core..ops..control_flow..ControlFlow$LT$B$C$C$GT$$u20$as$u20$core..ops..try_trait..Try$GT$6branch17he6e88a0994de3f97E
Ltmp725:
	jmp	LBB84_24
LBB84_24:
	movl	$1, %eax
	xorl	%ecx, %ecx
	cmpq	$4, -512(%rbp)
	cmoveq	%rcx, %rax
	cmpq	$0, %rax
	jne	LBB84_26
	.loc	17 384 13 is_stmt 0
	movb	$1, -105(%rbp)
Ltmp747:
	.loc	17 383 9 is_stmt 1
	jmp	LBB84_22
LBB84_26:
	.loc	17 0 9 is_stmt 0
	movl	$11, %ecx
	movq	%rcx, -1432(%rbp)
	leaq	-328(%rbp), %rdi
	movq	%rdi, -1440(%rbp)
	leaq	-512(%rbp), %rsi
Ltmp748:
	.loc	17 384 34 is_stmt 1
	rep;movsq (%rsi), %es:(%rdi)
	movq	-1440(%rbp), %rsi
	movq	-1432(%rbp), %rcx
	leaq	-240(%rbp), %rdi
	movq	%rdi, -1424(%rbp)
Ltmp749:
	.loc	17 384 34 is_stmt 0
	rep;movsq (%rsi), %es:(%rdi)
	movq	-1424(%rbp), %rsi
	movq	-1352(%rbp), %rdi
Ltmp726:
	.loc	17 384 19
	callq	__ZN104_$LT$core..ops..control_flow..ControlFlow$LT$B$C$C$GT$$u20$as$u20$core..ops..try_trait..FromResidual$GT$13from_residual17hfe6018700ca429c8E
Ltmp727:
	jmp	LBB84_27
Ltmp750:
LBB84_27:
	.loc	19 1 1 is_stmt 1
	jmp	LBB84_10
LBB84_28:
	.loc	19 0 1 is_stmt 0
	movq	-1344(%rbp), %rax
	.loc	17 389 6 is_stmt 1
	addq	$1440, %rsp
	popq	%rbp
	retq
LBB84_29:
	.loc	17 0 6 is_stmt 0
	movq	-1352(%rbp), %rdi
	movq	-1360(%rbp), %rax
	.loc	17 386 9 is_stmt 1
	movq	-120(%rbp), %rcx
	movq	%rcx, 88(%rax)
	movq	-128(%rbp), %rcx
	movq	%rcx, 80(%rax)
	movq	-136(%rbp), %rcx
	movq	%rcx, 72(%rax)
	movq	-152(%rbp), %rcx
	movq	-144(%rbp), %rdx
	movq	%rdx, 64(%rax)
	movq	%rcx, 56(%rax)
	.loc	17 388 15
	movb	$0, -105(%rbp)
Ltmp728:
	callq	__ZN95_$LT$core..ops..control_flow..ControlFlow$LT$B$C$C$GT$$u20$as$u20$core..ops..try_trait..Try$GT$11from_output17haf23a94db338f283E
Ltmp729:
	jmp	LBB84_30
LBB84_30:
	.loc	17 389 5
	jmp	LBB84_28
LBB84_31:
	testb	$1, -105(%rbp)
	jne	LBB84_33
LBB84_32:
	.loc	17 362 5
	movq	-48(%rbp), %rdi
	callq	__Unwind_Resume
LBB84_33:
	.loc	17 389 5
	jmp	LBB84_32
Ltmp751:
Lfunc_end84:
	.cfi_endproc
	.section	__TEXT,__gcc_except_tab
	.p2align	2
GCC_except_table84:
Lexception19:
	.byte	255
	.byte	255
	.byte	1
	.uleb128 Lcst_end19-Lcst_begin19
Lcst_begin19:
	.uleb128 Ltmp709-Lfunc_begin84
	.uleb128 Ltmp714-Ltmp709
	.uleb128 Ltmp730-Lfunc_begin84
	.byte	0
	.uleb128 Ltmp715-Lfunc_begin84
	.uleb128 Ltmp716-Ltmp715
	.uleb128 Ltmp717-Lfunc_begin84
	.byte	0
	.uleb128 Ltmp718-Lfunc_begin84
	.uleb128 Ltmp721-Ltmp718
	.uleb128 Ltmp730-Lfunc_begin84
	.byte	0
	.uleb128 Ltmp721-Lfunc_begin84
	.uleb128 Ltmp722-Ltmp721
	.byte	0
	.byte	0
	.uleb128 Ltmp722-Lfunc_begin84
	.uleb128 Ltmp729-Ltmp722
	.uleb128 Ltmp730-Lfunc_begin84
	.byte	0
	.uleb128 Ltmp729-Lfunc_begin84
	.uleb128 Lfunc_end84-Ltmp729
	.byte	0
	.byte	0
Lcst_end19:
	.p2align	2

	.section	__TEXT,__text,regular,pure_instructions
	.globl	__ZN4core4iter8adapters7flatten26FlattenCompat$LT$I$C$U$GT$13iter_try_fold17h57fc6dc5ae58f455E
	.p2align	4, 0x90
__ZN4core4iter8adapters7flatten26FlattenCompat$LT$I$C$U$GT$13iter_try_fold17h57fc6dc5ae58f455E:
Lfunc_begin85:
	.loc	17 362 0
	.cfi_startproc
	.cfi_personality 155, _rust_eh_personality
	.cfi_lsda 16, Lexception20
	pushq	%rbp
	.cfi_def_cfa_offset 16
	.cfi_offset %rbp, -16
	movq	%rsp, %rbp
	.cfi_def_cfa_register %rbp
	subq	$1632, %rsp
	movq	%rsi, -1552(%rbp)
	movq	%rdi, -1544(%rbp)
	movq	%rdi, -1536(%rbp)
	movq	%rdx, -1520(%rbp)
	movq	%rsi, -104(%rbp)
Ltmp774:
	.loc	17 375 9 prologue_end
	movb	$1, -105(%rbp)
Ltmp775:
	.loc	17 375 29 is_stmt 0
	movq	%rsi, %rax
	addq	$16, %rax
	movq	%rax, -1528(%rbp)
	.loc	17 375 16
	movq	16(%rsi), %rdx
	movl	$1, %eax
	xorl	%ecx, %ecx
	cmpq	$0, %rdx
	cmoveq	%rcx, %rax
	cmpq	$1, %rax
	jne	LBB85_2
	.loc	17 0 16
	movq	-1528(%rbp), %rax
	.loc	17 375 21
	movq	%rax, -56(%rbp)
	.loc	17 376 24 is_stmt 1
	movb	$0, -105(%rbp)
	.loc	17 376 19 is_stmt 0
	movq	%rax, -1304(%rbp)
	movq	-1304(%rbp), %rdx
Ltmp752:
	leaq	-1408(%rbp), %rdi
	leaq	-1520(%rbp), %rsi
	callq	__ZN116_$LT$core..iter..adapters..flatten..FlattenCompat$LT$I$C$U$GT$$u20$as$u20$core..iter..traits..iterator..Iterator$GT$8try_fold7flatten28_$u7b$$u7b$closure$u7d$$u7d$17h3eb16b1cfe3d8c4dE
Ltmp753:
	jmp	LBB85_5
Ltmp776:
LBB85_2:
	.loc	17 378 26 is_stmt 1
	movq	$0, -1088(%rbp)
	.loc	17 378 9 is_stmt 0
	jmp	LBB85_11
LBB85_3:
	.loc	17 389 5 is_stmt 1
	jmp	LBB85_31
LBB85_4:
Ltmp773:
	.loc	17 0 5 is_stmt 0
	movq	%rax, %rcx
	movl	%edx, %eax
	movq	%rcx, -48(%rbp)
	movl	%eax, -40(%rbp)
	jmp	LBB85_3
LBB85_5:
Ltmp754:
	leaq	-1512(%rbp), %rdi
	leaq	-1408(%rbp), %rsi
Ltmp777:
	.loc	17 376 19 is_stmt 1
	callq	__ZN95_$LT$core..ops..control_flow..ControlFlow$LT$B$C$C$GT$$u20$as$u20$core..ops..try_trait..Try$GT$6branch17h17d70f8693d22d3eE
Ltmp755:
	jmp	LBB85_6
LBB85_6:
	movl	$1, %eax
	xorl	%ecx, %ecx
	cmpq	$9, -1512(%rbp)
	cmoveq	%rcx, %rax
	cmpq	$0, %rax
	jne	LBB85_8
	.loc	17 376 13 is_stmt 0
	movb	$1, -105(%rbp)
Ltmp778:
	.loc	17 375 9 is_stmt 1
	jmp	LBB85_2
LBB85_8:
	.loc	17 0 9 is_stmt 0
	movl	$13, %ecx
	movq	%rcx, -1568(%rbp)
	leaq	-1296(%rbp), %rdi
	movq	%rdi, -1576(%rbp)
	leaq	-1512(%rbp), %rsi
Ltmp779:
	.loc	17 376 34 is_stmt 1
	rep;movsq (%rsi), %es:(%rdi)
	movq	-1576(%rbp), %rsi
	movq	-1568(%rbp), %rcx
	leaq	-1192(%rbp), %rdi
	movq	%rdi, -1560(%rbp)
Ltmp780:
	.loc	17 376 34 is_stmt 0
	rep;movsq (%rsi), %es:(%rdi)
	movq	-1560(%rbp), %rsi
	movq	-1544(%rbp), %rdi
Ltmp756:
	.loc	17 376 19
	callq	__ZN104_$LT$core..ops..control_flow..ControlFlow$LT$B$C$C$GT$$u20$as$u20$core..ops..try_trait..FromResidual$GT$13from_residual17h9b8bd3303019f9deE
Ltmp757:
	jmp	LBB85_9
Ltmp781:
LBB85_9:
	.loc	19 1 1 is_stmt 1
	jmp	LBB85_10
LBB85_10:
	.loc	17 389 5
	jmp	LBB85_28
LBB85_11:
	.loc	17 0 5 is_stmt 0
	movq	-1552(%rbp), %rsi
	.loc	17 378 9 is_stmt 1
	movq	%rsi, %rax
	addq	$16, %rax
	movq	-1056(%rbp), %rcx
	movq	%rcx, 48(%rsi)
	movq	-1064(%rbp), %rcx
	movq	%rcx, 40(%rsi)
	movq	-1072(%rbp), %rcx
	movq	%rcx, 32(%rsi)
	movq	-1088(%rbp), %rcx
	movq	-1080(%rbp), %rdx
	movq	%rdx, 24(%rsi)
	movq	%rcx, 16(%rsi)
	.loc	17 380 15
	movq	%rsi, -32(%rbp)
	.loc	17 380 34 is_stmt 0
	movb	$0, -105(%rbp)
	.loc	17 380 47
	movq	%rax, -24(%rbp)
	leaq	-1520(%rbp), %rcx
	.loc	17 380 68
	movq	%rcx, -16(%rbp)
Ltmp782:
	.loc	17 372 13 is_stmt 1
	movq	%rcx, -840(%rbp)
	movq	%rax, -832(%rbp)
Ltmp783:
	.loc	3 82 39
	movq	-840(%rbp), %rdx
	movq	-832(%rbp), %rcx
Ltmp758:
	leaq	-944(%rbp), %rdi
	.loc	3 82 9 is_stmt 0
	callq	__ZN107_$LT$core..iter..adapters..fuse..Fuse$LT$I$GT$$u20$as$u20$core..iter..adapters..fuse..FuseImpl$LT$I$GT$$GT$8try_fold17hf2cec5d4e3830416E
Ltmp759:
	jmp	LBB85_14
Ltmp784:
LBB85_12:
	.loc	17 380 78 is_stmt 1
	xorl	%eax, %eax
	testb	$1, %al
	jne	LBB85_15
	jmp	LBB85_3
LBB85_13:
Ltmp760:
	.loc	17 0 78 is_stmt 0
	movq	%rax, %rcx
	movl	%edx, %eax
	movq	%rcx, -48(%rbp)
	movl	%eax, -40(%rbp)
	jmp	LBB85_12
LBB85_14:
Ltmp761:
	leaq	-1048(%rbp), %rdi
	leaq	-944(%rbp), %rsi
	.loc	17 380 15
	callq	__ZN95_$LT$core..ops..control_flow..ControlFlow$LT$B$C$C$GT$$u20$as$u20$core..ops..try_trait..Try$GT$6branch17h17d70f8693d22d3eE
Ltmp762:
	jmp	LBB85_16
LBB85_15:
	.loc	17 380 78
	jmp	LBB85_3
LBB85_16:
	.loc	17 380 15
	movl	$1, %eax
	xorl	%ecx, %ecx
	cmpq	$9, -1048(%rbp)
	cmoveq	%rcx, %rax
	cmpq	$0, %rax
	jne	LBB85_18
	.loc	17 380 9
	movb	$1, -105(%rbp)
	.loc	17 381 26 is_stmt 1
	movq	$0, -616(%rbp)
	.loc	17 381 9 is_stmt 0
	jmp	LBB85_20
LBB85_18:
	.loc	17 0 9
	movl	$13, %ecx
	movq	%rcx, -1592(%rbp)
	leaq	-824(%rbp), %rdi
	movq	%rdi, -1600(%rbp)
	leaq	-1048(%rbp), %rsi
	.loc	17 380 79 is_stmt 1
	rep;movsq (%rsi), %es:(%rdi)
	movq	-1600(%rbp), %rsi
	movq	-1592(%rbp), %rcx
	leaq	-720(%rbp), %rdi
	movq	%rdi, -1584(%rbp)
Ltmp785:
	.loc	17 380 79 is_stmt 0
	rep;movsq (%rsi), %es:(%rdi)
	movq	-1584(%rbp), %rsi
	movq	-1544(%rbp), %rdi
Ltmp763:
	.loc	17 380 15
	callq	__ZN104_$LT$core..ops..control_flow..ControlFlow$LT$B$C$C$GT$$u20$as$u20$core..ops..try_trait..FromResidual$GT$13from_residual17h9b8bd3303019f9deE
Ltmp764:
	jmp	LBB85_19
Ltmp786:
LBB85_19:
	.loc	19 1 1 is_stmt 1
	jmp	LBB85_10
LBB85_20:
	.loc	19 0 1 is_stmt 0
	movq	-1552(%rbp), %rdi
	.loc	17 381 9 is_stmt 1
	addq	$16, %rdi
	leaq	-616(%rbp), %rsi
	movl	$40, %edx
	callq	_memcpy
	movq	-1552(%rbp), %rax
Ltmp787:
	.loc	17 383 29
	movq	%rax, %rcx
	addq	$56, %rcx
	movq	%rcx, -1608(%rbp)
	.loc	17 383 16 is_stmt 0
	movq	56(%rax), %rdx
	movl	$1, %eax
	xorl	%ecx, %ecx
	cmpq	$0, %rdx
	cmoveq	%rcx, %rax
	cmpq	$1, %rax
	jne	LBB85_22
	.loc	17 0 16
	movq	-1608(%rbp), %rax
	.loc	17 383 21
	movq	%rax, -8(%rbp)
	.loc	17 384 24 is_stmt 1
	movb	$0, -105(%rbp)
	.loc	17 384 19 is_stmt 0
	movq	%rax, -368(%rbp)
	movq	-368(%rbp), %rdx
Ltmp765:
	leaq	-472(%rbp), %rdi
	leaq	-1520(%rbp), %rsi
	callq	__ZN116_$LT$core..iter..adapters..flatten..FlattenCompat$LT$I$C$U$GT$$u20$as$u20$core..iter..traits..iterator..Iterator$GT$8try_fold7flatten28_$u7b$$u7b$closure$u7d$$u7d$17h3eb16b1cfe3d8c4dE
Ltmp766:
	jmp	LBB85_23
Ltmp788:
LBB85_22:
	.loc	17 386 25 is_stmt 1
	movq	$0, -152(%rbp)
	.loc	17 386 9 is_stmt 0
	jmp	LBB85_29
LBB85_23:
Ltmp767:
	.loc	17 0 9
	leaq	-576(%rbp), %rdi
	leaq	-472(%rbp), %rsi
Ltmp789:
	.loc	17 384 19 is_stmt 1
	callq	__ZN95_$LT$core..ops..control_flow..ControlFlow$LT$B$C$C$GT$$u20$as$u20$core..ops..try_trait..Try$GT$6branch17h17d70f8693d22d3eE
Ltmp768:
	jmp	LBB85_24
LBB85_24:
	movl	$1, %eax
	xorl	%ecx, %ecx
	cmpq	$9, -576(%rbp)
	cmoveq	%rcx, %rax
	cmpq	$0, %rax
	jne	LBB85_26
	.loc	17 384 13 is_stmt 0
	movb	$1, -105(%rbp)
Ltmp790:
	.loc	17 383 9 is_stmt 1
	jmp	LBB85_22
LBB85_26:
	.loc	17 0 9 is_stmt 0
	movl	$13, %ecx
	movq	%rcx, -1624(%rbp)
	leaq	-360(%rbp), %rdi
	movq	%rdi, -1632(%rbp)
	leaq	-576(%rbp), %rsi
Ltmp791:
	.loc	17 384 34 is_stmt 1
	rep;movsq (%rsi), %es:(%rdi)
	movq	-1632(%rbp), %rsi
	movq	-1624(%rbp), %rcx
	leaq	-256(%rbp), %rdi
	movq	%rdi, -1616(%rbp)
Ltmp792:
	.loc	17 384 34 is_stmt 0
	rep;movsq (%rsi), %es:(%rdi)
	movq	-1616(%rbp), %rsi
	movq	-1544(%rbp), %rdi
Ltmp769:
	.loc	17 384 19
	callq	__ZN104_$LT$core..ops..control_flow..ControlFlow$LT$B$C$C$GT$$u20$as$u20$core..ops..try_trait..FromResidual$GT$13from_residual17h9b8bd3303019f9deE
Ltmp770:
	jmp	LBB85_27
Ltmp793:
LBB85_27:
	.loc	19 1 1 is_stmt 1
	jmp	LBB85_10
LBB85_28:
	.loc	19 0 1 is_stmt 0
	movq	-1536(%rbp), %rax
	.loc	17 389 6 is_stmt 1
	addq	$1632, %rsp
	popq	%rbp
	retq
LBB85_29:
	.loc	17 0 6 is_stmt 0
	movq	-1544(%rbp), %rdi
	movq	-1552(%rbp), %rax
	.loc	17 386 9 is_stmt 1
	movq	-120(%rbp), %rcx
	movq	%rcx, 88(%rax)
	movq	-128(%rbp), %rcx
	movq	%rcx, 80(%rax)
	movq	-136(%rbp), %rcx
	movq	%rcx, 72(%rax)
	movq	-152(%rbp), %rcx
	movq	-144(%rbp), %rdx
	movq	%rdx, 64(%rax)
	movq	%rcx, 56(%rax)
	.loc	17 388 15
	movb	$0, -105(%rbp)
Ltmp771:
	callq	__ZN95_$LT$core..ops..control_flow..ControlFlow$LT$B$C$C$GT$$u20$as$u20$core..ops..try_trait..Try$GT$11from_output17h57b92220b1cf4294E
Ltmp772:
	jmp	LBB85_30
LBB85_30:
	.loc	17 389 5
	jmp	LBB85_28
LBB85_31:
	testb	$1, -105(%rbp)
	jne	LBB85_33
LBB85_32:
	.loc	17 362 5
	movq	-48(%rbp), %rdi
	callq	__Unwind_Resume
LBB85_33:
	.loc	17 389 5
	jmp	LBB85_32
Ltmp794:
Lfunc_end85:
	.cfi_endproc
	.section	__TEXT,__gcc_except_tab
	.p2align	2
GCC_except_table85:
Lexception20:
	.byte	255
	.byte	255
	.byte	1
	.uleb128 Lcst_end20-Lcst_begin20
Lcst_begin20:
	.uleb128 Ltmp752-Lfunc_begin85
	.uleb128 Ltmp757-Ltmp752
	.uleb128 Ltmp773-Lfunc_begin85
	.byte	0
	.uleb128 Ltmp758-Lfunc_begin85
	.uleb128 Ltmp759-Ltmp758
	.uleb128 Ltmp760-Lfunc_begin85
	.byte	0
	.uleb128 Ltmp761-Lfunc_begin85
	.uleb128 Ltmp764-Ltmp761
	.uleb128 Ltmp773-Lfunc_begin85
	.byte	0
	.uleb128 Ltmp764-Lfunc_begin85
	.uleb128 Ltmp765-Ltmp764
	.byte	0
	.byte	0
	.uleb128 Ltmp765-Lfunc_begin85
	.uleb128 Ltmp772-Ltmp765
	.uleb128 Ltmp773-Lfunc_begin85
	.byte	0
	.uleb128 Ltmp772-Lfunc_begin85
	.uleb128 Lfunc_end85-Ltmp772
	.byte	0
	.byte	0
Lcst_end20:
	.p2align	2

	.section	__TEXT,__text,regular,pure_instructions
	.globl	__ZN4core4iter8adapters7flatten26FlattenCompat$LT$I$C$U$GT$13iter_try_fold7flatten28_$u7b$$u7b$closure$u7d$$u7d$17h4ea05d9d4ac942f2E
	.p2align	4, 0x90
__ZN4core4iter8adapters7flatten26FlattenCompat$LT$I$C$U$GT$13iter_try_fold7flatten28_$u7b$$u7b$closure$u7d$$u7d$17h4ea05d9d4ac942f2E:
Lfunc_begin86:
	.loc	17 372 0
	.cfi_startproc
	.cfi_personality 155, _rust_eh_personality
	.cfi_lsda 16, Lexception21
	pushq	%rbp
	.cfi_def_cfa_offset 16
	.cfi_offset %rbp, -16
	movq	%rsp, %rbp
	.cfi_def_cfa_register %rbp
	subq	$160, %rsp
	movq	%rdi, -152(%rbp)
	movq	%rdi, -144(%rbp)
	movq	%rsi, -32(%rbp)
Ltmp802:
	.loc	17 372 30 prologue_end
	movq	(%rsi), %rax
	movq	%rax, -136(%rbp)
	.loc	17 372 35 is_stmt 0
	movb	$1, -33(%rbp)
	.loc	17 372 40
	movq	8(%rsi), %rax
	movq	%rax, -128(%rbp)
	.loc	17 372 57
	movq	24(%rdx), %rax
	movq	%rax, -48(%rbp)
	movq	16(%rdx), %rax
	movq	%rax, -56(%rbp)
	movq	(%rdx), %rax
	movq	8(%rdx), %rcx
	movq	%rcx, -64(%rbp)
	movq	%rax, -72(%rbp)
Ltmp795:
	leaq	-112(%rbp), %rdi
	leaq	-72(%rbp), %rsi
	callq	__ZN97_$LT$ttf_parser..tables..cmap..Subtables$u20$as$u20$core..iter..traits..collect..IntoIterator$GT$9into_iter17hdb3c9698bafdc86bE
Ltmp803:
Ltmp796:
	jmp	LBB86_3
Ltmp804:
LBB86_1:
	.loc	17 372 74
	testb	$1, -33(%rbp)
	jne	LBB86_7
	jmp	LBB86_6
Ltmp805:
LBB86_2:
Ltmp801:
	.loc	17 0 74
	movq	%rax, %rcx
	movl	%edx, %eax
	movq	%rcx, -16(%rbp)
	movl	%eax, -8(%rbp)
	jmp	LBB86_1
Ltmp806:
LBB86_3:
Ltmp797:
	movq	-128(%rbp), %rdi
	leaq	-112(%rbp), %rsi
	.loc	17 372 40
	callq	__ZN4core6option15Option$LT$T$GT$6insert17h5b402bc0c7c11de7E
Ltmp798:
	movq	%rax, -160(%rbp)
	jmp	LBB86_4
Ltmp807:
LBB86_4:
	.loc	17 0 40
	movq	-136(%rbp), %rsi
	movq	-152(%rbp), %rdi
	movq	-160(%rbp), %rax
	.loc	17 372 30
	movb	$0, -33(%rbp)
	movq	%rax, -120(%rbp)
	movq	-120(%rbp), %rdx
Ltmp799:
	callq	__ZN116_$LT$core..iter..adapters..flatten..FlattenCompat$LT$I$C$U$GT$$u20$as$u20$core..iter..traits..iterator..Iterator$GT$8try_fold7flatten28_$u7b$$u7b$closure$u7d$$u7d$17h3eb16b1cfe3d8c4dE
Ltmp800:
	jmp	LBB86_5
Ltmp808:
LBB86_5:
	.loc	17 0 30
	movq	-144(%rbp), %rax
	.loc	17 372 75
	addq	$160, %rsp
	popq	%rbp
	retq
Ltmp809:
LBB86_6:
	.loc	17 372 13
	movq	-16(%rbp), %rdi
	callq	__Unwind_Resume
Ltmp810:
LBB86_7:
	.loc	17 372 74
	jmp	LBB86_6
Ltmp811:
Lfunc_end86:
	.cfi_endproc
	.section	__TEXT,__gcc_except_tab
	.p2align	2
GCC_except_table86:
Lexception21:
	.byte	255
	.byte	255
	.byte	1
	.uleb128 Lcst_end21-Lcst_begin21
Lcst_begin21:
	.uleb128 Ltmp795-Lfunc_begin86
	.uleb128 Ltmp800-Ltmp795
	.uleb128 Ltmp801-Lfunc_begin86
	.byte	0
	.uleb128 Ltmp800-Lfunc_begin86
	.uleb128 Lfunc_end86-Ltmp800
	.byte	0
	.byte	0
Lcst_end21:
	.p2align	2

	.section	__TEXT,__text,regular,pure_instructions
	.globl	__ZN4core4iter8adapters7flatten26FlattenCompat$LT$I$C$U$GT$13iter_try_fold7flatten28_$u7b$$u7b$closure$u7d$$u7d$17ha8ca6d356126ae6dE
	.p2align	4, 0x90
__ZN4core4iter8adapters7flatten26FlattenCompat$LT$I$C$U$GT$13iter_try_fold7flatten28_$u7b$$u7b$closure$u7d$$u7d$17ha8ca6d356126ae6dE:
Lfunc_begin87:
	.loc	17 372 0 is_stmt 1
	.cfi_startproc
	.cfi_personality 155, _rust_eh_personality
	.cfi_lsda 16, Lexception22
	pushq	%rbp
	.cfi_def_cfa_offset 16
	.cfi_offset %rbp, -16
	movq	%rsp, %rbp
	.cfi_def_cfa_register %rbp
	subq	$160, %rsp
	movq	%rdi, -144(%rbp)
	movq	%rdi, -136(%rbp)
	movq	%rsi, -32(%rbp)
Ltmp819:
	.loc	17 372 30 prologue_end
	movq	(%rsi), %rax
	movq	%rax, -128(%rbp)
	.loc	17 372 35 is_stmt 0
	movb	$1, -33(%rbp)
	.loc	17 372 40
	movq	8(%rsi), %rax
	movq	%rax, -120(%rbp)
	.loc	17 372 57
	movq	16(%rdx), %rax
	movq	%rax, -48(%rbp)
	movq	(%rdx), %rax
	movq	8(%rdx), %rcx
	movq	%rcx, -56(%rbp)
	movq	%rax, -64(%rbp)
Ltmp812:
	leaq	-104(%rbp), %rdi
	leaq	-64(%rbp), %rsi
	callq	__ZN97_$LT$ttf_parser..tables..kern..Subtables$u20$as$u20$core..iter..traits..collect..IntoIterator$GT$9into_iter17hcee2e446f5b36b1bE
Ltmp820:
Ltmp813:
	jmp	LBB87_3
Ltmp821:
LBB87_1:
	.loc	17 372 74
	testb	$1, -33(%rbp)
	jne	LBB87_7
	jmp	LBB87_6
Ltmp822:
LBB87_2:
Ltmp818:
	.loc	17 0 74
	movq	%rax, %rcx
	movl	%edx, %eax
	movq	%rcx, -16(%rbp)
	movl	%eax, -8(%rbp)
	jmp	LBB87_1
Ltmp823:
LBB87_3:
Ltmp814:
	movq	-120(%rbp), %rdi
	leaq	-104(%rbp), %rsi
	.loc	17 372 40
	callq	__ZN4core6option15Option$LT$T$GT$6insert17h08c7612e6536bb5aE
Ltmp815:
	movq	%rax, -152(%rbp)
	jmp	LBB87_4
Ltmp824:
LBB87_4:
	.loc	17 0 40
	movq	-128(%rbp), %rsi
	movq	-144(%rbp), %rdi
	movq	-152(%rbp), %rax
	.loc	17 372 30
	movb	$0, -33(%rbp)
	movq	%rax, -112(%rbp)
	movq	-112(%rbp), %rdx
Ltmp816:
	callq	__ZN116_$LT$core..iter..adapters..flatten..FlattenCompat$LT$I$C$U$GT$$u20$as$u20$core..iter..traits..iterator..Iterator$GT$8try_fold7flatten28_$u7b$$u7b$closure$u7d$$u7d$17h2c3c8873e20114d4E
Ltmp817:
	jmp	LBB87_5
Ltmp825:
LBB87_5:
	.loc	17 0 30
	movq	-136(%rbp), %rax
	.loc	17 372 75
	addq	$160, %rsp
	popq	%rbp
	retq
Ltmp826:
LBB87_6:
	.loc	17 372 13
	movq	-16(%rbp), %rdi
	callq	__Unwind_Resume
Ltmp827:
LBB87_7:
	.loc	17 372 74
	jmp	LBB87_6
Ltmp828:
Lfunc_end87:
	.cfi_endproc
	.section	__TEXT,__gcc_except_tab
	.p2align	2
GCC_except_table87:
Lexception22:
	.byte	255
	.byte	255
	.byte	1
	.uleb128 Lcst_end22-Lcst_begin22
Lcst_begin22:
	.uleb128 Ltmp812-Lfunc_begin87
	.uleb128 Ltmp817-Ltmp812
	.uleb128 Ltmp818-Lfunc_begin87
	.byte	0
	.uleb128 Ltmp817-Lfunc_begin87
	.uleb128 Lfunc_end87-Ltmp817
	.byte	0
	.byte	0
Lcst_end22:
	.p2align	2

	.section	__TEXT,__text,regular,pure_instructions
	.globl	__ZN4core4iter8adapters7flatten26FlattenCompat$LT$I$C$U$GT$3new17h4b6a1e6f85c9d4aeE
	.p2align	4, 0x90
__ZN4core4iter8adapters7flatten26FlattenCompat$LT$I$C$U$GT$3new17h4b6a1e6f85c9d4aeE:
Lfunc_begin88:
	.loc	17 318 0 is_stmt 1
	.cfi_startproc
	pushq	%rbp
	.cfi_def_cfa_offset 16
	.cfi_offset %rbp, -16
	movq	%rsp, %rbp
	.cfi_def_cfa_register %rbp
	subq	$112, %rsp
	movq	%rsi, -112(%rbp)
	movq	%rdi, %rax
	movq	-112(%rbp), %rdi
	movq	%rax, -104(%rbp)
	movq	%rax, -96(%rbp)
	movq	%rdi, -8(%rbp)
Ltmp829:
	.loc	17 319 31 prologue_end
	callq	__ZN4core4iter6traits8iterator8Iterator4fuse17h18fce19ae0273199E
	movq	-104(%rbp), %rdi
	.loc	17 319 55 is_stmt 0
	movb	$2, -56(%rbp)
	.loc	17 319 71
	movb	$2, -16(%rbp)
	.loc	17 319 9
	movq	%rax, (%rdi)
	movq	%rdx, 8(%rdi)
	addq	$16, %rdi
	leaq	-88(%rbp), %rsi
	movl	$40, %edx
	callq	_memcpy
	movq	-104(%rbp), %rdi
	addq	$56, %rdi
	leaq	-48(%rbp), %rsi
	movl	$40, %edx
	callq	_memcpy
	movq	-96(%rbp), %rax
	.loc	17 320 6 is_stmt 1
	addq	$112, %rsp
	popq	%rbp
	retq
Ltmp830:
Lfunc_end88:
	.cfi_endproc

	.globl	__ZN4core4iter8adapters7flatten26FlattenCompat$LT$I$C$U$GT$3new17h6b27c50653985e52E
	.p2align	4, 0x90
__ZN4core4iter8adapters7flatten26FlattenCompat$LT$I$C$U$GT$3new17h6b27c50653985e52E:
Lfunc_begin89:
	.loc	17 318 0
	.cfi_startproc
	pushq	%rbp
	.cfi_def_cfa_offset 16
	.cfi_offset %rbp, -16
	movq	%rsp, %rbp
	.cfi_def_cfa_register %rbp
	subq	$112, %rsp
	movq	%rsi, -112(%rbp)
	movq	%rdi, %rax
	movq	-112(%rbp), %rdi
	movq	%rax, -104(%rbp)
	movq	%rax, -96(%rbp)
	movq	%rdi, -8(%rbp)
Ltmp831:
	.loc	17 319 31 prologue_end
	callq	__ZN4core4iter6traits8iterator8Iterator4fuse17h130805b9abb41616E
	movq	-104(%rbp), %rdi
	.loc	17 319 55 is_stmt 0
	movq	$0, -88(%rbp)
	.loc	17 319 71
	movq	$0, -48(%rbp)
	.loc	17 319 9
	movq	%rax, (%rdi)
	movq	%rdx, 8(%rdi)
	addq	$16, %rdi
	leaq	-88(%rbp), %rsi
	movl	$40, %edx
	callq	_memcpy
	movq	-104(%rbp), %rdi
	addq	$56, %rdi
	leaq	-48(%rbp), %rsi
	movl	$40, %edx
	callq	_memcpy
	movq	-96(%rbp), %rax
	.loc	17 320 6 is_stmt 1
	addq	$112, %rsp
	popq	%rbp
	retq
Ltmp832:
Lfunc_end89:
	.cfi_endproc

	.p2align	4, 0x90
__ZN4core5alloc6layout6Layout5array5inner17he3b7c4831272f69cE:
Lfunc_begin90:
	.file	28 "/rustc/2c8cc343237b8f7d5a3c3703e3a87f2eb2c54a74/library/core/src/alloc" "layout.rs"
	.loc	28 441 0
	.cfi_startproc
	pushq	%rbp
	.cfi_def_cfa_offset 16
	.cfi_offset %rbp, -16
	movq	%rsp, %rbp
	.cfi_def_cfa_register %rbp
	subq	$176, %rsp
	movq	%rdi, -168(%rbp)
	movq	%rsi, -160(%rbp)
	movq	%rdx, -152(%rbp)
	movq	%rdi, -88(%rbp)
	movq	%rsi, -80(%rbp)
	movq	%rdx, -72(%rbp)
Ltmp833:
	.loc	28 452 16 prologue_end
	cmpq	$0, %rdi
	jne	LBB90_2
	movb	$0, -121(%rbp)
	jmp	LBB90_5
LBB90_2:
	.loc	28 0 16 is_stmt 0
	movq	-168(%rbp), %rax
	movq	-160(%rbp), %rcx
	.loc	28 452 68
	movq	%rcx, -64(%rbp)
Ltmp834:
	.loc	28 93 32 is_stmt 1
	movq	%rcx, -56(%rbp)
Ltmp835:
	.file	29 "/rustc/2c8cc343237b8f7d5a3c3703e3a87f2eb2c54a74/library/core/src/ptr" "alignment.rs"
	.loc	29 97 9
	movq	%rcx, -104(%rbp)
	movq	-104(%rbp), %rdx
Ltmp836:
	.loc	28 93 31
	subq	$1, %rdx
	.loc	28 93 9 is_stmt 0
	movabsq	$9223372036854775807, %rcx
	subq	%rdx, %rcx
	movq	%rcx, -176(%rbp)
Ltmp837:
	.loc	28 452 41 is_stmt 1
	cmpq	$0, %rax
	sete	%al
	testb	$1, %al
	jne	LBB90_4
	.loc	28 0 41 is_stmt 0
	movq	-168(%rbp), %rcx
	movq	-176(%rbp), %rax
	.loc	28 452 41
	xorl	%edx, %edx
	divq	%rcx
	movq	%rax, %rcx
	movq	-152(%rbp), %rax
	.loc	28 452 37
	cmpq	%rcx, %rax
	seta	%al
	.loc	28 452 16
	andb	$1, %al
	movb	%al, -121(%rbp)
	jmp	LBB90_5
LBB90_4:
	.loc	28 452 41
	leaq	_str.0(%rip), %rdi
	leaq	l___unnamed_7(%rip), %rdx
	movl	$25, %esi
	callq	__ZN4core9panicking5panic17hc1bc45270cf64b03E
LBB90_5:
	.loc	28 452 16
	testb	$1, -121(%rbp)
	jne	LBB90_7
	.loc	28 0 16
	movq	-160(%rbp), %rax
	movq	-152(%rbp), %rdx
	movq	-168(%rbp), %rcx
	.loc	28 456 30 is_stmt 1
	imulq	%rdx, %rcx
	movq	%rcx, -48(%rbp)
Ltmp838:
	.loc	28 461 59
	movq	%rcx, -40(%rbp)
	.loc	28 461 71 is_stmt 0
	movq	%rax, -32(%rbp)
Ltmp839:
	.loc	29 97 9 is_stmt 1
	movq	%rax, -96(%rbp)
	movq	-96(%rbp), %rax
	movq	%rax, -24(%rbp)
Ltmp840:
	.loc	28 120 65
	movq	%rax, -16(%rbp)
Ltmp841:
	.loc	29 89 18
	movq	%rax, -8(%rbp)
	movq	-8(%rbp), %rax
Ltmp842:
	.loc	28 120 18
	movq	%rcx, -120(%rbp)
	movq	%rax, -112(%rbp)
Ltmp843:
	.loc	28 461 22
	movq	-120(%rbp), %rcx
	movq	-112(%rbp), %rax
	movq	%rcx, -144(%rbp)
	movq	%rax, -136(%rbp)
Ltmp844:
	.loc	28 462 10
	jmp	LBB90_8
LBB90_7:
	.loc	28 453 24
	movq	$0, -136(%rbp)
LBB90_8:
	.loc	28 462 10
	movq	-144(%rbp), %rax
	movq	-136(%rbp), %rdx
	addq	$176, %rsp
	popq	%rbp
	retq
Ltmp845:
Lfunc_end90:
	.cfi_endproc

	.globl	__ZN4core5slice3raw14from_raw_parts17h86a8e3533dfc655fE
	.p2align	4, 0x90
__ZN4core5slice3raw14from_raw_parts17h86a8e3533dfc655fE:
Lfunc_begin91:
	.file	30 "/rustc/2c8cc343237b8f7d5a3c3703e3a87f2eb2c54a74/library/core/src/slice" "raw.rs"
	.loc	30 92 0
	.cfi_startproc
	pushq	%rbp
	.cfi_def_cfa_offset 16
	.cfi_offset %rbp, -16
	movq	%rsp, %rbp
	.cfi_def_cfa_register %rbp
	subq	$88, %rsp
	movq	%rdi, -56(%rbp)
	movq	%rsi, -48(%rbp)
Ltmp846:
	.loc	30 100 37 prologue_end
	movq	%rdi, -40(%rbp)
	.loc	30 100 43 is_stmt 0
	movq	%rsi, -32(%rbp)
Ltmp847:
	.loc	16 734 20 is_stmt 1
	movq	%rdi, -24(%rbp)
Ltmp848:
	.file	31 "/rustc/2c8cc343237b8f7d5a3c3703e3a87f2eb2c54a74/library/core/src/ptr" "const_ptr.rs"
	.loc	31 61 9
	movq	%rdi, -16(%rbp)
Ltmp849:
	.loc	16 734 33
	movq	%rsi, -8(%rbp)
Ltmp850:
	.file	32 "/rustc/2c8cc343237b8f7d5a3c3703e3a87f2eb2c54a74/library/core/src/ptr" "metadata.rs"
	.loc	32 118 36
	movq	%rdi, -72(%rbp)
	movq	%rsi, -64(%rbp)
	.loc	32 118 14 is_stmt 0
	movq	-72(%rbp), %rcx
	movq	-64(%rbp), %rax
	movq	%rcx, -88(%rbp)
	movq	%rax, -80(%rbp)
	movq	-88(%rbp), %rax
	movq	-80(%rbp), %rdx
Ltmp851:
	.loc	30 102 2 is_stmt 1
	addq	$88, %rsp
	popq	%rbp
	retq
Ltmp852:
Lfunc_end91:
	.cfi_endproc

	.globl	__ZN4core6option15Option$LT$T$GT$16unwrap_unchecked17h2448e53f0b27bea3E
	.p2align	4, 0x90
__ZN4core6option15Option$LT$T$GT$16unwrap_unchecked17h2448e53f0b27bea3E:
Lfunc_begin92:
	.loc	18 933 0
	.cfi_startproc
	.cfi_personality 155, _rust_eh_personality
	.cfi_lsda 16, Lexception23
	pushq	%rbp
	.cfi_def_cfa_offset 16
	.cfi_offset %rbp, -16
	movq	%rsp, %rbp
	.cfi_def_cfa_register %rbp
	subq	$32, %rsp
	movq	%rdi, -32(%rbp)
Ltmp856:
	.loc	18 935 15 prologue_end
	movq	-32(%rbp), %rdx
	movl	$1, %eax
	xorl	%ecx, %ecx
	cmpq	$0, %rdx
	cmoveq	%rcx, %rax
	.loc	18 935 9 is_stmt 0
	cmpq	$0, %rax
	jne	LBB92_2
Ltmp853:
	.loc	18 938 30 is_stmt 1
	callq	__ZN4core4hint21unreachable_unchecked17h820649a5cea501a4E
Ltmp854:
	jmp	LBB92_5
LBB92_2:
	.loc	18 936 18
	movq	-32(%rbp), %rax
	movq	%rax, -24(%rbp)
	.loc	18 940 6
	addq	$32, %rsp
	popq	%rbp
	retq
LBB92_3:
	.loc	18 940 5 is_stmt 0
	movq	-32(%rbp), %rdx
	movl	$1, %eax
	xorl	%ecx, %ecx
	cmpq	$0, %rdx
	cmoveq	%rcx, %rax
	cmpq	$1, %rax
	je	LBB92_6
	jmp	LBB92_7
LBB92_4:
Ltmp855:
	.loc	18 0 5
	movq	%rax, %rcx
	movl	%edx, %eax
	movq	%rcx, -16(%rbp)
	movl	%eax, -8(%rbp)
	jmp	LBB92_3
LBB92_5:
	ud2
LBB92_6:
	.loc	18 940 5
	movb	$1, %al
	testb	$1, %al
	jne	LBB92_8
	jmp	LBB92_7
LBB92_7:
	.loc	18 933 5 is_stmt 1
	movq	-16(%rbp), %rdi
	callq	__Unwind_Resume
LBB92_8:
	.loc	18 940 5
	jmp	LBB92_7
Ltmp857:
Lfunc_end92:
	.cfi_endproc
	.section	__TEXT,__gcc_except_tab
	.p2align	2
GCC_except_table92:
Lexception23:
	.byte	255
	.byte	255
	.byte	1
	.uleb128 Lcst_end23-Lcst_begin23
Lcst_begin23:
	.uleb128 Ltmp853-Lfunc_begin92
	.uleb128 Ltmp854-Ltmp853
	.uleb128 Ltmp855-Lfunc_begin92
	.byte	0
	.uleb128 Ltmp854-Lfunc_begin92
	.uleb128 Lfunc_end92-Ltmp854
	.byte	0
	.byte	0
Lcst_end23:
	.p2align	2

	.section	__TEXT,__text,regular,pure_instructions
	.globl	__ZN4core6option15Option$LT$T$GT$16unwrap_unchecked17h742235fa398056ffE
	.p2align	4, 0x90
__ZN4core6option15Option$LT$T$GT$16unwrap_unchecked17h742235fa398056ffE:
Lfunc_begin93:
	.loc	18 933 0
	.cfi_startproc
	.cfi_personality 155, _rust_eh_personality
	.cfi_lsda 16, Lexception24
	pushq	%rbp
	.cfi_def_cfa_offset 16
	.cfi_offset %rbp, -16
	movq	%rsp, %rbp
	.cfi_def_cfa_register %rbp
	subq	$32, %rsp
	movq	%rdi, -32(%rbp)
Ltmp861:
	.loc	18 935 15 prologue_end
	movq	-32(%rbp), %rdx
	movl	$1, %eax
	xorl	%ecx, %ecx
	cmpq	$0, %rdx
	cmoveq	%rcx, %rax
	.loc	18 935 9 is_stmt 0
	cmpq	$0, %rax
	jne	LBB93_2
Ltmp858:
	.loc	18 938 30 is_stmt 1
	callq	__ZN4core4hint21unreachable_unchecked17h820649a5cea501a4E
Ltmp859:
	jmp	LBB93_5
LBB93_2:
	.loc	18 936 18
	movq	-32(%rbp), %rax
	movq	%rax, -24(%rbp)
	.loc	18 940 6
	addq	$32, %rsp
	popq	%rbp
	retq
LBB93_3:
	.loc	18 940 5 is_stmt 0
	movq	-32(%rbp), %rdx
	movl	$1, %eax
	xorl	%ecx, %ecx
	cmpq	$0, %rdx
	cmoveq	%rcx, %rax
	cmpq	$1, %rax
	je	LBB93_6
	jmp	LBB93_7
LBB93_4:
Ltmp860:
	.loc	18 0 5
	movq	%rax, %rcx
	movl	%edx, %eax
	movq	%rcx, -16(%rbp)
	movl	%eax, -8(%rbp)
	jmp	LBB93_3
LBB93_5:
	ud2
LBB93_6:
	.loc	18 940 5
	movb	$1, %al
	testb	$1, %al
	jne	LBB93_8
	jmp	LBB93_7
LBB93_7:
	.loc	18 933 5 is_stmt 1
	movq	-16(%rbp), %rdi
	callq	__Unwind_Resume
LBB93_8:
	.loc	18 940 5
	jmp	LBB93_7
Ltmp862:
Lfunc_end93:
	.cfi_endproc
	.section	__TEXT,__gcc_except_tab
	.p2align	2
GCC_except_table93:
Lexception24:
	.byte	255
	.byte	255
	.byte	1
	.uleb128 Lcst_end24-Lcst_begin24
Lcst_begin24:
	.uleb128 Ltmp858-Lfunc_begin93
	.uleb128 Ltmp859-Ltmp858
	.uleb128 Ltmp860-Lfunc_begin93
	.byte	0
	.uleb128 Ltmp859-Lfunc_begin93
	.uleb128 Lfunc_end93-Ltmp859
	.byte	0
	.byte	0
Lcst_end24:
	.p2align	2

	.section	__TEXT,__text,regular,pure_instructions
	.globl	__ZN4core6option15Option$LT$T$GT$4iter17h5dd693bb811e2412E
	.p2align	4, 0x90
__ZN4core6option15Option$LT$T$GT$4iter17h5dd693bb811e2412E:
Lfunc_begin94:
	.loc	18 1202 0
	.cfi_startproc
	pushq	%rbp
	.cfi_def_cfa_offset 16
	.cfi_offset %rbp, -16
	movq	%rsp, %rbp
	.cfi_def_cfa_register %rbp
	subq	$56, %rsp
	movq	%rdi, -56(%rbp)
	movq	%rdi, -24(%rbp)
Ltmp863:
	.loc	18 1203 35 prologue_end
	movq	%rdi, -16(%rbp)
Ltmp864:
	.loc	18 675 15
	movl	$1, %eax
	xorl	%ecx, %ecx
	cmpb	$2, 20(%rdi)
	cmoveq	%rcx, %rax
	.loc	18 675 9 is_stmt 0
	cmpq	$0, %rax
	jne	LBB94_2
	.loc	18 677 21 is_stmt 1
	movq	$0, -32(%rbp)
	jmp	LBB94_3
LBB94_2:
	.loc	18 0 21 is_stmt 0
	movq	-56(%rbp), %rax
	.loc	18 676 18 is_stmt 1
	movq	%rax, -8(%rbp)
Ltmp865:
	.loc	18 676 28 is_stmt 0
	movq	%rax, -32(%rbp)
Ltmp866:
LBB94_3:
	.loc	18 1203 23 is_stmt 1
	movq	-32(%rbp), %rax
	movq	%rax, -40(%rbp)
	.loc	18 1203 9 is_stmt 0
	movq	-40(%rbp), %rax
	movq	%rax, -48(%rbp)
	.loc	18 1204 6 is_stmt 1
	movq	-48(%rbp), %rax
	addq	$56, %rsp
	popq	%rbp
	retq
Ltmp867:
Lfunc_end94:
	.cfi_endproc

	.globl	__ZN4core6option15Option$LT$T$GT$4iter17hf4691f9fc656974bE
	.p2align	4, 0x90
__ZN4core6option15Option$LT$T$GT$4iter17hf4691f9fc656974bE:
Lfunc_begin95:
	.loc	18 1202 0
	.cfi_startproc
	pushq	%rbp
	.cfi_def_cfa_offset 16
	.cfi_offset %rbp, -16
	movq	%rsp, %rbp
	.cfi_def_cfa_register %rbp
	subq	$56, %rsp
	movq	%rdi, -56(%rbp)
	movq	%rdi, -24(%rbp)
Ltmp868:
	.loc	18 1203 35 prologue_end
	movq	%rdi, -16(%rbp)
Ltmp869:
	.loc	18 675 15
	movq	(%rdi), %rdx
	movl	$1, %eax
	xorl	%ecx, %ecx
	cmpq	$0, %rdx
	cmoveq	%rcx, %rax
	.loc	18 675 9 is_stmt 0
	cmpq	$0, %rax
	jne	LBB95_2
	.loc	18 677 21 is_stmt 1
	movq	$0, -32(%rbp)
	jmp	LBB95_3
LBB95_2:
	.loc	18 0 21 is_stmt 0
	movq	-56(%rbp), %rax
	.loc	18 676 18 is_stmt 1
	movq	%rax, -8(%rbp)
Ltmp870:
	.loc	18 676 28 is_stmt 0
	movq	%rax, -32(%rbp)
Ltmp871:
LBB95_3:
	.loc	18 1203 23 is_stmt 1
	movq	-32(%rbp), %rax
	movq	%rax, -40(%rbp)
	.loc	18 1203 9 is_stmt 0
	movq	-40(%rbp), %rax
	movq	%rax, -48(%rbp)
	.loc	18 1204 6 is_stmt 1
	movq	-48(%rbp), %rax
	addq	$56, %rsp
	popq	%rbp
	retq
Ltmp872:
Lfunc_end95:
	.cfi_endproc

	.globl	__ZN4core6option15Option$LT$T$GT$6as_mut17habca6dabd683efb5E
	.p2align	4, 0x90
__ZN4core6option15Option$LT$T$GT$6as_mut17habca6dabd683efb5E:
Lfunc_begin96:
	.loc	18 696 0
	.cfi_startproc
	pushq	%rbp
	.cfi_def_cfa_offset 16
	.cfi_offset %rbp, -16
	movq	%rsp, %rbp
	.cfi_def_cfa_register %rbp
	subq	$32, %rsp
	movq	%rdi, -32(%rbp)
	movq	%rdi, -16(%rbp)
Ltmp873:
	.loc	18 697 15 prologue_end
	movl	$1, %eax
	xorl	%ecx, %ecx
	cmpq	$3, 384(%rdi)
	cmoveq	%rcx, %rax
	.loc	18 697 9 is_stmt 0
	cmpq	$0, %rax
	jne	LBB96_2
	.loc	18 699 21 is_stmt 1
	movq	$0, -24(%rbp)
	jmp	LBB96_3
LBB96_2:
	.loc	18 0 21 is_stmt 0
	movq	-32(%rbp), %rax
	.loc	18 698 18 is_stmt 1
	movq	%rax, -8(%rbp)
Ltmp874:
	.loc	18 698 32 is_stmt 0
	movq	%rax, -24(%rbp)
Ltmp875:
LBB96_3:
	.loc	18 701 6 is_stmt 1
	movq	-24(%rbp), %rax
	addq	$32, %rsp
	popq	%rbp
	retq
Ltmp876:
Lfunc_end96:
	.cfi_endproc

	.globl	__ZN4core6option15Option$LT$T$GT$6as_ref17h599701868371e2a5E
	.p2align	4, 0x90
__ZN4core6option15Option$LT$T$GT$6as_ref17h599701868371e2a5E:
Lfunc_begin97:
	.loc	18 674 0
	.cfi_startproc
	pushq	%rbp
	.cfi_def_cfa_offset 16
	.cfi_offset %rbp, -16
	movq	%rsp, %rbp
	.cfi_def_cfa_register %rbp
	subq	$32, %rsp
	movq	%rdi, -32(%rbp)
	movq	%rdi, -16(%rbp)
Ltmp877:
	.loc	18 675 15 prologue_end
	movl	$1, %eax
	xorl	%ecx, %ecx
	cmpq	$3, 384(%rdi)
	cmoveq	%rcx, %rax
	.loc	18 675 9 is_stmt 0
	cmpq	$0, %rax
	jne	LBB97_2
	.loc	18 677 21 is_stmt 1
	movq	$0, -24(%rbp)
	jmp	LBB97_3
LBB97_2:
	.loc	18 0 21 is_stmt 0
	movq	-32(%rbp), %rax
	.loc	18 676 18 is_stmt 1
	movq	%rax, -8(%rbp)
Ltmp878:
	.loc	18 676 28 is_stmt 0
	movq	%rax, -24(%rbp)
Ltmp879:
LBB97_3:
	.loc	18 679 6 is_stmt 1
	movq	-24(%rbp), %rax
	addq	$32, %rsp
	popq	%rbp
	retq
Ltmp880:
Lfunc_end97:
	.cfi_endproc

	.globl	__ZN4core6option15Option$LT$T$GT$6insert17h08c7612e6536bb5aE
	.p2align	4, 0x90
__ZN4core6option15Option$LT$T$GT$6insert17h08c7612e6536bb5aE:
Lfunc_begin98:
	.loc	18 1484 0
	.cfi_startproc
	pushq	%rbp
	.cfi_def_cfa_offset 16
	.cfi_offset %rbp, -16
	movq	%rsp, %rbp
	.cfi_def_cfa_register %rbp
	subq	$144, %rsp
	movq	%rdi, -136(%rbp)
	movq	%rdi, -40(%rbp)
Ltmp881:
	.loc	18 1488 22 prologue_end
	leaq	-88(%rbp), %rdi
	movl	$40, %edx
	callq	_memcpy
Ltmp882:
	.loc	18 1488 17 is_stmt 0
	leaq	-128(%rbp), %rdi
	leaq	-88(%rbp), %rsi
	movl	$40, %edx
	callq	_memcpy
Ltmp883:
	.loc	18 0 17
	movq	-136(%rbp), %rdi
	.loc	18 1488 9
	leaq	-128(%rbp), %rsi
	movl	$40, %edx
	callq	_memcpy
	movq	-136(%rbp), %rdx
	.loc	18 1491 18 is_stmt 1
	movq	%rdx, -16(%rbp)
Ltmp884:
	.loc	18 697 15
	movl	$1, %eax
	xorl	%ecx, %ecx
	cmpb	$2, 32(%rdx)
	cmoveq	%rcx, %rax
	.loc	18 697 9 is_stmt 0
	cmpq	$0, %rax
	jne	LBB98_3
Ltmp885:
	.loc	18 699 21 is_stmt 1
	movq	$0, -48(%rbp)
	jmp	LBB98_4
Ltmp886:
LBB98_3:
	.loc	18 0 21 is_stmt 0
	movq	-136(%rbp), %rax
	.loc	18 698 18 is_stmt 1
	movq	%rax, -8(%rbp)
Ltmp887:
	.loc	18 698 32 is_stmt 0
	movq	%rax, -48(%rbp)
Ltmp888:
LBB98_4:
	.loc	18 1491 18 is_stmt 1
	movq	-48(%rbp), %rdi
	leaq	l___unnamed_8(%rip), %rsi
	callq	__ZN4core6option15Option$LT$T$GT$16unwrap_unchecked17h2448e53f0b27bea3E
	.loc	18 1492 6
	addq	$144, %rsp
	popq	%rbp
	retq
Ltmp889:
Lfunc_end98:
	.cfi_endproc

	.globl	__ZN4core6option15Option$LT$T$GT$6insert17h5b402bc0c7c11de7E
	.p2align	4, 0x90
__ZN4core6option15Option$LT$T$GT$6insert17h5b402bc0c7c11de7E:
Lfunc_begin99:
	.loc	18 1484 0
	.cfi_startproc
	pushq	%rbp
	.cfi_def_cfa_offset 16
	.cfi_offset %rbp, -16
	movq	%rsp, %rbp
	.cfi_def_cfa_register %rbp
	subq	$144, %rsp
	movq	%rdi, -136(%rbp)
	movq	%rdi, -40(%rbp)
Ltmp890:
	.loc	18 1488 22 prologue_end
	leaq	-88(%rbp), %rdi
	movl	$40, %edx
	callq	_memcpy
Ltmp891:
	.loc	18 1488 17 is_stmt 0
	leaq	-128(%rbp), %rdi
	leaq	-88(%rbp), %rsi
	movl	$40, %edx
	callq	_memcpy
Ltmp892:
	.loc	18 0 17
	movq	-136(%rbp), %rdi
	.loc	18 1488 9
	leaq	-128(%rbp), %rsi
	movl	$40, %edx
	callq	_memcpy
	movq	-136(%rbp), %rax
	.loc	18 1491 18 is_stmt 1
	movq	%rax, -16(%rbp)
Ltmp893:
	.loc	18 697 15
	movq	(%rax), %rdx
	movl	$1, %eax
	xorl	%ecx, %ecx
	cmpq	$0, %rdx
	cmoveq	%rcx, %rax
	.loc	18 697 9 is_stmt 0
	cmpq	$0, %rax
	jne	LBB99_3
Ltmp894:
	.loc	18 699 21 is_stmt 1
	movq	$0, -48(%rbp)
	jmp	LBB99_4
Ltmp895:
LBB99_3:
	.loc	18 0 21 is_stmt 0
	movq	-136(%rbp), %rax
	.loc	18 698 18 is_stmt 1
	movq	%rax, -8(%rbp)
Ltmp896:
	.loc	18 698 32 is_stmt 0
	movq	%rax, -48(%rbp)
Ltmp897:
LBB99_4:
	.loc	18 1491 18 is_stmt 1
	movq	-48(%rbp), %rdi
	leaq	l___unnamed_8(%rip), %rsi
	callq	__ZN4core6option15Option$LT$T$GT$16unwrap_unchecked17h742235fa398056ffE
	.loc	18 1492 6
	addq	$144, %rsp
	popq	%rbp
	retq
Ltmp898:
Lfunc_end99:
	.cfi_endproc

	.globl	__ZN4core6option15Option$LT$T$GT$6map_or17haa4fecdda7ba9093E
	.p2align	4, 0x90
__ZN4core6option15Option$LT$T$GT$6map_or17haa4fecdda7ba9093E:
Lfunc_begin100:
	.loc	18 1026 0
	.cfi_startproc
	.cfi_personality 155, _rust_eh_personality
	.cfi_lsda 16, Lexception25
	pushq	%rbp
	.cfi_def_cfa_offset 16
	.cfi_offset %rbp, -16
	movq	%rsp, %rbp
	.cfi_def_cfa_register %rbp
	subq	$80, %rsp
	movq	%rdx, -80(%rbp)
Ltmp902:
	movq	%rdi, -72(%rbp)
	movq	%rdi, -64(%rbp)
	movq	%rsi, -56(%rbp)
Ltmp903:
	.loc	18 1032 15 prologue_end
	movb	$1, -33(%rbp)
	movb	$1, -34(%rbp)
	movq	-56(%rbp), %rdx
Ltmp904:
	movl	$1, %eax
	xorl	%ecx, %ecx
	cmpq	$0, %rdx
	cmoveq	%rcx, %rax
	.loc	18 1032 9 is_stmt 0
	cmpq	$0, %rax
Ltmp905:
	jne	LBB100_2
Ltmp906:
	.loc	18 0 9
	movq	-72(%rbp), %rax
	movq	-80(%rbp), %rcx
	.loc	18 1034 21 is_stmt 1
	movb	$0, -33(%rbp)
	movq	(%rcx), %rdx
	movq	%rdx, (%rax)
	movq	8(%rcx), %rdx
	movq	%rdx, 8(%rax)
	movq	16(%rcx), %rcx
	movq	%rcx, 16(%rax)
	jmp	LBB100_6
Ltmp907:
LBB100_2:
	.loc	18 0 21 is_stmt 0
	movq	-72(%rbp), %rdi
	.loc	18 1033 18 is_stmt 1
	movq	-56(%rbp), %rax
	movq	%rax, -24(%rbp)
Ltmp908:
	.loc	18 1033 24 is_stmt 0
	movb	$0, -34(%rbp)
	movq	%rax, -48(%rbp)
	movq	-48(%rbp), %rsi
Ltmp899:
	callq	__ZN4core3ops8function6FnOnce9call_once17hf4d41e8ae42a2a25E
Ltmp900:
	jmp	LBB100_5
Ltmp909:
LBB100_3:
	.loc	18 1036 5 is_stmt 1
	testb	$1, -33(%rbp)
	jne	LBB100_10
	jmp	LBB100_9
Ltmp910:
LBB100_4:
Ltmp901:
	.loc	18 0 5 is_stmt 0
	movq	%rax, %rcx
	movl	%edx, %eax
	movq	%rcx, -16(%rbp)
	movl	%eax, -8(%rbp)
	jmp	LBB100_3
Ltmp911:
LBB100_5:
	.loc	18 1033 27 is_stmt 1
	jmp	LBB100_6
Ltmp912:
LBB100_6:
	.loc	18 1036 5
	testb	$1, -34(%rbp)
	jne	LBB100_8
Ltmp913:
LBB100_7:
	testb	$1, -33(%rbp)
	jne	LBB100_12
	jmp	LBB100_11
Ltmp914:
LBB100_8:
	jmp	LBB100_7
Ltmp915:
LBB100_9:
	.loc	18 1026 5
	movq	-16(%rbp), %rdi
	callq	__Unwind_Resume
Ltmp916:
LBB100_10:
	.loc	18 1036 5
	jmp	LBB100_9
Ltmp917:
LBB100_11:
	.loc	18 0 5 is_stmt 0
	movq	-64(%rbp), %rax
	.loc	18 1036 6
	addq	$80, %rsp
	popq	%rbp
	retq
Ltmp918:
LBB100_12:
	.loc	18 1036 5
	jmp	LBB100_11
Ltmp919:
Lfunc_end100:
	.cfi_endproc
	.section	__TEXT,__gcc_except_tab
	.p2align	2
GCC_except_table100:
Lexception25:
	.byte	255
	.byte	255
	.byte	1
	.uleb128 Lcst_end25-Lcst_begin25
Lcst_begin25:
	.uleb128 Ltmp899-Lfunc_begin100
	.uleb128 Ltmp900-Ltmp899
	.uleb128 Ltmp901-Lfunc_begin100
	.byte	0
	.uleb128 Ltmp900-Lfunc_begin100
	.uleb128 Lfunc_end100-Ltmp900
	.byte	0
	.byte	0
Lcst_end25:
	.p2align	2

	.section	__TEXT,__text,regular,pure_instructions
	.globl	__ZN4core6option15Option$LT$T$GT$6map_or17hb6315d669178a203E
	.p2align	4, 0x90
__ZN4core6option15Option$LT$T$GT$6map_or17hb6315d669178a203E:
Lfunc_begin101:
	.loc	18 1026 0 is_stmt 1
	.cfi_startproc
	.cfi_personality 155, _rust_eh_personality
	.cfi_lsda 16, Lexception26
	pushq	%rbp
	.cfi_def_cfa_offset 16
	.cfi_offset %rbp, -16
	movq	%rsp, %rbp
	.cfi_def_cfa_register %rbp
	subq	$80, %rsp
	movq	%rdx, -80(%rbp)
Ltmp923:
	movq	%rdi, -72(%rbp)
	movq	%rdi, -64(%rbp)
	movq	%rsi, -56(%rbp)
Ltmp924:
	.loc	18 1032 15 prologue_end
	movb	$1, -33(%rbp)
	movb	$1, -34(%rbp)
	movq	-56(%rbp), %rdx
Ltmp925:
	movl	$1, %eax
	xorl	%ecx, %ecx
	cmpq	$0, %rdx
	cmoveq	%rcx, %rax
	.loc	18 1032 9 is_stmt 0
	cmpq	$0, %rax
Ltmp926:
	jne	LBB101_2
Ltmp927:
	.loc	18 0 9
	movq	-72(%rbp), %rax
	movq	-80(%rbp), %rcx
	.loc	18 1034 21 is_stmt 1
	movb	$0, -33(%rbp)
	movq	(%rcx), %rdx
	movq	%rdx, (%rax)
	movq	8(%rcx), %rdx
	movq	%rdx, 8(%rax)
	movq	16(%rcx), %rcx
	movq	%rcx, 16(%rax)
	jmp	LBB101_6
Ltmp928:
LBB101_2:
	.loc	18 0 21 is_stmt 0
	movq	-72(%rbp), %rdi
	.loc	18 1033 18 is_stmt 1
	movq	-56(%rbp), %rax
	movq	%rax, -24(%rbp)
Ltmp929:
	.loc	18 1033 24 is_stmt 0
	movb	$0, -34(%rbp)
	movq	%rax, -48(%rbp)
	movq	-48(%rbp), %rsi
Ltmp920:
	callq	__ZN4core3ops8function6FnOnce9call_once17h18a95adbed26e877E
Ltmp921:
	jmp	LBB101_5
Ltmp930:
LBB101_3:
	.loc	18 1036 5 is_stmt 1
	testb	$1, -33(%rbp)
	jne	LBB101_10
	jmp	LBB101_9
Ltmp931:
LBB101_4:
Ltmp922:
	.loc	18 0 5 is_stmt 0
	movq	%rax, %rcx
	movl	%edx, %eax
	movq	%rcx, -16(%rbp)
	movl	%eax, -8(%rbp)
	jmp	LBB101_3
Ltmp932:
LBB101_5:
	.loc	18 1033 27 is_stmt 1
	jmp	LBB101_6
Ltmp933:
LBB101_6:
	.loc	18 1036 5
	testb	$1, -34(%rbp)
	jne	LBB101_8
Ltmp934:
LBB101_7:
	testb	$1, -33(%rbp)
	jne	LBB101_12
	jmp	LBB101_11
Ltmp935:
LBB101_8:
	jmp	LBB101_7
Ltmp936:
LBB101_9:
	.loc	18 1026 5
	movq	-16(%rbp), %rdi
	callq	__Unwind_Resume
Ltmp937:
LBB101_10:
	.loc	18 1036 5
	jmp	LBB101_9
Ltmp938:
LBB101_11:
	.loc	18 0 5 is_stmt 0
	movq	-64(%rbp), %rax
	.loc	18 1036 6
	addq	$80, %rsp
	popq	%rbp
	retq
Ltmp939:
LBB101_12:
	.loc	18 1036 5
	jmp	LBB101_11
Ltmp940:
Lfunc_end101:
	.cfi_endproc
	.section	__TEXT,__gcc_except_tab
	.p2align	2
GCC_except_table101:
Lexception26:
	.byte	255
	.byte	255
	.byte	1
	.uleb128 Lcst_end26-Lcst_begin26
Lcst_begin26:
	.uleb128 Ltmp920-Lfunc_begin101
	.uleb128 Ltmp921-Ltmp920
	.uleb128 Ltmp922-Lfunc_begin101
	.byte	0
	.uleb128 Ltmp921-Lfunc_begin101
	.uleb128 Lfunc_end101-Ltmp921
	.byte	0
	.byte	0
Lcst_end26:
	.p2align	2

	.section	__TEXT,__text,regular,pure_instructions
	.globl	__ZN50_$LT$T$u20$as$u20$core..convert..Into$LT$U$GT$$GT$4into17h1dd3a64edacfc469E
	.p2align	4, 0x90
__ZN50_$LT$T$u20$as$u20$core..convert..Into$LT$U$GT$$GT$4into17h1dd3a64edacfc469E:
Lfunc_begin102:
	.file	33 "/rustc/2c8cc343237b8f7d5a3c3703e3a87f2eb2c54a74/library/core/src/convert" "mod.rs"
	.loc	33 725 0 is_stmt 1
	.cfi_startproc
	pushq	%rbp
	.cfi_def_cfa_offset 16
	.cfi_offset %rbp, -16
	movq	%rsp, %rbp
	.cfi_def_cfa_register %rbp
	subq	$16, %rsp
	movq	%rdi, -8(%rbp)
Ltmp941:
	.loc	33 726 9 prologue_end
	callq	__ZN5alloc5boxed140_$LT$impl$u20$core..convert..From$LT$alloc..boxed..Box$LT$T$C$A$GT$$GT$$u20$for$u20$core..pin..Pin$LT$alloc..boxed..Box$LT$T$C$A$GT$$GT$$GT$4from17h298d66160f311bd6E
	.loc	33 727 6
	addq	$16, %rsp
	popq	%rbp
	retq
Ltmp942:
Lfunc_end102:
	.cfi_endproc

	.globl	__ZN5alloc3vec16Vec$LT$T$C$A$GT$16extend_desugared17h044ef53434c73662E
	.p2align	4, 0x90
__ZN5alloc3vec16Vec$LT$T$C$A$GT$16extend_desugared17h044ef53434c73662E:
Lfunc_begin103:
	.loc	9 2845 0
	.cfi_startproc
	.cfi_personality 155, _rust_eh_personality
	.cfi_lsda 16, Lexception27
	pushq	%rbp
	.cfi_def_cfa_offset 16
	.cfi_offset %rbp, -16
	movq	%rsp, %rbp
	.cfi_def_cfa_register %rbp
	subq	$624, %rsp
	movq	%rdi, -584(%rbp)
	movq	%rsi, -576(%rbp)
Ltmp951:
	movq	%rdi, -216(%rbp)
Ltmp952:
LBB103_1:
Ltmp943:
	movq	-576(%rbp), %rsi
	leaq	-568(%rbp), %rdi
Ltmp953:
	.loc	9 2853 35 prologue_end
	callq	__ZN108_$LT$core..iter..adapters..filter..Filter$LT$I$C$P$GT$$u20$as$u20$core..iter..traits..iterator..Iterator$GT$4next17h96f7fd84ac7706b0E
Ltmp944:
	jmp	LBB103_4
Ltmp954:
LBB103_2:
	.loc	9 2845 5
	movq	-208(%rbp), %rdi
	callq	__Unwind_Resume
Ltmp955:
LBB103_3:
Ltmp945:
	.loc	9 0 5 is_stmt 0
	movq	%rax, %rcx
	movl	%edx, %eax
	movq	%rcx, -208(%rbp)
	movl	%eax, -200(%rbp)
	jmp	LBB103_2
Ltmp956:
LBB103_4:
	.loc	9 2853 19 is_stmt 1
	movl	$1, %eax
	xorl	%ecx, %ecx
	cmpq	$9, -568(%rbp)
	cmoveq	%rcx, %rax
	cmpq	$1, %rax
	jne	LBB103_6
Ltmp957:
	.loc	9 2853 24 is_stmt 0
	leaq	-464(%rbp), %rdi
	leaq	-568(%rbp), %rsi
	movl	$104, %edx
	callq	_memcpy
	movq	-584(%rbp), %rax
	.loc	9 2854 23 is_stmt 1
	movq	%rax, -192(%rbp)
Ltmp958:
	.loc	9 2062 9
	movq	16(%rax), %rcx
	movq	%rcx, -592(%rbp)
	movq	%rcx, -184(%rbp)
Ltmp959:
	.loc	9 2855 23
	movq	%rax, -176(%rbp)
Ltmp960:
	.loc	9 889 9
	movq	%rax, -168(%rbp)
Ltmp961:
	.loc	12 232 12
	xorl	%eax, %eax
	testb	$1, %al
	jne	LBB103_9
	jmp	LBB103_8
Ltmp962:
LBB103_6:
	.loc	9 2853 9
	jmp	LBB103_7
Ltmp963:
LBB103_7:
	.loc	9 2867 6
	addq	$624, %rsp
	popq	%rbp
	retq
Ltmp964:
LBB103_8:
	.loc	9 0 6 is_stmt 0
	movq	-584(%rbp), %rax
Ltmp965:
	.loc	12 232 44 is_stmt 1
	movq	(%rax), %rax
	movq	%rax, -360(%rbp)
	.loc	12 232 9 is_stmt 0
	jmp	LBB103_10
Ltmp966:
LBB103_9:
	.loc	12 232 24
	movq	$-1, -360(%rbp)
Ltmp967:
LBB103_10:
	.loc	12 0 24
	movq	-592(%rbp), %rax
	.loc	9 2855 16 is_stmt 1
	cmpq	-360(%rbp), %rax
	je	LBB103_12
Ltmp968:
LBB103_11:
	.loc	9 0 16 is_stmt 0
	movq	-584(%rbp), %rax
	.loc	9 2860 28 is_stmt 1
	movq	%rax, -136(%rbp)
Ltmp969:
	.loc	9 1280 19
	movq	%rax, -128(%rbp)
Ltmp970:
	.loc	12 224 9
	movq	8(%rax), %rax
	movq	%rax, -600(%rbp)
	movq	%rax, -120(%rbp)
Ltmp971:
	.loc	13 104 9
	movq	%rax, -112(%rbp)
Ltmp972:
	.loc	14 326 9
	movq	%rax, -104(%rbp)
Ltmp973:
	.loc	9 1282 21
	movq	%rax, -96(%rbp)
Ltmp974:
	.loc	15 52 36
	movq	%rax, -224(%rbp)
	.loc	15 52 18 is_stmt 0
	movq	-224(%rbp), %rax
	movq	%rax, -88(%rbp)
Ltmp975:
	.loc	15 38 13 is_stmt 1
	movq	%rax, -80(%rbp)
Ltmp976:
	.loc	15 215 33
	movq	%rax, -72(%rbp)
	.loc	15 215 18 is_stmt 0
	movq	%rax, -64(%rbp)
	movq	-64(%rbp), %rax
	jmp	LBB103_18
Ltmp977:
LBB103_12:
Ltmp946:
	.loc	15 0 18
	movq	-576(%rbp), %rsi
	leaq	-352(%rbp), %rdi
	.loc	9 2856 34 is_stmt 1
	callq	__ZN108_$LT$core..iter..adapters..filter..Filter$LT$I$C$P$GT$$u20$as$u20$core..iter..traits..iterator..Iterator$GT$9size_hint17h334f309f84ab87a8E
Ltmp947:
	jmp	LBB103_15
Ltmp978:
LBB103_13:
	.loc	9 2866 9
	movb	$1, %al
	testb	$1, %al
	jne	LBB103_20
	jmp	LBB103_2
Ltmp979:
LBB103_14:
Ltmp950:
	.loc	9 0 9 is_stmt 0
	movq	%rax, %rcx
	movl	%edx, %eax
	movq	%rcx, -208(%rbp)
	movl	%eax, -200(%rbp)
	jmp	LBB103_13
Ltmp980:
LBB103_15:
	.loc	9 2856 22 is_stmt 1
	movq	-352(%rbp), %rax
	movq	%rax, -160(%rbp)
Ltmp981:
	.loc	9 2857 30
	movq	%rax, -152(%rbp)
Ltmp982:
	.loc	10 1022 13
	incq	%rax
	movq	$-1, %rcx
	cmoveq	%rcx, %rax
	movq	%rax, -144(%rbp)
	movq	-144(%rbp), %rax
	movq	%rax, -608(%rbp)
Ltmp983:
Ltmp948:
	.loc	10 0 13 is_stmt 0
	movq	-608(%rbp), %rsi
	movq	-584(%rbp), %rdi
	.loc	9 2857 17 is_stmt 1
	callq	__ZN5alloc3vec16Vec$LT$T$C$A$GT$7reserve17hfe892f6ae610af48E
Ltmp949:
	jmp	LBB103_17
Ltmp984:
LBB103_17:
	.loc	9 2855 13
	jmp	LBB103_11
Ltmp985:
LBB103_18:
	.loc	9 0 13 is_stmt 0
	movq	-600(%rbp), %rax
	movq	-592(%rbp), %rcx
	.loc	9 2860 50 is_stmt 1
	movq	%rcx, -56(%rbp)
Ltmp986:
	.loc	15 1034 18
	movq	%rax, -48(%rbp)
	.loc	15 1034 30 is_stmt 0
	movq	%rcx, -40(%rbp)
Ltmp987:
	.loc	15 487 18 is_stmt 1
	imulq	$104, %rcx, %rcx
	addq	%rcx, %rax
	movq	%rax, -32(%rbp)
	movq	-32(%rbp), %rax
	movq	%rax, -616(%rbp)
Ltmp988:
	.loc	15 0 18 is_stmt 0
	movq	-616(%rbp), %rax
	.loc	15 487 18
	movq	%rax, -24(%rbp)
Ltmp989:
	.loc	9 2860 56 is_stmt 1
	leaq	-328(%rbp), %rdi
	leaq	-464(%rbp), %rsi
	movl	$104, %edx
	callq	_memcpy
	movq	-616(%rbp), %rdi
Ltmp990:
	.loc	16 1354 9
	leaq	-328(%rbp), %rsi
	movl	$104, %edx
	callq	_memcpy
	movq	-592(%rbp), %rcx
	movq	-584(%rbp), %rax
Ltmp991:
	.loc	9 2864 17
	movq	%rax, -16(%rbp)
	.loc	9 2864 30 is_stmt 0
	addq	$1, %rcx
	movq	%rcx, -8(%rbp)
Ltmp992:
	.loc	9 1377 9 is_stmt 1
	movq	%rcx, 16(%rax)
Ltmp993:
	.loc	9 2853 9
	jmp	LBB103_1
Ltmp994:
LBB103_20:
	.loc	9 2866 9
	jmp	LBB103_2
Ltmp995:
Lfunc_end103:
	.cfi_endproc
	.section	__TEXT,__gcc_except_tab
	.p2align	2
GCC_except_table103:
Lexception27:
	.byte	255
	.byte	255
	.byte	1
	.uleb128 Lcst_end27-Lcst_begin27
Lcst_begin27:
	.uleb128 Ltmp943-Lfunc_begin103
	.uleb128 Ltmp944-Ltmp943
	.uleb128 Ltmp945-Lfunc_begin103
	.byte	0
	.uleb128 Ltmp944-Lfunc_begin103
	.uleb128 Ltmp946-Ltmp944
	.byte	0
	.byte	0
	.uleb128 Ltmp946-Lfunc_begin103
	.uleb128 Ltmp949-Ltmp946
	.uleb128 Ltmp950-Lfunc_begin103
	.byte	0
	.uleb128 Ltmp949-Lfunc_begin103
	.uleb128 Lfunc_end103-Ltmp949
	.byte	0
	.byte	0
Lcst_end27:
	.p2align	2

	.section	__TEXT,__text,regular,pure_instructions
	.globl	__ZN5alloc3vec16Vec$LT$T$C$A$GT$16extend_desugared17h1e41d66133627061E
	.p2align	4, 0x90
__ZN5alloc3vec16Vec$LT$T$C$A$GT$16extend_desugared17h1e41d66133627061E:
Lfunc_begin104:
	.loc	9 2845 0
	.cfi_startproc
	.cfi_personality 155, _rust_eh_personality
	.cfi_lsda 16, Lexception28
	pushq	%rbp
	.cfi_def_cfa_offset 16
	.cfi_offset %rbp, -16
	movq	%rsp, %rbp
	.cfi_def_cfa_register %rbp
	subq	$576, %rsp
	movq	%rdi, -536(%rbp)
	movq	%rsi, -528(%rbp)
Ltmp1004:
	movq	%rdi, -216(%rbp)
Ltmp1005:
LBB104_1:
Ltmp996:
	movq	-528(%rbp), %rsi
	leaq	-520(%rbp), %rdi
Ltmp1006:
	.loc	9 2853 35 prologue_end
	callq	__ZN108_$LT$core..iter..adapters..filter..Filter$LT$I$C$P$GT$$u20$as$u20$core..iter..traits..iterator..Iterator$GT$4next17h45cae8aa2d0749a3E
Ltmp997:
	jmp	LBB104_4
Ltmp1007:
LBB104_2:
	.loc	9 2845 5
	movq	-208(%rbp), %rdi
	callq	__Unwind_Resume
Ltmp1008:
LBB104_3:
Ltmp998:
	.loc	9 0 5 is_stmt 0
	movq	%rax, %rcx
	movl	%edx, %eax
	movq	%rcx, -208(%rbp)
	movl	%eax, -200(%rbp)
	jmp	LBB104_2
Ltmp1009:
LBB104_4:
	.loc	9 2853 19 is_stmt 1
	movl	$1, %eax
	xorl	%ecx, %ecx
	cmpq	$4, -520(%rbp)
	cmoveq	%rcx, %rax
	cmpq	$1, %rax
	jne	LBB104_6
Ltmp1010:
	.loc	9 2853 24 is_stmt 0
	leaq	-432(%rbp), %rdi
	leaq	-520(%rbp), %rsi
	movl	$88, %edx
	callq	_memcpy
	movq	-536(%rbp), %rax
	.loc	9 2854 23 is_stmt 1
	movq	%rax, -192(%rbp)
Ltmp1011:
	.loc	9 2062 9
	movq	16(%rax), %rcx
	movq	%rcx, -544(%rbp)
	movq	%rcx, -184(%rbp)
Ltmp1012:
	.loc	9 2855 23
	movq	%rax, -176(%rbp)
Ltmp1013:
	.loc	9 889 9
	movq	%rax, -168(%rbp)
Ltmp1014:
	.loc	12 232 12
	xorl	%eax, %eax
	testb	$1, %al
	jne	LBB104_9
	jmp	LBB104_8
Ltmp1015:
LBB104_6:
	.loc	9 2853 9
	jmp	LBB104_7
Ltmp1016:
LBB104_7:
	.loc	9 2867 6
	addq	$576, %rsp
	popq	%rbp
	retq
Ltmp1017:
LBB104_8:
	.loc	9 0 6 is_stmt 0
	movq	-536(%rbp), %rax
Ltmp1018:
	.loc	12 232 44 is_stmt 1
	movq	(%rax), %rax
	movq	%rax, -344(%rbp)
	.loc	12 232 9 is_stmt 0
	jmp	LBB104_10
Ltmp1019:
LBB104_9:
	.loc	12 232 24
	movq	$-1, -344(%rbp)
Ltmp1020:
LBB104_10:
	.loc	12 0 24
	movq	-544(%rbp), %rax
	.loc	9 2855 16 is_stmt 1
	cmpq	-344(%rbp), %rax
	je	LBB104_12
Ltmp1021:
LBB104_11:
	.loc	9 0 16 is_stmt 0
	movq	-536(%rbp), %rax
	.loc	9 2860 28 is_stmt 1
	movq	%rax, -136(%rbp)
Ltmp1022:
	.loc	9 1280 19
	movq	%rax, -128(%rbp)
Ltmp1023:
	.loc	12 224 9
	movq	8(%rax), %rax
	movq	%rax, -552(%rbp)
	movq	%rax, -120(%rbp)
Ltmp1024:
	.loc	13 104 9
	movq	%rax, -112(%rbp)
Ltmp1025:
	.loc	14 326 9
	movq	%rax, -104(%rbp)
Ltmp1026:
	.loc	9 1282 21
	movq	%rax, -96(%rbp)
Ltmp1027:
	.loc	15 52 36
	movq	%rax, -224(%rbp)
	.loc	15 52 18 is_stmt 0
	movq	-224(%rbp), %rax
	movq	%rax, -88(%rbp)
Ltmp1028:
	.loc	15 38 13 is_stmt 1
	movq	%rax, -80(%rbp)
Ltmp1029:
	.loc	15 215 33
	movq	%rax, -72(%rbp)
	.loc	15 215 18 is_stmt 0
	movq	%rax, -64(%rbp)
	movq	-64(%rbp), %rax
	jmp	LBB104_18
Ltmp1030:
LBB104_12:
Ltmp999:
	.loc	15 0 18
	movq	-528(%rbp), %rsi
	leaq	-336(%rbp), %rdi
	.loc	9 2856 34 is_stmt 1
	callq	__ZN108_$LT$core..iter..adapters..filter..Filter$LT$I$C$P$GT$$u20$as$u20$core..iter..traits..iterator..Iterator$GT$9size_hint17h4eb8cf8b08fb2c78E
Ltmp1000:
	jmp	LBB104_15
Ltmp1031:
LBB104_13:
	.loc	9 2866 9
	movb	$1, %al
	testb	$1, %al
	jne	LBB104_20
	jmp	LBB104_2
Ltmp1032:
LBB104_14:
Ltmp1003:
	.loc	9 0 9 is_stmt 0
	movq	%rax, %rcx
	movl	%edx, %eax
	movq	%rcx, -208(%rbp)
	movl	%eax, -200(%rbp)
	jmp	LBB104_13
Ltmp1033:
LBB104_15:
	.loc	9 2856 22 is_stmt 1
	movq	-336(%rbp), %rax
	movq	%rax, -160(%rbp)
Ltmp1034:
	.loc	9 2857 30
	movq	%rax, -152(%rbp)
Ltmp1035:
	.loc	10 1022 13
	incq	%rax
	movq	$-1, %rcx
	cmoveq	%rcx, %rax
	movq	%rax, -144(%rbp)
	movq	-144(%rbp), %rax
	movq	%rax, -560(%rbp)
Ltmp1036:
Ltmp1001:
	.loc	10 0 13 is_stmt 0
	movq	-560(%rbp), %rsi
	movq	-536(%rbp), %rdi
	.loc	9 2857 17 is_stmt 1
	callq	__ZN5alloc3vec16Vec$LT$T$C$A$GT$7reserve17h11bafec7f2c0d10dE
Ltmp1002:
	jmp	LBB104_17
Ltmp1037:
LBB104_17:
	.loc	9 2855 13
	jmp	LBB104_11
Ltmp1038:
LBB104_18:
	.loc	9 0 13 is_stmt 0
	movq	-552(%rbp), %rax
	movq	-544(%rbp), %rcx
	.loc	9 2860 50 is_stmt 1
	movq	%rcx, -56(%rbp)
Ltmp1039:
	.loc	15 1034 18
	movq	%rax, -48(%rbp)
	.loc	15 1034 30 is_stmt 0
	movq	%rcx, -40(%rbp)
Ltmp1040:
	.loc	15 487 18 is_stmt 1
	imulq	$88, %rcx, %rcx
	addq	%rcx, %rax
	movq	%rax, -32(%rbp)
	movq	-32(%rbp), %rax
	movq	%rax, -568(%rbp)
Ltmp1041:
	.loc	15 0 18 is_stmt 0
	movq	-568(%rbp), %rax
	.loc	15 487 18
	movq	%rax, -24(%rbp)
Ltmp1042:
	.loc	9 2860 56 is_stmt 1
	leaq	-312(%rbp), %rdi
	leaq	-432(%rbp), %rsi
	movl	$88, %edx
	callq	_memcpy
	movq	-568(%rbp), %rdi
Ltmp1043:
	.loc	16 1354 9
	leaq	-312(%rbp), %rsi
	movl	$88, %edx
	callq	_memcpy
	movq	-544(%rbp), %rcx
	movq	-536(%rbp), %rax
Ltmp1044:
	.loc	9 2864 17
	movq	%rax, -16(%rbp)
	.loc	9 2864 30 is_stmt 0
	addq	$1, %rcx
	movq	%rcx, -8(%rbp)
Ltmp1045:
	.loc	9 1377 9 is_stmt 1
	movq	%rcx, 16(%rax)
Ltmp1046:
	.loc	9 2853 9
	jmp	LBB104_1
Ltmp1047:
LBB104_20:
	.loc	9 2866 9
	jmp	LBB104_2
Ltmp1048:
Lfunc_end104:
	.cfi_endproc
	.section	__TEXT,__gcc_except_tab
	.p2align	2
GCC_except_table104:
Lexception28:
	.byte	255
	.byte	255
	.byte	1
	.uleb128 Lcst_end28-Lcst_begin28
Lcst_begin28:
	.uleb128 Ltmp996-Lfunc_begin104
	.uleb128 Ltmp997-Ltmp996
	.uleb128 Ltmp998-Lfunc_begin104
	.byte	0
	.uleb128 Ltmp997-Lfunc_begin104
	.uleb128 Ltmp999-Ltmp997
	.byte	0
	.byte	0
	.uleb128 Ltmp999-Lfunc_begin104
	.uleb128 Ltmp1002-Ltmp999
	.uleb128 Ltmp1003-Lfunc_begin104
	.byte	0
	.uleb128 Ltmp1002-Lfunc_begin104
	.uleb128 Lfunc_end104-Ltmp1002
	.byte	0
	.byte	0
Lcst_end28:
	.p2align	2

	.section	__TEXT,__text,regular,pure_instructions
	.globl	__ZN5alloc3vec16Vec$LT$T$C$A$GT$3len17h2f59aad3d43501f9E
	.p2align	4, 0x90
__ZN5alloc3vec16Vec$LT$T$C$A$GT$3len17h2f59aad3d43501f9E:
Lfunc_begin105:
	.loc	9 2061 0
	.cfi_startproc
	pushq	%rbp
	.cfi_def_cfa_offset 16
	.cfi_offset %rbp, -16
	movq	%rsp, %rbp
	.cfi_def_cfa_register %rbp
	pushq	%rax
	movq	%rdi, -8(%rbp)
Ltmp1049:
	.loc	9 2062 9 prologue_end
	movq	16(%rdi), %rax
	.loc	9 2063 6
	addq	$8, %rsp
	popq	%rbp
	retq
Ltmp1050:
Lfunc_end105:
	.cfi_endproc

	.globl	__ZN5alloc3vec16Vec$LT$T$C$A$GT$6as_ptr17h8cfdd36b2560cfe2E
	.p2align	4, 0x90
__ZN5alloc3vec16Vec$LT$T$C$A$GT$6as_ptr17h8cfdd36b2560cfe2E:
Lfunc_begin106:
	.loc	9 1240 0
	.cfi_startproc
	pushq	%rbp
	.cfi_def_cfa_offset 16
	.cfi_offset %rbp, -16
	movq	%rsp, %rbp
	.cfi_def_cfa_register %rbp
	subq	$88, %rsp
	movq	%rdi, -80(%rbp)
Ltmp1051:
	.loc	9 1243 19 prologue_end
	movq	%rdi, -72(%rbp)
Ltmp1052:
	.loc	12 224 9
	movq	8(%rdi), %rax
	movq	%rax, -64(%rbp)
Ltmp1053:
	.loc	13 104 9
	movq	%rax, -56(%rbp)
Ltmp1054:
	.loc	14 326 9
	movq	%rax, -48(%rbp)
Ltmp1055:
	.loc	9 1245 21
	movq	%rax, -40(%rbp)
Ltmp1056:
	.loc	15 52 36
	movq	%rax, -88(%rbp)
	.loc	15 52 18 is_stmt 0
	movq	-88(%rbp), %rcx
	movq	%rcx, -32(%rbp)
Ltmp1057:
	.loc	15 38 13 is_stmt 1
	movq	%rcx, -24(%rbp)
Ltmp1058:
	.loc	15 215 33
	movq	%rcx, -16(%rbp)
	.loc	15 215 18 is_stmt 0
	movq	%rcx, -8(%rbp)
Ltmp1059:
	.loc	9 1248 6 is_stmt 1
	addq	$88, %rsp
	popq	%rbp
	retq
Ltmp1060:
Lfunc_end106:
	.cfi_endproc

	.globl	__ZN5alloc3vec16Vec$LT$T$C$A$GT$7reserve17h11bafec7f2c0d10dE
	.p2align	4, 0x90
__ZN5alloc3vec16Vec$LT$T$C$A$GT$7reserve17h11bafec7f2c0d10dE:
Lfunc_begin107:
	.loc	9 911 0
	.cfi_startproc
	pushq	%rbp
	.cfi_def_cfa_offset 16
	.cfi_offset %rbp, -16
	movq	%rsp, %rbp
	.cfi_def_cfa_register %rbp
	subq	$16, %rsp
	movq	%rsi, %rdx
	movq	%rdi, -16(%rbp)
	movq	%rdx, -8(%rbp)
Ltmp1061:
	.loc	9 912 26 prologue_end
	movq	16(%rdi), %rsi
	.loc	9 912 9 is_stmt 0
	callq	__ZN5alloc7raw_vec19RawVec$LT$T$C$A$GT$7reserve17h1cdba106c32a827aE
	.loc	9 913 6 is_stmt 1
	addq	$16, %rsp
	popq	%rbp
	retq
Ltmp1062:
Lfunc_end107:
	.cfi_endproc

	.globl	__ZN5alloc3vec16Vec$LT$T$C$A$GT$7reserve17hfe892f6ae610af48E
	.p2align	4, 0x90
__ZN5alloc3vec16Vec$LT$T$C$A$GT$7reserve17hfe892f6ae610af48E:
Lfunc_begin108:
	.loc	9 911 0
	.cfi_startproc
	pushq	%rbp
	.cfi_def_cfa_offset 16
	.cfi_offset %rbp, -16
	movq	%rsp, %rbp
	.cfi_def_cfa_register %rbp
	subq	$16, %rsp
	movq	%rsi, %rdx
	movq	%rdi, -16(%rbp)
	movq	%rdx, -8(%rbp)
Ltmp1063:
	.loc	9 912 26 prologue_end
	movq	16(%rdi), %rsi
	.loc	9 912 9 is_stmt 0
	callq	__ZN5alloc7raw_vec19RawVec$LT$T$C$A$GT$7reserve17h584845d52b748d55E
	.loc	9 913 6 is_stmt 1
	addq	$16, %rsp
	popq	%rbp
	retq
Ltmp1064:
Lfunc_end108:
	.cfi_endproc

	.p2align	4, 0x90
__ZN5alloc5alloc15exchange_malloc17h3c069f755667e20bE:
Lfunc_begin109:
	.file	34 "/rustc/2c8cc343237b8f7d5a3c3703e3a87f2eb2c54a74/library/alloc/src" "alloc.rs"
	.loc	34 324 0
	.cfi_startproc
	pushq	%rbp
	.cfi_def_cfa_offset 16
	.cfi_offset %rbp, -16
	movq	%rsp, %rbp
	.cfi_def_cfa_register %rbp
	subq	$208, %rsp
	movq	%rdi, -160(%rbp)
	movq	%rsi, -152(%rbp)
Ltmp1065:
	.loc	34 325 61 prologue_end
	movq	%rdi, -144(%rbp)
	.loc	34 325 67 is_stmt 0
	movq	%rsi, -136(%rbp)
Ltmp1066:
	.loc	28 120 65 is_stmt 1
	movq	%rsi, -128(%rbp)
Ltmp1067:
	.loc	29 89 18
	movq	%rsi, -120(%rbp)
	movq	-120(%rbp), %rax
Ltmp1068:
	.loc	28 120 18
	movq	%rdi, -200(%rbp)
	movq	%rax, -192(%rbp)
Ltmp1069:
	.loc	34 326 11
	leaq	l___unnamed_3(%rip), %rdi
	movq	%rdi, -112(%rbp)
	.loc	34 326 27 is_stmt 0
	movq	-200(%rbp), %rsi
	movq	-192(%rbp), %rdx
	movq	%rsi, -104(%rbp)
	movq	%rdx, -96(%rbp)
	xorl	%ecx, %ecx
Ltmp1070:
	.loc	34 237 9 is_stmt 1
	callq	__ZN5alloc5alloc6Global10alloc_impl17h94dbfb6148d2534aE
	movq	%rdx, -176(%rbp)
	movq	%rax, -184(%rbp)
Ltmp1071:
	.loc	34 326 11
	movq	-184(%rbp), %rdx
	xorl	%eax, %eax
	movl	$1, %ecx
	cmpq	$0, %rdx
	cmoveq	%rcx, %rax
	.loc	34 326 5 is_stmt 0
	cmpq	$0, %rax
	jne	LBB109_2
	.loc	34 327 12 is_stmt 1
	movq	-184(%rbp), %rax
	movq	-176(%rbp), %rcx
	movq	%rax, -88(%rbp)
	movq	%rcx, -80(%rbp)
Ltmp1072:
	.loc	34 327 20 is_stmt 0
	movq	%rax, -72(%rbp)
	movq	%rcx, -64(%rbp)
Ltmp1073:
	.loc	14 548 9 is_stmt 1
	movq	%rax, -56(%rbp)
	movq	%rcx, -48(%rbp)
Ltmp1074:
	.loc	14 529 41
	movq	%rax, -40(%rbp)
	movq	%rcx, -32(%rbp)
Ltmp1075:
	.loc	14 326 9
	movq	%rax, -24(%rbp)
	movq	%rcx, -16(%rbp)
Ltmp1076:
	.loc	15 2037 9
	movq	%rax, -8(%rbp)
Ltmp1077:
	.loc	14 201 13
	movq	%rax, -168(%rbp)
Ltmp1078:
	.loc	14 326 9
	movq	-168(%rbp), %rax
Ltmp1079:
	.loc	34 330 2
	addq	$208, %rsp
	popq	%rbp
	retq
LBB109_2:
Ltmp1080:
	.loc	34 328 38
	movq	-200(%rbp), %rdi
	movq	-192(%rbp), %rsi
	.loc	34 328 19 is_stmt 0
	callq	__ZN5alloc5alloc18handle_alloc_error17hb5f6ff255f23ea4dE
Ltmp1081:
Lfunc_end109:
	.cfi_endproc

	.p2align	4, 0x90
__ZN5alloc5alloc6Global10alloc_impl17h94dbfb6148d2534aE:
Lfunc_begin110:
	.loc	34 172 0 is_stmt 1
	.cfi_startproc
	pushq	%rbp
	.cfi_def_cfa_offset 16
	.cfi_offset %rbp, -16
	movq	%rsp, %rbp
	.cfi_def_cfa_register %rbp
	subq	$352, %rsp
	movb	%cl, %al
	movb	%al, -345(%rbp)
	movq	%rsi, -336(%rbp)
	movq	%rdx, -328(%rbp)
	movq	%rdi, -208(%rbp)
	andb	$1, %al
	movb	%al, -193(%rbp)
Ltmp1082:
	.loc	34 173 15 prologue_end
	leaq	-336(%rbp), %rax
	movq	%rax, -144(%rbp)
Ltmp1083:
	.loc	28 129 9
	movq	-336(%rbp), %rax
	movq	%rax, -344(%rbp)
Ltmp1084:
	.loc	34 173 9
	cmpq	$0, %rax
	jne	LBB110_2
	.loc	34 174 51
	leaq	-336(%rbp), %rax
	movq	%rax, -48(%rbp)
Ltmp1085:
	.loc	28 216 71
	leaq	-336(%rbp), %rax
	movq	%rax, -40(%rbp)
Ltmp1086:
	.loc	28 140 9
	movq	-328(%rbp), %rax
	movq	%rax, -32(%rbp)
Ltmp1087:
	.loc	29 97 9
	movq	%rax, -232(%rbp)
	movq	-232(%rbp), %rax
	movq	%rax, -24(%rbp)
Ltmp1088:
	.loc	16 599 14
	movq	%rax, -16(%rbp)
	movq	-16(%rbp), %rax
	movq	%rax, -8(%rbp)
Ltmp1089:
	.loc	14 201 13
	movq	%rax, -304(%rbp)
Ltmp1090:
	.loc	34 174 21
	movq	-304(%rbp), %rdi
	xorl	%eax, %eax
	movl	%eax, %esi
	callq	__ZN4core3ptr8non_null26NonNull$LT$$u5b$T$u5d$$GT$20slice_from_raw_parts17h7dce2d068bea9647E
	.loc	34 174 18 is_stmt 0
	movq	%rax, -320(%rbp)
	movq	%rdx, -312(%rbp)
	.loc	34 174 72
	jmp	LBB110_15
LBB110_2:
	.loc	34 0 72
	movb	-345(%rbp), %al
	movq	-344(%rbp), %rcx
	.loc	34 176 13 is_stmt 1
	movq	%rcx, -136(%rbp)
Ltmp1091:
	.loc	34 177 34
	testb	$1, %al
	jne	LBB110_4
	.loc	34 177 79 is_stmt 0
	movq	-336(%rbp), %rcx
	movq	-328(%rbp), %rax
	movq	%rcx, -272(%rbp)
	movq	%rax, -264(%rbp)
Ltmp1092:
	.loc	34 95 27 is_stmt 1
	leaq	-272(%rbp), %rax
	movq	%rax, -104(%rbp)
Ltmp1093:
	.loc	28 129 9
	movq	-272(%rbp), %rdi
Ltmp1094:
	.loc	34 95 42
	leaq	-272(%rbp), %rax
	movq	%rax, -96(%rbp)
Ltmp1095:
	.loc	28 140 9
	movq	-264(%rbp), %rax
	movq	%rax, -88(%rbp)
Ltmp1096:
	.loc	29 97 9
	movq	%rax, -216(%rbp)
	movq	-216(%rbp), %rsi
Ltmp1097:
	.loc	34 95 14
	callq	___rust_alloc
	movq	%rax, -296(%rbp)
Ltmp1098:
	.loc	34 177 31
	jmp	LBB110_5
LBB110_4:
	.loc	34 177 56 is_stmt 0
	movq	-336(%rbp), %rcx
	movq	-328(%rbp), %rax
	movq	%rcx, -288(%rbp)
	movq	%rax, -280(%rbp)
Ltmp1099:
	.loc	34 166 34 is_stmt 1
	leaq	-288(%rbp), %rax
	movq	%rax, -128(%rbp)
Ltmp1100:
	.loc	28 129 9
	movq	-288(%rbp), %rdi
Ltmp1101:
	.loc	34 166 49
	leaq	-288(%rbp), %rax
	movq	%rax, -120(%rbp)
Ltmp1102:
	.loc	28 140 9
	movq	-280(%rbp), %rax
	movq	%rax, -112(%rbp)
Ltmp1103:
	.loc	29 97 9
	movq	%rax, -224(%rbp)
	movq	-224(%rbp), %rsi
Ltmp1104:
	.loc	34 166 14
	callq	___rust_alloc_zeroed
	movq	%rax, -296(%rbp)
Ltmp1105:
LBB110_5:
	.loc	34 178 40
	movq	-296(%rbp), %rdi
	.loc	34 178 27 is_stmt 0
	callq	__ZN4core3ptr8non_null16NonNull$LT$T$GT$3new17hfd1c801a7e44b3f2E
	movq	%rax, -240(%rbp)
Ltmp1106:
	.loc	18 1096 15 is_stmt 1
	movq	-240(%rbp), %rdx
	movl	$1, %eax
	xorl	%ecx, %ecx
	cmpq	$0, %rdx
	cmoveq	%rcx, %rax
	.loc	18 1096 9 is_stmt 0
	cmpq	$0, %rax
	jne	LBB110_7
	.loc	18 1098 21 is_stmt 1
	movq	$0, -248(%rbp)
	.loc	18 1098 28 is_stmt 0
	jmp	LBB110_8
LBB110_7:
	.loc	18 1097 18 is_stmt 1
	movq	-240(%rbp), %rax
	movq	%rax, -80(%rbp)
Ltmp1107:
	.loc	18 1097 24 is_stmt 0
	movq	%rax, -248(%rbp)
Ltmp1108:
LBB110_8:
	.loc	20 2091 15 is_stmt 1
	movq	-248(%rbp), %rdx
	xorl	%eax, %eax
	movl	$1, %ecx
	cmpq	$0, %rdx
	cmoveq	%rcx, %rax
	.loc	20 2091 9 is_stmt 0
	cmpq	$0, %rax
	jne	LBB110_10
	.loc	20 2092 16 is_stmt 1
	movq	-248(%rbp), %rax
	movq	%rax, -72(%rbp)
Ltmp1109:
	.loc	20 2092 22 is_stmt 0
	movq	%rax, -256(%rbp)
Ltmp1110:
	.loc	20 2092 45
	jmp	LBB110_11
LBB110_10:
Ltmp1111:
	.loc	20 2093 23 is_stmt 1
	movq	$0, -256(%rbp)
Ltmp1112:
LBB110_11:
	.loc	34 178 27
	movq	-256(%rbp), %rdx
	xorl	%eax, %eax
	movl	$1, %ecx
	cmpq	$0, %rdx
	cmoveq	%rcx, %rax
	cmpq	$0, %rax
	jne	LBB110_13
	.loc	34 0 27 is_stmt 0
	movq	-344(%rbp), %rsi
	.loc	34 178 27
	movq	-256(%rbp), %rdi
	movq	%rdi, -64(%rbp)
Ltmp1113:
	.loc	34 178 27
	movq	%rdi, -56(%rbp)
Ltmp1114:
	.loc	34 179 20 is_stmt 1
	callq	__ZN4core3ptr8non_null26NonNull$LT$$u5b$T$u5d$$GT$20slice_from_raw_parts17h7dce2d068bea9647E
	.loc	34 179 17 is_stmt 0
	movq	%rax, -320(%rbp)
	movq	%rdx, -312(%rbp)
Ltmp1115:
	.loc	34 180 13 is_stmt 1
	jmp	LBB110_15
LBB110_13:
Ltmp1116:
	.loc	20 2107 23
	movq	$0, -320(%rbp)
Ltmp1117:
LBB110_14:
	.loc	34 182 6
	movq	-320(%rbp), %rax
	movq	-312(%rbp), %rdx
	addq	$352, %rsp
	popq	%rbp
	retq
LBB110_15:
	jmp	LBB110_14
Ltmp1118:
Lfunc_end110:
	.cfi_endproc

	.globl	__ZN5alloc5alloc8box_free17hfc779a17fed41d9aE
	.p2align	4, 0x90
__ZN5alloc5alloc8box_free17hfc779a17fed41d9aE:
Lfunc_begin111:
	.loc	34 340 0
	.cfi_startproc
	.cfi_personality 155, _rust_eh_personality
	.cfi_lsda 16, Lexception29
	pushq	%rbp
	.cfi_def_cfa_offset 16
	.cfi_offset %rbp, -16
	movq	%rsp, %rbp
	.cfi_def_cfa_register %rbp
	subq	$256, %rsp
	movq	%rdi, -240(%rbp)
Ltmp1122:
	.loc	34 345 32 prologue_end
	leaq	-240(%rbp), %rax
	movq	%rax, -184(%rbp)
Ltmp1123:
	.loc	13 117 18
	leaq	-240(%rbp), %rax
	movq	%rax, -176(%rbp)
Ltmp1124:
	.loc	14 376 20
	movq	-240(%rbp), %rax
	movq	%rax, -168(%rbp)
Ltmp1125:
	.loc	34 345 20
	movq	$2360, -160(%rbp)
	movq	-160(%rbp), %rcx
	movq	%rcx, -256(%rbp)
	movq	%rcx, -152(%rbp)
Ltmp1126:
	.loc	34 346 38
	leaq	-240(%rbp), %rax
	movq	%rax, -144(%rbp)
Ltmp1127:
	.loc	13 117 18
	leaq	-240(%rbp), %rax
	movq	%rax, -136(%rbp)
Ltmp1128:
	.loc	14 376 20
	movq	-240(%rbp), %rax
	movq	%rax, -128(%rbp)
Ltmp1129:
	.loc	34 346 21
	movq	$8, -120(%rbp)
	movq	-120(%rbp), %rax
	movq	%rax, -112(%rbp)
Ltmp1130:
	.loc	34 347 56
	movq	%rcx, -104(%rbp)
	.loc	34 347 62 is_stmt 0
	movq	%rax, -96(%rbp)
Ltmp1131:
	.loc	28 120 65 is_stmt 1
	movq	%rax, -88(%rbp)
Ltmp1132:
	.loc	29 89 18
	movq	%rax, -80(%rbp)
	movq	-80(%rbp), %rax
	movq	%rax, -248(%rbp)
Ltmp1133:
	.loc	29 0 18 is_stmt 0
	movq	-248(%rbp), %rax
	movq	-256(%rbp), %rcx
	.loc	28 120 18 is_stmt 1
	movq	%rcx, -224(%rbp)
	movq	%rax, -216(%rbp)
Ltmp1134:
	.loc	34 348 37
	movq	-240(%rbp), %rax
	movq	%rax, -72(%rbp)
Ltmp1135:
	.loc	13 137 22
	movq	%rax, -64(%rbp)
Ltmp1136:
	.loc	14 450 41
	movq	%rax, -56(%rbp)
	movq	%rax, -48(%rbp)
Ltmp1137:
	.loc	14 201 13
	movq	%rax, -192(%rbp)
Ltmp1138:
	.loc	13 191 18
	movq	-192(%rbp), %rax
	.loc	13 191 9 is_stmt 0
	movq	%rax, -200(%rbp)
Ltmp1139:
	.loc	14 768 41 is_stmt 1
	movq	-200(%rbp), %rax
	movq	%rax, -40(%rbp)
Ltmp1140:
	.loc	13 104 9
	movq	%rax, -32(%rbp)
Ltmp1141:
	.loc	14 326 9
	movq	%rax, -24(%rbp)
Ltmp1142:
	.loc	14 201 13
	movq	%rax, -208(%rbp)
Ltmp1143:
	.loc	34 348 50
	movq	-224(%rbp), %rdx
	movq	-216(%rbp), %rcx
	.loc	34 348 9 is_stmt 0
	movq	-208(%rbp), %rsi
Ltmp1119:
	leaq	-232(%rbp), %rdi
	callq	__ZN63_$LT$alloc..alloc..Global$u20$as$u20$core..alloc..Allocator$GT$10deallocate17h8ee6f9cbb5e6338cE
Ltmp1120:
	jmp	LBB111_4
Ltmp1144:
LBB111_2:
	.loc	34 340 1 is_stmt 1
	movq	-16(%rbp), %rdi
	callq	__Unwind_Resume
LBB111_3:
Ltmp1121:
	.loc	34 0 1 is_stmt 0
	movq	%rax, %rcx
	movl	%edx, %eax
	movq	%rcx, -16(%rbp)
	movl	%eax, -8(%rbp)
	jmp	LBB111_2
LBB111_4:
	.loc	34 350 2 is_stmt 1
	addq	$256, %rsp
	popq	%rbp
	retq
Ltmp1145:
Lfunc_end111:
	.cfi_endproc
	.section	__TEXT,__gcc_except_tab
	.p2align	2
GCC_except_table111:
Lexception29:
	.byte	255
	.byte	255
	.byte	1
	.uleb128 Lcst_end29-Lcst_begin29
Lcst_begin29:
	.uleb128 Ltmp1119-Lfunc_begin111
	.uleb128 Ltmp1120-Ltmp1119
	.uleb128 Ltmp1121-Lfunc_begin111
	.byte	0
	.uleb128 Ltmp1120-Lfunc_begin111
	.uleb128 Lfunc_end111-Ltmp1120
	.byte	0
	.byte	0
Lcst_end29:
	.p2align	2

	.section	__TEXT,__text,regular,pure_instructions
	.globl	__ZN5alloc5boxed140_$LT$impl$u20$core..convert..From$LT$alloc..boxed..Box$LT$T$C$A$GT$$GT$$u20$for$u20$core..pin..Pin$LT$alloc..boxed..Box$LT$T$C$A$GT$$GT$$GT$4from17h298d66160f311bd6E
	.p2align	4, 0x90
__ZN5alloc5boxed140_$LT$impl$u20$core..convert..From$LT$alloc..boxed..Box$LT$T$C$A$GT$$GT$$u20$for$u20$core..pin..Pin$LT$alloc..boxed..Box$LT$T$C$A$GT$$GT$$GT$4from17h298d66160f311bd6E:
Lfunc_begin112:
	.file	35 "/rustc/2c8cc343237b8f7d5a3c3703e3a87f2eb2c54a74/library/alloc/src" "boxed.rs"
	.loc	35 1476 0
	.cfi_startproc
	pushq	%rbp
	.cfi_def_cfa_offset 16
	.cfi_offset %rbp, -16
	movq	%rsp, %rbp
	.cfi_def_cfa_register %rbp
	subq	$16, %rsp
	movq	%rdi, -8(%rbp)
Ltmp1146:
	.loc	35 1477 9 prologue_end
	callq	__ZN5alloc5boxed16Box$LT$T$C$A$GT$8into_pin17haee279ce4ee650e2E
	.loc	35 1478 6
	addq	$16, %rsp
	popq	%rbp
	retq
Ltmp1147:
Lfunc_end112:
	.cfi_endproc

	.globl	__ZN5alloc5boxed16Box$LT$T$C$A$GT$8into_pin17haee279ce4ee650e2E
	.p2align	4, 0x90
__ZN5alloc5boxed16Box$LT$T$C$A$GT$8into_pin17haee279ce4ee650e2E:
Lfunc_begin113:
	.loc	35 1223 0
	.cfi_startproc
	pushq	%rbp
	.cfi_def_cfa_offset 16
	.cfi_offset %rbp, -16
	movq	%rsp, %rbp
	.cfi_def_cfa_register %rbp
	subq	$24, %rsp
	movq	%rdi, -16(%rbp)
Ltmp1148:
	.loc	35 1230 37 prologue_end
	movq	%rdi, -8(%rbp)
Ltmp1149:
	.file	36 "/rustc/2c8cc343237b8f7d5a3c3703e3a87f2eb2c54a74/library/core/src" "pin.rs"
	.loc	36 653 9
	movq	%rdi, -24(%rbp)
Ltmp1150:
	.loc	35 1231 6
	movq	-24(%rbp), %rax
	addq	$24, %rsp
	popq	%rbp
	retq
Ltmp1151:
Lfunc_end113:
	.cfi_endproc

	.p2align	4, 0x90
__ZN5alloc7raw_vec14handle_reserve17ha03c747608305eb6E:
Lfunc_begin114:
	.loc	12 487 0
	.cfi_startproc
	pushq	%rbp
	.cfi_def_cfa_offset 16
	.cfi_offset %rbp, -16
	movq	%rsp, %rbp
	.cfi_def_cfa_register %rbp
	subq	$48, %rsp
	movq	%rdi, -32(%rbp)
	movq	%rsi, -24(%rbp)
Ltmp1152:
	.loc	12 488 11 prologue_end
	callq	__ZN4core6result19Result$LT$T$C$E$GT$7map_err17h2ebfec30f6b63c37E
	movq	%rdx, -40(%rbp)
	movq	%rax, -48(%rbp)
	movabsq	$-9223372036854775807, %rdx
	movl	$1, %eax
	xorl	%ecx, %ecx
	cmpq	%rdx, -40(%rbp)
	cmoveq	%rcx, %rax
	.loc	12 488 5 is_stmt 0
	cmpq	$0, %rax
	jne	LBB114_2
	.loc	12 493 2 is_stmt 1
	addq	$48, %rsp
	popq	%rbp
	retq
LBB114_2:
	.loc	12 488 11
	movl	$1, %eax
	xorl	%ecx, %ecx
	cmpq	$0, -40(%rbp)
	cmoveq	%rcx, %rax
	.loc	12 488 5 is_stmt 0
	cmpq	$0, %rax
	jne	LBB114_4
	.loc	12 489 34 is_stmt 1
	callq	__ZN5alloc7raw_vec17capacity_overflow17h082ee8492f253a0eE
LBB114_4:
	.loc	12 490 26
	movq	-48(%rbp), %rdi
	movq	-40(%rbp), %rsi
	movq	%rdi, -16(%rbp)
	movq	%rsi, -8(%rbp)
Ltmp1153:
	.loc	12 490 43 is_stmt 0
	callq	__ZN5alloc5alloc18handle_alloc_error17hb5f6ff255f23ea4dE
Ltmp1154:
Lfunc_end114:
	.cfi_endproc

	.globl	__ZN5alloc7raw_vec19RawVec$LT$T$C$A$GT$11allocate_in17h280de8ae0c24030bE
	.p2align	4, 0x90
__ZN5alloc7raw_vec19RawVec$LT$T$C$A$GT$11allocate_in17h280de8ae0c24030bE:
Lfunc_begin115:
	.loc	12 169 0 is_stmt 1
	.cfi_startproc
	.cfi_personality 155, _rust_eh_personality
	.cfi_lsda 16, Lexception30
	pushq	%rbp
	.cfi_def_cfa_offset 16
	.cfi_offset %rbp, -16
	movq	%rsp, %rbp
	.cfi_def_cfa_register %rbp
	subq	$384, %rsp
	movq	%rdi, -296(%rbp)
	movb	%sil, %al
	andb	$1, %al
	movb	%al, -281(%rbp)
	movq	%rdi, -168(%rbp)
Ltmp1170:
	.loc	12 171 12 prologue_end
	movb	$1, -177(%rbp)
	xorl	%eax, %eax
	testb	$1, %al
	jne	LBB115_2
	.loc	12 0 12 is_stmt 0
	movq	-296(%rbp), %rax
	.loc	12 171 25
	cmpq	$0, %rax
	sete	%al
	.loc	12 171 12
	andb	$1, %al
	movb	%al, -249(%rbp)
	jmp	LBB115_3
LBB115_2:
	movb	$1, -249(%rbp)
LBB115_3:
	testb	$1, -249(%rbp)
	jne	LBB115_5
	.loc	12 0 12
	movq	-296(%rbp), %rax
	.loc	12 176 51 is_stmt 1
	movq	%rax, -144(%rbp)
Ltmp1171:
	.loc	22 459 5
	movq	$8, -136(%rbp)
Ltmp1172:
	.loc	29 89 18
	movq	$8, -128(%rbp)
	movq	-128(%rbp), %rax
	movq	%rax, -304(%rbp)
	jmp	LBB115_10
Ltmp1173:
LBB115_5:
	.loc	12 172 26
	movb	$0, -177(%rbp)
Ltmp1167:
	.loc	12 172 13 is_stmt 0
	callq	__ZN5alloc7raw_vec19RawVec$LT$T$C$A$GT$6new_in17h9517519bf06eee4cE
Ltmp1168:
	movq	%rdx, -320(%rbp)
	movq	%rax, -312(%rbp)
	jmp	LBB115_8
LBB115_6:
	.loc	12 202 5 is_stmt 1
	testb	$1, -177(%rbp)
	jne	LBB115_25
	jmp	LBB115_24
LBB115_7:
Ltmp1169:
	.loc	12 0 5 is_stmt 0
	movq	%rax, %rcx
	movl	%edx, %eax
	movq	%rcx, -160(%rbp)
	movl	%eax, -152(%rbp)
	jmp	LBB115_6
LBB115_8:
	movq	-320(%rbp), %rax
	movq	-312(%rbp), %rcx
	.loc	12 172 13 is_stmt 1
	movq	%rcx, -272(%rbp)
	movq	%rax, -264(%rbp)
LBB115_9:
	.loc	12 202 6
	movq	-272(%rbp), %rax
	movq	-264(%rbp), %rdx
	addq	$384, %rsp
	popq	%rbp
	retq
LBB115_10:
Ltmp1155:
	.loc	12 0 6 is_stmt 0
	movq	-296(%rbp), %rdx
	movq	-304(%rbp), %rsi
	movl	$88, %edi
Ltmp1174:
	.loc	28 438 16 is_stmt 1
	callq	__ZN4core5alloc6layout6Layout5array5inner17he3b7c4831272f69cE
Ltmp1156:
	movq	%rdx, -336(%rbp)
	movq	%rax, -328(%rbp)
	jmp	LBB115_11
LBB115_11:
	.loc	28 0 16 is_stmt 0
	movq	-336(%rbp), %rax
	movq	-328(%rbp), %rcx
	.loc	28 438 16
	movq	%rcx, -248(%rbp)
	movq	%rax, -240(%rbp)
Ltmp1175:
	.loc	12 176 32 is_stmt 1
	xorl	%eax, %eax
	movl	$1, %ecx
	cmpq	$0, -240(%rbp)
	cmoveq	%rcx, %rax
	.loc	12 176 26 is_stmt 0
	cmpq	$0, %rax
	jne	LBB115_13
	.loc	12 177 20 is_stmt 1
	movq	-248(%rbp), %rcx
	movq	%rcx, -352(%rbp)
	movq	-240(%rbp), %rax
	movq	%rax, -344(%rbp)
	movq	%rcx, -120(%rbp)
	movq	%rax, -112(%rbp)
Ltmp1176:
	.loc	12 177 31 is_stmt 0
	movq	%rcx, -104(%rbp)
	movq	%rax, -96(%rbp)
Ltmp1177:
	.loc	12 509 9 is_stmt 1
	movabsq	$-9223372036854775807, %rax
	movq	%rax, -224(%rbp)
Ltmp1178:
	.loc	12 180 19
	movabsq	$-9223372036854775807, %rdx
	movl	$1, %eax
	xorl	%ecx, %ecx
	cmpq	%rdx, -224(%rbp)
	cmoveq	%rcx, %rax
	.loc	12 180 13 is_stmt 0
	cmpq	$0, %rax
	je	LBB115_15
	jmp	LBB115_16
Ltmp1179:
LBB115_13:
Ltmp1157:
	.loc	12 178 27 is_stmt 1
	callq	__ZN5alloc7raw_vec17capacity_overflow17h082ee8492f253a0eE
Ltmp1158:
	jmp	LBB115_14
LBB115_14:
	.loc	12 0 27 is_stmt 0
	ud2
LBB115_15:
Ltmp1180:
	.loc	12 184 32 is_stmt 1
	movb	-281(%rbp), %al
	andb	$1, %al
	movzbl	%al, %eax
	.loc	12 184 26 is_stmt 0
	cmpq	$0, %rax
	je	LBB115_17
	jmp	LBB115_18
LBB115_16:
Ltmp1159:
	.loc	12 182 27 is_stmt 1
	callq	__ZN5alloc7raw_vec17capacity_overflow17h082ee8492f253a0eE
Ltmp1160:
	jmp	LBB115_14
LBB115_17:
Ltmp1163:
	.loc	12 0 27 is_stmt 0
	movq	-344(%rbp), %rdx
	movq	-352(%rbp), %rsi
	leaq	-280(%rbp), %rdi
	.loc	12 185 45 is_stmt 1
	callq	__ZN63_$LT$alloc..alloc..Global$u20$as$u20$core..alloc..Allocator$GT$8allocate17h610cb5038a784e70E
Ltmp1164:
	movq	%rdx, -368(%rbp)
	movq	%rax, -360(%rbp)
	jmp	LBB115_21
LBB115_18:
Ltmp1161:
	.loc	12 0 45 is_stmt 0
	movq	-344(%rbp), %rdx
	movq	-352(%rbp), %rsi
	leaq	-280(%rbp), %rdi
	.loc	12 186 38 is_stmt 1
	callq	__ZN63_$LT$alloc..alloc..Global$u20$as$u20$core..alloc..Allocator$GT$15allocate_zeroed17h4e4bf8f60cfe4afcE
Ltmp1162:
	movq	%rdx, -384(%rbp)
	movq	%rax, -376(%rbp)
	jmp	LBB115_19
LBB115_19:
	.loc	12 0 38 is_stmt 0
	movq	-384(%rbp), %rax
	movq	-376(%rbp), %rcx
	.loc	12 186 38
	movq	%rcx, -216(%rbp)
	movq	%rax, -208(%rbp)
LBB115_20:
Ltmp1181:
	.loc	12 188 29 is_stmt 1
	movq	-216(%rbp), %rdx
	xorl	%eax, %eax
	movl	$1, %ecx
	cmpq	$0, %rdx
	cmoveq	%rcx, %rax
	.loc	12 188 23 is_stmt 0
	cmpq	$0, %rax
	je	LBB115_22
	jmp	LBB115_23
Ltmp1182:
LBB115_21:
	.loc	12 0 23
	movq	-368(%rbp), %rax
	movq	-360(%rbp), %rcx
	.loc	12 185 45 is_stmt 1
	movq	%rcx, -216(%rbp)
	movq	%rax, -208(%rbp)
	.loc	12 185 66 is_stmt 0
	jmp	LBB115_20
LBB115_22:
	.loc	12 0 66
	movq	-296(%rbp), %rax
Ltmp1183:
	.loc	12 189 20 is_stmt 1
	movq	-216(%rbp), %rcx
	movq	-208(%rbp), %rdx
	movq	%rcx, -88(%rbp)
	movq	%rdx, -80(%rbp)
Ltmp1184:
	.loc	12 189 28 is_stmt 0
	movq	%rcx, -72(%rbp)
	movq	%rdx, -64(%rbp)
Ltmp1185:
	.loc	12 197 53 is_stmt 1
	movq	%rcx, -56(%rbp)
	movq	%rdx, -48(%rbp)
Ltmp1186:
	.loc	14 450 41
	movq	%rcx, -40(%rbp)
	movq	%rdx, -32(%rbp)
	movq	%rcx, -24(%rbp)
Ltmp1187:
	.loc	14 201 13
	movq	%rcx, -192(%rbp)
Ltmp1188:
	.loc	14 326 9
	movq	-192(%rbp), %rcx
	movq	%rcx, -16(%rbp)
Ltmp1189:
	.loc	13 87 59
	movq	%rcx, -8(%rbp)
Ltmp1190:
	.loc	14 201 13
	movq	%rcx, -176(%rbp)
Ltmp1191:
	.loc	13 87 18
	movq	-176(%rbp), %rcx
	movq	%rcx, -200(%rbp)
Ltmp1192:
	.loc	12 196 13
	movq	-200(%rbp), %rcx
	movq	%rcx, -264(%rbp)
	movq	%rax, -272(%rbp)
Ltmp1193:
	.loc	12 171 9
	jmp	LBB115_9
LBB115_23:
Ltmp1165:
	.loc	12 0 9 is_stmt 0
	movq	-344(%rbp), %rsi
	movq	-352(%rbp), %rdi
Ltmp1194:
	.loc	12 190 27 is_stmt 1
	callq	__ZN5alloc5alloc18handle_alloc_error17hb5f6ff255f23ea4dE
Ltmp1166:
	jmp	LBB115_14
Ltmp1195:
LBB115_24:
	.loc	12 169 5
	movq	-160(%rbp), %rdi
	callq	__Unwind_Resume
LBB115_25:
	.loc	12 202 5
	jmp	LBB115_24
Ltmp1196:
Lfunc_end115:
	.cfi_endproc
	.section	__TEXT,__gcc_except_tab
	.p2align	2
GCC_except_table115:
Lexception30:
	.byte	255
	.byte	255
	.byte	1
	.uleb128 Lcst_end30-Lcst_begin30
Lcst_begin30:
	.uleb128 Ltmp1167-Lfunc_begin115
	.uleb128 Ltmp1166-Ltmp1167
	.uleb128 Ltmp1169-Lfunc_begin115
	.byte	0
	.uleb128 Ltmp1166-Lfunc_begin115
	.uleb128 Lfunc_end115-Ltmp1166
	.byte	0
	.byte	0
Lcst_end30:
	.p2align	2

	.section	__TEXT,__text,regular,pure_instructions
	.globl	__ZN5alloc7raw_vec19RawVec$LT$T$C$A$GT$11allocate_in17he8d4b4d7011450a1E
	.p2align	4, 0x90
__ZN5alloc7raw_vec19RawVec$LT$T$C$A$GT$11allocate_in17he8d4b4d7011450a1E:
Lfunc_begin116:
	.loc	12 169 0
	.cfi_startproc
	.cfi_personality 155, _rust_eh_personality
	.cfi_lsda 16, Lexception31
	pushq	%rbp
	.cfi_def_cfa_offset 16
	.cfi_offset %rbp, -16
	movq	%rsp, %rbp
	.cfi_def_cfa_register %rbp
	subq	$384, %rsp
	movq	%rdi, -296(%rbp)
	movb	%sil, %al
	andb	$1, %al
	movb	%al, -281(%rbp)
	movq	%rdi, -168(%rbp)
Ltmp1212:
	.loc	12 171 12 prologue_end
	movb	$1, -177(%rbp)
	xorl	%eax, %eax
	testb	$1, %al
	jne	LBB116_2
	.loc	12 0 12 is_stmt 0
	movq	-296(%rbp), %rax
	.loc	12 171 25
	cmpq	$0, %rax
	sete	%al
	.loc	12 171 12
	andb	$1, %al
	movb	%al, -249(%rbp)
	jmp	LBB116_3
LBB116_2:
	movb	$1, -249(%rbp)
LBB116_3:
	testb	$1, -249(%rbp)
	jne	LBB116_5
	.loc	12 0 12
	movq	-296(%rbp), %rax
	.loc	12 176 51 is_stmt 1
	movq	%rax, -144(%rbp)
Ltmp1213:
	.loc	22 459 5
	movq	$8, -136(%rbp)
Ltmp1214:
	.loc	29 89 18
	movq	$8, -128(%rbp)
	movq	-128(%rbp), %rax
	movq	%rax, -304(%rbp)
	jmp	LBB116_10
Ltmp1215:
LBB116_5:
	.loc	12 172 26
	movb	$0, -177(%rbp)
Ltmp1209:
	.loc	12 172 13 is_stmt 0
	callq	__ZN5alloc7raw_vec19RawVec$LT$T$C$A$GT$6new_in17h7f37b66e0f2022d5E
Ltmp1210:
	movq	%rdx, -320(%rbp)
	movq	%rax, -312(%rbp)
	jmp	LBB116_8
LBB116_6:
	.loc	12 202 5 is_stmt 1
	testb	$1, -177(%rbp)
	jne	LBB116_25
	jmp	LBB116_24
LBB116_7:
Ltmp1211:
	.loc	12 0 5 is_stmt 0
	movq	%rax, %rcx
	movl	%edx, %eax
	movq	%rcx, -160(%rbp)
	movl	%eax, -152(%rbp)
	jmp	LBB116_6
LBB116_8:
	movq	-320(%rbp), %rax
	movq	-312(%rbp), %rcx
	.loc	12 172 13 is_stmt 1
	movq	%rcx, -272(%rbp)
	movq	%rax, -264(%rbp)
LBB116_9:
	.loc	12 202 6
	movq	-272(%rbp), %rax
	movq	-264(%rbp), %rdx
	addq	$384, %rsp
	popq	%rbp
	retq
LBB116_10:
Ltmp1197:
	.loc	12 0 6 is_stmt 0
	movq	-296(%rbp), %rdx
	movq	-304(%rbp), %rsi
	movl	$104, %edi
Ltmp1216:
	.loc	28 438 16 is_stmt 1
	callq	__ZN4core5alloc6layout6Layout5array5inner17he3b7c4831272f69cE
Ltmp1198:
	movq	%rdx, -336(%rbp)
	movq	%rax, -328(%rbp)
	jmp	LBB116_11
LBB116_11:
	.loc	28 0 16 is_stmt 0
	movq	-336(%rbp), %rax
	movq	-328(%rbp), %rcx
	.loc	28 438 16
	movq	%rcx, -248(%rbp)
	movq	%rax, -240(%rbp)
Ltmp1217:
	.loc	12 176 32 is_stmt 1
	xorl	%eax, %eax
	movl	$1, %ecx
	cmpq	$0, -240(%rbp)
	cmoveq	%rcx, %rax
	.loc	12 176 26 is_stmt 0
	cmpq	$0, %rax
	jne	LBB116_13
	.loc	12 177 20 is_stmt 1
	movq	-248(%rbp), %rcx
	movq	%rcx, -352(%rbp)
	movq	-240(%rbp), %rax
	movq	%rax, -344(%rbp)
	movq	%rcx, -120(%rbp)
	movq	%rax, -112(%rbp)
Ltmp1218:
	.loc	12 177 31 is_stmt 0
	movq	%rcx, -104(%rbp)
	movq	%rax, -96(%rbp)
Ltmp1219:
	.loc	12 509 9 is_stmt 1
	movabsq	$-9223372036854775807, %rax
	movq	%rax, -224(%rbp)
Ltmp1220:
	.loc	12 180 19
	movabsq	$-9223372036854775807, %rdx
	movl	$1, %eax
	xorl	%ecx, %ecx
	cmpq	%rdx, -224(%rbp)
	cmoveq	%rcx, %rax
	.loc	12 180 13 is_stmt 0
	cmpq	$0, %rax
	je	LBB116_15
	jmp	LBB116_16
Ltmp1221:
LBB116_13:
Ltmp1199:
	.loc	12 178 27 is_stmt 1
	callq	__ZN5alloc7raw_vec17capacity_overflow17h082ee8492f253a0eE
Ltmp1200:
	jmp	LBB116_14
LBB116_14:
	.loc	12 0 27 is_stmt 0
	ud2
LBB116_15:
Ltmp1222:
	.loc	12 184 32 is_stmt 1
	movb	-281(%rbp), %al
	andb	$1, %al
	movzbl	%al, %eax
	.loc	12 184 26 is_stmt 0
	cmpq	$0, %rax
	je	LBB116_17
	jmp	LBB116_18
LBB116_16:
Ltmp1201:
	.loc	12 182 27 is_stmt 1
	callq	__ZN5alloc7raw_vec17capacity_overflow17h082ee8492f253a0eE
Ltmp1202:
	jmp	LBB116_14
LBB116_17:
Ltmp1205:
	.loc	12 0 27 is_stmt 0
	movq	-344(%rbp), %rdx
	movq	-352(%rbp), %rsi
	leaq	-280(%rbp), %rdi
	.loc	12 185 45 is_stmt 1
	callq	__ZN63_$LT$alloc..alloc..Global$u20$as$u20$core..alloc..Allocator$GT$8allocate17h610cb5038a784e70E
Ltmp1206:
	movq	%rdx, -368(%rbp)
	movq	%rax, -360(%rbp)
	jmp	LBB116_21
LBB116_18:
Ltmp1203:
	.loc	12 0 45 is_stmt 0
	movq	-344(%rbp), %rdx
	movq	-352(%rbp), %rsi
	leaq	-280(%rbp), %rdi
	.loc	12 186 38 is_stmt 1
	callq	__ZN63_$LT$alloc..alloc..Global$u20$as$u20$core..alloc..Allocator$GT$15allocate_zeroed17h4e4bf8f60cfe4afcE
Ltmp1204:
	movq	%rdx, -384(%rbp)
	movq	%rax, -376(%rbp)
	jmp	LBB116_19
LBB116_19:
	.loc	12 0 38 is_stmt 0
	movq	-384(%rbp), %rax
	movq	-376(%rbp), %rcx
	.loc	12 186 38
	movq	%rcx, -216(%rbp)
	movq	%rax, -208(%rbp)
LBB116_20:
Ltmp1223:
	.loc	12 188 29 is_stmt 1
	movq	-216(%rbp), %rdx
	xorl	%eax, %eax
	movl	$1, %ecx
	cmpq	$0, %rdx
	cmoveq	%rcx, %rax
	.loc	12 188 23 is_stmt 0
	cmpq	$0, %rax
	je	LBB116_22
	jmp	LBB116_23
Ltmp1224:
LBB116_21:
	.loc	12 0 23
	movq	-368(%rbp), %rax
	movq	-360(%rbp), %rcx
	.loc	12 185 45 is_stmt 1
	movq	%rcx, -216(%rbp)
	movq	%rax, -208(%rbp)
	.loc	12 185 66 is_stmt 0
	jmp	LBB116_20
LBB116_22:
	.loc	12 0 66
	movq	-296(%rbp), %rax
Ltmp1225:
	.loc	12 189 20 is_stmt 1
	movq	-216(%rbp), %rcx
	movq	-208(%rbp), %rdx
	movq	%rcx, -88(%rbp)
	movq	%rdx, -80(%rbp)
Ltmp1226:
	.loc	12 189 28 is_stmt 0
	movq	%rcx, -72(%rbp)
	movq	%rdx, -64(%rbp)
Ltmp1227:
	.loc	12 197 53 is_stmt 1
	movq	%rcx, -56(%rbp)
	movq	%rdx, -48(%rbp)
Ltmp1228:
	.loc	14 450 41
	movq	%rcx, -40(%rbp)
	movq	%rdx, -32(%rbp)
	movq	%rcx, -24(%rbp)
Ltmp1229:
	.loc	14 201 13
	movq	%rcx, -192(%rbp)
Ltmp1230:
	.loc	14 326 9
	movq	-192(%rbp), %rcx
	movq	%rcx, -16(%rbp)
Ltmp1231:
	.loc	13 87 59
	movq	%rcx, -8(%rbp)
Ltmp1232:
	.loc	14 201 13
	movq	%rcx, -176(%rbp)
Ltmp1233:
	.loc	13 87 18
	movq	-176(%rbp), %rcx
	movq	%rcx, -200(%rbp)
Ltmp1234:
	.loc	12 196 13
	movq	-200(%rbp), %rcx
	movq	%rcx, -264(%rbp)
	movq	%rax, -272(%rbp)
Ltmp1235:
	.loc	12 171 9
	jmp	LBB116_9
LBB116_23:
Ltmp1207:
	.loc	12 0 9 is_stmt 0
	movq	-344(%rbp), %rsi
	movq	-352(%rbp), %rdi
Ltmp1236:
	.loc	12 190 27 is_stmt 1
	callq	__ZN5alloc5alloc18handle_alloc_error17hb5f6ff255f23ea4dE
Ltmp1208:
	jmp	LBB116_14
Ltmp1237:
LBB116_24:
	.loc	12 169 5
	movq	-160(%rbp), %rdi
	callq	__Unwind_Resume
LBB116_25:
	.loc	12 202 5
	jmp	LBB116_24
Ltmp1238:
Lfunc_end116:
	.cfi_endproc
	.section	__TEXT,__gcc_except_tab
	.p2align	2
GCC_except_table116:
Lexception31:
	.byte	255
	.byte	255
	.byte	1
	.uleb128 Lcst_end31-Lcst_begin31
Lcst_begin31:
	.uleb128 Ltmp1209-Lfunc_begin116
	.uleb128 Ltmp1208-Ltmp1209
	.uleb128 Ltmp1211-Lfunc_begin116
	.byte	0
	.uleb128 Ltmp1208-Lfunc_begin116
	.uleb128 Lfunc_end116-Ltmp1208
	.byte	0
	.byte	0
Lcst_end31:
	.p2align	2

	.section	__TEXT,__text,regular,pure_instructions
	.globl	__ZN5alloc7raw_vec19RawVec$LT$T$C$A$GT$13needs_to_grow17h696bb307f87643e2E
	.p2align	4, 0x90
__ZN5alloc7raw_vec19RawVec$LT$T$C$A$GT$13needs_to_grow17h696bb307f87643e2E:
Lfunc_begin117:
	.loc	12 360 0
	.cfi_startproc
	pushq	%rbp
	.cfi_def_cfa_offset 16
	.cfi_offset %rbp, -16
	movq	%rsp, %rbp
	.cfi_def_cfa_register %rbp
	subq	$72, %rsp
	movq	%rdi, -72(%rbp)
	movq	%rsi, -64(%rbp)
	movq	%rdx, -56(%rbp)
	movq	%rdi, -40(%rbp)
	movq	%rsi, -32(%rbp)
	movq	%rdx, -24(%rbp)
Ltmp1239:
	.loc	12 361 22 prologue_end
	movq	%rdi, -16(%rbp)
Ltmp1240:
	.loc	12 232 12
	xorl	%eax, %eax
	testb	$1, %al
	jne	LBB117_2
	.loc	12 0 12 is_stmt 0
	movq	-72(%rbp), %rax
	.loc	12 232 44
	movq	(%rax), %rax
	movq	%rax, -48(%rbp)
	.loc	12 232 9
	jmp	LBB117_3
LBB117_2:
	.loc	12 232 24
	movq	$-1, -48(%rbp)
Ltmp1241:
LBB117_3:
	.loc	12 0 24
	movq	-56(%rbp), %rax
	movq	-64(%rbp), %rdx
	.loc	12 361 51 is_stmt 1
	movq	%rdx, -8(%rbp)
Ltmp1242:
	.loc	10 1203 38
	movq	-48(%rbp), %rcx
	.loc	10 1203 13 is_stmt 0
	subq	%rdx, %rcx
Ltmp1243:
	.loc	12 361 9 is_stmt 1
	cmpq	%rcx, %rax
	seta	%al
	.loc	12 362 6
	andb	$1, %al
	movzbl	%al, %eax
	addq	$72, %rsp
	popq	%rbp
	retq
Ltmp1244:
Lfunc_end117:
	.cfi_endproc

	.globl	__ZN5alloc7raw_vec19RawVec$LT$T$C$A$GT$13needs_to_grow17hf702b6aa951bddf8E
	.p2align	4, 0x90
__ZN5alloc7raw_vec19RawVec$LT$T$C$A$GT$13needs_to_grow17hf702b6aa951bddf8E:
Lfunc_begin118:
	.loc	12 360 0
	.cfi_startproc
	pushq	%rbp
	.cfi_def_cfa_offset 16
	.cfi_offset %rbp, -16
	movq	%rsp, %rbp
	.cfi_def_cfa_register %rbp
	subq	$72, %rsp
	movq	%rdi, -72(%rbp)
	movq	%rsi, -64(%rbp)
	movq	%rdx, -56(%rbp)
	movq	%rdi, -40(%rbp)
	movq	%rsi, -32(%rbp)
	movq	%rdx, -24(%rbp)
Ltmp1245:
	.loc	12 361 22 prologue_end
	movq	%rdi, -16(%rbp)
Ltmp1246:
	.loc	12 232 12
	xorl	%eax, %eax
	testb	$1, %al
	jne	LBB118_2
	.loc	12 0 12 is_stmt 0
	movq	-72(%rbp), %rax
	.loc	12 232 44
	movq	(%rax), %rax
	movq	%rax, -48(%rbp)
	.loc	12 232 9
	jmp	LBB118_3
LBB118_2:
	.loc	12 232 24
	movq	$-1, -48(%rbp)
Ltmp1247:
LBB118_3:
	.loc	12 0 24
	movq	-56(%rbp), %rax
	movq	-64(%rbp), %rdx
	.loc	12 361 51 is_stmt 1
	movq	%rdx, -8(%rbp)
Ltmp1248:
	.loc	10 1203 38
	movq	-48(%rbp), %rcx
	.loc	10 1203 13 is_stmt 0
	subq	%rdx, %rcx
Ltmp1249:
	.loc	12 361 9 is_stmt 1
	cmpq	%rcx, %rax
	seta	%al
	.loc	12 362 6
	andb	$1, %al
	movzbl	%al, %eax
	addq	$72, %rsp
	popq	%rbp
	retq
Ltmp1250:
Lfunc_end118:
	.cfi_endproc

	.globl	__ZN5alloc7raw_vec19RawVec$LT$T$C$A$GT$14current_memory17h9d5f5c17eef0b7b7E
	.p2align	4, 0x90
__ZN5alloc7raw_vec19RawVec$LT$T$C$A$GT$14current_memory17h9d5f5c17eef0b7b7E:
Lfunc_begin119:
	.loc	12 240 0
	.cfi_startproc
	pushq	%rbp
	.cfi_def_cfa_offset 16
	.cfi_offset %rbp, -16
	movq	%rsp, %rbp
	.cfi_def_cfa_register %rbp
	subq	$176, %rsp
	movq	%rsi, -152(%rbp)
	movq	%rdi, -144(%rbp)
	movq	%rdi, -136(%rbp)
	movq	%rsi, -80(%rbp)
Ltmp1251:
	.loc	12 241 12 prologue_end
	xorl	%eax, %eax
	testb	$1, %al
	jne	LBB119_2
	.loc	12 0 12 is_stmt 0
	movq	-152(%rbp), %rax
	.loc	12 241 25
	cmpq	$0, (%rax)
	sete	%al
	.loc	12 241 12
	andb	$1, %al
	movb	%al, -121(%rbp)
	jmp	LBB119_3
LBB119_2:
	movb	$1, -121(%rbp)
LBB119_3:
	testb	$1, -121(%rbp)
	jne	LBB119_5
	.loc	12 0 12
	movq	-152(%rbp), %rax
	.loc	12 247 49 is_stmt 1
	movq	(%rax), %rdx
	movq	%rdx, -72(%rbp)
Ltmp1252:
	.loc	22 459 5
	movq	$8, -64(%rbp)
Ltmp1253:
	.loc	29 89 18
	movq	$8, -56(%rbp)
	movq	-56(%rbp), %rsi
Ltmp1254:
	.loc	28 438 16
	movl	$88, %edi
	callq	__ZN4core5alloc6layout6Layout5array5inner17he3b7c4831272f69cE
	movq	%rax, %rdi
	movq	%rdx, %rsi
Ltmp1255:
	.loc	12 247 30
	leaq	l___unnamed_9(%rip), %rdx
	callq	__ZN4core6result19Result$LT$T$C$E$GT$16unwrap_unchecked17hc7c056f29c9078d3E
	movq	%rax, %rcx
	movq	-152(%rbp), %rax
	movq	%rcx, -168(%rbp)
	movq	%rdx, -160(%rbp)
	movq	%rcx, -48(%rbp)
	movq	%rdx, -40(%rbp)
Ltmp1256:
	.loc	12 248 23
	movq	8(%rax), %rax
	movq	%rax, -32(%rbp)
Ltmp1257:
	.loc	13 137 22
	movq	%rax, -24(%rbp)
Ltmp1258:
	.loc	14 450 41
	movq	%rax, -16(%rbp)
	movq	%rax, -8(%rbp)
Ltmp1259:
	.loc	14 201 13
	movq	%rax, -88(%rbp)
Ltmp1260:
	.loc	13 191 18
	movq	-88(%rbp), %rax
	.loc	13 191 9 is_stmt 0
	movq	%rax, -96(%rbp)
Ltmp1261:
	.loc	12 248 23 is_stmt 1
	movq	-96(%rbp), %rdi
	callq	__ZN50_$LT$T$u20$as$u20$core..convert..Into$LT$U$GT$$GT$4into17hcbecf878556e2beeE
	movq	-168(%rbp), %rcx
	movq	-160(%rbp), %rdx
	movq	%rax, %rsi
	movq	-144(%rbp), %rax
	.loc	12 248 22 is_stmt 0
	movq	%rsi, -120(%rbp)
	movq	%rcx, -112(%rbp)
	movq	%rdx, -104(%rbp)
	.loc	12 248 17
	movq	-120(%rbp), %rcx
	movq	%rcx, (%rax)
	movq	-112(%rbp), %rcx
	movq	%rcx, 8(%rax)
	movq	-104(%rbp), %rcx
	movq	%rcx, 16(%rax)
Ltmp1262:
	.loc	12 241 9 is_stmt 1
	jmp	LBB119_6
LBB119_5:
	.loc	12 0 9 is_stmt 0
	movq	-144(%rbp), %rax
	.loc	12 242 13 is_stmt 1
	movq	$0, 16(%rax)
LBB119_6:
	.loc	12 0 13 is_stmt 0
	movq	-136(%rbp), %rax
	.loc	12 251 6 is_stmt 1
	addq	$176, %rsp
	popq	%rbp
	retq
Ltmp1263:
Lfunc_end119:
	.cfi_endproc

	.globl	__ZN5alloc7raw_vec19RawVec$LT$T$C$A$GT$14current_memory17hf7ad0655a31f70a5E
	.p2align	4, 0x90
__ZN5alloc7raw_vec19RawVec$LT$T$C$A$GT$14current_memory17hf7ad0655a31f70a5E:
Lfunc_begin120:
	.loc	12 240 0
	.cfi_startproc
	pushq	%rbp
	.cfi_def_cfa_offset 16
	.cfi_offset %rbp, -16
	movq	%rsp, %rbp
	.cfi_def_cfa_register %rbp
	subq	$176, %rsp
	movq	%rsi, -152(%rbp)
	movq	%rdi, -144(%rbp)
	movq	%rdi, -136(%rbp)
	movq	%rsi, -80(%rbp)
Ltmp1264:
	.loc	12 241 12 prologue_end
	xorl	%eax, %eax
	testb	$1, %al
	jne	LBB120_2
	.loc	12 0 12 is_stmt 0
	movq	-152(%rbp), %rax
	.loc	12 241 25
	cmpq	$0, (%rax)
	sete	%al
	.loc	12 241 12
	andb	$1, %al
	movb	%al, -121(%rbp)
	jmp	LBB120_3
LBB120_2:
	movb	$1, -121(%rbp)
LBB120_3:
	testb	$1, -121(%rbp)
	jne	LBB120_5
	.loc	12 0 12
	movq	-152(%rbp), %rax
	.loc	12 247 49 is_stmt 1
	movq	(%rax), %rdx
	movq	%rdx, -72(%rbp)
Ltmp1265:
	.loc	22 459 5
	movq	$8, -64(%rbp)
Ltmp1266:
	.loc	29 89 18
	movq	$8, -56(%rbp)
	movq	-56(%rbp), %rsi
Ltmp1267:
	.loc	28 438 16
	movl	$104, %edi
	callq	__ZN4core5alloc6layout6Layout5array5inner17he3b7c4831272f69cE
	movq	%rax, %rdi
	movq	%rdx, %rsi
Ltmp1268:
	.loc	12 247 30
	leaq	l___unnamed_9(%rip), %rdx
	callq	__ZN4core6result19Result$LT$T$C$E$GT$16unwrap_unchecked17hc7c056f29c9078d3E
	movq	%rax, %rcx
	movq	-152(%rbp), %rax
	movq	%rcx, -168(%rbp)
	movq	%rdx, -160(%rbp)
	movq	%rcx, -48(%rbp)
	movq	%rdx, -40(%rbp)
Ltmp1269:
	.loc	12 248 23
	movq	8(%rax), %rax
	movq	%rax, -32(%rbp)
Ltmp1270:
	.loc	13 137 22
	movq	%rax, -24(%rbp)
Ltmp1271:
	.loc	14 450 41
	movq	%rax, -16(%rbp)
	movq	%rax, -8(%rbp)
Ltmp1272:
	.loc	14 201 13
	movq	%rax, -88(%rbp)
Ltmp1273:
	.loc	13 191 18
	movq	-88(%rbp), %rax
	.loc	13 191 9 is_stmt 0
	movq	%rax, -96(%rbp)
Ltmp1274:
	.loc	12 248 23 is_stmt 1
	movq	-96(%rbp), %rdi
	callq	__ZN50_$LT$T$u20$as$u20$core..convert..Into$LT$U$GT$$GT$4into17hcbecf878556e2beeE
	movq	-168(%rbp), %rcx
	movq	-160(%rbp), %rdx
	movq	%rax, %rsi
	movq	-144(%rbp), %rax
	.loc	12 248 22 is_stmt 0
	movq	%rsi, -120(%rbp)
	movq	%rcx, -112(%rbp)
	movq	%rdx, -104(%rbp)
	.loc	12 248 17
	movq	-120(%rbp), %rcx
	movq	%rcx, (%rax)
	movq	-112(%rbp), %rcx
	movq	%rcx, 8(%rax)
	movq	-104(%rbp), %rcx
	movq	%rcx, 16(%rax)
Ltmp1275:
	.loc	12 241 9 is_stmt 1
	jmp	LBB120_6
LBB120_5:
	.loc	12 0 9 is_stmt 0
	movq	-144(%rbp), %rax
	.loc	12 242 13 is_stmt 1
	movq	$0, 16(%rax)
LBB120_6:
	.loc	12 0 13 is_stmt 0
	movq	-136(%rbp), %rax
	.loc	12 251 6 is_stmt 1
	addq	$176, %rsp
	popq	%rbp
	retq
Ltmp1276:
Lfunc_end120:
	.cfi_endproc

	.globl	__ZN5alloc7raw_vec19RawVec$LT$T$C$A$GT$14grow_amortized17h5eb090530f1b58aeE
	.p2align	4, 0x90
__ZN5alloc7raw_vec19RawVec$LT$T$C$A$GT$14grow_amortized17h5eb090530f1b58aeE:
Lfunc_begin121:
	.loc	12 379 0
	.cfi_startproc
	pushq	%rbp
	.cfi_def_cfa_offset 16
	.cfi_offset %rbp, -16
	movq	%rsp, %rbp
	.cfi_def_cfa_register %rbp
	subq	$656, %rsp
	movq	%rdi, -624(%rbp)
	movq	%rsi, -616(%rbp)
	movq	%rdx, -608(%rbp)
	movq	%rdi, -352(%rbp)
	movq	%rsi, -344(%rbp)
	movq	%rdx, -336(%rbp)
Ltmp1277:
	.loc	12 383 12 prologue_end
	xorl	%eax, %eax
	testb	$1, %al
	jne	LBB121_2
	.loc	12 0 12 is_stmt 0
	movq	-608(%rbp), %rsi
	movq	-616(%rbp), %rdi
	.loc	12 390 28 is_stmt 1
	callq	__ZN4core3num23_$LT$impl$u20$usize$GT$11checked_add17hae24128b6b3a6ca7E
	movq	%rdx, -528(%rbp)
	movq	%rax, -536(%rbp)
	.loc	12 390 62 is_stmt 0
	movq	$0, -512(%rbp)
Ltmp1278:
	.loc	18 1096 9 is_stmt 1
	cmpq	$0, -536(%rbp)
	je	LBB121_4
	jmp	LBB121_5
Ltmp1279:
LBB121_2:
	.loc	12 386 24
	movq	$0, -576(%rbp)
	movq	-584(%rbp), %rdi
	movq	-576(%rbp), %rsi
	callq	__ZN50_$LT$T$u20$as$u20$core..convert..Into$LT$U$GT$$GT$4into17hc920310a2747cb9fE
	.loc	12 386 20 is_stmt 0
	movq	%rax, -600(%rbp)
	movq	%rdx, -592(%rbp)
LBB121_3:
	.loc	12 403 6 is_stmt 1
	movq	-600(%rbp), %rax
	movq	-592(%rbp), %rdx
	addq	$656, %rsp
	popq	%rbp
	retq
LBB121_4:
Ltmp1280:
	.loc	18 1098 25
	movq	-520(%rbp), %rcx
	movq	-512(%rbp), %rax
	.loc	18 1098 21 is_stmt 0
	movq	%rcx, -552(%rbp)
	movq	%rax, -544(%rbp)
	.loc	18 1098 28
	jmp	LBB121_6
LBB121_5:
	.loc	18 1097 18 is_stmt 1
	movq	-528(%rbp), %rax
	movq	%rax, -328(%rbp)
Ltmp1281:
	.loc	18 1097 24 is_stmt 0
	movq	%rax, -552(%rbp)
	movabsq	$-9223372036854775807, %rax
	movq	%rax, -544(%rbp)
Ltmp1282:
LBB121_6:
	.loc	20 2091 15 is_stmt 1
	movabsq	$-9223372036854775807, %rdx
	movl	$1, %eax
	xorl	%ecx, %ecx
	cmpq	%rdx, -544(%rbp)
	cmoveq	%rcx, %rax
	.loc	20 2091 9 is_stmt 0
	cmpq	$0, %rax
	jne	LBB121_8
	.loc	20 2092 16 is_stmt 1
	movq	-552(%rbp), %rax
	movq	%rax, -304(%rbp)
Ltmp1283:
	.loc	20 2092 22 is_stmt 0
	movq	%rax, -568(%rbp)
	movabsq	$-9223372036854775807, %rax
	movq	%rax, -560(%rbp)
Ltmp1284:
	.loc	20 2092 45
	jmp	LBB121_9
LBB121_8:
	.loc	20 2093 17 is_stmt 1
	movq	-552(%rbp), %rcx
	movq	-544(%rbp), %rax
	movq	%rcx, -320(%rbp)
	movq	%rax, -312(%rbp)
Ltmp1285:
	.loc	20 2093 42 is_stmt 0
	movq	%rcx, -400(%rbp)
	movq	%rax, -392(%rbp)
	.loc	20 2093 23
	movq	-400(%rbp), %rcx
	movq	-392(%rbp), %rax
	movq	%rcx, -568(%rbp)
	movq	%rax, -560(%rbp)
Ltmp1286:
LBB121_9:
	.loc	12 390 28 is_stmt 1
	movabsq	$-9223372036854775807, %rdx
	movl	$1, %eax
	xorl	%ecx, %ecx
	cmpq	%rdx, -560(%rbp)
	cmoveq	%rcx, %rax
	cmpq	$0, %rax
	jne	LBB121_11
	.loc	12 0 28 is_stmt 0
	movq	-624(%rbp), %rax
	.loc	12 390 28
	movq	-568(%rbp), %rsi
	movq	%rsi, -248(%rbp)
Ltmp1287:
	.loc	12 390 28
	movq	%rsi, -240(%rbp)
Ltmp1288:
	.loc	12 394 28 is_stmt 1
	movq	(%rax), %rdi
	shlq	$1, %rdi
	movq	%rdi, -232(%rbp)
	.loc	12 394 42 is_stmt 0
	movq	%rsi, -224(%rbp)
Ltmp1289:
	.loc	11 1276 5 is_stmt 1
	movq	%rdi, -216(%rbp)
	.loc	11 1276 12 is_stmt 0
	movq	%rsi, -208(%rbp)
Ltmp1290:
	.loc	11 803 13 is_stmt 1
	callq	__ZN4core3cmp6max_by17h178f3351ef6ac440E
	movq	%rax, %rsi
	movq	%rsi, -200(%rbp)
Ltmp1291:
	.loc	12 395 52
	movq	%rsi, -192(%rbp)
	.loc	12 395 19 is_stmt 0
	movq	$4, -184(%rbp)
Ltmp1292:
	.loc	11 1276 5 is_stmt 1
	movq	$4, -176(%rbp)
	.loc	11 1276 12 is_stmt 0
	movq	%rsi, -168(%rbp)
Ltmp1293:
	.loc	11 803 13 is_stmt 1
	movl	$4, %edi
	callq	__ZN4core3cmp6max_by17h178f3351ef6ac440E
	movq	%rax, %rdx
	movq	%rdx, -648(%rbp)
	movq	%rdx, -160(%rbp)
Ltmp1294:
	.loc	12 397 45
	movq	%rdx, -152(%rbp)
Ltmp1295:
	.loc	22 459 5
	movq	$8, -144(%rbp)
Ltmp1296:
	.loc	29 89 18
	movq	$8, -136(%rbp)
	movq	-136(%rbp), %rsi
Ltmp1297:
	.loc	28 438 16
	movl	$88, %edi
	callq	__ZN4core5alloc6layout6Layout5array5inner17he3b7c4831272f69cE
	movq	-624(%rbp), %rsi
	movq	%rax, -640(%rbp)
	movq	%rdx, -632(%rbp)
	movq	%rax, -128(%rbp)
	movq	%rdx, -120(%rbp)
Ltmp1298:
	.loc	12 400 43
	leaq	-440(%rbp), %rdi
	callq	__ZN5alloc7raw_vec19RawVec$LT$T$C$A$GT$14current_memory17h9d5f5c17eef0b7b7E
	movq	-640(%rbp), %rsi
	movq	-632(%rbp), %rdx
	movq	-624(%rbp), %r8
	.loc	12 400 19 is_stmt 0
	leaq	-464(%rbp), %rdi
	leaq	-440(%rbp), %rcx
	callq	__ZN5alloc7raw_vec11finish_grow17h2917c0e674963599E
Ltmp1299:
	.loc	20 2091 9 is_stmt 1
	cmpq	$0, -464(%rbp)
	je	LBB121_13
	jmp	LBB121_14
Ltmp1300:
LBB121_11:
	.loc	12 390 79
	movq	-568(%rbp), %rcx
	movq	-560(%rbp), %rax
	movq	%rcx, -296(%rbp)
	movq	%rax, -288(%rbp)
Ltmp1301:
	.loc	12 390 79 is_stmt 0
	movq	%rcx, -504(%rbp)
	movq	%rax, -496(%rbp)
Ltmp1302:
	.loc	20 2107 17 is_stmt 1
	movq	-504(%rbp), %rcx
	movq	-496(%rbp), %rax
	movq	%rcx, -280(%rbp)
	movq	%rax, -272(%rbp)
Ltmp1303:
	.loc	20 2107 38 is_stmt 0
	movq	%rcx, -264(%rbp)
	movq	%rax, -256(%rbp)
Ltmp1304:
	.file	37 "/rustc/2c8cc343237b8f7d5a3c3703e3a87f2eb2c54a74/library/alloc/src/collections" "mod.rs"
	.loc	37 117 9 is_stmt 1
	movq	%rcx, -384(%rbp)
	movq	%rax, -376(%rbp)
Ltmp1305:
	.loc	20 2107 23
	movq	-384(%rbp), %rcx
	movq	-376(%rbp), %rax
	movq	%rcx, -600(%rbp)
	movq	%rax, -592(%rbp)
Ltmp1306:
LBB121_12:
	.loc	19 1 1
	jmp	LBB121_3
LBB121_13:
Ltmp1307:
	.loc	20 2092 16
	movq	-456(%rbp), %rcx
	movq	-448(%rbp), %rax
	movq	%rcx, -96(%rbp)
	movq	%rax, -88(%rbp)
Ltmp1308:
	.loc	20 2092 22 is_stmt 0
	movq	%rcx, -480(%rbp)
	movq	%rax, -472(%rbp)
	movq	$0, -488(%rbp)
Ltmp1309:
	.loc	20 2092 45
	jmp	LBB121_15
LBB121_14:
	.loc	20 2093 17 is_stmt 1
	movq	-456(%rbp), %rcx
	movq	-448(%rbp), %rax
	movq	%rcx, -112(%rbp)
	movq	%rax, -104(%rbp)
Ltmp1310:
	.loc	20 2093 42 is_stmt 0
	movq	%rcx, -368(%rbp)
	movq	%rax, -360(%rbp)
	.loc	20 2093 23
	movq	-368(%rbp), %rcx
	movq	-360(%rbp), %rax
	movq	%rcx, -480(%rbp)
	movq	%rax, -472(%rbp)
	movq	$1, -488(%rbp)
Ltmp1311:
LBB121_15:
	.loc	12 400 19 is_stmt 1
	cmpq	$0, -488(%rbp)
	jne	LBB121_17
	.loc	12 0 19 is_stmt 0
	movq	-648(%rbp), %rcx
	movq	-624(%rbp), %rdi
	.loc	12 400 19
	movq	-480(%rbp), %rsi
	movq	-472(%rbp), %rdx
	movq	%rsi, -32(%rbp)
	movq	%rdx, -24(%rbp)
Ltmp1312:
	.loc	12 400 19
	movq	%rsi, -16(%rbp)
	movq	%rdx, -8(%rbp)
Ltmp1313:
	.loc	12 401 9 is_stmt 1
	callq	__ZN5alloc7raw_vec19RawVec$LT$T$C$A$GT$15set_ptr_and_cap17ha1db93beb5e1df77E
	.loc	12 402 9
	movabsq	$-9223372036854775807, %rax
	movq	%rax, -592(%rbp)
Ltmp1314:
	.loc	12 403 6
	jmp	LBB121_3
LBB121_17:
Ltmp1315:
	.loc	12 400 82
	movq	-480(%rbp), %rcx
	movq	-472(%rbp), %rax
	movq	%rcx, -80(%rbp)
	movq	%rax, -72(%rbp)
Ltmp1316:
	.loc	12 400 82 is_stmt 0
	movq	%rcx, -416(%rbp)
	movq	%rax, -408(%rbp)
Ltmp1317:
	.loc	20 2107 17 is_stmt 1
	movq	-416(%rbp), %rcx
	movq	-408(%rbp), %rax
	movq	%rcx, -64(%rbp)
	movq	%rax, -56(%rbp)
Ltmp1318:
	.loc	20 2107 38 is_stmt 0
	movq	%rcx, -48(%rbp)
	movq	%rax, -40(%rbp)
	.loc	20 2107 23
	movq	%rcx, -600(%rbp)
	movq	%rax, -592(%rbp)
Ltmp1319:
	.loc	19 1 1 is_stmt 1
	jmp	LBB121_12
Ltmp1320:
Lfunc_end121:
	.cfi_endproc

	.globl	__ZN5alloc7raw_vec19RawVec$LT$T$C$A$GT$14grow_amortized17he6e6d63e38438f5cE
	.p2align	4, 0x90
__ZN5alloc7raw_vec19RawVec$LT$T$C$A$GT$14grow_amortized17he6e6d63e38438f5cE:
Lfunc_begin122:
	.loc	12 379 0
	.cfi_startproc
	pushq	%rbp
	.cfi_def_cfa_offset 16
	.cfi_offset %rbp, -16
	movq	%rsp, %rbp
	.cfi_def_cfa_register %rbp
	subq	$656, %rsp
	movq	%rdi, -624(%rbp)
	movq	%rsi, -616(%rbp)
	movq	%rdx, -608(%rbp)
	movq	%rdi, -352(%rbp)
	movq	%rsi, -344(%rbp)
	movq	%rdx, -336(%rbp)
Ltmp1321:
	.loc	12 383 12 prologue_end
	xorl	%eax, %eax
	testb	$1, %al
	jne	LBB122_2
	.loc	12 0 12 is_stmt 0
	movq	-608(%rbp), %rsi
	movq	-616(%rbp), %rdi
	.loc	12 390 28 is_stmt 1
	callq	__ZN4core3num23_$LT$impl$u20$usize$GT$11checked_add17hae24128b6b3a6ca7E
	movq	%rdx, -528(%rbp)
	movq	%rax, -536(%rbp)
	.loc	12 390 62 is_stmt 0
	movq	$0, -512(%rbp)
Ltmp1322:
	.loc	18 1096 9 is_stmt 1
	cmpq	$0, -536(%rbp)
	je	LBB122_4
	jmp	LBB122_5
Ltmp1323:
LBB122_2:
	.loc	12 386 24
	movq	$0, -576(%rbp)
	movq	-584(%rbp), %rdi
	movq	-576(%rbp), %rsi
	callq	__ZN50_$LT$T$u20$as$u20$core..convert..Into$LT$U$GT$$GT$4into17hc920310a2747cb9fE
	.loc	12 386 20 is_stmt 0
	movq	%rax, -600(%rbp)
	movq	%rdx, -592(%rbp)
LBB122_3:
	.loc	12 403 6 is_stmt 1
	movq	-600(%rbp), %rax
	movq	-592(%rbp), %rdx
	addq	$656, %rsp
	popq	%rbp
	retq
LBB122_4:
Ltmp1324:
	.loc	18 1098 25
	movq	-520(%rbp), %rcx
	movq	-512(%rbp), %rax
	.loc	18 1098 21 is_stmt 0
	movq	%rcx, -552(%rbp)
	movq	%rax, -544(%rbp)
	.loc	18 1098 28
	jmp	LBB122_6
LBB122_5:
	.loc	18 1097 18 is_stmt 1
	movq	-528(%rbp), %rax
	movq	%rax, -328(%rbp)
Ltmp1325:
	.loc	18 1097 24 is_stmt 0
	movq	%rax, -552(%rbp)
	movabsq	$-9223372036854775807, %rax
	movq	%rax, -544(%rbp)
Ltmp1326:
LBB122_6:
	.loc	20 2091 15 is_stmt 1
	movabsq	$-9223372036854775807, %rdx
	movl	$1, %eax
	xorl	%ecx, %ecx
	cmpq	%rdx, -544(%rbp)
	cmoveq	%rcx, %rax
	.loc	20 2091 9 is_stmt 0
	cmpq	$0, %rax
	jne	LBB122_8
	.loc	20 2092 16 is_stmt 1
	movq	-552(%rbp), %rax
	movq	%rax, -304(%rbp)
Ltmp1327:
	.loc	20 2092 22 is_stmt 0
	movq	%rax, -568(%rbp)
	movabsq	$-9223372036854775807, %rax
	movq	%rax, -560(%rbp)
Ltmp1328:
	.loc	20 2092 45
	jmp	LBB122_9
LBB122_8:
	.loc	20 2093 17 is_stmt 1
	movq	-552(%rbp), %rcx
	movq	-544(%rbp), %rax
	movq	%rcx, -320(%rbp)
	movq	%rax, -312(%rbp)
Ltmp1329:
	.loc	20 2093 42 is_stmt 0
	movq	%rcx, -400(%rbp)
	movq	%rax, -392(%rbp)
	.loc	20 2093 23
	movq	-400(%rbp), %rcx
	movq	-392(%rbp), %rax
	movq	%rcx, -568(%rbp)
	movq	%rax, -560(%rbp)
Ltmp1330:
LBB122_9:
	.loc	12 390 28 is_stmt 1
	movabsq	$-9223372036854775807, %rdx
	movl	$1, %eax
	xorl	%ecx, %ecx
	cmpq	%rdx, -560(%rbp)
	cmoveq	%rcx, %rax
	cmpq	$0, %rax
	jne	LBB122_11
	.loc	12 0 28 is_stmt 0
	movq	-624(%rbp), %rax
	.loc	12 390 28
	movq	-568(%rbp), %rsi
	movq	%rsi, -248(%rbp)
Ltmp1331:
	.loc	12 390 28
	movq	%rsi, -240(%rbp)
Ltmp1332:
	.loc	12 394 28 is_stmt 1
	movq	(%rax), %rdi
	shlq	$1, %rdi
	movq	%rdi, -232(%rbp)
	.loc	12 394 42 is_stmt 0
	movq	%rsi, -224(%rbp)
Ltmp1333:
	.loc	11 1276 5 is_stmt 1
	movq	%rdi, -216(%rbp)
	.loc	11 1276 12 is_stmt 0
	movq	%rsi, -208(%rbp)
Ltmp1334:
	.loc	11 803 13 is_stmt 1
	callq	__ZN4core3cmp6max_by17h178f3351ef6ac440E
	movq	%rax, %rsi
	movq	%rsi, -200(%rbp)
Ltmp1335:
	.loc	12 395 52
	movq	%rsi, -192(%rbp)
	.loc	12 395 19 is_stmt 0
	movq	$4, -184(%rbp)
Ltmp1336:
	.loc	11 1276 5 is_stmt 1
	movq	$4, -176(%rbp)
	.loc	11 1276 12 is_stmt 0
	movq	%rsi, -168(%rbp)
Ltmp1337:
	.loc	11 803 13 is_stmt 1
	movl	$4, %edi
	callq	__ZN4core3cmp6max_by17h178f3351ef6ac440E
	movq	%rax, %rdx
	movq	%rdx, -648(%rbp)
	movq	%rdx, -160(%rbp)
Ltmp1338:
	.loc	12 397 45
	movq	%rdx, -152(%rbp)
Ltmp1339:
	.loc	22 459 5
	movq	$8, -144(%rbp)
Ltmp1340:
	.loc	29 89 18
	movq	$8, -136(%rbp)
	movq	-136(%rbp), %rsi
Ltmp1341:
	.loc	28 438 16
	movl	$104, %edi
	callq	__ZN4core5alloc6layout6Layout5array5inner17he3b7c4831272f69cE
	movq	-624(%rbp), %rsi
	movq	%rax, -640(%rbp)
	movq	%rdx, -632(%rbp)
	movq	%rax, -128(%rbp)
	movq	%rdx, -120(%rbp)
Ltmp1342:
	.loc	12 400 43
	leaq	-440(%rbp), %rdi
	callq	__ZN5alloc7raw_vec19RawVec$LT$T$C$A$GT$14current_memory17hf7ad0655a31f70a5E
	movq	-640(%rbp), %rsi
	movq	-632(%rbp), %rdx
	movq	-624(%rbp), %r8
	.loc	12 400 19 is_stmt 0
	leaq	-464(%rbp), %rdi
	leaq	-440(%rbp), %rcx
	callq	__ZN5alloc7raw_vec11finish_grow17h2917c0e674963599E
Ltmp1343:
	.loc	20 2091 9 is_stmt 1
	cmpq	$0, -464(%rbp)
	je	LBB122_13
	jmp	LBB122_14
Ltmp1344:
LBB122_11:
	.loc	12 390 79
	movq	-568(%rbp), %rcx
	movq	-560(%rbp), %rax
	movq	%rcx, -296(%rbp)
	movq	%rax, -288(%rbp)
Ltmp1345:
	.loc	12 390 79 is_stmt 0
	movq	%rcx, -504(%rbp)
	movq	%rax, -496(%rbp)
Ltmp1346:
	.loc	20 2107 17 is_stmt 1
	movq	-504(%rbp), %rcx
	movq	-496(%rbp), %rax
	movq	%rcx, -280(%rbp)
	movq	%rax, -272(%rbp)
Ltmp1347:
	.loc	20 2107 38 is_stmt 0
	movq	%rcx, -264(%rbp)
	movq	%rax, -256(%rbp)
Ltmp1348:
	.loc	37 117 9 is_stmt 1
	movq	%rcx, -384(%rbp)
	movq	%rax, -376(%rbp)
Ltmp1349:
	.loc	20 2107 23
	movq	-384(%rbp), %rcx
	movq	-376(%rbp), %rax
	movq	%rcx, -600(%rbp)
	movq	%rax, -592(%rbp)
Ltmp1350:
LBB122_12:
	.loc	19 1 1
	jmp	LBB122_3
LBB122_13:
Ltmp1351:
	.loc	20 2092 16
	movq	-456(%rbp), %rcx
	movq	-448(%rbp), %rax
	movq	%rcx, -96(%rbp)
	movq	%rax, -88(%rbp)
Ltmp1352:
	.loc	20 2092 22 is_stmt 0
	movq	%rcx, -480(%rbp)
	movq	%rax, -472(%rbp)
	movq	$0, -488(%rbp)
Ltmp1353:
	.loc	20 2092 45
	jmp	LBB122_15
LBB122_14:
	.loc	20 2093 17 is_stmt 1
	movq	-456(%rbp), %rcx
	movq	-448(%rbp), %rax
	movq	%rcx, -112(%rbp)
	movq	%rax, -104(%rbp)
Ltmp1354:
	.loc	20 2093 42 is_stmt 0
	movq	%rcx, -368(%rbp)
	movq	%rax, -360(%rbp)
	.loc	20 2093 23
	movq	-368(%rbp), %rcx
	movq	-360(%rbp), %rax
	movq	%rcx, -480(%rbp)
	movq	%rax, -472(%rbp)
	movq	$1, -488(%rbp)
Ltmp1355:
LBB122_15:
	.loc	12 400 19 is_stmt 1
	cmpq	$0, -488(%rbp)
	jne	LBB122_17
	.loc	12 0 19 is_stmt 0
	movq	-648(%rbp), %rcx
	movq	-624(%rbp), %rdi
	.loc	12 400 19
	movq	-480(%rbp), %rsi
	movq	-472(%rbp), %rdx
	movq	%rsi, -32(%rbp)
	movq	%rdx, -24(%rbp)
Ltmp1356:
	.loc	12 400 19
	movq	%rsi, -16(%rbp)
	movq	%rdx, -8(%rbp)
Ltmp1357:
	.loc	12 401 9 is_stmt 1
	callq	__ZN5alloc7raw_vec19RawVec$LT$T$C$A$GT$15set_ptr_and_cap17h5ec0c5e6b325b8bcE
	.loc	12 402 9
	movabsq	$-9223372036854775807, %rax
	movq	%rax, -592(%rbp)
Ltmp1358:
	.loc	12 403 6
	jmp	LBB122_3
LBB122_17:
Ltmp1359:
	.loc	12 400 82
	movq	-480(%rbp), %rcx
	movq	-472(%rbp), %rax
	movq	%rcx, -80(%rbp)
	movq	%rax, -72(%rbp)
Ltmp1360:
	.loc	12 400 82 is_stmt 0
	movq	%rcx, -416(%rbp)
	movq	%rax, -408(%rbp)
Ltmp1361:
	.loc	20 2107 17 is_stmt 1
	movq	-416(%rbp), %rcx
	movq	-408(%rbp), %rax
	movq	%rcx, -64(%rbp)
	movq	%rax, -56(%rbp)
Ltmp1362:
	.loc	20 2107 38 is_stmt 0
	movq	%rcx, -48(%rbp)
	movq	%rax, -40(%rbp)
	.loc	20 2107 23
	movq	%rcx, -600(%rbp)
	movq	%rax, -592(%rbp)
Ltmp1363:
	.loc	19 1 1 is_stmt 1
	jmp	LBB122_12
Ltmp1364:
Lfunc_end122:
	.cfi_endproc

	.globl	__ZN5alloc7raw_vec19RawVec$LT$T$C$A$GT$15set_ptr_and_cap17h5ec0c5e6b325b8bcE
	.p2align	4, 0x90
__ZN5alloc7raw_vec19RawVec$LT$T$C$A$GT$15set_ptr_and_cap17h5ec0c5e6b325b8bcE:
Lfunc_begin123:
	.loc	12 364 0
	.cfi_startproc
	pushq	%rbp
	.cfi_def_cfa_offset 16
	.cfi_offset %rbp, -16
	movq	%rsp, %rbp
	.cfi_def_cfa_register %rbp
	subq	$112, %rsp
	movq	%rdi, -88(%rbp)
	movq	%rsi, -80(%rbp)
	movq	%rdx, -72(%rbp)
	movq	%rcx, -64(%rbp)
Ltmp1365:
	.loc	12 368 51 prologue_end
	movq	%rsi, -56(%rbp)
	movq	%rdx, -48(%rbp)
Ltmp1366:
	.loc	14 450 41
	movq	%rsi, -40(%rbp)
	movq	%rdx, -32(%rbp)
	movq	%rsi, -24(%rbp)
Ltmp1367:
	.loc	14 201 13
	movq	%rsi, -104(%rbp)
Ltmp1368:
	.loc	14 326 9
	movq	-104(%rbp), %rax
	movq	%rax, -16(%rbp)
Ltmp1369:
	.loc	13 87 59
	movq	%rax, -8(%rbp)
Ltmp1370:
	.loc	14 201 13
	movq	%rax, -96(%rbp)
Ltmp1371:
	.loc	13 87 18
	movq	-96(%rbp), %rax
	movq	%rax, -112(%rbp)
Ltmp1372:
	.loc	12 368 9
	movq	-112(%rbp), %rax
	movq	%rax, 8(%rdi)
	.loc	12 369 9
	movq	%rcx, (%rdi)
	.loc	12 370 6
	addq	$112, %rsp
	popq	%rbp
	retq
Ltmp1373:
Lfunc_end123:
	.cfi_endproc

	.globl	__ZN5alloc7raw_vec19RawVec$LT$T$C$A$GT$15set_ptr_and_cap17ha1db93beb5e1df77E
	.p2align	4, 0x90
__ZN5alloc7raw_vec19RawVec$LT$T$C$A$GT$15set_ptr_and_cap17ha1db93beb5e1df77E:
Lfunc_begin124:
	.loc	12 364 0
	.cfi_startproc
	pushq	%rbp
	.cfi_def_cfa_offset 16
	.cfi_offset %rbp, -16
	movq	%rsp, %rbp
	.cfi_def_cfa_register %rbp
	subq	$112, %rsp
	movq	%rdi, -88(%rbp)
	movq	%rsi, -80(%rbp)
	movq	%rdx, -72(%rbp)
	movq	%rcx, -64(%rbp)
Ltmp1374:
	.loc	12 368 51 prologue_end
	movq	%rsi, -56(%rbp)
	movq	%rdx, -48(%rbp)
Ltmp1375:
	.loc	14 450 41
	movq	%rsi, -40(%rbp)
	movq	%rdx, -32(%rbp)
	movq	%rsi, -24(%rbp)
Ltmp1376:
	.loc	14 201 13
	movq	%rsi, -104(%rbp)
Ltmp1377:
	.loc	14 326 9
	movq	-104(%rbp), %rax
	movq	%rax, -16(%rbp)
Ltmp1378:
	.loc	13 87 59
	movq	%rax, -8(%rbp)
Ltmp1379:
	.loc	14 201 13
	movq	%rax, -96(%rbp)
Ltmp1380:
	.loc	13 87 18
	movq	-96(%rbp), %rax
	movq	%rax, -112(%rbp)
Ltmp1381:
	.loc	12 368 9
	movq	-112(%rbp), %rax
	movq	%rax, 8(%rdi)
	.loc	12 369 9
	movq	%rcx, (%rdi)
	.loc	12 370 6
	addq	$112, %rsp
	popq	%rbp
	retq
Ltmp1382:
Lfunc_end124:
	.cfi_endproc

	.globl	__ZN5alloc7raw_vec19RawVec$LT$T$C$A$GT$6new_in17h7f37b66e0f2022d5E
	.p2align	4, 0x90
__ZN5alloc7raw_vec19RawVec$LT$T$C$A$GT$6new_in17h7f37b66e0f2022d5E:
Lfunc_begin125:
	.loc	12 121 0
	.cfi_startproc
	pushq	%rbp
	.cfi_def_cfa_offset 16
	.cfi_offset %rbp, -16
	movq	%rsp, %rbp
	.cfi_def_cfa_register %rbp
	subq	$96, %rsp
Ltmp1383:
	.loc	22 459 5 prologue_end
	movq	$8, -48(%rbp)
Ltmp1384:
	.loc	16 599 14
	movq	$8, -40(%rbp)
	movq	-40(%rbp), %rax
	movq	%rax, -96(%rbp)
	movq	%rax, -32(%rbp)
Ltmp1385:
	.loc	16 0 14 is_stmt 0
	movq	-96(%rbp), %rax
Ltmp1386:
	.loc	14 97 36 is_stmt 1
	movq	%rax, -8(%rbp)
Ltmp1387:
	.loc	14 201 13
	movq	%rax, -64(%rbp)
Ltmp1388:
	.loc	13 191 18
	movq	-64(%rbp), %rax
	.loc	13 191 9 is_stmt 0
	movq	%rax, -72(%rbp)
Ltmp1389:
	.loc	12 123 9 is_stmt 1
	movq	-72(%rbp), %rax
	movq	%rax, -80(%rbp)
	movq	$0, -88(%rbp)
	.loc	12 124 6
	movq	-88(%rbp), %rax
	movq	-80(%rbp), %rdx
	addq	$96, %rsp
	popq	%rbp
	retq
Ltmp1390:
Lfunc_end125:
	.cfi_endproc

	.globl	__ZN5alloc7raw_vec19RawVec$LT$T$C$A$GT$6new_in17h9517519bf06eee4cE
	.p2align	4, 0x90
__ZN5alloc7raw_vec19RawVec$LT$T$C$A$GT$6new_in17h9517519bf06eee4cE:
Lfunc_begin126:
	.loc	12 121 0
	.cfi_startproc
	pushq	%rbp
	.cfi_def_cfa_offset 16
	.cfi_offset %rbp, -16
	movq	%rsp, %rbp
	.cfi_def_cfa_register %rbp
	subq	$96, %rsp
Ltmp1391:
	.loc	22 459 5 prologue_end
	movq	$8, -48(%rbp)
Ltmp1392:
	.loc	16 599 14
	movq	$8, -40(%rbp)
	movq	-40(%rbp), %rax
	movq	%rax, -96(%rbp)
	movq	%rax, -32(%rbp)
Ltmp1393:
	.loc	16 0 14 is_stmt 0
	movq	-96(%rbp), %rax
Ltmp1394:
	.loc	14 97 36 is_stmt 1
	movq	%rax, -8(%rbp)
Ltmp1395:
	.loc	14 201 13
	movq	%rax, -64(%rbp)
Ltmp1396:
	.loc	13 191 18
	movq	-64(%rbp), %rax
	.loc	13 191 9 is_stmt 0
	movq	%rax, -72(%rbp)
Ltmp1397:
	.loc	12 123 9 is_stmt 1
	movq	-72(%rbp), %rax
	movq	%rax, -80(%rbp)
	movq	$0, -88(%rbp)
	.loc	12 124 6
	movq	-88(%rbp), %rax
	movq	-80(%rbp), %rdx
	addq	$96, %rsp
	popq	%rbp
	retq
Ltmp1398:
Lfunc_end126:
	.cfi_endproc

	.globl	__ZN5alloc7raw_vec19RawVec$LT$T$C$A$GT$7reserve17h1cdba106c32a827aE
	.p2align	4, 0x90
__ZN5alloc7raw_vec19RawVec$LT$T$C$A$GT$7reserve17h1cdba106c32a827aE:
Lfunc_begin127:
	.loc	12 274 0
	.cfi_startproc
	pushq	%rbp
	.cfi_def_cfa_offset 16
	.cfi_offset %rbp, -16
	movq	%rsp, %rbp
	.cfi_def_cfa_register %rbp
	subq	$48, %rsp
	movq	%rdi, -48(%rbp)
	movq	%rsi, -40(%rbp)
	movq	%rdx, -32(%rbp)
	movq	%rdi, -24(%rbp)
	movq	%rsi, -16(%rbp)
	movq	%rdx, -8(%rbp)
Ltmp1399:
	.loc	12 288 12 prologue_end
	callq	__ZN5alloc7raw_vec19RawVec$LT$T$C$A$GT$13needs_to_grow17h696bb307f87643e2E
	testb	$1, %al
	jne	LBB127_2
LBB127_1:
	.loc	12 291 6
	addq	$48, %rsp
	popq	%rbp
	retq
LBB127_2:
	.loc	12 0 6 is_stmt 0
	movq	-32(%rbp), %rdx
	movq	-40(%rbp), %rsi
	movq	-48(%rbp), %rdi
	.loc	12 289 13 is_stmt 1
	callq	__ZN5alloc7raw_vec19RawVec$LT$T$C$A$GT$7reserve21do_reserve_and_handle17hce38c40130e71b80E
	.loc	12 288 9
	jmp	LBB127_1
Ltmp1400:
Lfunc_end127:
	.cfi_endproc

	.globl	__ZN5alloc7raw_vec19RawVec$LT$T$C$A$GT$7reserve17h584845d52b748d55E
	.p2align	4, 0x90
__ZN5alloc7raw_vec19RawVec$LT$T$C$A$GT$7reserve17h584845d52b748d55E:
Lfunc_begin128:
	.loc	12 274 0
	.cfi_startproc
	pushq	%rbp
	.cfi_def_cfa_offset 16
	.cfi_offset %rbp, -16
	movq	%rsp, %rbp
	.cfi_def_cfa_register %rbp
