	.section	__TEXT,__text,regular,pure_instructions
	.macosx_version_min 10, 7
	.file	1 "/Users/natalie/.cargo/registry/src/github.com-1ecc6299db9ec823/parking_lot_core-0.9.4" "src/parking_lot.rs"
	.file	2 "/rustc/2c8cc343237b8f7d5a3c3703e3a87f2eb2c54a74/library/std/src/thread" "local.rs"
	.globl	__ZN106_$LT$core..ops..range..Range$LT$usize$GT$$u20$as$u20$core..slice..index..SliceIndex$LT$$u5b$T$u5d$$GT$$GT$13get_unchecked17h7f32f90541b3f036E
	.p2align	4, 0x90
__ZN106_$LT$core..ops..range..Range$LT$usize$GT$$u20$as$u20$core..slice..index..SliceIndex$LT$$u5b$T$u5d$$GT$$GT$13get_unchecked17h7f32f90541b3f036E:
Lfunc_begin0:
	.file	3 "/rustc/2c8cc343237b8f7d5a3c3703e3a87f2eb2c54a74/library/core/src/slice" "index.rs"
	.loc	3 373 0
	.cfi_startproc
	pushq	%rbp
	.cfi_def_cfa_offset 16
	.cfi_offset %rbp, -16
	movq	%rsp, %rbp
	.cfi_def_cfa_register %rbp
	subq	$160, %rsp
	movq	%rdi, -128(%rbp)
	movq	%rsi, -120(%rbp)
	movq	%rdx, -112(%rbp)
	movq	%rcx, -104(%rbp)
Ltmp0:
	.loc	3 386 39 prologue_end
	movq	%rdx, -96(%rbp)
	movq	%rcx, -88(%rbp)
Ltmp1:
	.file	4 "/rustc/2c8cc343237b8f7d5a3c3703e3a87f2eb2c54a74/library/core/src/ptr" "const_ptr.rs"
	.loc	4 1650 9
	movq	%rdx, -80(%rbp)
Ltmp2:
	.loc	3 386 58
	movq	%rdi, -72(%rbp)
Ltmp3:
	.loc	4 932 18
	movq	%rdx, -64(%rbp)
	.loc	4 932 30 is_stmt 0
	movq	%rdi, -56(%rbp)
Ltmp4:
	.loc	4 473 18 is_stmt 1
	addq	%rdi, %rdx
	movq	%rdx, -48(%rbp)
	movq	-48(%rbp), %rax
	movq	%rax, -40(%rbp)
Ltmp5:
	.loc	3 386 71
	subq	%rdi, %rsi
	movq	%rsi, -32(%rbp)
Ltmp6:
	.file	5 "/rustc/2c8cc343237b8f7d5a3c3703e3a87f2eb2c54a74/library/core/src/ptr" "mod.rs"
	.loc	5 734 20
	movq	%rax, -24(%rbp)
Ltmp7:
	.loc	4 61 9
	movq	%rax, -16(%rbp)
Ltmp8:
	.loc	5 734 33
	movq	%rsi, -8(%rbp)
Ltmp9:
	.file	6 "/rustc/2c8cc343237b8f7d5a3c3703e3a87f2eb2c54a74/library/core/src/ptr" "metadata.rs"
	.loc	6 118 36
	movq	%rax, -144(%rbp)
	movq	%rsi, -136(%rbp)
	.loc	6 118 14 is_stmt 0
	movq	-144(%rbp), %rcx
	movq	-136(%rbp), %rax
	movq	%rcx, -160(%rbp)
	movq	%rax, -152(%rbp)
	movq	-160(%rbp), %rax
	movq	-152(%rbp), %rdx
Ltmp10:
	.loc	3 388 6 is_stmt 1
	addq	$160, %rsp
	popq	%rbp
	retq
Ltmp11:
Lfunc_end0:
	.cfi_endproc

	.globl	__ZN106_$LT$core..ops..range..Range$LT$usize$GT$$u20$as$u20$core..slice..index..SliceIndex$LT$$u5b$T$u5d$$GT$$GT$17get_unchecked_mut17h33bed20e03eaa284E
	.p2align	4, 0x90
__ZN106_$LT$core..ops..range..Range$LT$usize$GT$$u20$as$u20$core..slice..index..SliceIndex$LT$$u5b$T$u5d$$GT$$GT$17get_unchecked_mut17h33bed20e03eaa284E:
Lfunc_begin1:
	.loc	3 391 0
	.cfi_startproc
	pushq	%rbp
	.cfi_def_cfa_offset 16
	.cfi_offset %rbp, -16
	movq	%rsp, %rbp
	.cfi_def_cfa_register %rbp
	subq	$160, %rsp
	movq	%rdi, -128(%rbp)
	movq	%rsi, -120(%rbp)
	movq	%rdx, -112(%rbp)
	movq	%rcx, -104(%rbp)
Ltmp12:
	.loc	3 400 43 prologue_end
	movq	%rdx, -96(%rbp)
	movq	%rcx, -88(%rbp)
Ltmp13:
	.file	7 "/rustc/2c8cc343237b8f7d5a3c3703e3a87f2eb2c54a74/library/core/src/ptr" "mut_ptr.rs"
	.loc	7 2037 9
	movq	%rdx, -80(%rbp)
Ltmp14:
	.loc	3 400 66
	movq	%rdi, -72(%rbp)
Ltmp15:
	.loc	7 1034 18
	movq	%rdx, -64(%rbp)
	.loc	7 1034 30 is_stmt 0
	movq	%rdi, -56(%rbp)
Ltmp16:
	.loc	7 487 18 is_stmt 1
	addq	%rdi, %rdx
	movq	%rdx, -48(%rbp)
	movq	-48(%rbp), %rax
	movq	%rax, -40(%rbp)
Ltmp17:
	.loc	3 400 79
	subq	%rdi, %rsi
	movq	%rsi, -32(%rbp)
Ltmp18:
	.loc	5 766 24
	movq	%rax, -24(%rbp)
Ltmp19:
	.loc	7 60 9
	movq	%rax, -16(%rbp)
Ltmp20:
	.loc	5 766 37
	movq	%rsi, -8(%rbp)
Ltmp21:
	.loc	6 135 36
	movq	%rax, -144(%rbp)
	movq	%rsi, -136(%rbp)
	.loc	6 135 14 is_stmt 0
	movq	-144(%rbp), %rcx
	movq	-136(%rbp), %rax
	movq	%rcx, -160(%rbp)
	movq	%rax, -152(%rbp)
	movq	-160(%rbp), %rax
	movq	-152(%rbp), %rdx
Ltmp22:
	.loc	3 402 6 is_stmt 1
	addq	$160, %rsp
	popq	%rbp
	retq
Ltmp23:
Lfunc_end1:
	.cfi_endproc

	.globl	__ZN106_$LT$core..ops..range..Range$LT$usize$GT$$u20$as$u20$core..slice..index..SliceIndex$LT$$u5b$T$u5d$$GT$$GT$9index_mut17h8a7ac6b295edfbdcE
	.p2align	4, 0x90
__ZN106_$LT$core..ops..range..Range$LT$usize$GT$$u20$as$u20$core..slice..index..SliceIndex$LT$$u5b$T$u5d$$GT$$GT$9index_mut17h8a7ac6b295edfbdcE:
Lfunc_begin2:
	.loc	3 416 0
	.cfi_startproc
	pushq	%rbp
	.cfi_def_cfa_offset 16
	.cfi_offset %rbp, -16
	movq	%rsp, %rbp
	.cfi_def_cfa_register %rbp
	subq	$80, %rsp
	movq	%rdi, -72(%rbp)
	movq	%rsi, -64(%rbp)
	movq	%rdx, -56(%rbp)
	movq	%rcx, -48(%rbp)
	movq	%r8, -40(%rbp)
	movq	%rdi, -32(%rbp)
	movq	%rsi, -24(%rbp)
	movq	%rdx, -16(%rbp)
	movq	%rcx, -8(%rbp)
Ltmp24:
	.loc	3 417 12 prologue_end
	cmpq	%rsi, %rdi
	ja	LBB2_2
	.loc	3 0 12 is_stmt 0
	movq	-64(%rbp), %rax
	movq	-48(%rbp), %rcx
	.loc	3 419 19 is_stmt 1
	cmpq	%rcx, %rax
	ja	LBB2_4
	jmp	LBB2_3
LBB2_2:
	.loc	3 0 19 is_stmt 0
	movq	-40(%rbp), %rdx
	movq	-64(%rbp), %rsi
	movq	-72(%rbp), %rdi
	.loc	3 418 13 is_stmt 1
	callq	__ZN4core5slice5index22slice_index_order_fail17h0d8f800a07d5f26eE
LBB2_3:
	.loc	3 0 13 is_stmt 0
	movq	-48(%rbp), %rcx
	movq	-56(%rbp), %rdx
	movq	-64(%rbp), %rsi
	movq	-72(%rbp), %rdi
	.loc	3 423 24 is_stmt 1
	callq	__ZN106_$LT$core..ops..range..Range$LT$usize$GT$$u20$as$u20$core..slice..index..SliceIndex$LT$$u5b$T$u5d$$GT$$GT$17get_unchecked_mut17h33bed20e03eaa284E
	.loc	3 424 6
	addq	$80, %rsp
	popq	%rbp
	retq
LBB2_4:
	.loc	3 0 6 is_stmt 0
	movq	-40(%rbp), %rdx
	movq	-48(%rbp), %rsi
	movq	-64(%rbp), %rdi
	.loc	3 420 13 is_stmt 1
	callq	__ZN4core5slice5index24slice_end_index_len_fail17hc921cb2f1513645aE
Ltmp25:
Lfunc_end2:
	.cfi_endproc

	.globl	__ZN110_$LT$core..ops..range..RangeFrom$LT$usize$GT$$u20$as$u20$core..slice..index..SliceIndex$LT$$u5b$T$u5d$$GT$$GT$5index17h5935441f3e1a2be2E
	.p2align	4, 0x90
__ZN110_$LT$core..ops..range..RangeFrom$LT$usize$GT$$u20$as$u20$core..slice..index..SliceIndex$LT$$u5b$T$u5d$$GT$$GT$5index17h5935441f3e1a2be2E:
Lfunc_begin3:
	.loc	3 493 0
	.cfi_startproc
	pushq	%rbp
	.cfi_def_cfa_offset 16
	.cfi_offset %rbp, -16
	movq	%rsp, %rbp
	.cfi_def_cfa_register %rbp
	subq	$144, %rsp
	movq	%rdi, -144(%rbp)
	movq	%rsi, -136(%rbp)
	movq	%rdx, -128(%rbp)
	movq	%rcx, -120(%rbp)
	movq	%rdi, -80(%rbp)
	movq	%rsi, -72(%rbp)
	movq	%rdx, -64(%rbp)
Ltmp26:
	.loc	3 494 12 prologue_end
	cmpq	%rdx, %rdi
	ja	LBB3_2
	.loc	3 0 12 is_stmt 0
	movq	-128(%rbp), %rcx
	movq	-136(%rbp), %rdx
	movq	-144(%rbp), %rsi
	.loc	3 498 20 is_stmt 1
	movq	%rsi, -56(%rbp)
	.loc	3 498 39 is_stmt 0
	movq	%rdx, -48(%rbp)
	movq	%rcx, -40(%rbp)
Ltmp27:
	.loc	3 483 31 is_stmt 1
	movq	%rdx, -32(%rbp)
	movq	%rcx, -24(%rbp)
Ltmp28:
	.loc	4 1630 18
	movq	%rdx, -16(%rbp)
	movq	%rcx, -8(%rbp)
Ltmp29:
	.loc	6 98 14
	movq	%rdx, -96(%rbp)
	movq	%rcx, -88(%rbp)
	movq	-88(%rbp), %rax
Ltmp30:
	.loc	3 483 18
	movq	%rsi, -112(%rbp)
	movq	%rax, -104(%rbp)
	movq	-112(%rbp), %rdi
	movq	-104(%rbp), %rsi
	callq	__ZN106_$LT$core..ops..range..Range$LT$usize$GT$$u20$as$u20$core..slice..index..SliceIndex$LT$$u5b$T$u5d$$GT$$GT$13get_unchecked17h7f32f90541b3f036E
Ltmp31:
	.loc	3 499 6
	addq	$144, %rsp
	popq	%rbp
	retq
LBB3_2:
	.loc	3 0 6 is_stmt 0
	movq	-120(%rbp), %rdx
	movq	-128(%rbp), %rsi
	movq	-144(%rbp), %rdi
	.loc	3 495 13 is_stmt 1
	callq	__ZN4core5slice5index26slice_start_index_len_fail17h9d301bb51ec3e351E
Ltmp32:
Lfunc_end3:
	.cfi_endproc

	.globl	__ZN115_$LT$core..panic..unwind_safe..AssertUnwindSafe$LT$F$GT$$u20$as$u20$core..ops..function..FnOnce$LT$$LP$$RP$$GT$$GT$9call_once17h01c58a94c5a2dbbfE
	.p2align	4, 0x90
__ZN115_$LT$core..panic..unwind_safe..AssertUnwindSafe$LT$F$GT$$u20$as$u20$core..ops..function..FnOnce$LT$$LP$$RP$$GT$$GT$9call_once17h01c58a94c5a2dbbfE:
Lfunc_begin4:
	.file	8 "/rustc/2c8cc343237b8f7d5a3c3703e3a87f2eb2c54a74/library/core/src/panic" "unwind_safe.rs"
	.loc	8 270 0
	.cfi_startproc
	pushq	%rbp
	.cfi_def_cfa_offset 16
	.cfi_offset %rbp, -16
	movq	%rsp, %rbp
	.cfi_def_cfa_register %rbp
	subq	$16, %rsp
	movq	%rdi, -8(%rbp)
Ltmp33:
	.loc	8 271 9 prologue_end
	callq	__ZN4core3ops8function6FnOnce9call_once17hf060b0f4246e9e74E
	.loc	8 272 6
	addq	$16, %rsp
	popq	%rbp
	retq
Ltmp34:
Lfunc_end4:
	.cfi_endproc

	.globl	__ZN115_$LT$core..panic..unwind_safe..AssertUnwindSafe$LT$F$GT$$u20$as$u20$core..ops..function..FnOnce$LT$$LP$$RP$$GT$$GT$9call_once17hc631e6ccfb302b96E
	.p2align	4, 0x90
__ZN115_$LT$core..panic..unwind_safe..AssertUnwindSafe$LT$F$GT$$u20$as$u20$core..ops..function..FnOnce$LT$$LP$$RP$$GT$$GT$9call_once17hc631e6ccfb302b96E:
Lfunc_begin5:
	.loc	8 270 0
	.cfi_startproc
	pushq	%rbp
	.cfi_def_cfa_offset 16
	.cfi_offset %rbp, -16
	movq	%rsp, %rbp
	.cfi_def_cfa_register %rbp
	subq	$16, %rsp
	movq	%rdi, -8(%rbp)
Ltmp35:
	.loc	8 271 9 prologue_end
	callq	__ZN4core3ops8function6FnOnce9call_once17h7953043a2d08ccdcE
	.loc	8 272 6
	addq	$16, %rsp
	popq	%rbp
	retq
Ltmp36:
Lfunc_end5:
	.cfi_endproc

	.globl	__ZN119_$LT$core..ptr..non_null..NonNull$LT$T$GT$$u20$as$u20$core..convert..From$LT$core..ptr..unique..Unique$LT$T$GT$$GT$$GT$4from17he6913fc2a8416b47E
	.p2align	4, 0x90
__ZN119_$LT$core..ptr..non_null..NonNull$LT$T$GT$$u20$as$u20$core..convert..From$LT$core..ptr..unique..Unique$LT$T$GT$$GT$$GT$4from17he6913fc2a8416b47E:
Lfunc_begin6:
	.file	9 "/rustc/2c8cc343237b8f7d5a3c3703e3a87f2eb2c54a74/library/core/src/ptr" "non_null.rs"
	.loc	9 765 0
	.cfi_startproc
	pushq	%rbp
	.cfi_def_cfa_offset 16
	.cfi_offset %rbp, -16
	movq	%rsp, %rbp
	.cfi_def_cfa_register %rbp
	subq	$40, %rsp
	movq	%rdi, -32(%rbp)
Ltmp37:
	.loc	9 768 41 prologue_end
	movq	%rdi, -24(%rbp)
Ltmp38:
	.file	10 "/rustc/2c8cc343237b8f7d5a3c3703e3a87f2eb2c54a74/library/core/src/ptr" "unique.rs"
	.loc	10 104 9
	movq	%rdi, -16(%rbp)
Ltmp39:
	.loc	9 326 9
	movq	%rdi, -8(%rbp)
Ltmp40:
	.loc	9 201 13
	movq	%rdi, -40(%rbp)
Ltmp41:
	.loc	9 769 6
	movq	-40(%rbp), %rax
	addq	$40, %rsp
	popq	%rbp
	retq
Ltmp42:
Lfunc_end6:
	.cfi_endproc

	.p2align	4, 0x90
__ZN122_$LT$alloc..collections..TryReserveError$u20$as$u20$core..convert..From$LT$alloc..collections..TryReserveErrorKind$GT$$GT$4from17h96cc86ea09e66d5cE:
Lfunc_begin7:
	.file	11 "/rustc/2c8cc343237b8f7d5a3c3703e3a87f2eb2c54a74/library/alloc/src/collections" "mod.rs"
	.loc	11 116 0
	.cfi_startproc
	pushq	%rbp
	.cfi_def_cfa_offset 16
	.cfi_offset %rbp, -16
	movq	%rsp, %rbp
	.cfi_def_cfa_register %rbp
	subq	$32, %rsp
	movq	%rdi, -16(%rbp)
	movq	%rsi, -8(%rbp)
Ltmp43:
	.loc	11 117 9 prologue_end
	movq	%rdi, -32(%rbp)
	movq	%rsi, -24(%rbp)
	.loc	11 118 6
	movq	-32(%rbp), %rax
	movq	-24(%rbp), %rdx
	addq	$32, %rsp
	popq	%rbp
	retq
Ltmp44:
Lfunc_end7:
	.cfi_endproc

	.globl	__ZN3std2io5Write9write_all17hf5ec8d2d27ed200cE
	.p2align	4, 0x90
__ZN3std2io5Write9write_all17hf5ec8d2d27ed200cE:
Lfunc_begin8:
	.file	12 "/rustc/2c8cc343237b8f7d5a3c3703e3a87f2eb2c54a74/library/std/src/io" "mod.rs"
	.loc	12 1540 0
	.cfi_startproc
	.cfi_personality 155, _rust_eh_personality
	.cfi_lsda 16, Lexception0
	pushq	%rbp
	.cfi_def_cfa_offset 16
	.cfi_offset %rbp, -16
	movq	%rsp, %rbp
	.cfi_def_cfa_register %rbp
	subq	$256, %rsp
	movq	%rdi, -232(%rbp)
	movq	%rsi, -224(%rbp)
	movq	%rdx, -216(%rbp)
	movq	%rdi, -136(%rbp)
LBB8_1:
Ltmp53:
	.loc	12 1541 16 prologue_end
	movq	-224(%rbp), %rcx
	movq	-216(%rbp), %rax
	movq	%rcx, -128(%rbp)
	movq	%rax, -120(%rbp)
Ltmp54:
	.file	13 "/rustc/2c8cc343237b8f7d5a3c3703e3a87f2eb2c54a74/library/core/src/slice" "mod.rs"
	.loc	13 153 9
	cmpq	$0, %rax
	sete	%al
Ltmp55:
	.loc	12 1541 15
	xorb	$-1, %al
	testb	$1, %al
	jne	LBB8_3
	.loc	12 1554 9
	movq	$0, -208(%rbp)
	.loc	12 1555 6
	jmp	LBB8_23
LBB8_3:
	.loc	12 0 6 is_stmt 0
	movq	-232(%rbp), %rsi
	.loc	12 1542 30 is_stmt 1
	movq	-224(%rbp), %rdx
	movq	-216(%rbp), %rcx
	.loc	12 1542 19 is_stmt 0
	leaq	-200(%rbp), %rdi
	callq	__ZN64_$LT$std..sys..unix..stdio..Stderr$u20$as$u20$std..io..Write$GT$5write17hfeaf20e5669f7ee8E
	.loc	12 1542 13
	cmpq	$0, -200(%rbp)
	jne	LBB8_5
	cmpq	$0, -192(%rbp)
	je	LBB8_13
	jmp	LBB8_14
LBB8_5:
	.loc	12 1550 21 is_stmt 1
	leaq	-192(%rbp), %rax
	movq	%rax, -168(%rbp)
	leaq	-168(%rbp), %rax
	movq	%rax, -112(%rbp)
	.loc	12 1550 31 is_stmt 0
	movq	-168(%rbp), %rdi
Ltmp45:
	callq	__ZN3std2io5error5Error4kind17hc79ca6be097d0cf2E
Ltmp46:
	movb	%al, -233(%rbp)
	jmp	LBB8_8
LBB8_6:
	.loc	12 1553 9 is_stmt 1
	cmpq	$1, -200(%rbp)
	je	LBB8_16
	jmp	LBB8_17
LBB8_7:
Ltmp49:
	.loc	12 0 9 is_stmt 0
	movq	%rax, %rcx
	movl	%edx, %eax
	movq	%rcx, -104(%rbp)
	movl	%eax, -96(%rbp)
	jmp	LBB8_6
LBB8_8:
	movb	-233(%rbp), %al
	.loc	12 1550 31 is_stmt 1
	movb	%al, -153(%rbp)
	leaq	-153(%rbp), %rax
	movq	%rax, -88(%rbp)
	.loc	12 1550 43 is_stmt 0
	leaq	l___unnamed_8(%rip), %rax
	movq	%rax, -80(%rbp)
Ltmp56:
	.file	14 "/rustc/2c8cc343237b8f7d5a3c3703e3a87f2eb2c54a74/library/std/src/io" "error.rs"
	.loc	14 165 45 is_stmt 1
	movzbl	-153(%rbp), %eax
	movq	%rax, -72(%rbp)
Ltmp57:
	.loc	14 165 45 is_stmt 0
	movzbl	l___unnamed_8(%rip), %ecx
	movq	%rcx, -64(%rbp)
Ltmp58:
	.loc	14 165 45
	cmpq	%rcx, %rax
Ltmp59:
	.loc	12 1550 31 is_stmt 1
	je	LBB8_10
	.loc	12 1551 21
	movq	-192(%rbp), %rax
	movq	%rax, -56(%rbp)
Ltmp60:
	.loc	12 1551 34 is_stmt 0
	movq	%rax, -208(%rbp)
Ltmp61:
	.file	15 "/Users/natalie/.cargo/registry/src/github.com-1ecc6299db9ec823/parking_lot_core-0.9.4" "src/lib.rs"
	.loc	15 1 1 is_stmt 1
	jmp	LBB8_12
LBB8_10:
	.loc	12 1550 70
	jmp	LBB8_11
LBB8_11:
	.loc	12 1553 9
	cmpq	$1, -200(%rbp)
	je	LBB8_20
	jmp	LBB8_21
LBB8_12:
	.loc	12 1555 6
	jmp	LBB8_23
LBB8_13:
	.loc	12 1544 32
	leaq	l___unnamed_9(%rip), %rax
	movq	%rax, -24(%rbp)
Ltmp62:
	.loc	14 554 47
	leaq	l___unnamed_9(%rip), %rax
	movq	%rax, -16(%rbp)
Ltmp63:
	.file	16 "/rustc/2c8cc343237b8f7d5a3c3703e3a87f2eb2c54a74/library/std/src/io/error" "repr_bitpacked.rs"
	.loc	16 206 46
	leaq	l___unnamed_9(%rip), %rax
	movq	%rax, -8(%rbp)
Ltmp64:
	.loc	9 201 13
	leaq	l___unnamed_9(%rip), %rax
	movq	%rax, -144(%rbp)
Ltmp65:
	.loc	16 206 9
	movq	-144(%rbp), %rax
	movq	%rax, -152(%rbp)
Ltmp66:
	.loc	14 554 9
	movq	-152(%rbp), %rax
	movq	%rax, -184(%rbp)
Ltmp67:
	.loc	12 1544 28
	movq	-184(%rbp), %rax
	movq	%rax, -208(%rbp)
	.loc	15 1 1
	jmp	LBB8_12
LBB8_14:
	.loc	12 1549 20
	movq	-192(%rbp), %rax
	movq	%rax, -48(%rbp)
Ltmp68:
	.loc	12 1549 33 is_stmt 0
	movq	-224(%rbp), %rsi
	movq	-216(%rbp), %rdx
	movq	%rsi, -40(%rbp)
	movq	%rdx, -32(%rbp)
	.loc	12 1549 37
	movq	%rax, -176(%rbp)
Ltmp69:
	.loc	3 18 9 is_stmt 1
	movq	-176(%rbp), %rdi
Ltmp47:
	leaq	l___unnamed_10(%rip), %rcx
	callq	__ZN110_$LT$core..ops..range..RangeFrom$LT$usize$GT$$u20$as$u20$core..slice..index..SliceIndex$LT$$u5b$T$u5d$$GT$$GT$5index17h5935441f3e1a2be2E
Ltmp48:
	movq	%rdx, -256(%rbp)
	movq	%rax, -248(%rbp)
	jmp	LBB8_15
Ltmp70:
LBB8_15:
	.loc	3 0 9 is_stmt 0
	movq	-256(%rbp), %rax
	movq	-248(%rbp), %rcx
	.loc	12 1549 26 is_stmt 1
	movq	%rcx, -224(%rbp)
	movq	%rax, -216(%rbp)
Ltmp71:
	.loc	12 1549 40 is_stmt 0
	jmp	LBB8_11
LBB8_16:
	.loc	12 1553 9 is_stmt 1
	movb	$1, %al
	testb	$1, %al
	jne	LBB8_18
	jmp	LBB8_17
LBB8_17:
	.loc	12 1540 5
	movq	-104(%rbp), %rdi
	callq	__Unwind_Resume
LBB8_18:
	.loc	12 1553 9
	leaq	-192(%rbp), %rdi
Ltmp50:
	callq	__ZN4core3ptr42drop_in_place$LT$std..io..error..Error$GT$17ha569f81c3d05b6e2E
Ltmp51:
	jmp	LBB8_17
LBB8_19:
Ltmp52:
	.loc	12 1540 5
	callq	__ZN4core9panicking19panic_cannot_unwind17h1fbca7e1d7f56ae1E
LBB8_20:
	.loc	12 1553 9
	movb	$1, %al
	testb	$1, %al
	jne	LBB8_22
	jmp	LBB8_21
LBB8_21:
	.loc	12 1541 9
	jmp	LBB8_1
LBB8_22:
	.loc	12 1553 9
	leaq	-200(%rbp), %rdi
	addq	$8, %rdi
	callq	__ZN4core3ptr42drop_in_place$LT$std..io..error..Error$GT$17ha569f81c3d05b6e2E
	jmp	LBB8_21
LBB8_23:
	.loc	12 1555 6
	movq	-208(%rbp), %rax
	addq	$256, %rsp
	popq	%rbp
	retq
Ltmp72:
Lfunc_end8:
	.cfi_endproc
	.section	__TEXT,__gcc_except_tab
	.p2align	2
GCC_except_table8:
Lexception0:
	.byte	255
	.byte	255
	.byte	1
	.uleb128 Lcst_end0-Lcst_begin0
Lcst_begin0:
	.uleb128 Lfunc_begin8-Lfunc_begin8
	.uleb128 Ltmp45-Lfunc_begin8
	.byte	0
	.byte	0
	.uleb128 Ltmp45-Lfunc_begin8
	.uleb128 Ltmp48-Ltmp45
	.uleb128 Ltmp49-Lfunc_begin8
	.byte	0
	.uleb128 Ltmp48-Lfunc_begin8
	.uleb128 Ltmp50-Ltmp48
	.byte	0
	.byte	0
	.uleb128 Ltmp50-Lfunc_begin8
	.uleb128 Ltmp51-Ltmp50
	.uleb128 Ltmp52-Lfunc_begin8
	.byte	0
	.uleb128 Ltmp51-Lfunc_begin8
	.uleb128 Lfunc_end8-Ltmp51
	.byte	0
	.byte	0
Lcst_end0:
	.p2align	2

	.section	__TEXT,__text,regular,pure_instructions
	.globl	__ZN3std2io5Write9write_fmt17hdf0dee3bf42e2d9fE
	.p2align	4, 0x90
__ZN3std2io5Write9write_fmt17hdf0dee3bf42e2d9fE:
Lfunc_begin9:
	.loc	12 1661 0
	.cfi_startproc
	.cfi_personality 155, _rust_eh_personality
	.cfi_lsda 16, Lexception1
	pushq	%rbp
	.cfi_def_cfa_offset 16
	.cfi_offset %rbp, -16
	movq	%rsp, %rbp
	.cfi_def_cfa_register %rbp
	subq	$192, %rsp
	movq	%rdi, -64(%rbp)
Ltmp79:
	.loc	12 1681 56 prologue_end
	movq	$0, -160(%rbp)
	.loc	12 1681 26 is_stmt 0
	movb	$1, -82(%rbp)
	movq	%rdi, -168(%rbp)
	movq	-160(%rbp), %rax
	movq	%rax, -176(%rbp)
Ltmp80:
	.loc	12 1682 39 is_stmt 1
	movq	40(%rsi), %rax
	movq	%rax, -104(%rbp)
	movq	32(%rsi), %rax
	movq	%rax, -112(%rbp)
	movq	24(%rsi), %rax
	movq	%rax, -120(%rbp)
	movq	16(%rsi), %rax
	movq	%rax, -128(%rbp)
	movq	(%rsi), %rax
	movq	8(%rsi), %rcx
	movq	%rcx, -136(%rbp)
	movq	%rax, -144(%rbp)
Ltmp73:
	.loc	12 1682 15 is_stmt 0
	leaq	l___unnamed_1(%rip), %rsi
Ltmp81:
	.loc	12 0 15
	leaq	-176(%rbp), %rdi
	leaq	-144(%rbp), %rdx
	.loc	12 1682 15
	callq	__ZN4core3fmt5write17hfa389e524187f2c6E
Ltmp74:
	movb	%al, -185(%rbp)
	jmp	LBB9_3
Ltmp82:
LBB9_1:
Ltmp76:
	.loc	12 0 15
	leaq	-176(%rbp), %rdi
	.loc	12 1693 5 is_stmt 1
	callq	__ZN4core3ptr92drop_in_place$LT$std..io..Write..write_fmt..Adapter$LT$std..sys..unix..stdio..Stderr$GT$$GT$17h60ee53817f3bbd8bE
Ltmp77:
	jmp	LBB9_5
Ltmp83:
LBB9_2:
Ltmp75:
	.loc	12 0 5 is_stmt 0
	movq	%rax, %rcx
	movl	%edx, %eax
	movq	%rcx, -56(%rbp)
	movl	%eax, -48(%rbp)
	jmp	LBB9_1
Ltmp84:
LBB9_3:
	movb	-185(%rbp), %al
Ltmp85:
	.loc	12 1682 15 is_stmt 1
	andb	$1, %al
	movb	%al, -145(%rbp)
	movb	-145(%rbp), %al
	andb	$1, %al
	movzbl	%al, %eax
	.loc	12 1682 9 is_stmt 0
	cmpq	$0, %rax
	je	LBB9_6
	jmp	LBB9_7
Ltmp86:
LBB9_4:
Ltmp78:
	.loc	12 1661 5 is_stmt 1
	callq	__ZN4core9panicking19panic_cannot_unwind17h1fbca7e1d7f56ae1E
Ltmp87:
LBB9_5:
	movq	-56(%rbp), %rdi
	callq	__Unwind_Resume
Ltmp88:
LBB9_6:
	.loc	12 1683 23
	movq	$0, -184(%rbp)
	.loc	12 1683 28 is_stmt 0
	jmp	LBB9_14
Ltmp89:
LBB9_7:
	.loc	12 1686 20 is_stmt 1
	leaq	-176(%rbp), %rax
	movq	%rax, -40(%rbp)
Ltmp90:
	.file	17 "/rustc/2c8cc343237b8f7d5a3c3703e3a87f2eb2c54a74/library/core/src" "result.rs"
	.loc	17 589 10
	leaq	-176(%rbp), %rax
	movq	%rax, -32(%rbp)
Ltmp91:
	.loc	17 542 18
	movq	-176(%rbp), %rdx
	movl	$1, %eax
	xorl	%ecx, %ecx
	cmpq	$0, %rdx
	cmoveq	%rcx, %rax
	.file	18 "/rustc/2c8cc343237b8f7d5a3c3703e3a87f2eb2c54a74/library/core/src/macros" "mod.rs"
	.loc	18 344 9
	cmpq	$0, %rax
	jne	LBB9_9
Ltmp92:
	.loc	18 345 48
	movb	$1, -81(%rbp)
	jmp	LBB9_10
Ltmp93:
LBB9_9:
	.loc	18 346 18
	movb	$0, -81(%rbp)
Ltmp94:
LBB9_10:
	.loc	17 589 9
	movb	-81(%rbp), %al
	xorb	$-1, %al
Ltmp95:
	.loc	12 1686 20
	testb	$1, %al
	jne	LBB9_12
Ltmp96:
	.loc	12 1689 25
	leaq	l___unnamed_11(%rip), %rax
	movq	%rax, -24(%rbp)
Ltmp97:
	.loc	14 554 47
	leaq	l___unnamed_11(%rip), %rax
	movq	%rax, -16(%rbp)
Ltmp98:
	.loc	16 206 46
	leaq	l___unnamed_11(%rip), %rax
	movq	%rax, -8(%rbp)
Ltmp99:
	.loc	9 201 13
	leaq	l___unnamed_11(%rip), %rax
	movq	%rax, -72(%rbp)
Ltmp100:
	.loc	16 206 9
	movq	-72(%rbp), %rax
	movq	%rax, -80(%rbp)
Ltmp101:
	.loc	14 554 9
	movq	-80(%rbp), %rax
	movq	%rax, -96(%rbp)
Ltmp102:
	.loc	12 1689 21
	movq	-96(%rbp), %rax
	movq	%rax, -184(%rbp)
	.loc	12 1686 17
	jmp	LBB9_13
Ltmp103:
LBB9_12:
	.loc	12 1687 21
	movb	$0, -82(%rbp)
	movq	-176(%rbp), %rax
	movq	%rax, -184(%rbp)
Ltmp104:
LBB9_13:
	.loc	12 1690 17
	jmp	LBB9_14
Ltmp105:
LBB9_14:
	.loc	12 1693 5
	testb	$1, -82(%rbp)
	jne	LBB9_16
Ltmp106:
LBB9_15:
	.loc	12 1693 6 is_stmt 0
	movq	-184(%rbp), %rax
	addq	$192, %rsp
	popq	%rbp
	retq
Ltmp107:
LBB9_16:
	.loc	12 1693 5
	leaq	-176(%rbp), %rdi
	callq	__ZN4core3ptr81drop_in_place$LT$core..result..Result$LT$$LP$$RP$$C$std..io..error..Error$GT$$GT$17h63dd8221c81a39d1E
	jmp	LBB9_15
Ltmp108:
Lfunc_end9:
	.cfi_endproc
	.section	__TEXT,__gcc_except_tab
	.p2align	2
GCC_except_table9:
Lexception1:
	.byte	255
	.byte	255
	.byte	1
	.uleb128 Lcst_end1-Lcst_begin1
Lcst_begin1:
	.uleb128 Ltmp73-Lfunc_begin9
	.uleb128 Ltmp74-Ltmp73
	.uleb128 Ltmp75-Lfunc_begin9
	.byte	0
	.uleb128 Ltmp76-Lfunc_begin9
	.uleb128 Ltmp77-Ltmp76
	.uleb128 Ltmp78-Lfunc_begin9
	.byte	0
	.uleb128 Ltmp77-Lfunc_begin9
	.uleb128 Lfunc_end9-Ltmp77
	.byte	0
	.byte	0
Lcst_end1:
	.p2align	2

	.section	__TEXT,__text,regular,pure_instructions
	.globl	__ZN3std2io5error14repr_bitpacked11decode_repr17h16cce9c25d7e07c1E
	.p2align	4, 0x90
__ZN3std2io5error14repr_bitpacked11decode_repr17h16cce9c25d7e07c1E:
Lfunc_begin10:
	.loc	16 246 0 is_stmt 1
	.cfi_startproc
	.cfi_personality 155, _rust_eh_personality
	.cfi_lsda 16, Lexception2
	pushq	%rbp
	.cfi_def_cfa_offset 16
	.cfi_offset %rbp, -16
	movq	%rsp, %rbp
	.cfi_def_cfa_register %rbp
	subq	$320, %rsp
	movq	%rsi, -272(%rbp)
	movq	%rdi, -264(%rbp)
	movq	%rdi, -256(%rbp)
	movq	%rsi, -184(%rbp)
Ltmp118:
	.loc	16 250 9 prologue_end
	movb	$1, -201(%rbp)
	.loc	16 250 16 is_stmt 0
	movq	%rsi, -160(%rbp)
Ltmp119:
	.loc	9 326 9 is_stmt 1
	movq	%rsi, -152(%rbp)
Ltmp120:
	.loc	7 215 33
	movq	%rsi, -144(%rbp)
	.loc	7 215 18 is_stmt 0
	movq	%rsi, -248(%rbp)
Ltmp121:
	.loc	16 251 11 is_stmt 1
	movq	-248(%rbp), %rax
	andl	$3, %eax
	movq	%rax, -280(%rbp)
	.loc	16 251 5 is_stmt 0
	subq	$3, %rax
	ja	LBB10_2
	.loc	16 0 5
	movq	-280(%rbp), %rax
	leaq	LJTI10_0(%rip), %rcx
	movslq	(%rcx,%rax,4), %rax
	addq	%rcx, %rax
	jmpq	*%rax
LBB10_2:
Ltmp115:
	.loc	16 280 13 is_stmt 1
	leaq	l___unnamed_12(%rip), %rdi
	leaq	l___unnamed_13(%rip), %rdx
	movl	$40, %esi
	callq	__ZN4core9panicking5panic17hc1bc45270cf64b03E
Ltmp116:
	jmp	LBB10_9
LBB10_3:
	.loc	16 0 13 is_stmt 0
	movq	-264(%rbp), %rax
	.loc	16 253 26 is_stmt 1
	movq	-248(%rbp), %rcx
	.loc	16 253 24 is_stmt 0
	sarq	$32, %rcx
	movl	%ecx, -4(%rbp)
Ltmp122:
	.loc	16 254 13 is_stmt 1
	movl	%ecx, 4(%rax)
	movb	$0, (%rax)
Ltmp123:
	.loc	16 255 9
	jmp	LBB10_12
LBB10_4:
	.loc	16 257 30
	movl	-244(%rbp), %edi
	.loc	16 257 29 is_stmt 0
	movl	%edi, -12(%rbp)
Ltmp111:
Ltmp124:
	.loc	16 258 24 is_stmt 1
	callq	__ZN3std2io5error14repr_bitpacked14kind_from_prim17hcadcb6f556fa36bdE
Ltmp112:
	movb	%al, -281(%rbp)
	jmp	LBB10_13
Ltmp125:
LBB10_5:
	.loc	16 0 24 is_stmt 0
	movq	-264(%rbp), %rax
	movq	-272(%rbp), %rcx
	.loc	16 270 58 is_stmt 1
	movq	%rcx, -40(%rbp)
Ltmp126:
	.loc	9 450 41
	movq	%rcx, -32(%rbp)
	movq	%rcx, -24(%rbp)
Ltmp127:
	.loc	9 201 13
	movq	%rcx, -224(%rbp)
Ltmp128:
	.loc	9 326 9
	movq	-224(%rbp), %rcx
Ltmp129:
	.loc	16 270 31
	movq	%rcx, 8(%rax)
	movb	$2, (%rax)
	.loc	16 270 94 is_stmt 0
	jmp	LBB10_12
LBB10_6:
	.loc	16 0 94
	movq	-272(%rbp), %rax
	.loc	16 275 26 is_stmt 1
	movq	%rax, -120(%rbp)
Ltmp130:
	.loc	9 326 9
	movq	%rax, -112(%rbp)
Ltmp131:
	.loc	7 1300 9
	movq	%rax, -104(%rbp)
Ltmp132:
	.loc	7 60 9
	movq	%rax, -96(%rbp)
Ltmp133:
	.loc	7 1282 9
	movq	%rax, -88(%rbp)
Ltmp134:
	.loc	7 568 18
	addq	$-1, %rax
	movq	%rax, -80(%rbp)
	movq	-80(%rbp), %rax
	movq	%rax, -296(%rbp)
	jmp	LBB10_10
Ltmp135:
LBB10_7:
	.loc	16 283 1
	testb	$1, -201(%rbp)
	jne	LBB10_19
	jmp	LBB10_18
LBB10_8:
Ltmp117:
	.loc	16 0 1 is_stmt 0
	movq	%rax, %rcx
	movl	%edx, %eax
	movq	%rcx, -136(%rbp)
	movl	%eax, -128(%rbp)
	jmp	LBB10_7
LBB10_9:
	ud2
LBB10_10:
	movq	-296(%rbp), %rax
Ltmp136:
	.loc	7 568 18 is_stmt 1
	movq	%rax, -72(%rbp)
Ltmp137:
	.loc	7 99 33
	movq	%rax, -64(%rbp)
Ltmp138:
	.loc	6 135 36
	movq	%rax, -192(%rbp)
	.loc	6 135 14 is_stmt 0
	movq	-192(%rbp), %rax
	movq	%rax, -200(%rbp)
	movq	-200(%rbp), %rax
	movq	%rax, -56(%rbp)
Ltmp139:
	.loc	7 60 9 is_stmt 1
	movq	%rax, -48(%rbp)
Ltmp140:
	.loc	16 276 31
	movb	$0, -201(%rbp)
	movq	%rax, -216(%rbp)
	movq	-216(%rbp), %rdi
Ltmp109:
	callq	__ZN3std2io5error14repr_bitpacked4Repr4data28_$u7b$$u7b$closure$u7d$$u7d$17h150e94a393cc95adE
Ltmp110:
	movq	%rax, -304(%rbp)
	jmp	LBB10_11
LBB10_11:
	.loc	16 0 31 is_stmt 0
	movq	-264(%rbp), %rax
	movq	-304(%rbp), %rcx
	.loc	16 276 13
	movq	%rcx, 8(%rax)
	movb	$3, (%rax)
Ltmp141:
LBB10_12:
	.loc	16 283 1 is_stmt 1
	testb	$1, -201(%rbp)
	jne	LBB10_21
	jmp	LBB10_20
LBB10_13:
	.loc	16 0 1 is_stmt 0
	movb	-281(%rbp), %al
Ltmp142:
	.loc	16 258 24 is_stmt 1
	movb	%al, -233(%rbp)
	.loc	16 258 65 is_stmt 0
	leaq	-248(%rbp), %rax
	movq	%rax, -232(%rbp)
Ltmp143:
	.file	19 "/rustc/2c8cc343237b8f7d5a3c3703e3a87f2eb2c54a74/library/core/src" "option.rs"
	.loc	19 871 15 is_stmt 1
	movl	$1, %eax
	xorl	%ecx, %ecx
	cmpb	$41, -233(%rbp)
	cmoveq	%rcx, %rax
	.loc	19 871 9 is_stmt 0
	cmpq	$0, %rax
	jne	LBB10_15
	.loc	19 873 21 is_stmt 1
	movq	-232(%rbp), %rdi
Ltmp113:
	callq	__ZN3std2io5error14repr_bitpacked11decode_repr28_$u7b$$u7b$closure$u7d$$u7d$17h1b76e69494848813E
Ltmp114:
	movb	%al, -305(%rbp)
	jmp	LBB10_17
LBB10_15:
	.loc	19 872 18
	movb	-233(%rbp), %al
	movb	%al, -5(%rbp)
Ltmp144:
	.loc	19 872 24 is_stmt 0
	movb	%al, -234(%rbp)
Ltmp145:
LBB10_16:
	.loc	19 0 24
	movq	-264(%rbp), %rax
Ltmp146:
	.loc	16 268 31 is_stmt 1
	movb	-234(%rbp), %cl
	.loc	16 268 13 is_stmt 0
	movb	%cl, 1(%rax)
	movb	$1, (%rax)
Ltmp147:
	.loc	16 269 9 is_stmt 1
	jmp	LBB10_12
LBB10_17:
	.loc	16 0 9 is_stmt 0
	movb	-305(%rbp), %al
Ltmp148:
	.loc	19 873 21 is_stmt 1
	movb	%al, -234(%rbp)
	.loc	19 873 23 is_stmt 0
	jmp	LBB10_16
Ltmp149:
LBB10_18:
	.loc	16 246 1 is_stmt 1
	movq	-136(%rbp), %rdi
	callq	__Unwind_Resume
LBB10_19:
	.loc	16 283 1
	jmp	LBB10_18
LBB10_20:
	.loc	16 0 1 is_stmt 0
	movq	-256(%rbp), %rax
	.loc	16 283 2
	addq	$320, %rsp
	popq	%rbp
	retq
LBB10_21:
	.loc	16 283 1
	jmp	LBB10_20
Ltmp150:
Lfunc_end10:
	.cfi_endproc
	.p2align	2, 0x90
	.data_region jt32
.set L10_0_set_5, LBB10_5-LJTI10_0
.set L10_0_set_6, LBB10_6-LJTI10_0
.set L10_0_set_3, LBB10_3-LJTI10_0
.set L10_0_set_4, LBB10_4-LJTI10_0
LJTI10_0:
	.long	L10_0_set_5
	.long	L10_0_set_6
	.long	L10_0_set_3
	.long	L10_0_set_4
	.end_data_region
	.section	__TEXT,__gcc_except_tab
	.p2align	2
GCC_except_table10:
Lexception2:
	.byte	255
	.byte	255
	.byte	1
	.uleb128 Lcst_end2-Lcst_begin2
Lcst_begin2:
	.uleb128 Ltmp115-Lfunc_begin10
	.uleb128 Ltmp114-Ltmp115
	.uleb128 Ltmp117-Lfunc_begin10
	.byte	0
	.uleb128 Ltmp114-Lfunc_begin10
	.uleb128 Lfunc_end10-Ltmp114
	.byte	0
	.byte	0
Lcst_end2:
	.p2align	2

	.section	__TEXT,__text,regular,pure_instructions
	.globl	__ZN3std2io5error14repr_bitpacked11decode_repr17ha695cfe9dd12a05aE
	.p2align	4, 0x90
__ZN3std2io5error14repr_bitpacked11decode_repr17ha695cfe9dd12a05aE:
Lfunc_begin11:
	.loc	16 246 0 is_stmt 1
	.cfi_startproc
	.cfi_personality 155, _rust_eh_personality
	.cfi_lsda 16, Lexception3
	pushq	%rbp
	.cfi_def_cfa_offset 16
	.cfi_offset %rbp, -16
	movq	%rsp, %rbp
	.cfi_def_cfa_register %rbp
	subq	$320, %rsp
	movq	%rsi, -272(%rbp)
	movq	%rdi, -264(%rbp)
	movq	%rdi, -256(%rbp)
	movq	%rsi, -184(%rbp)
Ltmp160:
	.loc	16 250 9 prologue_end
	movb	$1, -201(%rbp)
	.loc	16 250 16 is_stmt 0
	movq	%rsi, -160(%rbp)
Ltmp161:
	.loc	9 326 9 is_stmt 1
	movq	%rsi, -152(%rbp)
Ltmp162:
	.loc	7 215 33
	movq	%rsi, -144(%rbp)
	.loc	7 215 18 is_stmt 0
	movq	%rsi, -248(%rbp)
Ltmp163:
	.loc	16 251 11 is_stmt 1
	movq	-248(%rbp), %rax
	andl	$3, %eax
	movq	%rax, -280(%rbp)
	.loc	16 251 5 is_stmt 0
	subq	$3, %rax
	ja	LBB11_2
	.loc	16 0 5
	movq	-280(%rbp), %rax
	leaq	LJTI11_0(%rip), %rcx
	movslq	(%rcx,%rax,4), %rax
	addq	%rcx, %rax
	jmpq	*%rax
LBB11_2:
Ltmp157:
	.loc	16 280 13 is_stmt 1
	leaq	l___unnamed_12(%rip), %rdi
	leaq	l___unnamed_13(%rip), %rdx
	movl	$40, %esi
	callq	__ZN4core9panicking5panic17hc1bc45270cf64b03E
Ltmp158:
	jmp	LBB11_9
LBB11_3:
	.loc	16 0 13 is_stmt 0
	movq	-264(%rbp), %rax
	.loc	16 253 26 is_stmt 1
	movq	-248(%rbp), %rcx
	.loc	16 253 24 is_stmt 0
	sarq	$32, %rcx
	movl	%ecx, -4(%rbp)
Ltmp164:
	.loc	16 254 13 is_stmt 1
	movl	%ecx, 4(%rax)
	movb	$0, (%rax)
Ltmp165:
	.loc	16 255 9
	jmp	LBB11_12
LBB11_4:
	.loc	16 257 30
	movl	-244(%rbp), %edi
	.loc	16 257 29 is_stmt 0
	movl	%edi, -12(%rbp)
Ltmp153:
Ltmp166:
	.loc	16 258 24 is_stmt 1
	callq	__ZN3std2io5error14repr_bitpacked14kind_from_prim17hcadcb6f556fa36bdE
Ltmp154:
	movb	%al, -281(%rbp)
	jmp	LBB11_13
Ltmp167:
LBB11_5:
	.loc	16 0 24 is_stmt 0
	movq	-264(%rbp), %rax
	movq	-272(%rbp), %rcx
	.loc	16 270 58 is_stmt 1
	movq	%rcx, -40(%rbp)
Ltmp168:
	.loc	9 450 41
	movq	%rcx, -32(%rbp)
	movq	%rcx, -24(%rbp)
Ltmp169:
	.loc	9 201 13
	movq	%rcx, -224(%rbp)
Ltmp170:
	.loc	9 326 9
	movq	-224(%rbp), %rcx
Ltmp171:
	.loc	16 270 31
	movq	%rcx, 8(%rax)
	movb	$2, (%rax)
	.loc	16 270 94 is_stmt 0
	jmp	LBB11_12
LBB11_6:
	.loc	16 0 94
	movq	-272(%rbp), %rax
	.loc	16 275 26 is_stmt 1
	movq	%rax, -120(%rbp)
Ltmp172:
	.loc	9 326 9
	movq	%rax, -112(%rbp)
Ltmp173:
	.loc	7 1300 9
	movq	%rax, -104(%rbp)
Ltmp174:
	.loc	7 60 9
	movq	%rax, -96(%rbp)
Ltmp175:
	.loc	7 1282 9
	movq	%rax, -88(%rbp)
Ltmp176:
	.loc	7 568 18
	addq	$-1, %rax
	movq	%rax, -80(%rbp)
	movq	-80(%rbp), %rax
	movq	%rax, -296(%rbp)
	jmp	LBB11_10
Ltmp177:
LBB11_7:
	.loc	16 283 1
	testb	$1, -201(%rbp)
	jne	LBB11_19
	jmp	LBB11_18
LBB11_8:
Ltmp159:
	.loc	16 0 1 is_stmt 0
	movq	%rax, %rcx
	movl	%edx, %eax
	movq	%rcx, -136(%rbp)
	movl	%eax, -128(%rbp)
	jmp	LBB11_7
LBB11_9:
	ud2
LBB11_10:
	movq	-296(%rbp), %rax
Ltmp178:
	.loc	7 568 18 is_stmt 1
	movq	%rax, -72(%rbp)
Ltmp179:
	.loc	7 99 33
	movq	%rax, -64(%rbp)
Ltmp180:
	.loc	6 135 36
	movq	%rax, -192(%rbp)
	.loc	6 135 14 is_stmt 0
	movq	-192(%rbp), %rax
	movq	%rax, -200(%rbp)
	movq	-200(%rbp), %rax
	movq	%rax, -56(%rbp)
Ltmp181:
	.loc	7 60 9 is_stmt 1
	movq	%rax, -48(%rbp)
Ltmp182:
	.loc	16 276 31
	movb	$0, -201(%rbp)
	movq	%rax, -216(%rbp)
	movq	-216(%rbp), %rdi
Ltmp151:
	callq	__ZN78_$LT$std..io..error..repr_bitpacked..Repr$u20$as$u20$core..ops..drop..Drop$GT$4drop28_$u7b$$u7b$closure$u7d$$u7d$17h1f0e254901aa3498E
Ltmp152:
	movq	%rax, -304(%rbp)
	jmp	LBB11_11
LBB11_11:
	.loc	16 0 31 is_stmt 0
	movq	-264(%rbp), %rax
	movq	-304(%rbp), %rcx
	.loc	16 276 13
	movq	%rcx, 8(%rax)
	movb	$3, (%rax)
Ltmp183:
LBB11_12:
	.loc	16 283 1 is_stmt 1
	testb	$1, -201(%rbp)
	jne	LBB11_21
	jmp	LBB11_20
LBB11_13:
	.loc	16 0 1 is_stmt 0
	movb	-281(%rbp), %al
Ltmp184:
	.loc	16 258 24 is_stmt 1
	movb	%al, -233(%rbp)
	.loc	16 258 65 is_stmt 0
	leaq	-248(%rbp), %rax
	movq	%rax, -232(%rbp)
Ltmp185:
	.loc	19 871 15 is_stmt 1
	movl	$1, %eax
	xorl	%ecx, %ecx
	cmpb	$41, -233(%rbp)
	cmoveq	%rcx, %rax
	.loc	19 871 9 is_stmt 0
	cmpq	$0, %rax
	jne	LBB11_15
	.loc	19 873 21 is_stmt 1
	movq	-232(%rbp), %rdi
Ltmp155:
	callq	__ZN3std2io5error14repr_bitpacked11decode_repr28_$u7b$$u7b$closure$u7d$$u7d$17hd1bb716c4a2f55c8E
Ltmp156:
	movb	%al, -305(%rbp)
	jmp	LBB11_17
LBB11_15:
	.loc	19 872 18
	movb	-233(%rbp), %al
	movb	%al, -5(%rbp)
Ltmp186:
	.loc	19 872 24 is_stmt 0
	movb	%al, -234(%rbp)
Ltmp187:
LBB11_16:
	.loc	19 0 24
	movq	-264(%rbp), %rax
Ltmp188:
	.loc	16 268 31 is_stmt 1
	movb	-234(%rbp), %cl
	.loc	16 268 13 is_stmt 0
	movb	%cl, 1(%rax)
	movb	$1, (%rax)
Ltmp189:
	.loc	16 269 9 is_stmt 1
	jmp	LBB11_12
LBB11_17:
	.loc	16 0 9 is_stmt 0
	movb	-305(%rbp), %al
Ltmp190:
	.loc	19 873 21 is_stmt 1
	movb	%al, -234(%rbp)
	.loc	19 873 23 is_stmt 0
	jmp	LBB11_16
Ltmp191:
LBB11_18:
	.loc	16 246 1 is_stmt 1
	movq	-136(%rbp), %rdi
	callq	__Unwind_Resume
LBB11_19:
	.loc	16 283 1
	jmp	LBB11_18
LBB11_20:
	.loc	16 0 1 is_stmt 0
	movq	-256(%rbp), %rax
	.loc	16 283 2
	addq	$320, %rsp
	popq	%rbp
	retq
LBB11_21:
	.loc	16 283 1
	jmp	LBB11_20
Ltmp192:
Lfunc_end11:
	.cfi_endproc
	.p2align	2, 0x90
	.data_region jt32
.set L11_0_set_5, LBB11_5-LJTI11_0
.set L11_0_set_6, LBB11_6-LJTI11_0
.set L11_0_set_3, LBB11_3-LJTI11_0
.set L11_0_set_4, LBB11_4-LJTI11_0
LJTI11_0:
	.long	L11_0_set_5
	.long	L11_0_set_6
	.long	L11_0_set_3
	.long	L11_0_set_4
	.end_data_region
	.section	__TEXT,__gcc_except_tab
	.p2align	2
GCC_except_table11:
Lexception3:
	.byte	255
	.byte	255
	.byte	1
	.uleb128 Lcst_end3-Lcst_begin3
Lcst_begin3:
	.uleb128 Ltmp157-Lfunc_begin11
	.uleb128 Ltmp156-Ltmp157
	.uleb128 Ltmp159-Lfunc_begin11
	.byte	0
	.uleb128 Ltmp156-Lfunc_begin11
	.uleb128 Lfunc_end11-Ltmp156
	.byte	0
	.byte	0
Lcst_end3:
	.p2align	2

	.section	__TEXT,__text,regular,pure_instructions
	.globl	__ZN3std2io5error14repr_bitpacked11decode_repr28_$u7b$$u7b$closure$u7d$$u7d$17h1b76e69494848813E
	.p2align	4, 0x90
__ZN3std2io5error14repr_bitpacked11decode_repr28_$u7b$$u7b$closure$u7d$$u7d$17h1b76e69494848813E:
Lfunc_begin12:
	.loc	16 258 0 is_stmt 1
	.cfi_startproc
	pushq	%rbp
	.cfi_def_cfa_offset 16
	.cfi_offset %rbp, -16
	movq	%rsp, %rbp
	.cfi_def_cfa_register %rbp
	subq	$16, %rsp
	movq	%rdi, -16(%rbp)
Ltmp193:
	.loc	16 266 17 prologue_end
	callq	__ZN4core4hint21unreachable_unchecked17h25ae7e558879064aE
Ltmp194:
Lfunc_end12:
	.cfi_endproc

	.globl	__ZN3std2io5error14repr_bitpacked11decode_repr28_$u7b$$u7b$closure$u7d$$u7d$17hd1bb716c4a2f55c8E
	.p2align	4, 0x90
__ZN3std2io5error14repr_bitpacked11decode_repr28_$u7b$$u7b$closure$u7d$$u7d$17hd1bb716c4a2f55c8E:
Lfunc_begin13:
	.loc	16 258 0
	.cfi_startproc
	pushq	%rbp
	.cfi_def_cfa_offset 16
	.cfi_offset %rbp, -16
	movq	%rsp, %rbp
	.cfi_def_cfa_register %rbp
	subq	$16, %rsp
	movq	%rdi, -16(%rbp)
Ltmp195:
	.loc	16 266 17 prologue_end
	callq	__ZN4core4hint21unreachable_unchecked17h25ae7e558879064aE
Ltmp196:
Lfunc_end13:
	.cfi_endproc

	.p2align	4, 0x90
__ZN3std2io5error14repr_bitpacked14kind_from_prim17hcadcb6f556fa36bdE:
Lfunc_begin14:
	.loc	16 289 0
	.cfi_startproc
	pushq	%rbp
	.cfi_def_cfa_offset 16
	.cfi_offset %rbp, -16
	movq	%rsp, %rbp
	.cfi_def_cfa_register %rbp
	subq	$336, %rsp
	movl	%edi, -336(%rbp)
Ltmp197:
	.loc	16 302 5 prologue_end
	leaq	-336(%rbp), %rax
	movq	%rax, -328(%rbp)
	cmpl	$0, -336(%rbp)
	je	LBB14_2
	leaq	-336(%rbp), %rax
	movq	%rax, -320(%rbp)
	cmpl	$1, -336(%rbp)
	je	LBB14_5
	jmp	LBB14_4
LBB14_2:
Ltmp198:
	.loc	16 302 5 is_stmt 0
	movb	$0, -329(%rbp)
Ltmp199:
LBB14_3:
	.loc	16 345 2 is_stmt 1
	movb	-329(%rbp), %al
	addq	$336, %rsp
	popq	%rbp
	retq
LBB14_4:
	.loc	16 302 5
	leaq	-336(%rbp), %rax
	movq	%rax, -312(%rbp)
	cmpl	$2, -336(%rbp)
	je	LBB14_7
	jmp	LBB14_6
LBB14_5:
Ltmp200:
	.loc	16 302 5 is_stmt 0
	movb	$1, -329(%rbp)
Ltmp201:
	.loc	16 302 5
	jmp	LBB14_3
LBB14_6:
	leaq	-336(%rbp), %rax
	movq	%rax, -304(%rbp)
	cmpl	$3, -336(%rbp)
	je	LBB14_9
	jmp	LBB14_8
LBB14_7:
Ltmp202:
	.loc	16 302 5
	movb	$2, -329(%rbp)
Ltmp203:
	.loc	16 302 5
	jmp	LBB14_3
LBB14_8:
	leaq	-336(%rbp), %rax
	movq	%rax, -296(%rbp)
	cmpl	$4, -336(%rbp)
	je	LBB14_11
	jmp	LBB14_10
LBB14_9:
Ltmp204:
	.loc	16 302 5
	movb	$3, -329(%rbp)
Ltmp205:
	.loc	16 302 5
	jmp	LBB14_3
LBB14_10:
	leaq	-336(%rbp), %rax
	movq	%rax, -288(%rbp)
	cmpl	$5, -336(%rbp)
	je	LBB14_13
	jmp	LBB14_12
LBB14_11:
Ltmp206:
	.loc	16 302 5
	movb	$4, -329(%rbp)
Ltmp207:
	.loc	16 302 5
	jmp	LBB14_3
LBB14_12:
	leaq	-336(%rbp), %rax
	movq	%rax, -280(%rbp)
	cmpl	$6, -336(%rbp)
	je	LBB14_15
	jmp	LBB14_14
LBB14_13:
Ltmp208:
	.loc	16 302 5
	movb	$5, -329(%rbp)
Ltmp209:
	.loc	16 302 5
	jmp	LBB14_3
LBB14_14:
	leaq	-336(%rbp), %rax
	movq	%rax, -272(%rbp)
	cmpl	$7, -336(%rbp)
	je	LBB14_17
	jmp	LBB14_16
LBB14_15:
Ltmp210:
	.loc	16 302 5
	movb	$6, -329(%rbp)
Ltmp211:
	.loc	16 302 5
	jmp	LBB14_3
LBB14_16:
	leaq	-336(%rbp), %rax
	movq	%rax, -264(%rbp)
	cmpl	$8, -336(%rbp)
	je	LBB14_19
	jmp	LBB14_18
LBB14_17:
Ltmp212:
	.loc	16 302 5
	movb	$7, -329(%rbp)
Ltmp213:
	.loc	16 302 5
	jmp	LBB14_3
LBB14_18:
	leaq	-336(%rbp), %rax
	movq	%rax, -256(%rbp)
	cmpl	$9, -336(%rbp)
	je	LBB14_21
	jmp	LBB14_20
LBB14_19:
Ltmp214:
	.loc	16 302 5
	movb	$8, -329(%rbp)
Ltmp215:
	.loc	16 302 5
	jmp	LBB14_3
LBB14_20:
	leaq	-336(%rbp), %rax
	movq	%rax, -248(%rbp)
	cmpl	$10, -336(%rbp)
	je	LBB14_23
	jmp	LBB14_22
LBB14_21:
Ltmp216:
	.loc	16 302 5
	movb	$9, -329(%rbp)
Ltmp217:
	.loc	16 302 5
	jmp	LBB14_3
LBB14_22:
	leaq	-336(%rbp), %rax
	movq	%rax, -240(%rbp)
	cmpl	$11, -336(%rbp)
	je	LBB14_25
	jmp	LBB14_24
LBB14_23:
Ltmp218:
	.loc	16 302 5
	movb	$10, -329(%rbp)
Ltmp219:
	.loc	16 302 5
	jmp	LBB14_3
LBB14_24:
	leaq	-336(%rbp), %rax
	movq	%rax, -232(%rbp)
	cmpl	$12, -336(%rbp)
	je	LBB14_27
	jmp	LBB14_26
LBB14_25:
Ltmp220:
	.loc	16 302 5
	movb	$11, -329(%rbp)
Ltmp221:
	.loc	16 302 5
	jmp	LBB14_3
LBB14_26:
	leaq	-336(%rbp), %rax
	movq	%rax, -224(%rbp)
	cmpl	$13, -336(%rbp)
	je	LBB14_29
	jmp	LBB14_28
LBB14_27:
Ltmp222:
	.loc	16 302 5
	movb	$12, -329(%rbp)
Ltmp223:
	.loc	16 302 5
	jmp	LBB14_3
LBB14_28:
	leaq	-336(%rbp), %rax
	movq	%rax, -216(%rbp)
	cmpl	$14, -336(%rbp)
	je	LBB14_31
	jmp	LBB14_30
LBB14_29:
Ltmp224:
	.loc	16 302 5
	movb	$13, -329(%rbp)
Ltmp225:
	.loc	16 302 5
	jmp	LBB14_3
LBB14_30:
	leaq	-336(%rbp), %rax
	movq	%rax, -208(%rbp)
	cmpl	$15, -336(%rbp)
	je	LBB14_33
	jmp	LBB14_32
LBB14_31:
Ltmp226:
	.loc	16 302 5
	movb	$14, -329(%rbp)
Ltmp227:
	.loc	16 302 5
	jmp	LBB14_3
LBB14_32:
	leaq	-336(%rbp), %rax
	movq	%rax, -200(%rbp)
	cmpl	$16, -336(%rbp)
	je	LBB14_35
	jmp	LBB14_34
LBB14_33:
Ltmp228:
	.loc	16 302 5
	movb	$15, -329(%rbp)
Ltmp229:
	.loc	16 302 5
	jmp	LBB14_3
LBB14_34:
	leaq	-336(%rbp), %rax
	movq	%rax, -192(%rbp)
	cmpl	$17, -336(%rbp)
	je	LBB14_37
	jmp	LBB14_36
LBB14_35:
Ltmp230:
	.loc	16 302 5
	movb	$16, -329(%rbp)
Ltmp231:
	.loc	16 302 5
	jmp	LBB14_3
LBB14_36:
	leaq	-336(%rbp), %rax
	movq	%rax, -184(%rbp)
	cmpl	$18, -336(%rbp)
	je	LBB14_39
	jmp	LBB14_38
LBB14_37:
Ltmp232:
	.loc	16 302 5
	movb	$17, -329(%rbp)
Ltmp233:
	.loc	16 302 5
	jmp	LBB14_3
LBB14_38:
	leaq	-336(%rbp), %rax
	movq	%rax, -176(%rbp)
	cmpl	$19, -336(%rbp)
	je	LBB14_41
	jmp	LBB14_40
LBB14_39:
Ltmp234:
	.loc	16 302 5
	movb	$18, -329(%rbp)
Ltmp235:
	.loc	16 302 5
	jmp	LBB14_3
LBB14_40:
	leaq	-336(%rbp), %rax
	movq	%rax, -168(%rbp)
	cmpl	$20, -336(%rbp)
	je	LBB14_43
	jmp	LBB14_42
LBB14_41:
Ltmp236:
	.loc	16 302 5
	movb	$19, -329(%rbp)
Ltmp237:
	.loc	16 302 5
	jmp	LBB14_3
LBB14_42:
	leaq	-336(%rbp), %rax
	movq	%rax, -160(%rbp)
	cmpl	$21, -336(%rbp)
	je	LBB14_45
	jmp	LBB14_44
LBB14_43:
Ltmp238:
	.loc	16 302 5
	movb	$20, -329(%rbp)
Ltmp239:
	.loc	16 302 5
	jmp	LBB14_3
LBB14_44:
	leaq	-336(%rbp), %rax
	movq	%rax, -152(%rbp)
	cmpl	$22, -336(%rbp)
	je	LBB14_47
	jmp	LBB14_46
LBB14_45:
Ltmp240:
	.loc	16 302 5
	movb	$21, -329(%rbp)
Ltmp241:
	.loc	16 302 5
	jmp	LBB14_3
LBB14_46:
	leaq	-336(%rbp), %rax
	movq	%rax, -144(%rbp)
	cmpl	$23, -336(%rbp)
	je	LBB14_49
	jmp	LBB14_48
LBB14_47:
Ltmp242:
	.loc	16 302 5
	movb	$22, -329(%rbp)
Ltmp243:
	.loc	16 302 5
	jmp	LBB14_3
LBB14_48:
	leaq	-336(%rbp), %rax
	movq	%rax, -136(%rbp)
	cmpl	$24, -336(%rbp)
	je	LBB14_51
	jmp	LBB14_50
LBB14_49:
Ltmp244:
	.loc	16 302 5
	movb	$23, -329(%rbp)
Ltmp245:
	.loc	16 302 5
	jmp	LBB14_3
LBB14_50:
	leaq	-336(%rbp), %rax
	movq	%rax, -128(%rbp)
	cmpl	$25, -336(%rbp)
	je	LBB14_53
	jmp	LBB14_52
LBB14_51:
Ltmp246:
	.loc	16 302 5
	movb	$24, -329(%rbp)
Ltmp247:
	.loc	16 302 5
	jmp	LBB14_3
LBB14_52:
	leaq	-336(%rbp), %rax
	movq	%rax, -120(%rbp)
	cmpl	$26, -336(%rbp)
	je	LBB14_55
	jmp	LBB14_54
LBB14_53:
Ltmp248:
	.loc	16 302 5
	movb	$25, -329(%rbp)
Ltmp249:
	.loc	16 302 5
	jmp	LBB14_3
LBB14_54:
	leaq	-336(%rbp), %rax
	movq	%rax, -112(%rbp)
	cmpl	$27, -336(%rbp)
	je	LBB14_57
	jmp	LBB14_56
LBB14_55:
Ltmp250:
	.loc	16 302 5
	movb	$26, -329(%rbp)
Ltmp251:
	.loc	16 302 5
	jmp	LBB14_3
LBB14_56:
	leaq	-336(%rbp), %rax
	movq	%rax, -104(%rbp)
	cmpl	$28, -336(%rbp)
	je	LBB14_59
	jmp	LBB14_58
LBB14_57:
Ltmp252:
	.loc	16 302 5
	movb	$27, -329(%rbp)
Ltmp253:
	.loc	16 302 5
	jmp	LBB14_3
LBB14_58:
	leaq	-336(%rbp), %rax
	movq	%rax, -96(%rbp)
	cmpl	$29, -336(%rbp)
	je	LBB14_61
	jmp	LBB14_60
LBB14_59:
Ltmp254:
	.loc	16 302 5
	movb	$28, -329(%rbp)
Ltmp255:
	.loc	16 302 5
	jmp	LBB14_3
LBB14_60:
	leaq	-336(%rbp), %rax
	movq	%rax, -88(%rbp)
	cmpl	$30, -336(%rbp)
	je	LBB14_63
	jmp	LBB14_62
LBB14_61:
Ltmp256:
	.loc	16 302 5
	movb	$29, -329(%rbp)
Ltmp257:
	.loc	16 302 5
	jmp	LBB14_3
LBB14_62:
	leaq	-336(%rbp), %rax
	movq	%rax, -80(%rbp)
	cmpl	$31, -336(%rbp)
	je	LBB14_65
	jmp	LBB14_64
LBB14_63:
Ltmp258:
	.loc	16 302 5
	movb	$30, -329(%rbp)
Ltmp259:
	.loc	16 302 5
	jmp	LBB14_3
LBB14_64:
	leaq	-336(%rbp), %rax
	movq	%rax, -72(%rbp)
	cmpl	$32, -336(%rbp)
	je	LBB14_67
	jmp	LBB14_66
LBB14_65:
Ltmp260:
	.loc	16 302 5
	movb	$31, -329(%rbp)
Ltmp261:
	.loc	16 302 5
	jmp	LBB14_3
LBB14_66:
	leaq	-336(%rbp), %rax
	movq	%rax, -64(%rbp)
	cmpl	$33, -336(%rbp)
	je	LBB14_69
	jmp	LBB14_68
LBB14_67:
Ltmp262:
	.loc	16 302 5
	movb	$32, -329(%rbp)
Ltmp263:
	.loc	16 302 5
	jmp	LBB14_3
LBB14_68:
	leaq	-336(%rbp), %rax
	movq	%rax, -56(%rbp)
	cmpl	$34, -336(%rbp)
	je	LBB14_71
	jmp	LBB14_70
LBB14_69:
Ltmp264:
	.loc	16 302 5
	movb	$33, -329(%rbp)
Ltmp265:
	.loc	16 302 5
	jmp	LBB14_3
LBB14_70:
	leaq	-336(%rbp), %rax
	movq	%rax, -48(%rbp)
	cmpl	$35, -336(%rbp)
	je	LBB14_73
	jmp	LBB14_72
LBB14_71:
Ltmp266:
	.loc	16 302 5
	movb	$34, -329(%rbp)
Ltmp267:
	.loc	16 302 5
	jmp	LBB14_3
LBB14_72:
	leaq	-336(%rbp), %rax
	movq	%rax, -40(%rbp)
	cmpl	$39, -336(%rbp)
	je	LBB14_75
	jmp	LBB14_74
LBB14_73:
Ltmp268:
	.loc	16 302 5
	movb	$35, -329(%rbp)
Ltmp269:
	.loc	16 302 5
	jmp	LBB14_3
LBB14_74:
	leaq	-336(%rbp), %rax
	movq	%rax, -32(%rbp)
	cmpl	$37, -336(%rbp)
	je	LBB14_77
	jmp	LBB14_76
LBB14_75:
Ltmp270:
	.loc	16 302 5
	movb	$39, -329(%rbp)
Ltmp271:
	.loc	16 302 5
	jmp	LBB14_3
LBB14_76:
	leaq	-336(%rbp), %rax
	movq	%rax, -24(%rbp)
	cmpl	$36, -336(%rbp)
	je	LBB14_79
	jmp	LBB14_78
LBB14_77:
Ltmp272:
	.loc	16 302 5
	movb	$37, -329(%rbp)
Ltmp273:
	.loc	16 302 5
	jmp	LBB14_3
LBB14_78:
	leaq	-336(%rbp), %rax
	movq	%rax, -16(%rbp)
	cmpl	$38, -336(%rbp)
	je	LBB14_81
	jmp	LBB14_80
LBB14_79:
Ltmp274:
	.loc	16 302 5
	movb	$36, -329(%rbp)
Ltmp275:
	.loc	16 302 5
	jmp	LBB14_3
LBB14_80:
	leaq	-336(%rbp), %rax
	movq	%rax, -8(%rbp)
	cmpl	$40, -336(%rbp)
	je	LBB14_83
	jmp	LBB14_82
LBB14_81:
Ltmp276:
	.loc	16 302 5
	movb	$38, -329(%rbp)
Ltmp277:
	.loc	16 302 5
	jmp	LBB14_3
LBB14_82:
	movb	$41, -329(%rbp)
	jmp	LBB14_3
LBB14_83:
Ltmp278:
	.loc	16 302 5
	movb	$40, -329(%rbp)
Ltmp279:
	.loc	16 302 5
	jmp	LBB14_3
Ltmp280:
Lfunc_end14:
	.cfi_endproc

	.globl	__ZN3std2io5error14repr_bitpacked4Repr4data28_$u7b$$u7b$closure$u7d$$u7d$17h150e94a393cc95adE
	.p2align	4, 0x90
__ZN3std2io5error14repr_bitpacked4Repr4data28_$u7b$$u7b$closure$u7d$$u7d$17h150e94a393cc95adE:
Lfunc_begin15:
	.loc	16 212 0 is_stmt 1
	.cfi_startproc
	pushq	%rbp
	.cfi_def_cfa_offset 16
	.cfi_offset %rbp, -16
	movq	%rsp, %rbp
	.cfi_def_cfa_register %rbp
	subq	$16, %rsp
	movq	%rdi, %rax
	movq	%rax, -8(%rbp)
Ltmp281:
	.loc	16 212 45 prologue_end
	addq	$16, %rsp
	popq	%rbp
	retq
Ltmp282:
Lfunc_end15:
	.cfi_endproc

	.p2align	4, 0x90
__ZN3std2io5error5Error4kind17hc79ca6be097d0cf2E:
Lfunc_begin16:
	.loc	14 893 0
	.cfi_startproc
	pushq	%rbp
	.cfi_def_cfa_offset 16
	.cfi_offset %rbp, -16
	movq	%rsp, %rbp
	.cfi_def_cfa_register %rbp
	subq	$80, %rsp
	movq	%rdi, -40(%rbp)
Ltmp283:
	.loc	14 894 15 prologue_end
	movq	%rdi, -32(%rbp)
Ltmp284:
	.loc	16 212 30
	movq	(%rdi), %rsi
	leaq	-56(%rbp), %rdi
	.loc	16 212 18 is_stmt 0
	callq	__ZN3std2io5error14repr_bitpacked11decode_repr17h16cce9c25d7e07c1E
Ltmp285:
	.loc	14 894 15 is_stmt 1
	movzbl	-56(%rbp), %eax
	movq	%rax, -72(%rbp)
	.loc	14 0 15 is_stmt 0
	movq	-72(%rbp), %rax
	leaq	LJTI16_0(%rip), %rcx
	movslq	(%rcx,%rax,4), %rax
	addq	%rcx, %rax
	jmpq	*%rax
	.loc	14 894 15
	ud2
LBB16_2:
	.loc	14 895 27 is_stmt 1
	movl	-52(%rbp), %edi
	movl	%edi, -4(%rbp)
Ltmp286:
	.loc	14 895 36 is_stmt 0
	callq	__ZN3std3sys4unix17decode_error_kind17h50ab8511eed7ed72E
	movb	%al, -57(%rbp)
Ltmp287:
	.loc	14 895 63
	jmp	LBB16_6
LBB16_3:
	.loc	14 897 31 is_stmt 1
	movb	-55(%rbp), %al
	movb	%al, -5(%rbp)
Ltmp288:
	.loc	14 897 40 is_stmt 0
	movb	%al, -57(%rbp)
Ltmp289:
	.loc	14 897 43
	jmp	LBB16_6
LBB16_4:
	.loc	14 898 38 is_stmt 1
	movq	-48(%rbp), %rax
	movq	%rax, -16(%rbp)
Ltmp290:
	.loc	14 898 44 is_stmt 0
	movb	16(%rax), %al
	movb	%al, -57(%rbp)
Ltmp291:
	.loc	14 898 49
	jmp	LBB16_6
LBB16_5:
	.loc	14 896 31 is_stmt 1
	movq	-48(%rbp), %rax
	movq	%rax, -24(%rbp)
Ltmp292:
	.loc	14 896 37 is_stmt 0
	movb	16(%rax), %al
	movb	%al, -57(%rbp)
Ltmp293:
LBB16_6:
	.loc	14 900 6 is_stmt 1
	movb	-57(%rbp), %al
	addq	$80, %rsp
	popq	%rbp
	retq
Ltmp294:
Lfunc_end16:
	.cfi_endproc
	.p2align	2, 0x90
	.data_region jt32
.set L16_0_set_2, LBB16_2-LJTI16_0
.set L16_0_set_3, LBB16_3-LJTI16_0
.set L16_0_set_4, LBB16_4-LJTI16_0
.set L16_0_set_5, LBB16_5-LJTI16_0
LJTI16_0:
	.long	L16_0_set_2
	.long	L16_0_set_3
	.long	L16_0_set_4
	.long	L16_0_set_5
	.end_data_region

	.globl	__ZN3std5panic12catch_unwind17h022e56cb290a199bE
	.p2align	4, 0x90
__ZN3std5panic12catch_unwind17h022e56cb290a199bE:
Lfunc_begin17:
	.file	20 "/rustc/2c8cc343237b8f7d5a3c3703e3a87f2eb2c54a74/library/std/src" "panic.rs"
	.loc	20 139 0
	.cfi_startproc
	pushq	%rbp
	.cfi_def_cfa_offset 16
	.cfi_offset %rbp, -16
	movq	%rsp, %rbp
	.cfi_def_cfa_register %rbp
	subq	$16, %rsp
	movq	%rdi, -8(%rbp)
Ltmp295:
	.loc	20 140 14 prologue_end
	callq	__ZN3std9panicking3try17hf62904869a6cca3aE
	.loc	20 141 2
	addq	$16, %rsp
	popq	%rbp
	retq
Ltmp296:
Lfunc_end17:
	.cfi_endproc

	.globl	__ZN3std5panic12catch_unwind17h7f1b7a6a3283c8cdE
	.p2align	4, 0x90
__ZN3std5panic12catch_unwind17h7f1b7a6a3283c8cdE:
Lfunc_begin18:
	.loc	20 139 0
	.cfi_startproc
	pushq	%rbp
	.cfi_def_cfa_offset 16
	.cfi_offset %rbp, -16
	movq	%rsp, %rbp
	.cfi_def_cfa_register %rbp
	subq	$16, %rsp
	movq	%rdi, -8(%rbp)
Ltmp297:
	.loc	20 140 14 prologue_end
	callq	__ZN3std9panicking3try17h36f6e8856b7080ceE
	.loc	20 141 2
	addq	$16, %rsp
	popq	%rbp
	retq
Ltmp298:
Lfunc_end18:
	.cfi_endproc

	.globl	__ZN3std6thread5local17LocalKey$LT$T$GT$8try_with17he650cd556a24e95eE
	.p2align	4, 0x90
__ZN3std6thread5local17LocalKey$LT$T$GT$8try_with17he650cd556a24e95eE:
Lfunc_begin19:
	.loc	2 440 0
	.cfi_startproc
	.cfi_personality 155, _rust_eh_personality
	.cfi_lsda 16, Lexception4
	pushq	%rbp
	.cfi_def_cfa_offset 16
	.cfi_offset %rbp, -16
	movq	%rsp, %rbp
	.cfi_def_cfa_register %rbp
	subq	$192, %rsp
	movq	%rdi, -112(%rbp)
Ltmp304:
	.loc	2 445 17 prologue_end
	movb	$1, -113(%rbp)
	.loc	2 445 32 is_stmt 0
	movq	(%rdi), %rax
	.loc	2 445 45
	movq	$0, -136(%rbp)
	.loc	2 445 32
	movq	-136(%rbp), %rdi
Ltmp299:
	callq	*%rax
Ltmp300:
	movq	%rax, -184(%rbp)
	jmp	LBB19_3
LBB19_1:
	.loc	2 448 5 is_stmt 1
	testb	$1, -113(%rbp)
	jne	LBB19_15
	jmp	LBB19_14
LBB19_2:
Ltmp303:
	.loc	2 0 5 is_stmt 0
	movq	%rax, %rcx
	movl	%edx, %eax
	movq	%rcx, -48(%rbp)
	movl	%eax, -40(%rbp)
	jmp	LBB19_1
LBB19_3:
	movq	-184(%rbp), %rax
	.loc	2 445 32 is_stmt 1
	movq	%rax, -144(%rbp)
Ltmp305:
	.loc	19 1096 15
	movq	-144(%rbp), %rdx
	movl	$1, %eax
	xorl	%ecx, %ecx
	cmpq	$0, %rdx
	cmoveq	%rcx, %rax
	.loc	19 1096 9 is_stmt 0
	cmpq	$0, %rax
	jne	LBB19_5
	.loc	19 1098 21 is_stmt 1
	movq	$0, -152(%rbp)
	.loc	19 1098 28 is_stmt 0
	jmp	LBB19_6
LBB19_5:
	.loc	19 1097 18 is_stmt 1
	movq	-144(%rbp), %rax
	movq	%rax, -32(%rbp)
Ltmp306:
	.loc	19 1097 24 is_stmt 0
	movq	%rax, -152(%rbp)
Ltmp307:
LBB19_6:
	.loc	17 2091 15 is_stmt 1
	movq	-152(%rbp), %rdx
	xorl	%eax, %eax
	movl	$1, %ecx
	cmpq	$0, %rdx
	cmoveq	%rcx, %rax
	.loc	17 2091 9 is_stmt 0
	cmpq	$0, %rax
	jne	LBB19_8
	.loc	17 2092 16 is_stmt 1
	movq	-152(%rbp), %rax
	movq	%rax, -24(%rbp)
Ltmp308:
	.loc	17 2092 22 is_stmt 0
	movq	%rax, -160(%rbp)
Ltmp309:
	.loc	17 2092 45
	jmp	LBB19_9
LBB19_8:
Ltmp310:
	.loc	17 2093 23 is_stmt 1
	movq	$0, -160(%rbp)
Ltmp311:
LBB19_9:
	.loc	2 445 32
	movq	-160(%rbp), %rdx
	xorl	%eax, %eax
	movl	$1, %ecx
	cmpq	$0, %rdx
	cmoveq	%rcx, %rax
	cmpq	$0, %rax
	jne	LBB19_11
	movq	-160(%rbp), %rax
	movq	%rax, -16(%rbp)
Ltmp312:
	.loc	2 445 32 is_stmt 0
	movq	%rax, -8(%rbp)
Ltmp313:
	.loc	2 446 16 is_stmt 1
	movb	$0, -113(%rbp)
	movq	%rax, -128(%rbp)
	movq	-128(%rbp), %rdi
Ltmp301:
	callq	__ZN16parking_lot_core9word_lock16with_thread_data28_$u7b$$u7b$closure$u7d$$u7d$17hc53541f6706c60d5E
Ltmp302:
	movq	%rax, -192(%rbp)
	jmp	LBB19_13
Ltmp314:
LBB19_11:
	.loc	17 2107 23
	movq	$1, -176(%rbp)
Ltmp315:
LBB19_12:
	.loc	2 448 6
	movq	-176(%rbp), %rax
	movq	-168(%rbp), %rdx
	addq	$192, %rsp
	popq	%rbp
	retq
LBB19_13:
	.loc	2 0 6 is_stmt 0
	movq	-192(%rbp), %rax
Ltmp316:
	.loc	2 446 13 is_stmt 1
	movq	%rax, -168(%rbp)
	movq	$0, -176(%rbp)
Ltmp317:
	.loc	2 448 5
	jmp	LBB19_12
LBB19_14:
	.loc	2 440 5
	movq	-48(%rbp), %rdi
	callq	__Unwind_Resume
LBB19_15:
	.loc	2 448 5
	jmp	LBB19_14
Ltmp318:
Lfunc_end19:
	.cfi_endproc
	.section	__TEXT,__gcc_except_tab
	.p2align	2
GCC_except_table19:
Lexception4:
	.byte	255
	.byte	255
	.byte	1
	.uleb128 Lcst_end4-Lcst_begin4
Lcst_begin4:
	.uleb128 Ltmp299-Lfunc_begin19
	.uleb128 Ltmp302-Ltmp299
	.uleb128 Ltmp303-Lfunc_begin19
	.byte	0
	.uleb128 Ltmp302-Lfunc_begin19
	.uleb128 Lfunc_end19-Ltmp302
	.byte	0
	.byte	0
Lcst_end4:
	.p2align	2

	.section	__TEXT,__text,regular,pure_instructions
	.globl	__ZN3std6thread5local4fast12Key$LT$T$GT$14try_initialize17h07b6349752f476f4E
	.p2align	4, 0x90
__ZN3std6thread5local4fast12Key$LT$T$GT$14try_initialize17h07b6349752f476f4E:
Lfunc_begin20:
	.loc	2 983 0
	.cfi_startproc
	.cfi_personality 155, _rust_eh_personality
	.cfi_lsda 16, Lexception5
	pushq	%rbp
	.cfi_def_cfa_offset 16
	.cfi_offset %rbp, -16
	movq	%rsp, %rbp
	.cfi_def_cfa_register %rbp
	subq	$96, %rsp
	movq	%rdi, -80(%rbp)
	movq	%rsi, -72(%rbp)
	movq	%rdi, -40(%rbp)
	movq	%rsi, -32(%rbp)
Ltmp324:
	.loc	2 985 16 prologue_end
	movb	$1, -41(%rbp)
Ltmp325:
	.file	21 "/rustc/2c8cc343237b8f7d5a3c3703e3a87f2eb2c54a74/library/core/src/mem" "mod.rs"
	.loc	21 594 5
	movb	$1, -17(%rbp)
	movb	-17(%rbp), %al
	movb	%al, -57(%rbp)
Ltmp326:
	.loc	21 0 5 is_stmt 0
	movb	-57(%rbp), %al
	.loc	2 985 16 is_stmt 1
	xorb	$-1, %al
	testb	$1, %al
	jne	LBB20_3
Ltmp319:
	.loc	2 0 16 is_stmt 0
	movq	-80(%rbp), %rdi
	.loc	2 985 52
	callq	__ZN3std6thread5local4fast12Key$LT$T$GT$17try_register_dtor17h50f33deeec633bb9E
Ltmp320:
	movb	%al, -81(%rbp)
	jmp	LBB20_7
LBB20_3:
	.loc	2 985 16
	movb	$1, -42(%rbp)
LBB20_4:
	testb	$1, -42(%rbp)
	jne	LBB20_9
	jmp	LBB20_8
LBB20_5:
	.loc	2 991 9 is_stmt 1
	testb	$1, -41(%rbp)
	jne	LBB20_12
	jmp	LBB20_11
LBB20_6:
Ltmp323:
	.loc	2 0 9 is_stmt 0
	movq	%rax, %rcx
	movl	%edx, %eax
	movq	%rcx, -16(%rbp)
	movl	%eax, -8(%rbp)
	jmp	LBB20_5
LBB20_7:
	movb	-81(%rbp), %al
	.loc	2 985 16 is_stmt 1
	andb	$1, %al
	movb	%al, -42(%rbp)
	jmp	LBB20_4
LBB20_8:
	.loc	2 989 17
	movq	$0, -56(%rbp)
	.loc	2 985 13
	jmp	LBB20_13
LBB20_9:
	.loc	2 0 13 is_stmt 0
	movq	-72(%rbp), %rsi
	movq	-80(%rbp), %rdi
	.loc	2 987 53 is_stmt 1
	movb	$0, -41(%rbp)
Ltmp321:
	.loc	2 987 31 is_stmt 0
	callq	__ZN3std6thread5local4lazy21LazyKeyInner$LT$T$GT$10initialize17h64f9f0745fd9ae2dE
Ltmp322:
	movq	%rax, -96(%rbp)
	jmp	LBB20_10
LBB20_10:
	.loc	2 0 31
	movq	-96(%rbp), %rax
	.loc	2 987 17
	movq	%rax, -56(%rbp)
	.loc	2 985 13 is_stmt 1
	jmp	LBB20_13
LBB20_11:
	.loc	2 983 9
	movq	-16(%rbp), %rdi
	callq	__Unwind_Resume
LBB20_12:
	.loc	2 991 9
	jmp	LBB20_11
LBB20_13:
	testb	$1, -41(%rbp)
	jne	LBB20_15
LBB20_14:
	.loc	2 991 10 is_stmt 0
	movq	-56(%rbp), %rax
	addq	$96, %rsp
	popq	%rbp
	retq
LBB20_15:
	.loc	2 991 9
	jmp	LBB20_14
Ltmp327:
Lfunc_end20:
	.cfi_endproc
	.section	__TEXT,__gcc_except_tab
	.p2align	2
GCC_except_table20:
Lexception5:
	.byte	255
	.byte	255
	.byte	1
	.uleb128 Lcst_end5-Lcst_begin5
Lcst_begin5:
	.uleb128 Ltmp319-Lfunc_begin20
	.uleb128 Ltmp322-Ltmp319
	.uleb128 Ltmp323-Lfunc_begin20
	.byte	0
	.uleb128 Ltmp322-Lfunc_begin20
	.uleb128 Lfunc_end20-Ltmp322
	.byte	0
	.byte	0
Lcst_end5:
	.p2align	2

	.section	__TEXT,__text,regular,pure_instructions
	.globl	__ZN3std6thread5local4fast12Key$LT$T$GT$14try_initialize17haf0a78080a4c0e99E
	.p2align	4, 0x90
__ZN3std6thread5local4fast12Key$LT$T$GT$14try_initialize17haf0a78080a4c0e99E:
Lfunc_begin21:
	.loc	2 983 0 is_stmt 1
	.cfi_startproc
	.cfi_personality 155, _rust_eh_personality
	.cfi_lsda 16, Lexception6
	pushq	%rbp
	.cfi_def_cfa_offset 16
	.cfi_offset %rbp, -16
	movq	%rsp, %rbp
	.cfi_def_cfa_register %rbp
	subq	$96, %rsp
	movq	%rdi, -80(%rbp)
	movq	%rsi, -72(%rbp)
	movq	%rdi, -40(%rbp)
	movq	%rsi, -32(%rbp)
Ltmp333:
	.loc	2 985 16 prologue_end
	movb	$1, -41(%rbp)
Ltmp334:
	.loc	21 594 5
	movb	$1, -17(%rbp)
	movb	-17(%rbp), %al
	movb	%al, -57(%rbp)
Ltmp335:
	.loc	21 0 5 is_stmt 0
	movb	-57(%rbp), %al
	.loc	2 985 16 is_stmt 1
	xorb	$-1, %al
	testb	$1, %al
	jne	LBB21_3
Ltmp328:
	.loc	2 0 16 is_stmt 0
	movq	-80(%rbp), %rdi
	.loc	2 985 52
	callq	__ZN3std6thread5local4fast12Key$LT$T$GT$17try_register_dtor17h12012de049f97ff3E
Ltmp329:
	movb	%al, -81(%rbp)
	jmp	LBB21_7
LBB21_3:
	.loc	2 985 16
	movb	$1, -42(%rbp)
LBB21_4:
	testb	$1, -42(%rbp)
	jne	LBB21_9
	jmp	LBB21_8
LBB21_5:
	.loc	2 991 9 is_stmt 1
	testb	$1, -41(%rbp)
	jne	LBB21_12
	jmp	LBB21_11
LBB21_6:
Ltmp332:
	.loc	2 0 9 is_stmt 0
	movq	%rax, %rcx
	movl	%edx, %eax
	movq	%rcx, -16(%rbp)
	movl	%eax, -8(%rbp)
	jmp	LBB21_5
LBB21_7:
	movb	-81(%rbp), %al
	.loc	2 985 16 is_stmt 1
	andb	$1, %al
	movb	%al, -42(%rbp)
	jmp	LBB21_4
LBB21_8:
	.loc	2 989 17
	movq	$0, -56(%rbp)
	.loc	2 985 13
	jmp	LBB21_13
LBB21_9:
	.loc	2 0 13 is_stmt 0
	movq	-72(%rbp), %rsi
	movq	-80(%rbp), %rdi
	.loc	2 987 53 is_stmt 1
	movb	$0, -41(%rbp)
Ltmp330:
	.loc	2 987 31 is_stmt 0
	callq	__ZN3std6thread5local4lazy21LazyKeyInner$LT$T$GT$10initialize17hbbefcceaa416b2a9E
Ltmp331:
	movq	%rax, -96(%rbp)
	jmp	LBB21_10
LBB21_10:
	.loc	2 0 31
	movq	-96(%rbp), %rax
	.loc	2 987 17
	movq	%rax, -56(%rbp)
	.loc	2 985 13 is_stmt 1
	jmp	LBB21_13
LBB21_11:
	.loc	2 983 9
	movq	-16(%rbp), %rdi
	callq	__Unwind_Resume
LBB21_12:
	.loc	2 991 9
	jmp	LBB21_11
LBB21_13:
	testb	$1, -41(%rbp)
	jne	LBB21_15
LBB21_14:
	.loc	2 991 10 is_stmt 0
	movq	-56(%rbp), %rax
	addq	$96, %rsp
	popq	%rbp
	retq
LBB21_15:
	.loc	2 991 9
	jmp	LBB21_14
Ltmp336:
Lfunc_end21:
	.cfi_endproc
	.section	__TEXT,__gcc_except_tab
	.p2align	2
GCC_except_table21:
Lexception6:
	.byte	255
	.byte	255
	.byte	1
	.uleb128 Lcst_end6-Lcst_begin6
Lcst_begin6:
	.uleb128 Ltmp328-Lfunc_begin21
	.uleb128 Ltmp331-Ltmp328
	.uleb128 Ltmp332-Lfunc_begin21
	.byte	0
	.uleb128 Ltmp331-Lfunc_begin21
	.uleb128 Lfunc_end21-Ltmp331
	.byte	0
	.byte	0
Lcst_end6:
	.p2align	2

	.section	__TEXT,__text,regular,pure_instructions
	.globl	__ZN3std6thread5local4fast12Key$LT$T$GT$17try_register_dtor17h12012de049f97ff3E
	.p2align	4, 0x90
__ZN3std6thread5local4fast12Key$LT$T$GT$17try_register_dtor17h12012de049f97ff3E:
Lfunc_begin22:
	.loc	2 996 0 is_stmt 1
	.cfi_startproc
	pushq	%rbp
	.cfi_def_cfa_offset 16
	.cfi_offset %rbp, -16
	movq	%rsp, %rbp
	.cfi_def_cfa_register %rbp
	subq	$64, %rsp
	movq	%rdi, -64(%rbp)
	movq	%rdi, -40(%rbp)
Ltmp337:
	.loc	2 997 19 prologue_end
	movq	%rdi, %rax
	addq	$168, %rax
	movq	%rax, -32(%rbp)
Ltmp338:
	.file	22 "/rustc/2c8cc343237b8f7d5a3c3703e3a87f2eb2c54a74/library/core/src" "cell.rs"
	.loc	22 452 19
	movq	%rax, -24(%rbp)
	.loc	22 452 18 is_stmt 0
	movb	168(%rdi), %al
	movb	%al, -41(%rbp)
Ltmp339:
	.loc	2 997 19 is_stmt 1
	movzbl	-41(%rbp), %eax
	movq	%rax, -56(%rbp)
	testq	%rax, %rax
	.loc	2 997 13 is_stmt 0
	je	LBB22_2
	jmp	LBB22_6
LBB22_6:
	.loc	2 0 13
	movq	-56(%rbp), %rax
	.loc	2 997 13
	subq	$1, %rax
	je	LBB22_3
	jmp	LBB22_7
LBB22_7:
	jmp	LBB22_4
	.loc	2 997 19
	ud2
LBB22_2:
	.loc	2 0 19
	movq	-64(%rbp), %rdi
	.loc	2 1004 30 is_stmt 1
	leaq	__ZN3std6thread5local4fast13destroy_value17h94ecbee319e81934E(%rip), %rsi
	callq	__ZN3std3sys4unix17thread_local_dtor13register_dtor17hd1117fc09d525c5dE
	movq	-64(%rbp), %rdi
	.loc	2 1005 21
	addq	$168, %rdi
	movq	%rdi, -16(%rbp)
Ltmp340:
	.loc	22 363 19
	movl	$1, %esi
	callq	__ZN4core4cell13Cell$LT$T$GT$7replace17h96ad0d507a632179E
	movb	%al, -1(%rbp)
Ltmp341:
	.loc	2 1006 21
	movb	$1, -42(%rbp)
	jmp	LBB22_5
LBB22_3:
	.loc	2 1010 21
	movb	$1, -42(%rbp)
	jmp	LBB22_5
LBB22_4:
	.loc	2 1012 47
	movb	$0, -42(%rbp)
LBB22_5:
	.loc	2 1014 10
	movb	-42(%rbp), %al
	andb	$1, %al
	movzbl	%al, %eax
	addq	$64, %rsp
	popq	%rbp
	retq
Ltmp342:
Lfunc_end22:
	.cfi_endproc

	.globl	__ZN3std6thread5local4fast12Key$LT$T$GT$17try_register_dtor17h50f33deeec633bb9E
	.p2align	4, 0x90
__ZN3std6thread5local4fast12Key$LT$T$GT$17try_register_dtor17h50f33deeec633bb9E:
Lfunc_begin23:
	.loc	2 996 0
	.cfi_startproc
	pushq	%rbp
	.cfi_def_cfa_offset 16
	.cfi_offset %rbp, -16
	movq	%rsp, %rbp
	.cfi_def_cfa_register %rbp
	subq	$64, %rsp
	movq	%rdi, -64(%rbp)
	movq	%rdi, -40(%rbp)
Ltmp343:
	.loc	2 997 19 prologue_end
	movq	%rdi, %rax
	addq	$152, %rax
	movq	%rax, -32(%rbp)
Ltmp344:
	.loc	22 452 19
	movq	%rax, -24(%rbp)
	.loc	22 452 18 is_stmt 0
	movb	152(%rdi), %al
	movb	%al, -41(%rbp)
Ltmp345:
	.loc	2 997 19 is_stmt 1
	movzbl	-41(%rbp), %eax
	movq	%rax, -56(%rbp)
	testq	%rax, %rax
	.loc	2 997 13 is_stmt 0
	je	LBB23_2
	jmp	LBB23_6
LBB23_6:
	.loc	2 0 13
	movq	-56(%rbp), %rax
	.loc	2 997 13
	subq	$1, %rax
	je	LBB23_3
	jmp	LBB23_7
LBB23_7:
	jmp	LBB23_4
	.loc	2 997 19
	ud2
LBB23_2:
	.loc	2 0 19
	movq	-64(%rbp), %rdi
	.loc	2 1004 30 is_stmt 1
	leaq	__ZN3std6thread5local4fast13destroy_value17heea7120280b34553E(%rip), %rsi
	callq	__ZN3std3sys4unix17thread_local_dtor13register_dtor17hd1117fc09d525c5dE
	movq	-64(%rbp), %rdi
	.loc	2 1005 21
	addq	$152, %rdi
	movq	%rdi, -16(%rbp)
Ltmp346:
	.loc	22 363 19
	movl	$1, %esi
	callq	__ZN4core4cell13Cell$LT$T$GT$7replace17h96ad0d507a632179E
	movb	%al, -1(%rbp)
Ltmp347:
	.loc	2 1006 21
	movb	$1, -42(%rbp)
	jmp	LBB23_5
LBB23_3:
	.loc	2 1010 21
	movb	$1, -42(%rbp)
	jmp	LBB23_5
LBB23_4:
	.loc	2 1012 47
	movb	$0, -42(%rbp)
LBB23_5:
	.loc	2 1014 10
	movb	-42(%rbp), %al
	andb	$1, %al
	movzbl	%al, %eax
	addq	$64, %rsp
	popq	%rbp
	retq
Ltmp348:
Lfunc_end23:
	.cfi_endproc

	.globl	__ZN3std6thread5local4fast12Key$LT$T$GT$3get17h9a9008da27e412c7E
	.p2align	4, 0x90
__ZN3std6thread5local4fast12Key$LT$T$GT$3get17h9a9008da27e412c7E:
Lfunc_begin24:
	.loc	2 959 0
	.cfi_startproc
	.cfi_personality 155, _rust_eh_personality
	.cfi_lsda 16, Lexception7
	pushq	%rbp
	.cfi_def_cfa_offset 16
	.cfi_offset %rbp, -16
	movq	%rsp, %rbp
	.cfi_def_cfa_register %rbp
	subq	$96, %rsp
	movq	%rdi, -88(%rbp)
	movq	%rsi, -80(%rbp)
	movq	%rdi, -40(%rbp)
	movq	%rsi, -32(%rbp)
Ltmp354:
	.loc	2 968 23 prologue_end
	movb	$1, -41(%rbp)
Ltmp349:
	callq	__ZN3std6thread5local4lazy21LazyKeyInner$LT$T$GT$3get17h96268447ff681296E
Ltmp350:
	movq	%rax, -72(%rbp)
	jmp	LBB24_3
LBB24_1:
	.loc	2 973 9
	testb	$1, -41(%rbp)
	jne	LBB24_9
	jmp	LBB24_8
LBB24_2:
Ltmp353:
	.loc	2 0 9 is_stmt 0
	movq	%rax, %rcx
	movl	%edx, %eax
	movq	%rcx, -24(%rbp)
	movl	%eax, -16(%rbp)
	jmp	LBB24_1
LBB24_3:
	movq	-72(%rbp), %rax
	.loc	2 968 23 is_stmt 1
	movq	%rax, -56(%rbp)
	movq	-56(%rbp), %rdx
	movl	$1, %eax
	xorl	%ecx, %ecx
	cmpq	$0, %rdx
	cmoveq	%rcx, %rax
	.loc	2 968 17 is_stmt 0
	cmpq	$0, %rax
	jne	LBB24_5
	.loc	2 0 17
	movq	-80(%rbp), %rsi
	movq	-88(%rbp), %rdi
	.loc	2 970 49 is_stmt 1
	movb	$0, -41(%rbp)
Ltmp351:
	.loc	2 970 29 is_stmt 0
	callq	__ZN3std6thread5local4fast12Key$LT$T$GT$14try_initialize17h07b6349752f476f4E
Ltmp352:
	movq	%rax, -96(%rbp)
	jmp	LBB24_7
LBB24_5:
	.loc	2 969 26 is_stmt 1
	movq	-56(%rbp), %rax
	movq	%rax, -8(%rbp)
Ltmp355:
	.loc	2 969 34 is_stmt 0
	movq	%rax, -64(%rbp)
Ltmp356:
LBB24_6:
	.loc	2 973 9 is_stmt 1
	testb	$1, -41(%rbp)
	jne	LBB24_11
	jmp	LBB24_10
LBB24_7:
	.loc	2 0 9 is_stmt 0
	movq	-96(%rbp), %rax
	.loc	2 970 29 is_stmt 1
	movq	%rax, -64(%rbp)
	.loc	2 970 53 is_stmt 0
	jmp	LBB24_6
LBB24_8:
	.loc	2 959 9 is_stmt 1
	movq	-24(%rbp), %rdi
	callq	__Unwind_Resume
LBB24_9:
	.loc	2 973 9
	jmp	LBB24_8
LBB24_10:
	.loc	2 973 10 is_stmt 0
	movq	-64(%rbp), %rax
	addq	$96, %rsp
	popq	%rbp
	retq
LBB24_11:
	.loc	2 973 9
	jmp	LBB24_10
Ltmp357:
Lfunc_end24:
	.cfi_endproc
	.section	__TEXT,__gcc_except_tab
	.p2align	2
GCC_except_table24:
Lexception7:
	.byte	255
	.byte	255
	.byte	1
	.uleb128 Lcst_end7-Lcst_begin7
Lcst_begin7:
	.uleb128 Ltmp349-Lfunc_begin24
	.uleb128 Ltmp352-Ltmp349
	.uleb128 Ltmp353-Lfunc_begin24
	.byte	0
	.uleb128 Ltmp352-Lfunc_begin24
	.uleb128 Lfunc_end24-Ltmp352
	.byte	0
	.byte	0
Lcst_end7:
	.p2align	2

	.section	__TEXT,__text,regular,pure_instructions
	.globl	__ZN3std6thread5local4fast12Key$LT$T$GT$3get17hd4065848483ae124E
	.p2align	4, 0x90
__ZN3std6thread5local4fast12Key$LT$T$GT$3get17hd4065848483ae124E:
Lfunc_begin25:
	.loc	2 959 0 is_stmt 1
	.cfi_startproc
	.cfi_personality 155, _rust_eh_personality
	.cfi_lsda 16, Lexception8
	pushq	%rbp
	.cfi_def_cfa_offset 16
	.cfi_offset %rbp, -16
	movq	%rsp, %rbp
	.cfi_def_cfa_register %rbp
	subq	$96, %rsp
	movq	%rdi, -88(%rbp)
	movq	%rsi, -80(%rbp)
	movq	%rdi, -40(%rbp)
	movq	%rsi, -32(%rbp)
Ltmp363:
	.loc	2 968 23 prologue_end
	movb	$1, -41(%rbp)
Ltmp358:
	callq	__ZN3std6thread5local4lazy21LazyKeyInner$LT$T$GT$3get17h3ef01eb21d137923E
Ltmp359:
	movq	%rax, -72(%rbp)
	jmp	LBB25_3
LBB25_1:
	.loc	2 973 9
	testb	$1, -41(%rbp)
	jne	LBB25_9
	jmp	LBB25_8
LBB25_2:
Ltmp362:
	.loc	2 0 9 is_stmt 0
	movq	%rax, %rcx
	movl	%edx, %eax
	movq	%rcx, -24(%rbp)
	movl	%eax, -16(%rbp)
	jmp	LBB25_1
LBB25_3:
	movq	-72(%rbp), %rax
	.loc	2 968 23 is_stmt 1
	movq	%rax, -56(%rbp)
	movq	-56(%rbp), %rdx
	movl	$1, %eax
	xorl	%ecx, %ecx
	cmpq	$0, %rdx
	cmoveq	%rcx, %rax
	.loc	2 968 17 is_stmt 0
	cmpq	$0, %rax
	jne	LBB25_5
	.loc	2 0 17
	movq	-80(%rbp), %rsi
	movq	-88(%rbp), %rdi
	.loc	2 970 49 is_stmt 1
	movb	$0, -41(%rbp)
Ltmp360:
	.loc	2 970 29 is_stmt 0
	callq	__ZN3std6thread5local4fast12Key$LT$T$GT$14try_initialize17haf0a78080a4c0e99E
Ltmp361:
	movq	%rax, -96(%rbp)
	jmp	LBB25_7
LBB25_5:
	.loc	2 969 26 is_stmt 1
	movq	-56(%rbp), %rax
	movq	%rax, -8(%rbp)
Ltmp364:
	.loc	2 969 34 is_stmt 0
	movq	%rax, -64(%rbp)
Ltmp365:
LBB25_6:
	.loc	2 973 9 is_stmt 1
	testb	$1, -41(%rbp)
	jne	LBB25_11
	jmp	LBB25_10
LBB25_7:
	.loc	2 0 9 is_stmt 0
	movq	-96(%rbp), %rax
	.loc	2 970 29 is_stmt 1
	movq	%rax, -64(%rbp)
	.loc	2 970 53 is_stmt 0
	jmp	LBB25_6
LBB25_8:
	.loc	2 959 9 is_stmt 1
	movq	-24(%rbp), %rdi
	callq	__Unwind_Resume
LBB25_9:
	.loc	2 973 9
	jmp	LBB25_8
LBB25_10:
	.loc	2 973 10 is_stmt 0
	movq	-64(%rbp), %rax
	addq	$96, %rsp
	popq	%rbp
	retq
LBB25_11:
	.loc	2 973 9
	jmp	LBB25_10
Ltmp366:
Lfunc_end25:
	.cfi_endproc
	.section	__TEXT,__gcc_except_tab
	.p2align	2
GCC_except_table25:
Lexception8:
	.byte	255
	.byte	255
	.byte	1
	.uleb128 Lcst_end8-Lcst_begin8
Lcst_begin8:
	.uleb128 Ltmp358-Lfunc_begin25
	.uleb128 Ltmp361-Ltmp358
	.uleb128 Ltmp362-Lfunc_begin25
	.byte	0
	.uleb128 Ltmp361-Lfunc_begin25
	.uleb128 Lfunc_end25-Ltmp361
	.byte	0
	.byte	0
Lcst_end8:
	.p2align	2

	.section	__TEXT,__text,regular,pure_instructions
	.globl	__ZN3std6thread5local4fast13destroy_value17h94ecbee319e81934E
	.p2align	4, 0x90
__ZN3std6thread5local4fast13destroy_value17h94ecbee319e81934E:
Lfunc_begin26:
	.loc	2 1017 0 is_stmt 1
	.cfi_startproc
	.cfi_personality 155, _rust_eh_personality
	.cfi_lsda 16, Lexception9
	pushq	%rbp
	.cfi_def_cfa_offset 16
	.cfi_offset %rbp, -16
	movq	%rsp, %rbp
	.cfi_def_cfa_register %rbp
	subq	$304, %rsp
	movq	%rdi, -64(%rbp)
Ltmp384:
	.loc	2 1018 19 prologue_end
	movq	%rdi, -256(%rbp)
	leaq	-256(%rbp), %rax
Ltmp385:
	.loc	2 1033 69
	movq	%rax, -224(%rbp)
	.loc	2 1033 45 is_stmt 0
	movq	-224(%rbp), %rax
	movq	%rax, -232(%rbp)
	.loc	2 1033 25
	movq	-232(%rbp), %rdi
Ltmp367:
	callq	__ZN3std5panic12catch_unwind17h7f1b7a6a3283c8cdE
Ltmp368:
	movq	%rdx, -272(%rbp)
	movq	%rax, -264(%rbp)
	jmp	LBB26_3
Ltmp386:
LBB26_1:
	.loc	2 1017 5 is_stmt 1
	callq	__ZN4core9panicking19panic_cannot_unwind17h1fbca7e1d7f56ae1E
LBB26_2:
Ltmp383:
	.loc	2 0 5 is_stmt 0
	movq	%rax, %rcx
	movl	%edx, %eax
	movq	%rcx, -56(%rbp)
	movl	%eax, -48(%rbp)
	jmp	LBB26_1
LBB26_3:
	movq	-272(%rbp), %rax
	movq	-264(%rbp), %rcx
Ltmp387:
	.loc	2 1033 25 is_stmt 1
	movq	%rcx, -248(%rbp)
	movq	%rax, -240(%rbp)
	.loc	2 1033 16 is_stmt 0
	movq	-248(%rbp), %rdx
	movl	$1, %eax
	xorl	%ecx, %ecx
	cmpq	$0, %rdx
	cmoveq	%rcx, %rax
	cmpq	$1, %rax
	jne	LBB26_5
Ltmp371:
Ltmp388:
	.loc	2 1038 13 is_stmt 1
	callq	__ZN3std3sys4unix5stdio12panic_output17hbdb9d595bb134988E
Ltmp372:
	movb	%al, -273(%rbp)
	jmp	LBB26_7
Ltmp389:
LBB26_5:
Ltmp369:
	.loc	2 0 13 is_stmt 0
	leaq	-248(%rbp), %rdi
	.loc	2 1040 5 is_stmt 1
	callq	__ZN4core3ptr130drop_in_place$LT$core..result..Result$LT$$LP$$RP$$C$alloc..boxed..Box$LT$dyn$u20$core..any..Any$u2b$core..marker..Send$GT$$GT$$GT$17h879e5276a8c4d378E
Ltmp370:
	jmp	LBB26_6
LBB26_6:
	.loc	2 1040 6 is_stmt 0
	addq	$304, %rsp
	popq	%rbp
	retq
LBB26_7:
	.loc	2 0 6
	movb	-273(%rbp), %al
Ltmp390:
	.loc	2 1038 13 is_stmt 1
	andb	$1, %al
	movb	%al, -209(%rbp)
	movb	-209(%rbp), %al
	andb	$1, %al
	movzbl	%al, %eax
	cmpq	$1, %rax
	jne	LBB26_9
Ltmp373:
	leaq	l___unnamed_14(%rip), %rsi
	leaq	l___unnamed_15(%rip), %rcx
	xorl	%eax, %eax
	movl	%eax, %r8d
	leaq	-112(%rbp), %rdi
	movl	$1, %edx
	callq	__ZN4core3fmt9Arguments6new_v117h9b624b451cc04d58E
Ltmp374:
	jmp	LBB26_10
Ltmp391:
LBB26_9:
Ltmp381:
	.loc	2 1038 13 is_stmt 0
	callq	__ZN3std3sys4unix14abort_internal17h2d537589b8bbc756E
Ltmp382:
	jmp	LBB26_16
LBB26_10:
Ltmp392:
	.loc	2 1038 13
	leaq	-112(%rbp), %rax
	movq	%rax, -40(%rbp)
Ltmp393:
	.file	23 "/rustc/2c8cc343237b8f7d5a3c3703e3a87f2eb2c54a74/library/core/src/fmt" "mod.rs"
	.loc	23 328 23 is_stmt 1
	leaq	-112(%rbp), %rax
	movq	%rax, -32(%rbp)
	.loc	23 328 26 is_stmt 0
	movq	__ZN59_$LT$core..fmt..Arguments$u20$as$u20$core..fmt..Display$GT$3fmt17h99a13c0e04235e08E@GOTPCREL(%rip), %rax
	movq	%rax, -24(%rbp)
Ltmp394:
	.loc	23 347 42 is_stmt 1
	movq	__ZN59_$LT$core..fmt..Arguments$u20$as$u20$core..fmt..Display$GT$3fmt17h99a13c0e04235e08E@GOTPCREL(%rip), %rax
	movq	%rax, -16(%rbp)
	movq	-16(%rbp), %rax
	movq	%rax, -288(%rbp)
	.loc	23 347 68 is_stmt 0
	leaq	-112(%rbp), %rax
	movq	%rax, -8(%rbp)
	movq	-8(%rbp), %rax
	movq	%rax, -296(%rbp)
	.loc	23 0 68
	movq	-288(%rbp), %rax
	movq	-296(%rbp), %rcx
	.loc	23 347 18
	movq	%rcx, -128(%rbp)
	movq	%rax, -120(%rbp)
Ltmp395:
	.loc	2 1038 13 is_stmt 1
	movq	-128(%rbp), %rcx
	movq	-120(%rbp), %rax
	movq	%rcx, -144(%rbp)
	movq	%rax, -136(%rbp)
Ltmp375:
	leaq	l___unnamed_16(%rip), %rsi
	leaq	-192(%rbp), %rdi
	movl	$2, %edx
	leaq	-144(%rbp), %rcx
	movl	$1, %r8d
	callq	__ZN4core3fmt9Arguments6new_v117h9b624b451cc04d58E
Ltmp376:
	jmp	LBB26_13
LBB26_13:
Ltmp377:
	.loc	2 0 13 is_stmt 0
	leaq	-208(%rbp), %rdi
	leaq	-192(%rbp), %rsi
	.loc	2 1038 13
	callq	__ZN3std2io5Write9write_fmt17hdf0dee3bf42e2d9fE
Ltmp378:
	movq	%rax, -304(%rbp)
	jmp	LBB26_14
LBB26_14:
	.loc	2 0 13
	movq	-304(%rbp), %rax
	.loc	2 1038 13
	movq	%rax, -200(%rbp)
Ltmp379:
	leaq	-200(%rbp), %rdi
	callq	__ZN4core3ptr81drop_in_place$LT$core..result..Result$LT$$LP$$RP$$C$std..io..error..Error$GT$$GT$17h63dd8221c81a39d1E
Ltmp380:
	jmp	LBB26_15
Ltmp396:
LBB26_15:
	.loc	2 1038 13
	jmp	LBB26_9
Ltmp397:
LBB26_16:
	.loc	2 0 13
	ud2
Lfunc_end26:
	.cfi_endproc
	.file	24 "/rustc/2c8cc343237b8f7d5a3c3703e3a87f2eb2c54a74/library/std/src" "rt.rs"
	.section	__TEXT,__gcc_except_tab
	.p2align	2
GCC_except_table26:
Lexception9:
	.byte	255
	.byte	255
	.byte	1
	.uleb128 Lcst_end9-Lcst_begin9
Lcst_begin9:
	.uleb128 Ltmp367-Lfunc_begin26
	.uleb128 Ltmp380-Ltmp367
	.uleb128 Ltmp383-Lfunc_begin26
	.byte	0
Lcst_end9:
	.p2align	2

	.section	__TEXT,__text,regular,pure_instructions
	.globl	__ZN3std6thread5local4fast13destroy_value17heea7120280b34553E
	.p2align	4, 0x90
__ZN3std6thread5local4fast13destroy_value17heea7120280b34553E:
Lfunc_begin27:
	.loc	2 1017 0 is_stmt 1
	.cfi_startproc
	.cfi_personality 155, _rust_eh_personality
	.cfi_lsda 16, Lexception10
	pushq	%rbp
	.cfi_def_cfa_offset 16
	.cfi_offset %rbp, -16
	movq	%rsp, %rbp
	.cfi_def_cfa_register %rbp
	subq	$304, %rsp
	movq	%rdi, -64(%rbp)
Ltmp415:
	.loc	2 1018 19 prologue_end
	movq	%rdi, -256(%rbp)
	leaq	-256(%rbp), %rax
Ltmp416:
	.loc	2 1033 69
	movq	%rax, -224(%rbp)
	.loc	2 1033 45 is_stmt 0
	movq	-224(%rbp), %rax
	movq	%rax, -232(%rbp)
	.loc	2 1033 25
	movq	-232(%rbp), %rdi
Ltmp398:
	callq	__ZN3std5panic12catch_unwind17h022e56cb290a199bE
Ltmp399:
	movq	%rdx, -272(%rbp)
	movq	%rax, -264(%rbp)
	jmp	LBB27_3
Ltmp417:
LBB27_1:
	.loc	2 1017 5 is_stmt 1
	callq	__ZN4core9panicking19panic_cannot_unwind17h1fbca7e1d7f56ae1E
LBB27_2:
Ltmp414:
	.loc	2 0 5 is_stmt 0
	movq	%rax, %rcx
	movl	%edx, %eax
	movq	%rcx, -56(%rbp)
	movl	%eax, -48(%rbp)
	jmp	LBB27_1
LBB27_3:
	movq	-272(%rbp), %rax
	movq	-264(%rbp), %rcx
Ltmp418:
	.loc	2 1033 25 is_stmt 1
	movq	%rcx, -248(%rbp)
	movq	%rax, -240(%rbp)
	.loc	2 1033 16 is_stmt 0
	movq	-248(%rbp), %rdx
	movl	$1, %eax
	xorl	%ecx, %ecx
	cmpq	$0, %rdx
	cmoveq	%rcx, %rax
	cmpq	$1, %rax
	jne	LBB27_5
Ltmp402:
Ltmp419:
	.loc	2 1038 13 is_stmt 1
	callq	__ZN3std3sys4unix5stdio12panic_output17hbdb9d595bb134988E
Ltmp403:
	movb	%al, -273(%rbp)
	jmp	LBB27_7
Ltmp420:
LBB27_5:
Ltmp400:
	.loc	2 0 13 is_stmt 0
	leaq	-248(%rbp), %rdi
	.loc	2 1040 5 is_stmt 1
	callq	__ZN4core3ptr130drop_in_place$LT$core..result..Result$LT$$LP$$RP$$C$alloc..boxed..Box$LT$dyn$u20$core..any..Any$u2b$core..marker..Send$GT$$GT$$GT$17h879e5276a8c4d378E
Ltmp401:
	jmp	LBB27_6
LBB27_6:
	.loc	2 1040 6 is_stmt 0
	addq	$304, %rsp
	popq	%rbp
	retq
LBB27_7:
	.loc	2 0 6
	movb	-273(%rbp), %al
Ltmp421:
	.loc	2 1038 13 is_stmt 1
	andb	$1, %al
	movb	%al, -209(%rbp)
	movb	-209(%rbp), %al
	andb	$1, %al
	movzbl	%al, %eax
	cmpq	$1, %rax
	jne	LBB27_9
Ltmp404:
	leaq	l___unnamed_14(%rip), %rsi
	leaq	l___unnamed_15(%rip), %rcx
	xorl	%eax, %eax
	movl	%eax, %r8d
	leaq	-112(%rbp), %rdi
	movl	$1, %edx
	callq	__ZN4core3fmt9Arguments6new_v117h9b624b451cc04d58E
Ltmp405:
	jmp	LBB27_10
Ltmp422:
LBB27_9:
Ltmp412:
	.loc	2 1038 13 is_stmt 0
	callq	__ZN3std3sys4unix14abort_internal17h2d537589b8bbc756E
Ltmp413:
	jmp	LBB27_16
LBB27_10:
Ltmp423:
	.loc	2 1038 13
	leaq	-112(%rbp), %rax
	movq	%rax, -40(%rbp)
Ltmp424:
	.loc	23 328 23 is_stmt 1
	leaq	-112(%rbp), %rax
	movq	%rax, -32(%rbp)
	.loc	23 328 26 is_stmt 0
	movq	__ZN59_$LT$core..fmt..Arguments$u20$as$u20$core..fmt..Display$GT$3fmt17h99a13c0e04235e08E@GOTPCREL(%rip), %rax
	movq	%rax, -24(%rbp)
Ltmp425:
	.loc	23 347 42 is_stmt 1
	movq	__ZN59_$LT$core..fmt..Arguments$u20$as$u20$core..fmt..Display$GT$3fmt17h99a13c0e04235e08E@GOTPCREL(%rip), %rax
	movq	%rax, -16(%rbp)
	movq	-16(%rbp), %rax
	movq	%rax, -288(%rbp)
	.loc	23 347 68 is_stmt 0
	leaq	-112(%rbp), %rax
	movq	%rax, -8(%rbp)
	movq	-8(%rbp), %rax
	movq	%rax, -296(%rbp)
	.loc	23 0 68
	movq	-288(%rbp), %rax
	movq	-296(%rbp), %rcx
	.loc	23 347 18
	movq	%rcx, -128(%rbp)
	movq	%rax, -120(%rbp)
Ltmp426:
	.loc	2 1038 13 is_stmt 1
	movq	-128(%rbp), %rcx
	movq	-120(%rbp), %rax
	movq	%rcx, -144(%rbp)
	movq	%rax, -136(%rbp)
Ltmp406:
	leaq	l___unnamed_16(%rip), %rsi
	leaq	-192(%rbp), %rdi
	movl	$2, %edx
	leaq	-144(%rbp), %rcx
	movl	$1, %r8d
	callq	__ZN4core3fmt9Arguments6new_v117h9b624b451cc04d58E
Ltmp407:
	jmp	LBB27_13
LBB27_13:
Ltmp408:
	.loc	2 0 13 is_stmt 0
	leaq	-208(%rbp), %rdi
	leaq	-192(%rbp), %rsi
	.loc	2 1038 13
	callq	__ZN3std2io5Write9write_fmt17hdf0dee3bf42e2d9fE
Ltmp409:
	movq	%rax, -304(%rbp)
	jmp	LBB27_14
LBB27_14:
	.loc	2 0 13
	movq	-304(%rbp), %rax
	.loc	2 1038 13
	movq	%rax, -200(%rbp)
Ltmp410:
	leaq	-200(%rbp), %rdi
	callq	__ZN4core3ptr81drop_in_place$LT$core..result..Result$LT$$LP$$RP$$C$std..io..error..Error$GT$$GT$17h63dd8221c81a39d1E
Ltmp411:
	jmp	LBB27_15
Ltmp427:
LBB27_15:
	.loc	2 1038 13
	jmp	LBB27_9
Ltmp428:
LBB27_16:
	.loc	2 0 13
	ud2
Lfunc_end27:
	.cfi_endproc
	.section	__TEXT,__gcc_except_tab
	.p2align	2
GCC_except_table27:
Lexception10:
	.byte	255
	.byte	255
	.byte	1
	.uleb128 Lcst_end10-Lcst_begin10
Lcst_begin10:
	.uleb128 Ltmp398-Lfunc_begin27
	.uleb128 Ltmp411-Ltmp398
	.uleb128 Ltmp414-Lfunc_begin27
	.byte	0
Lcst_end10:
	.p2align	2

	.section	__TEXT,__text,regular,pure_instructions
	.globl	__ZN3std6thread5local4fast13destroy_value28_$u7b$$u7b$closure$u7d$$u7d$17h59e6e3148cd79a49E
	.p2align	4, 0x90
__ZN3std6thread5local4fast13destroy_value28_$u7b$$u7b$closure$u7d$$u7d$17h59e6e3148cd79a49E:
Lfunc_begin28:
	.loc	2 1033 0 is_stmt 1
	.cfi_startproc
	.cfi_personality 155, _rust_eh_personality
	.cfi_lsda 16, Lexception11
	pushq	%rbp
	.cfi_def_cfa_offset 16
	.cfi_offset %rbp, -16
	movq	%rsp, %rbp
	.cfi_def_cfa_register %rbp
	subq	$384, %rsp
	movq	%rdi, -368(%rbp)
	movq	%rdi, -40(%rbp)
Ltmp437:
	.loc	2 1034 25 prologue_end
	movq	(%rdi), %rax
	movq	(%rax), %rsi
	movb	$1, -41(%rbp)
	leaq	-352(%rbp), %rdi
	callq	__ZN3std6thread5local4lazy21LazyKeyInner$LT$T$GT$4take17h1684403cfa5a667dE
	movq	-368(%rbp), %rdi
Ltmp438:
	.loc	2 1035 13
	movq	(%rdi), %rax
	movq	(%rax), %rdi
	addq	$152, %rdi
	movq	%rdi, -32(%rbp)
Ltmp429:
	movl	$2, %esi
Ltmp439:
	.loc	22 363 19
	callq	__ZN4core4cell13Cell$LT$T$GT$7replace17h96ad0d507a632179E
Ltmp430:
	movb	%al, -353(%rbp)
	jmp	LBB28_3
Ltmp440:
LBB28_1:
	.loc	2 1037 9
	testb	$1, -41(%rbp)
	jne	LBB28_6
	jmp	LBB28_5
LBB28_2:
Ltmp433:
	.loc	2 0 9 is_stmt 0
	movq	%rax, %rcx
	movl	%edx, %eax
	movq	%rcx, -24(%rbp)
	movl	%eax, -16(%rbp)
	jmp	LBB28_1
LBB28_3:
	movb	-353(%rbp), %al
Ltmp441:
	.loc	22 363 19 is_stmt 1
	movb	%al, -1(%rbp)
Ltmp442:
	.loc	2 1036 18
	movb	$0, -41(%rbp)
	leaq	-200(%rbp), %rdi
	movq	%rdi, -376(%rbp)
	leaq	-352(%rbp), %rsi
	movl	$152, %edx
	callq	_memcpy
	movq	-376(%rbp), %rdi
Ltmp431:
Ltmp443:
	.loc	21 980 24
	callq	__ZN4core3ptr88drop_in_place$LT$core..option..Option$LT$parking_lot_core..word_lock..ThreadData$GT$$GT$17hc7eb406ae45308f3E
Ltmp432:
	jmp	LBB28_4
Ltmp444:
LBB28_4:
	.loc	2 1037 10
	addq	$384, %rsp
	popq	%rbp
	retq
LBB28_5:
	.loc	2 1033 69
	movq	-24(%rbp), %rdi
	callq	__Unwind_Resume
LBB28_6:
Ltmp434:
	.loc	2 0 69 is_stmt 0
	leaq	-352(%rbp), %rdi
	.loc	2 1037 9 is_stmt 1
	callq	__ZN4core3ptr88drop_in_place$LT$core..option..Option$LT$parking_lot_core..word_lock..ThreadData$GT$$GT$17hc7eb406ae45308f3E
Ltmp435:
	jmp	LBB28_5
LBB28_7:
Ltmp436:
	.loc	2 1033 69
	callq	__ZN4core9panicking19panic_cannot_unwind17h1fbca7e1d7f56ae1E
Ltmp445:
Lfunc_end28:
	.cfi_endproc
	.section	__TEXT,__gcc_except_tab
	.p2align	2
GCC_except_table28:
Lexception11:
	.byte	255
	.byte	255
	.byte	1
	.uleb128 Lcst_end11-Lcst_begin11
Lcst_begin11:
	.uleb128 Lfunc_begin28-Lfunc_begin28
	.uleb128 Ltmp429-Lfunc_begin28
	.byte	0
	.byte	0
	.uleb128 Ltmp429-Lfunc_begin28
	.uleb128 Ltmp430-Ltmp429
	.uleb128 Ltmp433-Lfunc_begin28
	.byte	0
	.uleb128 Ltmp430-Lfunc_begin28
	.uleb128 Ltmp431-Ltmp430
	.byte	0
	.byte	0
	.uleb128 Ltmp431-Lfunc_begin28
	.uleb128 Ltmp432-Ltmp431
	.uleb128 Ltmp433-Lfunc_begin28
	.byte	0
	.uleb128 Ltmp432-Lfunc_begin28
	.uleb128 Ltmp434-Ltmp432
	.byte	0
	.byte	0
	.uleb128 Ltmp434-Lfunc_begin28
	.uleb128 Ltmp435-Ltmp434
	.uleb128 Ltmp436-Lfunc_begin28
	.byte	0
Lcst_end11:
	.p2align	2

	.section	__TEXT,__text,regular,pure_instructions
	.globl	__ZN3std6thread5local4fast13destroy_value28_$u7b$$u7b$closure$u7d$$u7d$17h93a158300604daf3E
	.p2align	4, 0x90
__ZN3std6thread5local4fast13destroy_value28_$u7b$$u7b$closure$u7d$$u7d$17h93a158300604daf3E:
Lfunc_begin29:
	.loc	2 1033 0
	.cfi_startproc
	.cfi_personality 155, _rust_eh_personality
	.cfi_lsda 16, Lexception12
	pushq	%rbp
	.cfi_def_cfa_offset 16
	.cfi_offset %rbp, -16
	movq	%rsp, %rbp
	.cfi_def_cfa_register %rbp
	subq	$416, %rsp
	movq	%rdi, -400(%rbp)
	movq	%rdi, -40(%rbp)
Ltmp454:
	.loc	2 1034 25 prologue_end
	movq	(%rdi), %rax
	movq	(%rax), %rsi
	movb	$1, -41(%rbp)
	leaq	-384(%rbp), %rdi
	callq	__ZN3std6thread5local4lazy21LazyKeyInner$LT$T$GT$4take17ha9c928e52bfa5abeE
	movq	-400(%rbp), %rdi
Ltmp455:
	.loc	2 1035 13
	movq	(%rdi), %rax
	movq	(%rax), %rdi
	addq	$168, %rdi
	movq	%rdi, -32(%rbp)
Ltmp446:
	movl	$2, %esi
Ltmp456:
	.loc	22 363 19
	callq	__ZN4core4cell13Cell$LT$T$GT$7replace17h96ad0d507a632179E
Ltmp447:
	movb	%al, -385(%rbp)
	jmp	LBB29_3
Ltmp457:
LBB29_1:
	.loc	2 1037 9
	testb	$1, -41(%rbp)
	jne	LBB29_6
	jmp	LBB29_5
LBB29_2:
Ltmp450:
	.loc	2 0 9 is_stmt 0
	movq	%rax, %rcx
	movl	%edx, %eax
	movq	%rcx, -24(%rbp)
	movl	%eax, -16(%rbp)
	jmp	LBB29_1
LBB29_3:
	movb	-385(%rbp), %al
Ltmp458:
	.loc	22 363 19 is_stmt 1
	movb	%al, -1(%rbp)
Ltmp459:
	.loc	2 1036 18
	movb	$0, -41(%rbp)
	leaq	-216(%rbp), %rdi
	movq	%rdi, -408(%rbp)
	leaq	-384(%rbp), %rsi
	movl	$168, %edx
	callq	_memcpy
	movq	-408(%rbp), %rdi
Ltmp448:
Ltmp460:
	.loc	21 980 24
	callq	__ZN4core3ptr90drop_in_place$LT$core..option..Option$LT$parking_lot_core..parking_lot..ThreadData$GT$$GT$17h90c3f74d9fad5bd6E
Ltmp449:
	jmp	LBB29_4
Ltmp461:
LBB29_4:
	.loc	2 1037 10
	addq	$416, %rsp
	popq	%rbp
	retq
LBB29_5:
	.loc	2 1033 69
	movq	-24(%rbp), %rdi
	callq	__Unwind_Resume
LBB29_6:
Ltmp451:
	.loc	2 0 69 is_stmt 0
	leaq	-384(%rbp), %rdi
	.loc	2 1037 9 is_stmt 1
	callq	__ZN4core3ptr90drop_in_place$LT$core..option..Option$LT$parking_lot_core..parking_lot..ThreadData$GT$$GT$17h90c3f74d9fad5bd6E
Ltmp452:
	jmp	LBB29_5
LBB29_7:
Ltmp453:
	.loc	2 1033 69
	callq	__ZN4core9panicking19panic_cannot_unwind17h1fbca7e1d7f56ae1E
Ltmp462:
Lfunc_end29:
	.cfi_endproc
	.section	__TEXT,__gcc_except_tab
	.p2align	2
GCC_except_table29:
Lexception12:
	.byte	255
	.byte	255
	.byte	1
	.uleb128 Lcst_end12-Lcst_begin12
Lcst_begin12:
	.uleb128 Lfunc_begin29-Lfunc_begin29
	.uleb128 Ltmp446-Lfunc_begin29
	.byte	0
	.byte	0
	.uleb128 Ltmp446-Lfunc_begin29
	.uleb128 Ltmp447-Ltmp446
	.uleb128 Ltmp450-Lfunc_begin29
	.byte	0
	.uleb128 Ltmp447-Lfunc_begin29
	.uleb128 Ltmp448-Ltmp447
	.byte	0
	.byte	0
	.uleb128 Ltmp448-Lfunc_begin29
	.uleb128 Ltmp449-Ltmp448
	.uleb128 Ltmp450-Lfunc_begin29
	.byte	0
	.uleb128 Ltmp449-Lfunc_begin29
	.uleb128 Ltmp451-Ltmp449
	.byte	0
	.byte	0
	.uleb128 Ltmp451-Lfunc_begin29
	.uleb128 Ltmp452-Ltmp451
	.uleb128 Ltmp453-Lfunc_begin29
	.byte	0
Lcst_end12:
	.p2align	2

	.section	__TEXT,__text,regular,pure_instructions
	.globl	__ZN3std6thread5local4lazy21LazyKeyInner$LT$T$GT$10initialize17h64f9f0745fd9ae2dE
	.p2align	4, 0x90
__ZN3std6thread5local4lazy21LazyKeyInner$LT$T$GT$10initialize17h64f9f0745fd9ae2dE:
Lfunc_begin30:
	.loc	2 807 0
	.cfi_startproc
	.cfi_personality 155, _rust_eh_personality
	.cfi_lsda 16, Lexception13
	pushq	%rbp
	.cfi_def_cfa_offset 16
	.cfi_offset %rbp, -16
	movq	%rsp, %rbp
	.cfi_def_cfa_register %rbp
	subq	$688, %rsp
	movq	%rdi, -656(%rbp)
	movq	%rdi, -56(%rbp)
	movq	%rsi, -48(%rbp)
	leaq	-648(%rbp), %rdi
	movq	%rdi, -680(%rbp)
Ltmp473:
	.loc	2 810 25 prologue_end
	callq	__ZN16parking_lot_core9word_lock16with_thread_data11THREAD_DATA7__getit28_$u7b$$u7b$closure$u7d$$u7d$17h35b1ae9064cdb5cdE
	movq	-680(%rbp), %rsi
	movq	-656(%rbp), %rdi
Ltmp474:
	.loc	2 811 23
	movq	%rdi, -40(%rbp)
Ltmp475:
	.loc	22 1999 9
	movq	%rdi, -32(%rbp)
	leaq	-200(%rbp), %rdi
	movq	%rdi, -672(%rbp)
	movl	$144, %edx
	movq	%rdx, -664(%rbp)
Ltmp476:
	.loc	2 831 54
	callq	_memcpy
	movq	-672(%rbp), %rsi
	movq	-664(%rbp), %rdx
	.loc	2 831 49 is_stmt 0
	leaq	-344(%rbp), %rdi
	callq	_memcpy
	movq	-656(%rbp), %rsi
	movq	$1, -352(%rbp)
Ltmp463:
	leaq	-504(%rbp), %rdi
	leaq	-352(%rbp), %rdx
	.loc	2 831 25
	callq	__ZN4core3mem7replace17h8e2b036526210656E
Ltmp464:
	jmp	LBB30_3
Ltmp477:
LBB30_1:
	.loc	2 848 9 is_stmt 1
	xorl	%eax, %eax
	testb	$1, %al
	jne	LBB30_9
	jmp	LBB30_8
LBB30_2:
Ltmp469:
	.loc	2 0 9 is_stmt 0
	movq	%rax, %rcx
	movl	%edx, %eax
	movq	%rcx, -24(%rbp)
	movl	%eax, -16(%rbp)
	jmp	LBB30_1
LBB30_3:
Ltmp465:
	leaq	-504(%rbp), %rdi
Ltmp478:
	.loc	2 831 61 is_stmt 1
	callq	__ZN4core3ptr88drop_in_place$LT$core..option..Option$LT$parking_lot_core..word_lock..ThreadData$GT$$GT$17hc7eb406ae45308f3E
Ltmp466:
	jmp	LBB30_4
LBB30_4:
	.loc	2 0 61 is_stmt 0
	movq	-656(%rbp), %rax
	.loc	2 843 17 is_stmt 1
	cmpq	$0, (%rax)
	jne	LBB30_6
Ltmp467:
	.loc	2 845 29
	callq	__ZN4core4hint21unreachable_unchecked17h25ae7e558879064aE
Ltmp468:
	jmp	LBB30_7
LBB30_6:
	.loc	2 0 29 is_stmt 0
	movq	-656(%rbp), %rax
	.loc	2 844 26 is_stmt 1
	addq	$8, %rax
	movq	%rax, -8(%rbp)
Ltmp479:
	.loc	2 848 10
	addq	$688, %rsp
	popq	%rbp
	retq
LBB30_7:
	.loc	2 0 10 is_stmt 0
	ud2
LBB30_8:
	.loc	2 807 9 is_stmt 1
	movq	-24(%rbp), %rdi
	callq	__Unwind_Resume
LBB30_9:
Ltmp470:
	.loc	2 0 9 is_stmt 0
	leaq	-648(%rbp), %rdi
	.loc	2 848 9 is_stmt 1
	callq	__ZN4core3ptr60drop_in_place$LT$parking_lot_core..word_lock..ThreadData$GT$17h10c5d316a9752552E
Ltmp471:
	jmp	LBB30_8
LBB30_10:
Ltmp472:
	.loc	2 807 9
	callq	__ZN4core9panicking19panic_cannot_unwind17h1fbca7e1d7f56ae1E
Ltmp480:
Lfunc_end30:
	.cfi_endproc
	.section	__TEXT,__gcc_except_tab
	.p2align	2
GCC_except_table30:
Lexception13:
	.byte	255
	.byte	255
	.byte	1
	.uleb128 Lcst_end13-Lcst_begin13
Lcst_begin13:
	.uleb128 Lfunc_begin30-Lfunc_begin30
	.uleb128 Ltmp463-Lfunc_begin30
	.byte	0
	.byte	0
	.uleb128 Ltmp463-Lfunc_begin30
	.uleb128 Ltmp468-Ltmp463
	.uleb128 Ltmp469-Lfunc_begin30
	.byte	0
	.uleb128 Ltmp468-Lfunc_begin30
	.uleb128 Ltmp470-Ltmp468
	.byte	0
	.byte	0
	.uleb128 Ltmp470-Lfunc_begin30
	.uleb128 Ltmp471-Ltmp470
	.uleb128 Ltmp472-Lfunc_begin30
	.byte	0
Lcst_end13:
	.p2align	2

	.section	__TEXT,__text,regular,pure_instructions
	.globl	__ZN3std6thread5local4lazy21LazyKeyInner$LT$T$GT$10initialize17hbbefcceaa416b2a9E
	.p2align	4, 0x90
__ZN3std6thread5local4lazy21LazyKeyInner$LT$T$GT$10initialize17hbbefcceaa416b2a9E:
Lfunc_begin31:
	.loc	2 807 0
	.cfi_startproc
	.cfi_personality 155, _rust_eh_personality
	.cfi_lsda 16, Lexception14
	pushq	%rbp
	.cfi_def_cfa_offset 16
	.cfi_offset %rbp, -16
	movq	%rsp, %rbp
	.cfi_def_cfa_register %rbp
	subq	$752, %rsp
	movq	%rdi, -720(%rbp)
	movq	%rdi, -56(%rbp)
	movq	%rsi, -48(%rbp)
	leaq	-712(%rbp), %rdi
	movq	%rdi, -744(%rbp)
Ltmp491:
	.loc	2 810 25 prologue_end
	callq	__ZN16parking_lot_core11parking_lot16with_thread_data11THREAD_DATA7__getit28_$u7b$$u7b$closure$u7d$$u7d$17h5c16f8e806516540E
	movq	-744(%rbp), %rsi
	movq	-720(%rbp), %rdi
Ltmp492:
	.loc	2 811 23
	movq	%rdi, -40(%rbp)
Ltmp493:
	.loc	22 1999 9
	movq	%rdi, -32(%rbp)
	leaq	-216(%rbp), %rdi
	movq	%rdi, -736(%rbp)
	movl	$160, %edx
	movq	%rdx, -728(%rbp)
Ltmp494:
	.loc	2 831 54
	callq	_memcpy
	movq	-736(%rbp), %rsi
	movq	-728(%rbp), %rdx
	.loc	2 831 49 is_stmt 0
	leaq	-376(%rbp), %rdi
	callq	_memcpy
	movq	-720(%rbp), %rsi
	movq	$1, -384(%rbp)
Ltmp481:
	leaq	-552(%rbp), %rdi
	leaq	-384(%rbp), %rdx
	.loc	2 831 25
	callq	__ZN4core3mem7replace17hd879fb06a9f96e6fE
Ltmp482:
	jmp	LBB31_3
Ltmp495:
LBB31_1:
	.loc	2 848 9 is_stmt 1
	xorl	%eax, %eax
	testb	$1, %al
	jne	LBB31_9
	jmp	LBB31_8
LBB31_2:
Ltmp487:
	.loc	2 0 9 is_stmt 0
	movq	%rax, %rcx
	movl	%edx, %eax
	movq	%rcx, -24(%rbp)
	movl	%eax, -16(%rbp)
	jmp	LBB31_1
LBB31_3:
Ltmp483:
	leaq	-552(%rbp), %rdi
Ltmp496:
	.loc	2 831 61 is_stmt 1
	callq	__ZN4core3ptr90drop_in_place$LT$core..option..Option$LT$parking_lot_core..parking_lot..ThreadData$GT$$GT$17h90c3f74d9fad5bd6E
Ltmp484:
	jmp	LBB31_4
LBB31_4:
	.loc	2 0 61 is_stmt 0
	movq	-720(%rbp), %rax
	.loc	2 843 17 is_stmt 1
	cmpq	$0, (%rax)
	jne	LBB31_6
Ltmp485:
	.loc	2 845 29
	callq	__ZN4core4hint21unreachable_unchecked17h25ae7e558879064aE
Ltmp486:
	jmp	LBB31_7
LBB31_6:
	.loc	2 0 29 is_stmt 0
	movq	-720(%rbp), %rax
	.loc	2 844 26 is_stmt 1
	addq	$8, %rax
	movq	%rax, -8(%rbp)
Ltmp497:
	.loc	2 848 10
	addq	$752, %rsp
	popq	%rbp
	retq
LBB31_7:
	.loc	2 0 10 is_stmt 0
	ud2
LBB31_8:
	.loc	2 807 9 is_stmt 1
	movq	-24(%rbp), %rdi
	callq	__Unwind_Resume
LBB31_9:
Ltmp488:
	.loc	2 0 9 is_stmt 0
	leaq	-712(%rbp), %rdi
	.loc	2 848 9 is_stmt 1
	callq	__ZN4core3ptr62drop_in_place$LT$parking_lot_core..parking_lot..ThreadData$GT$17h3277ee48861f4467E
Ltmp489:
	jmp	LBB31_8
LBB31_10:
Ltmp490:
	.loc	2 807 9
	callq	__ZN4core9panicking19panic_cannot_unwind17h1fbca7e1d7f56ae1E
Ltmp498:
Lfunc_end31:
	.cfi_endproc
	.section	__TEXT,__gcc_except_tab
	.p2align	2
GCC_except_table31:
Lexception14:
	.byte	255
	.byte	255
	.byte	1
	.uleb128 Lcst_end14-Lcst_begin14
Lcst_begin14:
	.uleb128 Lfunc_begin31-Lfunc_begin31
	.uleb128 Ltmp481-Lfunc_begin31
	.byte	0
	.byte	0
	.uleb128 Ltmp481-Lfunc_begin31
	.uleb128 Ltmp486-Ltmp481
	.uleb128 Ltmp487-Lfunc_begin31
	.byte	0
	.uleb128 Ltmp486-Lfunc_begin31
	.uleb128 Ltmp488-Ltmp486
	.byte	0
	.byte	0
	.uleb128 Ltmp488-Lfunc_begin31
	.uleb128 Ltmp489-Ltmp488
	.uleb128 Ltmp490-Lfunc_begin31
	.byte	0
Lcst_end14:
	.p2align	2

	.section	__TEXT,__text,regular,pure_instructions
	.globl	__ZN3std6thread5local4lazy21LazyKeyInner$LT$T$GT$3get17h3ef01eb21d137923E
	.p2align	4, 0x90
__ZN3std6thread5local4lazy21LazyKeyInner$LT$T$GT$3get17h3ef01eb21d137923E:
Lfunc_begin32:
	.loc	2 797 0
	.cfi_startproc
	pushq	%rbp
	.cfi_def_cfa_offset 16
	.cfi_offset %rbp, -16
	movq	%rsp, %rbp
	.cfi_def_cfa_register %rbp
	subq	$48, %rsp
	movq	%rdi, -48(%rbp)
	movq	%rdi, -32(%rbp)
Ltmp499:
	.loc	2 802 24 prologue_end
	movq	%rdi, -24(%rbp)
	.loc	2 802 22 is_stmt 0
	movq	%rdi, -16(%rbp)
Ltmp500:
	.loc	19 675 9 is_stmt 1
	cmpq	$0, (%rdi)
	jne	LBB32_2
	.loc	19 677 21
	movq	$0, -40(%rbp)
	jmp	LBB32_3
LBB32_2:
	.loc	19 0 21 is_stmt 0
	movq	-48(%rbp), %rax
	.loc	19 676 18 is_stmt 1
	addq	$8, %rax
	movq	%rax, -8(%rbp)
Ltmp501:
	.loc	19 676 28 is_stmt 0
	movq	%rax, -40(%rbp)
Ltmp502:
LBB32_3:
	.loc	2 803 10 is_stmt 1
	movq	-40(%rbp), %rax
	addq	$48, %rsp
	popq	%rbp
	retq
Ltmp503:
Lfunc_end32:
	.cfi_endproc

	.globl	__ZN3std6thread5local4lazy21LazyKeyInner$LT$T$GT$3get17h96268447ff681296E
	.p2align	4, 0x90
__ZN3std6thread5local4lazy21LazyKeyInner$LT$T$GT$3get17h96268447ff681296E:
Lfunc_begin33:
	.loc	2 797 0
	.cfi_startproc
	pushq	%rbp
	.cfi_def_cfa_offset 16
	.cfi_offset %rbp, -16
	movq	%rsp, %rbp
	.cfi_def_cfa_register %rbp
	subq	$48, %rsp
	movq	%rdi, -48(%rbp)
	movq	%rdi, -32(%rbp)
Ltmp504:
	.loc	2 802 24 prologue_end
	movq	%rdi, -24(%rbp)
	.loc	2 802 22 is_stmt 0
	movq	%rdi, -16(%rbp)
Ltmp505:
	.loc	19 675 9 is_stmt 1
	cmpq	$0, (%rdi)
	jne	LBB33_2
	.loc	19 677 21
	movq	$0, -40(%rbp)
	jmp	LBB33_3
LBB33_2:
	.loc	19 0 21 is_stmt 0
	movq	-48(%rbp), %rax
	.loc	19 676 18 is_stmt 1
	addq	$8, %rax
	movq	%rax, -8(%rbp)
Ltmp506:
	.loc	19 676 28 is_stmt 0
	movq	%rax, -40(%rbp)
Ltmp507:
LBB33_3:
	.loc	2 803 10 is_stmt 1
	movq	-40(%rbp), %rax
	addq	$48, %rsp
	popq	%rbp
	retq
Ltmp508:
Lfunc_end33:
	.cfi_endproc

	.globl	__ZN3std6thread5local4lazy21LazyKeyInner$LT$T$GT$4take17h1684403cfa5a667dE
	.p2align	4, 0x90
__ZN3std6thread5local4lazy21LazyKeyInner$LT$T$GT$4take17h1684403cfa5a667dE:
Lfunc_begin34:
	.loc	2 854 0
	.cfi_startproc
	pushq	%rbp
	.cfi_def_cfa_offset 16
	.cfi_offset %rbp, -16
	movq	%rsp, %rbp
	.cfi_def_cfa_register %rbp
	subq	$192, %rsp
	movq	%rdi, %rax
	movq	%rax, -184(%rbp)
	movq	%rsi, -24(%rbp)
Ltmp509:
	.loc	2 856 24 prologue_end
	movq	%rsi, -16(%rbp)
	.loc	2 856 22 is_stmt 0
	movq	%rsi, -8(%rbp)
Ltmp510:
	.loc	19 1623 28 is_stmt 1
	movq	$0, -176(%rbp)
	.loc	19 1623 9 is_stmt 0
	leaq	-176(%rbp), %rdx
	callq	__ZN4core3mem7replace17h8e2b036526210656E
	movq	-184(%rbp), %rax
Ltmp511:
	.loc	2 857 10 is_stmt 1
	addq	$192, %rsp
	popq	%rbp
	retq
Ltmp512:
Lfunc_end34:
	.cfi_endproc

	.globl	__ZN3std6thread5local4lazy21LazyKeyInner$LT$T$GT$4take17ha9c928e52bfa5abeE
	.p2align	4, 0x90
__ZN3std6thread5local4lazy21LazyKeyInner$LT$T$GT$4take17ha9c928e52bfa5abeE:
Lfunc_begin35:
	.loc	2 854 0
	.cfi_startproc
	pushq	%rbp
	.cfi_def_cfa_offset 16
	.cfi_offset %rbp, -16
	movq	%rsp, %rbp
	.cfi_def_cfa_register %rbp
	subq	$208, %rsp
	movq	%rdi, %rax
	movq	%rax, -200(%rbp)
	movq	%rsi, -24(%rbp)
Ltmp513:
	.loc	2 856 24 prologue_end
	movq	%rsi, -16(%rbp)
	.loc	2 856 22 is_stmt 0
	movq	%rsi, -8(%rbp)
Ltmp514:
	.loc	19 1623 28 is_stmt 1
	movq	$0, -192(%rbp)
	.loc	19 1623 9 is_stmt 0
	leaq	-192(%rbp), %rdx
	callq	__ZN4core3mem7replace17hd879fb06a9f96e6fE
	movq	-200(%rbp), %rax
Ltmp515:
	.loc	2 857 10 is_stmt 1
	addq	$208, %rsp
	popq	%rbp
	retq
Ltmp516:
Lfunc_end35:
	.cfi_endproc

	.globl	__ZN3std9panicking3try17h36f6e8856b7080ceE
	.p2align	4, 0x90
__ZN3std9panicking3try17h36f6e8856b7080ceE:
Lfunc_begin36:
	.file	25 "/rustc/2c8cc343237b8f7d5a3c3703e3a87f2eb2c54a74/library/std/src" "panicking.rs"
	.loc	25 403 0
	.cfi_startproc
	pushq	%rbp
	.cfi_def_cfa_offset 16
	.cfi_offset %rbp, -16
	movq	%rsp, %rbp
	.cfi_def_cfa_register %rbp
	subq	$96, %rsp
	movq	%rdi, -56(%rbp)
Ltmp517:
	.loc	25 434 48 prologue_end
	movq	%rdi, -40(%rbp)
Ltmp518:
	.file	26 "/rustc/2c8cc343237b8f7d5a3c3703e3a87f2eb2c54a74/library/core/src/mem" "manually_drop.rs"
	.loc	26 71 9
	movq	%rdi, -64(%rbp)
Ltmp519:
	.loc	25 434 20
	movq	-64(%rbp), %rax
	movq	%rax, -80(%rbp)
Ltmp520:
	.loc	25 436 20
	leaq	-80(%rbp), %rax
	movq	%rax, -32(%rbp)
Ltmp521:
	.loc	25 447 19
	leaq	__ZN3std9panicking3try7do_call17h593fff59f26eb5e1E(%rip), %rdi
	leaq	-80(%rbp), %rsi
	leaq	__ZN3std9panicking3try8do_catch17h44da39a0802e72c2E(%rip), %rdx
	callq	___rust_try
	movl	%eax, -20(%rbp)
	cmpl	$0, -20(%rbp)
	jne	LBB36_2
	.loc	25 448 13
	movq	$0, -96(%rbp)
	.loc	25 447 16
	jmp	LBB36_3
LBB36_2:
	.loc	25 450 42
	movq	-80(%rbp), %rcx
	movq	-72(%rbp), %rax
	movq	%rcx, -16(%rbp)
	movq	%rax, -8(%rbp)
	.loc	25 450 13 is_stmt 0
	movq	%rcx, -96(%rbp)
	movq	%rax, -88(%rbp)
Ltmp522:
LBB36_3:
	.loc	25 512 2 is_stmt 1
	movq	-96(%rbp), %rax
	movq	-88(%rbp), %rdx
	addq	$96, %rsp
	popq	%rbp
	retq
Ltmp523:
Lfunc_end36:
	.cfi_endproc

	.globl	__ZN3std9panicking3try17hf62904869a6cca3aE
	.p2align	4, 0x90
__ZN3std9panicking3try17hf62904869a6cca3aE:
Lfunc_begin37:
	.loc	25 403 0
	.cfi_startproc
	pushq	%rbp
	.cfi_def_cfa_offset 16
	.cfi_offset %rbp, -16
	movq	%rsp, %rbp
	.cfi_def_cfa_register %rbp
	subq	$96, %rsp
	movq	%rdi, -56(%rbp)
Ltmp524:
	.loc	25 434 48 prologue_end
	movq	%rdi, -40(%rbp)
Ltmp525:
	.loc	26 71 9
	movq	%rdi, -64(%rbp)
Ltmp526:
	.loc	25 434 20
	movq	-64(%rbp), %rax
	movq	%rax, -80(%rbp)
Ltmp527:
	.loc	25 436 20
	leaq	-80(%rbp), %rax
	movq	%rax, -32(%rbp)
Ltmp528:
	.loc	25 447 19
	leaq	__ZN3std9panicking3try7do_call17h8d2aacdd8266de39E(%rip), %rdi
	leaq	-80(%rbp), %rsi
	leaq	__ZN3std9panicking3try8do_catch17hbcbf63bcbe5faa0cE(%rip), %rdx
	callq	___rust_try
	movl	%eax, -20(%rbp)
	cmpl	$0, -20(%rbp)
	jne	LBB37_2
	.loc	25 448 13
	movq	$0, -96(%rbp)
	.loc	25 447 16
	jmp	LBB37_3
LBB37_2:
	.loc	25 450 42
	movq	-80(%rbp), %rcx
	movq	-72(%rbp), %rax
	movq	%rcx, -16(%rbp)
	movq	%rax, -8(%rbp)
	.loc	25 450 13 is_stmt 0
	movq	%rcx, -96(%rbp)
	movq	%rax, -88(%rbp)
Ltmp529:
LBB37_3:
	.loc	25 512 2 is_stmt 1
	movq	-96(%rbp), %rax
	movq	-88(%rbp), %rdx
	addq	$96, %rsp
	popq	%rbp
	retq
Ltmp530:
Lfunc_end37:
	.cfi_endproc

	.globl	__ZN3std9panicking3try7do_call17h593fff59f26eb5e1E
	.p2align	4, 0x90
__ZN3std9panicking3try7do_call17h593fff59f26eb5e1E:
Lfunc_begin38:
	.loc	25 477 0
	.cfi_startproc
	pushq	%rbp
	.cfi_def_cfa_offset 16
	.cfi_offset %rbp, -16
	movq	%rsp, %rbp
	.cfi_def_cfa_register %rbp
	subq	$96, %rsp
	movq	%rdi, -80(%rbp)
Ltmp531:
	.loc	25 480 24 prologue_end
	movq	%rdi, -64(%rbp)
Ltmp532:
	.loc	25 481 24
	movq	%rdi, -56(%rbp)
Ltmp533:
	.loc	25 482 40
	movq	%rdi, -48(%rbp)
Ltmp534:
	.loc	26 113 28
	movq	%rdi, -40(%rbp)
Ltmp535:
	.loc	5 1157 34
	leaq	-88(%rbp), %rax
	movq	%rax, -32(%rbp)
	.loc	5 1157 9 is_stmt 0
	movq	(%rdi), %rax
	movq	%rax, -88(%rbp)
	.loc	5 1158 9 is_stmt 1
	movq	-88(%rbp), %rdi
	movq	%rdi, -24(%rbp)
Ltmp536:
	.file	27 "/rustc/2c8cc343237b8f7d5a3c3703e3a87f2eb2c54a74/library/core/src/mem" "maybe_uninit.rs"
	.loc	27 627 38
	movq	%rdi, -16(%rbp)
Ltmp537:
	.loc	26 89 9
	movq	%rdi, -8(%rbp)
Ltmp538:
	.loc	25 483 40
	callq	__ZN115_$LT$core..panic..unwind_safe..AssertUnwindSafe$LT$F$GT$$u20$as$u20$core..ops..function..FnOnce$LT$$LP$$RP$$GT$$GT$9call_once17h01c58a94c5a2dbbfE
Ltmp539:
	.loc	25 485 6
	addq	$96, %rsp
	popq	%rbp
	retq
Ltmp540:
Lfunc_end38:
	.cfi_endproc

	.globl	__ZN3std9panicking3try7do_call17h8d2aacdd8266de39E
	.p2align	4, 0x90
__ZN3std9panicking3try7do_call17h8d2aacdd8266de39E:
Lfunc_begin39:
	.loc	25 477 0
	.cfi_startproc
	pushq	%rbp
	.cfi_def_cfa_offset 16
	.cfi_offset %rbp, -16
	movq	%rsp, %rbp
	.cfi_def_cfa_register %rbp
	subq	$96, %rsp
	movq	%rdi, -80(%rbp)
Ltmp541:
	.loc	25 480 24 prologue_end
	movq	%rdi, -64(%rbp)
Ltmp542:
	.loc	25 481 24
	movq	%rdi, -56(%rbp)
Ltmp543:
	.loc	25 482 40
	movq	%rdi, -48(%rbp)
Ltmp544:
	.loc	26 113 28
	movq	%rdi, -40(%rbp)
Ltmp545:
	.loc	5 1157 34
	leaq	-88(%rbp), %rax
	movq	%rax, -32(%rbp)
	.loc	5 1157 9 is_stmt 0
	movq	(%rdi), %rax
	movq	%rax, -88(%rbp)
	.loc	5 1158 9 is_stmt 1
	movq	-88(%rbp), %rdi
	movq	%rdi, -24(%rbp)
Ltmp546:
	.loc	27 627 38
	movq	%rdi, -16(%rbp)
Ltmp547:
	.loc	26 89 9
	movq	%rdi, -8(%rbp)
Ltmp548:
	.loc	25 483 40
	callq	__ZN115_$LT$core..panic..unwind_safe..AssertUnwindSafe$LT$F$GT$$u20$as$u20$core..ops..function..FnOnce$LT$$LP$$RP$$GT$$GT$9call_once17hc631e6ccfb302b96E
Ltmp549:
	.loc	25 485 6
	addq	$96, %rsp
	popq	%rbp
	retq
Ltmp550:
Lfunc_end39:
	.cfi_endproc

	.globl	__ZN3std9panicking3try8do_catch17h44da39a0802e72c2E
	.p2align	4, 0x90
__ZN3std9panicking3try8do_catch17h44da39a0802e72c2E:
Lfunc_begin40:
	.loc	25 499 0
	.cfi_startproc
	pushq	%rbp
	.cfi_def_cfa_offset 16
	.cfi_offset %rbp, -16
	movq	%rsp, %rbp
	.cfi_def_cfa_register %rbp
	subq	$96, %rsp
	movq	%rsi, -96(%rbp)
	movq	%rdi, %rax
	movq	-96(%rbp), %rdi
	movq	%rax, -88(%rbp)
	movq	%rax, -64(%rbp)
	movq	%rdi, -56(%rbp)
Ltmp551:
	.loc	25 506 24 prologue_end
	movq	%rax, -48(%rbp)
Ltmp552:
	.loc	25 507 24
	movq	%rax, -40(%rbp)
Ltmp553:
	.loc	25 508 23
	callq	__ZN3std9panicking3try7cleanup17h75e8c286968d572cE
	movq	-88(%rbp), %rdi
	movq	%rax, -32(%rbp)
	movq	%rdx, -24(%rbp)
Ltmp554:
	.loc	25 509 40
	movq	%rax, -16(%rbp)
	movq	%rdx, -8(%rbp)
Ltmp555:
	.loc	26 71 9
	movq	%rax, -80(%rbp)
	movq	%rdx, -72(%rbp)
Ltmp556:
	.loc	25 509 13
	movq	-80(%rbp), %rcx
	movq	-72(%rbp), %rax
	movq	%rcx, (%rdi)
	movq	%rax, 8(%rdi)
Ltmp557:
	.loc	25 511 6
	addq	$96, %rsp
	popq	%rbp
	retq
Ltmp558:
Lfunc_end40:
	.cfi_endproc

	.globl	__ZN3std9panicking3try8do_catch17hbcbf63bcbe5faa0cE
	.p2align	4, 0x90
__ZN3std9panicking3try8do_catch17hbcbf63bcbe5faa0cE:
Lfunc_begin41:
	.loc	25 499 0
	.cfi_startproc
	pushq	%rbp
	.cfi_def_cfa_offset 16
	.cfi_offset %rbp, -16
	movq	%rsp, %rbp
	.cfi_def_cfa_register %rbp
	subq	$96, %rsp
	movq	%rsi, -96(%rbp)
	movq	%rdi, %rax
	movq	-96(%rbp), %rdi
	movq	%rax, -88(%rbp)
	movq	%rax, -64(%rbp)
	movq	%rdi, -56(%rbp)
Ltmp559:
	.loc	25 506 24 prologue_end
	movq	%rax, -48(%rbp)
Ltmp560:
	.loc	25 507 24
	movq	%rax, -40(%rbp)
Ltmp561:
	.loc	25 508 23
	callq	__ZN3std9panicking3try7cleanup17h75e8c286968d572cE
	movq	-88(%rbp), %rdi
	movq	%rax, -32(%rbp)
	movq	%rdx, -24(%rbp)
Ltmp562:
	.loc	25 509 40
	movq	%rax, -16(%rbp)
	movq	%rdx, -8(%rbp)
Ltmp563:
	.loc	26 71 9
	movq	%rax, -80(%rbp)
	movq	%rdx, -72(%rbp)
Ltmp564:
	.loc	25 509 13
	movq	-80(%rbp), %rcx
	movq	-72(%rbp), %rax
	movq	%rcx, (%rdi)
	movq	%rax, 8(%rdi)
Ltmp565:
	.loc	25 511 6
	addq	$96, %rsp
	popq	%rbp
	retq
Ltmp566:
Lfunc_end41:
	.cfi_endproc

	.p2align	4, 0x90
__ZN41_$LT$bool$u20$as$u20$core..fmt..Debug$GT$3fmt17h1ddb62e7400233d8E:
Lfunc_begin42:
	.loc	23 2406 0
	.cfi_startproc
	pushq	%rbp
	.cfi_def_cfa_offset 16
	.cfi_offset %rbp, -16
	movq	%rsp, %rbp
	.cfi_def_cfa_register %rbp
	subq	$16, %rsp
	movq	%rdi, -16(%rbp)
	movq	%rsi, -8(%rbp)
Ltmp567:
	.loc	23 2407 9 prologue_end
	callq	__ZN43_$LT$bool$u20$as$u20$core..fmt..Display$GT$3fmt17hcd777b7f8f92eb67E
	.loc	23 2408 6
	andb	$1, %al
	movzbl	%al, %eax
	addq	$16, %rsp
	popq	%rbp
	retq
Ltmp568:
Lfunc_end42:
	.cfi_endproc

	.globl	__ZN42_$LT$$RF$T$u20$as$u20$core..fmt..Debug$GT$3fmt17h5181da7f67ed5d68E
	.p2align	4, 0x90
__ZN42_$LT$$RF$T$u20$as$u20$core..fmt..Debug$GT$3fmt17h5181da7f67ed5d68E:
Lfunc_begin43:
	.loc	23 2377 0
	.cfi_startproc
	pushq	%rbp
	.cfi_def_cfa_offset 16
	.cfi_offset %rbp, -16
	movq	%rsp, %rbp
	.cfi_def_cfa_register %rbp
	subq	$16, %rsp
	movq	%rdi, -16(%rbp)
	movq	%rsi, -8(%rbp)
Ltmp569:
	.loc	23 2377 71 prologue_end
	movq	(%rdi), %rdi
	.loc	23 2377 62 is_stmt 0
	callq	__ZN79_$LT$parking_lot_core..parking_lot..UnparkToken$u20$as$u20$core..fmt..Debug$GT$3fmt17h59b11c48c90f8451E
	.loc	23 2377 84
	andb	$1, %al
	movzbl	%al, %eax
	addq	$16, %rsp
	popq	%rbp
	retq
Ltmp570:
Lfunc_end43:
	.cfi_endproc

	.globl	__ZN42_$LT$$RF$T$u20$as$u20$core..fmt..Debug$GT$3fmt17haa4c6c8b3088a56cE
	.p2align	4, 0x90
__ZN42_$LT$$RF$T$u20$as$u20$core..fmt..Debug$GT$3fmt17haa4c6c8b3088a56cE:
Lfunc_begin44:
	.loc	23 2377 0 is_stmt 1
	.cfi_startproc
	pushq	%rbp
	.cfi_def_cfa_offset 16
	.cfi_offset %rbp, -16
	movq	%rsp, %rbp
	.cfi_def_cfa_register %rbp
	subq	$16, %rsp
	movq	%rdi, -16(%rbp)
	movq	%rsi, -8(%rbp)
Ltmp571:
	.loc	23 2377 71 prologue_end
	movq	(%rdi), %rdi
	.loc	23 2377 62 is_stmt 0
	callq	__ZN4core3fmt3num52_$LT$impl$u20$core..fmt..Debug$u20$for$u20$usize$GT$3fmt17hf671825fc163f9efE
	.loc	23 2377 84
	andb	$1, %al
	movzbl	%al, %eax
	addq	$16, %rsp
	popq	%rbp
	retq
Ltmp572:
Lfunc_end44:
	.cfi_endproc

	.globl	__ZN42_$LT$$RF$T$u20$as$u20$core..fmt..Debug$GT$3fmt17hd5eb70f44743a28cE
	.p2align	4, 0x90
__ZN42_$LT$$RF$T$u20$as$u20$core..fmt..Debug$GT$3fmt17hd5eb70f44743a28cE:
Lfunc_begin45:
	.loc	23 2377 0 is_stmt 1
	.cfi_startproc
	pushq	%rbp
	.cfi_def_cfa_offset 16
	.cfi_offset %rbp, -16
	movq	%rsp, %rbp
	.cfi_def_cfa_register %rbp
	subq	$16, %rsp
	movq	%rdi, -16(%rbp)
	movq	%rsi, -8(%rbp)
Ltmp573:
	.loc	23 2377 71 prologue_end
	movq	(%rdi), %rdi
	.loc	23 2377 62 is_stmt 0
	callq	__ZN4core3fmt3num50_$LT$impl$u20$core..fmt..Debug$u20$for$u20$i32$GT$3fmt17h3a64dcfe24da0861E
	.loc	23 2377 84
	andb	$1, %al
	movzbl	%al, %eax
	addq	$16, %rsp
	popq	%rbp
	retq
Ltmp574:
Lfunc_end45:
	.cfi_endproc

	.globl	__ZN42_$LT$$RF$T$u20$as$u20$core..fmt..Debug$GT$3fmt17hd78c54c06b6d9f7cE
	.p2align	4, 0x90
__ZN42_$LT$$RF$T$u20$as$u20$core..fmt..Debug$GT$3fmt17hd78c54c06b6d9f7cE:
Lfunc_begin46:
	.loc	23 2377 0 is_stmt 1
	.cfi_startproc
	pushq	%rbp
	.cfi_def_cfa_offset 16
	.cfi_offset %rbp, -16
	movq	%rsp, %rbp
	.cfi_def_cfa_register %rbp
	subq	$16, %rsp
	movq	%rdi, -16(%rbp)
	movq	%rsi, -8(%rbp)
Ltmp575:
	.loc	23 2377 71 prologue_end
	movq	(%rdi), %rdi
	.loc	23 2377 62 is_stmt 0
	callq	__ZN45_$LT$$LP$$RP$$u20$as$u20$core..fmt..Debug$GT$3fmt17h2f593f0ac8f9a43eE
	.loc	23 2377 84
	andb	$1, %al
	movzbl	%al, %eax
	addq	$16, %rsp
	popq	%rbp
	retq
Ltmp576:
Lfunc_end46:
	.cfi_endproc

	.globl	__ZN42_$LT$$RF$T$u20$as$u20$core..fmt..Debug$GT$3fmt17he66407c38ed75d08E
	.p2align	4, 0x90
__ZN42_$LT$$RF$T$u20$as$u20$core..fmt..Debug$GT$3fmt17he66407c38ed75d08E:
Lfunc_begin47:
	.loc	23 2377 0 is_stmt 1
	.cfi_startproc
	pushq	%rbp
	.cfi_def_cfa_offset 16
	.cfi_offset %rbp, -16
	movq	%rsp, %rbp
	.cfi_def_cfa_register %rbp
	subq	$16, %rsp
	movq	%rdi, -16(%rbp)
	movq	%rsi, -8(%rbp)
Ltmp577:
	.loc	23 2377 71 prologue_end
	movq	(%rdi), %rdi
	.loc	23 2377 62 is_stmt 0
	callq	__ZN41_$LT$bool$u20$as$u20$core..fmt..Debug$GT$3fmt17h1ddb62e7400233d8E
	.loc	23 2377 84
	andb	$1, %al
	movzbl	%al, %eax
	addq	$16, %rsp
	popq	%rbp
	retq
Ltmp578:
Lfunc_end47:
	.cfi_endproc

	.p2align	4, 0x90
__ZN45_$LT$$LP$$RP$$u20$as$u20$core..fmt..Debug$GT$3fmt17h2f593f0ac8f9a43eE:
Lfunc_begin48:
	.loc	23 2610 0 is_stmt 1
	.cfi_startproc
	pushq	%rbp
	.cfi_def_cfa_offset 16
	.cfi_offset %rbp, -16
	movq	%rsp, %rbp
	.cfi_def_cfa_register %rbp
	subq	$32, %rsp
	movq	%rsi, -24(%rbp)
	movq	%rdi, %rax
	movq	-24(%rbp), %rdi
	movq	%rax, -16(%rbp)
	movq	%rdi, -8(%rbp)
Ltmp579:
	.loc	23 2611 9 prologue_end
	leaq	l___unnamed_17(%rip), %rsi
	movl	$2, %edx
	callq	__ZN4core3fmt9Formatter3pad17h322dee5343842323E
	.loc	23 2612 6
	andb	$1, %al
	movzbl	%al, %eax
	addq	$32, %rsp
	popq	%rbp
	retq
Ltmp580:
Lfunc_end48:
	.cfi_endproc

	.p2align	4, 0x90
__ZN46_$LT$u32$u20$as$u20$core..default..Default$GT$7default17haad5ecd771f1c16fE:
Lfunc_begin49:
	.file	28 "/rustc/2c8cc343237b8f7d5a3c3703e3a87f2eb2c54a74/library/core/src" "default.rs"
	.loc	28 197 0
	.cfi_startproc
	pushq	%rbp
	.cfi_def_cfa_offset 16
	.cfi_offset %rbp, -16
	movq	%rsp, %rbp
	.cfi_def_cfa_register %rbp
Ltmp581:
	.loc	28 199 14 prologue_end
	xorl	%eax, %eax
	popq	%rbp
	retq
Ltmp582:
Lfunc_end49:
	.cfi_endproc

	.p2align	4, 0x90
__ZN47_$LT$u32$u20$as$u20$core..iter..range..Step$GT$17forward_unchecked17hf789ef2d864c5882E:
Lfunc_begin50:
	.file	29 "/rustc/2c8cc343237b8f7d5a3c3703e3a87f2eb2c54a74/library/core/src/iter" "range.rs"
	.loc	29 189 0
	.cfi_startproc
	pushq	%rbp
	.cfi_def_cfa_offset 16
	.cfi_offset %rbp, -16
	movq	%rsp, %rbp
	.cfi_def_cfa_register %rbp
	subq	$32, %rsp
	movl	%edi, -28(%rbp)
	movq	%rsi, -24(%rbp)
Ltmp583:
	.loc	29 191 22 prologue_end
	movl	%edi, -12(%rbp)
	.loc	29 191 42 is_stmt 0
	movl	%esi, %eax
	movl	%eax, -8(%rbp)
Ltmp584:
	.file	30 "/rustc/2c8cc343237b8f7d5a3c3703e3a87f2eb2c54a74/library/core/src/num" "uint_macros.rs"
	.loc	30 470 22 is_stmt 1
	addl	%eax, %edi
	movl	%edi, -4(%rbp)
	movl	-4(%rbp), %eax
Ltmp585:
	.loc	29 192 10
	addq	$32, %rsp
	popq	%rbp
	retq
Ltmp586:
Lfunc_end50:
	.cfi_endproc

	.p2align	4, 0x90
__ZN49_$LT$usize$u20$as$u20$core..iter..range..Step$GT$17forward_unchecked17ha7d1b2a37a2f1c55E:
Lfunc_begin51:
	.loc	29 189 0
	.cfi_startproc
	pushq	%rbp
	.cfi_def_cfa_offset 16
	.cfi_offset %rbp, -16
	movq	%rsp, %rbp
	.cfi_def_cfa_register %rbp
	subq	$40, %rsp
	movq	%rdi, -40(%rbp)
	movq	%rsi, -32(%rbp)
Ltmp587:
	.loc	29 191 22 prologue_end
	movq	%rdi, -24(%rbp)
	.loc	29 191 42 is_stmt 0
	movq	%rsi, -16(%rbp)
Ltmp588:
	.loc	30 470 22 is_stmt 1
	addq	%rsi, %rdi
	movq	%rdi, -8(%rbp)
	movq	-8(%rbp), %rax
Ltmp589:
	.loc	29 192 10
	addq	$40, %rsp
	popq	%rbp
	retq
Ltmp590:
Lfunc_end51:
	.cfi_endproc

	.p2align	4, 0x90
__ZN4core3cmp5impls50_$LT$impl$u20$core..cmp..Ord$u20$for$u20$usize$GT$3cmp17h99c3826ee83ef112E:
Lfunc_begin52:
	.file	31 "/rustc/2c8cc343237b8f7d5a3c3703e3a87f2eb2c54a74/library/core/src" "cmp.rs"
	.loc	31 1454 0
	.cfi_startproc
	pushq	%rbp
	.cfi_def_cfa_offset 16
	.cfi_offset %rbp, -16
	movq	%rsp, %rbp
	.cfi_def_cfa_register %rbp
	subq	$40, %rsp
	movq	%rdi, -40(%rbp)
	movq	%rsi, -32(%rbp)
	movq	%rdi, -16(%rbp)
	movq	%rsi, -8(%rbp)
Ltmp591:
	.loc	31 1457 24 prologue_end
	movq	(%rdi), %rax
	cmpq	(%rsi), %rax
	jb	LBB52_2
	.loc	31 0 24 is_stmt 0
	movq	-32(%rbp), %rcx
	movq	-40(%rbp), %rax
	.loc	31 1458 29 is_stmt 1
	movq	(%rax), %rax
	cmpq	(%rcx), %rax
	je	LBB52_5
	jmp	LBB52_4
LBB52_2:
	.loc	31 1457 41
	movb	$-1, -17(%rbp)
LBB52_3:
	.loc	31 1460 18
	movb	-17(%rbp), %al
	addq	$40, %rsp
	popq	%rbp
	retq
LBB52_4:
	.loc	31 1459 28
	movb	$1, -17(%rbp)
	.loc	31 1458 26
	jmp	LBB52_6
LBB52_5:
	.loc	31 1458 47 is_stmt 0
	movb	$0, -17(%rbp)
LBB52_6:
	.loc	31 1457 21 is_stmt 1
	jmp	LBB52_3
Ltmp592:
Lfunc_end52:
	.cfi_endproc

	.p2align	4, 0x90
__ZN4core3cmp5impls55_$LT$impl$u20$core..cmp..PartialOrd$u20$for$u20$u32$GT$2lt17h94b6994380afe894E:
Lfunc_begin53:
	.loc	31 1441 0
	.cfi_startproc
	pushq	%rbp
	.cfi_def_cfa_offset 16
	.cfi_offset %rbp, -16
	movq	%rsp, %rbp
	.cfi_def_cfa_register %rbp
	subq	$16, %rsp
	movq	%rdi, -16(%rbp)
	movq	%rsi, -8(%rbp)
Ltmp593:
	.loc	31 1441 52 prologue_end
	movl	(%rdi), %eax
	cmpl	(%rsi), %eax
	setb	%al
	.loc	31 1441 72 is_stmt 0
	andb	$1, %al
	movzbl	%al, %eax
	addq	$16, %rsp
	popq	%rbp
	retq
Ltmp594:
Lfunc_end53:
	.cfi_endproc

	.p2align	4, 0x90
__ZN4core3cmp5impls57_$LT$impl$u20$core..cmp..PartialOrd$u20$for$u20$usize$GT$2lt17h3b300267e91b7ed8E:
Lfunc_begin54:
	.loc	31 1441 0 is_stmt 1
	.cfi_startproc
	pushq	%rbp
	.cfi_def_cfa_offset 16
	.cfi_offset %rbp, -16
	movq	%rsp, %rbp
	.cfi_def_cfa_register %rbp
	subq	$16, %rsp
	movq	%rdi, -16(%rbp)
	movq	%rsi, -8(%rbp)
Ltmp595:
	.loc	31 1441 52 prologue_end
	movq	(%rdi), %rax
	cmpq	(%rsi), %rax
	setb	%al
	.loc	31 1441 72 is_stmt 0
	andb	$1, %al
	movzbl	%al, %eax
	addq	$16, %rsp
	popq	%rbp
	retq
Ltmp596:
Lfunc_end54:
	.cfi_endproc

	.globl	__ZN4core3cmp6max_by17h597f79eb8d9ef3b4E
	.p2align	4, 0x90
__ZN4core3cmp6max_by17h597f79eb8d9ef3b4E:
Lfunc_begin55:
	.loc	31 1295 0 is_stmt 1
	.cfi_startproc
	.cfi_personality 155, _rust_eh_personality
	.cfi_lsda 16, Lexception15
	pushq	%rbp
	.cfi_def_cfa_offset 16
	.cfi_offset %rbp, -16
	movq	%rsp, %rbp
	.cfi_def_cfa_register %rbp
	subq	$96, %rsp
	movq	%rdi, -80(%rbp)
	movq	%rsi, -72(%rbp)
Ltmp600:
	.loc	31 1300 11 prologue_end
	movb	$1, -25(%rbp)
	movb	$1, -26(%rbp)
	leaq	-80(%rbp), %rax
	movq	%rax, -48(%rbp)
	leaq	-72(%rbp), %rax
	movq	%rax, -40(%rbp)
	movq	-48(%rbp), %rdi
	movq	-40(%rbp), %rsi
Ltmp597:
	callq	__ZN4core3ops8function6FnOnce9call_once17h1b5a2564e0a52f70E
Ltmp598:
	movb	%al, -81(%rbp)
	jmp	LBB55_3
LBB55_1:
	.loc	31 1304 1
	jmp	LBB55_4
LBB55_2:
Ltmp599:
	.loc	31 0 1 is_stmt 0
	movq	%rax, %rcx
	movl	%edx, %eax
	movq	%rcx, -16(%rbp)
	movl	%eax, -8(%rbp)
	jmp	LBB55_1
LBB55_3:
	movb	-81(%rbp), %al
	.loc	31 1300 11 is_stmt 1
	movb	%al, -49(%rbp)
	movb	-49(%rbp), %al
	.loc	31 1300 5 is_stmt 0
	incb	%al
	subb	$2, %al
	jb	LBB55_6
	jmp	LBB55_15
LBB55_15:
	jmp	LBB55_7
LBB55_4:
	.loc	31 1304 1 is_stmt 1
	testb	$1, -25(%rbp)
	jne	LBB55_12
	jmp	LBB55_11
	.loc	31 1300 11
	ud2
LBB55_6:
	.loc	31 1301 45
	movb	$0, -26(%rbp)
	movq	-72(%rbp), %rax
	movq	%rax, -64(%rbp)
	jmp	LBB55_8
LBB55_7:
	.loc	31 1302 30
	movb	$0, -25(%rbp)
	movq	-80(%rbp), %rax
	movq	%rax, -64(%rbp)
LBB55_8:
	.loc	31 1304 1
	testb	$1, -26(%rbp)
	jne	LBB55_10
LBB55_9:
	testb	$1, -25(%rbp)
	jne	LBB55_14
	jmp	LBB55_13
LBB55_10:
	jmp	LBB55_9
LBB55_11:
	.loc	31 1295 1
	movq	-16(%rbp), %rdi
	callq	__Unwind_Resume
LBB55_12:
	.loc	31 1304 1
	jmp	LBB55_11
LBB55_13:
	.loc	31 1304 2 is_stmt 0
	movq	-64(%rbp), %rax
	addq	$96, %rsp
	popq	%rbp
	retq
LBB55_14:
	.loc	31 1304 1
	jmp	LBB55_13
Ltmp601:
Lfunc_end55:
	.cfi_endproc
	.section	__TEXT,__gcc_except_tab
	.p2align	2
GCC_except_table55:
Lexception15:
	.byte	255
	.byte	255
	.byte	1
	.uleb128 Lcst_end15-Lcst_begin15
Lcst_begin15:
	.uleb128 Ltmp597-Lfunc_begin55
	.uleb128 Ltmp598-Ltmp597
	.uleb128 Ltmp599-Lfunc_begin55
	.byte	0
	.uleb128 Ltmp598-Lfunc_begin55
	.uleb128 Lfunc_end55-Ltmp598
	.byte	0
	.byte	0
Lcst_end15:
	.p2align	2

	.section	__TEXT,__text,regular,pure_instructions
	.globl	__ZN4core3fmt10ArgumentV111new_display17hc1467322968c44a6E
	.p2align	4, 0x90
__ZN4core3fmt10ArgumentV111new_display17hc1467322968c44a6E:
Lfunc_begin56:
	.loc	23 327 0 is_stmt 1
	.cfi_startproc
	pushq	%rbp
	.cfi_def_cfa_offset 16
	.cfi_offset %rbp, -16
	movq	%rsp, %rbp
	.cfi_def_cfa_register %rbp
	subq	$56, %rsp
	movq	%rdi, -40(%rbp)
Ltmp602:
	.loc	23 328 23 prologue_end
	movq	%rdi, -32(%rbp)
	.loc	23 328 26 is_stmt 0
	movq	__ZN59_$LT$core..fmt..Arguments$u20$as$u20$core..fmt..Display$GT$3fmt17h99a13c0e04235e08E@GOTPCREL(%rip), %rax
	movq	%rax, -24(%rbp)
Ltmp603:
	.loc	23 347 42 is_stmt 1
	movq	%rax, -16(%rbp)
	movq	-16(%rbp), %rax
	.loc	23 347 68 is_stmt 0
	movq	%rdi, -8(%rbp)
	movq	-8(%rbp), %rcx
	.loc	23 347 18
	movq	%rcx, -56(%rbp)
	movq	%rax, -48(%rbp)
Ltmp604:
	.loc	23 329 10 is_stmt 1
	movq	-56(%rbp), %rax
	movq	-48(%rbp), %rdx
	addq	$56, %rsp
	popq	%rbp
	retq
Ltmp605:
Lfunc_end56:
	.cfi_endproc

	.p2align	4, 0x90
__ZN4core3fmt3num50_$LT$impl$u20$core..fmt..Debug$u20$for$u20$i32$GT$3fmt17h3a64dcfe24da0861E:
Lfunc_begin57:
	.file	32 "/rustc/2c8cc343237b8f7d5a3c3703e3a87f2eb2c54a74/library/core/src/fmt" "num.rs"
	.loc	32 185 0
	.cfi_startproc
	pushq	%rbp
	.cfi_def_cfa_offset 16
	.cfi_offset %rbp, -16
	movq	%rsp, %rbp
	.cfi_def_cfa_register %rbp
	subq	$48, %rsp
	movq	%rsi, -48(%rbp)
	movq	%rdi, %rax
	movq	-48(%rbp), %rdi
	movq	%rax, -40(%rbp)
	movq	%rdi, -32(%rbp)
	movq	%rax, -16(%rbp)
	movq	%rdi, -8(%rbp)
Ltmp606:
	.loc	32 186 20 prologue_end
	callq	__ZN4core3fmt9Formatter15debug_lower_hex17h0921e6b9188d914eE
	testb	$1, %al
	jne	LBB57_2
	.loc	32 0 20 is_stmt 0
	movq	-32(%rbp), %rdi
	.loc	32 188 27 is_stmt 1
	callq	__ZN4core3fmt9Formatter15debug_upper_hex17h8ce487049a6cccf8E
	testb	$1, %al
	jne	LBB57_5
	jmp	LBB57_4
LBB57_2:
	.loc	32 0 27 is_stmt 0
	movq	-32(%rbp), %rsi
	movq	-40(%rbp), %rdi
	.loc	32 187 21 is_stmt 1
	callq	__ZN4core3fmt3num53_$LT$impl$u20$core..fmt..LowerHex$u20$for$u20$i32$GT$3fmt17hd6250c25a4eb7bb1E
	andb	$1, %al
	movb	%al, -17(%rbp)
LBB57_3:
	.loc	32 193 14
	movb	-17(%rbp), %al
	andb	$1, %al
	movzbl	%al, %eax
	addq	$48, %rsp
	popq	%rbp
	retq
LBB57_4:
	.loc	32 0 14 is_stmt 0
	movq	-32(%rbp), %rsi
	movq	-40(%rbp), %rdi
	.loc	32 191 21 is_stmt 1
	callq	__ZN4core3fmt3num3imp52_$LT$impl$u20$core..fmt..Display$u20$for$u20$i32$GT$3fmt17hd51e25ed68474bbaE
	andb	$1, %al
	movb	%al, -17(%rbp)
	.loc	32 188 24
	jmp	LBB57_6
LBB57_5:
	.loc	32 0 24 is_stmt 0
	movq	-32(%rbp), %rsi
	movq	-40(%rbp), %rdi
	.loc	32 189 21 is_stmt 1
	callq	__ZN4core3fmt3num53_$LT$impl$u20$core..fmt..UpperHex$u20$for$u20$i32$GT$3fmt17hfa20a470c47e8721E
	andb	$1, %al
	movb	%al, -17(%rbp)
LBB57_6:
	.loc	32 186 17
	jmp	LBB57_3
Ltmp607:
Lfunc_end57:
	.cfi_endproc

	.p2align	4, 0x90
__ZN4core3fmt3num52_$LT$impl$u20$core..fmt..Debug$u20$for$u20$usize$GT$3fmt17hf671825fc163f9efE:
Lfunc_begin58:
	.loc	32 185 0
	.cfi_startproc
	pushq	%rbp
	.cfi_def_cfa_offset 16
	.cfi_offset %rbp, -16
	movq	%rsp, %rbp
	.cfi_def_cfa_register %rbp
	subq	$48, %rsp
	movq	%rsi, -48(%rbp)
	movq	%rdi, %rax
	movq	-48(%rbp), %rdi
	movq	%rax, -40(%rbp)
	movq	%rdi, -32(%rbp)
	movq	%rax, -16(%rbp)
	movq	%rdi, -8(%rbp)
Ltmp608:
	.loc	32 186 20 prologue_end
	callq	__ZN4core3fmt9Formatter15debug_lower_hex17h0921e6b9188d914eE
	testb	$1, %al
	jne	LBB58_2
	.loc	32 0 20 is_stmt 0
	movq	-32(%rbp), %rdi
	.loc	32 188 27 is_stmt 1
	callq	__ZN4core3fmt9Formatter15debug_upper_hex17h8ce487049a6cccf8E
	testb	$1, %al
	jne	LBB58_5
	jmp	LBB58_4
LBB58_2:
	.loc	32 0 27 is_stmt 0
	movq	-32(%rbp), %rsi
	movq	-40(%rbp), %rdi
	.loc	32 187 21 is_stmt 1
	callq	__ZN4core3fmt3num55_$LT$impl$u20$core..fmt..LowerHex$u20$for$u20$usize$GT$3fmt17h84f349805fe63f8dE
	andb	$1, %al
	movb	%al, -17(%rbp)
LBB58_3:
	.loc	32 193 14
	movb	-17(%rbp), %al
	andb	$1, %al
	movzbl	%al, %eax
	addq	$48, %rsp
	popq	%rbp
	retq
LBB58_4:
	.loc	32 0 14 is_stmt 0
	movq	-32(%rbp), %rsi
	movq	-40(%rbp), %rdi
	.loc	32 191 21 is_stmt 1
	callq	__ZN4core3fmt3num3imp54_$LT$impl$u20$core..fmt..Display$u20$for$u20$usize$GT$3fmt17ha5c925fcd7ed33faE
	andb	$1, %al
	movb	%al, -17(%rbp)
	.loc	32 188 24
	jmp	LBB58_6
LBB58_5:
	.loc	32 0 24 is_stmt 0
	movq	-32(%rbp), %rsi
	movq	-40(%rbp), %rdi
	.loc	32 189 21 is_stmt 1
	callq	__ZN4core3fmt3num55_$LT$impl$u20$core..fmt..UpperHex$u20$for$u20$usize$GT$3fmt17h49aa717311edc293E
	andb	$1, %al
	movb	%al, -17(%rbp)
LBB58_6:
	.loc	32 186 17
	jmp	LBB58_3
Ltmp609:
Lfunc_end58:
	.cfi_endproc

	.globl	__ZN4core3fmt5Write10write_char17hf78ed1aa24d60c71E
	.p2align	4, 0x90
__ZN4core3fmt5Write10write_char17hf78ed1aa24d60c71E:
Lfunc_begin59:
	.loc	23 168 0
	.cfi_startproc
	pushq	%rbp
	.cfi_def_cfa_offset 16
	.cfi_offset %rbp, -16
	movq	%rsp, %rbp
	.cfi_def_cfa_register %rbp
	subq	$80, %rsp
	movq	%rdi, -64(%rbp)
	movl	%esi, -68(%rbp)
	movq	%rdi, -48(%rbp)
	movl	%esi, -40(%rbp)
Ltmp610:
	.loc	23 169 24 prologue_end
	movl	%esi, -36(%rbp)
	.loc	23 169 43 is_stmt 0
	leaq	-52(%rbp), %rdi
	xorl	%esi, %esi
	movl	$4, %edx
	callq	_memset
	movl	-68(%rbp), %edi
	.loc	23 169 38
	leaq	-52(%rbp), %rax
	movq	%rax, -32(%rbp)
	movq	$4, -24(%rbp)
Ltmp611:
	.file	33 "/rustc/2c8cc343237b8f7d5a3c3703e3a87f2eb2c54a74/library/core/src/char" "methods.rs"
	.loc	33 663 42 is_stmt 1
	leaq	-52(%rbp), %rsi
	movl	$4, %edx
	callq	__ZN4core4char7methods15encode_utf8_raw17h3f34bb59b13882b8E
	movq	-64(%rbp), %rdi
	movq	%rax, %rsi
	movq	%rsi, -16(%rbp)
	movq	%rdx, -8(%rbp)
Ltmp612:
	.loc	23 169 9
	callq	__ZN80_$LT$std..io..Write..write_fmt..Adapter$LT$T$GT$$u20$as$u20$core..fmt..Write$GT$9write_str17h1039ea6a7f8ce7bdE
	.loc	23 170 6
	andb	$1, %al
	movzbl	%al, %eax
	addq	$80, %rsp
	popq	%rbp
	retq
Ltmp613:
Lfunc_end59:
	.cfi_endproc

	.globl	__ZN4core3fmt5Write9write_fmt17h2b2228db15886c70E
	.p2align	4, 0x90
__ZN4core3fmt5Write9write_fmt17h2b2228db15886c70E:
Lfunc_begin60:
	.loc	23 196 0
	.cfi_startproc
	pushq	%rbp
	.cfi_def_cfa_offset 16
	.cfi_offset %rbp, -16
	movq	%rsp, %rbp
	.cfi_def_cfa_register %rbp
	subq	$64, %rsp
	movq	%rdi, -56(%rbp)
Ltmp614:
	.loc	23 197 26 prologue_end
	leaq	-48(%rbp), %rdi
	movl	$48, %edx
	callq	_memcpy
Ltmp615:
	.loc	23 197 9 is_stmt 0
	leaq	-56(%rbp), %rdi
	leaq	l___unnamed_2(%rip), %rsi
	leaq	-48(%rbp), %rdx
	callq	__ZN4core3fmt5write17hfa389e524187f2c6E
	.loc	23 198 6 is_stmt 1
	andb	$1, %al
	movzbl	%al, %eax
	addq	$64, %rsp
	popq	%rbp
	retq
Ltmp616:
Lfunc_end60:
	.cfi_endproc

	.p2align	4, 0x90
__ZN4core3fmt9Arguments6new_v117h9b624b451cc04d58E:
Lfunc_begin61:
	.loc	23 399 0
	.cfi_startproc
	pushq	%rbp
	.cfi_def_cfa_offset 16
	.cfi_offset %rbp, -16
	movq	%rsp, %rbp
	.cfi_def_cfa_register %rbp
	subq	$160, %rsp
	movq	%r8, -152(%rbp)
	movq	%rcx, -144(%rbp)
	movq	%rdx, -136(%rbp)
	movq	%rsi, -128(%rbp)
	movq	%rdi, -120(%rbp)
	movq	%rdi, -112(%rbp)
	movq	%rsi, -32(%rbp)
	movq	%rdx, -24(%rbp)
	movq	%rcx, -16(%rbp)
	movq	%r8, -8(%rbp)
Ltmp617:
	.loc	23 400 12 prologue_end
	cmpq	%r8, %rdx
	jb	LBB61_2
	.loc	23 0 12 is_stmt 0
	movq	-136(%rbp), %rax
	movq	-152(%rbp), %rcx
	.loc	23 400 56
	addq	$1, %rcx
	.loc	23 400 41
	cmpq	%rcx, %rax
	seta	%al
	.loc	23 400 12
	andb	$1, %al
	movb	%al, -97(%rbp)
	jmp	LBB61_3
LBB61_2:
	movb	$1, -97(%rbp)
LBB61_3:
	testb	$1, -97(%rbp)
	jne	LBB61_5
	.loc	23 0 12
	movq	-112(%rbp), %rax
	movq	-120(%rbp), %rcx
	movq	-152(%rbp), %rdx
	movq	-144(%rbp), %rsi
	movq	-136(%rbp), %rdi
	movq	-128(%rbp), %r8
	.loc	23 403 34 is_stmt 1
	movq	$0, -48(%rbp)
	.loc	23 403 9 is_stmt 0
	movq	%r8, 16(%rcx)
	movq	%rdi, 24(%rcx)
	movq	-48(%rbp), %r8
	movq	-40(%rbp), %rdi
	movq	%r8, (%rcx)
	movq	%rdi, 8(%rcx)
	movq	%rsi, 32(%rcx)
	movq	%rdx, 40(%rcx)
	.loc	23 404 6 is_stmt 1
	addq	$160, %rsp
	popq	%rbp
	retq
LBB61_5:
	.loc	23 401 13
	leaq	l___unnamed_18(%rip), %rsi
	leaq	l___unnamed_15(%rip), %rcx
	xorl	%eax, %eax
	movl	%eax, %r8d
	leaq	-96(%rbp), %rdi
	movq	%rdi, -160(%rbp)
	movl	$1, %edx
	callq	__ZN4core3fmt9Arguments6new_v117h9b624b451cc04d58E
	movq	-160(%rbp), %rdi
	leaq	l___unnamed_19(%rip), %rsi
	callq	__ZN4core9panicking9panic_fmt17h9b5d807e24bcaaedE
Ltmp618:
Lfunc_end61:
	.cfi_endproc

	.globl	__ZN4core3mem7replace17h3ea17989035ca7c0E
	.p2align	4, 0x90
__ZN4core3mem7replace17h3ea17989035ca7c0E:
Lfunc_begin62:
	.loc	21 905 0
	.cfi_startproc
	pushq	%rbp
	.cfi_def_cfa_offset 16
	.cfi_offset %rbp, -16
	movq	%rsp, %rbp
	.cfi_def_cfa_register %rbp
	subq	$88, %rsp
	movq	%rdi, -88(%rbp)
	movb	%sil, %al
	movb	%al, -76(%rbp)
	movq	%rdi, -72(%rbp)
	movb	%al, -57(%rbp)
Ltmp619:
	.loc	21 910 32 prologue_end
	movq	%rdi, -56(%rbp)
Ltmp620:
	.loc	5 1157 34
	leaq	-73(%rbp), %rax
	movq	%rax, -48(%rbp)
	.loc	5 1157 9 is_stmt 0
	movb	(%rdi), %al
	movb	%al, -73(%rbp)
	.loc	5 1158 9 is_stmt 1
	movb	-73(%rbp), %al
	movb	%al, -75(%rbp)
	movb	%al, -33(%rbp)
	.loc	5 0 9 is_stmt 0
	movb	-75(%rbp), %al
	movq	-88(%rbp), %rcx
	movb	-76(%rbp), %dl
Ltmp621:
	.loc	27 627 38 is_stmt 1
	movb	%al, -10(%rbp)
Ltmp622:
	.loc	26 89 9
	movb	%al, -9(%rbp)
Ltmp623:
	.loc	21 911 20
	movq	%rcx, -8(%rbp)
	.loc	21 911 26 is_stmt 0
	movb	%dl, -74(%rbp)
Ltmp624:
	.loc	5 1354 9 is_stmt 1
	movb	-74(%rbp), %dl
	movb	%dl, (%rcx)
Ltmp625:
	.loc	21 914 2
	addq	$88, %rsp
	popq	%rbp
	retq
Ltmp626:
Lfunc_end62:
	.cfi_endproc

	.globl	__ZN4core3mem7replace17h773c1c24b3e87d9cE
	.p2align	4, 0x90
__ZN4core3mem7replace17h773c1c24b3e87d9cE:
Lfunc_begin63:
	.loc	21 905 0
	.cfi_startproc
	pushq	%rbp
	.cfi_def_cfa_offset 16
	.cfi_offset %rbp, -16
	movq	%rsp, %rbp
	.cfi_def_cfa_register %rbp
	subq	$88, %rsp
	movq	%rdi, -88(%rbp)
	movb	%sil, %al
	movb	%al, -76(%rbp)
	movq	%rdi, -72(%rbp)
	andb	$1, %al
	movb	%al, -57(%rbp)
Ltmp627:
	.loc	21 910 32 prologue_end
	movq	%rdi, -56(%rbp)
Ltmp628:
	.loc	5 1157 34
	leaq	-73(%rbp), %rax
	movq	%rax, -48(%rbp)
	.loc	5 1157 9 is_stmt 0
	movb	(%rdi), %al
	movb	%al, -73(%rbp)
	.loc	5 1158 9 is_stmt 1
	movb	-73(%rbp), %al
	movb	%al, -75(%rbp)
	movb	%al, -33(%rbp)
	.loc	5 0 9 is_stmt 0
	movb	-75(%rbp), %al
	movq	-88(%rbp), %rcx
	movb	-76(%rbp), %dl
Ltmp629:
	.loc	27 627 38 is_stmt 1
	movb	%al, %sil
	andb	$1, %sil
	movb	%sil, -10(%rbp)
Ltmp630:
	.loc	26 89 9
	movb	%al, %sil
	andb	$1, %sil
	movb	%sil, -9(%rbp)
Ltmp631:
	.loc	21 911 20
	movq	%rcx, -8(%rbp)
	.loc	21 911 26 is_stmt 0
	andb	$1, %dl
	movb	%dl, -74(%rbp)
Ltmp632:
	.loc	5 1354 9 is_stmt 1
	movb	-74(%rbp), %dl
	movb	%dl, (%rcx)
Ltmp633:
	.loc	21 914 2
	andb	$1, %al
	movzbl	%al, %eax
	addq	$88, %rsp
	popq	%rbp
	retq
Ltmp634:
Lfunc_end63:
	.cfi_endproc

	.globl	__ZN4core3mem7replace17h8e2b036526210656E
	.p2align	4, 0x90
__ZN4core3mem7replace17h8e2b036526210656E:
Lfunc_begin64:
	.loc	21 905 0
	.cfi_startproc
	pushq	%rbp
	.cfi_def_cfa_offset 16
	.cfi_offset %rbp, -16
	movq	%rsp, %rbp
	.cfi_def_cfa_register %rbp
	subq	$688, %rsp
	movq	%rdx, -688(%rbp)
Ltmp635:
	movq	%rsi, -680(%rbp)
	movq	%rdi, -672(%rbp)
	movq	%rdi, -664(%rbp)
	movq	%rsi, -48(%rbp)
Ltmp636:
	.loc	21 910 32 prologue_end
	movq	%rsi, -40(%rbp)
Ltmp637:
	.loc	5 1157 34
	leaq	-504(%rbp), %rax
	movq	%rax, -32(%rbp)
	.loc	5 1157 9 is_stmt 0
	leaq	-504(%rbp), %rdi
	movl	$152, %edx
Ltmp638:
	callq	_memcpy
	.loc	5 1158 9 is_stmt 1
	leaq	-352(%rbp), %rdi
	leaq	-504(%rbp), %rsi
	movl	$152, %edx
	callq	_memcpy
Ltmp639:
	.loc	27 627 38
	leaq	-200(%rbp), %rdi
	leaq	-352(%rbp), %rsi
	movl	$152, %edx
	callq	_memcpy
	movq	-672(%rbp), %rdi
Ltmp640:
	.loc	26 89 9
	leaq	-200(%rbp), %rsi
	movl	$152, %edx
	callq	_memcpy
	movq	-688(%rbp), %rsi
	movq	-680(%rbp), %rax
Ltmp641:
	.loc	21 911 20
	movq	%rax, -8(%rbp)
	.loc	21 911 26 is_stmt 0
	leaq	-656(%rbp), %rdi
	movl	$152, %edx
	callq	_memcpy
	movq	-680(%rbp), %rdi
Ltmp642:
	.loc	5 1354 9 is_stmt 1
	leaq	-656(%rbp), %rsi
	movl	$152, %edx
	callq	_memcpy
	movq	-664(%rbp), %rax
Ltmp643:
	.loc	21 914 2
	addq	$688, %rsp
	popq	%rbp
	retq
Ltmp644:
Lfunc_end64:
	.cfi_endproc

	.globl	__ZN4core3mem7replace17h9897a8dc7563111fE
	.p2align	4, 0x90
__ZN4core3mem7replace17h9897a8dc7563111fE:
Lfunc_begin65:
	.loc	21 905 0
	.cfi_startproc
	pushq	%rbp
	.cfi_def_cfa_offset 16
	.cfi_offset %rbp, -16
	movq	%rsp, %rbp
	.cfi_def_cfa_register %rbp
	subq	$120, %rsp
	movq	%rdi, -120(%rbp)
	movq	%rsi, -112(%rbp)
	movq	%rdi, -80(%rbp)
	movq	%rsi, -72(%rbp)
Ltmp645:
	.loc	21 910 32 prologue_end
	movq	%rdi, -64(%rbp)
Ltmp646:
	.loc	5 1157 34
	leaq	-88(%rbp), %rax
	movq	%rax, -56(%rbp)
	.loc	5 1157 9 is_stmt 0
	movq	(%rdi), %rax
	movq	%rax, -88(%rbp)
	.loc	5 1158 9 is_stmt 1
	movq	-88(%rbp), %rax
	movq	%rax, -104(%rbp)
	movq	%rax, -48(%rbp)
	.loc	5 0 9 is_stmt 0
	movq	-104(%rbp), %rax
	movq	-120(%rbp), %rcx
	movq	-112(%rbp), %rdx
Ltmp647:
	.loc	27 627 38 is_stmt 1
	movq	%rax, -24(%rbp)
Ltmp648:
	.loc	26 89 9
	movq	%rax, -16(%rbp)
Ltmp649:
	.loc	21 911 20
	movq	%rcx, -8(%rbp)
	.loc	21 911 26 is_stmt 0
	movq	%rdx, -96(%rbp)
Ltmp650:
	.loc	5 1354 9 is_stmt 1
	movq	-96(%rbp), %rdx
	movq	%rdx, (%rcx)
Ltmp651:
	.loc	21 914 2
	addq	$120, %rsp
	popq	%rbp
	retq
Ltmp652:
Lfunc_end65:
	.cfi_endproc

	.globl	__ZN4core3mem7replace17hb48cacdb1fa187ceE
	.p2align	4, 0x90
__ZN4core3mem7replace17hb48cacdb1fa187ceE:
Lfunc_begin66:
	.loc	21 905 0
	.cfi_startproc
	pushq	%rbp
	.cfi_def_cfa_offset 16
	.cfi_offset %rbp, -16
	movq	%rsp, %rbp
	.cfi_def_cfa_register %rbp
	subq	$120, %rsp
	movq	%rdi, -120(%rbp)
	movq	%rsi, -112(%rbp)
	movq	%rdi, -80(%rbp)
	movq	%rsi, -72(%rbp)
Ltmp653:
	.loc	21 910 32 prologue_end
	movq	%rdi, -64(%rbp)
Ltmp654:
	.loc	5 1157 34
	leaq	-88(%rbp), %rax
	movq	%rax, -56(%rbp)
	.loc	5 1157 9 is_stmt 0
	movq	(%rdi), %rax
	movq	%rax, -88(%rbp)
	.loc	5 1158 9 is_stmt 1
	movq	-88(%rbp), %rax
	movq	%rax, -104(%rbp)
	movq	%rax, -48(%rbp)
	.loc	5 0 9 is_stmt 0
	movq	-104(%rbp), %rax
	movq	-120(%rbp), %rcx
	movq	-112(%rbp), %rdx
Ltmp655:
	.loc	27 627 38 is_stmt 1
	movq	%rax, -24(%rbp)
Ltmp656:
	.loc	26 89 9
	movq	%rax, -16(%rbp)
Ltmp657:
	.loc	21 911 20
	movq	%rcx, -8(%rbp)
	.loc	21 911 26 is_stmt 0
	movq	%rdx, -96(%rbp)
Ltmp658:
	.loc	5 1354 9 is_stmt 1
	movq	-96(%rbp), %rdx
	movq	%rdx, (%rcx)
Ltmp659:
	.loc	21 914 2
	addq	$120, %rsp
	popq	%rbp
	retq
Ltmp660:
Lfunc_end66:
	.cfi_endproc

	.globl	__ZN4core3mem7replace17hcb0ce2d92d687fc5E
	.p2align	4, 0x90
__ZN4core3mem7replace17hcb0ce2d92d687fc5E:
Lfunc_begin67:
	.loc	21 905 0
	.cfi_startproc
	pushq	%rbp
	.cfi_def_cfa_offset 16
	.cfi_offset %rbp, -16
	movq	%rsp, %rbp
	.cfi_def_cfa_register %rbp
	subq	$120, %rsp
	movq	%rdi, -120(%rbp)
	movq	%rsi, -112(%rbp)
	movq	%rdi, -80(%rbp)
	movq	%rsi, -72(%rbp)
Ltmp661:
	.loc	21 910 32 prologue_end
	movq	%rdi, -64(%rbp)
Ltmp662:
	.loc	5 1157 34
	leaq	-88(%rbp), %rax
	movq	%rax, -56(%rbp)
	.loc	5 1157 9 is_stmt 0
	movq	(%rdi), %rax
	movq	%rax, -88(%rbp)
	.loc	5 1158 9 is_stmt 1
	movq	-88(%rbp), %rax
	movq	%rax, -104(%rbp)
	movq	%rax, -48(%rbp)
	.loc	5 0 9 is_stmt 0
	movq	-104(%rbp), %rax
	movq	-120(%rbp), %rcx
	movq	-112(%rbp), %rdx
Ltmp663:
	.loc	27 627 38 is_stmt 1
	movq	%rax, -24(%rbp)
Ltmp664:
	.loc	26 89 9
	movq	%rax, -16(%rbp)
Ltmp665:
	.loc	21 911 20
	movq	%rcx, -8(%rbp)
	.loc	21 911 26 is_stmt 0
	movq	%rdx, -96(%rbp)
Ltmp666:
	.loc	5 1354 9 is_stmt 1
	movq	-96(%rbp), %rdx
	movq	%rdx, (%rcx)
Ltmp667:
	.loc	21 914 2
	addq	$120, %rsp
	popq	%rbp
	retq
Ltmp668:
Lfunc_end67:
	.cfi_endproc

	.globl	__ZN4core3mem7replace17hd879fb06a9f96e6fE
	.p2align	4, 0x90
__ZN4core3mem7replace17hd879fb06a9f96e6fE:
Lfunc_begin68:
	.loc	21 905 0
	.cfi_startproc
	pushq	%rbp
	.cfi_def_cfa_offset 16
	.cfi_offset %rbp, -16
	movq	%rsp, %rbp
	.cfi_def_cfa_register %rbp
	subq	$752, %rsp
	movq	%rdx, -752(%rbp)
Ltmp669:
	movq	%rsi, -744(%rbp)
	movq	%rdi, -736(%rbp)
	movq	%rdi, -728(%rbp)
	movq	%rsi, -48(%rbp)
Ltmp670:
	.loc	21 910 32 prologue_end
	movq	%rsi, -40(%rbp)
Ltmp671:
	.loc	5 1157 34
	leaq	-552(%rbp), %rax
	movq	%rax, -32(%rbp)
	.loc	5 1157 9 is_stmt 0
	leaq	-552(%rbp), %rdi
	movl	$168, %edx
Ltmp672:
	callq	_memcpy
	.loc	5 1158 9 is_stmt 1
	leaq	-384(%rbp), %rdi
	leaq	-552(%rbp), %rsi
	movl	$168, %edx
	callq	_memcpy
Ltmp673:
	.loc	27 627 38
	leaq	-216(%rbp), %rdi
	leaq	-384(%rbp), %rsi
	movl	$168, %edx
	callq	_memcpy
	movq	-736(%rbp), %rdi
Ltmp674:
	.loc	26 89 9
	leaq	-216(%rbp), %rsi
	movl	$168, %edx
	callq	_memcpy
	movq	-752(%rbp), %rsi
	movq	-744(%rbp), %rax
Ltmp675:
	.loc	21 911 20
	movq	%rax, -8(%rbp)
	.loc	21 911 26 is_stmt 0
	leaq	-720(%rbp), %rdi
	movl	$168, %edx
	callq	_memcpy
	movq	-744(%rbp), %rdi
Ltmp676:
	.loc	5 1354 9 is_stmt 1
	leaq	-720(%rbp), %rsi
	movl	$168, %edx
	callq	_memcpy
	movq	-728(%rbp), %rax
Ltmp677:
	.loc	21 914 2
	addq	$752, %rsp
	popq	%rbp
	retq
Ltmp678:
Lfunc_end68:
	.cfi_endproc

	.globl	__ZN4core3mem7replace17hdbb289a0f6c1e898E
	.p2align	4, 0x90
__ZN4core3mem7replace17hdbb289a0f6c1e898E:
Lfunc_begin69:
	.loc	21 905 0
	.cfi_startproc
	pushq	%rbp
	.cfi_def_cfa_offset 16
	.cfi_offset %rbp, -16
	movq	%rsp, %rbp
	.cfi_def_cfa_register %rbp
	subq	$96, %rsp
	movq	%rdi, -96(%rbp)
	movl	%esi, -88(%rbp)
	movq	%rdi, -72(%rbp)
	movl	%esi, -60(%rbp)
Ltmp679:
	.loc	21 910 32 prologue_end
	movq	%rdi, -56(%rbp)
Ltmp680:
	.loc	5 1157 34
	leaq	-76(%rbp), %rax
	movq	%rax, -48(%rbp)
	.loc	5 1157 9 is_stmt 0
	movl	(%rdi), %eax
	movl	%eax, -76(%rbp)
	.loc	5 1158 9 is_stmt 1
	movl	-76(%rbp), %eax
	movl	%eax, -84(%rbp)
	movl	%eax, -36(%rbp)
	.loc	5 0 9 is_stmt 0
	movl	-84(%rbp), %eax
	movq	-96(%rbp), %rcx
	movl	-88(%rbp), %edx
Ltmp681:
	.loc	27 627 38 is_stmt 1
	movl	%eax, -16(%rbp)
Ltmp682:
	.loc	26 89 9
	movl	%eax, -12(%rbp)
Ltmp683:
	.loc	21 911 20
	movq	%rcx, -8(%rbp)
	.loc	21 911 26 is_stmt 0
	movl	%edx, -80(%rbp)
Ltmp684:
	.loc	5 1354 9 is_stmt 1
	movl	-80(%rbp), %edx
	movl	%edx, (%rcx)
Ltmp685:
	.loc	21 914 2
	addq	$96, %rsp
	popq	%rbp
	retq
Ltmp686:
Lfunc_end69:
	.cfi_endproc

	.p2align	4, 0x90
__ZN4core3num23_$LT$impl$u20$usize$GT$11checked_add17h663338913f26a081E:
Lfunc_begin70:
	.loc	30 442 0
	.cfi_startproc
	pushq	%rbp
	.cfi_def_cfa_offset 16
	.cfi_offset %rbp, -16
	movq	%rsp, %rbp
	.cfi_def_cfa_register %rbp
	subq	$120, %rsp
	movq	%rdi, -80(%rbp)
	movq	%rsi, -72(%rbp)
Ltmp687:
	.loc	30 443 26 prologue_end
	movq	%rdi, -64(%rbp)
	.loc	30 443 47 is_stmt 0
	movq	%rsi, -56(%rbp)
Ltmp688:
	.loc	30 1479 26 is_stmt 1
	addq	%rsi, %rdi
	setb	%al
	andb	$1, %al
	movq	%rdi, -48(%rbp)
	movb	%al, -40(%rbp)
	movq	-48(%rbp), %rcx
	movb	-40(%rbp), %al
	.loc	30 1479 18 is_stmt 0
	movq	%rcx, -32(%rbp)
	.loc	30 1479 21
	movb	%al, %dl
	andb	$1, %dl
	movb	%dl, -17(%rbp)
Ltmp689:
	.loc	30 1480 13 is_stmt 1
	movq	%rcx, -96(%rbp)
	andb	$1, %al
	movb	%al, -88(%rbp)
Ltmp690:
	.loc	30 443 18
	movq	-96(%rbp), %rax
	movq	%rax, -120(%rbp)
	movq	%rax, -16(%rbp)
	.loc	30 443 21 is_stmt 0
	movb	-88(%rbp), %al
	movb	%al, %cl
	andb	$1, %cl
	movb	%cl, -2(%rbp)
Ltmp691:
	.loc	30 444 16 is_stmt 1
	andb	$1, %al
	movb	%al, -1(%rbp)
	testb	$1, -1(%rbp)
	jne	LBB70_2
	.loc	30 0 16 is_stmt 0
	movq	-120(%rbp), %rax
	.loc	30 444 42
	movq	%rax, -104(%rbp)
	movq	$1, -112(%rbp)
	.loc	30 444 13
	jmp	LBB70_3
LBB70_2:
	.loc	30 444 30
	movq	$0, -112(%rbp)
Ltmp692:
LBB70_3:
	.loc	30 445 10 is_stmt 1
	movq	-112(%rbp), %rax
	movq	-104(%rbp), %rdx
	addq	$120, %rsp
	popq	%rbp
	retq
Ltmp693:
Lfunc_end70:
	.cfi_endproc

	.p2align	4, 0x90
__ZN4core3num23_$LT$impl$u20$usize$GT$17next_power_of_two17hbe02f225b9c8c6d8E:
Lfunc_begin71:
	.loc	30 2190 0
	.cfi_startproc
	pushq	%rbp
	.cfi_def_cfa_offset 16
	.cfi_offset %rbp, -16
	movq	%rsp, %rbp
	.cfi_def_cfa_register %rbp
	subq	$64, %rsp
	movq	%rdi, -56(%rbp)
	movq	%rdi, -40(%rbp)
Ltmp694:
	.loc	30 2191 13 prologue_end
	movq	%rdi, -32(%rbp)
Ltmp695:
	.loc	30 2159 16
	cmpq	$1, %rdi
	jbe	LBB71_2
	.loc	30 0 16 is_stmt 0
	movq	-56(%rbp), %rax
	.loc	30 2161 21 is_stmt 1
	subq	$1, %rax
	movq	%rax, -24(%rbp)
Ltmp696:
	.loc	30 2166 30
	bsrq	%rax, %rax
	xorq	$63, %rax
	movq	%rax, -16(%rbp)
	movq	-16(%rbp), %rcx
	movq	%rcx, -8(%rbp)
Ltmp697:
	.loc	30 2167 13
	andq	$63, %rcx
	movq	$-1, %rax
	shrq	%cl, %rax
	movq	%rax, -48(%rbp)
Ltmp698:
	.loc	30 2168 10
	jmp	LBB71_3
LBB71_2:
	.loc	30 2159 35
	movq	$0, -48(%rbp)
Ltmp699:
LBB71_3:
	.loc	30 2191 13
	movq	-48(%rbp), %rax
	addq	$1, %rax
	movq	%rax, -64(%rbp)
	setb	%al
	testb	$1, %al
	jne	LBB71_5
	.loc	30 0 13 is_stmt 0
	movq	-64(%rbp), %rax
	.loc	30 2192 10 is_stmt 1
	addq	$64, %rsp
	popq	%rbp
	retq
LBB71_5:
	.loc	30 2191 13
	leaq	_str.0(%rip), %rdi
	leaq	l___unnamed_20(%rip), %rdx
	movl	$28, %esi
	callq	__ZN4core9panicking5panic17hc1bc45270cf64b03E
Ltmp700:
Lfunc_end71:
	.cfi_endproc

	.p2align	4, 0x90
__ZN4core3ops8function6FnOnce9call_once17h1b5a2564e0a52f70E:
Lfunc_begin72:
	.file	34 "/rustc/2c8cc343237b8f7d5a3c3703e3a87f2eb2c54a74/library/core/src/ops" "function.rs"
	.loc	34 250 0
	.cfi_startproc
	pushq	%rbp
	.cfi_def_cfa_offset 16
	.cfi_offset %rbp, -16
	movq	%rsp, %rbp
	.cfi_def_cfa_register %rbp
	subq	$32, %rsp
	movq	%rdi, -24(%rbp)
	movq	%rsi, -16(%rbp)
Ltmp701:
	.loc	34 250 5 prologue_end
	movq	-24(%rbp), %rdi
	movq	-16(%rbp), %rsi
	callq	__ZN4core3cmp5impls50_$LT$impl$u20$core..cmp..Ord$u20$for$u20$usize$GT$3cmp17h99c3826ee83ef112E
	addq	$32, %rsp
	popq	%rbp
	retq
Ltmp702:
Lfunc_end72:
	.cfi_endproc

	.p2align	4, 0x90
__ZN4core3ops8function6FnOnce9call_once17h65a0ccb825063268E:
Lfunc_begin73:
	.loc	34 250 0
	.cfi_startproc
	pushq	%rbp
	.cfi_def_cfa_offset 16
	.cfi_offset %rbp, -16
	movq	%rsp, %rbp
	.cfi_def_cfa_register %rbp
	subq	$32, %rsp
	movq	%rdi, %rax
	movq	%rax, -24(%rbp)
Ltmp703:
	.loc	34 250 5 prologue_end
	callq	__ZN16parking_lot_core9word_lock10ThreadData3new17h0ecd193ce66f2755E
	movq	-24(%rbp), %rax
	addq	$32, %rsp
	popq	%rbp
	retq
Ltmp704:
Lfunc_end73:
	.cfi_endproc

	.p2align	4, 0x90
__ZN4core3ops8function6FnOnce9call_once17h7953043a2d08ccdcE:
Lfunc_begin74:
	.loc	34 250 0
	.cfi_startproc
	.cfi_personality 155, _rust_eh_personality
	.cfi_lsda 16, Lexception16
	pushq	%rbp
	.cfi_def_cfa_offset 16
	.cfi_offset %rbp, -16
	movq	%rsp, %rbp
	.cfi_def_cfa_register %rbp
	subq	$32, %rsp
	movq	%rdi, -32(%rbp)
Ltmp705:
	leaq	-32(%rbp), %rdi
Ltmp708:
	.loc	34 250 5 prologue_end
	callq	__ZN3std6thread5local4fast13destroy_value28_$u7b$$u7b$closure$u7d$$u7d$17h59e6e3148cd79a49E
Ltmp706:
	jmp	LBB74_3
LBB74_1:
	movq	-16(%rbp), %rdi
	callq	__Unwind_Resume
LBB74_2:
Ltmp707:
	.loc	34 0 5 is_stmt 0
	movq	%rax, %rcx
	movl	%edx, %eax
	movq	%rcx, -16(%rbp)
	movl	%eax, -8(%rbp)
	jmp	LBB74_1
LBB74_3:
	.loc	34 250 5
	addq	$32, %rsp
	popq	%rbp
	retq
Ltmp709:
Lfunc_end74:
	.cfi_endproc
	.section	__TEXT,__gcc_except_tab
	.p2align	2
GCC_except_table74:
Lexception16:
	.byte	255
	.byte	255
	.byte	1
	.uleb128 Lcst_end16-Lcst_begin16
Lcst_begin16:
	.uleb128 Ltmp705-Lfunc_begin74
	.uleb128 Ltmp706-Ltmp705
	.uleb128 Ltmp707-Lfunc_begin74
	.byte	0
	.uleb128 Ltmp706-Lfunc_begin74
	.uleb128 Lfunc_end74-Ltmp706
	.byte	0
	.byte	0
Lcst_end16:
	.p2align	2

	.section	__TEXT,__text,regular,pure_instructions
	.p2align	4, 0x90
__ZN4core3ops8function6FnOnce9call_once17hf060b0f4246e9e74E:
Lfunc_begin75:
	.loc	34 250 0 is_stmt 1
	.cfi_startproc
	.cfi_personality 155, _rust_eh_personality
	.cfi_lsda 16, Lexception17
	pushq	%rbp
	.cfi_def_cfa_offset 16
	.cfi_offset %rbp, -16
	movq	%rsp, %rbp
	.cfi_def_cfa_register %rbp
	subq	$32, %rsp
	movq	%rdi, -32(%rbp)
Ltmp710:
	leaq	-32(%rbp), %rdi
Ltmp713:
	.loc	34 250 5 prologue_end
	callq	__ZN3std6thread5local4fast13destroy_value28_$u7b$$u7b$closure$u7d$$u7d$17h93a158300604daf3E
Ltmp711:
	jmp	LBB75_3
LBB75_1:
	movq	-16(%rbp), %rdi
	callq	__Unwind_Resume
LBB75_2:
Ltmp712:
	.loc	34 0 5 is_stmt 0
	movq	%rax, %rcx
	movl	%edx, %eax
	movq	%rcx, -16(%rbp)
	movl	%eax, -8(%rbp)
	jmp	LBB75_1
LBB75_3:
	.loc	34 250 5
	addq	$32, %rsp
	popq	%rbp
	retq
Ltmp714:
Lfunc_end75:
	.cfi_endproc
	.section	__TEXT,__gcc_except_tab
	.p2align	2
GCC_except_table75:
Lexception17:
	.byte	255
	.byte	255
	.byte	1
	.uleb128 Lcst_end17-Lcst_begin17
Lcst_begin17:
	.uleb128 Ltmp710-Lfunc_begin75
	.uleb128 Ltmp711-Ltmp710
	.uleb128 Ltmp712-Lfunc_begin75
	.byte	0
	.uleb128 Ltmp711-Lfunc_begin75
	.uleb128 Lfunc_end75-Ltmp711
	.byte	0
	.byte	0
Lcst_end17:
	.p2align	2

	.section	__TEXT,__text,regular,pure_instructions
	.globl	__ZN4core3ptr101drop_in_place$LT$std..io..error..ErrorData$LT$alloc..boxed..Box$LT$std..io..error..Custom$GT$$GT$$GT$17h2f0ba928399fa567E
	.p2align	4, 0x90
__ZN4core3ptr101drop_in_place$LT$std..io..error..ErrorData$LT$alloc..boxed..Box$LT$std..io..error..Custom$GT$$GT$$GT$17h2f0ba928399fa567E:
Lfunc_begin76:
	.loc	5 490 0 is_stmt 1
	.cfi_startproc
	pushq	%rbp
	.cfi_def_cfa_offset 16
	.cfi_offset %rbp, -16
	movq	%rsp, %rbp
	.cfi_def_cfa_register %rbp
	subq	$16, %rsp
	movq	%rdi, -16(%rbp)
	movq	%rdi, -8(%rbp)
Ltmp715:
	.loc	5 490 1 prologue_end
	movb	(%rdi), %al
	subb	$3, %al
	jb	LBB76_2
	jmp	LBB76_1
LBB76_1:
	.loc	5 0 1 is_stmt 0
	movq	-16(%rbp), %rdi
	.loc	5 490 1
	addq	$8, %rdi
	callq	__ZN4core3ptr68drop_in_place$LT$alloc..boxed..Box$LT$std..io..error..Custom$GT$$GT$17h85acfd584dc311efE
LBB76_2:
	addq	$16, %rsp
	popq	%rbp
	retq
Ltmp716:
Lfunc_end76:
	.cfi_endproc

	.p2align	4, 0x90
__ZN4core3ptr104drop_in_place$LT$$RF$mut$u20$std..io..Write..write_fmt..Adapter$LT$std..sys..unix..stdio..Stderr$GT$$GT$17h7f9f7efbecb80914E:
Lfunc_begin77:
	.loc	5 490 0 is_stmt 1
	.cfi_startproc
	pushq	%rbp
	.cfi_def_cfa_offset 16
	.cfi_offset %rbp, -16
	movq	%rsp, %rbp
	.cfi_def_cfa_register %rbp
	pushq	%rax
	movq	%rdi, -8(%rbp)
Ltmp717:
	.loc	5 490 1 prologue_end
	addq	$8, %rsp
	popq	%rbp
	retq
Ltmp718:
Lfunc_end77:
	.cfi_endproc

	.globl	__ZN4core3ptr106drop_in_place$LT$std..thread..local..lazy..LazyKeyInner$LT$parking_lot_core..word_lock..ThreadData$GT$$GT$17hb9e25d1d76d0d53eE
	.p2align	4, 0x90
__ZN4core3ptr106drop_in_place$LT$std..thread..local..lazy..LazyKeyInner$LT$parking_lot_core..word_lock..ThreadData$GT$$GT$17hb9e25d1d76d0d53eE:
Lfunc_begin78:
	.loc	5 490 0
	.cfi_startproc
	pushq	%rbp
	.cfi_def_cfa_offset 16
	.cfi_offset %rbp, -16
	movq	%rsp, %rbp
	.cfi_def_cfa_register %rbp
	subq	$16, %rsp
	movq	%rdi, -8(%rbp)
Ltmp719:
	.loc	5 490 1 prologue_end
	callq	__ZN4core3ptr118drop_in_place$LT$core..cell..UnsafeCell$LT$core..option..Option$LT$parking_lot_core..word_lock..ThreadData$GT$$GT$$GT$17h48782472d923da8cE
	addq	$16, %rsp
	popq	%rbp
	retq
Ltmp720:
Lfunc_end78:
	.cfi_endproc

	.globl	__ZN4core3ptr108drop_in_place$LT$std..thread..local..lazy..LazyKeyInner$LT$parking_lot_core..parking_lot..ThreadData$GT$$GT$17h2a1c36a7725df9dfE
	.p2align	4, 0x90
__ZN4core3ptr108drop_in_place$LT$std..thread..local..lazy..LazyKeyInner$LT$parking_lot_core..parking_lot..ThreadData$GT$$GT$17h2a1c36a7725df9dfE:
Lfunc_begin79:
	.loc	5 490 0
	.cfi_startproc
	pushq	%rbp
	.cfi_def_cfa_offset 16
	.cfi_offset %rbp, -16
	movq	%rsp, %rbp
	.cfi_def_cfa_register %rbp
	subq	$16, %rsp
	movq	%rdi, -8(%rbp)
Ltmp721:
	.loc	5 490 1 prologue_end
	callq	__ZN4core3ptr120drop_in_place$LT$core..cell..UnsafeCell$LT$core..option..Option$LT$parking_lot_core..parking_lot..ThreadData$GT$$GT$$GT$17hd52364e239bf25afE
	addq	$16, %rsp
	popq	%rbp
	retq
Ltmp722:
Lfunc_end79:
	.cfi_endproc

	.globl	__ZN4core3ptr118drop_in_place$LT$alloc..boxed..Box$LT$dyn$u20$core..error..Error$u2b$core..marker..Send$u2b$core..marker..Sync$GT$$GT$17h61120109ca474420E
	.p2align	4, 0x90
__ZN4core3ptr118drop_in_place$LT$alloc..boxed..Box$LT$dyn$u20$core..error..Error$u2b$core..marker..Send$u2b$core..marker..Sync$GT$$GT$17h61120109ca474420E:
Lfunc_begin80:
	.loc	5 490 0
	.cfi_startproc
	.cfi_personality 155, _rust_eh_personality
	.cfi_lsda 16, Lexception18
	pushq	%rbp
	.cfi_def_cfa_offset 16
	.cfi_offset %rbp, -16
	movq	%rsp, %rbp
	.cfi_def_cfa_register %rbp
	subq	$32, %rsp
	movq	%rdi, %rax
	movq	%rax, -32(%rbp)
	movq	%rax, -24(%rbp)
Ltmp729:
	.loc	5 490 1 prologue_end
	movq	(%rax), %rdi
	movq	8(%rax), %rax
	movq	(%rax), %rax
Ltmp723:
	callq	*%rax
Ltmp724:
	jmp	LBB80_3
LBB80_1:
	.loc	5 0 1 is_stmt 0
	movq	-32(%rbp), %rax
	.loc	5 490 1
	movq	(%rax), %rdi
	movq	8(%rax), %rsi
Ltmp726:
	callq	__ZN5alloc5alloc8box_free17h4511efb7275274fcE
Ltmp727:
	jmp	LBB80_5
LBB80_2:
Ltmp725:
	.loc	5 0 1
	movq	%rax, %rcx
	movl	%edx, %eax
	movq	%rcx, -16(%rbp)
	movl	%eax, -8(%rbp)
	jmp	LBB80_1
LBB80_3:
	movq	-32(%rbp), %rax
	.loc	5 490 1
	movq	(%rax), %rdi
	movq	8(%rax), %rsi
	callq	__ZN5alloc5alloc8box_free17h4511efb7275274fcE
	addq	$32, %rsp
	popq	%rbp
	retq
LBB80_4:
Ltmp728:
	callq	__ZN4core9panicking19panic_cannot_unwind17h1fbca7e1d7f56ae1E
LBB80_5:
	movq	-16(%rbp), %rdi
	callq	__Unwind_Resume
Ltmp730:
Lfunc_end80:
	.cfi_endproc
	.section	__TEXT,__gcc_except_tab
	.p2align	2
GCC_except_table80:
Lexception18:
	.byte	255
	.byte	255
	.byte	1
	.uleb128 Lcst_end18-Lcst_begin18
Lcst_begin18:
	.uleb128 Ltmp723-Lfunc_begin80
	.uleb128 Ltmp724-Ltmp723
	.uleb128 Ltmp725-Lfunc_begin80
	.byte	0
	.uleb128 Ltmp726-Lfunc_begin80
	.uleb128 Ltmp727-Ltmp726
	.uleb128 Ltmp728-Lfunc_begin80
	.byte	0
	.uleb128 Ltmp727-Lfunc_begin80
	.uleb128 Lfunc_end80-Ltmp727
	.byte	0
	.byte	0
Lcst_end18:
	.p2align	2

	.section	__TEXT,__text,regular,pure_instructions
	.globl	__ZN4core3ptr118drop_in_place$LT$core..cell..UnsafeCell$LT$core..option..Option$LT$parking_lot_core..word_lock..ThreadData$GT$$GT$$GT$17h48782472d923da8cE
	.p2align	4, 0x90
__ZN4core3ptr118drop_in_place$LT$core..cell..UnsafeCell$LT$core..option..Option$LT$parking_lot_core..word_lock..ThreadData$GT$$GT$$GT$17h48782472d923da8cE:
Lfunc_begin81:
	.loc	5 490 0 is_stmt 1
	.cfi_startproc
	pushq	%rbp
	.cfi_def_cfa_offset 16
	.cfi_offset %rbp, -16
	movq	%rsp, %rbp
	.cfi_def_cfa_register %rbp
	subq	$16, %rsp
	movq	%rdi, -8(%rbp)
Ltmp731:
	.loc	5 490 1 prologue_end
	callq	__ZN4core3ptr88drop_in_place$LT$core..option..Option$LT$parking_lot_core..word_lock..ThreadData$GT$$GT$17hc7eb406ae45308f3E
	addq	$16, %rsp
	popq	%rbp
	retq
Ltmp732:
Lfunc_end81:
	.cfi_endproc

	.globl	__ZN4core3ptr120drop_in_place$LT$core..cell..UnsafeCell$LT$core..option..Option$LT$parking_lot_core..parking_lot..ThreadData$GT$$GT$$GT$17hd52364e239bf25afE
	.p2align	4, 0x90
__ZN4core3ptr120drop_in_place$LT$core..cell..UnsafeCell$LT$core..option..Option$LT$parking_lot_core..parking_lot..ThreadData$GT$$GT$$GT$17hd52364e239bf25afE:
Lfunc_begin82:
	.loc	5 490 0
	.cfi_startproc
	pushq	%rbp
	.cfi_def_cfa_offset 16
	.cfi_offset %rbp, -16
	movq	%rsp, %rbp
	.cfi_def_cfa_register %rbp
	subq	$16, %rsp
	movq	%rdi, -8(%rbp)
Ltmp733:
	.loc	5 490 1 prologue_end
	callq	__ZN4core3ptr90drop_in_place$LT$core..option..Option$LT$parking_lot_core..parking_lot..ThreadData$GT$$GT$17h90c3f74d9fad5bd6E
	addq	$16, %rsp
	popq	%rbp
	retq
Ltmp734:
Lfunc_end82:
	.cfi_endproc

	.globl	__ZN4core3ptr130drop_in_place$LT$core..result..Result$LT$$LP$$RP$$C$alloc..boxed..Box$LT$dyn$u20$core..any..Any$u2b$core..marker..Send$GT$$GT$$GT$17h879e5276a8c4d378E
	.p2align	4, 0x90
__ZN4core3ptr130drop_in_place$LT$core..result..Result$LT$$LP$$RP$$C$alloc..boxed..Box$LT$dyn$u20$core..any..Any$u2b$core..marker..Send$GT$$GT$$GT$17h879e5276a8c4d378E:
Lfunc_begin83:
	.loc	5 490 0
	.cfi_startproc
	pushq	%rbp
	.cfi_def_cfa_offset 16
	.cfi_offset %rbp, -16
	movq	%rsp, %rbp
	.cfi_def_cfa_register %rbp
	subq	$16, %rsp
	movq	%rdi, -16(%rbp)
	movq	%rdi, -8(%rbp)
Ltmp735:
	.loc	5 490 1 prologue_end
	movq	(%rdi), %rdx
	movl	$1, %eax
	xorl	%ecx, %ecx
	cmpq	$0, %rdx
	cmoveq	%rcx, %rax
	cmpq	$0, %rax
	jne	LBB83_2
LBB83_1:
	addq	$16, %rsp
	popq	%rbp
	retq
LBB83_2:
	.loc	5 0 1 is_stmt 0
	movq	-16(%rbp), %rdi
	.loc	5 490 1
	callq	__ZN4core3ptr91drop_in_place$LT$alloc..boxed..Box$LT$dyn$u20$core..any..Any$u2b$core..marker..Send$GT$$GT$17hb41ccb337d1b184fE
	jmp	LBB83_1
Ltmp736:
Lfunc_end83:
	.cfi_endproc

	.globl	__ZN4core3ptr137drop_in_place$LT$alloc..boxed..Box$LT$$u5b$core..mem..maybe_uninit..MaybeUninit$LT$parking_lot_core..parking_lot..Bucket$GT$$u5d$$GT$$GT$17h7348d603af752949E
	.p2align	4, 0x90
__ZN4core3ptr137drop_in_place$LT$alloc..boxed..Box$LT$$u5b$core..mem..maybe_uninit..MaybeUninit$LT$parking_lot_core..parking_lot..Bucket$GT$$u5d$$GT$$GT$17h7348d603af752949E:
Lfunc_begin84:
	.loc	5 490 0 is_stmt 1
	.cfi_startproc
	pushq	%rbp
	.cfi_def_cfa_offset 16
	.cfi_offset %rbp, -16
	movq	%rsp, %rbp
	.cfi_def_cfa_register %rbp
	subq	$32, %rsp
	movq	%rdi, -32(%rbp)
	movq	%rdi, -24(%rbp)
	movq	-32(%rbp), %rax
Ltmp737:
	.loc	5 490 1 prologue_end
	movq	(%rax), %rdi
	movq	8(%rax), %rsi
	callq	__ZN5alloc5alloc8box_free17hb85a0e8598de3c46E
	addq	$32, %rsp
	popq	%rbp
	retq
Ltmp738:
Lfunc_end84:
	.cfi_endproc

	.p2align	4, 0x90
__ZN4core3ptr28drop_in_place$LT$$RF$i32$GT$17hc242ae490dd87a59E:
Lfunc_begin85:
	.loc	5 490 0
	.cfi_startproc
	pushq	%rbp
	.cfi_def_cfa_offset 16
	.cfi_offset %rbp, -16
	movq	%rsp, %rbp
	.cfi_def_cfa_register %rbp
	pushq	%rax
	movq	%rdi, -8(%rbp)
Ltmp739:
	.loc	5 490 1 prologue_end
	addq	$8, %rsp
	popq	%rbp
	retq
Ltmp740:
Lfunc_end85:
	.cfi_endproc

	.p2align	4, 0x90
__ZN4core3ptr29drop_in_place$LT$$RF$bool$GT$17hcf05a86a7f06e2e8E:
Lfunc_begin86:
	.loc	5 490 0
	.cfi_startproc
	pushq	%rbp
	.cfi_def_cfa_offset 16
	.cfi_offset %rbp, -16
	movq	%rsp, %rbp
	.cfi_def_cfa_register %rbp
	pushq	%rax
	movq	%rdi, -8(%rbp)
Ltmp741:
	.loc	5 490 1 prologue_end
	addq	$8, %rsp
	popq	%rbp
	retq
Ltmp742:
Lfunc_end86:
	.cfi_endproc

	.p2align	4, 0x90
__ZN4core3ptr30drop_in_place$LT$$RF$usize$GT$17h9cfa2ba6103d1b81E:
Lfunc_begin87:
	.loc	5 490 0
	.cfi_startproc
	pushq	%rbp
	.cfi_def_cfa_offset 16
	.cfi_offset %rbp, -16
	movq	%rsp, %rbp
	.cfi_def_cfa_register %rbp
	pushq	%rax
	movq	%rdi, -8(%rbp)
Ltmp743:
	.loc	5 490 1 prologue_end
	addq	$8, %rsp
	popq	%rbp
	retq
Ltmp744:
Lfunc_end87:
	.cfi_endproc

	.p2align	4, 0x90
__ZN4core3ptr33drop_in_place$LT$$RF$$LP$$RP$$GT$17h99a40a568332cb5eE:
Lfunc_begin88:
	.loc	5 490 0
	.cfi_startproc
	pushq	%rbp
	.cfi_def_cfa_offset 16
	.cfi_offset %rbp, -16
	movq	%rsp, %rbp
	.cfi_def_cfa_register %rbp
	pushq	%rax
	movq	%rdi, -8(%rbp)
Ltmp745:
	.loc	5 490 1 prologue_end
	addq	$8, %rsp
	popq	%rbp
	retq
Ltmp746:
Lfunc_end88:
	.cfi_endproc

	.globl	__ZN4core3ptr42drop_in_place$LT$std..io..error..Error$GT$17ha569f81c3d05b6e2E
	.p2align	4, 0x90
__ZN4core3ptr42drop_in_place$LT$std..io..error..Error$GT$17ha569f81c3d05b6e2E:
Lfunc_begin89:
	.loc	5 490 0
	.cfi_startproc
	pushq	%rbp
	.cfi_def_cfa_offset 16
	.cfi_offset %rbp, -16
	movq	%rsp, %rbp
	.cfi_def_cfa_register %rbp
	subq	$16, %rsp
	movq	%rdi, -8(%rbp)
Ltmp747:
	.loc	5 490 1 prologue_end
	callq	__ZN4core3ptr57drop_in_place$LT$std..io..error..repr_bitpacked..Repr$GT$17h4cd556b9ef2e1defE
	addq	$16, %rsp
	popq	%rbp
	retq
Ltmp748:
Lfunc_end89:
	.cfi_endproc

	.globl	__ZN4core3ptr43drop_in_place$LT$std..io..error..Custom$GT$17hd61755fe8326537bE
	.p2align	4, 0x90
__ZN4core3ptr43drop_in_place$LT$std..io..error..Custom$GT$17hd61755fe8326537bE:
Lfunc_begin90:
	.loc	5 490 0
	.cfi_startproc
	pushq	%rbp
	.cfi_def_cfa_offset 16
	.cfi_offset %rbp, -16
	movq	%rsp, %rbp
	.cfi_def_cfa_register %rbp
	subq	$16, %rsp
	movq	%rdi, -8(%rbp)
Ltmp749:
	.loc	5 490 1 prologue_end
	callq	__ZN4core3ptr118drop_in_place$LT$alloc..boxed..Box$LT$dyn$u20$core..error..Error$u2b$core..marker..Send$u2b$core..marker..Sync$GT$$GT$17h61120109ca474420E
	addq	$16, %rsp
	popq	%rbp
	retq
Ltmp750:
Lfunc_end90:
	.cfi_endproc

	.globl	__ZN4core3ptr57drop_in_place$LT$std..io..error..repr_bitpacked..Repr$GT$17h4cd556b9ef2e1defE
	.p2align	4, 0x90
__ZN4core3ptr57drop_in_place$LT$std..io..error..repr_bitpacked..Repr$GT$17h4cd556b9ef2e1defE:
Lfunc_begin91:
	.loc	5 490 0
	.cfi_startproc
	pushq	%rbp
	.cfi_def_cfa_offset 16
	.cfi_offset %rbp, -16
	movq	%rsp, %rbp
	.cfi_def_cfa_register %rbp
	subq	$16, %rsp
	movq	%rdi, -8(%rbp)
Ltmp751:
	.loc	5 490 1 prologue_end
	callq	__ZN78_$LT$std..io..error..repr_bitpacked..Repr$u20$as$u20$core..ops..drop..Drop$GT$4drop17he190c63ce1e10e0fE
	addq	$16, %rsp
	popq	%rbp
	retq
Ltmp752:
Lfunc_end91:
	.cfi_endproc

	.globl	__ZN4core3ptr60drop_in_place$LT$parking_lot_core..word_lock..ThreadData$GT$17h10c5d316a9752552E
	.p2align	4, 0x90
__ZN4core3ptr60drop_in_place$LT$parking_lot_core..word_lock..ThreadData$GT$17h10c5d316a9752552E:
Lfunc_begin92:
	.loc	5 490 0
	.cfi_startproc
	pushq	%rbp
	.cfi_def_cfa_offset 16
	.cfi_offset %rbp, -16
	movq	%rsp, %rbp
	.cfi_def_cfa_register %rbp
	subq	$16, %rsp
	movq	%rdi, -8(%rbp)
Ltmp753:
	.loc	5 490 1 prologue_end
	callq	__ZN4core3ptr71drop_in_place$LT$parking_lot_core..thread_parker..imp..ThreadParker$GT$17h16f6c68f16647291E
	addq	$16, %rsp
	popq	%rbp
	retq
Ltmp754:
Lfunc_end92:
	.cfi_endproc

	.globl	__ZN4core3ptr61drop_in_place$LT$parking_lot_core..parking_lot..HashTable$GT$17hd3b9c79369fd5e59E
	.p2align	4, 0x90
__ZN4core3ptr61drop_in_place$LT$parking_lot_core..parking_lot..HashTable$GT$17hd3b9c79369fd5e59E:
Lfunc_begin93:
	.loc	5 490 0
	.cfi_startproc
	pushq	%rbp
	.cfi_def_cfa_offset 16
	.cfi_offset %rbp, -16
	movq	%rsp, %rbp
	.cfi_def_cfa_register %rbp
	subq	$16, %rsp
	movq	%rdi, -8(%rbp)
Ltmp755:
	.loc	5 490 1 prologue_end
	callq	__ZN4core3ptr93drop_in_place$LT$alloc..boxed..Box$LT$$u5b$parking_lot_core..parking_lot..Bucket$u5d$$GT$$GT$17h75b49ada151f307cE
	addq	$16, %rsp
	popq	%rbp
	retq
Ltmp756:
Lfunc_end93:
	.cfi_endproc

	.globl	__ZN4core3ptr62drop_in_place$LT$parking_lot_core..parking_lot..ThreadData$GT$17h3277ee48861f4467E
	.p2align	4, 0x90
__ZN4core3ptr62drop_in_place$LT$parking_lot_core..parking_lot..ThreadData$GT$17h3277ee48861f4467E:
Lfunc_begin94:
	.loc	5 490 0
	.cfi_startproc
	.cfi_personality 155, _rust_eh_personality
	.cfi_lsda 16, Lexception19
	pushq	%rbp
	.cfi_def_cfa_offset 16
	.cfi_offset %rbp, -16
	movq	%rsp, %rbp
	.cfi_def_cfa_register %rbp
	subq	$32, %rsp
	movq	%rdi, -32(%rbp)
	movq	%rdi, -24(%rbp)
Ltmp757:
Ltmp763:
	.loc	5 490 1 prologue_end
	callq	__ZN83_$LT$parking_lot_core..parking_lot..ThreadData$u20$as$u20$core..ops..drop..Drop$GT$4drop17hb8fd88368380af63E
Ltmp758:
	jmp	LBB94_3
LBB94_1:
Ltmp760:
	.loc	5 0 1 is_stmt 0
	movq	-32(%rbp), %rdi
	.loc	5 490 1
	callq	__ZN4core3ptr71drop_in_place$LT$parking_lot_core..thread_parker..imp..ThreadParker$GT$17h16f6c68f16647291E
Ltmp761:
	jmp	LBB94_5
LBB94_2:
Ltmp759:
	.loc	5 0 1
	movq	%rax, %rcx
	movl	%edx, %eax
	movq	%rcx, -16(%rbp)
	movl	%eax, -8(%rbp)
	jmp	LBB94_1
LBB94_3:
	movq	-32(%rbp), %rdi
	.loc	5 490 1
	callq	__ZN4core3ptr71drop_in_place$LT$parking_lot_core..thread_parker..imp..ThreadParker$GT$17h16f6c68f16647291E
	addq	$32, %rsp
	popq	%rbp
	retq
LBB94_4:
Ltmp762:
	callq	__ZN4core9panicking19panic_cannot_unwind17h1fbca7e1d7f56ae1E
LBB94_5:
	movq	-16(%rbp), %rdi
	callq	__Unwind_Resume
Ltmp764:
Lfunc_end94:
	.cfi_endproc
	.section	__TEXT,__gcc_except_tab
	.p2align	2
GCC_except_table94:
Lexception19:
	.byte	255
	.byte	255
	.byte	1
	.uleb128 Lcst_end19-Lcst_begin19
Lcst_begin19:
	.uleb128 Ltmp757-Lfunc_begin94
	.uleb128 Ltmp758-Ltmp757
	.uleb128 Ltmp759-Lfunc_begin94
	.byte	0
	.uleb128 Ltmp760-Lfunc_begin94
	.uleb128 Ltmp761-Ltmp760
	.uleb128 Ltmp762-Lfunc_begin94
	.byte	0
	.uleb128 Ltmp761-Lfunc_begin94
	.uleb128 Lfunc_end94-Ltmp761
	.byte	0
	.byte	0
Lcst_end19:
	.p2align	2

	.section	__TEXT,__text,regular,pure_instructions
	.globl	__ZN4core3ptr66drop_in_place$LT$dyn$u20$core..any..Any$u2b$core..marker..Send$GT$17h239c496566f7a476E
	.p2align	4, 0x90
__ZN4core3ptr66drop_in_place$LT$dyn$u20$core..any..Any$u2b$core..marker..Send$GT$17h239c496566f7a476E:
Lfunc_begin95:
	.loc	5 490 0 is_stmt 1
	.cfi_startproc
	pushq	%rbp
	.cfi_def_cfa_offset 16
	.cfi_offset %rbp, -16
	movq	%rsp, %rbp
	.cfi_def_cfa_register %rbp
	subq	$16, %rsp
	movq	%rdi, -16(%rbp)
	movq	%rsi, -8(%rbp)
Ltmp765:
	.loc	5 490 1 prologue_end
	callq	*(%rsi)
	addq	$16, %rsp
	popq	%rbp
	retq
Ltmp766:
Lfunc_end95:
	.cfi_endproc

	.p2align	4, 0x90
__ZN4core3ptr67drop_in_place$LT$$RF$parking_lot_core..parking_lot..UnparkToken$GT$17hb29ffba16ff34127E:
Lfunc_begin96:
	.loc	5 490 0
	.cfi_startproc
	pushq	%rbp
	.cfi_def_cfa_offset 16
	.cfi_offset %rbp, -16
	movq	%rsp, %rbp
	.cfi_def_cfa_register %rbp
	pushq	%rax
	movq	%rdi, -8(%rbp)
Ltmp767:
	.loc	5 490 1 prologue_end
	addq	$8, %rsp
	popq	%rbp
	retq
Ltmp768:
Lfunc_end96:
	.cfi_endproc

	.globl	__ZN4core3ptr68drop_in_place$LT$alloc..boxed..Box$LT$std..io..error..Custom$GT$$GT$17h85acfd584dc311efE
	.p2align	4, 0x90
__ZN4core3ptr68drop_in_place$LT$alloc..boxed..Box$LT$std..io..error..Custom$GT$$GT$17h85acfd584dc311efE:
Lfunc_begin97:
	.loc	5 490 0
	.cfi_startproc
	.cfi_personality 155, _rust_eh_personality
	.cfi_lsda 16, Lexception20
	pushq	%rbp
	.cfi_def_cfa_offset 16
	.cfi_offset %rbp, -16
	movq	%rsp, %rbp
	.cfi_def_cfa_register %rbp
	subq	$32, %rsp
	movq	%rdi, -32(%rbp)
	movq	%rdi, -24(%rbp)
Ltmp775:
	.loc	5 490 1 prologue_end
	movq	(%rdi), %rdi
Ltmp769:
	callq	__ZN4core3ptr43drop_in_place$LT$std..io..error..Custom$GT$17hd61755fe8326537bE
Ltmp770:
	jmp	LBB97_3
LBB97_1:
	.loc	5 0 1 is_stmt 0
	movq	-32(%rbp), %rax
	.loc	5 490 1
	movq	(%rax), %rdi
Ltmp772:
	callq	__ZN5alloc5alloc8box_free17ha0d9f65fe290d313E
Ltmp773:
	jmp	LBB97_5
LBB97_2:
Ltmp771:
	.loc	5 0 1
	movq	%rax, %rcx
	movl	%edx, %eax
	movq	%rcx, -16(%rbp)
	movl	%eax, -8(%rbp)
	jmp	LBB97_1
LBB97_3:
	movq	-32(%rbp), %rax
	.loc	5 490 1
	movq	(%rax), %rdi
	callq	__ZN5alloc5alloc8box_free17ha0d9f65fe290d313E
	addq	$32, %rsp
	popq	%rbp
	retq
LBB97_4:
Ltmp774:
	callq	__ZN4core9panicking19panic_cannot_unwind17h1fbca7e1d7f56ae1E
LBB97_5:
	movq	-16(%rbp), %rdi
	callq	__Unwind_Resume
Ltmp776:
Lfunc_end97:
	.cfi_endproc
	.section	__TEXT,__gcc_except_tab
	.p2align	2
GCC_except_table97:
Lexception20:
	.byte	255
	.byte	255
	.byte	1
	.uleb128 Lcst_end20-Lcst_begin20
Lcst_begin20:
	.uleb128 Ltmp769-Lfunc_begin97
	.uleb128 Ltmp770-Ltmp769
	.uleb128 Ltmp771-Lfunc_begin97
	.byte	0
	.uleb128 Ltmp772-Lfunc_begin97
	.uleb128 Ltmp773-Ltmp772
	.uleb128 Ltmp774-Lfunc_begin97
	.byte	0
	.uleb128 Ltmp773-Lfunc_begin97
	.uleb128 Lfunc_end97-Ltmp773
	.byte	0
	.byte	0
Lcst_end20:
	.p2align	2

	.section	__TEXT,__text,regular,pure_instructions
	.globl	__ZN4core3ptr71drop_in_place$LT$parking_lot_core..thread_parker..imp..ThreadParker$GT$17h16f6c68f16647291E
	.p2align	4, 0x90
__ZN4core3ptr71drop_in_place$LT$parking_lot_core..thread_parker..imp..ThreadParker$GT$17h16f6c68f16647291E:
Lfunc_begin98:
	.loc	5 490 0 is_stmt 1
	.cfi_startproc
	pushq	%rbp
	.cfi_def_cfa_offset 16
	.cfi_offset %rbp, -16
	movq	%rsp, %rbp
	.cfi_def_cfa_register %rbp
	subq	$16, %rsp
	movq	%rdi, -8(%rbp)
Ltmp777:
	.loc	5 490 1 prologue_end
	callq	__ZN92_$LT$parking_lot_core..thread_parker..imp..ThreadParker$u20$as$u20$core..ops..drop..Drop$GT$4drop17h4a3e420d9bc2c5d4E
	addq	$16, %rsp
	popq	%rbp
	retq
Ltmp778:
Lfunc_end98:
	.cfi_endproc

	.globl	__ZN4core3ptr7mut_ptr31_$LT$impl$u20$$BP$mut$u20$T$GT$7is_null17h5d8de0302377e1deE
	.p2align	4, 0x90
__ZN4core3ptr7mut_ptr31_$LT$impl$u20$$BP$mut$u20$T$GT$7is_null17h5d8de0302377e1deE:
Lfunc_begin99:
	.loc	7 35 0
	.cfi_startproc
	pushq	%rbp
	.cfi_def_cfa_offset 16
	.cfi_offset %rbp, -16
	movq	%rsp, %rbp
	.cfi_def_cfa_register %rbp
	subq	$48, %rsp
	movq	%rdi, -40(%rbp)
Ltmp779:
	.loc	7 52 36 prologue_end
	movq	%rdi, -48(%rbp)
	.loc	7 52 18 is_stmt 0
	movq	-48(%rbp), %rax
	movq	%rax, -32(%rbp)
Ltmp780:
	.loc	7 38 13 is_stmt 1
	movq	%rax, -24(%rbp)
Ltmp781:
	.loc	7 215 33
	movq	%rax, -16(%rbp)
	.loc	7 215 18 is_stmt 0
	movq	%rax, -8(%rbp)
Ltmp782:
	.loc	7 38 13 is_stmt 1
	cmpq	$0, -8(%rbp)
	sete	%al
Ltmp783:
	.loc	7 53 6
	andb	$1, %al
	movzbl	%al, %eax
	addq	$48, %rsp
	popq	%rbp
	retq
Ltmp784:
Lfunc_end99:
	.cfi_endproc

	.globl	__ZN4core3ptr81drop_in_place$LT$alloc..vec..Vec$LT$parking_lot_core..parking_lot..Bucket$GT$$GT$17h4d33e5be3cf23673E
	.p2align	4, 0x90
__ZN4core3ptr81drop_in_place$LT$alloc..vec..Vec$LT$parking_lot_core..parking_lot..Bucket$GT$$GT$17h4d33e5be3cf23673E:
Lfunc_begin100:
	.loc	5 490 0
	.cfi_startproc
	.cfi_personality 155, _rust_eh_personality
	.cfi_lsda 16, Lexception21
	pushq	%rbp
	.cfi_def_cfa_offset 16
	.cfi_offset %rbp, -16
	movq	%rsp, %rbp
	.cfi_def_cfa_register %rbp
	subq	$32, %rsp
	movq	%rdi, -32(%rbp)
	movq	%rdi, -24(%rbp)
Ltmp785:
Ltmp791:
	.loc	5 490 1 prologue_end
	callq	__ZN70_$LT$alloc..vec..Vec$LT$T$C$A$GT$$u20$as$u20$core..ops..drop..Drop$GT$4drop17h7a7af845cf8e9019E
Ltmp786:
	jmp	LBB100_3
LBB100_1:
Ltmp788:
	.loc	5 0 1 is_stmt 0
	movq	-32(%rbp), %rdi
	.loc	5 490 1
	callq	__ZN4core3ptr88drop_in_place$LT$alloc..raw_vec..RawVec$LT$parking_lot_core..parking_lot..Bucket$GT$$GT$17hd68b5b324f361c08E
Ltmp789:
	jmp	LBB100_5
LBB100_2:
Ltmp787:
	.loc	5 0 1
	movq	%rax, %rcx
	movl	%edx, %eax
	movq	%rcx, -16(%rbp)
	movl	%eax, -8(%rbp)
	jmp	LBB100_1
LBB100_3:
	movq	-32(%rbp), %rdi
	.loc	5 490 1
	callq	__ZN4core3ptr88drop_in_place$LT$alloc..raw_vec..RawVec$LT$parking_lot_core..parking_lot..Bucket$GT$$GT$17hd68b5b324f361c08E
	addq	$32, %rsp
	popq	%rbp
	retq
LBB100_4:
Ltmp790:
	callq	__ZN4core9panicking19panic_cannot_unwind17h1fbca7e1d7f56ae1E
LBB100_5:
	movq	-16(%rbp), %rdi
	callq	__Unwind_Resume
Ltmp792:
Lfunc_end100:
	.cfi_endproc
	.section	__TEXT,__gcc_except_tab
	.p2align	2
GCC_except_table100:
Lexception21:
	.byte	255
	.byte	255
	.byte	1
	.uleb128 Lcst_end21-Lcst_begin21
Lcst_begin21:
	.uleb128 Ltmp785-Lfunc_begin100
	.uleb128 Ltmp786-Ltmp785
	.uleb128 Ltmp787-Lfunc_begin100
	.byte	0
	.uleb128 Ltmp788-Lfunc_begin100
	.uleb128 Ltmp789-Ltmp788
	.uleb128 Ltmp790-Lfunc_begin100
	.byte	0
	.uleb128 Ltmp789-Lfunc_begin100
	.uleb128 Lfunc_end100-Ltmp789
	.byte	0
	.byte	0
Lcst_end21:
	.p2align	2

	.section	__TEXT,__text,regular,pure_instructions
	.globl	__ZN4core3ptr81drop_in_place$LT$core..result..Result$LT$$LP$$RP$$C$std..io..error..Error$GT$$GT$17h63dd8221c81a39d1E
	.p2align	4, 0x90
__ZN4core3ptr81drop_in_place$LT$core..result..Result$LT$$LP$$RP$$C$std..io..error..Error$GT$$GT$17h63dd8221c81a39d1E:
Lfunc_begin101:
	.loc	5 490 0 is_stmt 1
	.cfi_startproc
	pushq	%rbp
	.cfi_def_cfa_offset 16
	.cfi_offset %rbp, -16
	movq	%rsp, %rbp
	.cfi_def_cfa_register %rbp
	subq	$16, %rsp
	movq	%rdi, -16(%rbp)
	movq	%rdi, -8(%rbp)
Ltmp793:
	.loc	5 490 1 prologue_end
	movq	(%rdi), %rdx
	movl	$1, %eax
	xorl	%ecx, %ecx
	cmpq	$0, %rdx
	cmoveq	%rcx, %rax
	cmpq	$0, %rax
	jne	LBB101_2
LBB101_1:
	addq	$16, %rsp
	popq	%rbp
	retq
LBB101_2:
	.loc	5 0 1 is_stmt 0
	movq	-16(%rbp), %rdi
	.loc	5 490 1
	callq	__ZN4core3ptr42drop_in_place$LT$std..io..error..Error$GT$17ha569f81c3d05b6e2E
	jmp	LBB101_1
Ltmp794:
Lfunc_end101:
	.cfi_endproc

	.globl	__ZN4core3ptr86drop_in_place$LT$alloc..boxed..Box$LT$parking_lot_core..parking_lot..HashTable$GT$$GT$17hd938ab09e81c877eE
	.p2align	4, 0x90
__ZN4core3ptr86drop_in_place$LT$alloc..boxed..Box$LT$parking_lot_core..parking_lot..HashTable$GT$$GT$17hd938ab09e81c877eE:
Lfunc_begin102:
	.loc	5 490 0 is_stmt 1
	.cfi_startproc
	.cfi_personality 155, _rust_eh_personality
	.cfi_lsda 16, Lexception22
	pushq	%rbp
	.cfi_def_cfa_offset 16
	.cfi_offset %rbp, -16
	movq	%rsp, %rbp
	.cfi_def_cfa_register %rbp
	subq	$32, %rsp
	movq	%rdi, -32(%rbp)
	movq	%rdi, -24(%rbp)
Ltmp801:
	.loc	5 490 1 prologue_end
	movq	(%rdi), %rdi
Ltmp795:
	callq	__ZN4core3ptr61drop_in_place$LT$parking_lot_core..parking_lot..HashTable$GT$17hd3b9c79369fd5e59E
Ltmp796:
	jmp	LBB102_3
LBB102_1:
	.loc	5 0 1 is_stmt 0
	movq	-32(%rbp), %rax
	.loc	5 490 1
	movq	(%rax), %rdi
Ltmp798:
	callq	__ZN5alloc5alloc8box_free17h6a4ff1f03209da48E
Ltmp799:
	jmp	LBB102_5
LBB102_2:
Ltmp797:
	.loc	5 0 1
	movq	%rax, %rcx
	movl	%edx, %eax
	movq	%rcx, -16(%rbp)
	movl	%eax, -8(%rbp)
	jmp	LBB102_1
LBB102_3:
	movq	-32(%rbp), %rax
	.loc	5 490 1
	movq	(%rax), %rdi
	callq	__ZN5alloc5alloc8box_free17h6a4ff1f03209da48E
	addq	$32, %rsp
	popq	%rbp
	retq
LBB102_4:
Ltmp800:
	callq	__ZN4core9panicking19panic_cannot_unwind17h1fbca7e1d7f56ae1E
LBB102_5:
	movq	-16(%rbp), %rdi
	callq	__Unwind_Resume
Ltmp802:
Lfunc_end102:
	.cfi_endproc
	.section	__TEXT,__gcc_except_tab
	.p2align	2
GCC_except_table102:
Lexception22:
	.byte	255
	.byte	255
	.byte	1
	.uleb128 Lcst_end22-Lcst_begin22
Lcst_begin22:
	.uleb128 Ltmp795-Lfunc_begin102
	.uleb128 Ltmp796-Ltmp795
	.uleb128 Ltmp797-Lfunc_begin102
	.byte	0
	.uleb128 Ltmp798-Lfunc_begin102
	.uleb128 Ltmp799-Ltmp798
	.uleb128 Ltmp800-Lfunc_begin102
	.byte	0
	.uleb128 Ltmp799-Lfunc_begin102
	.uleb128 Lfunc_end102-Ltmp799
	.byte	0
	.byte	0
Lcst_end22:
	.p2align	2

	.section	__TEXT,__text,regular,pure_instructions
	.globl	__ZN4core3ptr88drop_in_place$LT$alloc..raw_vec..RawVec$LT$parking_lot_core..parking_lot..Bucket$GT$$GT$17hd68b5b324f361c08E
	.p2align	4, 0x90
__ZN4core3ptr88drop_in_place$LT$alloc..raw_vec..RawVec$LT$parking_lot_core..parking_lot..Bucket$GT$$GT$17hd68b5b324f361c08E:
Lfunc_begin103:
	.loc	5 490 0 is_stmt 1
	.cfi_startproc
	pushq	%rbp
	.cfi_def_cfa_offset 16
	.cfi_offset %rbp, -16
	movq	%rsp, %rbp
	.cfi_def_cfa_register %rbp
	subq	$16, %rsp
	movq	%rdi, -8(%rbp)
Ltmp803:
	.loc	5 490 1 prologue_end
	callq	__ZN77_$LT$alloc..raw_vec..RawVec$LT$T$C$A$GT$$u20$as$u20$core..ops..drop..Drop$GT$4drop17h7e738cfb43cdc186E
	addq	$16, %rsp
	popq	%rbp
	retq
Ltmp804:
Lfunc_end103:
	.cfi_endproc

	.globl	__ZN4core3ptr88drop_in_place$LT$core..option..Option$LT$parking_lot_core..word_lock..ThreadData$GT$$GT$17hc7eb406ae45308f3E
	.p2align	4, 0x90
__ZN4core3ptr88drop_in_place$LT$core..option..Option$LT$parking_lot_core..word_lock..ThreadData$GT$$GT$17hc7eb406ae45308f3E:
Lfunc_begin104:
	.loc	5 490 0
	.cfi_startproc
	pushq	%rbp
	.cfi_def_cfa_offset 16
	.cfi_offset %rbp, -16
	movq	%rsp, %rbp
	.cfi_def_cfa_register %rbp
	subq	$16, %rsp
	movq	%rdi, -16(%rbp)
	movq	%rdi, -8(%rbp)
Ltmp805:
	.loc	5 490 1 prologue_end
	cmpq	$0, (%rdi)
	jne	LBB104_2
LBB104_1:
	addq	$16, %rsp
	popq	%rbp
	retq
LBB104_2:
	.loc	5 0 1 is_stmt 0
	movq	-16(%rbp), %rdi
	.loc	5 490 1
	addq	$8, %rdi
	callq	__ZN4core3ptr60drop_in_place$LT$parking_lot_core..word_lock..ThreadData$GT$17h10c5d316a9752552E
	jmp	LBB104_1
Ltmp806:
Lfunc_end104:
	.cfi_endproc

	.globl	__ZN4core3ptr8non_null16NonNull$LT$T$GT$3new17h6b85f8b4e6bb4f47E
	.p2align	4, 0x90
__ZN4core3ptr8non_null16NonNull$LT$T$GT$3new17h6b85f8b4e6bb4f47E:
Lfunc_begin105:
	.loc	9 222 0 is_stmt 1
	.cfi_startproc
	pushq	%rbp
	.cfi_def_cfa_offset 16
	.cfi_offset %rbp, -16
	movq	%rsp, %rbp
	.cfi_def_cfa_register %rbp
	subq	$88, %rsp
	movq	%rdi, -88(%rbp)
	movq	%rdi, -56(%rbp)
Ltmp807:
	.loc	9 223 13 prologue_end
	movq	%rdi, -48(%rbp)
Ltmp808:
	.loc	7 52 36
	movq	%rdi, -64(%rbp)
	.loc	7 52 18 is_stmt 0
	movq	-64(%rbp), %rax
	movq	%rax, -40(%rbp)
Ltmp809:
	.loc	7 38 13 is_stmt 1
	movq	%rax, -32(%rbp)
Ltmp810:
	.loc	7 215 33
	movq	%rax, -24(%rbp)
	.loc	7 215 18 is_stmt 0
	movq	%rax, -16(%rbp)
Ltmp811:
	.loc	7 38 13 is_stmt 1
	cmpq	$0, -16(%rbp)
	sete	%al
Ltmp812:
	.loc	9 223 12
	xorb	$-1, %al
	testb	$1, %al
	jne	LBB105_2
	.loc	9 227 13
	movq	$0, -80(%rbp)
	.loc	9 223 9
	jmp	LBB105_3
LBB105_2:
	.loc	9 0 9 is_stmt 0
	movq	-88(%rbp), %rax
	.loc	9 225 47 is_stmt 1
	movq	%rax, -8(%rbp)
Ltmp813:
	.loc	9 201 13
	movq	%rax, -72(%rbp)
Ltmp814:
	.loc	9 225 13
	movq	-72(%rbp), %rax
	movq	%rax, -80(%rbp)
LBB105_3:
	.loc	9 229 6
	movq	-80(%rbp), %rax
	addq	$88, %rsp
	popq	%rbp
	retq
Ltmp815:
Lfunc_end105:
	.cfi_endproc

	.globl	__ZN4core3ptr8non_null26NonNull$LT$$u5b$T$u5d$$GT$20slice_from_raw_parts17h72c2cebf881e7d88E
	.p2align	4, 0x90
__ZN4core3ptr8non_null26NonNull$LT$$u5b$T$u5d$$GT$20slice_from_raw_parts17h72c2cebf881e7d88E:
Lfunc_begin106:
	.loc	9 482 0
	.cfi_startproc
	pushq	%rbp
	.cfi_def_cfa_offset 16
	.cfi_offset %rbp, -16
	movq	%rsp, %rbp
	.cfi_def_cfa_register %rbp
	subq	$128, %rsp
	movq	%rdi, -80(%rbp)
	movq	%rsi, -72(%rbp)
Ltmp816:
	.loc	9 484 70 prologue_end
	movq	%rdi, -64(%rbp)
Ltmp817:
	.loc	9 326 9
	movq	%rdi, -56(%rbp)
Ltmp818:
	.loc	9 484 85
	movq	%rsi, -48(%rbp)
Ltmp819:
	.loc	5 766 24
	movq	%rdi, -40(%rbp)
Ltmp820:
	.loc	7 60 9
	movq	%rdi, -32(%rbp)
Ltmp821:
	.loc	5 766 37
	movq	%rsi, -24(%rbp)
Ltmp822:
	.loc	6 135 36
	movq	%rdi, -96(%rbp)
	movq	%rsi, -88(%rbp)
	.loc	6 135 14 is_stmt 0
	movq	-96(%rbp), %rcx
	movq	-88(%rbp), %rax
	movq	%rcx, -112(%rbp)
	movq	%rax, -104(%rbp)
	movq	-112(%rbp), %rcx
	movq	-104(%rbp), %rax
	movq	%rcx, -16(%rbp)
	movq	%rax, -8(%rbp)
Ltmp823:
	.loc	9 201 13 is_stmt 1
	movq	%rcx, -128(%rbp)
	movq	%rax, -120(%rbp)
Ltmp824:
	.loc	9 485 6
	movq	-128(%rbp), %rax
	movq	-120(%rbp), %rdx
	addq	$128, %rsp
	popq	%rbp
	retq
Ltmp825:
Lfunc_end106:
	.cfi_endproc

	.globl	__ZN4core3ptr90drop_in_place$LT$core..option..Option$LT$parking_lot_core..parking_lot..ThreadData$GT$$GT$17h90c3f74d9fad5bd6E
	.p2align	4, 0x90
__ZN4core3ptr90drop_in_place$LT$core..option..Option$LT$parking_lot_core..parking_lot..ThreadData$GT$$GT$17h90c3f74d9fad5bd6E:
Lfunc_begin107:
	.loc	5 490 0
	.cfi_startproc
	pushq	%rbp
	.cfi_def_cfa_offset 16
	.cfi_offset %rbp, -16
	movq	%rsp, %rbp
	.cfi_def_cfa_register %rbp
	subq	$16, %rsp
	movq	%rdi, -16(%rbp)
	movq	%rdi, -8(%rbp)
Ltmp826:
	.loc	5 490 1 prologue_end
	cmpq	$0, (%rdi)
	jne	LBB107_2
LBB107_1:
	addq	$16, %rsp
	popq	%rbp
	retq
LBB107_2:
	.loc	5 0 1 is_stmt 0
	movq	-16(%rbp), %rdi
	.loc	5 490 1
	addq	$8, %rdi
	callq	__ZN4core3ptr62drop_in_place$LT$parking_lot_core..parking_lot..ThreadData$GT$17h3277ee48861f4467E
	jmp	LBB107_1
Ltmp827:
Lfunc_end107:
	.cfi_endproc

	.globl	__ZN4core3ptr91drop_in_place$LT$alloc..boxed..Box$LT$dyn$u20$core..any..Any$u2b$core..marker..Send$GT$$GT$17hb41ccb337d1b184fE
	.p2align	4, 0x90
__ZN4core3ptr91drop_in_place$LT$alloc..boxed..Box$LT$dyn$u20$core..any..Any$u2b$core..marker..Send$GT$$GT$17hb41ccb337d1b184fE:
Lfunc_begin108:
	.loc	5 490 0 is_stmt 1
	.cfi_startproc
	.cfi_personality 155, _rust_eh_personality
	.cfi_lsda 16, Lexception23
	pushq	%rbp
	.cfi_def_cfa_offset 16
	.cfi_offset %rbp, -16
	movq	%rsp, %rbp
	.cfi_def_cfa_register %rbp
	subq	$32, %rsp
	movq	%rdi, %rax
	movq	%rax, -32(%rbp)
	movq	%rax, -24(%rbp)
Ltmp834:
	.loc	5 490 1 prologue_end
	movq	(%rax), %rdi
	movq	8(%rax), %rax
	movq	(%rax), %rax
Ltmp828:
	callq	*%rax
Ltmp829:
	jmp	LBB108_3
LBB108_1:
	.loc	5 0 1 is_stmt 0
	movq	-32(%rbp), %rax
	.loc	5 490 1
	movq	(%rax), %rdi
	movq	8(%rax), %rsi
Ltmp831:
	callq	__ZN5alloc5alloc8box_free17h38408ee7d3bb4e7bE
Ltmp832:
	jmp	LBB108_5
LBB108_2:
Ltmp830:
	.loc	5 0 1
	movq	%rax, %rcx
	movl	%edx, %eax
	movq	%rcx, -16(%rbp)
	movl	%eax, -8(%rbp)
	jmp	LBB108_1
LBB108_3:
	movq	-32(%rbp), %rax
	.loc	5 490 1
	movq	(%rax), %rdi
	movq	8(%rax), %rsi
	callq	__ZN5alloc5alloc8box_free17h38408ee7d3bb4e7bE
	addq	$32, %rsp
	popq	%rbp
	retq
LBB108_4:
Ltmp833:
	callq	__ZN4core9panicking19panic_cannot_unwind17h1fbca7e1d7f56ae1E
LBB108_5:
	movq	-16(%rbp), %rdi
	callq	__Unwind_Resume
Ltmp835:
Lfunc_end108:
	.cfi_endproc
	.section	__TEXT,__gcc_except_tab
	.p2align	2
GCC_except_table108:
Lexception23:
	.byte	255
	.byte	255
	.byte	1
	.uleb128 Lcst_end23-Lcst_begin23
Lcst_begin23:
	.uleb128 Ltmp828-Lfunc_begin108
	.uleb128 Ltmp829-Ltmp828
	.uleb128 Ltmp830-Lfunc_begin108
	.byte	0
	.uleb128 Ltmp831-Lfunc_begin108
	.uleb128 Ltmp832-Ltmp831
	.uleb128 Ltmp833-Lfunc_begin108
	.byte	0
	.uleb128 Ltmp832-Lfunc_begin108
	.uleb128 Lfunc_end108-Ltmp832
	.byte	0
	.byte	0
Lcst_end23:
	.p2align	2

	.section	__TEXT,__text,regular,pure_instructions
	.globl	__ZN4core3ptr92drop_in_place$LT$std..io..Write..write_fmt..Adapter$LT$std..sys..unix..stdio..Stderr$GT$$GT$17h60ee53817f3bbd8bE
	.p2align	4, 0x90
__ZN4core3ptr92drop_in_place$LT$std..io..Write..write_fmt..Adapter$LT$std..sys..unix..stdio..Stderr$GT$$GT$17h60ee53817f3bbd8bE:
Lfunc_begin109:
	.loc	5 490 0 is_stmt 1
	.cfi_startproc
	pushq	%rbp
	.cfi_def_cfa_offset 16
	.cfi_offset %rbp, -16
	movq	%rsp, %rbp
	.cfi_def_cfa_register %rbp
	subq	$16, %rsp
	movq	%rdi, -8(%rbp)
Ltmp836:
	.loc	5 490 1 prologue_end
	callq	__ZN4core3ptr81drop_in_place$LT$core..result..Result$LT$$LP$$RP$$C$std..io..error..Error$GT$$GT$17h63dd8221c81a39d1E
	addq	$16, %rsp
	popq	%rbp
	retq
Ltmp837:
Lfunc_end109:
	.cfi_endproc

	.globl	__ZN4core3ptr93drop_in_place$LT$alloc..boxed..Box$LT$$u5b$parking_lot_core..parking_lot..Bucket$u5d$$GT$$GT$17h75b49ada151f307cE
	.p2align	4, 0x90
__ZN4core3ptr93drop_in_place$LT$alloc..boxed..Box$LT$$u5b$parking_lot_core..parking_lot..Bucket$u5d$$GT$$GT$17h75b49ada151f307cE:
Lfunc_begin110:
	.loc	5 490 0
	.cfi_startproc
	pushq	%rbp
	.cfi_def_cfa_offset 16
	.cfi_offset %rbp, -16
	movq	%rsp, %rbp
	.cfi_def_cfa_register %rbp
	subq	$32, %rsp
	movq	%rdi, -32(%rbp)
	movq	%rdi, -24(%rbp)
	movq	-32(%rbp), %rax
Ltmp838:
	.loc	5 490 1 prologue_end
	movq	(%rax), %rdi
	movq	8(%rax), %rsi
	callq	__ZN5alloc5alloc8box_free17h325f31fa6e34c9fbE
	addq	$32, %rsp
	popq	%rbp
	retq
Ltmp839:
Lfunc_end110:
	.cfi_endproc

	.globl	__ZN4core3ptr93drop_in_place$LT$dyn$u20$core..error..Error$u2b$core..marker..Send$u2b$core..marker..Sync$GT$17h05c21c69018cbb0cE
	.p2align	4, 0x90
__ZN4core3ptr93drop_in_place$LT$dyn$u20$core..error..Error$u2b$core..marker..Send$u2b$core..marker..Sync$GT$17h05c21c69018cbb0cE:
Lfunc_begin111:
	.loc	5 490 0
	.cfi_startproc
	pushq	%rbp
	.cfi_def_cfa_offset 16
	.cfi_offset %rbp, -16
	movq	%rsp, %rbp
	.cfi_def_cfa_register %rbp
	subq	$16, %rsp
	movq	%rdi, -16(%rbp)
	movq	%rsi, -8(%rbp)
Ltmp840:
	.loc	5 490 1 prologue_end
	callq	*(%rsi)
	addq	$16, %rsp
	popq	%rbp
	retq
Ltmp841:
Lfunc_end111:
	.cfi_endproc

	.globl	__ZN4core3ptr97drop_in_place$LT$std..thread..local..fast..Key$LT$parking_lot_core..word_lock..ThreadData$GT$$GT$17hed82e6b5906a6a0fE
	.p2align	4, 0x90
__ZN4core3ptr97drop_in_place$LT$std..thread..local..fast..Key$LT$parking_lot_core..word_lock..ThreadData$GT$$GT$17hed82e6b5906a6a0fE:
Lfunc_begin112:
	.loc	5 490 0
	.cfi_startproc
	pushq	%rbp
	.cfi_def_cfa_offset 16
	.cfi_offset %rbp, -16
	movq	%rsp, %rbp
	.cfi_def_cfa_register %rbp
	subq	$16, %rsp
	movq	%rdi, -8(%rbp)
Ltmp842:
	.loc	5 490 1 prologue_end
	callq	__ZN4core3ptr106drop_in_place$LT$std..thread..local..lazy..LazyKeyInner$LT$parking_lot_core..word_lock..ThreadData$GT$$GT$17hb9e25d1d76d0d53eE
	addq	$16, %rsp
	popq	%rbp
	retq
Ltmp843:
Lfunc_end112:
	.cfi_endproc

	.globl	__ZN4core3ptr99drop_in_place$LT$std..thread..local..fast..Key$LT$parking_lot_core..parking_lot..ThreadData$GT$$GT$17h24c9675e492ebfe9E
	.p2align	4, 0x90
__ZN4core3ptr99drop_in_place$LT$std..thread..local..fast..Key$LT$parking_lot_core..parking_lot..ThreadData$GT$$GT$17h24c9675e492ebfe9E:
Lfunc_begin113:
	.loc	5 490 0
	.cfi_startproc
	pushq	%rbp
	.cfi_def_cfa_offset 16
	.cfi_offset %rbp, -16
	movq	%rsp, %rbp
	.cfi_def_cfa_register %rbp
	subq	$16, %rsp
	movq	%rdi, -8(%rbp)
Ltmp844:
	.loc	5 490 1 prologue_end
	callq	__ZN4core3ptr108drop_in_place$LT$std..thread..local..lazy..LazyKeyInner$LT$parking_lot_core..parking_lot..ThreadData$GT$$GT$17h2a1c36a7725df9dfE
	addq	$16, %rsp
	popq	%rbp
	retq
Ltmp845:
Lfunc_end113:
	.cfi_endproc

	.globl	__ZN4core3ptr9const_ptr33_$LT$impl$u20$$BP$const$u20$T$GT$7is_null17h4f24a6938c63d2a7E
	.p2align	4, 0x90
__ZN4core3ptr9const_ptr33_$LT$impl$u20$$BP$const$u20$T$GT$7is_null17h4f24a6938c63d2a7E:
Lfunc_begin114:
	.loc	4 36 0
	.cfi_startproc
	pushq	%rbp
	.cfi_def_cfa_offset 16
	.cfi_offset %rbp, -16
	movq	%rsp, %rbp
	.cfi_def_cfa_register %rbp
	subq	$48, %rsp
	movq	%rdi, -40(%rbp)
Ltmp846:
	.loc	4 53 36 prologue_end
	movq	%rdi, -48(%rbp)
	.loc	4 53 18 is_stmt 0
	movq	-48(%rbp), %rax
	movq	%rax, -32(%rbp)
Ltmp847:
	.loc	4 39 13 is_stmt 1
	movq	%rax, -24(%rbp)
Ltmp848:
	.loc	4 209 33
	movq	%rax, -16(%rbp)
	.loc	4 209 18 is_stmt 0
	movq	%rax, -8(%rbp)
Ltmp849:
	.loc	4 39 13 is_stmt 1
	cmpq	$0, -8(%rbp)
	sete	%al
Ltmp850:
	.loc	4 54 6
	andb	$1, %al
	movzbl	%al, %eax
	addq	$48, %rsp
	popq	%rbp
	retq
Ltmp851:
Lfunc_end114:
	.cfi_endproc

	.globl	__ZN4core3ptr9const_ptr33_$LT$impl$u20$$BP$const$u20$T$GT$7is_null17hb158218063fb11f6E
	.p2align	4, 0x90
__ZN4core3ptr9const_ptr33_$LT$impl$u20$$BP$const$u20$T$GT$7is_null17hb158218063fb11f6E:
Lfunc_begin115:
	.loc	4 36 0
	.cfi_startproc
	pushq	%rbp
	.cfi_def_cfa_offset 16
	.cfi_offset %rbp, -16
	movq	%rsp, %rbp
	.cfi_def_cfa_register %rbp
	subq	$48, %rsp
	movq	%rdi, -40(%rbp)
Ltmp852:
	.loc	4 53 36 prologue_end
	movq	%rdi, -48(%rbp)
	.loc	4 53 18 is_stmt 0
	movq	-48(%rbp), %rax
	movq	%rax, -32(%rbp)
Ltmp853:
	.loc	4 39 13 is_stmt 1
	movq	%rax, -24(%rbp)
Ltmp854:
	.loc	4 209 33
	movq	%rax, -16(%rbp)
	.loc	4 209 18 is_stmt 0
	movq	%rax, -8(%rbp)
Ltmp855:
	.loc	4 39 13 is_stmt 1
	cmpq	$0, -8(%rbp)
	sete	%al
Ltmp856:
	.loc	4 54 6
	andb	$1, %al
	movzbl	%al, %eax
	addq	$48, %rsp
	popq	%rbp
	retq
Ltmp857:
Lfunc_end115:
	.cfi_endproc

	.globl	__ZN4core4cell13Cell$LT$T$GT$3get17h4a0b39a74acd0539E
	.p2align	4, 0x90
__ZN4core4cell13Cell$LT$T$GT$3get17h4a0b39a74acd0539E:
Lfunc_begin116:
	.loc	22 449 0
	.cfi_startproc
	pushq	%rbp
	.cfi_def_cfa_offset 16
	.cfi_offset %rbp, -16
	movq	%rsp, %rbp
	.cfi_def_cfa_register %rbp
	subq	$16, %rsp
	movq	%rdi, -16(%rbp)
Ltmp858:
	.loc	22 452 19 prologue_end
	movq	%rdi, -8(%rbp)
	.loc	22 452 18 is_stmt 0
	movb	(%rdi), %al
	.loc	22 453 6 is_stmt 1
	andb	$1, %al
	movzbl	%al, %eax
	addq	$16, %rsp
	popq	%rbp
	retq
Ltmp859:
Lfunc_end116:
	.cfi_endproc

	.globl	__ZN4core4cell13Cell$LT$T$GT$3get17h91f3150f3f68e435E
	.p2align	4, 0x90
__ZN4core4cell13Cell$LT$T$GT$3get17h91f3150f3f68e435E:
Lfunc_begin117:
	.loc	22 449 0
	.cfi_startproc
	pushq	%rbp
	.cfi_def_cfa_offset 16
	.cfi_offset %rbp, -16
	movq	%rsp, %rbp
	.cfi_def_cfa_register %rbp
	subq	$16, %rsp
	movq	%rdi, -16(%rbp)
Ltmp860:
	.loc	22 452 19 prologue_end
	movq	%rdi, -8(%rbp)
	.loc	22 452 18 is_stmt 0
	movq	(%rdi), %rax
	.loc	22 453 6 is_stmt 1
	addq	$16, %rsp
	popq	%rbp
	retq
Ltmp861:
Lfunc_end117:
	.cfi_endproc

	.globl	__ZN4core4cell13Cell$LT$T$GT$3get17hc0750927d065277fE
	.p2align	4, 0x90
__ZN4core4cell13Cell$LT$T$GT$3get17hc0750927d065277fE:
Lfunc_begin118:
	.loc	22 449 0
	.cfi_startproc
	pushq	%rbp
	.cfi_def_cfa_offset 16
	.cfi_offset %rbp, -16
	movq	%rsp, %rbp
	.cfi_def_cfa_register %rbp
	subq	$16, %rsp
	movq	%rdi, -16(%rbp)
Ltmp862:
	.loc	22 452 19 prologue_end
	movq	%rdi, -8(%rbp)
	.loc	22 452 18 is_stmt 0
	movq	(%rdi), %rax
	.loc	22 453 6 is_stmt 1
	addq	$16, %rsp
	popq	%rbp
	retq
Ltmp863:
Lfunc_end118:
	.cfi_endproc

	.globl	__ZN4core4cell13Cell$LT$T$GT$3new17h2a247ccca66865e4E
	.p2align	4, 0x90
__ZN4core4cell13Cell$LT$T$GT$3new17h2a247ccca66865e4E:
Lfunc_begin119:
	.loc	22 345 0
	.cfi_startproc
	pushq	%rbp
	.cfi_def_cfa_offset 16
	.cfi_offset %rbp, -16
	movq	%rsp, %rbp
	.cfi_def_cfa_register %rbp
	subq	$32, %rsp
	movq	%rdi, -16(%rbp)
Ltmp864:
	.loc	22 346 39 prologue_end
	movq	%rdi, -8(%rbp)
Ltmp865:
	.loc	22 1953 9
	movq	%rdi, -24(%rbp)
Ltmp866:
	.loc	22 346 9
	movq	-24(%rbp), %rax
	movq	%rax, -32(%rbp)
	.loc	22 347 6
	movq	-32(%rbp), %rax
	addq	$32, %rsp
	popq	%rbp
	retq
Ltmp867:
Lfunc_end119:
	.cfi_endproc

	.globl	__ZN4core4cell13Cell$LT$T$GT$3new17h35d796bc94e3f1acE
	.p2align	4, 0x90
__ZN4core4cell13Cell$LT$T$GT$3new17h35d796bc94e3f1acE:
Lfunc_begin120:
	.loc	22 345 0
	.cfi_startproc
	pushq	%rbp
	.cfi_def_cfa_offset 16
	.cfi_offset %rbp, -16
	movq	%rsp, %rbp
	.cfi_def_cfa_register %rbp
	subq	$32, %rsp
	movq	%rdi, -16(%rbp)
Ltmp868:
	.loc	22 346 39 prologue_end
	movq	%rdi, -8(%rbp)
Ltmp869:
	.loc	22 1953 9
	movq	%rdi, -24(%rbp)
Ltmp870:
	.loc	22 346 9
	movq	-24(%rbp), %rax
	movq	%rax, -32(%rbp)
	.loc	22 347 6
	movq	-32(%rbp), %rax
	addq	$32, %rsp
	popq	%rbp
	retq
Ltmp871:
Lfunc_end120:
	.cfi_endproc

	.globl	__ZN4core4cell13Cell$LT$T$GT$3new17h5068ac63a68ac47fE
	.p2align	4, 0x90
__ZN4core4cell13Cell$LT$T$GT$3new17h5068ac63a68ac47fE:
Lfunc_begin121:
	.loc	22 345 0
	.cfi_startproc
	pushq	%rbp
	.cfi_def_cfa_offset 16
	.cfi_offset %rbp, -16
	movq	%rsp, %rbp
	.cfi_def_cfa_register %rbp
	subq	$4, %rsp
	movb	%dil, %al
	movb	%al, %cl
	andb	$1, %cl
	movb	%cl, -2(%rbp)
Ltmp872:
	.loc	22 346 39 prologue_end
	movb	%al, %cl
	andb	$1, %cl
	movb	%cl, -1(%rbp)
Ltmp873:
	.loc	22 1953 9
	andb	$1, %al
	movb	%al, -3(%rbp)
Ltmp874:
	.loc	22 346 9
	movb	-3(%rbp), %al
	movb	%al, -4(%rbp)
	.loc	22 347 6
	movb	-4(%rbp), %al
	addq	$4, %rsp
	popq	%rbp
	retq
Ltmp875:
Lfunc_end121:
	.cfi_endproc

	.globl	__ZN4core4cell13Cell$LT$T$GT$3new17h8fbf69eeb13158c2E
	.p2align	4, 0x90
__ZN4core4cell13Cell$LT$T$GT$3new17h8fbf69eeb13158c2E:
Lfunc_begin122:
	.loc	22 345 0
	.cfi_startproc
	pushq	%rbp
	.cfi_def_cfa_offset 16
	.cfi_offset %rbp, -16
	movq	%rsp, %rbp
	.cfi_def_cfa_register %rbp
	subq	$32, %rsp
	movq	%rdi, -16(%rbp)
Ltmp876:
	.loc	22 346 39 prologue_end
	movq	%rdi, -8(%rbp)
Ltmp877:
	.loc	22 1953 9
	movq	%rdi, -24(%rbp)
Ltmp878:
	.loc	22 346 9
	movq	-24(%rbp), %rax
	movq	%rax, -32(%rbp)
	.loc	22 347 6
	movq	-32(%rbp), %rax
	addq	$32, %rsp
	popq	%rbp
	retq
Ltmp879:
Lfunc_end122:
	.cfi_endproc

	.globl	__ZN4core4cell13Cell$LT$T$GT$3new17h94b66a927479e6c3E
	.p2align	4, 0x90
__ZN4core4cell13Cell$LT$T$GT$3new17h94b66a927479e6c3E:
Lfunc_begin123:
	.loc	22 345 0
	.cfi_startproc
	pushq	%rbp
	.cfi_def_cfa_offset 16
	.cfi_offset %rbp, -16
	movq	%rsp, %rbp
	.cfi_def_cfa_register %rbp
	subq	$32, %rsp
	movq	%rdi, -16(%rbp)
Ltmp880:
	.loc	22 346 39 prologue_end
	movq	%rdi, -8(%rbp)
Ltmp881:
	.loc	22 1953 9
	movq	%rdi, -24(%rbp)
Ltmp882:
	.loc	22 346 9
	movq	-24(%rbp), %rax
	movq	%rax, -32(%rbp)
	.loc	22 347 6
	movq	-32(%rbp), %rax
	addq	$32, %rsp
	popq	%rbp
	retq
Ltmp883:
Lfunc_end123:
	.cfi_endproc

	.globl	__ZN4core4cell13Cell$LT$T$GT$3set17h4414be28784db2a4E
	.p2align	4, 0x90
__ZN4core4cell13Cell$LT$T$GT$3set17h4414be28784db2a4E:
Lfunc_begin124:
	.loc	22 362 0
	.cfi_startproc
	pushq	%rbp
	.cfi_def_cfa_offset 16
	.cfi_offset %rbp, -16
	movq	%rsp, %rbp
	.cfi_def_cfa_register %rbp
	subq	$32, %rsp
	movq	%rdi, -32(%rbp)
	movq	%rsi, -24(%rbp)
Ltmp884:
	.loc	22 363 19 prologue_end
	callq	__ZN4core4cell13Cell$LT$T$GT$7replace17h6a09b796cfd7ad2cE
	movq	%rax, -16(%rbp)
Ltmp885:
	.loc	22 364 14
	movq	%rax, -8(%rbp)
Ltmp886:
	.loc	22 365 6
	addq	$32, %rsp
	popq	%rbp
	retq
Ltmp887:
Lfunc_end124:
	.cfi_endproc

	.globl	__ZN4core4cell13Cell$LT$T$GT$3set17h916739fa58dc872fE
	.p2align	4, 0x90
__ZN4core4cell13Cell$LT$T$GT$3set17h916739fa58dc872fE:
Lfunc_begin125:
	.loc	22 362 0
	.cfi_startproc
	pushq	%rbp
	.cfi_def_cfa_offset 16
	.cfi_offset %rbp, -16
	movq	%rsp, %rbp
	.cfi_def_cfa_register %rbp
	subq	$16, %rsp
	movb	%sil, %al
	movq	%rdi, -16(%rbp)
	movb	%al, %cl
	andb	$1, %cl
	movb	%cl, -3(%rbp)
Ltmp888:
	.loc	22 363 19 prologue_end
	movzbl	%al, %esi
	andl	$1, %esi
	callq	__ZN4core4cell13Cell$LT$T$GT$7replace17h747a99a0016aedceE
	movb	%al, %cl
	andb	$1, %cl
	movb	%cl, -2(%rbp)
Ltmp889:
	.loc	22 364 14
	andb	$1, %al
	movb	%al, -1(%rbp)
Ltmp890:
	.loc	22 365 6
	addq	$16, %rsp
	popq	%rbp
	retq
Ltmp891:
Lfunc_end125:
	.cfi_endproc

	.globl	__ZN4core4cell13Cell$LT$T$GT$3set17hd9caf1a89fe8b476E
	.p2align	4, 0x90
__ZN4core4cell13Cell$LT$T$GT$3set17hd9caf1a89fe8b476E:
Lfunc_begin126:
	.loc	22 362 0
	.cfi_startproc
	pushq	%rbp
	.cfi_def_cfa_offset 16
	.cfi_offset %rbp, -16
	movq	%rsp, %rbp
	.cfi_def_cfa_register %rbp
	subq	$32, %rsp
	movq	%rdi, -32(%rbp)
	movq	%rsi, -24(%rbp)
Ltmp892:
	.loc	22 363 19 prologue_end
	callq	__ZN4core4cell13Cell$LT$T$GT$7replace17h17cdb6acb61cbd42E
	movq	%rax, -16(%rbp)
Ltmp893:
	.loc	22 364 14
	movq	%rax, -8(%rbp)
Ltmp894:
	.loc	22 365 6
	addq	$32, %rsp
	popq	%rbp
	retq
Ltmp895:
Lfunc_end126:
	.cfi_endproc

	.globl	__ZN4core4cell13Cell$LT$T$GT$7replace17h17cdb6acb61cbd42E
	.p2align	4, 0x90
__ZN4core4cell13Cell$LT$T$GT$7replace17h17cdb6acb61cbd42E:
Lfunc_begin127:
	.loc	22 410 0
	.cfi_startproc
	.cfi_personality 155, _rust_eh_personality
	.cfi_lsda 16, Lexception24
	pushq	%rbp
	.cfi_def_cfa_offset 16
	.cfi_offset %rbp, -16
	movq	%rsp, %rbp
	.cfi_def_cfa_register %rbp
	subq	$48, %rsp
	movq	%rdi, -40(%rbp)
	movq	%rsi, -32(%rbp)
Ltmp899:
	.loc	22 413 37 prologue_end
	movq	%rdi, -24(%rbp)
Ltmp896:
	.loc	22 413 9 is_stmt 0
	callq	__ZN4core3mem7replace17h9897a8dc7563111fE
Ltmp897:
	movq	%rax, -48(%rbp)
	jmp	LBB127_3
LBB127_1:
	.loc	22 414 5 is_stmt 1
	xorl	%eax, %eax
	testb	$1, %al
	jne	LBB127_5
	jmp	LBB127_4
LBB127_2:
Ltmp898:
	.loc	22 0 5 is_stmt 0
	movq	%rax, %rcx
	movl	%edx, %eax
	movq	%rcx, -16(%rbp)
	movl	%eax, -8(%rbp)
	jmp	LBB127_1
LBB127_3:
	movq	-48(%rbp), %rax
	.loc	22 414 6
	addq	$48, %rsp
	popq	%rbp
	retq
LBB127_4:
	.loc	22 410 5 is_stmt 1
	movq	-16(%rbp), %rdi
	callq	__Unwind_Resume
LBB127_5:
	.loc	22 414 5
	jmp	LBB127_4
Ltmp900:
Lfunc_end127:
	.cfi_endproc
	.section	__TEXT,__gcc_except_tab
	.p2align	2
GCC_except_table127:
Lexception24:
	.byte	255
	.byte	255
	.byte	1
	.uleb128 Lcst_end24-Lcst_begin24
Lcst_begin24:
	.uleb128 Ltmp896-Lfunc_begin127
	.uleb128 Ltmp897-Ltmp896
	.uleb128 Ltmp898-Lfunc_begin127
	.byte	0
	.uleb128 Ltmp897-Lfunc_begin127
	.uleb128 Lfunc_end127-Ltmp897
	.byte	0
	.byte	0
Lcst_end24:
	.p2align	2

	.section	__TEXT,__text,regular,pure_instructions
	.globl	__ZN4core4cell13Cell$LT$T$GT$7replace17h6a09b796cfd7ad2cE
	.p2align	4, 0x90
__ZN4core4cell13Cell$LT$T$GT$7replace17h6a09b796cfd7ad2cE:
Lfunc_begin128:
	.loc	22 410 0
	.cfi_startproc
	.cfi_personality 155, _rust_eh_personality
	.cfi_lsda 16, Lexception25
	pushq	%rbp
	.cfi_def_cfa_offset 16
	.cfi_offset %rbp, -16
	movq	%rsp, %rbp
	.cfi_def_cfa_register %rbp
	subq	$48, %rsp
	movq	%rdi, -40(%rbp)
	movq	%rsi, -32(%rbp)
Ltmp904:
	.loc	22 413 37 prologue_end
	movq	%rdi, -24(%rbp)
Ltmp901:
	.loc	22 413 9 is_stmt 0
	callq	__ZN4core3mem7replace17hb48cacdb1fa187ceE
Ltmp902:
	movq	%rax, -48(%rbp)
	jmp	LBB128_3
LBB128_1:
	.loc	22 414 5 is_stmt 1
	xorl	%eax, %eax
	testb	$1, %al
	jne	LBB128_5
	jmp	LBB128_4
LBB128_2:
Ltmp903:
	.loc	22 0 5 is_stmt 0
	movq	%rax, %rcx
	movl	%edx, %eax
	movq	%rcx, -16(%rbp)
	movl	%eax, -8(%rbp)
	jmp	LBB128_1
LBB128_3:
	movq	-48(%rbp), %rax
	.loc	22 414 6
	addq	$48, %rsp
	popq	%rbp
	retq
LBB128_4:
	.loc	22 410 5 is_stmt 1
	movq	-16(%rbp), %rdi
	callq	__Unwind_Resume
LBB128_5:
	.loc	22 414 5
	jmp	LBB128_4
Ltmp905:
Lfunc_end128:
	.cfi_endproc
	.section	__TEXT,__gcc_except_tab
	.p2align	2
GCC_except_table128:
Lexception25:
	.byte	255
	.byte	255
	.byte	1
	.uleb128 Lcst_end25-Lcst_begin25
Lcst_begin25:
	.uleb128 Ltmp901-Lfunc_begin128
	.uleb128 Ltmp902-Ltmp901
	.uleb128 Ltmp903-Lfunc_begin128
	.byte	0
	.uleb128 Ltmp902-Lfunc_begin128
	.uleb128 Lfunc_end128-Ltmp902
	.byte	0
	.byte	0
Lcst_end25:
	.p2align	2

	.section	__TEXT,__text,regular,pure_instructions
	.globl	__ZN4core4cell13Cell$LT$T$GT$7replace17h747a99a0016aedceE
	.p2align	4, 0x90
__ZN4core4cell13Cell$LT$T$GT$7replace17h747a99a0016aedceE:
Lfunc_begin129:
	.loc	22 410 0
	.cfi_startproc
	.cfi_personality 155, _rust_eh_personality
	.cfi_lsda 16, Lexception26
	pushq	%rbp
	.cfi_def_cfa_offset 16
	.cfi_offset %rbp, -16
	movq	%rsp, %rbp
	.cfi_def_cfa_register %rbp
	subq	$48, %rsp
	movb	%sil, %al
	movq	%rdi, -40(%rbp)
	movb	%al, %cl
	andb	$1, %cl
	movb	%cl, -25(%rbp)
Ltmp909:
	.loc	22 413 37 prologue_end
	movq	%rdi, -24(%rbp)
Ltmp906:
	.loc	22 413 9 is_stmt 0
	movzbl	%al, %esi
	andl	$1, %esi
	callq	__ZN4core3mem7replace17h773c1c24b3e87d9cE
Ltmp907:
	movb	%al, -41(%rbp)
	jmp	LBB129_3
LBB129_1:
	.loc	22 414 5 is_stmt 1
	xorl	%eax, %eax
	testb	$1, %al
	jne	LBB129_5
	jmp	LBB129_4
LBB129_2:
Ltmp908:
	.loc	22 0 5 is_stmt 0
	movq	%rax, %rcx
	movl	%edx, %eax
	movq	%rcx, -16(%rbp)
	movl	%eax, -8(%rbp)
	jmp	LBB129_1
LBB129_3:
	movb	-41(%rbp), %al
	.loc	22 414 6
	andb	$1, %al
	movzbl	%al, %eax
	addq	$48, %rsp
	popq	%rbp
	retq
LBB129_4:
	.loc	22 410 5 is_stmt 1
	movq	-16(%rbp), %rdi
	callq	__Unwind_Resume
LBB129_5:
	.loc	22 414 5
	jmp	LBB129_4
Ltmp910:
Lfunc_end129:
	.cfi_endproc
	.section	__TEXT,__gcc_except_tab
	.p2align	2
GCC_except_table129:
Lexception26:
	.byte	255
	.byte	255
	.byte	1
	.uleb128 Lcst_end26-Lcst_begin26
Lcst_begin26:
	.uleb128 Ltmp906-Lfunc_begin129
	.uleb128 Ltmp907-Ltmp906
	.uleb128 Ltmp908-Lfunc_begin129
	.byte	0
	.uleb128 Ltmp907-Lfunc_begin129
	.uleb128 Lfunc_end129-Ltmp907
	.byte	0
	.byte	0
Lcst_end26:
	.p2align	2

	.section	__TEXT,__text,regular,pure_instructions
	.globl	__ZN4core4cell13Cell$LT$T$GT$7replace17h96ad0d507a632179E
	.p2align	4, 0x90
__ZN4core4cell13Cell$LT$T$GT$7replace17h96ad0d507a632179E:
Lfunc_begin130:
	.loc	22 410 0
	.cfi_startproc
	.cfi_personality 155, _rust_eh_personality
	.cfi_lsda 16, Lexception27
	pushq	%rbp
	.cfi_def_cfa_offset 16
	.cfi_offset %rbp, -16
	movq	%rsp, %rbp
	.cfi_def_cfa_register %rbp
	subq	$48, %rsp
	movb	%sil, %al
	movq	%rdi, -40(%rbp)
	movb	%al, -25(%rbp)
Ltmp914:
	.loc	22 413 37 prologue_end
	movq	%rdi, -24(%rbp)
Ltmp911:
	.loc	22 413 9 is_stmt 0
	movzbl	%al, %esi
	callq	__ZN4core3mem7replace17h3ea17989035ca7c0E
Ltmp912:
	movb	%al, -41(%rbp)
	jmp	LBB130_3
LBB130_1:
	.loc	22 414 5 is_stmt 1
	xorl	%eax, %eax
	testb	$1, %al
	jne	LBB130_5
	jmp	LBB130_4
LBB130_2:
Ltmp913:
	.loc	22 0 5 is_stmt 0
	movq	%rax, %rcx
	movl	%edx, %eax
	movq	%rcx, -16(%rbp)
	movl	%eax, -8(%rbp)
	jmp	LBB130_1
LBB130_3:
	movb	-41(%rbp), %al
	.loc	22 414 6
	addq	$48, %rsp
	popq	%rbp
	retq
LBB130_4:
	.loc	22 410 5 is_stmt 1
	movq	-16(%rbp), %rdi
	callq	__Unwind_Resume
LBB130_5:
	.loc	22 414 5
	jmp	LBB130_4
Ltmp915:
Lfunc_end130:
	.cfi_endproc
	.section	__TEXT,__gcc_except_tab
	.p2align	2
GCC_except_table130:
Lexception27:
	.byte	255
	.byte	255
	.byte	1
	.uleb128 Lcst_end27-Lcst_begin27
Lcst_begin27:
	.uleb128 Ltmp911-Lfunc_begin130
	.uleb128 Ltmp912-Ltmp911
	.uleb128 Ltmp913-Lfunc_begin130
	.byte	0
	.uleb128 Ltmp912-Lfunc_begin130
	.uleb128 Lfunc_end130-Ltmp912
	.byte	0
	.byte	0
Lcst_end27:
	.p2align	2

	.section	__TEXT,__text,regular,pure_instructions
	.p2align	4, 0x90
__ZN4core4char7methods15encode_utf8_raw17h3f34bb59b13882b8E:
Lfunc_begin131:
	.loc	33 1729 0
	.cfi_startproc
	pushq	%rbp
	.cfi_def_cfa_offset 16
	.cfi_offset %rbp, -16
	movq	%rsp, %rbp
	.cfi_def_cfa_register %rbp
	subq	$560, %rsp
	movq	%rsi, -544(%rbp)
	movq	%rdx, -536(%rbp)
	movl	%edi, -516(%rbp)
	movq	%rsi, -304(%rbp)
	movq	%rdx, -296(%rbp)
Ltmp916:
	.loc	33 1730 24 prologue_end
	movl	-516(%rbp), %edi
	.loc	33 1730 15 is_stmt 0
	callq	__ZN4core4char7methods8len_utf817hf8951d29a5aba4d8E
	movq	-544(%rbp), %rsi
	movq	-536(%rbp), %rdx
	movq	%rax, -512(%rbp)
Ltmp917:
	.loc	33 1731 12 is_stmt 1
	movq	-512(%rbp), %rax
	.loc	33 1731 22 is_stmt 0
	movq	%rsi, -272(%rbp)
	movq	%rdx, -264(%rbp)
Ltmp918:
	.loc	3 30 25 is_stmt 1
	movq	%rsi, -256(%rbp)
	movq	%rdx, -248(%rbp)
Ltmp919:
	.loc	33 1731 11
	movq	%rax, -504(%rbp)
	movq	%rsi, -496(%rbp)
	movq	%rdx, -488(%rbp)
	.loc	33 1731 5 is_stmt 0
	movq	-504(%rbp), %rax
	decq	%rax
	movq	%rax, -528(%rbp)
	subq	$3, %rax
	ja	LBB131_1
	.loc	33 0 5
	movq	-528(%rbp), %rax
	leaq	LJTI131_0(%rip), %rcx
	movslq	(%rcx,%rax,4), %rax
	addq	%rcx, %rax
	jmpq	*%rax
LBB131_1:
	movq	-536(%rbp), %rcx
	leaq	-512(%rbp), %rsi
	.loc	33 1750 14 is_stmt 1
	movq	%rsi, -120(%rbp)
Ltmp920:
	.loc	23 328 23
	movq	%rsi, -112(%rbp)
	.loc	23 328 26 is_stmt 0
	movq	__ZN4core3fmt3num3imp54_$LT$impl$u20$core..fmt..Display$u20$for$u20$usize$GT$3fmt17ha5c925fcd7ed33faE@GOTPCREL(%rip), %rax
	movq	%rax, -104(%rbp)
Ltmp921:
	.loc	23 347 42 is_stmt 1
	movq	%rax, -96(%rbp)
	movq	-96(%rbp), %rdx
	.loc	23 347 68 is_stmt 0
	movq	%rsi, -88(%rbp)
	movq	-88(%rbp), %rsi
	.loc	23 347 18
	movq	%rsi, -384(%rbp)
	movq	%rdx, -376(%rbp)
	leaq	-516(%rbp), %rsi
Ltmp922:
	.loc	33 1750 14 is_stmt 1
	movq	%rsi, -80(%rbp)
Ltmp923:
	.loc	23 328 23
	movq	%rsi, -72(%rbp)
	.loc	23 328 26 is_stmt 0
	movq	__ZN4core3fmt3num53_$LT$impl$u20$core..fmt..UpperHex$u20$for$u20$u32$GT$3fmt17ha96bbefe8f663d11E@GOTPCREL(%rip), %rdx
	movq	%rdx, -64(%rbp)
Ltmp924:
	.loc	23 347 42 is_stmt 1
	movq	%rdx, -56(%rbp)
	movq	-56(%rbp), %rdx
	.loc	23 347 68 is_stmt 0
	movq	%rsi, -48(%rbp)
	movq	-48(%rbp), %rsi
	.loc	23 347 18
	movq	%rsi, -368(%rbp)
	movq	%rdx, -360(%rbp)
Ltmp925:
	.loc	33 1754 13 is_stmt 1
	movq	%rcx, -336(%rbp)
	leaq	-336(%rbp), %rcx
	.loc	33 1750 14
	movq	%rcx, -40(%rbp)
Ltmp926:
	.loc	23 328 23
	movq	%rcx, -32(%rbp)
	.loc	23 328 26 is_stmt 0
	movq	%rax, -24(%rbp)
Ltmp927:
	.loc	23 347 42 is_stmt 1
	movq	%rax, -16(%rbp)
	movq	-16(%rbp), %rax
	.loc	23 347 68 is_stmt 0
	movq	%rcx, -8(%rbp)
	movq	-8(%rbp), %rcx
	.loc	23 347 18
	movq	%rcx, -352(%rbp)
	movq	%rax, -344(%rbp)
Ltmp928:
	.loc	33 1750 14 is_stmt 1
	movq	-384(%rbp), %rcx
	movq	-376(%rbp), %rax
	movq	%rcx, -432(%rbp)
	movq	%rax, -424(%rbp)
	movq	-368(%rbp), %rcx
	movq	-360(%rbp), %rax
	movq	%rcx, -416(%rbp)
	movq	%rax, -408(%rbp)
	movq	-352(%rbp), %rcx
	movq	-344(%rbp), %rax
	movq	%rcx, -400(%rbp)
	movq	%rax, -392(%rbp)
	leaq	l___unnamed_21(%rip), %rsi
	leaq	-480(%rbp), %rdi
	movq	%rdi, -552(%rbp)
	leaq	-432(%rbp), %rcx
	movl	$3, %r8d
	movq	%r8, %rdx
	callq	__ZN4core3fmt9Arguments6new_v117h9b624b451cc04d58E
	movq	-552(%rbp), %rdi
	leaq	l___unnamed_22(%rip), %rsi
	callq	__ZN4core9panicking9panic_fmt17h9b5d807e24bcaaedE
LBB131_2:
	.loc	33 1732 13
	cmpq	$1, -488(%rbp)
	jae	LBB131_10
	jmp	LBB131_1
LBB131_3:
	.loc	33 1735 13
	cmpq	$2, -488(%rbp)
	jae	LBB131_9
	jmp	LBB131_1
LBB131_4:
	.loc	33 1739 13
	cmpq	$3, -488(%rbp)
	jae	LBB131_8
	jmp	LBB131_1
LBB131_5:
	.loc	33 1744 13
	cmpq	$4, -488(%rbp)
	jb	LBB131_1
	.loc	33 1744 14 is_stmt 0
	movq	-496(%rbp), %rsi
	movq	%rsi, -240(%rbp)
	.loc	33 1744 17
	movq	-496(%rbp), %rdx
	movq	%rdx, %rax
	addq	$1, %rax
	movq	%rax, -232(%rbp)
	.loc	33 1744 20
	movq	-496(%rbp), %rcx
	movq	%rcx, %rax
	addq	$2, %rax
	movq	%rax, -224(%rbp)
	.loc	33 1744 23
	movq	-496(%rbp), %rax
	movq	%rax, %rdi
	addq	$3, %rdi
	movq	%rdi, -216(%rbp)
Ltmp929:
	.loc	33 1745 19 is_stmt 1
	movl	-516(%rbp), %edi
	shrl	$18, %edi
	.loc	33 1745 18 is_stmt 0
	andl	$7, %edi
	.loc	33 1745 13
	orb	$-16, %dil
	movb	%dil, (%rsi)
	.loc	33 1746 19 is_stmt 1
	movl	-516(%rbp), %esi
	shrl	$12, %esi
	.loc	33 1746 18 is_stmt 0
	andl	$63, %esi
	.loc	33 1746 13
	orb	$-128, %sil
	movb	%sil, 1(%rdx)
	.loc	33 1747 19 is_stmt 1
	movl	-516(%rbp), %edx
	shrl	$6, %edx
	.loc	33 1747 18 is_stmt 0
	andl	$63, %edx
	.loc	33 1747 13
	orb	$-128, %dl
	movb	%dl, 2(%rcx)
	.loc	33 1748 19 is_stmt 1
	movl	-516(%rbp), %ecx
	.loc	33 1748 18 is_stmt 0
	andl	$63, %ecx
	.loc	33 1748 13
	orb	$-128, %cl
	movb	%cl, 3(%rax)
Ltmp930:
LBB131_7:
	.loc	33 0 13
	movq	-536(%rbp), %rcx
	movq	-544(%rbp), %rdx
	.loc	33 1757 10 is_stmt 1
	movq	%rdx, -160(%rbp)
	movq	%rcx, -152(%rbp)
	.loc	33 1757 16 is_stmt 0
	movq	-512(%rbp), %rax
	.loc	33 1757 14
	movq	%rax, -328(%rbp)
Ltmp931:
	.loc	3 30 9 is_stmt 1
	movq	-328(%rbp), %rax
	movq	%rax, -144(%rbp)
	.loc	3 30 25 is_stmt 0
	movq	%rdx, -136(%rbp)
	movq	%rcx, -128(%rbp)
Ltmp932:
	.loc	3 461 9 is_stmt 1
	movq	$0, -320(%rbp)
	movq	%rax, -312(%rbp)
	movq	-320(%rbp), %rdi
	movq	-312(%rbp), %rsi
	leaq	l___unnamed_23(%rip), %r8
	callq	__ZN106_$LT$core..ops..range..Range$LT$usize$GT$$u20$as$u20$core..slice..index..SliceIndex$LT$$u5b$T$u5d$$GT$$GT$9index_mut17h8a7ac6b295edfbdcE
Ltmp933:
	.loc	33 1758 2
	addq	$560, %rsp
	popq	%rbp
	retq
LBB131_8:
Ltmp934:
	.loc	33 1739 14
	movq	-496(%rbp), %rdx
	movq	%rdx, -208(%rbp)
	.loc	33 1739 17 is_stmt 0
	movq	-496(%rbp), %rcx
	movq	%rcx, %rax
	addq	$1, %rax
	movq	%rax, -200(%rbp)
	.loc	33 1739 20
	movq	-496(%rbp), %rax
	movq	%rax, %rsi
	addq	$2, %rsi
	movq	%rsi, -192(%rbp)
Ltmp935:
	.loc	33 1740 19 is_stmt 1
	movl	-516(%rbp), %esi
	shrl	$12, %esi
	.loc	33 1740 18 is_stmt 0
	andl	$15, %esi
	.loc	33 1740 13
	orb	$-32, %sil
	movb	%sil, (%rdx)
	.loc	33 1741 19 is_stmt 1
	movl	-516(%rbp), %edx
	shrl	$6, %edx
	.loc	33 1741 18 is_stmt 0
	andl	$63, %edx
	.loc	33 1741 13
	orb	$-128, %dl
	movb	%dl, 1(%rcx)
	.loc	33 1742 19 is_stmt 1
	movl	-516(%rbp), %ecx
	.loc	33 1742 18 is_stmt 0
	andl	$63, %ecx
	.loc	33 1742 13
	orb	$-128, %cl
	movb	%cl, 2(%rax)
Ltmp936:
	.loc	33 1743 9 is_stmt 1
	jmp	LBB131_7
LBB131_9:
	.loc	33 1735 14
	movq	-496(%rbp), %rcx
	movq	%rcx, -184(%rbp)
	.loc	33 1735 17 is_stmt 0
	movq	-496(%rbp), %rax
	movq	%rax, %rdx
	addq	$1, %rdx
	movq	%rdx, -176(%rbp)
Ltmp937:
	.loc	33 1736 19 is_stmt 1
	movl	-516(%rbp), %edx
	shrl	$6, %edx
	.loc	33 1736 18 is_stmt 0
	andl	$31, %edx
	.loc	33 1736 13
	orb	$-64, %dl
	movb	%dl, (%rcx)
	.loc	33 1737 19 is_stmt 1
	movl	-516(%rbp), %ecx
	.loc	33 1737 18 is_stmt 0
	andl	$63, %ecx
	.loc	33 1737 13
	orb	$-128, %cl
	movb	%cl, 1(%rax)
Ltmp938:
	.loc	33 1738 9 is_stmt 1
	jmp	LBB131_7
LBB131_10:
	.loc	33 1732 14
	movq	-496(%rbp), %rax
	movq	%rax, -168(%rbp)
Ltmp939:
	.loc	33 1733 18
	movl	-516(%rbp), %ecx
	.loc	33 1733 13 is_stmt 0
	movb	%cl, (%rax)
Ltmp940:
	.loc	33 1734 9 is_stmt 1
	jmp	LBB131_7
Ltmp941:
Lfunc_end131:
	.cfi_endproc
	.p2align	2, 0x90
	.data_region jt32
.set L131_0_set_2, LBB131_2-LJTI131_0
.set L131_0_set_3, LBB131_3-LJTI131_0
.set L131_0_set_4, LBB131_4-LJTI131_0
.set L131_0_set_5, LBB131_5-LJTI131_0
LJTI131_0:
	.long	L131_0_set_2
	.long	L131_0_set_3
	.long	L131_0_set_4
	.long	L131_0_set_5
	.end_data_region

	.p2align	4, 0x90
__ZN4core4char7methods8len_utf817hf8951d29a5aba4d8E:
Lfunc_begin132:
	.loc	33 1701 0
	.cfi_startproc
	pushq	%rbp
	.cfi_def_cfa_offset 16
	.cfi_offset %rbp, -16
	movq	%rsp, %rbp
	.cfi_def_cfa_register %rbp
	subq	$24, %rsp
	movl	%edi, -20(%rbp)
	movl	%edi, -4(%rbp)
Ltmp942:
	.loc	33 1702 8 prologue_end
	cmpl	$128, %edi
	jb	LBB132_2
	.loc	33 0 8 is_stmt 0
	movl	-20(%rbp), %eax
	.loc	33 1704 15 is_stmt 1
	cmpl	$2048, %eax
	jb	LBB132_5
	jmp	LBB132_4
LBB132_2:
	.loc	33 1703 9
	movq	$1, -16(%rbp)
LBB132_3:
	.loc	33 1711 2
	movq	-16(%rbp), %rax
	addq	$24, %rsp
	popq	%rbp
	retq
LBB132_4:
	.loc	33 0 2 is_stmt 0
	movl	-20(%rbp), %eax
	.loc	33 1706 15 is_stmt 1
	cmpl	$65536, %eax
	jb	LBB132_8
	jmp	LBB132_7
LBB132_5:
	.loc	33 1705 9
	movq	$2, -16(%rbp)
LBB132_6:
	.loc	33 1702 5
	jmp	LBB132_3
LBB132_7:
	.loc	33 1709 9
	movq	$4, -16(%rbp)
	.loc	33 1706 12
	jmp	LBB132_9
LBB132_8:
	.loc	33 1707 9
	movq	$3, -16(%rbp)
LBB132_9:
	.loc	33 1704 12
	jmp	LBB132_6
Ltmp943:
Lfunc_end132:
	.cfi_endproc

	.p2align	4, 0x90
__ZN4core4hint21unreachable_unchecked17h25ae7e558879064aE:
Lfunc_begin133:
	.file	35 "/rustc/2c8cc343237b8f7d5a3c3703e3a87f2eb2c54a74/library/core/src" "hint.rs"
	.loc	35 100 0
	.cfi_startproc
	pushq	%rbp
	.cfi_def_cfa_offset 16
	.cfi_offset %rbp, -16
	movq	%rsp, %rbp
	.cfi_def_cfa_register %rbp
Ltmp944:
	.loc	35 104 9 prologue_end
	ud2
Ltmp945:
Lfunc_end133:
	.cfi_endproc

	.globl	__ZN4core4iter5range101_$LT$impl$u20$core..iter..traits..iterator..Iterator$u20$for$u20$core..ops..range..Range$LT$A$GT$$GT$4next17h197d4228f1f0b46eE
	.p2align	4, 0x90
__ZN4core4iter5range101_$LT$impl$u20$core..iter..traits..iterator..Iterator$u20$for$u20$core..ops..range..Range$LT$A$GT$$GT$4next17h197d4228f1f0b46eE:
Lfunc_begin134:
	.loc	29 710 0
	.cfi_startproc
	pushq	%rbp
	.cfi_def_cfa_offset 16
	.cfi_offset %rbp, -16
	movq	%rsp, %rbp
	.cfi_def_cfa_register %rbp
	subq	$16, %rsp
	movq	%rdi, -8(%rbp)
Ltmp946:
	.loc	29 711 9 prologue_end
	callq	__ZN89_$LT$core..ops..range..Range$LT$T$GT$$u20$as$u20$core..iter..range..RangeIteratorImpl$GT$9spec_next17hcc6535e54fd96b4cE
	.loc	29 712 6
	addq	$16, %rsp
	popq	%rbp
	retq
Ltmp947:
Lfunc_end134:
	.cfi_endproc

	.globl	__ZN4core4iter5range101_$LT$impl$u20$core..iter..traits..iterator..Iterator$u20$for$u20$core..ops..range..Range$LT$A$GT$$GT$4next17hc3466cd4c8ab9077E
	.p2align	4, 0x90
__ZN4core4iter5range101_$LT$impl$u20$core..iter..traits..iterator..Iterator$u20$for$u20$core..ops..range..Range$LT$A$GT$$GT$4next17hc3466cd4c8ab9077E:
Lfunc_begin135:
	.loc	29 710 0
	.cfi_startproc
	pushq	%rbp
	.cfi_def_cfa_offset 16
	.cfi_offset %rbp, -16
	movq	%rsp, %rbp
	.cfi_def_cfa_register %rbp
	subq	$16, %rsp
	movq	%rdi, -8(%rbp)
Ltmp948:
	.loc	29 711 9 prologue_end
	callq	__ZN89_$LT$core..ops..range..Range$LT$T$GT$$u20$as$u20$core..iter..range..RangeIteratorImpl$GT$9spec_next17ha03901df17bc09ecE
	.loc	29 712 6
	addq	$16, %rsp
	popq	%rbp
	retq
Ltmp949:
Lfunc_end135:
	.cfi_endproc

	.globl	__ZN4core4sync6atomic10atomic_add17h84835f16cc9edcdbE
	.p2align	4, 0x90
__ZN4core4sync6atomic10atomic_add17h84835f16cc9edcdbE:
Lfunc_begin136:
	.file	36 "/rustc/2c8cc343237b8f7d5a3c3703e3a87f2eb2c54a74/library/core/src/sync" "atomic.rs"
	.loc	36 3052 0
	.cfi_startproc
	pushq	%rbp
	.cfi_def_cfa_offset 16
	.cfi_offset %rbp, -16
	movq	%rsp, %rbp
	.cfi_def_cfa_register %rbp
	subq	$56, %rsp
	movq	%rsi, -56(%rbp)
	movq	%rdi, -48(%rbp)
	movb	%dl, %al
	movb	%al, -25(%rbp)
	movq	%rdi, -16(%rbp)
	movq	%rsi, -8(%rbp)
Ltmp950:
	.loc	36 3055 15 prologue_end
	movzbl	-25(%rbp), %eax
	movq	%rax, -40(%rbp)
	.loc	36 0 15 is_stmt 0
	movq	-40(%rbp), %rax
	leaq	LJTI136_0(%rip), %rcx
	movslq	(%rcx,%rax,4), %rax
	addq	%rcx, %rax
	jmpq	*%rax
	.loc	36 3055 15
	ud2
LBB136_2:
	.loc	36 0 15
	movq	-48(%rbp), %rcx
	movq	-56(%rbp), %rax
	.loc	36 3056 24 is_stmt 1
	lock		xaddq	%rax, (%rcx)
	movq	%rax, -24(%rbp)
	.loc	36 3056 64 is_stmt 0
	jmp	LBB136_7
LBB136_3:
	.loc	36 0 64
	movq	-48(%rbp), %rcx
	movq	-56(%rbp), %rax
	.loc	36 3058 24 is_stmt 1
	lock		xaddq	%rax, (%rcx)
	movq	%rax, -24(%rbp)
	.loc	36 3058 64 is_stmt 0
	jmp	LBB136_7
LBB136_4:
	.loc	36 0 64
	movq	-48(%rbp), %rcx
	movq	-56(%rbp), %rax
	.loc	36 3057 24 is_stmt 1
	lock		xaddq	%rax, (%rcx)
	movq	%rax, -24(%rbp)
	.loc	36 3057 64 is_stmt 0
	jmp	LBB136_7
LBB136_5:
	.loc	36 0 64
	movq	-48(%rbp), %rcx
	movq	-56(%rbp), %rax
	.loc	36 3059 23 is_stmt 1
	lock		xaddq	%rax, (%rcx)
	movq	%rax, -24(%rbp)
	.loc	36 3059 62 is_stmt 0
	jmp	LBB136_7
LBB136_6:
	.loc	36 0 62
	movq	-48(%rbp), %rcx
	movq	-56(%rbp), %rax
	.loc	36 3060 23 is_stmt 1
	lock		xaddq	%rax, (%rcx)
	movq	%rax, -24(%rbp)
LBB136_7:
	.loc	36 3063 2
	movq	-24(%rbp), %rax
	addq	$56, %rsp
	popq	%rbp
	retq
Ltmp951:
Lfunc_end136:
	.cfi_endproc
	.p2align	2, 0x90
	.data_region jt32
.set L136_0_set_2, LBB136_2-LJTI136_0
.set L136_0_set_3, LBB136_3-LJTI136_0
.set L136_0_set_4, LBB136_4-LJTI136_0
.set L136_0_set_5, LBB136_5-LJTI136_0
.set L136_0_set_6, LBB136_6-LJTI136_0
LJTI136_0:
	.long	L136_0_set_2
	.long	L136_0_set_3
	.long	L136_0_set_4
	.long	L136_0_set_5
	.long	L136_0_set_6
	.end_data_region

	.globl	__ZN4core4sync6atomic10atomic_and17hc24692e4bd92c836E
	.p2align	4, 0x90
__ZN4core4sync6atomic10atomic_and17hc24692e4bd92c836E:
Lfunc_begin137:
	.loc	36 3155 0
	.cfi_startproc
	pushq	%rbp
	.cfi_def_cfa_offset 16
	.cfi_offset %rbp, -16
	movq	%rsp, %rbp
	.cfi_def_cfa_register %rbp
	subq	$136, %rsp
	movq	%rsi, -56(%rbp)
	movq	%rdi, -48(%rbp)
	movb	%dl, %al
	movb	%al, -25(%rbp)
	movq	%rdi, -16(%rbp)
	movq	%rsi, -8(%rbp)
Ltmp952:
	.loc	36 3158 15 prologue_end
	movzbl	-25(%rbp), %eax
	movq	%rax, -40(%rbp)
	.loc	36 0 15 is_stmt 0
	movq	-40(%rbp), %rax
	leaq	LJTI137_0(%rip), %rcx
	movslq	(%rcx,%rax,4), %rax
	addq	%rcx, %rax
	jmpq	*%rax
	.loc	36 3158 15
	ud2
LBB137_2:
	.loc	36 0 15
	movq	-48(%rbp), %rax
	.loc	36 3159 24 is_stmt 1
	movq	(%rax), %rax
	movq	%rax, -64(%rbp)
LBB137_3:
	.loc	36 0 24 is_stmt 0
	movq	-64(%rbp), %rax
	movq	-48(%rbp), %rcx
	movq	-56(%rbp), %rsi
	.loc	36 3159 24
	movq	%rax, %rdx
	andq	%rsi, %rdx
	lock		cmpxchgq	%rdx, (%rcx)
	sete	%cl
	movq	%rax, -72(%rbp)
	testb	$1, %cl
	movq	%rax, -64(%rbp)
	jne	LBB137_4
	jmp	LBB137_3
LBB137_4:
	.loc	36 0 24
	movq	-72(%rbp), %rax
	.loc	36 3159 24
	movq	%rax, -24(%rbp)
	.loc	36 3159 63
	jmp	LBB137_17
LBB137_5:
	.loc	36 0 63
	movq	-48(%rbp), %rax
	.loc	36 3161 24 is_stmt 1
	movq	(%rax), %rax
	movq	%rax, -80(%rbp)
LBB137_6:
	.loc	36 0 24 is_stmt 0
	movq	-80(%rbp), %rax
	movq	-48(%rbp), %rcx
	movq	-56(%rbp), %rsi
	.loc	36 3161 24
	movq	%rax, %rdx
	andq	%rsi, %rdx
	lock		cmpxchgq	%rdx, (%rcx)
	sete	%cl
	movq	%rax, -88(%rbp)
	testb	$1, %cl
	movq	%rax, -80(%rbp)
	jne	LBB137_7
	jmp	LBB137_6
LBB137_7:
	.loc	36 0 24
	movq	-88(%rbp), %rax
	.loc	36 3161 24
	movq	%rax, -24(%rbp)
	.loc	36 3161 63
	jmp	LBB137_17
LBB137_8:
	.loc	36 0 63
	movq	-48(%rbp), %rax
	.loc	36 3160 24 is_stmt 1
	movq	(%rax), %rax
	movq	%rax, -96(%rbp)
LBB137_9:
	.loc	36 0 24 is_stmt 0
	movq	-96(%rbp), %rax
	movq	-48(%rbp), %rcx
	movq	-56(%rbp), %rsi
	.loc	36 3160 24
	movq	%rax, %rdx
	andq	%rsi, %rdx
	lock		cmpxchgq	%rdx, (%rcx)
	sete	%cl
	movq	%rax, -104(%rbp)
	testb	$1, %cl
	movq	%rax, -96(%rbp)
	jne	LBB137_10
	jmp	LBB137_9
LBB137_10:
	.loc	36 0 24
	movq	-104(%rbp), %rax
	.loc	36 3160 24
	movq	%rax, -24(%rbp)
	.loc	36 3160 63
	jmp	LBB137_17
LBB137_11:
	.loc	36 0 63
	movq	-48(%rbp), %rax
	.loc	36 3162 23 is_stmt 1
	movq	(%rax), %rax
	movq	%rax, -112(%rbp)
LBB137_12:
	.loc	36 0 23 is_stmt 0
	movq	-112(%rbp), %rax
	movq	-48(%rbp), %rcx
	movq	-56(%rbp), %rsi
	.loc	36 3162 23
	movq	%rax, %rdx
	andq	%rsi, %rdx
	lock		cmpxchgq	%rdx, (%rcx)
	sete	%cl
	movq	%rax, -120(%rbp)
	testb	$1, %cl
	movq	%rax, -112(%rbp)
	jne	LBB137_13
	jmp	LBB137_12
LBB137_13:
	.loc	36 0 23
	movq	-120(%rbp), %rax
	.loc	36 3162 23
	movq	%rax, -24(%rbp)
	.loc	36 3162 61
	jmp	LBB137_17
LBB137_14:
	.loc	36 0 61
	movq	-48(%rbp), %rax
	.loc	36 3163 23 is_stmt 1
	movq	(%rax), %rax
	movq	%rax, -128(%rbp)
LBB137_15:
	.loc	36 0 23 is_stmt 0
	movq	-128(%rbp), %rax
	movq	-48(%rbp), %rcx
	movq	-56(%rbp), %rsi
	.loc	36 3163 23
	movq	%rax, %rdx
	andq	%rsi, %rdx
	lock		cmpxchgq	%rdx, (%rcx)
	sete	%cl
	movq	%rax, -136(%rbp)
	testb	$1, %cl
	movq	%rax, -128(%rbp)
	jne	LBB137_16
	jmp	LBB137_15
LBB137_16:
	.loc	36 0 23
	movq	-136(%rbp), %rax
	.loc	36 3163 23
	movq	%rax, -24(%rbp)
LBB137_17:
	.loc	36 3166 2 is_stmt 1
	movq	-24(%rbp), %rax
	addq	$136, %rsp
	popq	%rbp
	retq
Ltmp953:
Lfunc_end137:
	.cfi_endproc
	.p2align	2, 0x90
	.data_region jt32
.set L137_0_set_2, LBB137_2-LJTI137_0
.set L137_0_set_5, LBB137_5-LJTI137_0
.set L137_0_set_8, LBB137_8-LJTI137_0
.set L137_0_set_11, LBB137_11-LJTI137_0
.set L137_0_set_14, LBB137_14-LJTI137_0
LJTI137_0:
	.long	L137_0_set_2
	.long	L137_0_set_5
	.long	L137_0_set_8
	.long	L137_0_set_11
	.long	L137_0_set_14
	.end_data_region

	.globl	__ZN4core4sync6atomic10atomic_sub17h3c7d65e130671061E
	.p2align	4, 0x90
__ZN4core4sync6atomic10atomic_sub17h3c7d65e130671061E:
Lfunc_begin138:
	.loc	36 3069 0
	.cfi_startproc
	pushq	%rbp
	.cfi_def_cfa_offset 16
	.cfi_offset %rbp, -16
	movq	%rsp, %rbp
	.cfi_def_cfa_register %rbp
	subq	$56, %rsp
	movq	%rsi, -56(%rbp)
	movq	%rdi, -48(%rbp)
	movb	%dl, %al
	movb	%al, -25(%rbp)
	movq	%rdi, -16(%rbp)
	movq	%rsi, -8(%rbp)
Ltmp954:
	.loc	36 3072 15 prologue_end
	movzbl	-25(%rbp), %eax
	movq	%rax, -40(%rbp)
	.loc	36 0 15 is_stmt 0
	movq	-40(%rbp), %rax
	leaq	LJTI138_0(%rip), %rcx
	movslq	(%rcx,%rax,4), %rax
	addq	%rcx, %rax
	jmpq	*%rax
	.loc	36 3072 15
	ud2
LBB138_2:
	.loc	36 0 15
	movq	-48(%rbp), %rcx
	movq	-56(%rbp), %rax
	.loc	36 3073 24 is_stmt 1
	negq	%rax
	lock		xaddq	%rax, (%rcx)
	movq	%rax, -24(%rbp)
	.loc	36 3073 64 is_stmt 0
	jmp	LBB138_7
LBB138_3:
	.loc	36 0 64
	movq	-48(%rbp), %rcx
	movq	-56(%rbp), %rax
	.loc	36 3075 24 is_stmt 1
	negq	%rax
	lock		xaddq	%rax, (%rcx)
	movq	%rax, -24(%rbp)
	.loc	36 3075 64 is_stmt 0
	jmp	LBB138_7
LBB138_4:
	.loc	36 0 64
	movq	-48(%rbp), %rcx
	movq	-56(%rbp), %rax
	.loc	36 3074 24 is_stmt 1
	negq	%rax
	lock		xaddq	%rax, (%rcx)
	movq	%rax, -24(%rbp)
	.loc	36 3074 64 is_stmt 0
	jmp	LBB138_7
LBB138_5:
	.loc	36 0 64
	movq	-48(%rbp), %rcx
	movq	-56(%rbp), %rax
	.loc	36 3076 23 is_stmt 1
	negq	%rax
	lock		xaddq	%rax, (%rcx)
	movq	%rax, -24(%rbp)
	.loc	36 3076 62 is_stmt 0
	jmp	LBB138_7
LBB138_6:
	.loc	36 0 62
	movq	-48(%rbp), %rcx
	movq	-56(%rbp), %rax
	.loc	36 3077 23 is_stmt 1
	negq	%rax
	lock		xaddq	%rax, (%rcx)
	movq	%rax, -24(%rbp)
LBB138_7:
	.loc	36 3080 2
	movq	-24(%rbp), %rax
	addq	$56, %rsp
	popq	%rbp
	retq
Ltmp955:
Lfunc_end138:
	.cfi_endproc
	.p2align	2, 0x90
	.data_region jt32
.set L138_0_set_2, LBB138_2-LJTI138_0
.set L138_0_set_3, LBB138_3-LJTI138_0
.set L138_0_set_4, LBB138_4-LJTI138_0
.set L138_0_set_5, LBB138_5-LJTI138_0
.set L138_0_set_6, LBB138_6-LJTI138_0
LJTI138_0:
	.long	L138_0_set_2
	.long	L138_0_set_3
	.long	L138_0_set_4
	.long	L138_0_set_5
	.long	L138_0_set_6
	.end_data_region

	.p2align	4, 0x90
__ZN4core4sync6atomic11AtomicUsize21compare_exchange_weak17hd640aaf0ef7717e6E:
Lfunc_begin139:
	.loc	36 2341 0
	.cfi_startproc
	pushq	%rbp
	.cfi_def_cfa_offset 16
	.cfi_offset %rbp, -16
	movq	%rsp, %rbp
	.cfi_def_cfa_register %rbp
	subq	$48, %rsp
	movb	%r8b, %al
	movq	%rdi, -40(%rbp)
	movq	%rsi, -32(%rbp)
	movq	%rdx, -24(%rbp)
	movb	%cl, -10(%rbp)
	movb	%al, -9(%rbp)
Ltmp956:
	.loc	36 2348 50 prologue_end
	movq	%rdi, -8(%rbp)
	.loc	36 2348 21 is_stmt 0
	movzbl	%cl, %ecx
	movzbl	%al, %r8d
	callq	__ZN4core4sync6atomic28atomic_compare_exchange_weak17h3a4299913eef8a25E
	.loc	36 2350 14 is_stmt 1
	addq	$48, %rsp
	popq	%rbp
	retq
Ltmp957:
Lfunc_end139:
	.cfi_endproc

	.p2align	4, 0x90
__ZN4core4sync6atomic11AtomicUsize3new17h7cd23e6b0eefe82fE:
Lfunc_begin140:
	.loc	36 1956 0
	.cfi_startproc
	pushq	%rbp
	.cfi_def_cfa_offset 16
	.cfi_offset %rbp, -16
	movq	%rsp, %rbp
	.cfi_def_cfa_register %rbp
	subq	$32, %rsp
	movq	%rdi, -16(%rbp)
Ltmp958:
	.loc	36 1957 42 prologue_end
	movq	%rdi, -8(%rbp)
Ltmp959:
	.loc	22 1953 9
	movq	%rdi, -24(%rbp)
Ltmp960:
	.loc	36 1957 17
	movq	-24(%rbp), %rax
	movq	%rax, -32(%rbp)
	.loc	36 1958 14
	movq	-32(%rbp), %rax
	addq	$32, %rsp
	popq	%rbp
	retq
Ltmp961:
Lfunc_end140:
	.cfi_endproc

	.p2align	4, 0x90
__ZN4core4sync6atomic11AtomicUsize4load17h5ee9af722d3c8ff9E:
Lfunc_begin141:
	.loc	36 2125 0
	.cfi_startproc
	pushq	%rbp
	.cfi_def_cfa_offset 16
	.cfi_offset %rbp, -16
	movq	%rsp, %rbp
	.cfi_def_cfa_register %rbp
	subq	$32, %rsp
	movb	%sil, %al
	movq	%rdi, -24(%rbp)
	movb	%al, -9(%rbp)
Ltmp962:
	.loc	36 2127 38 prologue_end
	movq	%rdi, -8(%rbp)
	.loc	36 2127 26 is_stmt 0
	movzbl	%al, %esi
	callq	__ZN4core4sync6atomic11atomic_load17h6bdef0585d2f5988E
	.loc	36 2128 14 is_stmt 1
	addq	$32, %rsp
	popq	%rbp
	retq
Ltmp963:
Lfunc_end141:
	.cfi_endproc

	.p2align	4, 0x90
__ZN4core4sync6atomic11AtomicUsize9fetch_add17hd09eeef27cb4ba79E:
Lfunc_begin142:
	.loc	36 2377 0
	.cfi_startproc
	pushq	%rbp
	.cfi_def_cfa_offset 16
	.cfi_offset %rbp, -16
	movq	%rsp, %rbp
	.cfi_def_cfa_register %rbp
	subq	$32, %rsp
	movb	%dl, %al
	movq	%rdi, -32(%rbp)
	movq	%rsi, -24(%rbp)
	movb	%al, -9(%rbp)
Ltmp964:
	.loc	36 2379 37 prologue_end
	movq	%rdi, -8(%rbp)
	.loc	36 2379 26 is_stmt 0
	movzbl	%al, %edx
	callq	__ZN4core4sync6atomic10atomic_add17h84835f16cc9edcdbE
	.loc	36 2380 14 is_stmt 1
	addq	$32, %rsp
	popq	%rbp
	retq
Ltmp965:
Lfunc_end142:
	.cfi_endproc

	.p2align	4, 0x90
__ZN4core4sync6atomic11AtomicUsize9fetch_and17h0ea47e3eb0dd3e38E:
Lfunc_begin143:
	.loc	36 2440 0
	.cfi_startproc
	pushq	%rbp
	.cfi_def_cfa_offset 16
	.cfi_offset %rbp, -16
	movq	%rsp, %rbp
	.cfi_def_cfa_register %rbp
	subq	$32, %rsp
	movb	%dl, %al
	movq	%rdi, -32(%rbp)
	movq	%rsi, -24(%rbp)
	movb	%al, -9(%rbp)
Ltmp966:
	.loc	36 2442 37 prologue_end
	movq	%rdi, -8(%rbp)
	.loc	36 2442 26 is_stmt 0
	movzbl	%al, %edx
	callq	__ZN4core4sync6atomic10atomic_and17hc24692e4bd92c836E
	.loc	36 2443 14 is_stmt 1
	addq	$32, %rsp
	popq	%rbp
	retq
Ltmp967:
Lfunc_end143:
	.cfi_endproc

	.p2align	4, 0x90
__ZN4core4sync6atomic11AtomicUsize9fetch_sub17h68fbee7514e5a0eeE:
Lfunc_begin144:
	.loc	36 2407 0
	.cfi_startproc
	pushq	%rbp
	.cfi_def_cfa_offset 16
	.cfi_offset %rbp, -16
	movq	%rsp, %rbp
	.cfi_def_cfa_register %rbp
	subq	$32, %rsp
	movb	%dl, %al
	movq	%rdi, -32(%rbp)
	movq	%rsi, -24(%rbp)
	movb	%al, -9(%rbp)
Ltmp968:
	.loc	36 2409 37 prologue_end
	movq	%rdi, -8(%rbp)
	.loc	36 2409 26 is_stmt 0
	movzbl	%al, %edx
	callq	__ZN4core4sync6atomic10atomic_sub17h3c7d65e130671061E
	.loc	36 2410 14 is_stmt 1
	addq	$32, %rsp
	popq	%rbp
	retq
Ltmp969:
Lfunc_end144:
	.cfi_endproc

	.globl	__ZN4core4sync6atomic11atomic_load17h54c88c2fa147656eE
	.p2align	4, 0x90
__ZN4core4sync6atomic11atomic_load17h54c88c2fa147656eE:
Lfunc_begin145:
	.loc	36 3019 0
	.cfi_startproc
	pushq	%rbp
	.cfi_def_cfa_offset 16
	.cfi_offset %rbp, -16
	movq	%rsp, %rbp
	.cfi_def_cfa_register %rbp
	subq	$160, %rsp
	movq	%rdi, -136(%rbp)
	movb	%sil, %al
	movb	%al, -113(%rbp)
	movq	%rdi, -8(%rbp)
Ltmp970:
	.loc	36 3022 15 prologue_end
	movzbl	-113(%rbp), %eax
	movq	%rax, -128(%rbp)
	.loc	36 0 15 is_stmt 0
	movq	-128(%rbp), %rax
	leaq	LJTI145_0(%rip), %rcx
	movslq	(%rcx,%rax,4), %rax
	addq	%rcx, %rax
	jmpq	*%rax
	.loc	36 3022 15
	ud2
LBB145_2:
	.loc	36 0 15
	movq	-136(%rbp), %rax
	.loc	36 3023 24 is_stmt 1
	movq	(%rax), %rax
	movq	%rax, -112(%rbp)
	.loc	36 3023 59 is_stmt 0
	jmp	LBB145_7
LBB145_3:
	.loc	36 3026 24 is_stmt 1
	leaq	l___unnamed_24(%rip), %rsi
	leaq	l___unnamed_15(%rip), %rcx
	xorl	%eax, %eax
	movl	%eax, %r8d
	leaq	-104(%rbp), %rdi
	movq	%rdi, -144(%rbp)
	movl	$1, %edx
	callq	__ZN4core3fmt9Arguments6new_v117h9b624b451cc04d58E
	movq	-144(%rbp), %rdi
	leaq	l___unnamed_25(%rip), %rsi
	callq	__ZN4core9panicking9panic_fmt17h9b5d807e24bcaaedE
LBB145_4:
	.loc	36 0 24 is_stmt 0
	movq	-136(%rbp), %rax
	.loc	36 3024 24 is_stmt 1
	movq	(%rax), %rax
	movq	%rax, -112(%rbp)
	.loc	36 3024 59 is_stmt 0
	jmp	LBB145_7
LBB145_5:
	.loc	36 3027 23 is_stmt 1
	leaq	l___unnamed_26(%rip), %rsi
	leaq	l___unnamed_15(%rip), %rcx
	xorl	%eax, %eax
	movl	%eax, %r8d
	leaq	-56(%rbp), %rdi
	movq	%rdi, -152(%rbp)
	movl	$1, %edx
	callq	__ZN4core3fmt9Arguments6new_v117h9b624b451cc04d58E
	movq	-152(%rbp), %rdi
	leaq	l___unnamed_27(%rip), %rsi
	callq	__ZN4core9panicking9panic_fmt17h9b5d807e24bcaaedE
LBB145_6:
	.loc	36 0 23 is_stmt 0
	movq	-136(%rbp), %rax
	.loc	36 3025 23 is_stmt 1
	movq	(%rax), %rax
	movq	%rax, -112(%rbp)
LBB145_7:
	.loc	36 3030 2
	movq	-112(%rbp), %rax
	addq	$160, %rsp
	popq	%rbp
	retq
Ltmp971:
Lfunc_end145:
	.cfi_endproc
	.p2align	2, 0x90
	.data_region jt32
.set L145_0_set_2, LBB145_2-LJTI145_0
.set L145_0_set_3, LBB145_3-LJTI145_0
.set L145_0_set_4, LBB145_4-LJTI145_0
.set L145_0_set_5, LBB145_5-LJTI145_0
.set L145_0_set_6, LBB145_6-LJTI145_0
LJTI145_0:
	.long	L145_0_set_2
	.long	L145_0_set_3
	.long	L145_0_set_4
	.long	L145_0_set_5
	.long	L145_0_set_6
	.end_data_region

	.globl	__ZN4core4sync6atomic11atomic_load17h6bdef0585d2f5988E
	.p2align	4, 0x90
__ZN4core4sync6atomic11atomic_load17h6bdef0585d2f5988E:
Lfunc_begin146:
	.loc	36 3019 0
	.cfi_startproc
	pushq	%rbp
	.cfi_def_cfa_offset 16
	.cfi_offset %rbp, -16
	movq	%rsp, %rbp
	.cfi_def_cfa_register %rbp
	subq	$160, %rsp
	movq	%rdi, -136(%rbp)
	movb	%sil, %al
	movb	%al, -113(%rbp)
	movq	%rdi, -8(%rbp)
Ltmp972:
	.loc	36 3022 15 prologue_end
	movzbl	-113(%rbp), %eax
	movq	%rax, -128(%rbp)
	.loc	36 0 15 is_stmt 0
	movq	-128(%rbp), %rax
	leaq	LJTI146_0(%rip), %rcx
	movslq	(%rcx,%rax,4), %rax
	addq	%rcx, %rax
	jmpq	*%rax
	.loc	36 3022 15
	ud2
LBB146_2:
	.loc	36 0 15
	movq	-136(%rbp), %rax
	.loc	36 3023 24 is_stmt 1
	movq	(%rax), %rax
	movq	%rax, -112(%rbp)
	.loc	36 3023 59 is_stmt 0
	jmp	LBB146_7
LBB146_3:
	.loc	36 3026 24 is_stmt 1
	leaq	l___unnamed_24(%rip), %rsi
	leaq	l___unnamed_15(%rip), %rcx
	xorl	%eax, %eax
	movl	%eax, %r8d
	leaq	-104(%rbp), %rdi
	movq	%rdi, -144(%rbp)
	movl	$1, %edx
	callq	__ZN4core3fmt9Arguments6new_v117h9b624b451cc04d58E
	movq	-144(%rbp), %rdi
	leaq	l___unnamed_25(%rip), %rsi
	callq	__ZN4core9panicking9panic_fmt17h9b5d807e24bcaaedE
LBB146_4:
	.loc	36 0 24 is_stmt 0
	movq	-136(%rbp), %rax
	.loc	36 3024 24 is_stmt 1
	movq	(%rax), %rax
	movq	%rax, -112(%rbp)
	.loc	36 3024 59 is_stmt 0
	jmp	LBB146_7
LBB146_5:
	.loc	36 3027 23 is_stmt 1
	leaq	l___unnamed_26(%rip), %rsi
	leaq	l___unnamed_15(%rip), %rcx
	xorl	%eax, %eax
	movl	%eax, %r8d
	leaq	-56(%rbp), %rdi
	movq	%rdi, -152(%rbp)
	movl	$1, %edx
	callq	__ZN4core3fmt9Arguments6new_v117h9b624b451cc04d58E
	movq	-152(%rbp), %rdi
	leaq	l___unnamed_27(%rip), %rsi
	callq	__ZN4core9panicking9panic_fmt17h9b5d807e24bcaaedE
LBB146_6:
	.loc	36 0 23 is_stmt 0
	movq	-136(%rbp), %rax
	.loc	36 3025 23 is_stmt 1
	movq	(%rax), %rax
	movq	%rax, -112(%rbp)
LBB146_7:
	.loc	36 3030 2
	movq	-112(%rbp), %rax
	addq	$160, %rsp
	popq	%rbp
	retq
Ltmp973:
Lfunc_end146:
	.cfi_endproc
	.p2align	2, 0x90
	.data_region jt32
.set L146_0_set_2, LBB146_2-LJTI146_0
.set L146_0_set_3, LBB146_3-LJTI146_0
.set L146_0_set_4, LBB146_4-LJTI146_0
.set L146_0_set_5, LBB146_5-LJTI146_0
.set L146_0_set_6, LBB146_6-LJTI146_0
LJTI146_0:
	.long	L146_0_set_2
	.long	L146_0_set_3
	.long	L146_0_set_4
	.long	L146_0_set_5
	.long	L146_0_set_6
	.end_data_region

	.globl	__ZN4core4sync6atomic12atomic_store17hc20f2034be2cc063E
	.p2align	4, 0x90
__ZN4core4sync6atomic12atomic_store17hc20f2034be2cc063E:
Lfunc_begin147:
	.loc	36 3004 0
	.cfi_startproc
	pushq	%rbp
	.cfi_def_cfa_offset 16
	.cfi_offset %rbp, -16
	movq	%rsp, %rbp
	.cfi_def_cfa_register %rbp
	subq	$160, %rsp
	movq	%rsi, -144(%rbp)
	movq	%rdi, -136(%rbp)
	movb	%dl, %al
	movb	%al, -113(%rbp)
	movq	%rdi, -16(%rbp)
	movq	%rsi, -8(%rbp)
Ltmp974:
	.loc	36 3007 15 prologue_end
	movzbl	-113(%rbp), %eax
	movq	%rax, -128(%rbp)
	.loc	36 0 15 is_stmt 0
	movq	-128(%rbp), %rax
	leaq	LJTI147_0(%rip), %rcx
	movslq	(%rcx,%rax,4), %rax
	addq	%rcx, %rax
	jmpq	*%rax
	.loc	36 3007 15
	ud2
LBB147_2:
	.loc	36 0 15
	movq	-136(%rbp), %rax
	movq	-144(%rbp), %rcx
	.loc	36 3008 24 is_stmt 1
	movq	%rcx, (%rax)
	.loc	36 3008 65 is_stmt 0
	jmp	LBB147_7
LBB147_3:
	.loc	36 0 65
	movq	-136(%rbp), %rax
	movq	-144(%rbp), %rcx
	.loc	36 3009 24 is_stmt 1
	movq	%rcx, (%rax)
	.loc	36 3009 65 is_stmt 0
	jmp	LBB147_7
LBB147_4:
	.loc	36 3011 24 is_stmt 1
	leaq	l___unnamed_28(%rip), %rsi
	leaq	l___unnamed_15(%rip), %rcx
	xorl	%eax, %eax
	movl	%eax, %r8d
	leaq	-112(%rbp), %rdi
	movq	%rdi, -152(%rbp)
	movl	$1, %edx
	callq	__ZN4core3fmt9Arguments6new_v117h9b624b451cc04d58E
	movq	-152(%rbp), %rdi
	leaq	l___unnamed_29(%rip), %rsi
	callq	__ZN4core9panicking9panic_fmt17h9b5d807e24bcaaedE
LBB147_5:
	.loc	36 3012 23
	leaq	l___unnamed_30(%rip), %rsi
	leaq	l___unnamed_15(%rip), %rcx
	xorl	%eax, %eax
	movl	%eax, %r8d
	leaq	-64(%rbp), %rdi
	movq	%rdi, -160(%rbp)
	movl	$1, %edx
	callq	__ZN4core3fmt9Arguments6new_v117h9b624b451cc04d58E
	movq	-160(%rbp), %rdi
	leaq	l___unnamed_31(%rip), %rsi
	callq	__ZN4core9panicking9panic_fmt17h9b5d807e24bcaaedE
LBB147_6:
	.loc	36 0 23 is_stmt 0
	movq	-136(%rbp), %rcx
	movq	-144(%rbp), %rax
	.loc	36 3010 23 is_stmt 1
	xchgq	%rax, (%rcx)
LBB147_7:
	.loc	36 3015 2
	addq	$160, %rsp
	popq	%rbp
	retq
Ltmp975:
Lfunc_end147:
	.cfi_endproc
	.p2align	2, 0x90
	.data_region jt32
.set L147_0_set_2, LBB147_2-LJTI147_0
.set L147_0_set_3, LBB147_3-LJTI147_0
.set L147_0_set_4, LBB147_4-LJTI147_0
.set L147_0_set_5, LBB147_5-LJTI147_0
.set L147_0_set_6, LBB147_6-LJTI147_0
LJTI147_0:
	.long	L147_0_set_2
	.long	L147_0_set_3
	.long	L147_0_set_4
	.long	L147_0_set_5
	.long	L147_0_set_6
	.end_data_region

	.globl	__ZN4core4sync6atomic18AtomicPtr$LT$T$GT$16compare_exchange17ha49cefcae8221699E
	.p2align	4, 0x90
__ZN4core4sync6atomic18AtomicPtr$LT$T$GT$16compare_exchange17ha49cefcae8221699E:
Lfunc_begin148:
	.loc	36 1347 0
	.cfi_startproc
	pushq	%rbp
	.cfi_def_cfa_offset 16
	.cfi_offset %rbp, -16
	movq	%rsp, %rbp
	.cfi_def_cfa_register %rbp
	subq	$48, %rsp
	movb	%r8b, %al
	movq	%rdi, -40(%rbp)
	movq	%rsi, -32(%rbp)
	movq	%rdx, -24(%rbp)
	movb	%cl, -10(%rbp)
	movb	%al, -9(%rbp)
Ltmp976:
	.loc	36 1355 42 prologue_end
	movq	%rdi, -8(%rbp)
	.loc	36 1355 18 is_stmt 0
	movzbl	%cl, %ecx
	movzbl	%al, %r8d
	callq	__ZN4core4sync6atomic23atomic_compare_exchange17hd7f9a8f4e80d7bddE
	.loc	36 1356 6 is_stmt 1
	addq	$48, %rsp
	popq	%rbp
	retq
Ltmp977:
Lfunc_end148:
	.cfi_endproc

	.globl	__ZN4core4sync6atomic18AtomicPtr$LT$T$GT$4load17h2ddad4f475d10571E
	.p2align	4, 0x90
__ZN4core4sync6atomic18AtomicPtr$LT$T$GT$4load17h2ddad4f475d10571E:
Lfunc_begin149:
	.loc	36 1189 0
	.cfi_startproc
	pushq	%rbp
	.cfi_def_cfa_offset 16
	.cfi_offset %rbp, -16
	movq	%rsp, %rbp
	.cfi_def_cfa_register %rbp
	subq	$32, %rsp
	movb	%sil, %al
	movq	%rdi, -24(%rbp)
	movb	%al, -9(%rbp)
Ltmp978:
	.loc	36 1191 30 prologue_end
	movq	%rdi, -8(%rbp)
	.loc	36 1191 18 is_stmt 0
	movzbl	%al, %esi
	callq	__ZN4core4sync6atomic11atomic_load17h54c88c2fa147656eE
	.loc	36 1192 6 is_stmt 1
	addq	$32, %rsp
	popq	%rbp
	retq
Ltmp979:
Lfunc_end149:
	.cfi_endproc

	.globl	__ZN4core4sync6atomic18AtomicPtr$LT$T$GT$5store17h861070a872764118E
	.p2align	4, 0x90
__ZN4core4sync6atomic18AtomicPtr$LT$T$GT$5store17h861070a872764118E:
Lfunc_begin150:
	.loc	36 1218 0
	.cfi_startproc
	pushq	%rbp
	.cfi_def_cfa_offset 16
	.cfi_offset %rbp, -16
	movq	%rsp, %rbp
	.cfi_def_cfa_register %rbp
	subq	$32, %rsp
	movb	%dl, %al
	movq	%rdi, -32(%rbp)
	movq	%rsi, -24(%rbp)
	movb	%al, -9(%rbp)
Ltmp980:
	.loc	36 1221 26 prologue_end
	movq	%rdi, -8(%rbp)
	.loc	36 1221 13 is_stmt 0
	movzbl	%al, %edx
	callq	__ZN4core4sync6atomic12atomic_store17hc20f2034be2cc063E
	.loc	36 1223 6 is_stmt 1
	addq	$32, %rsp
	popq	%rbp
	retq
Ltmp981:
Lfunc_end150:
	.cfi_endproc

	.globl	__ZN4core4sync6atomic23atomic_compare_exchange17hd7f9a8f4e80d7bddE
	.p2align	4, 0x90
__ZN4core4sync6atomic23atomic_compare_exchange17hd7f9a8f4e80d7bddE:
Lfunc_begin151:
	.loc	36 3085 0
	.cfi_startproc
	pushq	%rbp
	.cfi_def_cfa_offset 16
	.cfi_offset %rbp, -16
	movq	%rsp, %rbp
	.cfi_def_cfa_register %rbp
	subq	$288, %rsp
	movq	%rdx, -216(%rbp)
	movq	%rsi, -208(%rbp)
	movq	%rdi, -200(%rbp)
	movb	%r8b, %al
	movq	%rdi, -48(%rbp)
	movq	%rsi, -40(%rbp)
	movq	%rdx, -32(%rbp)
	movb	%cl, -18(%rbp)
	movb	%al, -17(%rbp)
Ltmp982:
	.loc	36 3094 15 prologue_end
	movb	%cl, -152(%rbp)
	movb	%al, -151(%rbp)
	movzbl	-152(%rbp), %eax
	movq	%rax, -192(%rbp)
	.loc	36 0 15 is_stmt 0
	movq	-192(%rbp), %rax
	leaq	LJTI151_0(%rip), %rcx
	movslq	(%rcx,%rax,4), %rax
	addq	%rcx, %rax
	jmpq	*%rax
	.loc	36 3094 9
	ud2
LBB151_2:
	.loc	36 3094 15
	movzbl	-151(%rbp), %eax
	movq	%rax, -224(%rbp)
	testq	%rax, %rax
	.loc	36 3094 9
	je	LBB151_21
	jmp	LBB151_38
LBB151_38:
	.loc	36 0 9
	movq	-224(%rbp), %rax
	.loc	36 3094 9
	subq	$2, %rax
	je	LBB151_22
	jmp	LBB151_39
LBB151_39:
	.loc	36 0 9
	movq	-224(%rbp), %rax
	.loc	36 3094 9
	subq	$4, %rax
	je	LBB151_23
	jmp	LBB151_7
LBB151_3:
	.loc	36 3094 15
	movzbl	-151(%rbp), %eax
	movq	%rax, -232(%rbp)
	testq	%rax, %rax
	.loc	36 3094 9
	je	LBB151_18
	jmp	LBB151_36
LBB151_36:
	.loc	36 0 9
	movq	-232(%rbp), %rax
	.loc	36 3094 9
	subq	$2, %rax
	je	LBB151_19
	jmp	LBB151_37
LBB151_37:
	.loc	36 0 9
	movq	-232(%rbp), %rax
	.loc	36 3094 9
	subq	$4, %rax
	je	LBB151_20
	jmp	LBB151_7
LBB151_4:
	.loc	36 3094 15
	movzbl	-151(%rbp), %eax
	movq	%rax, -240(%rbp)
	testq	%rax, %rax
	.loc	36 3094 9
	je	LBB151_15
	jmp	LBB151_34
LBB151_34:
	.loc	36 0 9
	movq	-240(%rbp), %rax
	.loc	36 3094 9
	subq	$2, %rax
	je	LBB151_16
	jmp	LBB151_35
LBB151_35:
	.loc	36 0 9
	movq	-240(%rbp), %rax
	.loc	36 3094 9
	subq	$4, %rax
	je	LBB151_17
	jmp	LBB151_7
LBB151_5:
	.loc	36 3094 15
	movzbl	-151(%rbp), %eax
	movq	%rax, -248(%rbp)
	testq	%rax, %rax
	.loc	36 3094 9
	je	LBB151_12
	jmp	LBB151_32
LBB151_32:
	.loc	36 0 9
	movq	-248(%rbp), %rax
	.loc	36 3094 9
	subq	$2, %rax
	je	LBB151_13
	jmp	LBB151_33
LBB151_33:
	.loc	36 0 9
	movq	-248(%rbp), %rax
	.loc	36 3094 9
	subq	$4, %rax
	je	LBB151_14
	jmp	LBB151_7
LBB151_6:
	.loc	36 3094 15
	movzbl	-151(%rbp), %eax
	movq	%rax, -256(%rbp)
	testq	%rax, %rax
	.loc	36 3094 9
	je	LBB151_8
	jmp	LBB151_30
LBB151_30:
	.loc	36 0 9
	movq	-256(%rbp), %rax
	.loc	36 3094 9
	subq	$2, %rax
	je	LBB151_9
	jmp	LBB151_31
LBB151_31:
	.loc	36 0 9
	movq	-256(%rbp), %rax
	.loc	36 3094 9
	subq	$4, %rax
	je	LBB151_10
	jmp	LBB151_7
LBB151_7:
	.loc	36 3094 15
	movzbl	-151(%rbp), %eax
	.loc	36 3094 9
	cmpq	$1, %rax
	je	LBB151_24
	jmp	LBB151_25
LBB151_8:
	.loc	36 0 9
	movq	-200(%rbp), %rcx
	movq	-216(%rbp), %rdx
	movq	-208(%rbp), %rax
	.loc	36 3107 34 is_stmt 1
	lock		cmpxchgq	%rdx, (%rcx)
	movq	%rax, %rcx
	sete	%al
	andb	$1, %al
	movq	%rcx, -168(%rbp)
	movb	%al, -160(%rbp)
	.loc	36 3107 87 is_stmt 0
	jmp	LBB151_11
LBB151_9:
	.loc	36 0 87
	movq	-200(%rbp), %rcx
	movq	-216(%rbp), %rdx
	movq	-208(%rbp), %rax
	.loc	36 3108 34 is_stmt 1
	lock		cmpxchgq	%rdx, (%rcx)
	movq	%rax, %rcx
	sete	%al
	andb	$1, %al
	movq	%rcx, -168(%rbp)
	movb	%al, -160(%rbp)
	.loc	36 3108 87 is_stmt 0
	jmp	LBB151_11
LBB151_10:
	.loc	36 0 87
	movq	-200(%rbp), %rcx
	movq	-216(%rbp), %rdx
	movq	-208(%rbp), %rax
	.loc	36 3109 33 is_stmt 1
	lock		cmpxchgq	%rdx, (%rcx)
	movq	%rax, %rcx
	sete	%al
	andb	$1, %al
	movq	%rcx, -168(%rbp)
	movb	%al, -160(%rbp)
LBB151_11:
	.loc	36 3093 10
	movq	-168(%rbp), %rax
	movq	%rax, -264(%rbp)
	movq	%rax, -16(%rbp)
	.loc	36 3093 15 is_stmt 0
	movb	-160(%rbp), %al
	movb	%al, %cl
	andb	$1, %cl
	movb	%cl, -1(%rbp)
Ltmp983:
	.loc	36 3114 8 is_stmt 1
	testb	$1, %al
	jne	LBB151_27
	jmp	LBB151_26
Ltmp984:
LBB151_12:
	.loc	36 0 8 is_stmt 0
	movq	-200(%rbp), %rcx
	movq	-216(%rbp), %rdx
	movq	-208(%rbp), %rax
	.loc	36 3104 34 is_stmt 1
	lock		cmpxchgq	%rdx, (%rcx)
	movq	%rax, %rcx
	sete	%al
	andb	$1, %al
	movq	%rcx, -168(%rbp)
	movb	%al, -160(%rbp)
	.loc	36 3104 87 is_stmt 0
	jmp	LBB151_11
LBB151_13:
	.loc	36 0 87
	movq	-200(%rbp), %rcx
	movq	-216(%rbp), %rdx
	movq	-208(%rbp), %rax
	.loc	36 3105 34 is_stmt 1
	lock		cmpxchgq	%rdx, (%rcx)
	movq	%rax, %rcx
	sete	%al
	andb	$1, %al
	movq	%rcx, -168(%rbp)
	movb	%al, -160(%rbp)
	.loc	36 3105 87 is_stmt 0
	jmp	LBB151_11
LBB151_14:
	.loc	36 0 87
	movq	-200(%rbp), %rcx
	movq	-216(%rbp), %rdx
	movq	-208(%rbp), %rax
	.loc	36 3106 33 is_stmt 1
	lock		cmpxchgq	%rdx, (%rcx)
	movq	%rax, %rcx
	sete	%al
	andb	$1, %al
	movq	%rcx, -168(%rbp)
	movb	%al, -160(%rbp)
	.loc	36 3106 85 is_stmt 0
	jmp	LBB151_11
LBB151_15:
	.loc	36 0 85
	movq	-200(%rbp), %rcx
	movq	-216(%rbp), %rdx
	movq	-208(%rbp), %rax
	.loc	36 3098 35 is_stmt 1
	lock		cmpxchgq	%rdx, (%rcx)
	movq	%rax, %rcx
	sete	%al
	andb	$1, %al
	movq	%rcx, -168(%rbp)
	movb	%al, -160(%rbp)
	.loc	36 3098 89 is_stmt 0
	jmp	LBB151_11
LBB151_16:
	.loc	36 0 89
	movq	-200(%rbp), %rcx
	movq	-216(%rbp), %rdx
	movq	-208(%rbp), %rax
	.loc	36 3099 35 is_stmt 1
	lock		cmpxchgq	%rdx, (%rcx)
	movq	%rax, %rcx
	sete	%al
	andb	$1, %al
	movq	%rcx, -168(%rbp)
	movb	%al, -160(%rbp)
	.loc	36 3099 89 is_stmt 0
	jmp	LBB151_11
LBB151_17:
	.loc	36 0 89
	movq	-200(%rbp), %rcx
	movq	-216(%rbp), %rdx
	movq	-208(%rbp), %rax
	.loc	36 3100 34 is_stmt 1
	lock		cmpxchgq	%rdx, (%rcx)
	movq	%rax, %rcx
	sete	%al
	andb	$1, %al
	movq	%rcx, -168(%rbp)
	movb	%al, -160(%rbp)
	.loc	36 3100 87 is_stmt 0
	jmp	LBB151_11
LBB151_18:
	.loc	36 0 87
	movq	-200(%rbp), %rcx
	movq	-216(%rbp), %rdx
	movq	-208(%rbp), %rax
	.loc	36 3101 35 is_stmt 1
	lock		cmpxchgq	%rdx, (%rcx)
	movq	%rax, %rcx
	sete	%al
	andb	$1, %al
	movq	%rcx, -168(%rbp)
	movb	%al, -160(%rbp)
	.loc	36 3101 89 is_stmt 0
	jmp	LBB151_11
LBB151_19:
	.loc	36 0 89
	movq	-200(%rbp), %rcx
	movq	-216(%rbp), %rdx
	movq	-208(%rbp), %rax
	.loc	36 3102 35 is_stmt 1
	lock		cmpxchgq	%rdx, (%rcx)
	movq	%rax, %rcx
	sete	%al
	andb	$1, %al
	movq	%rcx, -168(%rbp)
	movb	%al, -160(%rbp)
	.loc	36 3102 89 is_stmt 0
	jmp	LBB151_11
LBB151_20:
	.loc	36 0 89
	movq	-200(%rbp), %rcx
	movq	-216(%rbp), %rdx
	movq	-208(%rbp), %rax
	.loc	36 3103 34 is_stmt 1
	lock		cmpxchgq	%rdx, (%rcx)
	movq	%rax, %rcx
	sete	%al
	andb	$1, %al
	movq	%rcx, -168(%rbp)
	movb	%al, -160(%rbp)
	.loc	36 3103 87 is_stmt 0
	jmp	LBB151_11
LBB151_21:
	.loc	36 0 87
	movq	-200(%rbp), %rcx
	movq	-216(%rbp), %rdx
	movq	-208(%rbp), %rax
	.loc	36 3095 35 is_stmt 1
	lock		cmpxchgq	%rdx, (%rcx)
	movq	%rax, %rcx
	sete	%al
	andb	$1, %al
	movq	%rcx, -168(%rbp)
	movb	%al, -160(%rbp)
	.loc	36 3095 89 is_stmt 0
	jmp	LBB151_11
LBB151_22:
	.loc	36 0 89
	movq	-200(%rbp), %rcx
	movq	-216(%rbp), %rdx
	movq	-208(%rbp), %rax
	.loc	36 3096 35 is_stmt 1
	lock		cmpxchgq	%rdx, (%rcx)
	movq	%rax, %rcx
	sete	%al
	andb	$1, %al
	movq	%rcx, -168(%rbp)
	movb	%al, -160(%rbp)
	.loc	36 3096 89 is_stmt 0
	jmp	LBB151_11
LBB151_23:
	.loc	36 0 89
	movq	-200(%rbp), %rcx
	movq	-216(%rbp), %rdx
	movq	-208(%rbp), %rax
	.loc	36 3097 34 is_stmt 1
	lock		cmpxchgq	%rdx, (%rcx)
	movq	%rax, %rcx
	sete	%al
	andb	$1, %al
	movq	%rcx, -168(%rbp)
	movb	%al, -160(%rbp)
	.loc	36 3097 87 is_stmt 0
	jmp	LBB151_11
LBB151_24:
	.loc	36 3111 29 is_stmt 1
	leaq	l___unnamed_32(%rip), %rsi
	leaq	l___unnamed_15(%rip), %rcx
	xorl	%eax, %eax
	movl	%eax, %r8d
	leaq	-96(%rbp), %rdi
	movq	%rdi, -272(%rbp)
	movl	$1, %edx
	callq	__ZN4core3fmt9Arguments6new_v117h9b624b451cc04d58E
	movq	-272(%rbp), %rdi
	leaq	l___unnamed_33(%rip), %rsi
	callq	__ZN4core9panicking9panic_fmt17h9b5d807e24bcaaedE
LBB151_25:
	.loc	36 3110 28
	leaq	l___unnamed_34(%rip), %rsi
	leaq	l___unnamed_15(%rip), %rcx
	xorl	%eax, %eax
	movl	%eax, %r8d
	leaq	-144(%rbp), %rdi
	movq	%rdi, -280(%rbp)
	movl	$1, %edx
	callq	__ZN4core3fmt9Arguments6new_v117h9b624b451cc04d58E
	movq	-280(%rbp), %rdi
	leaq	l___unnamed_35(%rip), %rsi
	callq	__ZN4core9panicking9panic_fmt17h9b5d807e24bcaaedE
LBB151_26:
	.loc	36 0 28 is_stmt 0
	movq	-264(%rbp), %rax
Ltmp985:
	.loc	36 3114 30 is_stmt 1
	movq	%rax, -176(%rbp)
	movq	$1, -184(%rbp)
	.loc	36 3114 5 is_stmt 0
	jmp	LBB151_28
LBB151_27:
	.loc	36 0 5
	movq	-264(%rbp), %rax
	.loc	36 3114 13
	movq	%rax, -176(%rbp)
	movq	$0, -184(%rbp)
Ltmp986:
LBB151_28:
	.loc	36 3115 2 is_stmt 1
	movq	-184(%rbp), %rax
	movq	-176(%rbp), %rdx
	addq	$288, %rsp
	popq	%rbp
	retq
Ltmp987:
Lfunc_end151:
	.cfi_endproc
	.p2align	2, 0x90
	.data_region jt32
.set L151_0_set_2, LBB151_2-LJTI151_0
.set L151_0_set_3, LBB151_3-LJTI151_0
.set L151_0_set_4, LBB151_4-LJTI151_0
.set L151_0_set_5, LBB151_5-LJTI151_0
.set L151_0_set_6, LBB151_6-LJTI151_0
LJTI151_0:
	.long	L151_0_set_2
	.long	L151_0_set_3
	.long	L151_0_set_4
	.long	L151_0_set_5
	.long	L151_0_set_6
	.end_data_region

	.globl	__ZN4core4sync6atomic28atomic_compare_exchange_weak17h3a4299913eef8a25E
	.p2align	4, 0x90
__ZN4core4sync6atomic28atomic_compare_exchange_weak17h3a4299913eef8a25E:
Lfunc_begin152:
	.loc	36 3120 0
	.cfi_startproc
	pushq	%rbp
	.cfi_def_cfa_offset 16
	.cfi_offset %rbp, -16
	movq	%rsp, %rbp
	.cfi_def_cfa_register %rbp
	subq	$288, %rsp
	movq	%rdx, -216(%rbp)
	movq	%rsi, -208(%rbp)
	movq	%rdi, -200(%rbp)
	movb	%r8b, %al
	movq	%rdi, -48(%rbp)
	movq	%rsi, -40(%rbp)
	movq	%rdx, -32(%rbp)
	movb	%cl, -18(%rbp)
	movb	%al, -17(%rbp)
Ltmp988:
	.loc	36 3129 15 prologue_end
	movb	%cl, -152(%rbp)
	movb	%al, -151(%rbp)
	movzbl	-152(%rbp), %eax
	movq	%rax, -192(%rbp)
	.loc	36 0 15 is_stmt 0
	movq	-192(%rbp), %rax
	leaq	LJTI152_0(%rip), %rcx
	movslq	(%rcx,%rax,4), %rax
	addq	%rcx, %rax
	jmpq	*%rax
	.loc	36 3129 9
	ud2
LBB152_2:
	.loc	36 3129 15
	movzbl	-151(%rbp), %eax
	movq	%rax, -224(%rbp)
	testq	%rax, %rax
	.loc	36 3129 9
	je	LBB152_21
	jmp	LBB152_38
LBB152_38:
	.loc	36 0 9
	movq	-224(%rbp), %rax
	.loc	36 3129 9
	subq	$2, %rax
	je	LBB152_22
	jmp	LBB152_39
LBB152_39:
	.loc	36 0 9
	movq	-224(%rbp), %rax
	.loc	36 3129 9
	subq	$4, %rax
	je	LBB152_23
	jmp	LBB152_7
LBB152_3:
	.loc	36 3129 15
	movzbl	-151(%rbp), %eax
	movq	%rax, -232(%rbp)
	testq	%rax, %rax
	.loc	36 3129 9
	je	LBB152_18
	jmp	LBB152_36
LBB152_36:
	.loc	36 0 9
	movq	-232(%rbp), %rax
	.loc	36 3129 9
	subq	$2, %rax
	je	LBB152_19
	jmp	LBB152_37
LBB152_37:
	.loc	36 0 9
	movq	-232(%rbp), %rax
	.loc	36 3129 9
	subq	$4, %rax
	je	LBB152_20
	jmp	LBB152_7
LBB152_4:
	.loc	36 3129 15
	movzbl	-151(%rbp), %eax
	movq	%rax, -240(%rbp)
	testq	%rax, %rax
	.loc	36 3129 9
	je	LBB152_15
	jmp	LBB152_34
LBB152_34:
	.loc	36 0 9
	movq	-240(%rbp), %rax
	.loc	36 3129 9
	subq	$2, %rax
	je	LBB152_16
	jmp	LBB152_35
LBB152_35:
	.loc	36 0 9
	movq	-240(%rbp), %rax
	.loc	36 3129 9
	subq	$4, %rax
	je	LBB152_17
	jmp	LBB152_7
LBB152_5:
	.loc	36 3129 15
	movzbl	-151(%rbp), %eax
	movq	%rax, -248(%rbp)
	testq	%rax, %rax
	.loc	36 3129 9
	je	LBB152_12
	jmp	LBB152_32
LBB152_32:
	.loc	36 0 9
	movq	-248(%rbp), %rax
	.loc	36 3129 9
	subq	$2, %rax
	je	LBB152_13
	jmp	LBB152_33
LBB152_33:
	.loc	36 0 9
	movq	-248(%rbp), %rax
	.loc	36 3129 9
	subq	$4, %rax
	je	LBB152_14
	jmp	LBB152_7
LBB152_6:
	.loc	36 3129 15
	movzbl	-151(%rbp), %eax
	movq	%rax, -256(%rbp)
	testq	%rax, %rax
	.loc	36 3129 9
	je	LBB152_8
	jmp	LBB152_30
LBB152_30:
	.loc	36 0 9
	movq	-256(%rbp), %rax
	.loc	36 3129 9
	subq	$2, %rax
	je	LBB152_9
	jmp	LBB152_31
LBB152_31:
	.loc	36 0 9
	movq	-256(%rbp), %rax
	.loc	36 3129 9
	subq	$4, %rax
	je	LBB152_10
	jmp	LBB152_7
LBB152_7:
	.loc	36 3129 15
	movzbl	-151(%rbp), %eax
	.loc	36 3129 9
	cmpq	$1, %rax
	je	LBB152_24
	jmp	LBB152_25
LBB152_8:
	.loc	36 0 9
	movq	-200(%rbp), %rcx
	movq	-216(%rbp), %rdx
	movq	-208(%rbp), %rax
	.loc	36 3142 34 is_stmt 1
	lock		cmpxchgq	%rdx, (%rcx)
	movq	%rax, %rcx
	sete	%al
	andb	$1, %al
	movq	%rcx, -168(%rbp)
	movb	%al, -160(%rbp)
	.loc	36 3142 91 is_stmt 0
	jmp	LBB152_11
LBB152_9:
	.loc	36 0 91
	movq	-200(%rbp), %rcx
	movq	-216(%rbp), %rdx
	movq	-208(%rbp), %rax
	.loc	36 3143 34 is_stmt 1
	lock		cmpxchgq	%rdx, (%rcx)
	movq	%rax, %rcx
	sete	%al
	andb	$1, %al
	movq	%rcx, -168(%rbp)
	movb	%al, -160(%rbp)
	.loc	36 3143 91 is_stmt 0
	jmp	LBB152_11
LBB152_10:
	.loc	36 0 91
	movq	-200(%rbp), %rcx
	movq	-216(%rbp), %rdx
	movq	-208(%rbp), %rax
	.loc	36 3144 33 is_stmt 1
	lock		cmpxchgq	%rdx, (%rcx)
	movq	%rax, %rcx
	sete	%al
	andb	$1, %al
	movq	%rcx, -168(%rbp)
	movb	%al, -160(%rbp)
LBB152_11:
	.loc	36 3128 10
	movq	-168(%rbp), %rax
	movq	%rax, -264(%rbp)
	movq	%rax, -16(%rbp)
	.loc	36 3128 15 is_stmt 0
	movb	-160(%rbp), %al
	movb	%al, %cl
	andb	$1, %cl
	movb	%cl, -1(%rbp)
Ltmp989:
	.loc	36 3149 8 is_stmt 1
	testb	$1, %al
	jne	LBB152_27
	jmp	LBB152_26
Ltmp990:
LBB152_12:
	.loc	36 0 8 is_stmt 0
	movq	-200(%rbp), %rcx
	movq	-216(%rbp), %rdx
	movq	-208(%rbp), %rax
	.loc	36 3139 34 is_stmt 1
	lock		cmpxchgq	%rdx, (%rcx)
	movq	%rax, %rcx
	sete	%al
	andb	$1, %al
	movq	%rcx, -168(%rbp)
	movb	%al, -160(%rbp)
	.loc	36 3139 91 is_stmt 0
	jmp	LBB152_11
LBB152_13:
	.loc	36 0 91
	movq	-200(%rbp), %rcx
	movq	-216(%rbp), %rdx
	movq	-208(%rbp), %rax
	.loc	36 3140 34 is_stmt 1
	lock		cmpxchgq	%rdx, (%rcx)
	movq	%rax, %rcx
	sete	%al
	andb	$1, %al
	movq	%rcx, -168(%rbp)
	movb	%al, -160(%rbp)
	.loc	36 3140 91 is_stmt 0
	jmp	LBB152_11
LBB152_14:
	.loc	36 0 91
	movq	-200(%rbp), %rcx
	movq	-216(%rbp), %rdx
	movq	-208(%rbp), %rax
	.loc	36 3141 33 is_stmt 1
	lock		cmpxchgq	%rdx, (%rcx)
	movq	%rax, %rcx
	sete	%al
	andb	$1, %al
	movq	%rcx, -168(%rbp)
	movb	%al, -160(%rbp)
	.loc	36 3141 89 is_stmt 0
	jmp	LBB152_11
LBB152_15:
	.loc	36 0 89
	movq	-200(%rbp), %rcx
	movq	-216(%rbp), %rdx
	movq	-208(%rbp), %rax
	.loc	36 3133 35 is_stmt 1
	lock		cmpxchgq	%rdx, (%rcx)
	movq	%rax, %rcx
	sete	%al
	andb	$1, %al
	movq	%rcx, -168(%rbp)
	movb	%al, -160(%rbp)
	.loc	36 3133 93 is_stmt 0
	jmp	LBB152_11
LBB152_16:
	.loc	36 0 93
	movq	-200(%rbp), %rcx
	movq	-216(%rbp), %rdx
	movq	-208(%rbp), %rax
	.loc	36 3134 35 is_stmt 1
	lock		cmpxchgq	%rdx, (%rcx)
	movq	%rax, %rcx
	sete	%al
	andb	$1, %al
	movq	%rcx, -168(%rbp)
	movb	%al, -160(%rbp)
	.loc	36 3134 93 is_stmt 0
	jmp	LBB152_11
LBB152_17:
	.loc	36 0 93
	movq	-200(%rbp), %rcx
	movq	-216(%rbp), %rdx
	movq	-208(%rbp), %rax
	.loc	36 3135 34 is_stmt 1
	lock		cmpxchgq	%rdx, (%rcx)
	movq	%rax, %rcx
	sete	%al
	andb	$1, %al
	movq	%rcx, -168(%rbp)
	movb	%al, -160(%rbp)
	.loc	36 3135 91 is_stmt 0
	jmp	LBB152_11
LBB152_18:
	.loc	36 0 91
	movq	-200(%rbp), %rcx
	movq	-216(%rbp), %rdx
	movq	-208(%rbp), %rax
	.loc	36 3136 35 is_stmt 1
	lock		cmpxchgq	%rdx, (%rcx)
	movq	%rax, %rcx
	sete	%al
	andb	$1, %al
	movq	%rcx, -168(%rbp)
	movb	%al, -160(%rbp)
	.loc	36 3136 93 is_stmt 0
	jmp	LBB152_11
LBB152_19:
	.loc	36 0 93
	movq	-200(%rbp), %rcx
	movq	-216(%rbp), %rdx
	movq	-208(%rbp), %rax
	.loc	36 3137 35 is_stmt 1
	lock		cmpxchgq	%rdx, (%rcx)
	movq	%rax, %rcx
	sete	%al
	andb	$1, %al
	movq	%rcx, -168(%rbp)
	movb	%al, -160(%rbp)
	.loc	36 3137 93 is_stmt 0
	jmp	LBB152_11
LBB152_20:
	.loc	36 0 93
	movq	-200(%rbp), %rcx
	movq	-216(%rbp), %rdx
	movq	-208(%rbp), %rax
	.loc	36 3138 34 is_stmt 1
	lock		cmpxchgq	%rdx, (%rcx)
	movq	%rax, %rcx
	sete	%al
	andb	$1, %al
	movq	%rcx, -168(%rbp)
	movb	%al, -160(%rbp)
	.loc	36 3138 91 is_stmt 0
	jmp	LBB152_11
LBB152_21:
	.loc	36 0 91
	movq	-200(%rbp), %rcx
	movq	-216(%rbp), %rdx
	movq	-208(%rbp), %rax
	.loc	36 3130 35 is_stmt 1
	lock		cmpxchgq	%rdx, (%rcx)
	movq	%rax, %rcx
	sete	%al
	andb	$1, %al
	movq	%rcx, -168(%rbp)
	movb	%al, -160(%rbp)
	.loc	36 3130 93 is_stmt 0
	jmp	LBB152_11
LBB152_22:
	.loc	36 0 93
	movq	-200(%rbp), %rcx
	movq	-216(%rbp), %rdx
	movq	-208(%rbp), %rax
	.loc	36 3131 35 is_stmt 1
	lock		cmpxchgq	%rdx, (%rcx)
	movq	%rax, %rcx
	sete	%al
	andb	$1, %al
	movq	%rcx, -168(%rbp)
	movb	%al, -160(%rbp)
	.loc	36 3131 93 is_stmt 0
	jmp	LBB152_11
LBB152_23:
	.loc	36 0 93
	movq	-200(%rbp), %rcx
	movq	-216(%rbp), %rdx
	movq	-208(%rbp), %rax
	.loc	36 3132 34 is_stmt 1
	lock		cmpxchgq	%rdx, (%rcx)
	movq	%rax, %rcx
	sete	%al
	andb	$1, %al
	movq	%rcx, -168(%rbp)
	movb	%al, -160(%rbp)
	.loc	36 3132 91 is_stmt 0
	jmp	LBB152_11
LBB152_24:
	.loc	36 3146 29 is_stmt 1
	leaq	l___unnamed_32(%rip), %rsi
	leaq	l___unnamed_15(%rip), %rcx
	xorl	%eax, %eax
	movl	%eax, %r8d
	leaq	-96(%rbp), %rdi
	movq	%rdi, -272(%rbp)
	movl	$1, %edx
	callq	__ZN4core3fmt9Arguments6new_v117h9b624b451cc04d58E
	movq	-272(%rbp), %rdi
	leaq	l___unnamed_36(%rip), %rsi
	callq	__ZN4core9panicking9panic_fmt17h9b5d807e24bcaaedE
LBB152_25:
	.loc	36 3145 28
	leaq	l___unnamed_34(%rip), %rsi
	leaq	l___unnamed_15(%rip), %rcx
	xorl	%eax, %eax
	movl	%eax, %r8d
	leaq	-144(%rbp), %rdi
	movq	%rdi, -280(%rbp)
	movl	$1, %edx
	callq	__ZN4core3fmt9Arguments6new_v117h9b624b451cc04d58E
	movq	-280(%rbp), %rdi
	leaq	l___unnamed_37(%rip), %rsi
	callq	__ZN4core9panicking9panic_fmt17h9b5d807e24bcaaedE
LBB152_26:
	.loc	36 0 28 is_stmt 0
	movq	-264(%rbp), %rax
Ltmp991:
	.loc	36 3149 30 is_stmt 1
	movq	%rax, -176(%rbp)
	movq	$1, -184(%rbp)
	.loc	36 3149 5 is_stmt 0
	jmp	LBB152_28
LBB152_27:
	.loc	36 0 5
	movq	-264(%rbp), %rax
	.loc	36 3149 13
	movq	%rax, -176(%rbp)
	movq	$0, -184(%rbp)
Ltmp992:
LBB152_28:
	.loc	36 3150 2 is_stmt 1
	movq	-184(%rbp), %rax
	movq	-176(%rbp), %rdx
	addq	$288, %rsp
	popq	%rbp
	retq
Ltmp993:
Lfunc_end152:
	.cfi_endproc
	.p2align	2, 0x90
	.data_region jt32
.set L152_0_set_2, LBB152_2-LJTI152_0
.set L152_0_set_3, LBB152_3-LJTI152_0
.set L152_0_set_4, LBB152_4-LJTI152_0
.set L152_0_set_5, LBB152_5-LJTI152_0
.set L152_0_set_6, LBB152_6-LJTI152_0
LJTI152_0:
	.long	L152_0_set_2
	.long	L152_0_set_3
	.long	L152_0_set_4
	.long	L152_0_set_5
	.long	L152_0_set_6
	.end_data_region

	.p2align	4, 0x90
__ZN4core4sync6atomic5fence17h69426c6c394ea76bE:
Lfunc_begin153:
	.loc	36 3362 0
	.cfi_startproc
	pushq	%rbp
	.cfi_def_cfa_offset 16
	.cfi_offset %rbp, -16
	movq	%rsp, %rbp
	.cfi_def_cfa_register %rbp
	subq	$80, %rsp
	movb	%dil, %al
	movb	%al, -49(%rbp)
Ltmp994:
	.loc	36 3365 15 prologue_end
	movzbl	-49(%rbp), %eax
	movq	%rax, -64(%rbp)
	.loc	36 0 15 is_stmt 0
	movq	-64(%rbp), %rax
	leaq	LJTI153_0(%rip), %rcx
	movslq	(%rcx,%rax,4), %rax
	addq	%rcx, %rax
	jmpq	*%rax
	.loc	36 3365 15
	ud2
LBB153_2:
	.loc	36 3370 24 is_stmt 1
	leaq	l___unnamed_38(%rip), %rsi
	leaq	l___unnamed_15(%rip), %rcx
	xorl	%eax, %eax
	movl	%eax, %r8d
	leaq	-48(%rbp), %rdi
	movq	%rdi, -72(%rbp)
	movl	$1, %edx
	callq	__ZN4core3fmt9Arguments6new_v117h9b624b451cc04d58E
	movq	-72(%rbp), %rdi
	leaq	l___unnamed_39(%rip), %rsi
	callq	__ZN4core9panicking9panic_fmt17h9b5d807e24bcaaedE
LBB153_3:
	##MEMBARRIER
	.loc	36 3367 24
	jmp	LBB153_7
LBB153_4:
	##MEMBARRIER
	.loc	36 3366 24
	jmp	LBB153_7
LBB153_5:
	##MEMBARRIER
	.loc	36 3368 23
	jmp	LBB153_7
LBB153_6:
	.loc	36 3369 23
	mfence
LBB153_7:
	.loc	36 3373 2
	addq	$80, %rsp
	popq	%rbp
	retq
Ltmp995:
Lfunc_end153:
	.cfi_endproc
	.p2align	2, 0x90
	.data_region jt32
.set L153_0_set_2, LBB153_2-LJTI153_0
.set L153_0_set_3, LBB153_3-LJTI153_0
.set L153_0_set_4, LBB153_4-LJTI153_0
.set L153_0_set_5, LBB153_5-LJTI153_0
.set L153_0_set_6, LBB153_6-LJTI153_0
LJTI153_0:
	.long	L153_0_set_2
	.long	L153_0_set_3
	.long	L153_0_set_4
	.long	L153_0_set_5
	.long	L153_0_set_6
	.end_data_region

	.p2align	4, 0x90
__ZN4core5alloc6layout6Layout5array5inner17h13565c4ca523fef3E:
Lfunc_begin154:
	.file	37 "/rustc/2c8cc343237b8f7d5a3c3703e3a87f2eb2c54a74/library/core/src/alloc" "layout.rs"
	.loc	37 441 0
	.cfi_startproc
	pushq	%rbp
	.cfi_def_cfa_offset 16
	.cfi_offset %rbp, -16
	movq	%rsp, %rbp
	.cfi_def_cfa_register %rbp
	subq	$176, %rsp
	movq	%rdi, -168(%rbp)
	movq	%rsi, -160(%rbp)
	movq	%rdx, -152(%rbp)
	movq	%rdi, -88(%rbp)
	movq	%rsi, -80(%rbp)
	movq	%rdx, -72(%rbp)
Ltmp996:
	.loc	37 452 16 prologue_end
	cmpq	$0, %rdi
	jne	LBB154_2
	movb	$0, -121(%rbp)
	jmp	LBB154_5
LBB154_2:
	.loc	37 0 16 is_stmt 0
	movq	-168(%rbp), %rax
	movq	-160(%rbp), %rcx
	.loc	37 452 68
	movq	%rcx, -64(%rbp)
Ltmp997:
	.loc	37 93 32 is_stmt 1
	movq	%rcx, -56(%rbp)
Ltmp998:
	.file	38 "/rustc/2c8cc343237b8f7d5a3c3703e3a87f2eb2c54a74/library/core/src/ptr" "alignment.rs"
	.loc	38 97 9
	movq	%rcx, -104(%rbp)
	movq	-104(%rbp), %rdx
Ltmp999:
	.loc	37 93 31
	subq	$1, %rdx
	.loc	37 93 9 is_stmt 0
	movabsq	$9223372036854775807, %rcx
	subq	%rdx, %rcx
	movq	%rcx, -176(%rbp)
Ltmp1000:
	.loc	37 452 41 is_stmt 1
	cmpq	$0, %rax
	sete	%al
	testb	$1, %al
	jne	LBB154_4
	.loc	37 0 41 is_stmt 0
	movq	-168(%rbp), %rcx
	movq	-176(%rbp), %rax
	.loc	37 452 41
	xorl	%edx, %edx
	divq	%rcx
	movq	%rax, %rcx
	movq	-152(%rbp), %rax
	.loc	37 452 37
	cmpq	%rcx, %rax
	seta	%al
	.loc	37 452 16
	andb	$1, %al
	movb	%al, -121(%rbp)
	jmp	LBB154_5
LBB154_4:
	.loc	37 452 41
	leaq	_str.1(%rip), %rdi
	leaq	l___unnamed_40(%rip), %rdx
	movl	$25, %esi
	callq	__ZN4core9panicking5panic17hc1bc45270cf64b03E
LBB154_5:
	.loc	37 452 16
	testb	$1, -121(%rbp)
	jne	LBB154_7
	.loc	37 0 16
	movq	-160(%rbp), %rax
	movq	-152(%rbp), %rdx
	movq	-168(%rbp), %rcx
	.loc	37 456 30 is_stmt 1
	imulq	%rdx, %rcx
	movq	%rcx, -48(%rbp)
Ltmp1001:
	.loc	37 461 59
	movq	%rcx, -40(%rbp)
	.loc	37 461 71 is_stmt 0
	movq	%rax, -32(%rbp)
Ltmp1002:
	.loc	38 97 9 is_stmt 1
	movq	%rax, -96(%rbp)
	movq	-96(%rbp), %rax
	movq	%rax, -24(%rbp)
Ltmp1003:
	.loc	37 120 65
	movq	%rax, -16(%rbp)
Ltmp1004:
	.loc	38 89 18
	movq	%rax, -8(%rbp)
	movq	-8(%rbp), %rax
Ltmp1005:
	.loc	37 120 18
	movq	%rcx, -120(%rbp)
	movq	%rax, -112(%rbp)
Ltmp1006:
	.loc	37 461 22
	movq	-120(%rbp), %rcx
	movq	-112(%rbp), %rax
	movq	%rcx, -144(%rbp)
	movq	%rax, -136(%rbp)
Ltmp1007:
	.loc	37 462 10
	jmp	LBB154_8
LBB154_7:
	.loc	37 453 24
	movq	$0, -136(%rbp)
LBB154_8:
	.loc	37 462 10
	movq	-144(%rbp), %rax
	movq	-136(%rbp), %rdx
	addq	$176, %rsp
	popq	%rbp
	retq
Ltmp1008:
Lfunc_end154:
	.cfi_endproc

	.globl	__ZN4core5slice4iter13Iter$LT$T$GT$3new17h8440007ec2388f84E
	.p2align	4, 0x90
__ZN4core5slice4iter13Iter$LT$T$GT$3new17h8440007ec2388f84E:
Lfunc_begin155:
	.file	39 "/rustc/2c8cc343237b8f7d5a3c3703e3a87f2eb2c54a74/library/core/src/slice" "iter.rs"
	.loc	39 82 0
	.cfi_startproc
	pushq	%rbp
	.cfi_def_cfa_offset 16
	.cfi_offset %rbp, -16
	movq	%rsp, %rbp
	.cfi_def_cfa_register %rbp
	subq	$280, %rsp
	movq	%rdi, -280(%rbp)
	movq	%rsi, -272(%rbp)
	movq	%rdi, -208(%rbp)
	movq	%rsi, -200(%rbp)
Ltmp1009:
	.loc	39 83 19 prologue_end
	movq	%rdi, -184(%rbp)
	movq	%rsi, -176(%rbp)
Ltmp1010:
	.loc	13 477 9
	movq	%rdi, -168(%rbp)
Ltmp1011:
	.loc	39 86 21
	movq	%rdi, -160(%rbp)
Ltmp1012:
	.loc	4 53 36
	movq	%rdi, -232(%rbp)
	.loc	4 53 18 is_stmt 0
	movq	-232(%rbp), %rax
	movq	%rax, -152(%rbp)
Ltmp1013:
	.loc	4 39 13 is_stmt 1
	movq	%rax, -144(%rbp)
Ltmp1014:
	.loc	4 209 33
	movq	%rax, -136(%rbp)
	.loc	4 209 18 is_stmt 0
	movq	%rax, -128(%rbp)
Ltmp1015:
	.loc	39 89 20 is_stmt 1
	xorl	%eax, %eax
	testb	$1, %al
	jne	LBB155_2
	.loc	39 0 20 is_stmt 0
	movq	-280(%rbp), %rax
	movq	-272(%rbp), %rcx
	.loc	39 89 76
	movq	%rax, -40(%rbp)
	.loc	39 89 84
	movq	%rcx, -32(%rbp)
Ltmp1016:
	.loc	4 932 18 is_stmt 1
	movq	%rax, -24(%rbp)
	.loc	4 932 30 is_stmt 0
	movq	%rcx, -16(%rbp)
Ltmp1017:
	.loc	4 473 18 is_stmt 1
	shlq	$6, %rcx
	addq	%rcx, %rax
	movq	%rax, -248(%rbp)
Ltmp1018:
	.loc	39 89 17
	jmp	LBB155_3
LBB155_2:
	.loc	39 0 17 is_stmt 0
	movq	-272(%rbp), %rcx
	movq	-280(%rbp), %rax
	.loc	39 89 32
	movq	%rax, -120(%rbp)
	.loc	39 89 54
	movq	%rcx, -112(%rbp)
Ltmp1019:
	.loc	4 1118 9 is_stmt 1
	movq	%rax, -104(%rbp)
Ltmp1020:
	.loc	4 61 9
	movq	%rax, -96(%rbp)
Ltmp1021:
	.loc	4 1118 40
	movq	%rcx, -88(%rbp)
Ltmp1022:
	.loc	4 1100 9
	movq	%rax, -80(%rbp)
	.loc	4 1100 30 is_stmt 0
	movq	%rcx, -72(%rbp)
Ltmp1023:
	.loc	4 555 18 is_stmt 1
	addq	%rcx, %rax
	movq	%rax, -64(%rbp)
	movq	-64(%rbp), %rax
	movq	%rax, -56(%rbp)
Ltmp1024:
	.loc	4 100 29
	movq	%rax, -48(%rbp)
Ltmp1025:
	.loc	6 118 36
	movq	%rax, -216(%rbp)
	.loc	6 118 14 is_stmt 0
	movq	-216(%rbp), %rax
	movq	%rax, -224(%rbp)
	movq	-224(%rbp), %rax
	movq	%rax, -248(%rbp)
Ltmp1026:
LBB155_3:
	.loc	6 0 14
	movq	-280(%rbp), %rax
Ltmp1027:
	.loc	39 91 48 is_stmt 1
	movq	%rax, -8(%rbp)
Ltmp1028:
	.loc	9 201 13
	movq	%rax, -240(%rbp)
Ltmp1029:
	.loc	39 91 64
	movq	-248(%rbp), %rax
	.loc	39 91 13 is_stmt 0
	movq	-240(%rbp), %rcx
	movq	%rcx, -256(%rbp)
	movq	%rax, -264(%rbp)
Ltmp1030:
	.loc	39 93 6 is_stmt 1
	movq	-264(%rbp), %rax
	movq	-256(%rbp), %rdx
	addq	$280, %rsp
	popq	%rbp
	retq
Ltmp1031:
Lfunc_end155:
	.cfi_endproc

	.globl	__ZN4core5slice4iter87_$LT$impl$u20$core..iter..traits..collect..IntoIterator$u20$for$u20$$RF$$u5b$T$u5d$$GT$9into_iter17h332f7b5d019c02ddE
	.p2align	4, 0x90
__ZN4core5slice4iter87_$LT$impl$u20$core..iter..traits..collect..IntoIterator$u20$for$u20$$RF$$u5b$T$u5d$$GT$9into_iter17h332f7b5d019c02ddE:
Lfunc_begin156:
	.loc	39 23 0
	.cfi_startproc
	pushq	%rbp
	.cfi_def_cfa_offset 16
	.cfi_offset %rbp, -16
	movq	%rsp, %rbp
	.cfi_def_cfa_register %rbp
	subq	$32, %rsp
	movq	%rdi, -32(%rbp)
	movq	%rsi, -24(%rbp)
Ltmp1032:
	.loc	39 24 9 prologue_end
	movq	%rdi, -16(%rbp)
	movq	%rsi, -8(%rbp)
Ltmp1033:
	.loc	13 742 9
	callq	__ZN4core5slice4iter13Iter$LT$T$GT$3new17h8440007ec2388f84E
Ltmp1034:
	.loc	39 25 6
	addq	$32, %rsp
	popq	%rbp
	retq
Ltmp1035:
Lfunc_end156:
	.cfi_endproc

	.globl	__ZN4core5slice5index74_$LT$impl$u20$core..ops..index..Index$LT$I$GT$$u20$for$u20$$u5b$T$u5d$$GT$5index17he2a854a44d8b2360E
	.p2align	4, 0x90
__ZN4core5slice5index74_$LT$impl$u20$core..ops..index..Index$LT$I$GT$$u20$for$u20$$u5b$T$u5d$$GT$5index17he2a854a44d8b2360E:
Lfunc_begin157:
	.loc	3 17 0
	.cfi_startproc
	pushq	%rbp
	.cfi_def_cfa_offset 16
	.cfi_offset %rbp, -16
	movq	%rsp, %rbp
	.cfi_def_cfa_register %rbp
	subq	$32, %rsp
	movq	%rdi, -24(%rbp)
	movq	%rsi, -16(%rbp)
Ltmp1036:
	.loc	3 18 9 prologue_end
	callq	__ZN97_$LT$core..ops..range..RangeFull$u20$as$u20$core..slice..index..SliceIndex$LT$$u5b$T$u5d$$GT$$GT$5index17hb4effeb54c9b1f93E
	.loc	3 19 6
	addq	$32, %rsp
	popq	%rbp
	retq
Ltmp1037:
Lfunc_end157:
	.cfi_endproc

	.globl	__ZN4core6option15Option$LT$T$GT$16unwrap_unchecked17hec0b7f2ae1a5e83fE
	.p2align	4, 0x90
__ZN4core6option15Option$LT$T$GT$16unwrap_unchecked17hec0b7f2ae1a5e83fE:
Lfunc_begin158:
	.loc	19 933 0
	.cfi_startproc
	.cfi_personality 155, _rust_eh_personality
	.cfi_lsda 16, Lexception28
	pushq	%rbp
	.cfi_def_cfa_offset 16
	.cfi_offset %rbp, -16
	movq	%rsp, %rbp
	.cfi_def_cfa_register %rbp
	subq	$32, %rsp
	movq	%rdi, -32(%rbp)
Ltmp1041:
	.loc	19 935 15 prologue_end
	movq	-32(%rbp), %rdx
	movl	$1, %eax
	xorl	%ecx, %ecx
	cmpq	$0, %rdx
	cmoveq	%rcx, %rax
	.loc	19 935 9 is_stmt 0
	cmpq	$0, %rax
	jne	LBB158_2
Ltmp1038:
	.loc	19 938 30 is_stmt 1
	callq	__ZN4core4hint21unreachable_unchecked17h25ae7e558879064aE
Ltmp1039:
	jmp	LBB158_5
LBB158_2:
	.loc	19 936 18
	movq	-32(%rbp), %rax
	movq	%rax, -24(%rbp)
	.loc	19 940 6
	addq	$32, %rsp
	popq	%rbp
	retq
LBB158_3:
	.loc	19 940 5 is_stmt 0
	movq	-32(%rbp), %rdx
	movl	$1, %eax
	xorl	%ecx, %ecx
	cmpq	$0, %rdx
	cmoveq	%rcx, %rax
	cmpq	$1, %rax
	je	LBB158_6
	jmp	LBB158_7
LBB158_4:
Ltmp1040:
	.loc	19 0 5
	movq	%rax, %rcx
	movl	%edx, %eax
	movq	%rcx, -16(%rbp)
	movl	%eax, -8(%rbp)
	jmp	LBB158_3
LBB158_5:
	ud2
LBB158_6:
	.loc	19 940 5
	movb	$1, %al
	testb	$1, %al
	jne	LBB158_8
	jmp	LBB158_7
LBB158_7:
	.loc	19 933 5 is_stmt 1
	movq	-16(%rbp), %rdi
	callq	__Unwind_Resume
LBB158_8:
	.loc	19 940 5
	jmp	LBB158_7
Ltmp1042:
Lfunc_end158:
	.cfi_endproc
	.section	__TEXT,__gcc_except_tab
	.p2align	2
GCC_except_table158:
Lexception28:
	.byte	255
	.byte	255
	.byte	1
	.uleb128 Lcst_end28-Lcst_begin28
Lcst_begin28:
	.uleb128 Ltmp1038-Lfunc_begin158
	.uleb128 Ltmp1039-Ltmp1038
	.uleb128 Ltmp1040-Lfunc_begin158
	.byte	0
	.uleb128 Ltmp1039-Lfunc_begin158
	.uleb128 Lfunc_end158-Ltmp1039
	.byte	0
	.byte	0
Lcst_end28:
	.p2align	2

	.section	__TEXT,__text,regular,pure_instructions
	.globl	__ZN4core6option15Option$LT$T$GT$18get_or_insert_with17h9d716fd4ed814ba6E
	.p2align	4, 0x90
__ZN4core6option15Option$LT$T$GT$18get_or_insert_with17h9d716fd4ed814ba6E:
Lfunc_begin159:
	.loc	19 1583 0
	.cfi_startproc
	.cfi_personality 155, _rust_eh_personality
	.cfi_lsda 16, Lexception29
	pushq	%rbp
	.cfi_def_cfa_offset 16
	.cfi_offset %rbp, -16
	movq	%rsp, %rbp
	.cfi_def_cfa_register %rbp
	subq	$688, %rsp
	movq	%rdi, -672(%rbp)
	movq	%rdi, -48(%rbp)
Ltmp1050:
	.loc	19 1596 9 prologue_end
	movb	$1, -201(%rbp)
	.loc	19 1588 16
	cmpq	$0, (%rdi)
	jne	LBB159_2
	.loc	19 1591 49
	movb	$0, -201(%rbp)
Ltmp1043:
	leaq	-360(%rbp), %rdi
	callq	__ZN4core3ops8function6FnOnce9call_once17h65a0ccb825063268E
Ltmp1044:
	jmp	LBB159_5
LBB159_2:
	.loc	19 0 49 is_stmt 0
	movq	-672(%rbp), %rax
	.loc	19 1596 18 is_stmt 1
	movq	%rax, -16(%rbp)
Ltmp1051:
	.loc	19 697 9
	cmpq	$0, (%rax)
	je	LBB159_7
	jmp	LBB159_8
Ltmp1052:
LBB159_3:
	.loc	19 1597 5
	testb	$1, -201(%rbp)
	jne	LBB159_12
	jmp	LBB159_11
LBB159_4:
Ltmp1049:
	.loc	19 0 5 is_stmt 0
	movq	%rax, %rcx
	movl	%edx, %eax
	movq	%rcx, -32(%rbp)
	movl	%eax, -24(%rbp)
	jmp	LBB159_3
LBB159_5:
	.loc	19 1591 44 is_stmt 1
	leaq	-504(%rbp), %rdi
	leaq	-360(%rbp), %rsi
	movl	$144, %edx
	callq	_memcpy
	movq	-672(%rbp), %rsi
	movq	$1, -512(%rbp)
Ltmp1045:
	leaq	-664(%rbp), %rdi
	leaq	-512(%rbp), %rdx
	.loc	19 1591 25 is_stmt 0
	callq	__ZN4core3mem7replace17h8e2b036526210656E
Ltmp1046:
	jmp	LBB159_6
LBB159_6:
	.loc	19 1588 9 is_stmt 1
	jmp	LBB159_2
LBB159_7:
Ltmp1053:
	.loc	19 699 21
	movq	$0, -216(%rbp)
	jmp	LBB159_9
LBB159_8:
	.loc	19 0 21 is_stmt 0
	movq	-672(%rbp), %rax
	.loc	19 698 18 is_stmt 1
	addq	$8, %rax
	movq	%rax, -8(%rbp)
Ltmp1054:
	.loc	19 698 32 is_stmt 0
	movq	%rax, -216(%rbp)
Ltmp1055:
LBB159_9:
	.loc	19 1596 18 is_stmt 1
	movq	-216(%rbp), %rdi
Ltmp1047:
	leaq	l___unnamed_41(%rip), %rsi
	callq	__ZN4core6option15Option$LT$T$GT$16unwrap_unchecked17hec0b7f2ae1a5e83fE
Ltmp1048:
	movq	%rax, -680(%rbp)
	jmp	LBB159_10
LBB159_10:
	.loc	19 1597 5
	testb	$1, -201(%rbp)
	jne	LBB159_14
	jmp	LBB159_13
LBB159_11:
	.loc	19 1583 5
	movq	-32(%rbp), %rdi
	callq	__Unwind_Resume
LBB159_12:
	.loc	19 1597 5
	jmp	LBB159_11
LBB159_13:
	.loc	19 0 5 is_stmt 0
	movq	-680(%rbp), %rax
	.loc	19 1597 6
	addq	$688, %rsp
	popq	%rbp
	retq
LBB159_14:
	.loc	19 1597 5
	jmp	LBB159_13
Ltmp1056:
Lfunc_end159:
	.cfi_endproc
	.section	__TEXT,__gcc_except_tab
	.p2align	2
GCC_except_table159:
Lexception29:
	.byte	255
	.byte	255
	.byte	1
	.uleb128 Lcst_end29-Lcst_begin29
Lcst_begin29:
	.uleb128 Ltmp1043-Lfunc_begin159
	.uleb128 Ltmp1044-Ltmp1043
	.uleb128 Ltmp1049-Lfunc_begin159
	.byte	0
	.uleb128 Ltmp1044-Lfunc_begin159
	.uleb128 Ltmp1045-Ltmp1044
	.byte	0
	.byte	0
	.uleb128 Ltmp1045-Lfunc_begin159
	.uleb128 Ltmp1048-Ltmp1045
	.uleb128 Ltmp1049-Lfunc_begin159
	.byte	0
	.uleb128 Ltmp1048-Lfunc_begin159
	.uleb128 Lfunc_end159-Ltmp1048
	.byte	0
	.byte	0
Lcst_end29:
	.p2align	2

	.section	__TEXT,__text,regular,pure_instructions
	.globl	__ZN4core6option15Option$LT$T$GT$4take17h71f339d973d031fcE
	.p2align	4, 0x90
__ZN4core6option15Option$LT$T$GT$4take17h71f339d973d031fcE:
Lfunc_begin160:
	.loc	19 1621 0 is_stmt 1
	.cfi_startproc
	pushq	%rbp
	.cfi_def_cfa_offset 16
	.cfi_offset %rbp, -16
	movq	%rsp, %rbp
	.cfi_def_cfa_register %rbp
	subq	$192, %rsp
	movq	%rdi, %rax
	movq	%rax, -184(%rbp)
	movq	%rsi, -8(%rbp)
Ltmp1057:
	.loc	19 1623 28 prologue_end
	movq	$0, -176(%rbp)
	.loc	19 1623 9 is_stmt 0
	leaq	-176(%rbp), %rdx
	callq	__ZN4core3mem7replace17hd879fb06a9f96e6fE
	movq	-184(%rbp), %rax
	.loc	19 1624 6 is_stmt 1
	addq	$192, %rsp
	popq	%rbp
	retq
Ltmp1058:
Lfunc_end160:
	.cfi_endproc

	.globl	__ZN4core6option15Option$LT$T$GT$4take17hd2a762769cf45d4aE
	.p2align	4, 0x90
__ZN4core6option15Option$LT$T$GT$4take17hd2a762769cf45d4aE:
Lfunc_begin161:
	.loc	19 1621 0
	.cfi_startproc
	pushq	%rbp
	.cfi_def_cfa_offset 16
	.cfi_offset %rbp, -16
	movq	%rsp, %rbp
	.cfi_def_cfa_register %rbp
	subq	$176, %rsp
	movq	%rdi, %rax
	movq	%rax, -168(%rbp)
	movq	%rsi, -8(%rbp)
Ltmp1059:
	.loc	19 1623 28 prologue_end
	movq	$0, -160(%rbp)
	.loc	19 1623 9 is_stmt 0
	leaq	-160(%rbp), %rdx
	callq	__ZN4core3mem7replace17h8e2b036526210656E
	movq	-168(%rbp), %rax
	.loc	19 1624 6 is_stmt 1
	addq	$176, %rsp
	popq	%rbp
	retq
Ltmp1060:
Lfunc_end161:
	.cfi_endproc

	.globl	__ZN4core6result19Result$LT$T$C$E$GT$16unwrap_unchecked17h403007654a230a7cE
	.p2align	4, 0x90
__ZN4core6result19Result$LT$T$C$E$GT$16unwrap_unchecked17h403007654a230a7cE:
Lfunc_begin162:
	.loc	17 1530 0
	.cfi_startproc
	.cfi_personality 155, _rust_eh_personality
	.cfi_lsda 16, Lexception30
	pushq	%rbp
	.cfi_def_cfa_offset 16
	.cfi_offset %rbp, -16
	movq	%rsp, %rbp
	.cfi_def_cfa_register %rbp
	subq	$64, %rsp
	movq	%rdi, -48(%rbp)
	movq	%rsi, -40(%rbp)
Ltmp1064:
	.loc	17 1532 15 prologue_end
	xorl	%eax, %eax
	movl	$1, %ecx
	cmpq	$0, -40(%rbp)
	cmoveq	%rcx, %rax
	.loc	17 1532 9 is_stmt 0
	cmpq	$0, %rax
	jne	LBB162_2
	.loc	17 1533 16 is_stmt 1
	movq	-48(%rbp), %rcx
	movq	%rcx, -64(%rbp)
	movq	-40(%rbp), %rax
	movq	%rax, -56(%rbp)
	movq	%rcx, -16(%rbp)
	movq	%rax, -8(%rbp)
	.loc	17 1537 5
	xorl	%eax, %eax
	movl	$1, %ecx
	cmpq	$0, -40(%rbp)
	cmoveq	%rcx, %rax
	cmpq	$0, %rax
	je	LBB162_10
	jmp	LBB162_11
LBB162_2:
Ltmp1061:
	.loc	17 1535 32
	callq	__ZN4core4hint21unreachable_unchecked17h25ae7e558879064aE
Ltmp1062:
	jmp	LBB162_5
LBB162_3:
	.loc	17 1537 5
	xorl	%eax, %eax
	movl	$1, %ecx
	cmpq	$0, -40(%rbp)
	cmoveq	%rcx, %rax
	cmpq	$0, %rax
	je	LBB162_6
	jmp	LBB162_7
LBB162_4:
Ltmp1063:
	.loc	17 0 5 is_stmt 0
	movq	%rax, %rcx
	movl	%edx, %eax
	movq	%rcx, -32(%rbp)
	movl	%eax, -24(%rbp)
	jmp	LBB162_3
LBB162_5:
	ud2
LBB162_6:
	.loc	17 1537 5
	movb	$1, %al
	testb	$1, %al
	jne	LBB162_9
	jmp	LBB162_8
LBB162_7:
	jmp	LBB162_8
LBB162_8:
	.loc	17 1530 5 is_stmt 1
	movq	-32(%rbp), %rdi
	callq	__Unwind_Resume
LBB162_9:
	.loc	17 1537 5
	jmp	LBB162_8
LBB162_10:
	.loc	17 0 5 is_stmt 0
	movq	-56(%rbp), %rdx
	movq	-64(%rbp), %rax
	.loc	17 1537 6
	addq	$64, %rsp
	popq	%rbp
	retq
LBB162_11:
	.loc	17 1537 5
	jmp	LBB162_10
Ltmp1065:
Lfunc_end162:
	.cfi_endproc
	.section	__TEXT,__gcc_except_tab
	.p2align	2
GCC_except_table162:
Lexception30:
	.byte	255
	.byte	255
	.byte	1
	.uleb128 Lcst_end30-Lcst_begin30
Lcst_begin30:
	.uleb128 Ltmp1061-Lfunc_begin162
	.uleb128 Ltmp1062-Ltmp1061
	.uleb128 Ltmp1063-Lfunc_begin162
	.byte	0
	.uleb128 Ltmp1062-Lfunc_begin162
	.uleb128 Lfunc_end162-Ltmp1062
	.byte	0
	.byte	0
Lcst_end30:
	.p2align	2

	.section	__TEXT,__text,regular,pure_instructions
	.globl	__ZN4core6result19Result$LT$T$C$E$GT$5is_ok17he312d41f5af00c92E
	.p2align	4, 0x90
__ZN4core6result19Result$LT$T$C$E$GT$5is_ok17he312d41f5af00c92E:
Lfunc_begin163:
	.loc	17 541 0 is_stmt 1
	.cfi_startproc
	pushq	%rbp
	.cfi_def_cfa_offset 16
	.cfi_offset %rbp, -16
	movq	%rsp, %rbp
	.cfi_def_cfa_register %rbp
	subq	$16, %rsp
	movq	%rdi, -8(%rbp)
Ltmp1066:
	.loc	17 542 9 prologue_end
	cmpq	$0, (%rdi)
	jne	LBB163_2
	movb	$1, -9(%rbp)
	jmp	LBB163_3
LBB163_2:
	movb	$0, -9(%rbp)
LBB163_3:
	.loc	17 543 6
	movb	-9(%rbp), %al
	andb	$1, %al
	movzbl	%al, %eax
	addq	$16, %rsp
	popq	%rbp
	retq
Ltmp1067:
Lfunc_end163:
	.cfi_endproc

	.globl	__ZN4core6result19Result$LT$T$C$E$GT$7map_err17h0ac8ec968a99f8acE
	.p2align	4, 0x90
__ZN4core6result19Result$LT$T$C$E$GT$7map_err17h0ac8ec968a99f8acE:
Lfunc_begin164:
	.loc	17 857 0
	.cfi_startproc
	pushq	%rbp
	.cfi_def_cfa_offset 16
	.cfi_offset %rbp, -16
	movq	%rsp, %rbp
	.cfi_def_cfa_register %rbp
	subq	$96, %rsp
	movq	%rdi, -88(%rbp)
	movq	%rsi, -80(%rbp)
Ltmp1068:
	.loc	17 858 15 prologue_end
	movb	$1, -33(%rbp)
	movabsq	$-9223372036854775807, %rdx
	movl	$1, %eax
	xorl	%ecx, %ecx
	cmpq	%rdx, -80(%rbp)
	cmoveq	%rcx, %rax
	.loc	17 858 9 is_stmt 0
	cmpq	$0, %rax
	jne	LBB164_2
Ltmp1069:
	.loc	17 859 22 is_stmt 1
	movabsq	$-9223372036854775807, %rax
	movq	%rax, -64(%rbp)
Ltmp1070:
	.loc	17 859 26 is_stmt 0
	jmp	LBB164_3
LBB164_2:
	.loc	17 860 17 is_stmt 1
	movq	-88(%rbp), %rcx
	movq	-80(%rbp), %rax
	movq	%rcx, -16(%rbp)
	movq	%rax, -8(%rbp)
Ltmp1071:
	.loc	17 860 27 is_stmt 0
	movb	$0, -33(%rbp)
	movq	%rcx, -56(%rbp)
	movq	%rax, -48(%rbp)
	movq	-56(%rbp), %rdi
	movq	-48(%rbp), %rsi
	callq	__ZN5alloc7raw_vec14handle_reserve28_$u7b$$u7b$closure$u7d$$u7d$17h9dbc1e7c8b11bfabE
	.loc	17 860 23
	movq	%rax, -72(%rbp)
	movq	%rdx, -64(%rbp)
Ltmp1072:
LBB164_3:
	.loc	17 862 5 is_stmt 1
	testb	$1, -33(%rbp)
	jne	LBB164_5
LBB164_4:
	.loc	17 862 6 is_stmt 0
	movq	-72(%rbp), %rax
	movq	-64(%rbp), %rdx
	addq	$96, %rsp
	popq	%rbp
	retq
LBB164_5:
	.loc	17 862 5
	jmp	LBB164_4
Ltmp1073:
Lfunc_end164:
	.cfi_endproc

	.globl	__ZN4core6result19Result$LT$T$C$E$GT$7map_err17ha1c2fb6cce3996f0E
	.p2align	4, 0x90
__ZN4core6result19Result$LT$T$C$E$GT$7map_err17ha1c2fb6cce3996f0E:
Lfunc_begin165:
	.loc	17 857 0 is_stmt 1
	.cfi_startproc
	pushq	%rbp
	.cfi_def_cfa_offset 16
	.cfi_offset %rbp, -16
	movq	%rsp, %rbp
	.cfi_def_cfa_register %rbp
	subq	$80, %rsp
	movq	%rcx, -80(%rbp)
	movq	%rdi, -72(%rbp)
	movq	%rdi, -64(%rbp)
	movq	%rsi, -56(%rbp)
	movq	%rdx, -48(%rbp)
	movq	%rcx, -32(%rbp)
Ltmp1074:
	.loc	17 858 15 prologue_end
	movb	$1, -33(%rbp)
	movq	-56(%rbp), %rdx
	xorl	%eax, %eax
	movl	$1, %ecx
	cmpq	$0, %rdx
	cmoveq	%rcx, %rax
	.loc	17 858 9 is_stmt 0
	cmpq	$0, %rax
	jne	LBB165_2
	.loc	17 0 9
	movq	-72(%rbp), %rax
	.loc	17 859 16 is_stmt 1
	movq	-56(%rbp), %rdx
	movq	-48(%rbp), %rcx
	movq	%rdx, -16(%rbp)
	movq	%rcx, -8(%rbp)
Ltmp1075:
	.loc	17 859 22 is_stmt 0
	movq	%rdx, 8(%rax)
	movq	%rcx, 16(%rax)
	movq	$0, (%rax)
Ltmp1076:
	.loc	17 859 26
	jmp	LBB165_3
LBB165_2:
	.loc	17 0 26
	movq	-80(%rbp), %rdi
Ltmp1077:
	.loc	17 860 27 is_stmt 1
	movb	$0, -33(%rbp)
	callq	__ZN5alloc7raw_vec11finish_grow28_$u7b$$u7b$closure$u7d$$u7d$17hc6d7c280c39f35e0E
	movq	%rax, %rcx
	movq	-72(%rbp), %rax
	.loc	17 860 23 is_stmt 0
	movq	%rcx, 8(%rax)
	movq	%rdx, 16(%rax)
	movq	$1, (%rax)
Ltmp1078:
LBB165_3:
	.loc	17 862 5 is_stmt 1
	testb	$1, -33(%rbp)
	jne	LBB165_5
LBB165_4:
	.loc	17 0 5 is_stmt 0
	movq	-64(%rbp), %rax
	.loc	17 862 6
	addq	$80, %rsp
	popq	%rbp
	retq
LBB165_5:
	.loc	17 862 5
	jmp	LBB165_4
Ltmp1079:
Lfunc_end165:
	.cfi_endproc

	.globl	__ZN4core6result19Result$LT$T$C$E$GT$7map_err17ha32b5c2f4f31bc43E
	.p2align	4, 0x90
__ZN4core6result19Result$LT$T$C$E$GT$7map_err17ha32b5c2f4f31bc43E:
Lfunc_begin166:
	.loc	17 857 0 is_stmt 1
	.cfi_startproc
	pushq	%rbp
	.cfi_def_cfa_offset 16
	.cfi_offset %rbp, -16
	movq	%rsp, %rbp
	.cfi_def_cfa_register %rbp
	subq	$80, %rsp
	movq	%rdi, -72(%rbp)
	movq	%rdi, -64(%rbp)
	movq	%rsi, -56(%rbp)
	movq	%rdx, -48(%rbp)
Ltmp1080:
	.loc	17 858 15 prologue_end
	movb	$1, -33(%rbp)
	xorl	%eax, %eax
	movl	$1, %ecx
	cmpq	$0, -48(%rbp)
	cmoveq	%rcx, %rax
	.loc	17 858 9 is_stmt 0
	cmpq	$0, %rax
	jne	LBB166_2
	.loc	17 0 9
	movq	-72(%rbp), %rax
	.loc	17 859 16 is_stmt 1
	movq	-56(%rbp), %rdx
	movq	-48(%rbp), %rcx
	movq	%rdx, -16(%rbp)
	movq	%rcx, -8(%rbp)
Ltmp1081:
	.loc	17 859 22 is_stmt 0
	movq	%rdx, 8(%rax)
	movq	%rcx, 16(%rax)
	movq	$0, (%rax)
Ltmp1082:
	.loc	17 859 26
	jmp	LBB166_3
LBB166_2:
Ltmp1083:
	.loc	17 860 27 is_stmt 1
	movb	$0, -33(%rbp)
	callq	__ZN5alloc7raw_vec11finish_grow28_$u7b$$u7b$closure$u7d$$u7d$17h5ec2cdf76820ae8bE
	movq	%rax, %rcx
	movq	-72(%rbp), %rax
	.loc	17 860 23 is_stmt 0
	movq	%rcx, 8(%rax)
	movq	%rdx, 16(%rax)
	movq	$1, (%rax)
Ltmp1084:
LBB166_3:
	.loc	17 862 5 is_stmt 1
	testb	$1, -33(%rbp)
	jne	LBB166_5
LBB166_4:
	.loc	17 0 5 is_stmt 0
	movq	-64(%rbp), %rax
	.loc	17 862 6
	addq	$80, %rsp
	popq	%rbp
	retq
LBB166_5:
	.loc	17 862 5
	jmp	LBB166_4
Ltmp1085:
Lfunc_end166:
	.cfi_endproc

	.globl	__ZN4core6result19Result$LT$T$C$E$GT$7map_err17hb580ea61b8b40201E
	.p2align	4, 0x90
__ZN4core6result19Result$LT$T$C$E$GT$7map_err17hb580ea61b8b40201E:
Lfunc_begin167:
	.loc	17 857 0 is_stmt 1
	.cfi_startproc
	pushq	%rbp
	.cfi_def_cfa_offset 16
	.cfi_offset %rbp, -16
	movq	%rsp, %rbp
	.cfi_def_cfa_register %rbp
	subq	$80, %rsp
	movq	%rcx, -80(%rbp)
	movq	%rdi, -72(%rbp)
	movq	%rdi, -64(%rbp)
	movq	%rsi, -56(%rbp)
	movq	%rdx, -48(%rbp)
	movq	%rcx, -32(%rbp)
Ltmp1086:
	.loc	17 858 15 prologue_end
	movb	$1, -33(%rbp)
	movq	-56(%rbp), %rdx
	xorl	%eax, %eax
	movl	$1, %ecx
	cmpq	$0, %rdx
	cmoveq	%rcx, %rax
	.loc	17 858 9 is_stmt 0
	cmpq	$0, %rax
	jne	LBB167_2
	.loc	17 0 9
	movq	-72(%rbp), %rax
	.loc	17 859 16 is_stmt 1
	movq	-56(%rbp), %rdx
	movq	-48(%rbp), %rcx
	movq	%rdx, -16(%rbp)
	movq	%rcx, -8(%rbp)
Ltmp1087:
	.loc	17 859 22 is_stmt 0
	movq	%rdx, 8(%rax)
	movq	%rcx, 16(%rax)
	movq	$0, (%rax)
Ltmp1088:
	.loc	17 859 26
	jmp	LBB167_3
LBB167_2:
	.loc	17 0 26
	movq	-80(%rbp), %rdi
Ltmp1089:
	.loc	17 860 27 is_stmt 1
	movb	$0, -33(%rbp)
	callq	__ZN5alloc7raw_vec19RawVec$LT$T$C$A$GT$6shrink28_$u7b$$u7b$closure$u7d$$u7d$17hc2eac87fbbce76feE
	movq	%rax, %rcx
	movq	-72(%rbp), %rax
	.loc	17 860 23 is_stmt 0
	movq	%rcx, 8(%rax)
	movq	%rdx, 16(%rax)
	movq	$1, (%rax)
Ltmp1090:
LBB167_3:
	.loc	17 862 5 is_stmt 1
	testb	$1, -33(%rbp)
	jne	LBB167_5
LBB167_4:
	.loc	17 0 5 is_stmt 0
	movq	-64(%rbp), %rax
	.loc	17 862 6
	addq	$80, %rsp
	popq	%rbp
	retq
LBB167_5:
	.loc	17 862 5
	jmp	LBB167_4
Ltmp1091:
Lfunc_end167:
	.cfi_endproc

	.globl	__ZN4core9panicking13assert_failed17hb1c73d592538c069E
	.p2align	4, 0x90
__ZN4core9panicking13assert_failed17hb1c73d592538c069E:
Lfunc_begin168:
	.file	40 "/rustc/2c8cc343237b8f7d5a3c3703e3a87f2eb2c54a74/library/core/src" "panicking.rs"
	.loc	40 202 0 is_stmt 1
	.cfi_startproc
	pushq	%rbp
	.cfi_def_cfa_offset 16
	.cfi_offset %rbp, -16
	movq	%rsp, %rbp
	.cfi_def_cfa_register %rbp
	subq	$96, %rsp
	movq	%rcx, -80(%rbp)
Ltmp1092:
	movq	%rdx, %rcx
	movq	-80(%rbp), %rdx
	movb	%dil, %al
	movq	%rsi, -72(%rbp)
	movq	%rcx, -64(%rbp)
	movb	%al, -1(%rbp)
Ltmp1093:
	.loc	40 212 46 prologue_end
	movq	40(%rdx), %rcx
	movq	%rcx, -16(%rbp)
	movq	32(%rdx), %rcx
	movq	%rcx, -24(%rbp)
	movq	24(%rdx), %rcx
	movq	%rcx, -32(%rbp)
	movq	16(%rdx), %rcx
	movq	%rcx, -40(%rbp)
	movq	(%rdx), %rcx
	movq	8(%rdx), %rdx
	movq	%rdx, -48(%rbp)
	movq	%rcx, -56(%rbp)
	.loc	40 212 5 is_stmt 0
	movq	%rsp, %rcx
	movq	%r8, (%rcx)
	movzbl	%al, %edi
	leaq	l___unnamed_3(%rip), %r8
	leaq	-72(%rbp), %rsi
	leaq	-64(%rbp), %rcx
	leaq	-56(%rbp), %r9
	movq	%r8, %rdx
	callq	__ZN4core9panicking19assert_failed_inner17hccca5a268c0d7621E
Ltmp1094:
Lfunc_end168:
	.cfi_endproc

	.globl	__ZN50_$LT$$RF$mut$u20$W$u20$as$u20$core..fmt..Write$GT$10write_char17hf27835605ac5e98eE
	.p2align	4, 0x90
__ZN50_$LT$$RF$mut$u20$W$u20$as$u20$core..fmt..Write$GT$10write_char17hf27835605ac5e98eE:
Lfunc_begin169:
	.loc	23 207 0 is_stmt 1
	.cfi_startproc
	pushq	%rbp
	.cfi_def_cfa_offset 16
	.cfi_offset %rbp, -16
	movq	%rsp, %rbp
	.cfi_def_cfa_register %rbp
	subq	$16, %rsp
	movq	%rdi, -16(%rbp)
	movl	%esi, -4(%rbp)
Ltmp1095:
	.loc	23 208 9 prologue_end
	movq	(%rdi), %rdi
	callq	__ZN4core3fmt5Write10write_char17hf78ed1aa24d60c71E
	.loc	23 209 6
	andb	$1, %al
	movzbl	%al, %eax
	addq	$16, %rsp
	popq	%rbp
	retq
Ltmp1096:
Lfunc_end169:
	.cfi_endproc

	.globl	__ZN50_$LT$$RF$mut$u20$W$u20$as$u20$core..fmt..Write$GT$9write_fmt17h68d0b9cf35f9ce44E
	.p2align	4, 0x90
__ZN50_$LT$$RF$mut$u20$W$u20$as$u20$core..fmt..Write$GT$9write_fmt17h68d0b9cf35f9ce44E:
Lfunc_begin170:
	.loc	23 211 0
	.cfi_startproc
	pushq	%rbp
	.cfi_def_cfa_offset 16
	.cfi_offset %rbp, -16
	movq	%rsp, %rbp
	.cfi_def_cfa_register %rbp
	subq	$64, %rsp
	movq	%rdi, -8(%rbp)
Ltmp1097:
	.loc	23 212 9 prologue_end
	movq	(%rdi), %rax
	movq	%rax, -64(%rbp)
	.loc	23 212 28 is_stmt 0
	leaq	-56(%rbp), %rdi
	movl	$48, %edx
	callq	_memcpy
Ltmp1098:
	.loc	23 0 28
	movq	-64(%rbp), %rdi
	.loc	23 212 9
	leaq	-56(%rbp), %rsi
	callq	__ZN4core3fmt5Write9write_fmt17h2b2228db15886c70E
	.loc	23 213 6 is_stmt 1
	andb	$1, %al
	movzbl	%al, %eax
	addq	$64, %rsp
	popq	%rbp
	retq
Ltmp1099:
Lfunc_end170:
	.cfi_endproc

	.globl	__ZN50_$LT$$RF$mut$u20$W$u20$as$u20$core..fmt..Write$GT$9write_str17hb224d06690d2201eE
	.p2align	4, 0x90
__ZN50_$LT$$RF$mut$u20$W$u20$as$u20$core..fmt..Write$GT$9write_str17hb224d06690d2201eE:
Lfunc_begin171:
	.loc	23 203 0
	.cfi_startproc
	pushq	%rbp
	.cfi_def_cfa_offset 16
	.cfi_offset %rbp, -16
	movq	%rsp, %rbp
	.cfi_def_cfa_register %rbp
	subq	$32, %rsp
	movq	%rdi, -24(%rbp)
	movq	%rsi, -16(%rbp)
	movq	%rdx, -8(%rbp)
Ltmp1100:
	.loc	23 204 9 prologue_end
	movq	(%rdi), %rdi
