	.section	__TEXT,__text,regular,pure_instructions
	.macosx_version_min 10, 7
	.file	1 "/rustc/2c8cc343237b8f7d5a3c3703e3a87f2eb2c54a74/library/std/src/thread" "local.rs"
	.globl	__ZN101_$LT$core..option..Option$LT$T$GT$$u20$as$u20$parking_lot_core..util..UncheckedOptionExt$LT$T$GT$$GT$16unchecked_unwrap17hca56f0bcd6cf226fE
	.p2align	4, 0x90
__ZN101_$LT$core..option..Option$LT$T$GT$$u20$as$u20$parking_lot_core..util..UncheckedOptionExt$LT$T$GT$$GT$16unchecked_unwrap17hca56f0bcd6cf226fE:
Lfunc_begin0:
	.file	2 "/Users/natalie/.cargo/registry/src/github.com-1ecc6299db9ec823/parking_lot_core-0.9.4/src" "util.rs"
	.loc	2 15 0
	.cfi_startproc
	pushq	%rbp
	.cfi_def_cfa_offset 16
	.cfi_offset %rbp, -16
	movq	%rsp, %rbp
	.cfi_def_cfa_register %rbp
	subq	$32, %rsp
	movq	%rdi, -24(%rbp)
	movq	%rsi, -16(%rbp)
Ltmp0:
	.loc	2 16 9 prologue_end
	cmpq	$0, -24(%rbp)
	jne	LBB0_2
	.loc	2 18 21
	callq	__ZN16parking_lot_core4util11unreachable17h2e3ec99d1f23889aE
LBB0_2:
	.loc	2 17 18
	movq	-16(%rbp), %rax
	movq	%rax, -8(%rbp)
	.loc	2 20 6
	addq	$32, %rsp
	popq	%rbp
	retq
Ltmp1:
Lfunc_end0:
	.cfi_endproc

	.globl	__ZN115_$LT$core..panic..unwind_safe..AssertUnwindSafe$LT$F$GT$$u20$as$u20$core..ops..function..FnOnce$LT$$LP$$RP$$GT$$GT$9call_once17h1d0eae6f5d1be260E
	.p2align	4, 0x90
__ZN115_$LT$core..panic..unwind_safe..AssertUnwindSafe$LT$F$GT$$u20$as$u20$core..ops..function..FnOnce$LT$$LP$$RP$$GT$$GT$9call_once17h1d0eae6f5d1be260E:
Lfunc_begin1:
	.file	3 "/rustc/2c8cc343237b8f7d5a3c3703e3a87f2eb2c54a74/library/core/src/panic" "unwind_safe.rs"
	.loc	3 270 0
	.cfi_startproc
	pushq	%rbp
	.cfi_def_cfa_offset 16
	.cfi_offset %rbp, -16
	movq	%rsp, %rbp
	.cfi_def_cfa_register %rbp
	subq	$16, %rsp
	movq	%rdi, -8(%rbp)
Ltmp2:
	.loc	3 271 9 prologue_end
	callq	__ZN4core3ops8function6FnOnce9call_once17hb49bfdef77dd0c0bE
	.loc	3 272 6
	addq	$16, %rsp
	popq	%rbp
	retq
Ltmp3:
Lfunc_end1:
	.cfi_endproc

	.p2align	4, 0x90
__ZN117_$LT$parking_lot_core..thread_parker..imp..ThreadParker$u20$as$u20$parking_lot_core..thread_parker..ThreadParkerT$GT$10park_until17h097183bd30d4c78cE:
Lfunc_begin2:
	.file	4 "/Users/natalie/.cargo/registry/src/github.com-1ecc6299db9ec823/parking_lot_core-0.9.4/src/thread_parker" "unix.rs"
	.loc	4 85 0
	.cfi_startproc
	pushq	%rbp
	.cfi_def_cfa_offset 16
	.cfi_offset %rbp, -16
	movq	%rsp, %rbp
	.cfi_def_cfa_register %rbp
	subq	$592, %rsp
	movq	%rdi, -536(%rbp)
	movq	%rsi, -512(%rbp)
	movq	%rdi, -136(%rbp)
	movq	%rdi, -8(%rbp)
Ltmp4:
	.loc	4 86 17 prologue_end
	callq	_pthread_mutex_lock
	movl	%eax, -500(%rbp)
Ltmp5:
	.loc	4 87 9
	leaq	-500(%rbp), %rax
	movq	%rax, -496(%rbp)
	leaq	L___unnamed_7(%rip), %rax
	movq	%rax, -488(%rbp)
	movq	-496(%rbp), %rax
	movq	%rax, -528(%rbp)
	movq	%rax, -128(%rbp)
	movq	-488(%rbp), %rcx
	movq	%rcx, -520(%rbp)
	movq	%rcx, -120(%rbp)
Ltmp6:
	.loc	4 87 9 is_stmt 0
	cmpl	$0, (%rax)
	sete	%al
	xorb	$-1, %al
	testb	$1, %al
	jne	LBB2_2
Ltmp7:
LBB2_1:
	.loc	4 0 9
	movq	-536(%rbp), %rdi
	.loc	4 88 15 is_stmt 1
	addq	$112, %rdi
	callq	__ZN4core4cell13Cell$LT$T$GT$3get17h4a0b39a74acd0539E
	testb	$1, %al
	jne	LBB2_4
	jmp	LBB2_3
LBB2_2:
	.loc	4 0 15 is_stmt 0
	movq	-520(%rbp), %rdx
	movq	-528(%rbp), %rsi
Ltmp8:
	.loc	4 87 9 is_stmt 1
	movb	$0, -473(%rbp)
Ltmp9:
	.loc	4 87 9 is_stmt 0
	movq	$0, -456(%rbp)
	leaq	l___unnamed_8(%rip), %r8
	xorl	%edi, %edi
	leaq	-472(%rbp), %rcx
	callq	__ZN4core9panicking13assert_failed17hb1c73d592538c069E
Ltmp10:
LBB2_3:
	.loc	4 0 9
	movq	-536(%rbp), %rdi
	movq	%rdi, -40(%rbp)
	.loc	4 112 17 is_stmt 1
	callq	_pthread_mutex_unlock
	movl	%eax, -212(%rbp)
Ltmp11:
	.loc	4 113 9
	leaq	-212(%rbp), %rax
	movq	%rax, -208(%rbp)
	leaq	L___unnamed_7(%rip), %rax
	movq	%rax, -200(%rbp)
	movq	-208(%rbp), %rax
	movq	%rax, -552(%rbp)
	movq	%rax, -72(%rbp)
	movq	-200(%rbp), %rcx
	movq	%rcx, -544(%rbp)
	movq	%rcx, -64(%rbp)
Ltmp12:
	.loc	4 113 9 is_stmt 0
	cmpl	$0, (%rax)
	sete	%al
	xorb	$-1, %al
	testb	$1, %al
	jne	LBB2_27
	jmp	LBB2_26
Ltmp13:
LBB2_4:
	.loc	4 89 23 is_stmt 1
	callq	__ZN3std4time7Instant3now17h325ddce48db31cf2E
	movq	%rax, -424(%rbp)
Ltmp14:
	.loc	4 90 16
	leaq	-512(%rbp), %rdi
	leaq	-424(%rbp), %rsi
	callq	__ZN4core3cmp10PartialOrd2le17h96af0cbacbeea29bE
	testb	$1, %al
	jne	LBB2_6
Ltmp15:
	.loc	4 96 51
	movq	-512(%rbp), %rdi
	.loc	4 96 61 is_stmt 0
	movq	-424(%rbp), %rsi
	.loc	4 96 51
	callq	__ZN60_$LT$std..time..Instant$u20$as$u20$core..ops..arith..Sub$GT$3sub17h4c8fd491bec4973fE
	movq	%rax, %rsi
	.loc	4 96 31
	leaq	-336(%rbp), %rdi
	callq	__ZN16parking_lot_core13thread_parker3imp19timeout_to_timespec17h655ecd15bbee5d90E
	.loc	4 96 20
	cmpq	$1, -336(%rbp)
	je	LBB2_10
	jmp	LBB2_11
Ltmp16:
LBB2_6:
	.loc	4 0 20
	movq	-536(%rbp), %rdi
	movq	%rdi, -16(%rbp)
	.loc	4 91 25 is_stmt 1
	callq	_pthread_mutex_unlock
	movl	%eax, -412(%rbp)
Ltmp17:
	.loc	4 92 17
	leaq	-412(%rbp), %rax
	movq	%rax, -408(%rbp)
	leaq	L___unnamed_7(%rip), %rax
	movq	%rax, -400(%rbp)
	movq	-408(%rbp), %rax
	movq	%rax, -568(%rbp)
	movq	%rax, -112(%rbp)
	movq	-400(%rbp), %rcx
	movq	%rcx, -560(%rbp)
	movq	%rcx, -104(%rbp)
Ltmp18:
	.loc	4 92 17 is_stmt 0
	cmpl	$0, (%rax)
	sete	%al
	xorb	$-1, %al
	testb	$1, %al
	jne	LBB2_8
Ltmp19:
	.loc	4 93 24 is_stmt 1
	movb	$0, -501(%rbp)
Ltmp20:
	.loc	4 115 6
	jmp	LBB2_9
LBB2_8:
	.loc	4 0 6 is_stmt 0
	movq	-560(%rbp), %rdx
	movq	-568(%rbp), %rsi
Ltmp21:
	.loc	4 92 17 is_stmt 1
	movb	$0, -385(%rbp)
Ltmp22:
	.loc	4 92 17 is_stmt 0
	movq	$0, -368(%rbp)
	leaq	l___unnamed_9(%rip), %r8
	xorl	%edi, %edi
	leaq	-384(%rbp), %rcx
	callq	__ZN4core9panicking13assert_failed17hb1c73d592538c069E
Ltmp23:
LBB2_9:
	.loc	4 115 6 is_stmt 1
	movb	-501(%rbp), %al
	andb	$1, %al
	movzbl	%al, %eax
	addq	$592, %rsp
	popq	%rbp
	retq
LBB2_10:
	.loc	4 0 6 is_stmt 0
	movq	-536(%rbp), %rsi
Ltmp24:
	.loc	4 96 25 is_stmt 1
	movq	-328(%rbp), %rcx
	movq	-320(%rbp), %rax
	movq	%rcx, -312(%rbp)
	movq	%rax, -304(%rbp)
	.loc	4 97 54
	movq	%rsi, %rdi
	addq	$64, %rdi
	movq	%rdi, -56(%rbp)
	movq	%rsi, -32(%rbp)
	.loc	4 97 25 is_stmt 0
	leaq	-312(%rbp), %rdx
	callq	_pthread_cond_timedwait
	movl	%eax, -572(%rbp)
	movl	%eax, -76(%rbp)
Ltmp25:
	.loc	4 98 20 is_stmt 1
	cmpq	$0, -312(%rbp)
	jl	LBB2_14
	jmp	LBB2_13
Ltmp26:
LBB2_11:
	.loc	4 0 20 is_stmt 0
	movq	-536(%rbp), %rsi
	.loc	4 108 49 is_stmt 1
	movq	%rsi, %rdi
	addq	$64, %rdi
	movq	%rdi, -48(%rbp)
	movq	%rsi, -24(%rbp)
	.loc	4 108 25 is_stmt 0
	callq	_pthread_cond_wait
	movl	%eax, -292(%rbp)
Ltmp27:
	.loc	4 109 17 is_stmt 1
	leaq	-292(%rbp), %rax
	movq	%rax, -288(%rbp)
	leaq	L___unnamed_7(%rip), %rax
	movq	%rax, -280(%rbp)
	movq	-288(%rbp), %rax
	movq	%rax, -592(%rbp)
	movq	%rax, -96(%rbp)
	movq	-280(%rbp), %rcx
	movq	%rcx, -584(%rbp)
	movq	%rcx, -88(%rbp)
Ltmp28:
	.loc	4 109 17 is_stmt 0
	cmpl	$0, (%rax)
	sete	%al
	xorb	$-1, %al
	testb	$1, %al
	jne	LBB2_12
	jmp	LBB2_1
LBB2_12:
	.loc	4 0 17
	movq	-584(%rbp), %rdx
	movq	-592(%rbp), %rsi
	.loc	4 109 17
	movb	$0, -265(%rbp)
Ltmp29:
	.loc	4 109 17
	movq	$0, -248(%rbp)
	leaq	l___unnamed_10(%rip), %r8
	xorl	%edi, %edi
	leaq	-264(%rbp), %rcx
	callq	__ZN4core9panicking13assert_failed17hb1c73d592538c069E
Ltmp30:
LBB2_13:
	.loc	4 0 17
	movl	-572(%rbp), %eax
Ltmp31:
	.loc	4 104 35 is_stmt 1
	cmpl	$0, %eax
	je	LBB2_22
	jmp	LBB2_23
LBB2_14:
	.loc	4 0 35 is_stmt 0
	movl	-572(%rbp), %eax
	.loc	4 102 35 is_stmt 1
	cmpl	$0, %eax
	jne	LBB2_16
	movb	$1, -294(%rbp)
	jmp	LBB2_17
LBB2_16:
	.loc	4 0 35 is_stmt 0
	movl	-572(%rbp), %eax
	.loc	4 102 45
	cmpl	$60, %eax
	sete	%al
	.loc	4 102 35
	andb	$1, %al
	movb	%al, -294(%rbp)
LBB2_17:
	testb	$1, -294(%rbp)
	jne	LBB2_19
	.loc	4 0 35
	movl	-572(%rbp), %eax
	.loc	4 102 69
	cmpl	$22, %eax
	sete	%al
	.loc	4 102 35
	andb	$1, %al
	movb	%al, -295(%rbp)
	jmp	LBB2_20
LBB2_19:
	movb	$1, -295(%rbp)
LBB2_20:
	.loc	4 102 21
	movb	-295(%rbp), %al
	xorb	$-1, %al
	testb	$1, %al
	jne	LBB2_21
	jmp	LBB2_1
LBB2_21:
	leaq	l___unnamed_11(%rip), %rdi
	leaq	l___unnamed_12(%rip), %rdx
	movl	$69, %esi
	callq	__ZN4core9panicking5panic17hc1bc45270cf64b03E
LBB2_22:
	.loc	4 104 35 is_stmt 1
	movb	$1, -293(%rbp)
	jmp	LBB2_24
LBB2_23:
	.loc	4 0 35 is_stmt 0
	movl	-572(%rbp), %eax
	.loc	4 104 45
	cmpl	$60, %eax
	sete	%al
	.loc	4 104 35
	andb	$1, %al
	movb	%al, -293(%rbp)
LBB2_24:
	.loc	4 104 21
	movb	-293(%rbp), %al
	xorb	$-1, %al
	testb	$1, %al
	jne	LBB2_25
	jmp	LBB2_1
LBB2_25:
	leaq	l___unnamed_13(%rip), %rdi
	leaq	l___unnamed_14(%rip), %rdx
	movl	$48, %esi
	callq	__ZN4core9panicking5panic17hc1bc45270cf64b03E
Ltmp32:
LBB2_26:
	.loc	4 114 9 is_stmt 1
	movb	$1, -501(%rbp)
Ltmp33:
	.loc	4 115 6
	jmp	LBB2_9
LBB2_27:
	.loc	4 0 6 is_stmt 0
	movq	-544(%rbp), %rdx
	movq	-552(%rbp), %rsi
Ltmp34:
	.loc	4 113 9 is_stmt 1
	movb	$0, -185(%rbp)
Ltmp35:
	.loc	4 113 9 is_stmt 0
	movq	$0, -168(%rbp)
	leaq	l___unnamed_15(%rip), %r8
	xorl	%edi, %edi
	leaq	-184(%rbp), %rcx
	callq	__ZN4core9panicking13assert_failed17hb1c73d592538c069E
Ltmp36:
Lfunc_end2:
	.cfi_endproc

	.p2align	4, 0x90
__ZN117_$LT$parking_lot_core..thread_parker..imp..ThreadParker$u20$as$u20$parking_lot_core..thread_parker..ThreadParkerT$GT$11unpark_lock17he447e1adb5cc7f3bE:
Lfunc_begin3:
	.loc	4 118 0 is_stmt 1
	.cfi_startproc
	pushq	%rbp
	.cfi_def_cfa_offset 16
	.cfi_offset %rbp, -16
	movq	%rsp, %rbp
	.cfi_def_cfa_register %rbp
	subq	$144, %rsp
	movq	%rdi, -144(%rbp)
	movq	%rdi, -32(%rbp)
	movq	%rdi, -8(%rbp)
Ltmp37:
	.loc	4 119 17 prologue_end
	callq	_pthread_mutex_lock
	movl	%eax, -108(%rbp)
Ltmp38:
	.loc	4 120 9
	leaq	-108(%rbp), %rax
	movq	%rax, -104(%rbp)
	leaq	L___unnamed_7(%rip), %rax
	movq	%rax, -96(%rbp)
	movq	-104(%rbp), %rax
	movq	%rax, -136(%rbp)
	movq	%rax, -24(%rbp)
	movq	-96(%rbp), %rcx
	movq	%rcx, -128(%rbp)
	movq	%rcx, -16(%rbp)
Ltmp39:
	.loc	4 120 9 is_stmt 0
	cmpl	$0, (%rax)
	sete	%al
	xorb	$-1, %al
	testb	$1, %al
	jne	LBB3_2
Ltmp40:
	.loc	4 0 9
	movq	-144(%rbp), %rax
	.loc	4 122 9 is_stmt 1
	movq	%rax, -120(%rbp)
Ltmp41:
	.loc	4 125 6
	movq	-120(%rbp), %rax
	addq	$144, %rsp
	popq	%rbp
	retq
LBB3_2:
	.loc	4 0 6 is_stmt 0
	movq	-128(%rbp), %rdx
	movq	-136(%rbp), %rsi
Ltmp42:
	.loc	4 120 9 is_stmt 1
	movb	$0, -81(%rbp)
Ltmp43:
	.loc	4 120 9 is_stmt 0
	movq	$0, -64(%rbp)
	leaq	l___unnamed_16(%rip), %r8
	xorl	%edi, %edi
	leaq	-80(%rbp), %rcx
	callq	__ZN4core9panicking13assert_failed17hb1c73d592538c069E
Ltmp44:
Lfunc_end3:
	.cfi_endproc

	.p2align	4, 0x90
__ZN117_$LT$parking_lot_core..thread_parker..imp..ThreadParker$u20$as$u20$parking_lot_core..thread_parker..ThreadParkerT$GT$12prepare_park17h6d5edcea5e75f839E:
Lfunc_begin4:
	.loc	4 51 0 is_stmt 1
	.cfi_startproc
	pushq	%rbp
	.cfi_def_cfa_offset 16
	.cfi_offset %rbp, -16
	movq	%rsp, %rbp
	.cfi_def_cfa_register %rbp
	subq	$16, %rsp
	movq	%rdi, -16(%rbp)
	movq	%rdi, -8(%rbp)
Ltmp45:
	.loc	4 52 9 prologue_end
	addq	$112, %rdi
	movl	$1, %esi
	callq	__ZN4core4cell13Cell$LT$T$GT$3set17h916739fa58dc872fE
	movq	-16(%rbp), %rdi
	.loc	4 53 13
	addq	$113, %rdi
	callq	__ZN4core4cell13Cell$LT$T$GT$3get17h4a0b39a74acd0539E
	.loc	4 53 12 is_stmt 0
	xorb	$-1, %al
	testb	$1, %al
	jne	LBB4_2
LBB4_1:
	.loc	4 57 6 is_stmt 1
	addq	$16, %rsp
	popq	%rbp
	retq
LBB4_2:
	.loc	4 0 6 is_stmt 0
	movq	-16(%rbp), %rdi
	.loc	4 54 13 is_stmt 1
	callq	__ZN16parking_lot_core13thread_parker3imp12ThreadParker4init17h5e074e3133359f11E
	movq	-16(%rbp), %rdi
	.loc	4 55 13
	addq	$113, %rdi
	movl	$1, %esi
	callq	__ZN4core4cell13Cell$LT$T$GT$3set17h916739fa58dc872fE
	jmp	LBB4_1
Ltmp46:
Lfunc_end4:
	.cfi_endproc

	.p2align	4, 0x90
__ZN117_$LT$parking_lot_core..thread_parker..imp..ThreadParker$u20$as$u20$parking_lot_core..thread_parker..ThreadParkerT$GT$4park17ha6245edde015e8afE:
Lfunc_begin5:
	.loc	4 73 0
	.cfi_startproc
	pushq	%rbp
	.cfi_def_cfa_offset 16
	.cfi_offset %rbp, -16
	movq	%rsp, %rbp
	.cfi_def_cfa_register %rbp
	subq	$384, %rsp
	movq	%rdi, -352(%rbp)
	movq	%rdi, -88(%rbp)
	movq	%rdi, -8(%rbp)
Ltmp47:
	.loc	4 74 17 prologue_end
	callq	_pthread_mutex_lock
	movl	%eax, -324(%rbp)
Ltmp48:
	.loc	4 75 9
	leaq	-324(%rbp), %rax
	movq	%rax, -320(%rbp)
	leaq	L___unnamed_7(%rip), %rax
	movq	%rax, -312(%rbp)
	movq	-320(%rbp), %rax
	movq	%rax, -344(%rbp)
	movq	%rax, -80(%rbp)
	movq	-312(%rbp), %rcx
	movq	%rcx, -336(%rbp)
	movq	%rcx, -72(%rbp)
Ltmp49:
	.loc	4 75 9 is_stmt 0
	cmpl	$0, (%rax)
	sete	%al
	xorb	$-1, %al
	testb	$1, %al
	jne	LBB5_2
Ltmp50:
LBB5_1:
	.loc	4 0 9
	movq	-352(%rbp), %rdi
	.loc	4 76 15 is_stmt 1
	addq	$112, %rdi
	callq	__ZN4core4cell13Cell$LT$T$GT$3get17h4a0b39a74acd0539E
	testb	$1, %al
	jne	LBB5_4
	jmp	LBB5_3
LBB5_2:
	.loc	4 0 15 is_stmt 0
	movq	-336(%rbp), %rdx
	movq	-344(%rbp), %rsi
Ltmp51:
	.loc	4 75 9 is_stmt 1
	movb	$0, -297(%rbp)
Ltmp52:
	.loc	4 75 9 is_stmt 0
	movq	$0, -280(%rbp)
	leaq	l___unnamed_17(%rip), %r8
	xorl	%edi, %edi
	leaq	-296(%rbp), %rcx
	callq	__ZN4core9panicking13assert_failed17hb1c73d592538c069E
Ltmp53:
LBB5_3:
	.loc	4 0 9
	movq	-352(%rbp), %rdi
	movq	%rdi, -24(%rbp)
	.loc	4 80 17 is_stmt 1
	callq	_pthread_mutex_unlock
	movl	%eax, -164(%rbp)
Ltmp54:
	.loc	4 81 9
	leaq	-164(%rbp), %rax
	movq	%rax, -160(%rbp)
	leaq	L___unnamed_7(%rip), %rax
	movq	%rax, -152(%rbp)
	movq	-160(%rbp), %rax
	movq	%rax, -368(%rbp)
	movq	%rax, -48(%rbp)
	movq	-152(%rbp), %rcx
	movq	%rcx, -360(%rbp)
	movq	%rcx, -40(%rbp)
Ltmp55:
	.loc	4 81 9 is_stmt 0
	cmpl	$0, (%rax)
	sete	%al
	xorb	$-1, %al
	testb	$1, %al
	jne	LBB5_7
	jmp	LBB5_6
Ltmp56:
LBB5_4:
	.loc	4 0 9
	movq	-352(%rbp), %rsi
	.loc	4 77 45 is_stmt 1
	movq	%rsi, %rdi
	addq	$64, %rdi
	movq	%rdi, -32(%rbp)
	movq	%rsi, -16(%rbp)
	.loc	4 77 21 is_stmt 0
	callq	_pthread_cond_wait
	movl	%eax, -244(%rbp)
Ltmp57:
	.loc	4 78 13 is_stmt 1
	leaq	-244(%rbp), %rax
	movq	%rax, -240(%rbp)
	leaq	L___unnamed_7(%rip), %rax
	movq	%rax, -232(%rbp)
	movq	-240(%rbp), %rax
	movq	%rax, -384(%rbp)
	movq	%rax, -64(%rbp)
	movq	-232(%rbp), %rcx
	movq	%rcx, -376(%rbp)
	movq	%rcx, -56(%rbp)
Ltmp58:
	.loc	4 78 13 is_stmt 0
	cmpl	$0, (%rax)
	sete	%al
	xorb	$-1, %al
	testb	$1, %al
	jne	LBB5_5
	jmp	LBB5_1
LBB5_5:
	.loc	4 0 13
	movq	-376(%rbp), %rdx
	movq	-384(%rbp), %rsi
	.loc	4 78 13
	movb	$0, -217(%rbp)
Ltmp59:
	.loc	4 78 13
	movq	$0, -200(%rbp)
	leaq	l___unnamed_18(%rip), %r8
	xorl	%edi, %edi
	leaq	-216(%rbp), %rcx
	callq	__ZN4core9panicking13assert_failed17hb1c73d592538c069E
Ltmp60:
LBB5_6:
	.loc	4 82 6 is_stmt 1
	addq	$384, %rsp
	popq	%rbp
	retq
LBB5_7:
	.loc	4 0 6 is_stmt 0
	movq	-360(%rbp), %rdx
	movq	-368(%rbp), %rsi
Ltmp61:
	.loc	4 81 9 is_stmt 1
	movb	$0, -137(%rbp)
Ltmp62:
	.loc	4 81 9 is_stmt 0
	movq	$0, -120(%rbp)
	leaq	l___unnamed_19(%rip), %r8
	xorl	%edi, %edi
	leaq	-136(%rbp), %rcx
	callq	__ZN4core9panicking13assert_failed17hb1c73d592538c069E
Ltmp63:
Lfunc_end5:
	.cfi_endproc

	.p2align	4, 0x90
__ZN117_$LT$parking_lot_core..thread_parker..imp..ThreadParker$u20$as$u20$parking_lot_core..thread_parker..ThreadParkerT$GT$9timed_out17h57a36ba3376cf27cE:
Lfunc_begin6:
	.loc	4 60 0 is_stmt 1
	.cfi_startproc
	pushq	%rbp
	.cfi_def_cfa_offset 16
	.cfi_offset %rbp, -16
	movq	%rsp, %rbp
	.cfi_def_cfa_register %rbp
	subq	$272, %rsp
	movq	%rdi, -248(%rbp)
	movq	%rdi, -64(%rbp)
	movq	%rdi, -8(%rbp)
Ltmp64:
	.loc	4 64 17 prologue_end
	callq	_pthread_mutex_lock
	movl	%eax, -220(%rbp)
Ltmp65:
	.loc	4 65 9
	leaq	-220(%rbp), %rax
	movq	%rax, -216(%rbp)
	leaq	L___unnamed_7(%rip), %rax
	movq	%rax, -208(%rbp)
	movq	-216(%rbp), %rax
	movq	%rax, -240(%rbp)
	movq	%rax, -56(%rbp)
	movq	-208(%rbp), %rcx
	movq	%rcx, -232(%rbp)
	movq	%rcx, -48(%rbp)
Ltmp66:
	.loc	4 65 9 is_stmt 0
	cmpl	$0, (%rax)
	sete	%al
	xorb	$-1, %al
	testb	$1, %al
	jne	LBB6_2
Ltmp67:
	.loc	4 0 9
	movq	-248(%rbp), %rdi
	.loc	4 66 27 is_stmt 1
	addq	$112, %rdi
	callq	__ZN4core4cell13Cell$LT$T$GT$3get17h4a0b39a74acd0539E
	movq	-248(%rbp), %rdi
	movb	%al, -265(%rbp)
	andb	$1, %al
	movb	%al, -33(%rbp)
	movq	%rdi, -16(%rbp)
Ltmp68:
	.loc	4 67 17
	callq	_pthread_mutex_unlock
	movl	%eax, -140(%rbp)
Ltmp69:
	.loc	4 68 9
	leaq	-140(%rbp), %rax
	movq	%rax, -136(%rbp)
	leaq	L___unnamed_7(%rip), %rax
	movq	%rax, -128(%rbp)
	movq	-136(%rbp), %rax
	movq	%rax, -264(%rbp)
	movq	%rax, -32(%rbp)
	movq	-128(%rbp), %rcx
	movq	%rcx, -256(%rbp)
	movq	%rcx, -24(%rbp)
Ltmp70:
	.loc	4 68 9 is_stmt 0
	cmpl	$0, (%rax)
	sete	%al
	xorb	$-1, %al
	testb	$1, %al
	jne	LBB6_4
	jmp	LBB6_3
Ltmp71:
LBB6_2:
	.loc	4 0 9
	movq	-232(%rbp), %rdx
	movq	-240(%rbp), %rsi
Ltmp72:
	.loc	4 65 9 is_stmt 1
	movb	$0, -193(%rbp)
Ltmp73:
	.loc	4 65 9 is_stmt 0
	movq	$0, -176(%rbp)
	leaq	l___unnamed_20(%rip), %r8
	xorl	%edi, %edi
	leaq	-192(%rbp), %rcx
	callq	__ZN4core9panicking13assert_failed17hb1c73d592538c069E
Ltmp74:
LBB6_3:
	.loc	4 0 9
	movb	-265(%rbp), %al
	.loc	4 70 6 is_stmt 1
	andb	$1, %al
	movzbl	%al, %eax
	addq	$272, %rsp
	popq	%rbp
	retq
LBB6_4:
	.loc	4 0 6 is_stmt 0
	movq	-256(%rbp), %rdx
	movq	-264(%rbp), %rsi
Ltmp75:
	.loc	4 68 9 is_stmt 1
	movb	$0, -113(%rbp)
Ltmp76:
	.loc	4 68 9 is_stmt 0
	movq	$0, -96(%rbp)
	leaq	l___unnamed_21(%rip), %r8
	xorl	%edi, %edi
	leaq	-112(%rbp), %rcx
	callq	__ZN4core9panicking13assert_failed17hb1c73d592538c069E
Ltmp77:
Lfunc_end6:
	.cfi_endproc

	.p2align	4, 0x90
__ZN117_$LT$parking_lot_core..thread_parker..imp..UnparkHandle$u20$as$u20$parking_lot_core..thread_parker..UnparkHandleT$GT$6unpark17hb14bc6cfd5a3218fE:
Lfunc_begin7:
	.loc	4 182 0 is_stmt 1
	.cfi_startproc
	pushq	%rbp
	.cfi_def_cfa_offset 16
	.cfi_offset %rbp, -16
	movq	%rsp, %rbp
	.cfi_def_cfa_register %rbp
	subq	$256, %rsp
	movq	%rdi, -216(%rbp)
Ltmp78:
	.loc	4 183 9 prologue_end
	movq	-216(%rbp), %rdi
	addq	$112, %rdi
	xorl	%esi, %esi
	callq	__ZN4core4cell13Cell$LT$T$GT$3set17h916739fa58dc872fE
	.loc	4 188 43
	movq	-216(%rbp), %rdi
	addq	$64, %rdi
	movq	%rdi, -16(%rbp)
	.loc	4 188 17 is_stmt 0
	callq	_pthread_cond_signal
	movl	%eax, -204(%rbp)
Ltmp79:
	.loc	4 189 9 is_stmt 1
	leaq	-204(%rbp), %rax
	movq	%rax, -200(%rbp)
	leaq	L___unnamed_7(%rip), %rax
	movq	%rax, -192(%rbp)
	movq	-200(%rbp), %rax
	movq	%rax, -232(%rbp)
	movq	%rax, -48(%rbp)
	movq	-192(%rbp), %rcx
	movq	%rcx, -224(%rbp)
	movq	%rcx, -40(%rbp)
Ltmp80:
	.loc	4 189 9 is_stmt 0
	cmpl	$0, (%rax)
	sete	%al
	xorb	$-1, %al
	testb	$1, %al
	jne	LBB7_2
Ltmp81:
	.loc	4 190 44 is_stmt 1
	movq	-216(%rbp), %rdi
	movq	%rdi, -8(%rbp)
	.loc	4 190 17 is_stmt 0
	callq	_pthread_mutex_unlock
	movl	%eax, -124(%rbp)
Ltmp82:
	.loc	4 191 9 is_stmt 1
	leaq	-124(%rbp), %rax
	movq	%rax, -120(%rbp)
	leaq	L___unnamed_7(%rip), %rax
	movq	%rax, -112(%rbp)
	movq	-120(%rbp), %rax
	movq	%rax, -248(%rbp)
	movq	%rax, -32(%rbp)
	movq	-112(%rbp), %rcx
	movq	%rcx, -240(%rbp)
	movq	%rcx, -24(%rbp)
Ltmp83:
	.loc	4 191 9 is_stmt 0
	cmpl	$0, (%rax)
	sete	%al
	xorb	$-1, %al
	testb	$1, %al
	jne	LBB7_4
	jmp	LBB7_3
Ltmp84:
LBB7_2:
	.loc	4 0 9
	movq	-224(%rbp), %rdx
	movq	-232(%rbp), %rsi
Ltmp85:
	.loc	4 189 9 is_stmt 1
	movb	$0, -177(%rbp)
Ltmp86:
	.loc	4 189 9 is_stmt 0
	movq	$0, -160(%rbp)
	leaq	l___unnamed_22(%rip), %r8
	xorl	%edi, %edi
	leaq	-176(%rbp), %rcx
	callq	__ZN4core9panicking13assert_failed17hb1c73d592538c069E
Ltmp87:
LBB7_3:
	.loc	4 192 6 is_stmt 1
	addq	$256, %rsp
	popq	%rbp
	retq
LBB7_4:
	.loc	4 0 6 is_stmt 0
	movq	-240(%rbp), %rdx
	movq	-248(%rbp), %rsi
Ltmp88:
	.loc	4 191 9 is_stmt 1
	movb	$0, -97(%rbp)
Ltmp89:
	.loc	4 191 9 is_stmt 0
	movq	$0, -80(%rbp)
	leaq	l___unnamed_23(%rip), %r8
	xorl	%edi, %edi
	leaq	-96(%rbp), %rcx
	callq	__ZN4core9panicking13assert_failed17hb1c73d592538c069E
Ltmp90:
Lfunc_end7:
	.cfi_endproc

	.globl	__ZN153_$LT$core..result..Result$LT$T$C$F$GT$$u20$as$u20$core..ops..try_trait..FromResidual$LT$core..result..Result$LT$core..convert..Infallible$C$E$GT$$GT$$GT$13from_residual17h4c96bce69edfd3e3E
	.p2align	4, 0x90
__ZN153_$LT$core..result..Result$LT$T$C$F$GT$$u20$as$u20$core..ops..try_trait..FromResidual$LT$core..result..Result$LT$core..convert..Infallible$C$E$GT$$GT$$GT$13from_residual17h4c96bce69edfd3e3E:
Lfunc_begin8:
	.file	5 "/rustc/2c8cc343237b8f7d5a3c3703e3a87f2eb2c54a74/library/core/src" "result.rs"
	.loc	5 2105 0 is_stmt 1
	.cfi_startproc
	pushq	%rbp
	.cfi_def_cfa_offset 16
	.cfi_offset %rbp, -16
	movq	%rsp, %rbp
	.cfi_def_cfa_register %rbp
	subq	$64, %rsp
	movq	%rdi, -64(%rbp)
	movq	%rsi, -56(%rbp)
Ltmp91:
	.loc	5 2107 17 prologue_end
	movq	-64(%rbp), %rcx
	movq	-56(%rbp), %rax
	movq	%rcx, -32(%rbp)
	movq	%rax, -24(%rbp)
	movq	%rcx, -16(%rbp)
	movq	%rax, -8(%rbp)
Ltmp92:
	.loc	5 2107 23 is_stmt 0
	movq	%rcx, -48(%rbp)
	movq	%rax, -40(%rbp)
Ltmp93:
	.loc	5 2109 6 is_stmt 1
	movq	-48(%rbp), %rax
	movq	-40(%rbp), %rdx
	addq	$64, %rsp
	popq	%rbp
	retq
Ltmp94:
Lfunc_end8:
	.cfi_endproc

	.globl	__ZN153_$LT$core..result..Result$LT$T$C$F$GT$$u20$as$u20$core..ops..try_trait..FromResidual$LT$core..result..Result$LT$core..convert..Infallible$C$E$GT$$GT$$GT$13from_residual17hda0ceaef5882eaa1E
	.p2align	4, 0x90
__ZN153_$LT$core..result..Result$LT$T$C$F$GT$$u20$as$u20$core..ops..try_trait..FromResidual$LT$core..result..Result$LT$core..convert..Infallible$C$E$GT$$GT$$GT$13from_residual17hda0ceaef5882eaa1E:
Lfunc_begin9:
	.loc	5 2105 0
	.cfi_startproc
	pushq	%rbp
	.cfi_def_cfa_offset 16
	.cfi_offset %rbp, -16
	movq	%rsp, %rbp
	.cfi_def_cfa_register %rbp
	subq	$48, %rsp
	movq	%rdi, %rax
	movq	%rsi, -48(%rbp)
	movq	%rdx, -40(%rbp)
Ltmp95:
	.loc	5 2107 17 prologue_end
	movq	-48(%rbp), %rdx
	movq	-40(%rbp), %rcx
	movq	%rdx, -32(%rbp)
	movq	%rcx, -24(%rbp)
	movq	%rdx, -16(%rbp)
	movq	%rcx, -8(%rbp)
Ltmp96:
	.loc	5 2107 23 is_stmt 0
	movq	%rdx, 8(%rdi)
	movq	%rcx, 16(%rdi)
	movq	$1, (%rdi)
Ltmp97:
	.loc	5 2109 6 is_stmt 1
	addq	$48, %rsp
	popq	%rbp
	retq
Ltmp98:
Lfunc_end9:
	.cfi_endproc

	.p2align	4, 0x90
__ZN16parking_lot_core11parking_lot10ParkResult11is_unparked17h3f3ff60b33c20e81E:
Lfunc_begin10:
	.file	6 "/Users/natalie/.cargo/registry/src/github.com-1ecc6299db9ec823/parking_lot_core-0.9.4/src" "parking_lot.rs"
	.loc	6 485 0
	.cfi_startproc
	pushq	%rbp
	.cfi_def_cfa_offset 16
	.cfi_offset %rbp, -16
	movq	%rsp, %rbp
	.cfi_def_cfa_register %rbp
	subq	$24, %rsp
	movq	%rdi, -24(%rbp)
	movq	%rsi, -16(%rbp)
Ltmp99:
	.loc	6 486 16 prologue_end
	cmpq	$0, -24(%rbp)
	jne	LBB10_2
	.loc	6 487 13
	movb	$1, -1(%rbp)
	.loc	6 486 9
	jmp	LBB10_3
LBB10_2:
	.loc	6 489 13
	movb	$0, -1(%rbp)
LBB10_3:
	.loc	6 491 6
	movb	-1(%rbp), %al
	andb	$1, %al
	movzbl	%al, %eax
	addq	$24, %rsp
	popq	%rbp
	retq
Ltmp100:
Lfunc_end10:
	.cfi_endproc

	.p2align	4, 0x90
__ZN16parking_lot_core11parking_lot10unpark_all17haacb8229eb1614e0E:
Lfunc_begin11:
	.loc	6 813 0
	.cfi_startproc
	.cfi_personality 155, _rust_eh_personality
	.cfi_lsda 16, Lexception0
	pushq	%rbp
	.cfi_def_cfa_offset 16
	.cfi_offset %rbp, -16
	movq	%rsp, %rbp
	.cfi_def_cfa_register %rbp
	subq	$704, %rsp
	movq	%rdi, -624(%rbp)
	movq	%rsi, -616(%rbp)
	movq	%rdi, -96(%rbp)
	movq	%rsi, -88(%rbp)
Ltmp142:
	.loc	6 815 9 prologue_end
	movb	$0, -97(%rbp)
	.loc	6 815 18 is_stmt 0
	callq	__ZN16parking_lot_core11parking_lot11lock_bucket17h7d64fcc90ba48539E
	movq	%rax, %rdi
	movq	%rdi, -608(%rbp)
	movq	%rdi, -80(%rbp)
Ltmp143:
	.loc	6 818 20 is_stmt 1
	movq	%rdi, %rax
	addq	$24, %rax
	movq	%rax, -600(%rbp)
Ltmp144:
	.loc	6 819 23
	addq	$24, %rdi
	callq	__ZN4core4cell13Cell$LT$T$GT$3get17h91f3150f3f68e435E
	movq	%rax, -592(%rbp)
Ltmp145:
	.file	7 "/rustc/2c8cc343237b8f7d5a3c3703e3a87f2eb2c54a74/library/core/src/ptr" "mod.rs"
	.loc	7 568 14
	movq	$0, -16(%rbp)
	movq	-16(%rbp), %rax
	movq	%rax, -8(%rbp)
Ltmp146:
	.file	8 "/rustc/2c8cc343237b8f7d5a3c3703e3a87f2eb2c54a74/library/core/src/ptr" "metadata.rs"
	.loc	8 118 36
	movq	%rax, -24(%rbp)
	.loc	8 118 14 is_stmt 0
	movq	-24(%rbp), %rax
	movq	%rax, -32(%rbp)
	movq	-32(%rbp), %rax
Ltmp147:
	.loc	6 820 24 is_stmt 1
	movq	%rax, -584(%rbp)
Ltmp148:
	.loc	6 821 23
	movb	$1, -97(%rbp)
	leaq	-576(%rbp), %rdi
	callq	__ZN8smallvec17SmallVec$LT$A$GT$3new17h06ae911583c36507E
LBB11_1:
Ltmp149:
	.loc	6 822 12
	movq	-592(%rbp), %rdi
Ltmp101:
	callq	__ZN4core3ptr9const_ptr33_$LT$impl$u20$$BP$const$u20$T$GT$7is_null17h4f24a6938c63d2a7E
Ltmp102:
	movb	%al, -625(%rbp)
	jmp	LBB11_4
Ltmp150:
LBB11_2:
	.loc	6 858 1
	testb	$1, -97(%rbp)
	jne	LBB11_34
	jmp	LBB11_33
LBB11_3:
Ltmp138:
	.loc	6 0 1 is_stmt 0
	movq	%rax, %rcx
	movl	%edx, %eax
	movq	%rcx, -72(%rbp)
	movl	%eax, -64(%rbp)
	jmp	LBB11_2
LBB11_4:
	movb	-625(%rbp), %al
Ltmp151:
	.loc	6 822 11 is_stmt 1
	xorb	$-1, %al
	testb	$1, %al
	jne	LBB11_6
	.loc	6 0 11 is_stmt 0
	movq	-608(%rbp), %rdi
	.loc	6 848 5 is_stmt 1
	addq	$16, %rdi
Ltmp103:
	callq	__ZN16parking_lot_core9word_lock8WordLock6unlock17hcabffee10591cf5aE
Ltmp104:
	jmp	LBB11_20
LBB11_6:
	.loc	6 823 12
	movq	-592(%rbp), %rdi
	addq	$120, %rdi
	.loc	6 823 32 is_stmt 0
	movb	$0, -489(%rbp)
	.loc	6 823 12
	movzbl	-489(%rbp), %esi
Ltmp120:
	callq	__ZN4core4sync6atomic11AtomicUsize4load17h9f59030344c744f2E
Ltmp121:
	movq	%rax, -640(%rbp)
	jmp	LBB11_7
LBB11_7:
	.loc	6 0 12
	movq	-640(%rbp), %rax
	movq	-624(%rbp), %rcx
	.loc	6 823 12
	cmpq	%rcx, %rax
	je	LBB11_9
	.loc	6 840 20 is_stmt 1
	movq	-592(%rbp), %rax
	subq	$-128, %rax
	.loc	6 840 13 is_stmt 0
	movq	%rax, -600(%rbp)
	.loc	6 841 24 is_stmt 1
	movq	-592(%rbp), %rax
	.loc	6 841 13 is_stmt 0
	movq	%rax, -584(%rbp)
	.loc	6 842 23 is_stmt 1
	movq	-600(%rbp), %rdi
Ltmp122:
	callq	__ZN4core4cell13Cell$LT$T$GT$3get17h91f3150f3f68e435E
Ltmp123:
	movq	%rax, -648(%rbp)
	jmp	LBB11_19
LBB11_9:
	.loc	6 825 24
	movq	-592(%rbp), %rdi
	subq	$-128, %rdi
Ltmp124:
	callq	__ZN4core4cell13Cell$LT$T$GT$3get17h91f3150f3f68e435E
Ltmp125:
	movq	%rax, -656(%rbp)
	jmp	LBB11_10
LBB11_10:
	.loc	6 0 24 is_stmt 0
	movq	-656(%rbp), %rsi
	.loc	6 825 24
	movq	%rsi, -56(%rbp)
Ltmp152:
	.loc	6 826 13 is_stmt 1
	movq	-600(%rbp), %rdi
Ltmp126:
	callq	__ZN4core4cell13Cell$LT$T$GT$3set17hd9caf1a89fe8b476E
Ltmp127:
	jmp	LBB11_11
LBB11_11:
	.loc	6 0 13 is_stmt 0
	movq	-608(%rbp), %rdi
	.loc	6 827 16 is_stmt 1
	addq	$32, %rdi
Ltmp128:
	callq	__ZN4core4cell13Cell$LT$T$GT$3get17h91f3150f3f68e435E
Ltmp129:
	movq	%rax, -664(%rbp)
	jmp	LBB11_12
LBB11_12:
	.loc	6 0 16 is_stmt 0
	movq	-664(%rbp), %rax
	.loc	6 827 16
	cmpq	-592(%rbp), %rax
	je	LBB11_14
LBB11_13:
	.loc	6 0 16
	movq	-616(%rbp), %rsi
	.loc	6 832 13 is_stmt 1
	movq	-592(%rbp), %rdi
	addq	$136, %rdi
Ltmp132:
	callq	__ZN4core4cell13Cell$LT$T$GT$3set17hb132ece05e8c701fE
Ltmp133:
	jmp	LBB11_16
LBB11_14:
	.loc	6 0 13 is_stmt 0
	movq	-608(%rbp), %rdi
	.loc	6 828 17 is_stmt 1
	addq	$32, %rdi
	.loc	6 828 39 is_stmt 0
	movq	-584(%rbp), %rsi
Ltmp130:
	.loc	6 828 17
	callq	__ZN4core4cell13Cell$LT$T$GT$3set17hd9caf1a89fe8b476E
Ltmp131:
	jmp	LBB11_15
LBB11_15:
	jmp	LBB11_13
LBB11_16:
	.loc	6 837 26 is_stmt 1
	movq	-592(%rbp), %rdi
Ltmp134:
	callq	__ZN117_$LT$parking_lot_core..thread_parker..imp..ThreadParker$u20$as$u20$parking_lot_core..thread_parker..ThreadParkerT$GT$11unpark_lock17he447e1adb5cc7f3bE
Ltmp135:
	movq	%rax, -672(%rbp)
	jmp	LBB11_17
LBB11_17:
Ltmp136:
	.loc	6 0 26 is_stmt 0
	movq	-672(%rbp), %rsi
	leaq	-576(%rbp), %rdi
	.loc	6 837 13
	callq	__ZN8smallvec17SmallVec$LT$A$GT$4push17h4ed5036c7154b753E
Ltmp137:
	jmp	LBB11_18
LBB11_18:
	.loc	6 0 13
	movq	-656(%rbp), %rax
	.loc	6 838 13 is_stmt 1
	movq	%rax, -592(%rbp)
Ltmp153:
	.loc	6 823 9
	jmp	LBB11_1
LBB11_19:
	.loc	6 0 9 is_stmt 0
	movq	-648(%rbp), %rax
	.loc	6 842 13 is_stmt 1
	movq	%rax, -592(%rbp)
	.loc	6 823 9
	jmp	LBB11_1
LBB11_20:
Ltmp105:
	.loc	6 0 9 is_stmt 0
	leaq	-576(%rbp), %rdi
	.loc	6 852 23 is_stmt 1
	callq	__ZN8smallvec17SmallVec$LT$A$GT$3len17h1f07c27878ec5cc0E
Ltmp106:
	movq	%rax, -680(%rbp)
	jmp	LBB11_21
LBB11_21:
	.loc	6 0 23 is_stmt 0
	movq	-680(%rbp), %rax
	.loc	6 852 23
	movq	%rax, -48(%rbp)
Ltmp154:
	.loc	6 853 19 is_stmt 1
	movb	$0, -97(%rbp)
	movl	$10, %ecx
	leaq	-296(%rbp), %rdi
	movq	%rdi, -688(%rbp)
	leaq	-576(%rbp), %rsi
	rep;movsq (%rsi), %es:(%rdi)
	movq	-688(%rbp), %rsi
Ltmp107:
	leaq	-392(%rbp), %rdi
	callq	__ZN89_$LT$smallvec..SmallVec$LT$A$GT$$u20$as$u20$core..iter..traits..collect..IntoIterator$GT$9into_iter17hb6cc9d347ba3afd9E
Ltmp108:
	jmp	LBB11_22
LBB11_22:
Ltmp109:
	.loc	6 0 19 is_stmt 0
	leaq	-488(%rbp), %rdi
	leaq	-392(%rbp), %rsi
	.loc	6 853 19
	callq	__ZN63_$LT$I$u20$as$u20$core..iter..traits..collect..IntoIterator$GT$9into_iter17h256022907c14a20fE
Ltmp110:
	jmp	LBB11_23
LBB11_23:
	leaq	-216(%rbp), %rdi
	leaq	-488(%rbp), %rsi
	movl	$96, %edx
	callq	_memcpy
LBB11_24:
Ltmp111:
	.loc	6 0 19
	leaq	-216(%rbp), %rdi
Ltmp155:
	.loc	6 853 19
	callq	__ZN86_$LT$smallvec..IntoIter$LT$A$GT$$u20$as$u20$core..iter..traits..iterator..Iterator$GT$4next17he6ea7cc7f8217f27E
Ltmp112:
	movq	%rdx, -704(%rbp)
	movq	%rax, -696(%rbp)
	jmp	LBB11_27
Ltmp156:
LBB11_25:
Ltmp116:
	.loc	6 0 19
	leaq	-216(%rbp), %rdi
	.loc	6 853 5
	callq	__ZN4core3ptr118drop_in_place$LT$smallvec..IntoIter$LT$$u5b$parking_lot_core..thread_parker..imp..UnparkHandle$u3b$$u20$8$u5d$$GT$$GT$17ha40853de69e74404E
Ltmp117:
	jmp	LBB11_2
LBB11_26:
Ltmp115:
	.loc	6 0 5
	movq	%rax, %rcx
	movl	%edx, %eax
	movq	%rcx, -72(%rbp)
	movl	%eax, -64(%rbp)
	jmp	LBB11_25
LBB11_27:
	movq	-704(%rbp), %rax
	movq	-696(%rbp), %rcx
Ltmp157:
	.loc	6 853 19
	movq	%rcx, -120(%rbp)
	movq	%rax, -112(%rbp)
	cmpq	$0, -120(%rbp)
	jne	LBB11_29
Ltmp158:
Ltmp118:
	.loc	6 0 19
	leaq	-216(%rbp), %rdi
	.loc	6 853 5
	callq	__ZN4core3ptr118drop_in_place$LT$smallvec..IntoIter$LT$$u5b$parking_lot_core..thread_parker..imp..UnparkHandle$u3b$$u20$8$u5d$$GT$$GT$17ha40853de69e74404E
Ltmp119:
	jmp	LBB11_32
LBB11_29:
Ltmp159:
	.loc	6 853 9
	movq	-112(%rbp), %rdi
	movq	%rdi, -40(%rbp)
Ltmp113:
Ltmp160:
	.loc	6 854 9 is_stmt 1
	callq	__ZN117_$LT$parking_lot_core..thread_parker..imp..UnparkHandle$u20$as$u20$parking_lot_core..thread_parker..UnparkHandleT$GT$6unpark17hb14bc6cfd5a3218fE
Ltmp114:
	jmp	LBB11_30
LBB11_30:
	jmp	LBB11_24
Ltmp161:
LBB11_31:
Ltmp141:
	.loc	6 813 1
	callq	__ZN4core9panicking19panic_cannot_unwind17h1fbca7e1d7f56ae1E
LBB11_32:
	.loc	6 0 1 is_stmt 0
	movq	-680(%rbp), %rax
Ltmp162:
	.loc	6 858 1 is_stmt 1
	movb	$0, -97(%rbp)
Ltmp163:
	.loc	6 858 2 is_stmt 0
	addq	$704, %rsp
	popq	%rbp
	retq
LBB11_33:
	.loc	6 813 1 is_stmt 1
	movq	-72(%rbp), %rdi
	callq	__Unwind_Resume
LBB11_34:
Ltmp139:
	.loc	6 0 1 is_stmt 0
	leaq	-576(%rbp), %rdi
Ltmp164:
	.loc	6 858 1 is_stmt 1
	callq	__ZN4core3ptr118drop_in_place$LT$smallvec..SmallVec$LT$$u5b$parking_lot_core..thread_parker..imp..UnparkHandle$u3b$$u20$8$u5d$$GT$$GT$17hbef3c15ea5114cbfE
Ltmp140:
	jmp	LBB11_33
Ltmp165:
Lfunc_end11:
	.cfi_endproc
	.section	__TEXT,__gcc_except_tab
	.p2align	2
GCC_except_table11:
Lexception0:
	.byte	255
	.byte	255
	.byte	1
	.uleb128 Lcst_end0-Lcst_begin0
Lcst_begin0:
	.uleb128 Lfunc_begin11-Lfunc_begin11
	.uleb128 Ltmp101-Lfunc_begin11
	.byte	0
	.byte	0
	.uleb128 Ltmp101-Lfunc_begin11
	.uleb128 Ltmp110-Ltmp101
	.uleb128 Ltmp138-Lfunc_begin11
	.byte	0
	.uleb128 Ltmp110-Lfunc_begin11
	.uleb128 Ltmp111-Ltmp110
	.byte	0
	.byte	0
	.uleb128 Ltmp111-Lfunc_begin11
	.uleb128 Ltmp112-Ltmp111
	.uleb128 Ltmp115-Lfunc_begin11
	.byte	0
	.uleb128 Ltmp116-Lfunc_begin11
	.uleb128 Ltmp117-Ltmp116
	.uleb128 Ltmp141-Lfunc_begin11
	.byte	0
	.uleb128 Ltmp118-Lfunc_begin11
	.uleb128 Ltmp119-Ltmp118
	.uleb128 Ltmp138-Lfunc_begin11
	.byte	0
	.uleb128 Ltmp113-Lfunc_begin11
	.uleb128 Ltmp114-Ltmp113
	.uleb128 Ltmp115-Lfunc_begin11
	.byte	0
	.uleb128 Ltmp114-Lfunc_begin11
	.uleb128 Ltmp139-Ltmp114
	.byte	0
	.byte	0
	.uleb128 Ltmp139-Lfunc_begin11
	.uleb128 Ltmp140-Ltmp139
	.uleb128 Ltmp141-Lfunc_begin11
	.byte	0
Lcst_end0:
	.p2align	2

	.section	__TEXT,__text,regular,pure_instructions
	.globl	__ZN16parking_lot_core11parking_lot10unpark_one17h2f9a04f4d81c9e54E
	.p2align	4, 0x90
__ZN16parking_lot_core11parking_lot10unpark_one17h2f9a04f4d81c9e54E:
Lfunc_begin12:
	.loc	6 732 0
	.cfi_startproc
	.cfi_personality 155, _rust_eh_personality
	.cfi_lsda 16, Lexception1
	pushq	%rbp
	.cfi_def_cfa_offset 16
	.cfi_offset %rbp, -16
	movq	%rsp, %rbp
	.cfi_def_cfa_register %rbp
	subq	$448, %rsp
	movq	%rcx, -336(%rbp)
	movq	%rdx, -328(%rbp)
	movq	%rsi, -320(%rbp)
	movq	%rdi, %rax
	movq	-320(%rbp), %rdi
	movq	%rax, -312(%rbp)
	movq	%rax, -304(%rbp)
	movq	%rdi, -112(%rbp)
	movq	%rdx, -104(%rbp)
	movq	%rcx, -96(%rbp)
Ltmp209:
	.loc	6 737 9 prologue_end
	movb	$0, -113(%rbp)
	movb	$1, -113(%rbp)
Ltmp166:
	.loc	6 737 18 is_stmt 0
	callq	__ZN16parking_lot_core11parking_lot11lock_bucket17h7d64fcc90ba48539E
Ltmp167:
	movq	%rax, -296(%rbp)
	jmp	LBB12_3
LBB12_1:
	.loc	6 795 1 is_stmt 1
	testb	$1, -113(%rbp)
	jne	LBB12_40
	jmp	LBB12_39
LBB12_2:
Ltmp208:
	.loc	6 0 1 is_stmt 0
	movq	%rax, %rcx
	movl	%edx, %eax
	movq	%rcx, -88(%rbp)
	movl	%eax, -80(%rbp)
	jmp	LBB12_1
LBB12_3:
	movq	-296(%rbp), %rdi
	.loc	6 737 18 is_stmt 1
	movq	%rdi, -72(%rbp)
Ltmp210:
	.loc	6 740 20
	addq	$24, %rdi
	movq	%rdi, -288(%rbp)
Ltmp168:
Ltmp211:
	.loc	6 741 23
	callq	__ZN4core4cell13Cell$LT$T$GT$3get17h91f3150f3f68e435E
Ltmp169:
	movq	%rax, -344(%rbp)
	jmp	LBB12_4
LBB12_4:
	.loc	6 0 23 is_stmt 0
	movq	-344(%rbp), %rax
	.loc	6 741 23
	movq	%rax, -280(%rbp)
Ltmp212:
	.loc	7 568 14 is_stmt 1
	movq	$0, -24(%rbp)
	movq	-24(%rbp), %rax
	movq	%rax, -16(%rbp)
Ltmp213:
	.loc	8 118 36
	movq	%rax, -32(%rbp)
	.loc	8 118 14 is_stmt 0
	movq	-32(%rbp), %rax
	movq	%rax, -40(%rbp)
	movq	-40(%rbp), %rax
	movq	%rax, -352(%rbp)
Ltmp214:
	.loc	8 0 14
	movq	-352(%rbp), %rax
	.loc	6 742 24 is_stmt 1
	movq	%rax, -272(%rbp)
Ltmp170:
	leaq	-264(%rbp), %rdi
Ltmp215:
	.loc	6 743 22
	callq	__ZN86_$LT$parking_lot_core..parking_lot..UnparkResult$u20$as$u20$core..default..Default$GT$7default17hbb16d72f09b92fbaE
Ltmp171:
	jmp	LBB12_6
LBB12_6:
	jmp	LBB12_7
LBB12_7:
Ltmp216:
	.loc	6 744 12
	movq	-280(%rbp), %rdi
Ltmp172:
	callq	__ZN4core3ptr9const_ptr33_$LT$impl$u20$$BP$const$u20$T$GT$7is_null17h4f24a6938c63d2a7E
Ltmp173:
	movb	%al, -353(%rbp)
	jmp	LBB12_8
LBB12_8:
	.loc	6 0 12 is_stmt 0
	movb	-353(%rbp), %al
	.loc	6 744 11
	xorb	$-1, %al
	testb	$1, %al
	jne	LBB12_10
	.loc	6 0 11
	movq	-336(%rbp), %rsi
	movq	-328(%rbp), %rdi
	.loc	6 791 5 is_stmt 1
	movb	$0, -113(%rbp)
	.loc	6 791 14 is_stmt 0
	movq	-248(%rbp), %rax
	movq	%rax, -128(%rbp)
	movq	-264(%rbp), %rax
	movq	-256(%rbp), %rcx
	movq	%rcx, -136(%rbp)
	movq	%rax, -144(%rbp)
	.loc	6 791 5
	movq	-128(%rbp), %rax
	movq	%rax, -152(%rbp)
	movq	-144(%rbp), %rax
	movq	-136(%rbp), %rcx
	movq	%rcx, -160(%rbp)
	movq	%rax, -168(%rbp)
Ltmp174:
	leaq	-168(%rbp), %rdx
	callq	__ZN4core3ops8function6FnOnce9call_once17haf1ada4b4c3863beE
Ltmp175:
	jmp	LBB12_37
LBB12_10:
	.loc	6 745 12 is_stmt 1
	movq	-280(%rbp), %rdi
	addq	$120, %rdi
	.loc	6 745 32 is_stmt 0
	movb	$0, -233(%rbp)
	.loc	6 745 12
	movzbl	-233(%rbp), %esi
Ltmp178:
	callq	__ZN4core4sync6atomic11AtomicUsize4load17h9f59030344c744f2E
Ltmp179:
	movq	%rax, -368(%rbp)
	jmp	LBB12_11
LBB12_11:
	.loc	6 0 12
	movq	-368(%rbp), %rax
	movq	-320(%rbp), %rcx
	.loc	6 745 12
	cmpq	%rcx, %rax
	je	LBB12_13
	.loc	6 784 20 is_stmt 1
	movq	-280(%rbp), %rax
	subq	$-128, %rax
	.loc	6 784 13 is_stmt 0
	movq	%rax, -288(%rbp)
	.loc	6 785 24 is_stmt 1
	movq	-280(%rbp), %rax
	.loc	6 785 13 is_stmt 0
	movq	%rax, -272(%rbp)
	.loc	6 786 23 is_stmt 1
	movq	-288(%rbp), %rdi
Ltmp180:
	callq	__ZN4core4cell13Cell$LT$T$GT$3get17h91f3150f3f68e435E
Ltmp181:
	movq	%rax, -376(%rbp)
	jmp	LBB12_36
LBB12_13:
	.loc	6 747 24
	movq	-280(%rbp), %rdi
	subq	$-128, %rdi
Ltmp182:
	callq	__ZN4core4cell13Cell$LT$T$GT$3get17h91f3150f3f68e435E
Ltmp183:
	movq	%rax, -384(%rbp)
	jmp	LBB12_14
LBB12_14:
	.loc	6 0 24 is_stmt 0
	movq	-384(%rbp), %rsi
	.loc	6 747 24
	movq	%rsi, -64(%rbp)
Ltmp217:
	.loc	6 748 13 is_stmt 1
	movq	-288(%rbp), %rdi
Ltmp184:
	callq	__ZN4core4cell13Cell$LT$T$GT$3set17hd9caf1a89fe8b476E
Ltmp185:
	jmp	LBB12_15
LBB12_15:
	.loc	6 0 13 is_stmt 0
	movq	-296(%rbp), %rdi
	.loc	6 749 16 is_stmt 1
	addq	$32, %rdi
Ltmp186:
	callq	__ZN4core4cell13Cell$LT$T$GT$3get17h91f3150f3f68e435E
Ltmp187:
	movq	%rax, -392(%rbp)
	jmp	LBB12_16
LBB12_16:
	.loc	6 0 16 is_stmt 0
	movq	-392(%rbp), %rax
	.loc	6 749 16
	cmpq	-280(%rbp), %rax
	je	LBB12_18
	.loc	6 0 16
	movq	-384(%rbp), %rax
	.loc	6 754 32 is_stmt 1
	movq	%rax, -232(%rbp)
Ltmp218:
	.loc	6 755 17
	jmp	LBB12_21
Ltmp219:
LBB12_18:
	.loc	6 0 17 is_stmt 0
	movq	-296(%rbp), %rdi
	.loc	6 750 17 is_stmt 1
	addq	$32, %rdi
	.loc	6 750 39 is_stmt 0
	movq	-272(%rbp), %rsi
Ltmp194:
	.loc	6 750 17
	callq	__ZN4core4cell13Cell$LT$T$GT$3set17hd9caf1a89fe8b476E
Ltmp195:
	jmp	LBB12_19
LBB12_19:
	jmp	LBB12_20
LBB12_20:
	.loc	6 0 17
	movq	-296(%rbp), %rax
	.loc	6 765 13 is_stmt 1
	movq	$1, -264(%rbp)
	movq	%rax, -8(%rbp)
Ltmp220:
	.file	9 "/rustc/2c8cc343237b8f7d5a3c3703e3a87f2eb2c54a74/library/core/src" "cell.rs"
	.loc	9 2000 6
	jmp	LBB12_28
Ltmp221:
LBB12_21:
	.loc	6 755 24
	movq	-232(%rbp), %rdi
Ltmp188:
	callq	__ZN4core3ptr9const_ptr33_$LT$impl$u20$$BP$const$u20$T$GT$7is_null17h4f24a6938c63d2a7E
Ltmp189:
	movb	%al, -393(%rbp)
	jmp	LBB12_22
LBB12_22:
	.loc	6 0 24 is_stmt 0
	movb	-393(%rbp), %al
	.loc	6 755 23
	xorb	$-1, %al
	testb	$1, %al
	jne	LBB12_23
	jmp	LBB12_20
LBB12_23:
	.loc	6 756 24 is_stmt 1
	movq	-232(%rbp), %rdi
	addq	$120, %rdi
	.loc	6 756 41 is_stmt 0
	movb	$0, -217(%rbp)
	.loc	6 756 24
	movzbl	-217(%rbp), %esi
Ltmp190:
	callq	__ZN4core4sync6atomic11AtomicUsize4load17h9f59030344c744f2E
Ltmp191:
	movq	%rax, -408(%rbp)
	jmp	LBB12_24
LBB12_24:
	.loc	6 0 24
	movq	-408(%rbp), %rax
	movq	-320(%rbp), %rcx
	.loc	6 756 24
	cmpq	%rcx, %rax
	je	LBB12_26
	.loc	6 760 28 is_stmt 1
	movq	-232(%rbp), %rdi
	subq	$-128, %rdi
Ltmp192:
	callq	__ZN4core4cell13Cell$LT$T$GT$3get17h91f3150f3f68e435E
Ltmp193:
	movq	%rax, -416(%rbp)
	jmp	LBB12_27
LBB12_26:
	.loc	6 757 25
	movb	$1, -248(%rbp)
	.file	10 "/Users/natalie/.cargo/registry/src/github.com-1ecc6299db9ec823/parking_lot-0.12.1" "src/lib.rs"
	.loc	10 1 1
	jmp	LBB12_20
LBB12_27:
	.loc	10 0 1 is_stmt 0
	movq	-416(%rbp), %rax
	.loc	6 760 21 is_stmt 1
	movq	%rax, -232(%rbp)
	.loc	6 755 17
	jmp	LBB12_21
Ltmp222:
LBB12_28:
Ltmp196:
	.loc	6 0 17 is_stmt 0
	movq	-296(%rbp), %rdi
	.loc	6 766 30 is_stmt 1
	callq	__ZN16parking_lot_core11parking_lot11FairTimeout14should_timeout17h1e5603a903a5a60cE
Ltmp197:
	movb	%al, -417(%rbp)
	jmp	LBB12_29
LBB12_29:
	.loc	6 0 30 is_stmt 0
	movq	-336(%rbp), %rsi
	movq	-328(%rbp), %rdi
	movb	-417(%rbp), %al
	.loc	6 766 13
	andb	$1, %al
	movb	%al, -247(%rbp)
	.loc	6 767 25 is_stmt 1
	movb	$0, -113(%rbp)
	.loc	6 767 34 is_stmt 0
	movq	-248(%rbp), %rax
	movq	%rax, -176(%rbp)
	movq	-264(%rbp), %rax
	movq	-256(%rbp), %rcx
	movq	%rcx, -184(%rbp)
	movq	%rax, -192(%rbp)
	.loc	6 767 25
	movq	-176(%rbp), %rax
	movq	%rax, -200(%rbp)
	movq	-192(%rbp), %rax
	movq	-184(%rbp), %rcx
	movq	%rcx, -208(%rbp)
	movq	%rax, -216(%rbp)
Ltmp198:
	leaq	-216(%rbp), %rdx
	callq	__ZN4core3ops8function6FnOnce9call_once17haf1ada4b4c3863beE
Ltmp199:
	movq	%rax, -432(%rbp)
	jmp	LBB12_30
LBB12_30:
	.loc	6 0 25
	movq	-432(%rbp), %rsi
	.loc	6 767 25
	movq	%rsi, -56(%rbp)
Ltmp223:
	.loc	6 770 13 is_stmt 1
	movq	-280(%rbp), %rdi
	addq	$136, %rdi
Ltmp200:
	callq	__ZN4core4cell13Cell$LT$T$GT$3set17hb132ece05e8c701fE
Ltmp201:
	jmp	LBB12_31
LBB12_31:
	.loc	6 777 26
	movq	-280(%rbp), %rdi
Ltmp202:
	callq	__ZN117_$LT$parking_lot_core..thread_parker..imp..ThreadParker$u20$as$u20$parking_lot_core..thread_parker..ThreadParkerT$GT$11unpark_lock17he447e1adb5cc7f3bE
Ltmp203:
	movq	%rax, -440(%rbp)
	jmp	LBB12_32
LBB12_32:
	.loc	6 0 26 is_stmt 0
	movq	-296(%rbp), %rdi
	movq	-440(%rbp), %rax
	.loc	6 777 26
	movq	%rax, -48(%rbp)
Ltmp224:
	.loc	6 779 13 is_stmt 1
	addq	$16, %rdi
Ltmp204:
	callq	__ZN16parking_lot_core9word_lock8WordLock6unlock17hcabffee10591cf5aE
Ltmp205:
	jmp	LBB12_33
LBB12_33:
Ltmp206:
	.loc	6 0 13 is_stmt 0
	movq	-440(%rbp), %rdi
	.loc	6 780 13 is_stmt 1
	callq	__ZN117_$LT$parking_lot_core..thread_parker..imp..UnparkHandle$u20$as$u20$parking_lot_core..thread_parker..UnparkHandleT$GT$6unpark17hb14bc6cfd5a3218fE
Ltmp207:
	jmp	LBB12_34
LBB12_34:
	.loc	6 0 13 is_stmt 0
	movq	-312(%rbp), %rax
	.loc	6 782 20 is_stmt 1
	movq	-264(%rbp), %rcx
	movq	%rcx, (%rax)
	movq	-256(%rbp), %rcx
	movq	%rcx, 8(%rax)
	movq	-248(%rbp), %rcx
	movq	%rcx, 16(%rax)
Ltmp225:
LBB12_35:
	.loc	6 0 20 is_stmt 0
	movq	-304(%rbp), %rax
	.loc	6 795 2 is_stmt 1
	addq	$448, %rsp
	popq	%rbp
	retq
LBB12_36:
	.loc	6 0 2 is_stmt 0
	movq	-376(%rbp), %rax
Ltmp226:
	.loc	6 786 13 is_stmt 1
	movq	%rax, -280(%rbp)
	.loc	6 744 5
	jmp	LBB12_7
LBB12_37:
	.loc	6 0 5 is_stmt 0
	movq	-296(%rbp), %rdi
	.loc	6 793 5 is_stmt 1
	addq	$16, %rdi
Ltmp176:
	callq	__ZN16parking_lot_core9word_lock8WordLock6unlock17hcabffee10591cf5aE
Ltmp177:
	jmp	LBB12_38
LBB12_38:
	.loc	6 0 5 is_stmt 0
	movq	-312(%rbp), %rax
	.loc	6 794 5 is_stmt 1
	movq	-264(%rbp), %rcx
	movq	%rcx, (%rax)
	movq	-256(%rbp), %rcx
	movq	%rcx, 8(%rax)
	movq	-248(%rbp), %rcx
	movq	%rcx, 16(%rax)
Ltmp227:
	.loc	6 795 1
	jmp	LBB12_35
LBB12_39:
	.loc	6 732 1
	movq	-88(%rbp), %rdi
	callq	__Unwind_Resume
LBB12_40:
	.loc	6 795 1
	jmp	LBB12_39
Ltmp228:
Lfunc_end12:
	.cfi_endproc
	.section	__TEXT,__gcc_except_tab
	.p2align	2
GCC_except_table12:
Lexception1:
	.byte	255
	.byte	255
	.byte	1
	.uleb128 Lcst_end1-Lcst_begin1
Lcst_begin1:
	.uleb128 Ltmp166-Lfunc_begin12
	.uleb128 Ltmp177-Ltmp166
	.uleb128 Ltmp208-Lfunc_begin12
	.byte	0
	.uleb128 Ltmp177-Lfunc_begin12
	.uleb128 Lfunc_end12-Ltmp177
	.byte	0
	.byte	0
Lcst_end1:
	.p2align	2

	.section	__TEXT,__text,regular,pure_instructions
	.globl	__ZN16parking_lot_core11parking_lot10unpark_one17hbfe35b54d88b8cdfE
	.p2align	4, 0x90
__ZN16parking_lot_core11parking_lot10unpark_one17hbfe35b54d88b8cdfE:
Lfunc_begin13:
	.loc	6 732 0
	.cfi_startproc
	.cfi_personality 155, _rust_eh_personality
	.cfi_lsda 16, Lexception2
	pushq	%rbp
	.cfi_def_cfa_offset 16
	.cfi_offset %rbp, -16
	movq	%rsp, %rbp
	.cfi_def_cfa_register %rbp
	subq	$432, %rsp
	movq	%rdx, -320(%rbp)
	movq	%rsi, -312(%rbp)
	movq	%rdi, %rax
	movq	-312(%rbp), %rdi
	movq	%rax, -304(%rbp)
	movq	%rax, -296(%rbp)
	movq	%rdi, -104(%rbp)
	movq	%rdx, -96(%rbp)
Ltmp272:
	.loc	6 737 9 prologue_end
	movb	$0, -105(%rbp)
	movb	$1, -105(%rbp)
Ltmp229:
	.loc	6 737 18 is_stmt 0
	callq	__ZN16parking_lot_core11parking_lot11lock_bucket17h7d64fcc90ba48539E
Ltmp230:
	movq	%rax, -288(%rbp)
	jmp	LBB13_3
LBB13_1:
	.loc	6 795 1 is_stmt 1
	testb	$1, -105(%rbp)
	jne	LBB13_40
	jmp	LBB13_39
LBB13_2:
Ltmp271:
	.loc	6 0 1 is_stmt 0
	movq	%rax, %rcx
	movl	%edx, %eax
	movq	%rcx, -88(%rbp)
	movl	%eax, -80(%rbp)
	jmp	LBB13_1
LBB13_3:
	movq	-288(%rbp), %rdi
	.loc	6 737 18 is_stmt 1
	movq	%rdi, -72(%rbp)
Ltmp273:
	.loc	6 740 20
	addq	$24, %rdi
	movq	%rdi, -280(%rbp)
Ltmp231:
Ltmp274:
	.loc	6 741 23
	callq	__ZN4core4cell13Cell$LT$T$GT$3get17h91f3150f3f68e435E
Ltmp232:
	movq	%rax, -328(%rbp)
	jmp	LBB13_4
LBB13_4:
	.loc	6 0 23 is_stmt 0
	movq	-328(%rbp), %rax
	.loc	6 741 23
	movq	%rax, -272(%rbp)
Ltmp275:
	.loc	7 568 14 is_stmt 1
	movq	$0, -24(%rbp)
	movq	-24(%rbp), %rax
	movq	%rax, -16(%rbp)
Ltmp276:
	.loc	8 118 36
	movq	%rax, -32(%rbp)
	.loc	8 118 14 is_stmt 0
	movq	-32(%rbp), %rax
	movq	%rax, -40(%rbp)
	movq	-40(%rbp), %rax
	movq	%rax, -336(%rbp)
Ltmp277:
	.loc	8 0 14
	movq	-336(%rbp), %rax
	.loc	6 742 24 is_stmt 1
	movq	%rax, -264(%rbp)
Ltmp233:
	leaq	-256(%rbp), %rdi
Ltmp278:
	.loc	6 743 22
	callq	__ZN86_$LT$parking_lot_core..parking_lot..UnparkResult$u20$as$u20$core..default..Default$GT$7default17hbb16d72f09b92fbaE
Ltmp234:
	jmp	LBB13_6
LBB13_6:
	jmp	LBB13_7
LBB13_7:
Ltmp279:
	.loc	6 744 12
	movq	-272(%rbp), %rdi
Ltmp235:
	callq	__ZN4core3ptr9const_ptr33_$LT$impl$u20$$BP$const$u20$T$GT$7is_null17h4f24a6938c63d2a7E
Ltmp236:
	movb	%al, -337(%rbp)
	jmp	LBB13_8
LBB13_8:
	.loc	6 0 12 is_stmt 0
	movb	-337(%rbp), %al
	.loc	6 744 11
	xorb	$-1, %al
	testb	$1, %al
	jne	LBB13_10
	.loc	6 0 11
	movq	-320(%rbp), %rdi
	.loc	6 791 5 is_stmt 1
	movb	$0, -105(%rbp)
	.loc	6 791 14 is_stmt 0
	movq	-240(%rbp), %rax
	movq	%rax, -120(%rbp)
	movq	-256(%rbp), %rax
	movq	-248(%rbp), %rcx
	movq	%rcx, -128(%rbp)
	movq	%rax, -136(%rbp)
	.loc	6 791 5
	movq	-120(%rbp), %rax
	movq	%rax, -144(%rbp)
	movq	-136(%rbp), %rax
	movq	-128(%rbp), %rcx
	movq	%rcx, -152(%rbp)
	movq	%rax, -160(%rbp)
Ltmp237:
	leaq	-160(%rbp), %rsi
	callq	__ZN4core3ops8function6FnOnce9call_once17h4b6b1dc2ea426ba0E
Ltmp238:
	jmp	LBB13_37
LBB13_10:
	.loc	6 745 12 is_stmt 1
	movq	-272(%rbp), %rdi
	addq	$120, %rdi
	.loc	6 745 32 is_stmt 0
	movb	$0, -225(%rbp)
	.loc	6 745 12
	movzbl	-225(%rbp), %esi
Ltmp241:
	callq	__ZN4core4sync6atomic11AtomicUsize4load17h9f59030344c744f2E
Ltmp242:
	movq	%rax, -352(%rbp)
	jmp	LBB13_11
LBB13_11:
	.loc	6 0 12
	movq	-352(%rbp), %rax
	movq	-312(%rbp), %rcx
	.loc	6 745 12
	cmpq	%rcx, %rax
	je	LBB13_13
	.loc	6 784 20 is_stmt 1
	movq	-272(%rbp), %rax
	subq	$-128, %rax
	.loc	6 784 13 is_stmt 0
	movq	%rax, -280(%rbp)
	.loc	6 785 24 is_stmt 1
	movq	-272(%rbp), %rax
	.loc	6 785 13 is_stmt 0
	movq	%rax, -264(%rbp)
	.loc	6 786 23 is_stmt 1
	movq	-280(%rbp), %rdi
Ltmp243:
	callq	__ZN4core4cell13Cell$LT$T$GT$3get17h91f3150f3f68e435E
Ltmp244:
	movq	%rax, -360(%rbp)
	jmp	LBB13_36
LBB13_13:
	.loc	6 747 24
	movq	-272(%rbp), %rdi
	subq	$-128, %rdi
Ltmp245:
	callq	__ZN4core4cell13Cell$LT$T$GT$3get17h91f3150f3f68e435E
Ltmp246:
	movq	%rax, -368(%rbp)
	jmp	LBB13_14
LBB13_14:
	.loc	6 0 24 is_stmt 0
	movq	-368(%rbp), %rsi
	.loc	6 747 24
	movq	%rsi, -64(%rbp)
Ltmp280:
	.loc	6 748 13 is_stmt 1
	movq	-280(%rbp), %rdi
Ltmp247:
	callq	__ZN4core4cell13Cell$LT$T$GT$3set17hd9caf1a89fe8b476E
Ltmp248:
	jmp	LBB13_15
LBB13_15:
	.loc	6 0 13 is_stmt 0
	movq	-288(%rbp), %rdi
	.loc	6 749 16 is_stmt 1
	addq	$32, %rdi
Ltmp249:
	callq	__ZN4core4cell13Cell$LT$T$GT$3get17h91f3150f3f68e435E
Ltmp250:
	movq	%rax, -376(%rbp)
	jmp	LBB13_16
LBB13_16:
	.loc	6 0 16 is_stmt 0
	movq	-376(%rbp), %rax
	.loc	6 749 16
	cmpq	-272(%rbp), %rax
	je	LBB13_18
	.loc	6 0 16
	movq	-368(%rbp), %rax
	.loc	6 754 32 is_stmt 1
	movq	%rax, -224(%rbp)
Ltmp281:
	.loc	6 755 17
	jmp	LBB13_21
Ltmp282:
LBB13_18:
	.loc	6 0 17 is_stmt 0
	movq	-288(%rbp), %rdi
	.loc	6 750 17 is_stmt 1
	addq	$32, %rdi
	.loc	6 750 39 is_stmt 0
	movq	-264(%rbp), %rsi
Ltmp257:
	.loc	6 750 17
	callq	__ZN4core4cell13Cell$LT$T$GT$3set17hd9caf1a89fe8b476E
Ltmp258:
	jmp	LBB13_19
LBB13_19:
	jmp	LBB13_20
LBB13_20:
	.loc	6 0 17
	movq	-288(%rbp), %rax
	.loc	6 765 13 is_stmt 1
	movq	$1, -256(%rbp)
	movq	%rax, -8(%rbp)
Ltmp283:
	.loc	9 2000 6
	jmp	LBB13_28
Ltmp284:
LBB13_21:
	.loc	6 755 24
	movq	-224(%rbp), %rdi
Ltmp251:
	callq	__ZN4core3ptr9const_ptr33_$LT$impl$u20$$BP$const$u20$T$GT$7is_null17h4f24a6938c63d2a7E
Ltmp252:
	movb	%al, -377(%rbp)
	jmp	LBB13_22
LBB13_22:
	.loc	6 0 24 is_stmt 0
	movb	-377(%rbp), %al
	.loc	6 755 23
	xorb	$-1, %al
	testb	$1, %al
	jne	LBB13_23
	jmp	LBB13_20
LBB13_23:
	.loc	6 756 24 is_stmt 1
	movq	-224(%rbp), %rdi
	addq	$120, %rdi
	.loc	6 756 41 is_stmt 0
	movb	$0, -209(%rbp)
	.loc	6 756 24
	movzbl	-209(%rbp), %esi
Ltmp253:
	callq	__ZN4core4sync6atomic11AtomicUsize4load17h9f59030344c744f2E
Ltmp254:
	movq	%rax, -392(%rbp)
	jmp	LBB13_24
LBB13_24:
	.loc	6 0 24
	movq	-392(%rbp), %rax
	movq	-312(%rbp), %rcx
	.loc	6 756 24
	cmpq	%rcx, %rax
	je	LBB13_26
	.loc	6 760 28 is_stmt 1
	movq	-224(%rbp), %rdi
	subq	$-128, %rdi
Ltmp255:
	callq	__ZN4core4cell13Cell$LT$T$GT$3get17h91f3150f3f68e435E
Ltmp256:
	movq	%rax, -400(%rbp)
	jmp	LBB13_27
LBB13_26:
	.loc	6 757 25
	movb	$1, -240(%rbp)
	.loc	10 1 1
	jmp	LBB13_20
LBB13_27:
	.loc	10 0 1 is_stmt 0
	movq	-400(%rbp), %rax
	.loc	6 760 21 is_stmt 1
	movq	%rax, -224(%rbp)
	.loc	6 755 17
	jmp	LBB13_21
Ltmp285:
LBB13_28:
Ltmp259:
	.loc	6 0 17 is_stmt 0
	movq	-288(%rbp), %rdi
	.loc	6 766 30 is_stmt 1
	callq	__ZN16parking_lot_core11parking_lot11FairTimeout14should_timeout17h1e5603a903a5a60cE
Ltmp260:
	movb	%al, -401(%rbp)
	jmp	LBB13_29
LBB13_29:
	.loc	6 0 30 is_stmt 0
	movq	-320(%rbp), %rdi
	movb	-401(%rbp), %al
	.loc	6 766 13
	andb	$1, %al
	movb	%al, -239(%rbp)
	.loc	6 767 25 is_stmt 1
	movb	$0, -105(%rbp)
	.loc	6 767 34 is_stmt 0
	movq	-240(%rbp), %rax
	movq	%rax, -168(%rbp)
	movq	-256(%rbp), %rax
	movq	-248(%rbp), %rcx
	movq	%rcx, -176(%rbp)
	movq	%rax, -184(%rbp)
	.loc	6 767 25
	movq	-168(%rbp), %rax
	movq	%rax, -192(%rbp)
	movq	-184(%rbp), %rax
	movq	-176(%rbp), %rcx
	movq	%rcx, -200(%rbp)
	movq	%rax, -208(%rbp)
Ltmp261:
	leaq	-208(%rbp), %rsi
	callq	__ZN4core3ops8function6FnOnce9call_once17h4b6b1dc2ea426ba0E
Ltmp262:
	movq	%rax, -416(%rbp)
	jmp	LBB13_30
LBB13_30:
	.loc	6 0 25
	movq	-416(%rbp), %rsi
	.loc	6 767 25
	movq	%rsi, -56(%rbp)
Ltmp286:
	.loc	6 770 13 is_stmt 1
	movq	-272(%rbp), %rdi
	addq	$136, %rdi
Ltmp263:
	callq	__ZN4core4cell13Cell$LT$T$GT$3set17hb132ece05e8c701fE
Ltmp264:
	jmp	LBB13_31
LBB13_31:
	.loc	6 777 26
	movq	-272(%rbp), %rdi
Ltmp265:
	callq	__ZN117_$LT$parking_lot_core..thread_parker..imp..ThreadParker$u20$as$u20$parking_lot_core..thread_parker..ThreadParkerT$GT$11unpark_lock17he447e1adb5cc7f3bE
Ltmp266:
	movq	%rax, -424(%rbp)
	jmp	LBB13_32
LBB13_32:
	.loc	6 0 26 is_stmt 0
	movq	-288(%rbp), %rdi
	movq	-424(%rbp), %rax
	.loc	6 777 26
	movq	%rax, -48(%rbp)
Ltmp287:
	.loc	6 779 13 is_stmt 1
	addq	$16, %rdi
Ltmp267:
	callq	__ZN16parking_lot_core9word_lock8WordLock6unlock17hcabffee10591cf5aE
Ltmp268:
	jmp	LBB13_33
LBB13_33:
Ltmp269:
	.loc	6 0 13 is_stmt 0
	movq	-424(%rbp), %rdi
	.loc	6 780 13 is_stmt 1
	callq	__ZN117_$LT$parking_lot_core..thread_parker..imp..UnparkHandle$u20$as$u20$parking_lot_core..thread_parker..UnparkHandleT$GT$6unpark17hb14bc6cfd5a3218fE
Ltmp270:
	jmp	LBB13_34
LBB13_34:
	.loc	6 0 13 is_stmt 0
	movq	-304(%rbp), %rax
	.loc	6 782 20 is_stmt 1
	movq	-256(%rbp), %rcx
	movq	%rcx, (%rax)
	movq	-248(%rbp), %rcx
	movq	%rcx, 8(%rax)
	movq	-240(%rbp), %rcx
	movq	%rcx, 16(%rax)
Ltmp288:
LBB13_35:
	.loc	6 0 20 is_stmt 0
	movq	-296(%rbp), %rax
	.loc	6 795 2 is_stmt 1
	addq	$432, %rsp
	popq	%rbp
	retq
LBB13_36:
	.loc	6 0 2 is_stmt 0
	movq	-360(%rbp), %rax
Ltmp289:
	.loc	6 786 13 is_stmt 1
	movq	%rax, -272(%rbp)
	.loc	6 744 5
	jmp	LBB13_7
LBB13_37:
	.loc	6 0 5 is_stmt 0
	movq	-288(%rbp), %rdi
	.loc	6 793 5 is_stmt 1
	addq	$16, %rdi
Ltmp239:
	callq	__ZN16parking_lot_core9word_lock8WordLock6unlock17hcabffee10591cf5aE
Ltmp240:
	jmp	LBB13_38
LBB13_38:
	.loc	6 0 5 is_stmt 0
	movq	-304(%rbp), %rax
	.loc	6 794 5 is_stmt 1
	movq	-256(%rbp), %rcx
	movq	%rcx, (%rax)
	movq	-248(%rbp), %rcx
	movq	%rcx, 8(%rax)
	movq	-240(%rbp), %rcx
	movq	%rcx, 16(%rax)
Ltmp290:
	.loc	6 795 1
	jmp	LBB13_35
LBB13_39:
	.loc	6 732 1
	movq	-88(%rbp), %rdi
	callq	__Unwind_Resume
LBB13_40:
	.loc	6 795 1
	jmp	LBB13_39
Ltmp291:
Lfunc_end13:
	.cfi_endproc
	.section	__TEXT,__gcc_except_tab
	.p2align	2
GCC_except_table13:
Lexception2:
	.byte	255
	.byte	255
	.byte	1
	.uleb128 Lcst_end2-Lcst_begin2
Lcst_begin2:
	.uleb128 Ltmp229-Lfunc_begin13
	.uleb128 Ltmp240-Ltmp229
	.uleb128 Ltmp271-Lfunc_begin13
	.byte	0
	.uleb128 Ltmp240-Lfunc_begin13
	.uleb128 Lfunc_end13-Ltmp240
	.byte	0
	.byte	0
Lcst_end2:
	.p2align	2

	.section	__TEXT,__text,regular,pure_instructions
	.p2align	4, 0x90
__ZN16parking_lot_core11parking_lot11FairTimeout14should_timeout17h1e5603a903a5a60cE:
Lfunc_begin14:
	.loc	6 130 0
	.cfi_startproc
	pushq	%rbp
	.cfi_def_cfa_offset 16
	.cfi_offset %rbp, -16
	movq	%rsp, %rbp
	.cfi_def_cfa_register %rbp
	subq	$48, %rsp
	movq	%rdi, -40(%rbp)
	movq	%rdi, -16(%rbp)
Ltmp292:
	.loc	6 131 19 prologue_end
	callq	__ZN3std4time7Instant3now17h325ddce48db31cf2E
	movq	-40(%rbp), %rsi
	movq	%rax, -24(%rbp)
Ltmp293:
	.loc	6 132 12
	leaq	-24(%rbp), %rdi
	callq	__ZN4core3cmp10PartialOrd2gt17h09dff0b6b966024bE
	testb	$1, %al
	jne	LBB14_2
	.loc	6 138 13
	movb	$0, -25(%rbp)
	.loc	6 132 9
	jmp	LBB14_3
LBB14_2:
	.loc	6 0 9 is_stmt 0
	movq	-40(%rbp), %rdi
	.loc	6 134 25 is_stmt 1
	callq	__ZN16parking_lot_core11parking_lot11FairTimeout7gen_u3217h10a9a9ab5bbb14e1E
	movl	$1000000, %ecx
	xorl	%edx, %edx
	divl	%ecx
	movl	%edx, %esi
	movl	%esi, -4(%rbp)
Ltmp294:
	.loc	6 135 28
	movq	-24(%rbp), %rax
	movq	%rax, -48(%rbp)
	.loc	6 135 34 is_stmt 0
	xorl	%eax, %eax
	movl	%eax, %edi
	callq	__ZN4core4time8Duration3new17h6f094ea9abdf3a87E
	movq	-48(%rbp), %rdi
	movq	%rax, %rsi
	.loc	6 135 28
	callq	__ZN88_$LT$std..time..Instant$u20$as$u20$core..ops..arith..Add$LT$core..time..Duration$GT$$GT$3add17h0488e6b48cc663a3E
	movq	%rax, %rcx
	movq	-40(%rbp), %rax
	.loc	6 135 13
	movq	%rcx, (%rax)
	.loc	6 136 13 is_stmt 1
	movb	$1, -25(%rbp)
Ltmp295:
LBB14_3:
	.loc	6 140 6
	movb	-25(%rbp), %al
	andb	$1, %al
	movzbl	%al, %eax
	addq	$48, %rsp
	popq	%rbp
	retq
Ltmp296:
Lfunc_end14:
	.cfi_endproc

	.p2align	4, 0x90
__ZN16parking_lot_core11parking_lot11lock_bucket17h7d64fcc90ba48539E:
Lfunc_begin15:
	.loc	6 358 0
	.cfi_startproc
	pushq	%rbp
	.cfi_def_cfa_offset 16
	.cfi_offset %rbp, -16
	movq	%rsp, %rbp
	.cfi_def_cfa_register %rbp
	subq	$80, %rsp
	movq	%rdi, -48(%rbp)
	movq	%rdi, -32(%rbp)
LBB15_1:
Ltmp297:
	.loc	6 360 25 prologue_end
	callq	__ZN16parking_lot_core11parking_lot13get_hashtable17h590c04283eddbb68E
	movq	-48(%rbp), %rdi
	movq	%rax, -72(%rbp)
	movq	%rax, -24(%rbp)
Ltmp298:
	.loc	6 362 30
	movl	24(%rax), %esi
	.loc	6 362 20 is_stmt 0
	callq	__ZN16parking_lot_core11parking_lot4hash17h27ec87ece7cb0105E
	movq	-72(%rbp), %rcx
	movq	%rax, -64(%rbp)
	movq	%rax, -16(%rbp)
Ltmp299:
	.loc	6 363 23 is_stmt 1
	movq	8(%rcx), %rcx
	movq	%rcx, -56(%rbp)
	cmpq	%rcx, %rax
	setb	%al
	testb	$1, %al
	jne	LBB15_2
	jmp	LBB15_3
LBB15_2:
	.loc	6 0 23 is_stmt 0
	movq	-72(%rbp), %rax
	movq	-64(%rbp), %rdi
	.loc	6 363 22
	shlq	$6, %rdi
	addq	(%rax), %rdi
	movq	%rdi, -80(%rbp)
	movq	%rdi, -8(%rbp)
Ltmp300:
	.loc	6 366 9 is_stmt 1
	addq	$16, %rdi
	callq	__ZN16parking_lot_core9word_lock8WordLock4lock17h6da5af21e8d9a399E
	.loc	6 370 27
	movb	$0, -33(%rbp)
	.loc	6 370 12 is_stmt 0
	movq	__ZN16parking_lot_core11parking_lot9HASHTABLE17h0901050c19a5fa90E@GOTPCREL(%rip), %rdi
	movzbl	-33(%rbp), %esi
	callq	__ZN4core4sync6atomic18AtomicPtr$LT$T$GT$4load17h2ddad4f475d10571E
	movq	-72(%rbp), %rcx
	cmpq	%rcx, %rax
	je	LBB15_5
	jmp	LBB15_4
Ltmp301:
LBB15_3:
	.loc	6 0 12
	movq	-56(%rbp), %rsi
	movq	-64(%rbp), %rdi
	.loc	6 363 23 is_stmt 1
	leaq	l___unnamed_24(%rip), %rdx
	callq	__ZN4core9panicking18panic_bounds_check17hacb8a94866cda541E
LBB15_4:
	.loc	6 0 23 is_stmt 0
	movq	-80(%rbp), %rdi
Ltmp302:
	.loc	6 376 18 is_stmt 1
	addq	$16, %rdi
	callq	__ZN16parking_lot_core9word_lock8WordLock6unlock17hcabffee10591cf5aE
	jmp	LBB15_1
Ltmp303:
LBB15_5:
	.loc	6 0 18 is_stmt 0
	movq	-80(%rbp), %rax
	.loc	6 378 2 is_stmt 1
	addq	$80, %rsp
	popq	%rbp
	retq
Ltmp304:
Lfunc_end15:
	.cfi_endproc

	.p2align	4, 0x90
__ZN16parking_lot_core11parking_lot13get_hashtable17h590c04283eddbb68E:
Lfunc_begin16:
	.loc	6 220 0
	.cfi_startproc
	pushq	%rbp
	.cfi_def_cfa_offset 16
	.cfi_offset %rbp, -16
	movq	%rsp, %rbp
	.cfi_def_cfa_register %rbp
	subq	$32, %rsp
Ltmp305:
	.loc	6 221 32 prologue_end
	movb	$2, -9(%rbp)
	.loc	6 221 17 is_stmt 0
	movq	__ZN16parking_lot_core11parking_lot9HASHTABLE17h0901050c19a5fa90E@GOTPCREL(%rip), %rdi
	movzbl	-9(%rbp), %esi
	callq	__ZN4core4sync6atomic18AtomicPtr$LT$T$GT$4load17h2ddad4f475d10571E
	movq	%rax, %rdi
	movq	%rdi, -32(%rbp)
	movq	%rdi, -8(%rbp)
Ltmp306:
	.loc	6 224 8 is_stmt 1
	callq	__ZN4core3ptr7mut_ptr31_$LT$impl$u20$$BP$mut$u20$T$GT$7is_null17h5d8de0302377e1deE
	testb	$1, %al
	jne	LBB16_2
	.loc	6 0 8 is_stmt 0
	movq	-32(%rbp), %rax
	.loc	6 228 18 is_stmt 1
	movq	%rax, -24(%rbp)
	.loc	6 224 5
	jmp	LBB16_3
LBB16_2:
	.loc	6 225 9
	callq	__ZN16parking_lot_core11parking_lot16create_hashtable17h7ade16ef77fc4738E
	movq	%rax, -24(%rbp)
Ltmp307:
LBB16_3:
	.loc	6 230 2
	movq	-24(%rbp), %rax
	addq	$32, %rsp
	popq	%rbp
	retq
Ltmp308:
Lfunc_end16:
	.cfi_endproc

	.globl	__ZN16parking_lot_core11parking_lot13unpark_filter17h04d2c794fb5f1a6aE
	.p2align	4, 0x90
__ZN16parking_lot_core11parking_lot13unpark_filter17h04d2c794fb5f1a6aE:
Lfunc_begin17:
	.loc	6 1020 0
	.cfi_startproc
	.cfi_personality 155, _rust_eh_personality
	.cfi_lsda 16, Lexception3
	pushq	%rbp
	.cfi_def_cfa_offset 16
	.cfi_offset %rbp, -16
	movq	%rsp, %rbp
	.cfi_def_cfa_register %rbp
	subq	$1680, %rsp
	movq	%rcx, -1472(%rbp)
Ltmp379:
	movq	%rsi, -1464(%rbp)
	movq	%rdi, %rax
	movq	-1464(%rbp), %rdi
	movq	%rax, -1456(%rbp)
	movq	%rax, -1448(%rbp)
	movq	%rdx, -1432(%rbp)
	movq	%rdi, -112(%rbp)
Ltmp380:
	.loc	6 1026 9 prologue_end
	movb	$0, -114(%rbp)
	movb	$0, -113(%rbp)
	movb	$1, -113(%rbp)
Ltmp309:
	.loc	6 1026 18 is_stmt 0
	callq	__ZN16parking_lot_core11parking_lot11lock_bucket17h7d64fcc90ba48539E
Ltmp381:
Ltmp310:
	.loc	6 0 18
	movq	%rax, -1440(%rbp)
Ltmp382:
	.loc	6 1026 18
	jmp	LBB17_3
Ltmp383:
LBB17_1:
	.loc	6 1093 1 is_stmt 1
	testb	$1, -113(%rbp)
	jne	LBB17_62
	jmp	LBB17_61
Ltmp384:
LBB17_2:
Ltmp315:
	.loc	6 0 1 is_stmt 0
	movq	%rax, %rcx
	movl	%edx, %eax
	movq	%rcx, -104(%rbp)
	movl	%eax, -96(%rbp)
	jmp	LBB17_1
Ltmp385:
LBB17_3:
	movq	-1440(%rbp), %rdi
	.loc	6 1026 18 is_stmt 1
	movq	%rdi, -88(%rbp)
Ltmp386:
	.loc	6 1029 20
	addq	$24, %rdi
	movq	%rdi, -1424(%rbp)
Ltmp311:
Ltmp387:
	.loc	6 1030 23
	callq	__ZN4core4cell13Cell$LT$T$GT$3get17h91f3150f3f68e435E
Ltmp312:
	movq	%rax, -1480(%rbp)
	jmp	LBB17_4
Ltmp388:
LBB17_4:
	.loc	6 0 23 is_stmt 0
	movq	-1480(%rbp), %rax
	.loc	6 1030 23
	movq	%rax, -1416(%rbp)
Ltmp389:
	.loc	7 568 14 is_stmt 1
	movq	$0, -24(%rbp)
	movq	-24(%rbp), %rax
	movq	%rax, -16(%rbp)
Ltmp390:
	.loc	8 118 36
	movq	%rax, -32(%rbp)
	.loc	8 118 14 is_stmt 0
	movq	-32(%rbp), %rax
	movq	%rax, -40(%rbp)
	movq	-40(%rbp), %rax
	movq	%rax, -1488(%rbp)
Ltmp391:
	.loc	8 0 14
	movq	-1488(%rbp), %rax
	.loc	6 1031 24 is_stmt 1
	movq	%rax, -1408(%rbp)
Ltmp313:
	leaq	-1400(%rbp), %rdi
Ltmp392:
	.loc	6 1032 23
	callq	__ZN8smallvec17SmallVec$LT$A$GT$3new17ha074c40565e74bc2E
Ltmp314:
	jmp	LBB17_6
Ltmp393:
LBB17_6:
	.loc	6 0 23 is_stmt 0
	movq	-1456(%rbp), %rdi
Ltmp394:
	.loc	6 1033 9 is_stmt 1
	movb	$1, -114(%rbp)
Ltmp316:
	.loc	6 1033 22 is_stmt 0
	callq	__ZN86_$LT$parking_lot_core..parking_lot..UnparkResult$u20$as$u20$core..default..Default$GT$7default17hbb16d72f09b92fbaE
Ltmp317:
	jmp	LBB17_9
Ltmp395:
LBB17_7:
	.loc	6 1093 1 is_stmt 1
	testb	$1, -114(%rbp)
	jne	LBB17_60
	jmp	LBB17_1
Ltmp396:
LBB17_8:
Ltmp375:
	.loc	6 0 1 is_stmt 0
	movq	%rax, %rcx
	movl	%edx, %eax
	movq	%rcx, -104(%rbp)
	movl	%eax, -96(%rbp)
	jmp	LBB17_7
Ltmp397:
LBB17_9:
	.loc	6 1033 22 is_stmt 1
	jmp	LBB17_10
Ltmp398:
LBB17_10:
	.loc	6 1034 12
	movq	-1416(%rbp), %rdi
Ltmp318:
	callq	__ZN4core3ptr9const_ptr33_$LT$impl$u20$$BP$const$u20$T$GT$7is_null17h4f24a6938c63d2a7E
Ltmp319:
	movb	%al, -1489(%rbp)
	jmp	LBB17_11
Ltmp399:
LBB17_11:
	.loc	6 0 12 is_stmt 0
	movb	-1489(%rbp), %al
	.loc	6 1034 11
	xorb	$-1, %al
	testb	$1, %al
	jne	LBB17_13
Ltmp400:
LBB17_12:
Ltmp330:
	.loc	6 0 11
	leaq	-1400(%rbp), %rdi
	.loc	6 1070 31 is_stmt 1
	callq	__ZN8smallvec17SmallVec$LT$A$GT$3len17h5ca3ae7e4afafad2E
Ltmp331:
	movq	%rax, -1504(%rbp)
	jmp	LBB17_32
Ltmp401:
LBB17_13:
	.loc	6 1035 12
	movq	-1416(%rbp), %rdi
	addq	$120, %rdi
	.loc	6 1035 32 is_stmt 0
	movb	$0, -1186(%rbp)
	.loc	6 1035 12
	movzbl	-1186(%rbp), %esi
Ltmp320:
	callq	__ZN4core4sync6atomic11AtomicUsize4load17h9f59030344c744f2E
Ltmp321:
	movq	%rax, -1512(%rbp)
	jmp	LBB17_14
Ltmp402:
LBB17_14:
	.loc	6 0 12
	movq	-1512(%rbp), %rax
	movq	-1464(%rbp), %rcx
	.loc	6 1035 12
	cmpq	%rcx, %rax
	je	LBB17_16
Ltmp403:
	.loc	6 1063 20 is_stmt 1
	movq	-1416(%rbp), %rax
	subq	$-128, %rax
	.loc	6 1063 13 is_stmt 0
	movq	%rax, -1424(%rbp)
	.loc	6 1064 24 is_stmt 1
	movq	-1416(%rbp), %rax
	.loc	6 1064 13 is_stmt 0
	movq	%rax, -1408(%rbp)
	.loc	6 1065 23 is_stmt 1
	movq	-1424(%rbp), %rdi
Ltmp322:
	callq	__ZN4core4cell13Cell$LT$T$GT$3get17h91f3150f3f68e435E
Ltmp323:
	movq	%rax, -1520(%rbp)
	jmp	LBB17_31
Ltmp404:
LBB17_16:
	.loc	6 1037 24
	movq	-1416(%rbp), %rdi
	subq	$-128, %rdi
Ltmp324:
	callq	__ZN4core4cell13Cell$LT$T$GT$3get17h91f3150f3f68e435E
Ltmp325:
	movq	%rax, -1528(%rbp)
	jmp	LBB17_17
Ltmp405:
LBB17_17:
	.loc	6 0 24 is_stmt 0
	movq	-1528(%rbp), %rax
	.loc	6 1037 24
	movq	%rax, -80(%rbp)
Ltmp406:
	.loc	6 1038 26 is_stmt 1
	movq	-1416(%rbp), %rdi
	addq	$144, %rdi
Ltmp326:
	callq	__ZN4core4cell13Cell$LT$T$GT$3get17h1cd86a1dac6c715dE
Ltmp327:
	movq	%rax, -1536(%rbp)
	jmp	LBB17_18
Ltmp407:
LBB17_18:
	.loc	6 0 26 is_stmt 0
	movq	-1536(%rbp), %rax
	.loc	6 1038 19
	movq	%rax, -1184(%rbp)
	movq	-1184(%rbp), %rsi
Ltmp328:
	leaq	-1432(%rbp), %rdi
	callq	__ZN11parking_lot10raw_rwlock9RawRwLock19wake_parked_threads28_$u7b$$u7b$closure$u7d$$u7d$17hbe9122ba600a20a6E
Ltmp329:
	movb	%al, -1537(%rbp)
	jmp	LBB17_19
Ltmp408:
LBB17_19:
	.loc	6 0 19
	movb	-1537(%rbp), %al
	.loc	6 1038 19
	movb	%al, -1185(%rbp)
	movzbl	-1185(%rbp), %eax
	movq	%rax, -1552(%rbp)
	testq	%rax, %rax
	.loc	6 1038 13
	je	LBB17_21
	jmp	LBB17_63
Ltmp409:
LBB17_63:
	.loc	6 0 13
	movq	-1552(%rbp), %rax
	.loc	6 1038 13
	subq	$1, %rax
	je	LBB17_22
	jmp	LBB17_64
Ltmp410:
LBB17_64:
	jmp	LBB17_23
Ltmp411:
	.loc	6 1038 19
	ud2
LBB17_21:
Ltmp412:
	.loc	6 0 19
	movq	-1528(%rbp), %rsi
	.loc	6 1041 21 is_stmt 1
	movq	-1424(%rbp), %rdi
Ltmp367:
	callq	__ZN4core4cell13Cell$LT$T$GT$3set17hd9caf1a89fe8b476E
Ltmp368:
	jmp	LBB17_25
Ltmp413:
LBB17_22:
	.loc	6 0 21 is_stmt 0
	movq	-1456(%rbp), %rax
	.loc	6 1052 21 is_stmt 1
	movb	$1, 16(%rax)
	.loc	6 1053 28
	movq	-1416(%rbp), %rax
	subq	$-128, %rax
	.loc	6 1053 21 is_stmt 0
	movq	%rax, -1424(%rbp)
	.loc	6 1054 32 is_stmt 1
	movq	-1416(%rbp), %rax
	.loc	6 1054 21 is_stmt 0
	movq	%rax, -1408(%rbp)
	.loc	6 1055 31 is_stmt 1
	movq	-1424(%rbp), %rdi
Ltmp365:
	callq	__ZN4core4cell13Cell$LT$T$GT$3get17h91f3150f3f68e435E
Ltmp366:
	movq	%rax, -1560(%rbp)
	jmp	LBB17_24
Ltmp414:
LBB17_23:
	.loc	6 0 31 is_stmt 0
	movq	-1456(%rbp), %rax
	.loc	6 1058 21 is_stmt 1
	movb	$1, 16(%rax)
Ltmp415:
	.loc	10 1 1
	jmp	LBB17_12
Ltmp416:
LBB17_24:
	.loc	10 0 1 is_stmt 0
	movq	-1560(%rbp), %rax
Ltmp417:
	.loc	6 1055 21 is_stmt 1
	movq	%rax, -1416(%rbp)
	.loc	6 1051 35
	jmp	LBB17_10
Ltmp418:
LBB17_25:
	.loc	6 0 35 is_stmt 0
	movq	-1440(%rbp), %rdi
	.loc	6 1042 24 is_stmt 1
	addq	$32, %rdi
Ltmp369:
	callq	__ZN4core4cell13Cell$LT$T$GT$3get17h91f3150f3f68e435E
Ltmp370:
	movq	%rax, -1568(%rbp)
	jmp	LBB17_26
Ltmp419:
LBB17_26:
	.loc	6 0 24 is_stmt 0
	movq	-1568(%rbp), %rax
	.loc	6 1042 24
	cmpq	-1416(%rbp), %rax
	je	LBB17_28
Ltmp420:
LBB17_27:
	.loc	6 1047 35 is_stmt 1
	movq	-1416(%rbp), %rax
	.loc	6 1047 44 is_stmt 0
	movq	$0, -1152(%rbp)
	.loc	6 1047 34
	movq	%rax, -1176(%rbp)
	movq	-1152(%rbp), %rcx
	movq	-1144(%rbp), %rax
	movq	%rcx, -1168(%rbp)
	movq	%rax, -1160(%rbp)
Ltmp373:
	leaq	-1400(%rbp), %rdi
	leaq	-1176(%rbp), %rsi
	.loc	6 1047 21
	callq	__ZN8smallvec17SmallVec$LT$A$GT$4push17h9b8e52b6c7c56693E
Ltmp374:
	jmp	LBB17_30
Ltmp421:
LBB17_28:
	.loc	6 0 21
	movq	-1440(%rbp), %rdi
	.loc	6 1043 25 is_stmt 1
	addq	$32, %rdi
	.loc	6 1043 47 is_stmt 0
	movq	-1408(%rbp), %rsi
Ltmp371:
	.loc	6 1043 25
	callq	__ZN4core4cell13Cell$LT$T$GT$3set17hd9caf1a89fe8b476E
Ltmp372:
	jmp	LBB17_29
Ltmp422:
LBB17_29:
	jmp	LBB17_27
Ltmp423:
LBB17_30:
	.loc	6 0 25
	movq	-1528(%rbp), %rax
	.loc	6 1049 21 is_stmt 1
	movq	%rax, -1416(%rbp)
	.loc	6 1039 37
	jmp	LBB17_10
Ltmp424:
LBB17_31:
	.loc	6 0 37 is_stmt 0
	movq	-1520(%rbp), %rax
	.loc	6 1065 13 is_stmt 1
	movq	%rax, -1416(%rbp)
	.loc	6 1035 9
	jmp	LBB17_10
Ltmp425:
LBB17_32:
	.loc	6 0 9 is_stmt 0
	movq	-1456(%rbp), %rax
	movq	-1504(%rbp), %rcx
	.loc	6 1070 5 is_stmt 1
	movq	%rcx, (%rax)
	.loc	6 1071 8
	cmpq	$0, (%rax)
	jne	LBB17_34
Ltmp426:
LBB17_33:
	.loc	6 0 8 is_stmt 0
	movq	-1456(%rbp), %rcx
	movq	-1472(%rbp), %rdx
	.loc	6 1074 17 is_stmt 1
	movb	$0, -113(%rbp)
	movq	16(%rdx), %rax
	movq	%rax, -1120(%rbp)
	movq	(%rdx), %rax
	movq	8(%rdx), %rdx
	movq	%rdx, -1128(%rbp)
	movq	%rax, -1136(%rbp)
	.loc	6 1074 26 is_stmt 0
	movq	16(%rcx), %rax
	movq	%rax, -1072(%rbp)
	movq	(%rcx), %rax
	movq	8(%rcx), %rcx
	movq	%rcx, -1080(%rbp)
	movq	%rax, -1088(%rbp)
	.loc	6 1074 17
	movq	-1072(%rbp), %rax
	movq	%rax, -1096(%rbp)
	movq	-1088(%rbp), %rax
	movq	-1080(%rbp), %rcx
	movq	%rcx, -1104(%rbp)
	movq	%rax, -1112(%rbp)
Ltmp334:
	leaq	-1136(%rbp), %rdi
	leaq	-1112(%rbp), %rsi
	callq	__ZN11parking_lot10raw_rwlock9RawRwLock19wake_parked_threads28_$u7b$$u7b$closure$u7d$$u7d$17h2364a1e7273321f7E
Ltmp335:
	movq	%rax, -1576(%rbp)
	jmp	LBB17_37
Ltmp427:
LBB17_34:
	.loc	6 0 17
	movq	-1440(%rbp), %rax
	movq	%rax, -8(%rbp)
Ltmp428:
Ltmp332:
	movq	-1440(%rbp), %rdi
	.loc	6 1072 26 is_stmt 1
	callq	__ZN16parking_lot_core11parking_lot11FairTimeout14should_timeout17h1e5603a903a5a60cE
Ltmp333:
	movb	%al, -1577(%rbp)
	jmp	LBB17_36
Ltmp429:
LBB17_36:
	.loc	6 0 26 is_stmt 0
	movq	-1456(%rbp), %rax
	movb	-1577(%rbp), %cl
	.loc	6 1072 9
	andb	$1, %cl
	movb	%cl, 17(%rax)
	.loc	6 1071 5 is_stmt 1
	jmp	LBB17_33
Ltmp430:
LBB17_37:
	.loc	6 0 5 is_stmt 0
	movq	-1576(%rbp), %rax
	.loc	6 1074 17 is_stmt 1
	movq	%rax, -72(%rbp)
Ltmp336:
	leaq	-1400(%rbp), %rdi
Ltmp431:
	.loc	6 1078 14
	callq	__ZN74_$LT$smallvec..SmallVec$LT$A$GT$$u20$as$u20$core..ops..deref..DerefMut$GT$9deref_mut17h411aa873d6f34e9dE
Ltmp337:
	movq	%rdx, -1600(%rbp)
	movq	%rax, -1592(%rbp)
	jmp	LBB17_38
Ltmp432:
LBB17_38:
Ltmp338:
	.loc	6 0 14 is_stmt 0
	movq	-1600(%rbp), %rsi
	movq	-1592(%rbp), %rdi
	.loc	6 1078 14
	callq	__ZN4core5slice29_$LT$impl$u20$$u5b$T$u5d$$GT$8iter_mut17h5178b49d02ab244eE
Ltmp339:
	movq	%rdx, -1616(%rbp)
	movq	%rax, -1608(%rbp)
	jmp	LBB17_39
Ltmp433:
LBB17_39:
Ltmp340:
	.loc	6 0 14
	movq	-1616(%rbp), %rsi
	movq	-1608(%rbp), %rdi
	.loc	6 1078 14
	callq	__ZN63_$LT$I$u20$as$u20$core..iter..traits..collect..IntoIterator$GT$9into_iter17h4d30a3a987bf14f9E
Ltmp341:
	movq	%rdx, -1632(%rbp)
	movq	%rax, -1624(%rbp)
	jmp	LBB17_40
Ltmp434:
LBB17_40:
	.loc	6 0 14
	movq	-1632(%rbp), %rax
	movq	-1624(%rbp), %rcx
	.loc	6 1078 14
	movq	%rcx, -1064(%rbp)
	movq	%rax, -1056(%rbp)
Ltmp435:
LBB17_41:
Ltmp342:
	.loc	6 0 14
	leaq	-1064(%rbp), %rdi
Ltmp436:
	.loc	6 1078 14
	callq	__ZN94_$LT$core..slice..iter..IterMut$LT$T$GT$$u20$as$u20$core..iter..traits..iterator..Iterator$GT$4next17h69b7a3b3e5220f5bE
Ltmp343:
	movq	%rax, -1640(%rbp)
	jmp	LBB17_42
Ltmp437:
LBB17_42:
	.loc	6 0 14
	movq	-1640(%rbp), %rax
	.loc	6 1078 14
	movq	%rax, -1048(%rbp)
	movq	-1048(%rbp), %rdx
	movl	$1, %eax
	xorl	%ecx, %ecx
	cmpq	$0, %rdx
	cmoveq	%rcx, %rax
	cmpq	$0, %rax
	jne	LBB17_44
Ltmp438:
	.loc	6 0 14
	movq	-1440(%rbp), %rdi
	.loc	6 1084 5 is_stmt 1
	addq	$16, %rdi
Ltmp348:
	callq	__ZN16parking_lot_core9word_lock8WordLock6unlock17hcabffee10591cf5aE
Ltmp349:
	jmp	LBB17_47
Ltmp439:
LBB17_44:
	.loc	6 0 5 is_stmt 0
	movq	-1576(%rbp), %rsi
Ltmp440:
	.loc	6 1078 9 is_stmt 1
	movq	-1048(%rbp), %rax
	movq	%rax, -1648(%rbp)
	movq	%rax, -64(%rbp)
Ltmp441:
	.loc	6 1079 9
	movq	(%rax), %rdi
	addq	$136, %rdi
Ltmp344:
	callq	__ZN4core4cell13Cell$LT$T$GT$3set17hb132ece05e8c701fE
Ltmp345:
	jmp	LBB17_45
Ltmp442:
LBB17_45:
	.loc	6 0 9 is_stmt 0
	movq	-1648(%rbp), %rax
	.loc	6 1080 20 is_stmt 1
	movq	(%rax), %rdi
Ltmp346:
	callq	__ZN117_$LT$parking_lot_core..thread_parker..imp..ThreadParker$u20$as$u20$parking_lot_core..thread_parker..ThreadParkerT$GT$11unpark_lock17he447e1adb5cc7f3bE
Ltmp347:
	movq	%rax, -1656(%rbp)
	jmp	LBB17_46
Ltmp443:
LBB17_46:
	.loc	6 0 20 is_stmt 0
	movq	-1648(%rbp), %rax
	movq	-1656(%rbp), %rcx
	.loc	6 1080 15
	movq	%rcx, -1032(%rbp)
	movq	$1, -1040(%rbp)
	.loc	6 1080 9
	movq	-1040(%rbp), %rdx
	movq	-1032(%rbp), %rcx
	movq	%rdx, 8(%rax)
	movq	%rcx, 16(%rax)
Ltmp444:
	.loc	6 1078 5 is_stmt 1
	jmp	LBB17_41
Ltmp445:
LBB17_47:
	.loc	6 1088 24
	movb	$0, -114(%rbp)
	leaq	-576(%rbp), %rdi
	movq	%rdi, -1664(%rbp)
	leaq	-1400(%rbp), %rsi
	movl	$208, %edx
	callq	_memcpy
	movq	-1664(%rbp), %rsi
Ltmp350:
	leaq	-800(%rbp), %rdi
	callq	__ZN89_$LT$smallvec..SmallVec$LT$A$GT$$u20$as$u20$core..iter..traits..collect..IntoIterator$GT$9into_iter17h2fafc8795a5ff6c9E
Ltmp351:
	jmp	LBB17_48
Ltmp446:
LBB17_48:
Ltmp352:
	.loc	6 0 24 is_stmt 0
	leaq	-1024(%rbp), %rdi
	leaq	-800(%rbp), %rsi
	.loc	6 1088 24
	callq	__ZN63_$LT$I$u20$as$u20$core..iter..traits..collect..IntoIterator$GT$9into_iter17h9a7fe8b273db4a5bE
Ltmp353:
	jmp	LBB17_49
Ltmp447:
LBB17_49:
	leaq	-368(%rbp), %rdi
	leaq	-1024(%rbp), %rsi
	movl	$224, %edx
	callq	_memcpy
Ltmp448:
LBB17_50:
Ltmp354:
	.loc	6 0 24
	leaq	-144(%rbp), %rdi
	leaq	-368(%rbp), %rsi
Ltmp449:
	.loc	6 1088 24
	callq	__ZN86_$LT$smallvec..IntoIter$LT$A$GT$$u20$as$u20$core..iter..traits..iterator..Iterator$GT$4next17ha285aea51bd31bffE
Ltmp355:
	jmp	LBB17_53
Ltmp450:
LBB17_51:
Ltmp361:
	.loc	6 0 24
	leaq	-368(%rbp), %rdi
	.loc	6 1088 5
	callq	__ZN4core3ptr212drop_in_place$LT$smallvec..IntoIter$LT$$u5b$$LP$$BP$const$u20$parking_lot_core..parking_lot..ThreadData$C$core..option..Option$LT$parking_lot_core..thread_parker..imp..UnparkHandle$GT$$RP$$u3b$$u20$8$u5d$$GT$$GT$17h40a6465580c4b610E
Ltmp362:
	jmp	LBB17_7
Ltmp451:
LBB17_52:
Ltmp360:
	.loc	6 0 5
	movq	%rax, %rcx
	movl	%edx, %eax
	movq	%rcx, -104(%rbp)
	movl	%eax, -96(%rbp)
	jmp	LBB17_51
Ltmp452:
LBB17_53:
	.loc	6 1088 24
	movl	$1, %eax
	xorl	%ecx, %ecx
	cmpq	$2, -136(%rbp)
	cmoveq	%rcx, %rax
	cmpq	$0, %rax
	jne	LBB17_55
Ltmp453:
Ltmp363:
	.loc	6 0 24
	leaq	-368(%rbp), %rdi
	.loc	6 1088 5
	callq	__ZN4core3ptr212drop_in_place$LT$smallvec..IntoIter$LT$$u5b$$LP$$BP$const$u20$parking_lot_core..parking_lot..ThreadData$C$core..option..Option$LT$parking_lot_core..thread_parker..imp..UnparkHandle$GT$$RP$$u3b$$u20$8$u5d$$GT$$GT$17h40a6465580c4b610E
Ltmp364:
	jmp	LBB17_59
Ltmp454:
LBB17_55:
	.loc	6 1088 13
	movq	-136(%rbp), %rdi
	movq	-128(%rbp), %rsi
	movq	%rdi, -56(%rbp)
	movq	%rsi, -48(%rbp)
Ltmp356:
Ltmp455:
	.loc	6 1089 9 is_stmt 1
	callq	__ZN101_$LT$core..option..Option$LT$T$GT$$u20$as$u20$parking_lot_core..util..UncheckedOptionExt$LT$T$GT$$GT$16unchecked_unwrap17hca56f0bcd6cf226fE
Ltmp357:
	movq	%rax, -1672(%rbp)
	jmp	LBB17_56
Ltmp456:
LBB17_56:
Ltmp358:
	.loc	6 0 9 is_stmt 0
	movq	-1672(%rbp), %rdi
	.loc	6 1089 9
	callq	__ZN117_$LT$parking_lot_core..thread_parker..imp..UnparkHandle$u20$as$u20$parking_lot_core..thread_parker..UnparkHandleT$GT$6unpark17hb14bc6cfd5a3218fE
Ltmp359:
	jmp	LBB17_57
Ltmp457:
LBB17_57:
	jmp	LBB17_50
Ltmp458:
LBB17_58:
Ltmp378:
	.loc	6 1020 1 is_stmt 1
	callq	__ZN4core9panicking19panic_cannot_unwind17h1fbca7e1d7f56ae1E
Ltmp459:
LBB17_59:
	.loc	6 0 1 is_stmt 0
	movq	-1448(%rbp), %rax
Ltmp460:
	.loc	6 1093 1 is_stmt 1
	movb	$0, -114(%rbp)
Ltmp461:
	.loc	6 1093 2 is_stmt 0
	addq	$1680, %rsp
	popq	%rbp
	retq
Ltmp462:
LBB17_60:
Ltmp376:
	.loc	6 0 2
	leaq	-1400(%rbp), %rdi
Ltmp463:
	.loc	6 1093 1
	callq	__ZN4core3ptr212drop_in_place$LT$smallvec..SmallVec$LT$$u5b$$LP$$BP$const$u20$parking_lot_core..parking_lot..ThreadData$C$core..option..Option$LT$parking_lot_core..thread_parker..imp..UnparkHandle$GT$$RP$$u3b$$u20$8$u5d$$GT$$GT$17h5fc392d24cb64e48E
Ltmp377:
	jmp	LBB17_1
Ltmp464:
LBB17_61:
	.loc	6 1020 1 is_stmt 1
	movq	-104(%rbp), %rdi
	callq	__Unwind_Resume
Ltmp465:
LBB17_62:
	.loc	6 1093 1
	jmp	LBB17_61
Ltmp466:
Lfunc_end17:
	.cfi_endproc
	.section	__TEXT,__gcc_except_tab
	.p2align	2
GCC_except_table17:
Lexception3:
	.byte	255
	.byte	255
	.byte	1
	.uleb128 Lcst_end3-Lcst_begin3
Lcst_begin3:
	.uleb128 Ltmp309-Lfunc_begin17
	.uleb128 Ltmp314-Ltmp309
	.uleb128 Ltmp315-Lfunc_begin17
	.byte	0
	.uleb128 Ltmp316-Lfunc_begin17
	.uleb128 Ltmp347-Ltmp316
	.uleb128 Ltmp375-Lfunc_begin17
	.byte	0
	.uleb128 Ltmp347-Lfunc_begin17
	.uleb128 Ltmp350-Ltmp347
	.byte	0
	.byte	0
	.uleb128 Ltmp350-Lfunc_begin17
	.uleb128 Ltmp353-Ltmp350
	.uleb128 Ltmp375-Lfunc_begin17
	.byte	0
	.uleb128 Ltmp353-Lfunc_begin17
	.uleb128 Ltmp354-Ltmp353
	.byte	0
	.byte	0
	.uleb128 Ltmp354-Lfunc_begin17
	.uleb128 Ltmp355-Ltmp354
	.uleb128 Ltmp360-Lfunc_begin17
	.byte	0
	.uleb128 Ltmp361-Lfunc_begin17
	.uleb128 Ltmp362-Ltmp361
	.uleb128 Ltmp378-Lfunc_begin17
	.byte	0
	.uleb128 Ltmp363-Lfunc_begin17
	.uleb128 Ltmp364-Ltmp363
	.uleb128 Ltmp375-Lfunc_begin17
	.byte	0
	.uleb128 Ltmp356-Lfunc_begin17
	.uleb128 Ltmp359-Ltmp356
	.uleb128 Ltmp360-Lfunc_begin17
	.byte	0
	.uleb128 Ltmp376-Lfunc_begin17
	.uleb128 Ltmp377-Ltmp376
	.uleb128 Ltmp378-Lfunc_begin17
	.byte	0
	.uleb128 Ltmp377-Lfunc_begin17
	.uleb128 Lfunc_end17-Ltmp377
	.byte	0
	.byte	0
Lcst_end3:
	.p2align	2

	.section	__TEXT,__text,regular,pure_instructions
	.globl	__ZN16parking_lot_core11parking_lot13unpark_filter17h280dddbd5c052033E
	.p2align	4, 0x90
__ZN16parking_lot_core11parking_lot13unpark_filter17h280dddbd5c052033E:
Lfunc_begin18:
	.loc	6 1020 0
	.cfi_startproc
	.cfi_personality 155, _rust_eh_personality
	.cfi_lsda 16, Lexception4
	pushq	%rbp
	.cfi_def_cfa_offset 16
	.cfi_offset %rbp, -16
	movq	%rsp, %rbp
	.cfi_def_cfa_register %rbp
	subq	$1680, %rsp
	movq	%r8, -1472(%rbp)
	movq	%rcx, -1464(%rbp)
	movq	%rsi, -1456(%rbp)
	movq	%rdi, %rax
	movq	-1456(%rbp), %rdi
	movq	%rax, -1448(%rbp)
	movq	%rax, -1440(%rbp)
	movq	%rdx, -1424(%rbp)
	movq	%rdi, -128(%rbp)
	movq	%rcx, -120(%rbp)
	movq	%r8, -112(%rbp)
Ltmp537:
	.loc	6 1026 9 prologue_end
	movb	$0, -130(%rbp)
	movb	$0, -129(%rbp)
	movb	$1, -129(%rbp)
Ltmp467:
	.loc	6 1026 18 is_stmt 0
	callq	__ZN16parking_lot_core11parking_lot11lock_bucket17h7d64fcc90ba48539E
Ltmp468:
	movq	%rax, -1432(%rbp)
	jmp	LBB18_3
LBB18_1:
	.loc	6 1093 1 is_stmt 1
	testb	$1, -129(%rbp)
	jne	LBB18_62
	jmp	LBB18_61
LBB18_2:
Ltmp473:
	.loc	6 0 1 is_stmt 0
	movq	%rax, %rcx
	movl	%edx, %eax
	movq	%rcx, -104(%rbp)
	movl	%eax, -96(%rbp)
	jmp	LBB18_1
LBB18_3:
	movq	-1432(%rbp), %rdi
	.loc	6 1026 18 is_stmt 1
	movq	%rdi, -88(%rbp)
Ltmp538:
	.loc	6 1029 20
	addq	$24, %rdi
	movq	%rdi, -1416(%rbp)
Ltmp469:
Ltmp539:
	.loc	6 1030 23
	callq	__ZN4core4cell13Cell$LT$T$GT$3get17h91f3150f3f68e435E
Ltmp470:
	movq	%rax, -1480(%rbp)
	jmp	LBB18_4
LBB18_4:
	.loc	6 0 23 is_stmt 0
	movq	-1480(%rbp), %rax
	.loc	6 1030 23
	movq	%rax, -1408(%rbp)
Ltmp540:
	.loc	7 568 14 is_stmt 1
	movq	$0, -24(%rbp)
	movq	-24(%rbp), %rax
	movq	%rax, -16(%rbp)
Ltmp541:
	.loc	8 118 36
	movq	%rax, -32(%rbp)
	.loc	8 118 14 is_stmt 0
	movq	-32(%rbp), %rax
	movq	%rax, -40(%rbp)
	movq	-40(%rbp), %rax
	movq	%rax, -1488(%rbp)
Ltmp542:
	.loc	8 0 14
	movq	-1488(%rbp), %rax
	.loc	6 1031 24 is_stmt 1
	movq	%rax, -1400(%rbp)
Ltmp471:
	leaq	-1392(%rbp), %rdi
Ltmp543:
	.loc	6 1032 23
	callq	__ZN8smallvec17SmallVec$LT$A$GT$3new17ha074c40565e74bc2E
Ltmp472:
	jmp	LBB18_6
LBB18_6:
	.loc	6 0 23 is_stmt 0
	movq	-1448(%rbp), %rdi
Ltmp544:
	.loc	6 1033 9 is_stmt 1
	movb	$1, -130(%rbp)
Ltmp474:
	.loc	6 1033 22 is_stmt 0
	callq	__ZN86_$LT$parking_lot_core..parking_lot..UnparkResult$u20$as$u20$core..default..Default$GT$7default17hbb16d72f09b92fbaE
Ltmp475:
	jmp	LBB18_9
Ltmp545:
LBB18_7:
	.loc	6 1093 1 is_stmt 1
	testb	$1, -130(%rbp)
	jne	LBB18_60
	jmp	LBB18_1
LBB18_8:
Ltmp533:
	.loc	6 0 1 is_stmt 0
	movq	%rax, %rcx
	movl	%edx, %eax
	movq	%rcx, -104(%rbp)
	movl	%eax, -96(%rbp)
	jmp	LBB18_7
LBB18_9:
Ltmp546:
	.loc	6 1033 22 is_stmt 1
	jmp	LBB18_10
LBB18_10:
Ltmp547:
	.loc	6 1034 12
	movq	-1408(%rbp), %rdi
Ltmp476:
	callq	__ZN4core3ptr9const_ptr33_$LT$impl$u20$$BP$const$u20$T$GT$7is_null17h4f24a6938c63d2a7E
Ltmp477:
	movb	%al, -1489(%rbp)
	jmp	LBB18_11
LBB18_11:
	.loc	6 0 12 is_stmt 0
	movb	-1489(%rbp), %al
	.loc	6 1034 11
	xorb	$-1, %al
	testb	$1, %al
	jne	LBB18_13
LBB18_12:
Ltmp488:
	.loc	6 0 11
	leaq	-1392(%rbp), %rdi
	.loc	6 1070 31 is_stmt 1
	callq	__ZN8smallvec17SmallVec$LT$A$GT$3len17h5ca3ae7e4afafad2E
Ltmp489:
	movq	%rax, -1504(%rbp)
	jmp	LBB18_32
LBB18_13:
	.loc	6 1035 12
	movq	-1408(%rbp), %rdi
	addq	$120, %rdi
	.loc	6 1035 32 is_stmt 0
	movb	$0, -1178(%rbp)
	.loc	6 1035 12
	movzbl	-1178(%rbp), %esi
Ltmp478:
	callq	__ZN4core4sync6atomic11AtomicUsize4load17h9f59030344c744f2E
Ltmp479:
	movq	%rax, -1512(%rbp)
	jmp	LBB18_14
LBB18_14:
	.loc	6 0 12
	movq	-1512(%rbp), %rax
	movq	-1456(%rbp), %rcx
	.loc	6 1035 12
	cmpq	%rcx, %rax
	je	LBB18_16
	.loc	6 1063 20 is_stmt 1
	movq	-1408(%rbp), %rax
	subq	$-128, %rax
	.loc	6 1063 13 is_stmt 0
	movq	%rax, -1416(%rbp)
	.loc	6 1064 24 is_stmt 1
	movq	-1408(%rbp), %rax
	.loc	6 1064 13 is_stmt 0
	movq	%rax, -1400(%rbp)
	.loc	6 1065 23 is_stmt 1
	movq	-1416(%rbp), %rdi
Ltmp480:
	callq	__ZN4core4cell13Cell$LT$T$GT$3get17h91f3150f3f68e435E
Ltmp481:
	movq	%rax, -1520(%rbp)
	jmp	LBB18_31
LBB18_16:
	.loc	6 1037 24
	movq	-1408(%rbp), %rdi
	subq	$-128, %rdi
Ltmp482:
	callq	__ZN4core4cell13Cell$LT$T$GT$3get17h91f3150f3f68e435E
Ltmp483:
	movq	%rax, -1528(%rbp)
	jmp	LBB18_17
LBB18_17:
	.loc	6 0 24 is_stmt 0
	movq	-1528(%rbp), %rax
	.loc	6 1037 24
	movq	%rax, -80(%rbp)
Ltmp548:
	.loc	6 1038 26 is_stmt 1
	movq	-1408(%rbp), %rdi
	addq	$144, %rdi
Ltmp484:
	callq	__ZN4core4cell13Cell$LT$T$GT$3get17h1cd86a1dac6c715dE
Ltmp485:
	movq	%rax, -1536(%rbp)
	jmp	LBB18_18
LBB18_18:
	.loc	6 0 26 is_stmt 0
	movq	-1536(%rbp), %rax
	.loc	6 1038 19
	movq	%rax, -1176(%rbp)
	movq	-1176(%rbp), %rsi
Ltmp486:
	leaq	-1424(%rbp), %rdi
	callq	__ZN11parking_lot10raw_rwlock9RawRwLock19wake_parked_threads28_$u7b$$u7b$closure$u7d$$u7d$17h1bd5ba97b9d15713E
Ltmp487:
	movb	%al, -1537(%rbp)
	jmp	LBB18_19
LBB18_19:
	.loc	6 0 19
	movb	-1537(%rbp), %al
	.loc	6 1038 19
	movb	%al, -1177(%rbp)
	movzbl	-1177(%rbp), %eax
	movq	%rax, -1552(%rbp)
	testq	%rax, %rax
	.loc	6 1038 13
	je	LBB18_21
	jmp	LBB18_63
LBB18_63:
	.loc	6 0 13
	movq	-1552(%rbp), %rax
	.loc	6 1038 13
	subq	$1, %rax
	je	LBB18_22
	jmp	LBB18_64
LBB18_64:
	jmp	LBB18_23
	.loc	6 1038 19
	ud2
LBB18_21:
	.loc	6 0 19
	movq	-1528(%rbp), %rsi
	.loc	6 1041 21 is_stmt 1
	movq	-1416(%rbp), %rdi
Ltmp525:
	callq	__ZN4core4cell13Cell$LT$T$GT$3set17hd9caf1a89fe8b476E
Ltmp526:
	jmp	LBB18_25
LBB18_22:
	.loc	6 0 21 is_stmt 0
	movq	-1448(%rbp), %rax
	.loc	6 1052 21 is_stmt 1
	movb	$1, 16(%rax)
	.loc	6 1053 28
	movq	-1408(%rbp), %rax
	subq	$-128, %rax
	.loc	6 1053 21 is_stmt 0
	movq	%rax, -1416(%rbp)
	.loc	6 1054 32 is_stmt 1
	movq	-1408(%rbp), %rax
	.loc	6 1054 21 is_stmt 0
	movq	%rax, -1400(%rbp)
	.loc	6 1055 31 is_stmt 1
	movq	-1416(%rbp), %rdi
Ltmp523:
	callq	__ZN4core4cell13Cell$LT$T$GT$3get17h91f3150f3f68e435E
Ltmp524:
	movq	%rax, -1560(%rbp)
	jmp	LBB18_24
LBB18_23:
	.loc	6 0 31 is_stmt 0
	movq	-1448(%rbp), %rax
	.loc	6 1058 21 is_stmt 1
	movb	$1, 16(%rax)
Ltmp549:
	.loc	10 1 1
	jmp	LBB18_12
LBB18_24:
	.loc	10 0 1 is_stmt 0
	movq	-1560(%rbp), %rax
Ltmp550:
	.loc	6 1055 21 is_stmt 1
	movq	%rax, -1408(%rbp)
	.loc	6 1051 35
	jmp	LBB18_10
LBB18_25:
	.loc	6 0 35 is_stmt 0
	movq	-1432(%rbp), %rdi
	.loc	6 1042 24 is_stmt 1
	addq	$32, %rdi
Ltmp527:
	callq	__ZN4core4cell13Cell$LT$T$GT$3get17h91f3150f3f68e435E
Ltmp528:
	movq	%rax, -1568(%rbp)
	jmp	LBB18_26
LBB18_26:
	.loc	6 0 24 is_stmt 0
	movq	-1568(%rbp), %rax
	.loc	6 1042 24
	cmpq	-1408(%rbp), %rax
	je	LBB18_28
LBB18_27:
	.loc	6 1047 35 is_stmt 1
	movq	-1408(%rbp), %rax
	.loc	6 1047 44 is_stmt 0
	movq	$0, -1144(%rbp)
	.loc	6 1047 34
	movq	%rax, -1168(%rbp)
	movq	-1144(%rbp), %rcx
	movq	-1136(%rbp), %rax
	movq	%rcx, -1160(%rbp)
	movq	%rax, -1152(%rbp)
Ltmp531:
	leaq	-1392(%rbp), %rdi
	leaq	-1168(%rbp), %rsi
	.loc	6 1047 21
	callq	__ZN8smallvec17SmallVec$LT$A$GT$4push17h9b8e52b6c7c56693E
Ltmp532:
	jmp	LBB18_30
LBB18_28:
	.loc	6 0 21
	movq	-1432(%rbp), %rdi
	.loc	6 1043 25 is_stmt 1
	addq	$32, %rdi
	.loc	6 1043 47 is_stmt 0
	movq	-1400(%rbp), %rsi
Ltmp529:
	.loc	6 1043 25
	callq	__ZN4core4cell13Cell$LT$T$GT$3set17hd9caf1a89fe8b476E
Ltmp530:
	jmp	LBB18_29
LBB18_29:
	jmp	LBB18_27
LBB18_30:
	.loc	6 0 25
	movq	-1528(%rbp), %rax
	.loc	6 1049 21 is_stmt 1
	movq	%rax, -1408(%rbp)
	.loc	6 1039 37
	jmp	LBB18_10
Ltmp551:
LBB18_31:
	.loc	6 0 37 is_stmt 0
	movq	-1520(%rbp), %rax
	.loc	6 1065 13 is_stmt 1
	movq	%rax, -1408(%rbp)
	.loc	6 1035 9
	jmp	LBB18_10
LBB18_32:
	.loc	6 0 9 is_stmt 0
	movq	-1448(%rbp), %rax
	movq	-1504(%rbp), %rcx
	.loc	6 1070 5 is_stmt 1
	movq	%rcx, (%rax)
	.loc	6 1071 8
	cmpq	$0, (%rax)
	jne	LBB18_34
LBB18_33:
	.loc	6 0 8 is_stmt 0
	movq	-1472(%rbp), %rsi
	movq	-1464(%rbp), %rdi
	movq	-1448(%rbp), %rcx
	.loc	6 1074 17 is_stmt 1
	movb	$0, -129(%rbp)
	.loc	6 1074 26 is_stmt 0
	movq	16(%rcx), %rax
	movq	%rax, -1088(%rbp)
	movq	(%rcx), %rax
	movq	8(%rcx), %rcx
	movq	%rcx, -1096(%rbp)
	movq	%rax, -1104(%rbp)
	.loc	6 1074 17
	movq	-1088(%rbp), %rax
	movq	%rax, -1112(%rbp)
	movq	-1104(%rbp), %rax
	movq	-1096(%rbp), %rcx
	movq	%rcx, -1120(%rbp)
	movq	%rax, -1128(%rbp)
Ltmp492:
	leaq	-1128(%rbp), %rdx
	callq	__ZN11parking_lot10raw_rwlock9RawRwLock19wake_parked_threads28_$u7b$$u7b$closure$u7d$$u7d$17he93ada1fb1abeec3E
Ltmp493:
	movq	%rax, -1576(%rbp)
	jmp	LBB18_37
LBB18_34:
	.loc	6 0 17
	movq	-1432(%rbp), %rax
	movq	%rax, -8(%rbp)
Ltmp490:
	movq	-1432(%rbp), %rdi
	.loc	6 1072 26 is_stmt 1
	callq	__ZN16parking_lot_core11parking_lot11FairTimeout14should_timeout17h1e5603a903a5a60cE
Ltmp491:
	movb	%al, -1577(%rbp)
	jmp	LBB18_36
LBB18_36:
	.loc	6 0 26 is_stmt 0
	movq	-1448(%rbp), %rax
	movb	-1577(%rbp), %cl
	.loc	6 1072 9
	andb	$1, %cl
	movb	%cl, 17(%rax)
	.loc	6 1071 5 is_stmt 1
	jmp	LBB18_33
LBB18_37:
	.loc	6 0 5 is_stmt 0
	movq	-1576(%rbp), %rax
	.loc	6 1074 17 is_stmt 1
	movq	%rax, -72(%rbp)
Ltmp494:
	leaq	-1392(%rbp), %rdi
Ltmp552:
	.loc	6 1078 14
	callq	__ZN74_$LT$smallvec..SmallVec$LT$A$GT$$u20$as$u20$core..ops..deref..DerefMut$GT$9deref_mut17h411aa873d6f34e9dE
Ltmp495:
	movq	%rdx, -1600(%rbp)
	movq	%rax, -1592(%rbp)
	jmp	LBB18_38
LBB18_38:
Ltmp496:
	.loc	6 0 14 is_stmt 0
	movq	-1600(%rbp), %rsi
	movq	-1592(%rbp), %rdi
	.loc	6 1078 14
	callq	__ZN4core5slice29_$LT$impl$u20$$u5b$T$u5d$$GT$8iter_mut17h5178b49d02ab244eE
Ltmp497:
	movq	%rdx, -1616(%rbp)
	movq	%rax, -1608(%rbp)
	jmp	LBB18_39
LBB18_39:
Ltmp498:
	.loc	6 0 14
	movq	-1616(%rbp), %rsi
	movq	-1608(%rbp), %rdi
	.loc	6 1078 14
	callq	__ZN63_$LT$I$u20$as$u20$core..iter..traits..collect..IntoIterator$GT$9into_iter17h4d30a3a987bf14f9E
Ltmp499:
	movq	%rdx, -1632(%rbp)
	movq	%rax, -1624(%rbp)
	jmp	LBB18_40
LBB18_40:
	.loc	6 0 14
	movq	-1632(%rbp), %rax
	movq	-1624(%rbp), %rcx
	.loc	6 1078 14
	movq	%rcx, -1080(%rbp)
	movq	%rax, -1072(%rbp)
LBB18_41:
Ltmp500:
	.loc	6 0 14
	leaq	-1080(%rbp), %rdi
Ltmp553:
	.loc	6 1078 14
	callq	__ZN94_$LT$core..slice..iter..IterMut$LT$T$GT$$u20$as$u20$core..iter..traits..iterator..Iterator$GT$4next17h69b7a3b3e5220f5bE
Ltmp501:
	movq	%rax, -1640(%rbp)
	jmp	LBB18_42
LBB18_42:
	.loc	6 0 14
	movq	-1640(%rbp), %rax
	.loc	6 1078 14
	movq	%rax, -1064(%rbp)
	movq	-1064(%rbp), %rdx
	movl	$1, %eax
	xorl	%ecx, %ecx
	cmpq	$0, %rdx
	cmoveq	%rcx, %rax
	cmpq	$0, %rax
	jne	LBB18_44
Ltmp554:
	.loc	6 0 14
	movq	-1432(%rbp), %rdi
	.loc	6 1084 5 is_stmt 1
	addq	$16, %rdi
Ltmp506:
	callq	__ZN16parking_lot_core9word_lock8WordLock6unlock17hcabffee10591cf5aE
Ltmp507:
	jmp	LBB18_47
LBB18_44:
	.loc	6 0 5 is_stmt 0
	movq	-1576(%rbp), %rsi
Ltmp555:
	.loc	6 1078 9 is_stmt 1
	movq	-1064(%rbp), %rax
	movq	%rax, -1648(%rbp)
	movq	%rax, -64(%rbp)
Ltmp556:
	.loc	6 1079 9
	movq	(%rax), %rdi
	addq	$136, %rdi
Ltmp502:
	callq	__ZN4core4cell13Cell$LT$T$GT$3set17hb132ece05e8c701fE
Ltmp503:
	jmp	LBB18_45
LBB18_45:
	.loc	6 0 9 is_stmt 0
	movq	-1648(%rbp), %rax
	.loc	6 1080 20 is_stmt 1
	movq	(%rax), %rdi
Ltmp504:
	callq	__ZN117_$LT$parking_lot_core..thread_parker..imp..ThreadParker$u20$as$u20$parking_lot_core..thread_parker..ThreadParkerT$GT$11unpark_lock17he447e1adb5cc7f3bE
Ltmp505:
	movq	%rax, -1656(%rbp)
	jmp	LBB18_46
LBB18_46:
	.loc	6 0 20 is_stmt 0
	movq	-1648(%rbp), %rax
	movq	-1656(%rbp), %rcx
	.loc	6 1080 15
	movq	%rcx, -1048(%rbp)
	movq	$1, -1056(%rbp)
	.loc	6 1080 9
	movq	-1056(%rbp), %rdx
	movq	-1048(%rbp), %rcx
	movq	%rdx, 8(%rax)
	movq	%rcx, 16(%rax)
Ltmp557:
	.loc	6 1078 5 is_stmt 1
	jmp	LBB18_41
Ltmp558:
LBB18_47:
	.loc	6 1088 24
	movb	$0, -130(%rbp)
	leaq	-592(%rbp), %rdi
	movq	%rdi, -1664(%rbp)
	leaq	-1392(%rbp), %rsi
	movl	$208, %edx
	callq	_memcpy
	movq	-1664(%rbp), %rsi
Ltmp508:
	leaq	-816(%rbp), %rdi
	callq	__ZN89_$LT$smallvec..SmallVec$LT$A$GT$$u20$as$u20$core..iter..traits..collect..IntoIterator$GT$9into_iter17h2fafc8795a5ff6c9E
Ltmp509:
	jmp	LBB18_48
LBB18_48:
Ltmp510:
	.loc	6 0 24 is_stmt 0
	leaq	-1040(%rbp), %rdi
	leaq	-816(%rbp), %rsi
	.loc	6 1088 24
	callq	__ZN63_$LT$I$u20$as$u20$core..iter..traits..collect..IntoIterator$GT$9into_iter17h9a7fe8b273db4a5bE
Ltmp511:
	jmp	LBB18_49
LBB18_49:
	leaq	-384(%rbp), %rdi
	leaq	-1040(%rbp), %rsi
	movl	$224, %edx
	callq	_memcpy
LBB18_50:
Ltmp512:
	.loc	6 0 24
	leaq	-160(%rbp), %rdi
	leaq	-384(%rbp), %rsi
Ltmp559:
	.loc	6 1088 24
	callq	__ZN86_$LT$smallvec..IntoIter$LT$A$GT$$u20$as$u20$core..iter..traits..iterator..Iterator$GT$4next17ha285aea51bd31bffE
Ltmp513:
	jmp	LBB18_53
Ltmp560:
LBB18_51:
Ltmp519:
	.loc	6 0 24
	leaq	-384(%rbp), %rdi
	.loc	6 1088 5
	callq	__ZN4core3ptr212drop_in_place$LT$smallvec..IntoIter$LT$$u5b$$LP$$BP$const$u20$parking_lot_core..parking_lot..ThreadData$C$core..option..Option$LT$parking_lot_core..thread_parker..imp..UnparkHandle$GT$$RP$$u3b$$u20$8$u5d$$GT$$GT$17h40a6465580c4b610E
Ltmp520:
	jmp	LBB18_7
LBB18_52:
Ltmp518:
	.loc	6 0 5
	movq	%rax, %rcx
	movl	%edx, %eax
	movq	%rcx, -104(%rbp)
	movl	%eax, -96(%rbp)
	jmp	LBB18_51
LBB18_53:
Ltmp561:
	.loc	6 1088 24
	movl	$1, %eax
	xorl	%ecx, %ecx
	cmpq	$2, -152(%rbp)
	cmoveq	%rcx, %rax
	cmpq	$0, %rax
	jne	LBB18_55
Ltmp562:
Ltmp521:
	.loc	6 0 24
	leaq	-384(%rbp), %rdi
	.loc	6 1088 5
	callq	__ZN4core3ptr212drop_in_place$LT$smallvec..IntoIter$LT$$u5b$$LP$$BP$const$u20$parking_lot_core..parking_lot..ThreadData$C$core..option..Option$LT$parking_lot_core..thread_parker..imp..UnparkHandle$GT$$RP$$u3b$$u20$8$u5d$$GT$$GT$17h40a6465580c4b610E
Ltmp522:
	jmp	LBB18_59
LBB18_55:
Ltmp563:
	.loc	6 1088 13
	movq	-152(%rbp), %rdi
	movq	-144(%rbp), %rsi
	movq	%rdi, -56(%rbp)
	movq	%rsi, -48(%rbp)
Ltmp514:
Ltmp564:
	.loc	6 1089 9 is_stmt 1
	callq	__ZN101_$LT$core..option..Option$LT$T$GT$$u20$as$u20$parking_lot_core..util..UncheckedOptionExt$LT$T$GT$$GT$16unchecked_unwrap17hca56f0bcd6cf226fE
Ltmp515:
	movq	%rax, -1672(%rbp)
	jmp	LBB18_56
LBB18_56:
Ltmp516:
	.loc	6 0 9 is_stmt 0
	movq	-1672(%rbp), %rdi
	.loc	6 1089 9
	callq	__ZN117_$LT$parking_lot_core..thread_parker..imp..UnparkHandle$u20$as$u20$parking_lot_core..thread_parker..UnparkHandleT$GT$6unpark17hb14bc6cfd5a3218fE
Ltmp517:
	jmp	LBB18_57
LBB18_57:
	jmp	LBB18_50
Ltmp565:
LBB18_58:
Ltmp536:
	.loc	6 1020 1 is_stmt 1
	callq	__ZN4core9panicking19panic_cannot_unwind17h1fbca7e1d7f56ae1E
LBB18_59:
	.loc	6 0 1 is_stmt 0
	movq	-1440(%rbp), %rax
Ltmp566:
	.loc	6 1093 1 is_stmt 1
	movb	$0, -130(%rbp)
Ltmp567:
	.loc	6 1093 2 is_stmt 0
	addq	$1680, %rsp
	popq	%rbp
	retq
LBB18_60:
Ltmp534:
	.loc	6 0 2
	leaq	-1392(%rbp), %rdi
Ltmp568:
	.loc	6 1093 1
	callq	__ZN4core3ptr212drop_in_place$LT$smallvec..SmallVec$LT$$u5b$$LP$$BP$const$u20$parking_lot_core..parking_lot..ThreadData$C$core..option..Option$LT$parking_lot_core..thread_parker..imp..UnparkHandle$GT$$RP$$u3b$$u20$8$u5d$$GT$$GT$17h5fc392d24cb64e48E
Ltmp535:
	jmp	LBB18_1
Ltmp569:
LBB18_61:
	.loc	6 1020 1 is_stmt 1
	movq	-104(%rbp), %rdi
	callq	__Unwind_Resume
LBB18_62:
	.loc	6 1093 1
	jmp	LBB18_61
Ltmp570:
Lfunc_end18:
	.cfi_endproc
	.section	__TEXT,__gcc_except_tab
	.p2align	2
GCC_except_table18:
Lexception4:
	.byte	255
	.byte	255
	.byte	1
	.uleb128 Lcst_end4-Lcst_begin4
Lcst_begin4:
	.uleb128 Ltmp467-Lfunc_begin18
	.uleb128 Ltmp472-Ltmp467
	.uleb128 Ltmp473-Lfunc_begin18
	.byte	0
	.uleb128 Ltmp474-Lfunc_begin18
	.uleb128 Ltmp505-Ltmp474
	.uleb128 Ltmp533-Lfunc_begin18
	.byte	0
	.uleb128 Ltmp505-Lfunc_begin18
	.uleb128 Ltmp508-Ltmp505
	.byte	0
	.byte	0
	.uleb128 Ltmp508-Lfunc_begin18
	.uleb128 Ltmp511-Ltmp508
	.uleb128 Ltmp533-Lfunc_begin18
	.byte	0
	.uleb128 Ltmp511-Lfunc_begin18
	.uleb128 Ltmp512-Ltmp511
	.byte	0
	.byte	0
	.uleb128 Ltmp512-Lfunc_begin18
	.uleb128 Ltmp513-Ltmp512
	.uleb128 Ltmp518-Lfunc_begin18
	.byte	0
	.uleb128 Ltmp519-Lfunc_begin18
	.uleb128 Ltmp520-Ltmp519
	.uleb128 Ltmp536-Lfunc_begin18
	.byte	0
	.uleb128 Ltmp521-Lfunc_begin18
	.uleb128 Ltmp522-Ltmp521
	.uleb128 Ltmp533-Lfunc_begin18
	.byte	0
	.uleb128 Ltmp514-Lfunc_begin18
	.uleb128 Ltmp517-Ltmp514
	.uleb128 Ltmp518-Lfunc_begin18
	.byte	0
	.uleb128 Ltmp534-Lfunc_begin18
	.uleb128 Ltmp535-Ltmp534
	.uleb128 Ltmp536-Lfunc_begin18
	.byte	0
	.uleb128 Ltmp535-Lfunc_begin18
	.uleb128 Lfunc_end18-Ltmp535
	.byte	0
	.byte	0
Lcst_end4:
	.p2align	2

	.section	__TEXT,__text,regular,pure_instructions
	.globl	__ZN16parking_lot_core11parking_lot13unpark_filter17h5964466a8203a698E
	.p2align	4, 0x90
__ZN16parking_lot_core11parking_lot13unpark_filter17h5964466a8203a698E:
Lfunc_begin19:
	.loc	6 1020 0
	.cfi_startproc
	.cfi_personality 155, _rust_eh_personality
	.cfi_lsda 16, Lexception5
	pushq	%rbp
	.cfi_def_cfa_offset 16
	.cfi_offset %rbp, -16
	movq	%rsp, %rbp
	.cfi_def_cfa_register %rbp
	subq	$1680, %rsp
	movq	%r8, -1472(%rbp)
	movq	%rcx, -1464(%rbp)
	movq	%rsi, -1456(%rbp)
	movq	%rdi, %rax
	movq	-1456(%rbp), %rdi
	movq	%rax, -1448(%rbp)
	movq	%rax, -1440(%rbp)
	movq	%rdx, -1424(%rbp)
	movq	%rdi, -128(%rbp)
	movq	%rcx, -120(%rbp)
	movq	%r8, -112(%rbp)
Ltmp641:
	.loc	6 1026 9 prologue_end
	movb	$0, -130(%rbp)
	movb	$0, -129(%rbp)
	movb	$1, -129(%rbp)
Ltmp571:
	.loc	6 1026 18 is_stmt 0
	callq	__ZN16parking_lot_core11parking_lot11lock_bucket17h7d64fcc90ba48539E
Ltmp572:
	movq	%rax, -1432(%rbp)
	jmp	LBB19_3
LBB19_1:
	.loc	6 1093 1 is_stmt 1
	testb	$1, -129(%rbp)
	jne	LBB19_62
	jmp	LBB19_61
LBB19_2:
Ltmp577:
	.loc	6 0 1 is_stmt 0
	movq	%rax, %rcx
	movl	%edx, %eax
	movq	%rcx, -104(%rbp)
	movl	%eax, -96(%rbp)
	jmp	LBB19_1
LBB19_3:
	movq	-1432(%rbp), %rdi
	.loc	6 1026 18 is_stmt 1
	movq	%rdi, -88(%rbp)
Ltmp642:
	.loc	6 1029 20
	addq	$24, %rdi
	movq	%rdi, -1416(%rbp)
Ltmp573:
Ltmp643:
	.loc	6 1030 23
	callq	__ZN4core4cell13Cell$LT$T$GT$3get17h91f3150f3f68e435E
Ltmp574:
	movq	%rax, -1480(%rbp)
	jmp	LBB19_4
LBB19_4:
	.loc	6 0 23 is_stmt 0
	movq	-1480(%rbp), %rax
	.loc	6 1030 23
	movq	%rax, -1408(%rbp)
Ltmp644:
	.loc	7 568 14 is_stmt 1
	movq	$0, -24(%rbp)
	movq	-24(%rbp), %rax
	movq	%rax, -16(%rbp)
Ltmp645:
	.loc	8 118 36
	movq	%rax, -32(%rbp)
	.loc	8 118 14 is_stmt 0
	movq	-32(%rbp), %rax
	movq	%rax, -40(%rbp)
	movq	-40(%rbp), %rax
	movq	%rax, -1488(%rbp)
Ltmp646:
	.loc	8 0 14
	movq	-1488(%rbp), %rax
	.loc	6 1031 24 is_stmt 1
	movq	%rax, -1400(%rbp)
Ltmp575:
	leaq	-1392(%rbp), %rdi
Ltmp647:
	.loc	6 1032 23
	callq	__ZN8smallvec17SmallVec$LT$A$GT$3new17ha074c40565e74bc2E
Ltmp576:
	jmp	LBB19_6
LBB19_6:
	.loc	6 0 23 is_stmt 0
	movq	-1448(%rbp), %rdi
Ltmp648:
	.loc	6 1033 9 is_stmt 1
	movb	$1, -130(%rbp)
Ltmp578:
	.loc	6 1033 22 is_stmt 0
	callq	__ZN86_$LT$parking_lot_core..parking_lot..UnparkResult$u20$as$u20$core..default..Default$GT$7default17hbb16d72f09b92fbaE
Ltmp579:
	jmp	LBB19_9
Ltmp649:
LBB19_7:
	.loc	6 1093 1 is_stmt 1
	testb	$1, -130(%rbp)
	jne	LBB19_60
	jmp	LBB19_1
LBB19_8:
Ltmp637:
	.loc	6 0 1 is_stmt 0
	movq	%rax, %rcx
	movl	%edx, %eax
	movq	%rcx, -104(%rbp)
	movl	%eax, -96(%rbp)
	jmp	LBB19_7
LBB19_9:
Ltmp650:
	.loc	6 1033 22 is_stmt 1
	jmp	LBB19_10
LBB19_10:
Ltmp651:
	.loc	6 1034 12
	movq	-1408(%rbp), %rdi
Ltmp580:
	callq	__ZN4core3ptr9const_ptr33_$LT$impl$u20$$BP$const$u20$T$GT$7is_null17h4f24a6938c63d2a7E
Ltmp581:
	movb	%al, -1489(%rbp)
	jmp	LBB19_11
LBB19_11:
	.loc	6 0 12 is_stmt 0
	movb	-1489(%rbp), %al
	.loc	6 1034 11
	xorb	$-1, %al
	testb	$1, %al
	jne	LBB19_13
LBB19_12:
Ltmp592:
	.loc	6 0 11
	leaq	-1392(%rbp), %rdi
	.loc	6 1070 31 is_stmt 1
	callq	__ZN8smallvec17SmallVec$LT$A$GT$3len17h5ca3ae7e4afafad2E
Ltmp593:
	movq	%rax, -1504(%rbp)
	jmp	LBB19_32
LBB19_13:
	.loc	6 1035 12
	movq	-1408(%rbp), %rdi
	addq	$120, %rdi
	.loc	6 1035 32 is_stmt 0
	movb	$0, -1178(%rbp)
	.loc	6 1035 12
	movzbl	-1178(%rbp), %esi
Ltmp582:
	callq	__ZN4core4sync6atomic11AtomicUsize4load17h9f59030344c744f2E
Ltmp583:
	movq	%rax, -1512(%rbp)
	jmp	LBB19_14
LBB19_14:
	.loc	6 0 12
	movq	-1512(%rbp), %rax
	movq	-1456(%rbp), %rcx
	.loc	6 1035 12
	cmpq	%rcx, %rax
	je	LBB19_16
	.loc	6 1063 20 is_stmt 1
	movq	-1408(%rbp), %rax
	subq	$-128, %rax
	.loc	6 1063 13 is_stmt 0
	movq	%rax, -1416(%rbp)
	.loc	6 1064 24 is_stmt 1
	movq	-1408(%rbp), %rax
	.loc	6 1064 13 is_stmt 0
	movq	%rax, -1400(%rbp)
	.loc	6 1065 23 is_stmt 1
	movq	-1416(%rbp), %rdi
Ltmp584:
	callq	__ZN4core4cell13Cell$LT$T$GT$3get17h91f3150f3f68e435E
Ltmp585:
	movq	%rax, -1520(%rbp)
	jmp	LBB19_31
LBB19_16:
	.loc	6 1037 24
	movq	-1408(%rbp), %rdi
	subq	$-128, %rdi
Ltmp586:
	callq	__ZN4core4cell13Cell$LT$T$GT$3get17h91f3150f3f68e435E
Ltmp587:
	movq	%rax, -1528(%rbp)
	jmp	LBB19_17
LBB19_17:
	.loc	6 0 24 is_stmt 0
	movq	-1528(%rbp), %rax
	.loc	6 1037 24
	movq	%rax, -80(%rbp)
Ltmp652:
	.loc	6 1038 26 is_stmt 1
	movq	-1408(%rbp), %rdi
	addq	$144, %rdi
Ltmp588:
	callq	__ZN4core4cell13Cell$LT$T$GT$3get17h1cd86a1dac6c715dE
Ltmp589:
	movq	%rax, -1536(%rbp)
	jmp	LBB19_18
LBB19_18:
	.loc	6 0 26 is_stmt 0
	movq	-1536(%rbp), %rax
	.loc	6 1038 19
	movq	%rax, -1176(%rbp)
	movq	-1176(%rbp), %rsi
Ltmp590:
	leaq	-1424(%rbp), %rdi
	callq	__ZN11parking_lot10raw_rwlock9RawRwLock19wake_parked_threads28_$u7b$$u7b$closure$u7d$$u7d$17h8bc488da6891d6dfE
Ltmp591:
	movb	%al, -1537(%rbp)
	jmp	LBB19_19
LBB19_19:
	.loc	6 0 19
	movb	-1537(%rbp), %al
	.loc	6 1038 19
	movb	%al, -1177(%rbp)
	movzbl	-1177(%rbp), %eax
	movq	%rax, -1552(%rbp)
	testq	%rax, %rax
	.loc	6 1038 13
	je	LBB19_21
	jmp	LBB19_63
LBB19_63:
	.loc	6 0 13
	movq	-1552(%rbp), %rax
	.loc	6 1038 13
	subq	$1, %rax
	je	LBB19_22
	jmp	LBB19_64
LBB19_64:
	jmp	LBB19_23
	.loc	6 1038 19
	ud2
LBB19_21:
	.loc	6 0 19
	movq	-1528(%rbp), %rsi
	.loc	6 1041 21 is_stmt 1
	movq	-1416(%rbp), %rdi
Ltmp629:
	callq	__ZN4core4cell13Cell$LT$T$GT$3set17hd9caf1a89fe8b476E
Ltmp630:
	jmp	LBB19_25
LBB19_22:
	.loc	6 0 21 is_stmt 0
	movq	-1448(%rbp), %rax
	.loc	6 1052 21 is_stmt 1
	movb	$1, 16(%rax)
	.loc	6 1053 28
	movq	-1408(%rbp), %rax
	subq	$-128, %rax
	.loc	6 1053 21 is_stmt 0
	movq	%rax, -1416(%rbp)
	.loc	6 1054 32 is_stmt 1
	movq	-1408(%rbp), %rax
	.loc	6 1054 21 is_stmt 0
	movq	%rax, -1400(%rbp)
	.loc	6 1055 31 is_stmt 1
	movq	-1416(%rbp), %rdi
Ltmp627:
	callq	__ZN4core4cell13Cell$LT$T$GT$3get17h91f3150f3f68e435E
Ltmp628:
	movq	%rax, -1560(%rbp)
	jmp	LBB19_24
LBB19_23:
	.loc	6 0 31 is_stmt 0
	movq	-1448(%rbp), %rax
	.loc	6 1058 21 is_stmt 1
	movb	$1, 16(%rax)
Ltmp653:
	.loc	10 1 1
	jmp	LBB19_12
LBB19_24:
	.loc	10 0 1 is_stmt 0
	movq	-1560(%rbp), %rax
Ltmp654:
	.loc	6 1055 21 is_stmt 1
	movq	%rax, -1408(%rbp)
	.loc	6 1051 35
	jmp	LBB19_10
LBB19_25:
	.loc	6 0 35 is_stmt 0
	movq	-1432(%rbp), %rdi
	.loc	6 1042 24 is_stmt 1
	addq	$32, %rdi
Ltmp631:
	callq	__ZN4core4cell13Cell$LT$T$GT$3get17h91f3150f3f68e435E
Ltmp632:
	movq	%rax, -1568(%rbp)
	jmp	LBB19_26
LBB19_26:
	.loc	6 0 24 is_stmt 0
	movq	-1568(%rbp), %rax
	.loc	6 1042 24
	cmpq	-1408(%rbp), %rax
	je	LBB19_28
LBB19_27:
	.loc	6 1047 35 is_stmt 1
	movq	-1408(%rbp), %rax
	.loc	6 1047 44 is_stmt 0
	movq	$0, -1144(%rbp)
	.loc	6 1047 34
	movq	%rax, -1168(%rbp)
	movq	-1144(%rbp), %rcx
	movq	-1136(%rbp), %rax
	movq	%rcx, -1160(%rbp)
	movq	%rax, -1152(%rbp)
Ltmp635:
	leaq	-1392(%rbp), %rdi
	leaq	-1168(%rbp), %rsi
	.loc	6 1047 21
	callq	__ZN8smallvec17SmallVec$LT$A$GT$4push17h9b8e52b6c7c56693E
Ltmp636:
	jmp	LBB19_30
LBB19_28:
	.loc	6 0 21
	movq	-1432(%rbp), %rdi
	.loc	6 1043 25 is_stmt 1
	addq	$32, %rdi
	.loc	6 1043 47 is_stmt 0
	movq	-1400(%rbp), %rsi
Ltmp633:
	.loc	6 1043 25
	callq	__ZN4core4cell13Cell$LT$T$GT$3set17hd9caf1a89fe8b476E
Ltmp634:
	jmp	LBB19_29
LBB19_29:
	jmp	LBB19_27
LBB19_30:
	.loc	6 0 25
	movq	-1528(%rbp), %rax
	.loc	6 1049 21 is_stmt 1
	movq	%rax, -1408(%rbp)
	.loc	6 1039 37
	jmp	LBB19_10
Ltmp655:
LBB19_31:
	.loc	6 0 37 is_stmt 0
	movq	-1520(%rbp), %rax
	.loc	6 1065 13 is_stmt 1
	movq	%rax, -1408(%rbp)
	.loc	6 1035 9
	jmp	LBB19_10
LBB19_32:
	.loc	6 0 9 is_stmt 0
	movq	-1448(%rbp), %rax
	movq	-1504(%rbp), %rcx
	.loc	6 1070 5 is_stmt 1
	movq	%rcx, (%rax)
	.loc	6 1071 8
	cmpq	$0, (%rax)
	jne	LBB19_34
LBB19_33:
	.loc	6 0 8 is_stmt 0
	movq	-1472(%rbp), %rsi
	movq	-1464(%rbp), %rdi
	movq	-1448(%rbp), %rcx
	.loc	6 1074 17 is_stmt 1
	movb	$0, -129(%rbp)
	.loc	6 1074 26 is_stmt 0
	movq	16(%rcx), %rax
	movq	%rax, -1088(%rbp)
	movq	(%rcx), %rax
	movq	8(%rcx), %rcx
	movq	%rcx, -1096(%rbp)
	movq	%rax, -1104(%rbp)
	.loc	6 1074 17
	movq	-1088(%rbp), %rax
	movq	%rax, -1112(%rbp)
	movq	-1104(%rbp), %rax
	movq	-1096(%rbp), %rcx
	movq	%rcx, -1120(%rbp)
	movq	%rax, -1128(%rbp)
Ltmp596:
	leaq	-1128(%rbp), %rdx
	callq	__ZN11parking_lot10raw_rwlock9RawRwLock19wake_parked_threads28_$u7b$$u7b$closure$u7d$$u7d$17hb08a03f311eb666aE
Ltmp597:
	movq	%rax, -1576(%rbp)
	jmp	LBB19_37
LBB19_34:
	.loc	6 0 17
	movq	-1432(%rbp), %rax
	movq	%rax, -8(%rbp)
Ltmp594:
	movq	-1432(%rbp), %rdi
	.loc	6 1072 26 is_stmt 1
	callq	__ZN16parking_lot_core11parking_lot11FairTimeout14should_timeout17h1e5603a903a5a60cE
Ltmp595:
	movb	%al, -1577(%rbp)
	jmp	LBB19_36
LBB19_36:
	.loc	6 0 26 is_stmt 0
	movq	-1448(%rbp), %rax
	movb	-1577(%rbp), %cl
	.loc	6 1072 9
	andb	$1, %cl
	movb	%cl, 17(%rax)
	.loc	6 1071 5 is_stmt 1
	jmp	LBB19_33
LBB19_37:
	.loc	6 0 5 is_stmt 0
	movq	-1576(%rbp), %rax
	.loc	6 1074 17 is_stmt 1
	movq	%rax, -72(%rbp)
Ltmp598:
	leaq	-1392(%rbp), %rdi
Ltmp656:
	.loc	6 1078 14
	callq	__ZN74_$LT$smallvec..SmallVec$LT$A$GT$$u20$as$u20$core..ops..deref..DerefMut$GT$9deref_mut17h411aa873d6f34e9dE
Ltmp599:
	movq	%rdx, -1600(%rbp)
	movq	%rax, -1592(%rbp)
	jmp	LBB19_38
LBB19_38:
Ltmp600:
	.loc	6 0 14 is_stmt 0
	movq	-1600(%rbp), %rsi
	movq	-1592(%rbp), %rdi
	.loc	6 1078 14
	callq	__ZN4core5slice29_$LT$impl$u20$$u5b$T$u5d$$GT$8iter_mut17h5178b49d02ab244eE
Ltmp601:
	movq	%rdx, -1616(%rbp)
	movq	%rax, -1608(%rbp)
	jmp	LBB19_39
LBB19_39:
Ltmp602:
	.loc	6 0 14
	movq	-1616(%rbp), %rsi
	movq	-1608(%rbp), %rdi
	.loc	6 1078 14
	callq	__ZN63_$LT$I$u20$as$u20$core..iter..traits..collect..IntoIterator$GT$9into_iter17h4d30a3a987bf14f9E
Ltmp603:
	movq	%rdx, -1632(%rbp)
	movq	%rax, -1624(%rbp)
	jmp	LBB19_40
LBB19_40:
	.loc	6 0 14
	movq	-1632(%rbp), %rax
	movq	-1624(%rbp), %rcx
	.loc	6 1078 14
	movq	%rcx, -1080(%rbp)
	movq	%rax, -1072(%rbp)
LBB19_41:
Ltmp604:
	.loc	6 0 14
	leaq	-1080(%rbp), %rdi
Ltmp657:
	.loc	6 1078 14
	callq	__ZN94_$LT$core..slice..iter..IterMut$LT$T$GT$$u20$as$u20$core..iter..traits..iterator..Iterator$GT$4next17h69b7a3b3e5220f5bE
Ltmp605:
	movq	%rax, -1640(%rbp)
	jmp	LBB19_42
LBB19_42:
	.loc	6 0 14
	movq	-1640(%rbp), %rax
	.loc	6 1078 14
	movq	%rax, -1064(%rbp)
	movq	-1064(%rbp), %rdx
	movl	$1, %eax
	xorl	%ecx, %ecx
	cmpq	$0, %rdx
	cmoveq	%rcx, %rax
	cmpq	$0, %rax
	jne	LBB19_44
Ltmp658:
	.loc	6 0 14
	movq	-1432(%rbp), %rdi
	.loc	6 1084 5 is_stmt 1
	addq	$16, %rdi
Ltmp610:
	callq	__ZN16parking_lot_core9word_lock8WordLock6unlock17hcabffee10591cf5aE
Ltmp611:
	jmp	LBB19_47
LBB19_44:
	.loc	6 0 5 is_stmt 0
	movq	-1576(%rbp), %rsi
Ltmp659:
	.loc	6 1078 9 is_stmt 1
	movq	-1064(%rbp), %rax
	movq	%rax, -1648(%rbp)
	movq	%rax, -64(%rbp)
Ltmp660:
	.loc	6 1079 9
	movq	(%rax), %rdi
	addq	$136, %rdi
Ltmp606:
	callq	__ZN4core4cell13Cell$LT$T$GT$3set17hb132ece05e8c701fE
Ltmp607:
	jmp	LBB19_45
LBB19_45:
	.loc	6 0 9 is_stmt 0
	movq	-1648(%rbp), %rax
	.loc	6 1080 20 is_stmt 1
	movq	(%rax), %rdi
Ltmp608:
	callq	__ZN117_$LT$parking_lot_core..thread_parker..imp..ThreadParker$u20$as$u20$parking_lot_core..thread_parker..ThreadParkerT$GT$11unpark_lock17he447e1adb5cc7f3bE
Ltmp609:
	movq	%rax, -1656(%rbp)
	jmp	LBB19_46
LBB19_46:
	.loc	6 0 20 is_stmt 0
	movq	-1648(%rbp), %rax
	movq	-1656(%rbp), %rcx
	.loc	6 1080 15
	movq	%rcx, -1048(%rbp)
	movq	$1, -1056(%rbp)
	.loc	6 1080 9
	movq	-1056(%rbp), %rdx
	movq	-1048(%rbp), %rcx
	movq	%rdx, 8(%rax)
	movq	%rcx, 16(%rax)
Ltmp661:
	.loc	6 1078 5 is_stmt 1
	jmp	LBB19_41
Ltmp662:
LBB19_47:
	.loc	6 1088 24
	movb	$0, -130(%rbp)
	leaq	-592(%rbp), %rdi
	movq	%rdi, -1664(%rbp)
	leaq	-1392(%rbp), %rsi
	movl	$208, %edx
	callq	_memcpy
	movq	-1664(%rbp), %rsi
Ltmp612:
	leaq	-816(%rbp), %rdi
	callq	__ZN89_$LT$smallvec..SmallVec$LT$A$GT$$u20$as$u20$core..iter..traits..collect..IntoIterator$GT$9into_iter17h2fafc8795a5ff6c9E
Ltmp613:
	jmp	LBB19_48
LBB19_48:
Ltmp614:
	.loc	6 0 24 is_stmt 0
	leaq	-1040(%rbp), %rdi
	leaq	-816(%rbp), %rsi
	.loc	6 1088 24
	callq	__ZN63_$LT$I$u20$as$u20$core..iter..traits..collect..IntoIterator$GT$9into_iter17h9a7fe8b273db4a5bE
Ltmp615:
	jmp	LBB19_49
LBB19_49:
	leaq	-384(%rbp), %rdi
	leaq	-1040(%rbp), %rsi
	movl	$224, %edx
	callq	_memcpy
LBB19_50:
Ltmp616:
	.loc	6 0 24
	leaq	-160(%rbp), %rdi
	leaq	-384(%rbp), %rsi
Ltmp663:
	.loc	6 1088 24
	callq	__ZN86_$LT$smallvec..IntoIter$LT$A$GT$$u20$as$u20$core..iter..traits..iterator..Iterator$GT$4next17ha285aea51bd31bffE
Ltmp617:
	jmp	LBB19_53
Ltmp664:
LBB19_51:
Ltmp623:
	.loc	6 0 24
	leaq	-384(%rbp), %rdi
	.loc	6 1088 5
	callq	__ZN4core3ptr212drop_in_place$LT$smallvec..IntoIter$LT$$u5b$$LP$$BP$const$u20$parking_lot_core..parking_lot..ThreadData$C$core..option..Option$LT$parking_lot_core..thread_parker..imp..UnparkHandle$GT$$RP$$u3b$$u20$8$u5d$$GT$$GT$17h40a6465580c4b610E
Ltmp624:
	jmp	LBB19_7
LBB19_52:
Ltmp622:
	.loc	6 0 5
	movq	%rax, %rcx
	movl	%edx, %eax
	movq	%rcx, -104(%rbp)
	movl	%eax, -96(%rbp)
	jmp	LBB19_51
LBB19_53:
Ltmp665:
	.loc	6 1088 24
	movl	$1, %eax
	xorl	%ecx, %ecx
	cmpq	$2, -152(%rbp)
	cmoveq	%rcx, %rax
	cmpq	$0, %rax
	jne	LBB19_55
Ltmp666:
Ltmp625:
	.loc	6 0 24
	leaq	-384(%rbp), %rdi
	.loc	6 1088 5
	callq	__ZN4core3ptr212drop_in_place$LT$smallvec..IntoIter$LT$$u5b$$LP$$BP$const$u20$parking_lot_core..parking_lot..ThreadData$C$core..option..Option$LT$parking_lot_core..thread_parker..imp..UnparkHandle$GT$$RP$$u3b$$u20$8$u5d$$GT$$GT$17h40a6465580c4b610E
Ltmp626:
	jmp	LBB19_59
LBB19_55:
Ltmp667:
	.loc	6 1088 13
	movq	-152(%rbp), %rdi
	movq	-144(%rbp), %rsi
	movq	%rdi, -56(%rbp)
	movq	%rsi, -48(%rbp)
Ltmp618:
Ltmp668:
	.loc	6 1089 9 is_stmt 1
	callq	__ZN101_$LT$core..option..Option$LT$T$GT$$u20$as$u20$parking_lot_core..util..UncheckedOptionExt$LT$T$GT$$GT$16unchecked_unwrap17hca56f0bcd6cf226fE
Ltmp619:
	movq	%rax, -1672(%rbp)
	jmp	LBB19_56
LBB19_56:
Ltmp620:
	.loc	6 0 9 is_stmt 0
	movq	-1672(%rbp), %rdi
	.loc	6 1089 9
	callq	__ZN117_$LT$parking_lot_core..thread_parker..imp..UnparkHandle$u20$as$u20$parking_lot_core..thread_parker..UnparkHandleT$GT$6unpark17hb14bc6cfd5a3218fE
Ltmp621:
	jmp	LBB19_57
LBB19_57:
	jmp	LBB19_50
Ltmp669:
LBB19_58:
Ltmp640:
	.loc	6 1020 1 is_stmt 1
	callq	__ZN4core9panicking19panic_cannot_unwind17h1fbca7e1d7f56ae1E
LBB19_59:
	.loc	6 0 1 is_stmt 0
	movq	-1440(%rbp), %rax
Ltmp670:
	.loc	6 1093 1 is_stmt 1
	movb	$0, -130(%rbp)
Ltmp671:
	.loc	6 1093 2 is_stmt 0
	addq	$1680, %rsp
	popq	%rbp
	retq
LBB19_60:
Ltmp638:
	.loc	6 0 2
	leaq	-1392(%rbp), %rdi
Ltmp672:
	.loc	6 1093 1
	callq	__ZN4core3ptr212drop_in_place$LT$smallvec..SmallVec$LT$$u5b$$LP$$BP$const$u20$parking_lot_core..parking_lot..ThreadData$C$core..option..Option$LT$parking_lot_core..thread_parker..imp..UnparkHandle$GT$$RP$$u3b$$u20$8$u5d$$GT$$GT$17h5fc392d24cb64e48E
Ltmp639:
	jmp	LBB19_1
Ltmp673:
LBB19_61:
	.loc	6 1020 1 is_stmt 1
	movq	-104(%rbp), %rdi
	callq	__Unwind_Resume
LBB19_62:
	.loc	6 1093 1
	jmp	LBB19_61
Ltmp674:
Lfunc_end19:
	.cfi_endproc
	.section	__TEXT,__gcc_except_tab
	.p2align	2
GCC_except_table19:
Lexception5:
	.byte	255
	.byte	255
	.byte	1
	.uleb128 Lcst_end5-Lcst_begin5
Lcst_begin5:
	.uleb128 Ltmp571-Lfunc_begin19
	.uleb128 Ltmp576-Ltmp571
	.uleb128 Ltmp577-Lfunc_begin19
	.byte	0
	.uleb128 Ltmp578-Lfunc_begin19
	.uleb128 Ltmp609-Ltmp578
	.uleb128 Ltmp637-Lfunc_begin19
	.byte	0
	.uleb128 Ltmp609-Lfunc_begin19
	.uleb128 Ltmp612-Ltmp609
	.byte	0
	.byte	0
	.uleb128 Ltmp612-Lfunc_begin19
	.uleb128 Ltmp615-Ltmp612
	.uleb128 Ltmp637-Lfunc_begin19
	.byte	0
	.uleb128 Ltmp615-Lfunc_begin19
	.uleb128 Ltmp616-Ltmp615
	.byte	0
	.byte	0
	.uleb128 Ltmp616-Lfunc_begin19
	.uleb128 Ltmp617-Ltmp616
	.uleb128 Ltmp622-Lfunc_begin19
	.byte	0
	.uleb128 Ltmp623-Lfunc_begin19
	.uleb128 Ltmp624-Ltmp623
	.uleb128 Ltmp640-Lfunc_begin19
	.byte	0
	.uleb128 Ltmp625-Lfunc_begin19
	.uleb128 Ltmp626-Ltmp625
	.uleb128 Ltmp637-Lfunc_begin19
	.byte	0
	.uleb128 Ltmp618-Lfunc_begin19
	.uleb128 Ltmp621-Ltmp618
	.uleb128 Ltmp622-Lfunc_begin19
	.byte	0
	.uleb128 Ltmp638-Lfunc_begin19
	.uleb128 Ltmp639-Ltmp638
	.uleb128 Ltmp640-Lfunc_begin19
	.byte	0
	.uleb128 Ltmp639-Lfunc_begin19
	.uleb128 Lfunc_end19-Ltmp639
	.byte	0
	.byte	0
Lcst_end5:
	.p2align	2

	.section	__TEXT,__text,regular,pure_instructions
	.globl	__ZN16parking_lot_core11parking_lot13unpark_filter17h836e6eb7ca3cf9b8E
	.p2align	4, 0x90
__ZN16parking_lot_core11parking_lot13unpark_filter17h836e6eb7ca3cf9b8E:
Lfunc_begin20:
	.loc	6 1020 0
	.cfi_startproc
	.cfi_personality 155, _rust_eh_personality
	.cfi_lsda 16, Lexception6
	pushq	%rbp
	.cfi_def_cfa_offset 16
	.cfi_offset %rbp, -16
	movq	%rsp, %rbp
	.cfi_def_cfa_register %rbp
	subq	$1680, %rsp
	movq	%rcx, -1472(%rbp)
Ltmp745:
	movq	%rsi, -1464(%rbp)
	movq	%rdi, %rax
	movq	-1464(%rbp), %rdi
	movq	%rax, -1456(%rbp)
	movq	%rax, -1448(%rbp)
	movq	%rdx, -1432(%rbp)
	movq	%rdi, -112(%rbp)
Ltmp746:
	.loc	6 1026 9 prologue_end
	movb	$0, -114(%rbp)
	movb	$0, -113(%rbp)
	movb	$1, -113(%rbp)
Ltmp675:
	.loc	6 1026 18 is_stmt 0
	callq	__ZN16parking_lot_core11parking_lot11lock_bucket17h7d64fcc90ba48539E
Ltmp747:
Ltmp676:
	.loc	6 0 18
	movq	%rax, -1440(%rbp)
Ltmp748:
	.loc	6 1026 18
	jmp	LBB20_3
Ltmp749:
LBB20_1:
	.loc	6 1093 1 is_stmt 1
	testb	$1, -113(%rbp)
	jne	LBB20_62
	jmp	LBB20_61
Ltmp750:
LBB20_2:
Ltmp681:
	.loc	6 0 1 is_stmt 0
	movq	%rax, %rcx
	movl	%edx, %eax
	movq	%rcx, -104(%rbp)
	movl	%eax, -96(%rbp)
	jmp	LBB20_1
Ltmp751:
LBB20_3:
	movq	-1440(%rbp), %rdi
	.loc	6 1026 18 is_stmt 1
	movq	%rdi, -88(%rbp)
Ltmp752:
	.loc	6 1029 20
	addq	$24, %rdi
	movq	%rdi, -1424(%rbp)
Ltmp677:
Ltmp753:
	.loc	6 1030 23
	callq	__ZN4core4cell13Cell$LT$T$GT$3get17h91f3150f3f68e435E
Ltmp678:
	movq	%rax, -1480(%rbp)
	jmp	LBB20_4
Ltmp754:
LBB20_4:
	.loc	6 0 23 is_stmt 0
	movq	-1480(%rbp), %rax
	.loc	6 1030 23
	movq	%rax, -1416(%rbp)
Ltmp755:
	.loc	7 568 14 is_stmt 1
	movq	$0, -24(%rbp)
	movq	-24(%rbp), %rax
	movq	%rax, -16(%rbp)
Ltmp756:
	.loc	8 118 36
	movq	%rax, -32(%rbp)
	.loc	8 118 14 is_stmt 0
	movq	-32(%rbp), %rax
	movq	%rax, -40(%rbp)
	movq	-40(%rbp), %rax
	movq	%rax, -1488(%rbp)
Ltmp757:
	.loc	8 0 14
	movq	-1488(%rbp), %rax
	.loc	6 1031 24 is_stmt 1
	movq	%rax, -1408(%rbp)
Ltmp679:
	leaq	-1400(%rbp), %rdi
Ltmp758:
	.loc	6 1032 23
	callq	__ZN8smallvec17SmallVec$LT$A$GT$3new17ha074c40565e74bc2E
Ltmp680:
	jmp	LBB20_6
Ltmp759:
LBB20_6:
	.loc	6 0 23 is_stmt 0
	movq	-1456(%rbp), %rdi
Ltmp760:
	.loc	6 1033 9 is_stmt 1
	movb	$1, -114(%rbp)
Ltmp682:
	.loc	6 1033 22 is_stmt 0
	callq	__ZN86_$LT$parking_lot_core..parking_lot..UnparkResult$u20$as$u20$core..default..Default$GT$7default17hbb16d72f09b92fbaE
Ltmp683:
	jmp	LBB20_9
Ltmp761:
LBB20_7:
	.loc	6 1093 1 is_stmt 1
	testb	$1, -114(%rbp)
	jne	LBB20_60
	jmp	LBB20_1
Ltmp762:
LBB20_8:
Ltmp741:
	.loc	6 0 1 is_stmt 0
	movq	%rax, %rcx
	movl	%edx, %eax
	movq	%rcx, -104(%rbp)
	movl	%eax, -96(%rbp)
	jmp	LBB20_7
Ltmp763:
LBB20_9:
	.loc	6 1033 22 is_stmt 1
	jmp	LBB20_10
Ltmp764:
LBB20_10:
	.loc	6 1034 12
	movq	-1416(%rbp), %rdi
Ltmp684:
	callq	__ZN4core3ptr9const_ptr33_$LT$impl$u20$$BP$const$u20$T$GT$7is_null17h4f24a6938c63d2a7E
Ltmp685:
	movb	%al, -1489(%rbp)
	jmp	LBB20_11
Ltmp765:
LBB20_11:
	.loc	6 0 12 is_stmt 0
	movb	-1489(%rbp), %al
	.loc	6 1034 11
	xorb	$-1, %al
	testb	$1, %al
	jne	LBB20_13
Ltmp766:
LBB20_12:
Ltmp696:
	.loc	6 0 11
	leaq	-1400(%rbp), %rdi
	.loc	6 1070 31 is_stmt 1
	callq	__ZN8smallvec17SmallVec$LT$A$GT$3len17h5ca3ae7e4afafad2E
Ltmp697:
	movq	%rax, -1504(%rbp)
	jmp	LBB20_32
Ltmp767:
LBB20_13:
	.loc	6 1035 12
	movq	-1416(%rbp), %rdi
	addq	$120, %rdi
	.loc	6 1035 32 is_stmt 0
	movb	$0, -1186(%rbp)
	.loc	6 1035 12
	movzbl	-1186(%rbp), %esi
Ltmp686:
	callq	__ZN4core4sync6atomic11AtomicUsize4load17h9f59030344c744f2E
Ltmp687:
	movq	%rax, -1512(%rbp)
	jmp	LBB20_14
Ltmp768:
LBB20_14:
	.loc	6 0 12
	movq	-1512(%rbp), %rax
	movq	-1464(%rbp), %rcx
	.loc	6 1035 12
	cmpq	%rcx, %rax
	je	LBB20_16
Ltmp769:
	.loc	6 1063 20 is_stmt 1
	movq	-1416(%rbp), %rax
	subq	$-128, %rax
	.loc	6 1063 13 is_stmt 0
	movq	%rax, -1424(%rbp)
	.loc	6 1064 24 is_stmt 1
	movq	-1416(%rbp), %rax
	.loc	6 1064 13 is_stmt 0
	movq	%rax, -1408(%rbp)
	.loc	6 1065 23 is_stmt 1
	movq	-1424(%rbp), %rdi
Ltmp688:
	callq	__ZN4core4cell13Cell$LT$T$GT$3get17h91f3150f3f68e435E
Ltmp689:
	movq	%rax, -1520(%rbp)
	jmp	LBB20_31
Ltmp770:
LBB20_16:
	.loc	6 1037 24
	movq	-1416(%rbp), %rdi
	subq	$-128, %rdi
Ltmp690:
	callq	__ZN4core4cell13Cell$LT$T$GT$3get17h91f3150f3f68e435E
Ltmp691:
	movq	%rax, -1528(%rbp)
	jmp	LBB20_17
Ltmp771:
LBB20_17:
	.loc	6 0 24 is_stmt 0
	movq	-1528(%rbp), %rax
	.loc	6 1037 24
	movq	%rax, -80(%rbp)
Ltmp772:
	.loc	6 1038 26 is_stmt 1
	movq	-1416(%rbp), %rdi
	addq	$144, %rdi
Ltmp692:
	callq	__ZN4core4cell13Cell$LT$T$GT$3get17h1cd86a1dac6c715dE
Ltmp693:
	movq	%rax, -1536(%rbp)
	jmp	LBB20_18
Ltmp773:
LBB20_18:
	.loc	6 0 26 is_stmt 0
	movq	-1536(%rbp), %rax
	.loc	6 1038 19
	movq	%rax, -1184(%rbp)
	movq	-1184(%rbp), %rsi
Ltmp694:
	leaq	-1432(%rbp), %rdi
	callq	__ZN11parking_lot10raw_rwlock9RawRwLock19wake_parked_threads28_$u7b$$u7b$closure$u7d$$u7d$17h2239a4b6034ddd2cE
Ltmp695:
	movb	%al, -1537(%rbp)
	jmp	LBB20_19
Ltmp774:
LBB20_19:
	.loc	6 0 19
	movb	-1537(%rbp), %al
	.loc	6 1038 19
	movb	%al, -1185(%rbp)
	movzbl	-1185(%rbp), %eax
	movq	%rax, -1552(%rbp)
	testq	%rax, %rax
	.loc	6 1038 13
	je	LBB20_21
	jmp	LBB20_63
Ltmp775:
LBB20_63:
	.loc	6 0 13
	movq	-1552(%rbp), %rax
	.loc	6 1038 13
	subq	$1, %rax
	je	LBB20_22
	jmp	LBB20_64
Ltmp776:
LBB20_64:
	jmp	LBB20_23
Ltmp777:
	.loc	6 1038 19
	ud2
LBB20_21:
Ltmp778:
	.loc	6 0 19
	movq	-1528(%rbp), %rsi
	.loc	6 1041 21 is_stmt 1
	movq	-1424(%rbp), %rdi
Ltmp733:
	callq	__ZN4core4cell13Cell$LT$T$GT$3set17hd9caf1a89fe8b476E
Ltmp734:
	jmp	LBB20_25
Ltmp779:
LBB20_22:
	.loc	6 0 21 is_stmt 0
	movq	-1456(%rbp), %rax
	.loc	6 1052 21 is_stmt 1
	movb	$1, 16(%rax)
	.loc	6 1053 28
	movq	-1416(%rbp), %rax
	subq	$-128, %rax
	.loc	6 1053 21 is_stmt 0
	movq	%rax, -1424(%rbp)
	.loc	6 1054 32 is_stmt 1
	movq	-1416(%rbp), %rax
	.loc	6 1054 21 is_stmt 0
	movq	%rax, -1408(%rbp)
	.loc	6 1055 31 is_stmt 1
	movq	-1424(%rbp), %rdi
Ltmp731:
	callq	__ZN4core4cell13Cell$LT$T$GT$3get17h91f3150f3f68e435E
Ltmp732:
	movq	%rax, -1560(%rbp)
	jmp	LBB20_24
Ltmp780:
LBB20_23:
	.loc	6 0 31 is_stmt 0
	movq	-1456(%rbp), %rax
	.loc	6 1058 21 is_stmt 1
	movb	$1, 16(%rax)
Ltmp781:
	.loc	10 1 1
	jmp	LBB20_12
Ltmp782:
LBB20_24:
	.loc	10 0 1 is_stmt 0
	movq	-1560(%rbp), %rax
Ltmp783:
	.loc	6 1055 21 is_stmt 1
	movq	%rax, -1416(%rbp)
	.loc	6 1051 35
	jmp	LBB20_10
Ltmp784:
LBB20_25:
	.loc	6 0 35 is_stmt 0
	movq	-1440(%rbp), %rdi
	.loc	6 1042 24 is_stmt 1
	addq	$32, %rdi
Ltmp735:
	callq	__ZN4core4cell13Cell$LT$T$GT$3get17h91f3150f3f68e435E
Ltmp736:
	movq	%rax, -1568(%rbp)
	jmp	LBB20_26
Ltmp785:
LBB20_26:
	.loc	6 0 24 is_stmt 0
	movq	-1568(%rbp), %rax
	.loc	6 1042 24
	cmpq	-1416(%rbp), %rax
	je	LBB20_28
Ltmp786:
LBB20_27:
	.loc	6 1047 35 is_stmt 1
	movq	-1416(%rbp), %rax
	.loc	6 1047 44 is_stmt 0
	movq	$0, -1152(%rbp)
	.loc	6 1047 34
	movq	%rax, -1176(%rbp)
	movq	-1152(%rbp), %rcx
	movq	-1144(%rbp), %rax
	movq	%rcx, -1168(%rbp)
	movq	%rax, -1160(%rbp)
Ltmp739:
	leaq	-1400(%rbp), %rdi
	leaq	-1176(%rbp), %rsi
	.loc	6 1047 21
	callq	__ZN8smallvec17SmallVec$LT$A$GT$4push17h9b8e52b6c7c56693E
Ltmp740:
	jmp	LBB20_30
Ltmp787:
LBB20_28:
	.loc	6 0 21
	movq	-1440(%rbp), %rdi
	.loc	6 1043 25 is_stmt 1
	addq	$32, %rdi
	.loc	6 1043 47 is_stmt 0
	movq	-1408(%rbp), %rsi
Ltmp737:
	.loc	6 1043 25
	callq	__ZN4core4cell13Cell$LT$T$GT$3set17hd9caf1a89fe8b476E
Ltmp738:
	jmp	LBB20_29
Ltmp788:
LBB20_29:
	jmp	LBB20_27
Ltmp789:
LBB20_30:
	.loc	6 0 25
	movq	-1528(%rbp), %rax
	.loc	6 1049 21 is_stmt 1
	movq	%rax, -1416(%rbp)
	.loc	6 1039 37
	jmp	LBB20_10
Ltmp790:
LBB20_31:
	.loc	6 0 37 is_stmt 0
	movq	-1520(%rbp), %rax
	.loc	6 1065 13 is_stmt 1
	movq	%rax, -1416(%rbp)
	.loc	6 1035 9
	jmp	LBB20_10
Ltmp791:
LBB20_32:
	.loc	6 0 9 is_stmt 0
	movq	-1456(%rbp), %rax
	movq	-1504(%rbp), %rcx
	.loc	6 1070 5 is_stmt 1
	movq	%rcx, (%rax)
	.loc	6 1071 8
	cmpq	$0, (%rax)
	jne	LBB20_34
Ltmp792:
LBB20_33:
	.loc	6 0 8 is_stmt 0
	movq	-1456(%rbp), %rcx
	movq	-1472(%rbp), %rdx
	.loc	6 1074 17 is_stmt 1
	movb	$0, -113(%rbp)
	movq	16(%rdx), %rax
	movq	%rax, -1120(%rbp)
	movq	(%rdx), %rax
	movq	8(%rdx), %rdx
	movq	%rdx, -1128(%rbp)
	movq	%rax, -1136(%rbp)
	.loc	6 1074 26 is_stmt 0
	movq	16(%rcx), %rax
	movq	%rax, -1072(%rbp)
	movq	(%rcx), %rax
	movq	8(%rcx), %rcx
	movq	%rcx, -1080(%rbp)
	movq	%rax, -1088(%rbp)
	.loc	6 1074 17
	movq	-1072(%rbp), %rax
	movq	%rax, -1096(%rbp)
	movq	-1088(%rbp), %rax
	movq	-1080(%rbp), %rcx
	movq	%rcx, -1104(%rbp)
	movq	%rax, -1112(%rbp)
Ltmp700:
	leaq	-1136(%rbp), %rdi
	leaq	-1112(%rbp), %rsi
	callq	__ZN11parking_lot10raw_rwlock9RawRwLock19wake_parked_threads28_$u7b$$u7b$closure$u7d$$u7d$17h4e6560d2b381f860E
Ltmp701:
	movq	%rax, -1576(%rbp)
	jmp	LBB20_37
Ltmp793:
LBB20_34:
	.loc	6 0 17
	movq	-1440(%rbp), %rax
	movq	%rax, -8(%rbp)
Ltmp794:
Ltmp698:
	movq	-1440(%rbp), %rdi
	.loc	6 1072 26 is_stmt 1
	callq	__ZN16parking_lot_core11parking_lot11FairTimeout14should_timeout17h1e5603a903a5a60cE
Ltmp699:
	movb	%al, -1577(%rbp)
	jmp	LBB20_36
Ltmp795:
LBB20_36:
	.loc	6 0 26 is_stmt 0
	movq	-1456(%rbp), %rax
	movb	-1577(%rbp), %cl
	.loc	6 1072 9
	andb	$1, %cl
	movb	%cl, 17(%rax)
	.loc	6 1071 5 is_stmt 1
	jmp	LBB20_33
Ltmp796:
LBB20_37:
	.loc	6 0 5 is_stmt 0
	movq	-1576(%rbp), %rax
	.loc	6 1074 17 is_stmt 1
	movq	%rax, -72(%rbp)
Ltmp702:
	leaq	-1400(%rbp), %rdi
Ltmp797:
	.loc	6 1078 14
	callq	__ZN74_$LT$smallvec..SmallVec$LT$A$GT$$u20$as$u20$core..ops..deref..DerefMut$GT$9deref_mut17h411aa873d6f34e9dE
Ltmp703:
	movq	%rdx, -1600(%rbp)
	movq	%rax, -1592(%rbp)
	jmp	LBB20_38
Ltmp798:
LBB20_38:
Ltmp704:
	.loc	6 0 14 is_stmt 0
	movq	-1600(%rbp), %rsi
	movq	-1592(%rbp), %rdi
	.loc	6 1078 14
	callq	__ZN4core5slice29_$LT$impl$u20$$u5b$T$u5d$$GT$8iter_mut17h5178b49d02ab244eE
Ltmp705:
	movq	%rdx, -1616(%rbp)
	movq	%rax, -1608(%rbp)
	jmp	LBB20_39
Ltmp799:
LBB20_39:
Ltmp706:
	.loc	6 0 14
	movq	-1616(%rbp), %rsi
	movq	-1608(%rbp), %rdi
	.loc	6 1078 14
	callq	__ZN63_$LT$I$u20$as$u20$core..iter..traits..collect..IntoIterator$GT$9into_iter17h4d30a3a987bf14f9E
Ltmp707:
	movq	%rdx, -1632(%rbp)
	movq	%rax, -1624(%rbp)
	jmp	LBB20_40
Ltmp800:
LBB20_40:
	.loc	6 0 14
	movq	-1632(%rbp), %rax
	movq	-1624(%rbp), %rcx
	.loc	6 1078 14
	movq	%rcx, -1064(%rbp)
	movq	%rax, -1056(%rbp)
Ltmp801:
LBB20_41:
Ltmp708:
	.loc	6 0 14
	leaq	-1064(%rbp), %rdi
Ltmp802:
	.loc	6 1078 14
	callq	__ZN94_$LT$core..slice..iter..IterMut$LT$T$GT$$u20$as$u20$core..iter..traits..iterator..Iterator$GT$4next17h69b7a3b3e5220f5bE
Ltmp709:
	movq	%rax, -1640(%rbp)
	jmp	LBB20_42
Ltmp803:
LBB20_42:
	.loc	6 0 14
	movq	-1640(%rbp), %rax
	.loc	6 1078 14
	movq	%rax, -1048(%rbp)
	movq	-1048(%rbp), %rdx
	movl	$1, %eax
	xorl	%ecx, %ecx
	cmpq	$0, %rdx
	cmoveq	%rcx, %rax
	cmpq	$0, %rax
	jne	LBB20_44
Ltmp804:
	.loc	6 0 14
	movq	-1440(%rbp), %rdi
	.loc	6 1084 5 is_stmt 1
	addq	$16, %rdi
Ltmp714:
	callq	__ZN16parking_lot_core9word_lock8WordLock6unlock17hcabffee10591cf5aE
Ltmp715:
	jmp	LBB20_47
Ltmp805:
LBB20_44:
	.loc	6 0 5 is_stmt 0
	movq	-1576(%rbp), %rsi
Ltmp806:
	.loc	6 1078 9 is_stmt 1
	movq	-1048(%rbp), %rax
	movq	%rax, -1648(%rbp)
	movq	%rax, -64(%rbp)
Ltmp807:
	.loc	6 1079 9
	movq	(%rax), %rdi
	addq	$136, %rdi
Ltmp710:
	callq	__ZN4core4cell13Cell$LT$T$GT$3set17hb132ece05e8c701fE
Ltmp711:
	jmp	LBB20_45
Ltmp808:
LBB20_45:
	.loc	6 0 9 is_stmt 0
	movq	-1648(%rbp), %rax
	.loc	6 1080 20 is_stmt 1
	movq	(%rax), %rdi
Ltmp712:
	callq	__ZN117_$LT$parking_lot_core..thread_parker..imp..ThreadParker$u20$as$u20$parking_lot_core..thread_parker..ThreadParkerT$GT$11unpark_lock17he447e1adb5cc7f3bE
Ltmp713:
	movq	%rax, -1656(%rbp)
	jmp	LBB20_46
Ltmp809:
LBB20_46:
	.loc	6 0 20 is_stmt 0
	movq	-1648(%rbp), %rax
	movq	-1656(%rbp), %rcx
	.loc	6 1080 15
	movq	%rcx, -1032(%rbp)
	movq	$1, -1040(%rbp)
	.loc	6 1080 9
	movq	-1040(%rbp), %rdx
	movq	-1032(%rbp), %rcx
	movq	%rdx, 8(%rax)
	movq	%rcx, 16(%rax)
Ltmp810:
	.loc	6 1078 5 is_stmt 1
	jmp	LBB20_41
Ltmp811:
LBB20_47:
	.loc	6 1088 24
	movb	$0, -114(%rbp)
	leaq	-576(%rbp), %rdi
	movq	%rdi, -1664(%rbp)
	leaq	-1400(%rbp), %rsi
	movl	$208, %edx
	callq	_memcpy
	movq	-1664(%rbp), %rsi
Ltmp716:
	leaq	-800(%rbp), %rdi
	callq	__ZN89_$LT$smallvec..SmallVec$LT$A$GT$$u20$as$u20$core..iter..traits..collect..IntoIterator$GT$9into_iter17h2fafc8795a5ff6c9E
Ltmp717:
	jmp	LBB20_48
Ltmp812:
LBB20_48:
Ltmp718:
	.loc	6 0 24 is_stmt 0
	leaq	-1024(%rbp), %rdi
	leaq	-800(%rbp), %rsi
	.loc	6 1088 24
	callq	__ZN63_$LT$I$u20$as$u20$core..iter..traits..collect..IntoIterator$GT$9into_iter17h9a7fe8b273db4a5bE
Ltmp719:
	jmp	LBB20_49
Ltmp813:
LBB20_49:
	leaq	-368(%rbp), %rdi
	leaq	-1024(%rbp), %rsi
	movl	$224, %edx
	callq	_memcpy
Ltmp814:
LBB20_50:
Ltmp720:
	.loc	6 0 24
	leaq	-144(%rbp), %rdi
	leaq	-368(%rbp), %rsi
Ltmp815:
	.loc	6 1088 24
	callq	__ZN86_$LT$smallvec..IntoIter$LT$A$GT$$u20$as$u20$core..iter..traits..iterator..Iterator$GT$4next17ha285aea51bd31bffE
Ltmp721:
	jmp	LBB20_53
Ltmp816:
LBB20_51:
Ltmp727:
	.loc	6 0 24
	leaq	-368(%rbp), %rdi
	.loc	6 1088 5
	callq	__ZN4core3ptr212drop_in_place$LT$smallvec..IntoIter$LT$$u5b$$LP$$BP$const$u20$parking_lot_core..parking_lot..ThreadData$C$core..option..Option$LT$parking_lot_core..thread_parker..imp..UnparkHandle$GT$$RP$$u3b$$u20$8$u5d$$GT$$GT$17h40a6465580c4b610E
Ltmp728:
	jmp	LBB20_7
Ltmp817:
LBB20_52:
Ltmp726:
	.loc	6 0 5
	movq	%rax, %rcx
	movl	%edx, %eax
	movq	%rcx, -104(%rbp)
	movl	%eax, -96(%rbp)
	jmp	LBB20_51
Ltmp818:
LBB20_53:
	.loc	6 1088 24
	movl	$1, %eax
	xorl	%ecx, %ecx
	cmpq	$2, -136(%rbp)
	cmoveq	%rcx, %rax
	cmpq	$0, %rax
	jne	LBB20_55
Ltmp819:
Ltmp729:
	.loc	6 0 24
	leaq	-368(%rbp), %rdi
	.loc	6 1088 5
	callq	__ZN4core3ptr212drop_in_place$LT$smallvec..IntoIter$LT$$u5b$$LP$$BP$const$u20$parking_lot_core..parking_lot..ThreadData$C$core..option..Option$LT$parking_lot_core..thread_parker..imp..UnparkHandle$GT$$RP$$u3b$$u20$8$u5d$$GT$$GT$17h40a6465580c4b610E
Ltmp730:
	jmp	LBB20_59
Ltmp820:
LBB20_55:
	.loc	6 1088 13
	movq	-136(%rbp), %rdi
	movq	-128(%rbp), %rsi
	movq	%rdi, -56(%rbp)
	movq	%rsi, -48(%rbp)
Ltmp722:
Ltmp821:
	.loc	6 1089 9 is_stmt 1
	callq	__ZN101_$LT$core..option..Option$LT$T$GT$$u20$as$u20$parking_lot_core..util..UncheckedOptionExt$LT$T$GT$$GT$16unchecked_unwrap17hca56f0bcd6cf226fE
Ltmp723:
	movq	%rax, -1672(%rbp)
	jmp	LBB20_56
Ltmp822:
LBB20_56:
Ltmp724:
	.loc	6 0 9 is_stmt 0
	movq	-1672(%rbp), %rdi
	.loc	6 1089 9
	callq	__ZN117_$LT$parking_lot_core..thread_parker..imp..UnparkHandle$u20$as$u20$parking_lot_core..thread_parker..UnparkHandleT$GT$6unpark17hb14bc6cfd5a3218fE
Ltmp725:
	jmp	LBB20_57
Ltmp823:
LBB20_57:
	jmp	LBB20_50
Ltmp824:
LBB20_58:
Ltmp744:
	.loc	6 1020 1 is_stmt 1
	callq	__ZN4core9panicking19panic_cannot_unwind17h1fbca7e1d7f56ae1E
Ltmp825:
LBB20_59:
	.loc	6 0 1 is_stmt 0
	movq	-1448(%rbp), %rax
Ltmp826:
	.loc	6 1093 1 is_stmt 1
	movb	$0, -114(%rbp)
Ltmp827:
	.loc	6 1093 2 is_stmt 0
	addq	$1680, %rsp
	popq	%rbp
	retq
Ltmp828:
LBB20_60:
Ltmp742:
	.loc	6 0 2
	leaq	-1400(%rbp), %rdi
Ltmp829:
	.loc	6 1093 1
	callq	__ZN4core3ptr212drop_in_place$LT$smallvec..SmallVec$LT$$u5b$$LP$$BP$const$u20$parking_lot_core..parking_lot..ThreadData$C$core..option..Option$LT$parking_lot_core..thread_parker..imp..UnparkHandle$GT$$RP$$u3b$$u20$8$u5d$$GT$$GT$17h5fc392d24cb64e48E
Ltmp743:
	jmp	LBB20_1
Ltmp830:
LBB20_61:
	.loc	6 1020 1 is_stmt 1
	movq	-104(%rbp), %rdi
	callq	__Unwind_Resume
Ltmp831:
LBB20_62:
	.loc	6 1093 1
	jmp	LBB20_61
Ltmp832:
Lfunc_end20:
	.cfi_endproc
	.section	__TEXT,__gcc_except_tab
	.p2align	2
GCC_except_table20:
Lexception6:
	.byte	255
	.byte	255
	.byte	1
	.uleb128 Lcst_end6-Lcst_begin6
Lcst_begin6:
	.uleb128 Ltmp675-Lfunc_begin20
	.uleb128 Ltmp680-Ltmp675
	.uleb128 Ltmp681-Lfunc_begin20
	.byte	0
	.uleb128 Ltmp682-Lfunc_begin20
	.uleb128 Ltmp713-Ltmp682
	.uleb128 Ltmp741-Lfunc_begin20
	.byte	0
	.uleb128 Ltmp713-Lfunc_begin20
	.uleb128 Ltmp716-Ltmp713
	.byte	0
	.byte	0
	.uleb128 Ltmp716-Lfunc_begin20
	.uleb128 Ltmp719-Ltmp716
	.uleb128 Ltmp741-Lfunc_begin20
	.byte	0
	.uleb128 Ltmp719-Lfunc_begin20
	.uleb128 Ltmp720-Ltmp719
	.byte	0
	.byte	0
	.uleb128 Ltmp720-Lfunc_begin20
	.uleb128 Ltmp721-Ltmp720
	.uleb128 Ltmp726-Lfunc_begin20
	.byte	0
	.uleb128 Ltmp727-Lfunc_begin20
	.uleb128 Ltmp728-Ltmp727
	.uleb128 Ltmp744-Lfunc_begin20
	.byte	0
	.uleb128 Ltmp729-Lfunc_begin20
	.uleb128 Ltmp730-Ltmp729
	.uleb128 Ltmp741-Lfunc_begin20
	.byte	0
	.uleb128 Ltmp722-Lfunc_begin20
	.uleb128 Ltmp725-Ltmp722
	.uleb128 Ltmp726-Lfunc_begin20
	.byte	0
	.uleb128 Ltmp742-Lfunc_begin20
	.uleb128 Ltmp743-Ltmp742
	.uleb128 Ltmp744-Lfunc_begin20
	.byte	0
	.uleb128 Ltmp743-Lfunc_begin20
	.uleb128 Lfunc_end20-Ltmp743
	.byte	0
	.byte	0
Lcst_end6:
	.p2align	2

	.section	__TEXT,__text,regular,pure_instructions
	.globl	__ZN16parking_lot_core11parking_lot13unpark_filter17h8f9efbe6a3b3b364E
	.p2align	4, 0x90
__ZN16parking_lot_core11parking_lot13unpark_filter17h8f9efbe6a3b3b364E:
Lfunc_begin21:
	.loc	6 1020 0
	.cfi_startproc
	.cfi_personality 155, _rust_eh_personality
	.cfi_lsda 16, Lexception7
	pushq	%rbp
	.cfi_def_cfa_offset 16
	.cfi_offset %rbp, -16
	movq	%rsp, %rbp
	.cfi_def_cfa_register %rbp
	subq	$1680, %rsp
	movq	%r8, -1472(%rbp)
	movq	%rcx, -1464(%rbp)
	movq	%rsi, -1456(%rbp)
	movq	%rdi, %rax
	movq	-1456(%rbp), %rdi
	movq	%rax, -1448(%rbp)
	movq	%rax, -1440(%rbp)
	movq	%rdx, -1424(%rbp)
	movq	%rdi, -128(%rbp)
	movq	%rcx, -120(%rbp)
	movq	%r8, -112(%rbp)
Ltmp903:
	.loc	6 1026 9 prologue_end
	movb	$0, -130(%rbp)
	movb	$0, -129(%rbp)
	movb	$1, -129(%rbp)
Ltmp833:
	.loc	6 1026 18 is_stmt 0
	callq	__ZN16parking_lot_core11parking_lot11lock_bucket17h7d64fcc90ba48539E
Ltmp834:
	movq	%rax, -1432(%rbp)
	jmp	LBB21_3
LBB21_1:
	.loc	6 1093 1 is_stmt 1
	testb	$1, -129(%rbp)
	jne	LBB21_62
	jmp	LBB21_61
LBB21_2:
Ltmp839:
	.loc	6 0 1 is_stmt 0
	movq	%rax, %rcx
	movl	%edx, %eax
	movq	%rcx, -104(%rbp)
	movl	%eax, -96(%rbp)
	jmp	LBB21_1
LBB21_3:
	movq	-1432(%rbp), %rdi
	.loc	6 1026 18 is_stmt 1
	movq	%rdi, -88(%rbp)
Ltmp904:
	.loc	6 1029 20
	addq	$24, %rdi
	movq	%rdi, -1416(%rbp)
Ltmp835:
Ltmp905:
	.loc	6 1030 23
	callq	__ZN4core4cell13Cell$LT$T$GT$3get17h91f3150f3f68e435E
Ltmp836:
	movq	%rax, -1480(%rbp)
	jmp	LBB21_4
LBB21_4:
	.loc	6 0 23 is_stmt 0
	movq	-1480(%rbp), %rax
	.loc	6 1030 23
	movq	%rax, -1408(%rbp)
Ltmp906:
	.loc	7 568 14 is_stmt 1
	movq	$0, -24(%rbp)
	movq	-24(%rbp), %rax
	movq	%rax, -16(%rbp)
Ltmp907:
	.loc	8 118 36
	movq	%rax, -32(%rbp)
	.loc	8 118 14 is_stmt 0
	movq	-32(%rbp), %rax
	movq	%rax, -40(%rbp)
	movq	-40(%rbp), %rax
	movq	%rax, -1488(%rbp)
Ltmp908:
	.loc	8 0 14
	movq	-1488(%rbp), %rax
	.loc	6 1031 24 is_stmt 1
	movq	%rax, -1400(%rbp)
Ltmp837:
	leaq	-1392(%rbp), %rdi
Ltmp909:
	.loc	6 1032 23
	callq	__ZN8smallvec17SmallVec$LT$A$GT$3new17ha074c40565e74bc2E
Ltmp838:
	jmp	LBB21_6
LBB21_6:
	.loc	6 0 23 is_stmt 0
	movq	-1448(%rbp), %rdi
Ltmp910:
	.loc	6 1033 9 is_stmt 1
	movb	$1, -130(%rbp)
Ltmp840:
	.loc	6 1033 22 is_stmt 0
	callq	__ZN86_$LT$parking_lot_core..parking_lot..UnparkResult$u20$as$u20$core..default..Default$GT$7default17hbb16d72f09b92fbaE
Ltmp841:
	jmp	LBB21_9
Ltmp911:
LBB21_7:
	.loc	6 1093 1 is_stmt 1
	testb	$1, -130(%rbp)
	jne	LBB21_60
	jmp	LBB21_1
LBB21_8:
Ltmp899:
	.loc	6 0 1 is_stmt 0
	movq	%rax, %rcx
	movl	%edx, %eax
	movq	%rcx, -104(%rbp)
	movl	%eax, -96(%rbp)
	jmp	LBB21_7
LBB21_9:
Ltmp912:
	.loc	6 1033 22 is_stmt 1
	jmp	LBB21_10
LBB21_10:
Ltmp913:
	.loc	6 1034 12
	movq	-1408(%rbp), %rdi
Ltmp842:
	callq	__ZN4core3ptr9const_ptr33_$LT$impl$u20$$BP$const$u20$T$GT$7is_null17h4f24a6938c63d2a7E
Ltmp843:
	movb	%al, -1489(%rbp)
	jmp	LBB21_11
LBB21_11:
	.loc	6 0 12 is_stmt 0
	movb	-1489(%rbp), %al
	.loc	6 1034 11
	xorb	$-1, %al
	testb	$1, %al
	jne	LBB21_13
LBB21_12:
Ltmp854:
	.loc	6 0 11
	leaq	-1392(%rbp), %rdi
	.loc	6 1070 31 is_stmt 1
	callq	__ZN8smallvec17SmallVec$LT$A$GT$3len17h5ca3ae7e4afafad2E
Ltmp855:
	movq	%rax, -1504(%rbp)
	jmp	LBB21_32
LBB21_13:
	.loc	6 1035 12
	movq	-1408(%rbp), %rdi
	addq	$120, %rdi
	.loc	6 1035 32 is_stmt 0
	movb	$0, -1178(%rbp)
	.loc	6 1035 12
	movzbl	-1178(%rbp), %esi
Ltmp844:
	callq	__ZN4core4sync6atomic11AtomicUsize4load17h9f59030344c744f2E
Ltmp845:
	movq	%rax, -1512(%rbp)
	jmp	LBB21_14
LBB21_14:
	.loc	6 0 12
	movq	-1512(%rbp), %rax
	movq	-1456(%rbp), %rcx
	.loc	6 1035 12
	cmpq	%rcx, %rax
	je	LBB21_16
	.loc	6 1063 20 is_stmt 1
	movq	-1408(%rbp), %rax
	subq	$-128, %rax
	.loc	6 1063 13 is_stmt 0
	movq	%rax, -1416(%rbp)
	.loc	6 1064 24 is_stmt 1
	movq	-1408(%rbp), %rax
	.loc	6 1064 13 is_stmt 0
	movq	%rax, -1400(%rbp)
	.loc	6 1065 23 is_stmt 1
	movq	-1416(%rbp), %rdi
Ltmp846:
	callq	__ZN4core4cell13Cell$LT$T$GT$3get17h91f3150f3f68e435E
Ltmp847:
	movq	%rax, -1520(%rbp)
	jmp	LBB21_31
LBB21_16:
	.loc	6 1037 24
	movq	-1408(%rbp), %rdi
	subq	$-128, %rdi
Ltmp848:
	callq	__ZN4core4cell13Cell$LT$T$GT$3get17h91f3150f3f68e435E
Ltmp849:
	movq	%rax, -1528(%rbp)
	jmp	LBB21_17
LBB21_17:
	.loc	6 0 24 is_stmt 0
	movq	-1528(%rbp), %rax
	.loc	6 1037 24
	movq	%rax, -80(%rbp)
Ltmp914:
	.loc	6 1038 26 is_stmt 1
	movq	-1408(%rbp), %rdi
	addq	$144, %rdi
Ltmp850:
	callq	__ZN4core4cell13Cell$LT$T$GT$3get17h1cd86a1dac6c715dE
Ltmp851:
	movq	%rax, -1536(%rbp)
	jmp	LBB21_18
LBB21_18:
	.loc	6 0 26 is_stmt 0
	movq	-1536(%rbp), %rax
	.loc	6 1038 19
	movq	%rax, -1176(%rbp)
	movq	-1176(%rbp), %rsi
Ltmp852:
	leaq	-1424(%rbp), %rdi
	callq	__ZN11parking_lot10raw_rwlock9RawRwLock19wake_parked_threads28_$u7b$$u7b$closure$u7d$$u7d$17h90484fc18a6e189bE
Ltmp853:
	movb	%al, -1537(%rbp)
	jmp	LBB21_19
LBB21_19:
	.loc	6 0 19
	movb	-1537(%rbp), %al
	.loc	6 1038 19
	movb	%al, -1177(%rbp)
	movzbl	-1177(%rbp), %eax
	movq	%rax, -1552(%rbp)
	testq	%rax, %rax
	.loc	6 1038 13
	je	LBB21_21
	jmp	LBB21_63
LBB21_63:
	.loc	6 0 13
	movq	-1552(%rbp), %rax
	.loc	6 1038 13
	subq	$1, %rax
	je	LBB21_22
	jmp	LBB21_64
LBB21_64:
	jmp	LBB21_23
	.loc	6 1038 19
	ud2
LBB21_21:
	.loc	6 0 19
	movq	-1528(%rbp), %rsi
	.loc	6 1041 21 is_stmt 1
	movq	-1416(%rbp), %rdi
Ltmp891:
	callq	__ZN4core4cell13Cell$LT$T$GT$3set17hd9caf1a89fe8b476E
Ltmp892:
	jmp	LBB21_25
LBB21_22:
	.loc	6 0 21 is_stmt 0
	movq	-1448(%rbp), %rax
	.loc	6 1052 21 is_stmt 1
	movb	$1, 16(%rax)
	.loc	6 1053 28
	movq	-1408(%rbp), %rax
	subq	$-128, %rax
	.loc	6 1053 21 is_stmt 0
	movq	%rax, -1416(%rbp)
	.loc	6 1054 32 is_stmt 1
	movq	-1408(%rbp), %rax
	.loc	6 1054 21 is_stmt 0
	movq	%rax, -1400(%rbp)
	.loc	6 1055 31 is_stmt 1
	movq	-1416(%rbp), %rdi
Ltmp889:
	callq	__ZN4core4cell13Cell$LT$T$GT$3get17h91f3150f3f68e435E
Ltmp890:
	movq	%rax, -1560(%rbp)
	jmp	LBB21_24
LBB21_23:
	.loc	6 0 31 is_stmt 0
	movq	-1448(%rbp), %rax
	.loc	6 1058 21 is_stmt 1
	movb	$1, 16(%rax)
Ltmp915:
	.loc	10 1 1
	jmp	LBB21_12
LBB21_24:
	.loc	10 0 1 is_stmt 0
	movq	-1560(%rbp), %rax
Ltmp916:
	.loc	6 1055 21 is_stmt 1
	movq	%rax, -1408(%rbp)
	.loc	6 1051 35
	jmp	LBB21_10
LBB21_25:
	.loc	6 0 35 is_stmt 0
	movq	-1432(%rbp), %rdi
	.loc	6 1042 24 is_stmt 1
	addq	$32, %rdi
Ltmp893:
	callq	__ZN4core4cell13Cell$LT$T$GT$3get17h91f3150f3f68e435E
Ltmp894:
	movq	%rax, -1568(%rbp)
	jmp	LBB21_26
LBB21_26:
	.loc	6 0 24 is_stmt 0
	movq	-1568(%rbp), %rax
	.loc	6 1042 24
	cmpq	-1408(%rbp), %rax
	je	LBB21_28
LBB21_27:
	.loc	6 1047 35 is_stmt 1
	movq	-1408(%rbp), %rax
	.loc	6 1047 44 is_stmt 0
	movq	$0, -1144(%rbp)
	.loc	6 1047 34
	movq	%rax, -1168(%rbp)
	movq	-1144(%rbp), %rcx
	movq	-1136(%rbp), %rax
	movq	%rcx, -1160(%rbp)
	movq	%rax, -1152(%rbp)
Ltmp897:
	leaq	-1392(%rbp), %rdi
	leaq	-1168(%rbp), %rsi
	.loc	6 1047 21
	callq	__ZN8smallvec17SmallVec$LT$A$GT$4push17h9b8e52b6c7c56693E
Ltmp898:
	jmp	LBB21_30
LBB21_28:
	.loc	6 0 21
	movq	-1432(%rbp), %rdi
	.loc	6 1043 25 is_stmt 1
	addq	$32, %rdi
	.loc	6 1043 47 is_stmt 0
	movq	-1400(%rbp), %rsi
Ltmp895:
	.loc	6 1043 25
	callq	__ZN4core4cell13Cell$LT$T$GT$3set17hd9caf1a89fe8b476E
Ltmp896:
	jmp	LBB21_29
LBB21_29:
	jmp	LBB21_27
LBB21_30:
	.loc	6 0 25
	movq	-1528(%rbp), %rax
	.loc	6 1049 21 is_stmt 1
	movq	%rax, -1408(%rbp)
	.loc	6 1039 37
	jmp	LBB21_10
Ltmp917:
LBB21_31:
	.loc	6 0 37 is_stmt 0
	movq	-1520(%rbp), %rax
	.loc	6 1065 13 is_stmt 1
	movq	%rax, -1408(%rbp)
	.loc	6 1035 9
	jmp	LBB21_10
LBB21_32:
	.loc	6 0 9 is_stmt 0
	movq	-1448(%rbp), %rax
	movq	-1504(%rbp), %rcx
	.loc	6 1070 5 is_stmt 1
	movq	%rcx, (%rax)
	.loc	6 1071 8
	cmpq	$0, (%rax)
	jne	LBB21_34
LBB21_33:
	.loc	6 0 8 is_stmt 0
	movq	-1472(%rbp), %rsi
	movq	-1464(%rbp), %rdi
	movq	-1448(%rbp), %rcx
	.loc	6 1074 17 is_stmt 1
	movb	$0, -129(%rbp)
	.loc	6 1074 26 is_stmt 0
	movq	16(%rcx), %rax
	movq	%rax, -1088(%rbp)
	movq	(%rcx), %rax
	movq	8(%rcx), %rcx
	movq	%rcx, -1096(%rbp)
	movq	%rax, -1104(%rbp)
	.loc	6 1074 17
	movq	-1088(%rbp), %rax
	movq	%rax, -1112(%rbp)
	movq	-1104(%rbp), %rax
	movq	-1096(%rbp), %rcx
	movq	%rcx, -1120(%rbp)
	movq	%rax, -1128(%rbp)
Ltmp858:
	leaq	-1128(%rbp), %rdx
	callq	__ZN11parking_lot10raw_rwlock9RawRwLock19wake_parked_threads28_$u7b$$u7b$closure$u7d$$u7d$17hd0ac62534baa415eE
Ltmp859:
	movq	%rax, -1576(%rbp)
	jmp	LBB21_37
LBB21_34:
	.loc	6 0 17
	movq	-1432(%rbp), %rax
	movq	%rax, -8(%rbp)
Ltmp856:
	movq	-1432(%rbp), %rdi
	.loc	6 1072 26 is_stmt 1
	callq	__ZN16parking_lot_core11parking_lot11FairTimeout14should_timeout17h1e5603a903a5a60cE
Ltmp857:
	movb	%al, -1577(%rbp)
	jmp	LBB21_36
LBB21_36:
	.loc	6 0 26 is_stmt 0
	movq	-1448(%rbp), %rax
	movb	-1577(%rbp), %cl
	.loc	6 1072 9
	andb	$1, %cl
	movb	%cl, 17(%rax)
	.loc	6 1071 5 is_stmt 1
	jmp	LBB21_33
LBB21_37:
	.loc	6 0 5 is_stmt 0
	movq	-1576(%rbp), %rax
	.loc	6 1074 17 is_stmt 1
	movq	%rax, -72(%rbp)
Ltmp860:
	leaq	-1392(%rbp), %rdi
Ltmp918:
	.loc	6 1078 14
	callq	__ZN74_$LT$smallvec..SmallVec$LT$A$GT$$u20$as$u20$core..ops..deref..DerefMut$GT$9deref_mut17h411aa873d6f34e9dE
Ltmp861:
	movq	%rdx, -1600(%rbp)
	movq	%rax, -1592(%rbp)
	jmp	LBB21_38
LBB21_38:
Ltmp862:
	.loc	6 0 14 is_stmt 0
	movq	-1600(%rbp), %rsi
	movq	-1592(%rbp), %rdi
	.loc	6 1078 14
	callq	__ZN4core5slice29_$LT$impl$u20$$u5b$T$u5d$$GT$8iter_mut17h5178b49d02ab244eE
Ltmp863:
	movq	%rdx, -1616(%rbp)
	movq	%rax, -1608(%rbp)
	jmp	LBB21_39
LBB21_39:
Ltmp864:
	.loc	6 0 14
	movq	-1616(%rbp), %rsi
	movq	-1608(%rbp), %rdi
	.loc	6 1078 14
	callq	__ZN63_$LT$I$u20$as$u20$core..iter..traits..collect..IntoIterator$GT$9into_iter17h4d30a3a987bf14f9E
Ltmp865:
	movq	%rdx, -1632(%rbp)
	movq	%rax, -1624(%rbp)
	jmp	LBB21_40
LBB21_40:
	.loc	6 0 14
	movq	-1632(%rbp), %rax
	movq	-1624(%rbp), %rcx
	.loc	6 1078 14
	movq	%rcx, -1080(%rbp)
	movq	%rax, -1072(%rbp)
LBB21_41:
Ltmp866:
	.loc	6 0 14
	leaq	-1080(%rbp), %rdi
Ltmp919:
	.loc	6 1078 14
	callq	__ZN94_$LT$core..slice..iter..IterMut$LT$T$GT$$u20$as$u20$core..iter..traits..iterator..Iterator$GT$4next17h69b7a3b3e5220f5bE
Ltmp867:
	movq	%rax, -1640(%rbp)
	jmp	LBB21_42
LBB21_42:
	.loc	6 0 14
	movq	-1640(%rbp), %rax
	.loc	6 1078 14
	movq	%rax, -1064(%rbp)
	movq	-1064(%rbp), %rdx
	movl	$1, %eax
	xorl	%ecx, %ecx
	cmpq	$0, %rdx
	cmoveq	%rcx, %rax
	cmpq	$0, %rax
	jne	LBB21_44
Ltmp920:
	.loc	6 0 14
	movq	-1432(%rbp), %rdi
	.loc	6 1084 5 is_stmt 1
	addq	$16, %rdi
Ltmp872:
	callq	__ZN16parking_lot_core9word_lock8WordLock6unlock17hcabffee10591cf5aE
Ltmp873:
	jmp	LBB21_47
LBB21_44:
	.loc	6 0 5 is_stmt 0
	movq	-1576(%rbp), %rsi
Ltmp921:
	.loc	6 1078 9 is_stmt 1
	movq	-1064(%rbp), %rax
	movq	%rax, -1648(%rbp)
	movq	%rax, -64(%rbp)
Ltmp922:
	.loc	6 1079 9
	movq	(%rax), %rdi
	addq	$136, %rdi
Ltmp868:
	callq	__ZN4core4cell13Cell$LT$T$GT$3set17hb132ece05e8c701fE
Ltmp869:
	jmp	LBB21_45
LBB21_45:
	.loc	6 0 9 is_stmt 0
	movq	-1648(%rbp), %rax
	.loc	6 1080 20 is_stmt 1
	movq	(%rax), %rdi
Ltmp870:
	callq	__ZN117_$LT$parking_lot_core..thread_parker..imp..ThreadParker$u20$as$u20$parking_lot_core..thread_parker..ThreadParkerT$GT$11unpark_lock17he447e1adb5cc7f3bE
Ltmp871:
	movq	%rax, -1656(%rbp)
	jmp	LBB21_46
LBB21_46:
	.loc	6 0 20 is_stmt 0
	movq	-1648(%rbp), %rax
	movq	-1656(%rbp), %rcx
	.loc	6 1080 15
	movq	%rcx, -1048(%rbp)
	movq	$1, -1056(%rbp)
	.loc	6 1080 9
	movq	-1056(%rbp), %rdx
	movq	-1048(%rbp), %rcx
	movq	%rdx, 8(%rax)
	movq	%rcx, 16(%rax)
Ltmp923:
	.loc	6 1078 5 is_stmt 1
	jmp	LBB21_41
Ltmp924:
LBB21_47:
	.loc	6 1088 24
	movb	$0, -130(%rbp)
	leaq	-592(%rbp), %rdi
	movq	%rdi, -1664(%rbp)
	leaq	-1392(%rbp), %rsi
	movl	$208, %edx
	callq	_memcpy
	movq	-1664(%rbp), %rsi
Ltmp874:
	leaq	-816(%rbp), %rdi
	callq	__ZN89_$LT$smallvec..SmallVec$LT$A$GT$$u20$as$u20$core..iter..traits..collect..IntoIterator$GT$9into_iter17h2fafc8795a5ff6c9E
Ltmp875:
	jmp	LBB21_48
LBB21_48:
Ltmp876:
	.loc	6 0 24 is_stmt 0
	leaq	-1040(%rbp), %rdi
	leaq	-816(%rbp), %rsi
	.loc	6 1088 24
	callq	__ZN63_$LT$I$u20$as$u20$core..iter..traits..collect..IntoIterator$GT$9into_iter17h9a7fe8b273db4a5bE
Ltmp877:
	jmp	LBB21_49
LBB21_49:
	leaq	-384(%rbp), %rdi
	leaq	-1040(%rbp), %rsi
	movl	$224, %edx
	callq	_memcpy
LBB21_50:
Ltmp878:
	.loc	6 0 24
	leaq	-160(%rbp), %rdi
	leaq	-384(%rbp), %rsi
Ltmp925:
	.loc	6 1088 24
	callq	__ZN86_$LT$smallvec..IntoIter$LT$A$GT$$u20$as$u20$core..iter..traits..iterator..Iterator$GT$4next17ha285aea51bd31bffE
Ltmp879:
	jmp	LBB21_53
Ltmp926:
LBB21_51:
Ltmp885:
	.loc	6 0 24
	leaq	-384(%rbp), %rdi
	.loc	6 1088 5
	callq	__ZN4core3ptr212drop_in_place$LT$smallvec..IntoIter$LT$$u5b$$LP$$BP$const$u20$parking_lot_core..parking_lot..ThreadData$C$core..option..Option$LT$parking_lot_core..thread_parker..imp..UnparkHandle$GT$$RP$$u3b$$u20$8$u5d$$GT$$GT$17h40a6465580c4b610E
Ltmp886:
	jmp	LBB21_7
LBB21_52:
Ltmp884:
	.loc	6 0 5
	movq	%rax, %rcx
	movl	%edx, %eax
	movq	%rcx, -104(%rbp)
	movl	%eax, -96(%rbp)
	jmp	LBB21_51
LBB21_53:
Ltmp927:
	.loc	6 1088 24
	movl	$1, %eax
	xorl	%ecx, %ecx
	cmpq	$2, -152(%rbp)
	cmoveq	%rcx, %rax
	cmpq	$0, %rax
	jne	LBB21_55
Ltmp928:
Ltmp887:
	.loc	6 0 24
	leaq	-384(%rbp), %rdi
	.loc	6 1088 5
	callq	__ZN4core3ptr212drop_in_place$LT$smallvec..IntoIter$LT$$u5b$$LP$$BP$const$u20$parking_lot_core..parking_lot..ThreadData$C$core..option..Option$LT$parking_lot_core..thread_parker..imp..UnparkHandle$GT$$RP$$u3b$$u20$8$u5d$$GT$$GT$17h40a6465580c4b610E
Ltmp888:
	jmp	LBB21_59
LBB21_55:
Ltmp929:
	.loc	6 1088 13
	movq	-152(%rbp), %rdi
	movq	-144(%rbp), %rsi
	movq	%rdi, -56(%rbp)
	movq	%rsi, -48(%rbp)
Ltmp880:
Ltmp930:
	.loc	6 1089 9 is_stmt 1
	callq	__ZN101_$LT$core..option..Option$LT$T$GT$$u20$as$u20$parking_lot_core..util..UncheckedOptionExt$LT$T$GT$$GT$16unchecked_unwrap17hca56f0bcd6cf226fE
Ltmp881:
	movq	%rax, -1672(%rbp)
	jmp	LBB21_56
LBB21_56:
Ltmp882:
	.loc	6 0 9 is_stmt 0
	movq	-1672(%rbp), %rdi
	.loc	6 1089 9
	callq	__ZN117_$LT$parking_lot_core..thread_parker..imp..UnparkHandle$u20$as$u20$parking_lot_core..thread_parker..UnparkHandleT$GT$6unpark17hb14bc6cfd5a3218fE
Ltmp883:
	jmp	LBB21_57
LBB21_57:
	jmp	LBB21_50
Ltmp931:
LBB21_58:
Ltmp902:
	.loc	6 1020 1 is_stmt 1
	callq	__ZN4core9panicking19panic_cannot_unwind17h1fbca7e1d7f56ae1E
LBB21_59:
	.loc	6 0 1 is_stmt 0
	movq	-1440(%rbp), %rax
Ltmp932:
	.loc	6 1093 1 is_stmt 1
	movb	$0, -130(%rbp)
Ltmp933:
	.loc	6 1093 2 is_stmt 0
	addq	$1680, %rsp
	popq	%rbp
	retq
LBB21_60:
Ltmp900:
	.loc	6 0 2
	leaq	-1392(%rbp), %rdi
Ltmp934:
	.loc	6 1093 1
	callq	__ZN4core3ptr212drop_in_place$LT$smallvec..SmallVec$LT$$u5b$$LP$$BP$const$u20$parking_lot_core..parking_lot..ThreadData$C$core..option..Option$LT$parking_lot_core..thread_parker..imp..UnparkHandle$GT$$RP$$u3b$$u20$8$u5d$$GT$$GT$17h5fc392d24cb64e48E
Ltmp901:
	jmp	LBB21_1
Ltmp935:
LBB21_61:
	.loc	6 1020 1 is_stmt 1
	movq	-104(%rbp), %rdi
	callq	__Unwind_Resume
LBB21_62:
	.loc	6 1093 1
	jmp	LBB21_61
Ltmp936:
Lfunc_end21:
	.cfi_endproc
	.section	__TEXT,__gcc_except_tab
	.p2align	2
GCC_except_table21:
Lexception7:
	.byte	255
	.byte	255
	.byte	1
	.uleb128 Lcst_end7-Lcst_begin7
Lcst_begin7:
	.uleb128 Ltmp833-Lfunc_begin21
	.uleb128 Ltmp838-Ltmp833
	.uleb128 Ltmp839-Lfunc_begin21
	.byte	0
	.uleb128 Ltmp840-Lfunc_begin21
	.uleb128 Ltmp871-Ltmp840
	.uleb128 Ltmp899-Lfunc_begin21
	.byte	0
	.uleb128 Ltmp871-Lfunc_begin21
	.uleb128 Ltmp874-Ltmp871
	.byte	0
	.byte	0
	.uleb128 Ltmp874-Lfunc_begin21
	.uleb128 Ltmp877-Ltmp874
	.uleb128 Ltmp899-Lfunc_begin21
	.byte	0
	.uleb128 Ltmp877-Lfunc_begin21
	.uleb128 Ltmp878-Ltmp877
	.byte	0
	.byte	0
	.uleb128 Ltmp878-Lfunc_begin21
	.uleb128 Ltmp879-Ltmp878
	.uleb128 Ltmp884-Lfunc_begin21
	.byte	0
	.uleb128 Ltmp885-Lfunc_begin21
	.uleb128 Ltmp886-Ltmp885
	.uleb128 Ltmp902-Lfunc_begin21
	.byte	0
	.uleb128 Ltmp887-Lfunc_begin21
	.uleb128 Ltmp888-Ltmp887
	.uleb128 Ltmp899-Lfunc_begin21
	.byte	0
	.uleb128 Ltmp880-Lfunc_begin21
	.uleb128 Ltmp883-Ltmp880
	.uleb128 Ltmp884-Lfunc_begin21
	.byte	0
	.uleb128 Ltmp900-Lfunc_begin21
	.uleb128 Ltmp901-Ltmp900
	.uleb128 Ltmp902-Lfunc_begin21
	.byte	0
	.uleb128 Ltmp901-Lfunc_begin21
	.uleb128 Lfunc_end21-Ltmp901
	.byte	0
	.byte	0
Lcst_end7:
	.p2align	2

	.section	__TEXT,__text,regular,pure_instructions
	.globl	__ZN16parking_lot_core11parking_lot14unpark_requeue17h3022869046b020a9E
	.p2align	4, 0x90
__ZN16parking_lot_core11parking_lot14unpark_requeue17h3022869046b020a9E:
Lfunc_begin22:
	.loc	6 888 0
	.cfi_startproc
	.cfi_personality 155, _rust_eh_personality
	.cfi_lsda 16, Lexception8
	pushq	%rbp
	.cfi_def_cfa_offset 16
	.cfi_offset %rbp, -16
	movq	%rsp, %rbp
	.cfi_def_cfa_register %rbp
	subq	$720, %rsp
	movq	%r9, -512(%rbp)
	movq	%r8, -504(%rbp)
	movq	%rcx, -496(%rbp)
	movq	%rdx, -488(%rbp)
	movq	%rsi, %rax
	movq	-488(%rbp), %rsi
	movq	%rax, -480(%rbp)
	movq	%rdi, %rax
	movq	-480(%rbp), %rdi
	movq	%rax, -472(%rbp)
	movq	%rax, -464(%rbp)
	movq	%rdi, -240(%rbp)
	movq	%rsi, -232(%rbp)
	movq	%rcx, -224(%rbp)
	movq	%r8, -216(%rbp)
	movq	%r9, -208(%rbp)
Ltmp1018:
	.loc	6 895 36 prologue_end
	movb	$0, -242(%rbp)
	movb	$0, -241(%rbp)
	movb	$1, -241(%rbp)
	movb	$1, -242(%rbp)
Ltmp937:
	callq	__ZN16parking_lot_core11parking_lot16lock_bucket_pair17h5e5040b127b768acE
Ltmp938:
	movq	%rdx, -456(%rbp)
	movq	%rax, -448(%rbp)
	jmp	LBB22_3
LBB22_1:
	.loc	6 991 1
	testb	$1, -242(%rbp)
	jne	LBB22_92
	jmp	LBB22_91
LBB22_2:
Ltmp1017:
	.loc	6 0 1 is_stmt 0
	movq	%rax, %rcx
	movl	%edx, %eax
	movq	%rcx, -200(%rbp)
	movl	%eax, -192(%rbp)
	jmp	LBB22_1
LBB22_3:
	movq	-456(%rbp), %rax
	movq	-448(%rbp), %rcx
	.loc	6 895 36 is_stmt 1
	movq	%rcx, %rdx
	movq	%rdx, -528(%rbp)
	movq	%rax, %rdx
	movq	%rdx, -520(%rbp)
	.loc	6 895 10 is_stmt 0
	movq	%rcx, -184(%rbp)
	.loc	6 895 23
	movq	%rax, -176(%rbp)
Ltmp939:
	leaq	-440(%rbp), %rdi
Ltmp1019:
	.loc	6 898 22 is_stmt 1
	callq	__ZN86_$LT$parking_lot_core..parking_lot..UnparkResult$u20$as$u20$core..default..Default$GT$7default17hbb16d72f09b92fbaE
Ltmp940:
	jmp	LBB22_4
LBB22_4:
	.loc	6 0 22 is_stmt 0
	movq	-504(%rbp), %rsi
	movq	-496(%rbp), %rdi
Ltmp1020:
	.loc	6 899 14 is_stmt 1
	movb	$0, -241(%rbp)
Ltmp941:
	callq	__ZN4core3ops8function6FnOnce9call_once17h3e0357835e12aea4E
Ltmp942:
	movb	%al, -529(%rbp)
	jmp	LBB22_5
LBB22_5:
	.loc	6 0 14 is_stmt 0
	movb	-529(%rbp), %al
	.loc	6 899 14
	movb	%al, -409(%rbp)
Ltmp943:
Ltmp1021:
	.loc	6 900 8 is_stmt 1
	leaq	l___unnamed_25(%rip), %rsi
	leaq	-409(%rbp), %rdi
	callq	__ZN81_$LT$parking_lot_core..parking_lot..RequeueOp$u20$as$u20$core..cmp..PartialEq$GT$2eq17heec4d8948541b77fE
Ltmp944:
	movb	%al, -530(%rbp)
	jmp	LBB22_6
LBB22_6:
	.loc	6 0 8 is_stmt 0
	movb	-530(%rbp), %al
	.loc	6 900 8
	testb	$1, %al
	jne	LBB22_8
	jmp	LBB22_7
LBB22_7:
	.loc	6 0 8
	movq	-528(%rbp), %rdi
	.loc	6 907 20 is_stmt 1
	addq	$24, %rdi
	movq	%rdi, -408(%rbp)
Ltmp945:
Ltmp1022:
	.loc	6 908 23
	callq	__ZN4core4cell13Cell$LT$T$GT$3get17h91f3150f3f68e435E
Ltmp946:
	movq	%rax, -544(%rbp)
	jmp	LBB22_11
Ltmp1023:
LBB22_8:
Ltmp1015:
	.loc	6 0 23 is_stmt 0
	movq	-520(%rbp), %rsi
	movq	-528(%rbp), %rdi
	.loc	6 902 9 is_stmt 1
	callq	__ZN16parking_lot_core11parking_lot18unlock_bucket_pair17h09a1ea2ad93b5806E
Ltmp1016:
	jmp	LBB22_9
LBB22_9:
	.loc	6 0 9 is_stmt 0
	movq	-472(%rbp), %rax
	.loc	6 903 16 is_stmt 1
	movq	-440(%rbp), %rcx
	movq	%rcx, (%rax)
	movq	-432(%rbp), %rcx
	movq	%rcx, 8(%rax)
	movq	-424(%rbp), %rcx
	movq	%rcx, 16(%rax)
Ltmp1024:
LBB22_10:
	.loc	6 0 16 is_stmt 0
	movq	-464(%rbp), %rax
	.loc	6 991 2 is_stmt 1
	addq	$720, %rsp
	popq	%rbp
	retq
LBB22_11:
	.loc	6 0 2 is_stmt 0
	movq	-544(%rbp), %rax
Ltmp1025:
	.loc	6 908 23 is_stmt 1
	movq	%rax, -400(%rbp)
Ltmp1026:
	.loc	7 568 14
	movq	$0, -24(%rbp)
	movq	-24(%rbp), %rax
	movq	%rax, -16(%rbp)
Ltmp1027:
	.loc	8 118 36
	movq	%rax, -32(%rbp)
	.loc	8 118 14 is_stmt 0
	movq	-32(%rbp), %rax
	movq	%rax, -40(%rbp)
	movq	-40(%rbp), %rax
	movq	%rax, -552(%rbp)
Ltmp1028:
	.loc	8 0 14
	movq	-552(%rbp), %rax
	.loc	6 909 24 is_stmt 1
	movq	%rax, -392(%rbp)
Ltmp1029:
	.loc	7 568 14
	movq	$0, -56(%rbp)
	movq	-56(%rbp), %rax
	movq	%rax, -48(%rbp)
Ltmp1030:
	.loc	8 118 36
	movq	%rax, -64(%rbp)
	.loc	8 118 14 is_stmt 0
	movq	-64(%rbp), %rax
	movq	%rax, -72(%rbp)
	movq	-72(%rbp), %rax
	movq	%rax, -560(%rbp)
Ltmp1031:
	.loc	8 0 14
	movq	-560(%rbp), %rax
	.loc	6 910 50 is_stmt 1
	movq	%rax, -384(%rbp)
Ltmp1032:
	.loc	7 568 14
	movq	$0, -88(%rbp)
	movq	-88(%rbp), %rax
	movq	%rax, -80(%rbp)
Ltmp1033:
	.loc	8 118 36
	movq	%rax, -96(%rbp)
	.loc	8 118 14 is_stmt 0
	movq	-96(%rbp), %rax
	movq	%rax, -104(%rbp)
	movq	-104(%rbp), %rax
	movq	%rax, -568(%rbp)
Ltmp1034:
	.loc	8 0 14
	movq	-568(%rbp), %rax
	.loc	6 911 55 is_stmt 1
	movq	%rax, -376(%rbp)
Ltmp1035:
	.loc	6 912 29
	movq	$0, -368(%rbp)
LBB22_15:
Ltmp1036:
	.loc	6 913 12
	movq	-400(%rbp), %rdi
Ltmp947:
	callq	__ZN4core3ptr9const_ptr33_$LT$impl$u20$$BP$const$u20$T$GT$7is_null17h4f24a6938c63d2a7E
Ltmp948:
	movb	%al, -569(%rbp)
	jmp	LBB22_16
LBB22_16:
	.loc	6 0 12 is_stmt 0
	movb	-569(%rbp), %al
	.loc	6 913 11
	xorb	$-1, %al
	testb	$1, %al
	jne	LBB22_18
LBB22_17:
	.loc	6 960 9 is_stmt 1
	movq	-384(%rbp), %rdi
Ltmp985:
	callq	__ZN4core3ptr9const_ptr33_$LT$impl$u20$$BP$const$u20$T$GT$7is_null17h4f24a6938c63d2a7E
Ltmp986:
	movb	%al, -570(%rbp)
	jmp	LBB22_64
LBB22_18:
	.loc	6 914 12
	movq	-400(%rbp), %rdi
	addq	$120, %rdi
	.loc	6 914 32 is_stmt 0
	movb	$0, -347(%rbp)
	.loc	6 914 12
	movzbl	-347(%rbp), %esi
Ltmp949:
	callq	__ZN4core4sync6atomic11AtomicUsize4load17h9f59030344c744f2E
Ltmp950:
	movq	%rax, -584(%rbp)
	jmp	LBB22_19
LBB22_19:
	.loc	6 0 12
	movq	-584(%rbp), %rax
	movq	-480(%rbp), %rcx
	.loc	6 914 12
	cmpq	%rcx, %rax
	je	LBB22_21
	.loc	6 953 20 is_stmt 1
	movq	-400(%rbp), %rax
	subq	$-128, %rax
	.loc	6 953 13 is_stmt 0
	movq	%rax, -408(%rbp)
	.loc	6 954 24 is_stmt 1
	movq	-400(%rbp), %rax
	.loc	6 954 13 is_stmt 0
	movq	%rax, -392(%rbp)
	.loc	6 955 23 is_stmt 1
	movq	-408(%rbp), %rdi
Ltmp951:
	callq	__ZN4core4cell13Cell$LT$T$GT$3get17h91f3150f3f68e435E
Ltmp952:
	movq	%rax, -592(%rbp)
	jmp	LBB22_63
LBB22_21:
	.loc	6 916 24
	movq	-400(%rbp), %rdi
	subq	$-128, %rdi
Ltmp953:
	callq	__ZN4core4cell13Cell$LT$T$GT$3get17h91f3150f3f68e435E
Ltmp954:
	movq	%rax, -600(%rbp)
	jmp	LBB22_22
LBB22_22:
	.loc	6 0 24 is_stmt 0
	movq	-600(%rbp), %rsi
	.loc	6 916 24
	movq	%rsi, -168(%rbp)
Ltmp1037:
	.loc	6 917 13 is_stmt 1
	movq	-408(%rbp), %rdi
Ltmp955:
	callq	__ZN4core4cell13Cell$LT$T$GT$3set17hd9caf1a89fe8b476E
Ltmp956:
	jmp	LBB22_23
LBB22_23:
	.loc	6 0 13 is_stmt 0
	movq	-528(%rbp), %rdi
	.loc	6 918 16 is_stmt 1
	addq	$32, %rdi
Ltmp957:
	callq	__ZN4core4cell13Cell$LT$T$GT$3get17h91f3150f3f68e435E
Ltmp958:
	movq	%rax, -608(%rbp)
	jmp	LBB22_24
LBB22_24:
	.loc	6 0 16 is_stmt 0
	movq	-608(%rbp), %rax
	.loc	6 918 16
	cmpq	-400(%rbp), %rax
	je	LBB22_26
LBB22_25:
Ltmp961:
	.loc	6 923 17 is_stmt 1
	leaq	l___unnamed_26(%rip), %rsi
	leaq	-409(%rbp), %rdi
	callq	__ZN81_$LT$parking_lot_core..parking_lot..RequeueOp$u20$as$u20$core..cmp..PartialEq$GT$2eq17heec4d8948541b77fE
Ltmp962:
	movb	%al, -609(%rbp)
	jmp	LBB22_28
LBB22_26:
	.loc	6 0 17 is_stmt 0
	movq	-528(%rbp), %rdi
	.loc	6 919 17 is_stmt 1
	addq	$32, %rdi
	.loc	6 919 44 is_stmt 0
	movq	-392(%rbp), %rsi
Ltmp959:
	.loc	6 919 17
	callq	__ZN4core4cell13Cell$LT$T$GT$3set17hd9caf1a89fe8b476E
Ltmp960:
	jmp	LBB22_27
LBB22_27:
	jmp	LBB22_25
LBB22_28:
	.loc	6 0 17
	movb	-609(%rbp), %al
	.loc	6 923 16 is_stmt 1
	testb	$1, %al
	jne	LBB22_30
	jmp	LBB22_29
LBB22_29:
Ltmp963:
	.loc	6 923 58 is_stmt 0
	leaq	l___unnamed_27(%rip), %rsi
	leaq	-409(%rbp), %rdi
	callq	__ZN81_$LT$parking_lot_core..parking_lot..RequeueOp$u20$as$u20$core..cmp..PartialEq$GT$2eq17heec4d8948541b77fE
Ltmp964:
	movb	%al, -610(%rbp)
	jmp	LBB22_32
LBB22_30:
	.loc	6 923 16
	movb	$1, -345(%rbp)
LBB22_31:
	testb	$1, -345(%rbp)
	jne	LBB22_34
	jmp	LBB22_33
LBB22_32:
	.loc	6 0 16
	movb	-610(%rbp), %al
	.loc	6 923 16
	andb	$1, %al
	movb	%al, -345(%rbp)
	jmp	LBB22_31
LBB22_33:
	movb	$0, -346(%rbp)
	jmp	LBB22_36
LBB22_34:
Ltmp965:
	.loc	6 0 16
	leaq	-368(%rbp), %rdi
	.loc	6 924 20 is_stmt 1
	callq	__ZN4core6option15Option$LT$T$GT$7is_none17h8afeaa5e21af0acaE
Ltmp966:
	movb	%al, -611(%rbp)
	jmp	LBB22_35
LBB22_35:
	.loc	6 0 20 is_stmt 0
	movb	-611(%rbp), %al
	.loc	6 923 16 is_stmt 1
	andb	$1, %al
	movb	%al, -346(%rbp)
LBB22_36:
	testb	$1, -346(%rbp)
	jne	LBB22_38
	.loc	6 929 21
	movq	-384(%rbp), %rdi
Ltmp967:
	callq	__ZN4core3ptr9const_ptr33_$LT$impl$u20$$BP$const$u20$T$GT$7is_null17h4f24a6938c63d2a7E
Ltmp968:
	movb	%al, -612(%rbp)
	jmp	LBB22_40
LBB22_38:
	.loc	6 926 38
	movq	-400(%rbp), %rax
	.loc	6 926 33 is_stmt 0
	movq	%rax, -336(%rbp)
	movq	$1, -344(%rbp)
	.loc	6 926 17
	movq	-344(%rbp), %rcx
	movq	-336(%rbp), %rax
	movq	%rcx, -368(%rbp)
	movq	%rax, -360(%rbp)
	.loc	6 927 17 is_stmt 1
	movq	$1, -440(%rbp)
LBB22_39:
Ltmp975:
	.loc	6 938 16
	leaq	l___unnamed_27(%rip), %rsi
	leaq	-409(%rbp), %rdi
	callq	__ZN81_$LT$parking_lot_core..parking_lot..RequeueOp$u20$as$u20$core..cmp..PartialEq$GT$2eq17heec4d8948541b77fE
Ltmp976:
	movb	%al, -613(%rbp)
	jmp	LBB22_49
LBB22_40:
	.loc	6 0 16 is_stmt 0
	movb	-612(%rbp), %al
	.loc	6 929 20 is_stmt 1
	xorb	$-1, %al
	testb	$1, %al
	jne	LBB22_42
	.loc	6 932 39
	movq	-400(%rbp), %rax
	.loc	6 932 21 is_stmt 0
	movq	%rax, -384(%rbp)
	.loc	6 929 17 is_stmt 1
	jmp	LBB22_44
LBB22_42:
	.loc	6 930 21
	movq	-376(%rbp), %rdi
	subq	$-128, %rdi
	.loc	6 930 63 is_stmt 0
	movq	-400(%rbp), %rsi
Ltmp969:
	.loc	6 930 21
	callq	__ZN4core4cell13Cell$LT$T$GT$3set17hd9caf1a89fe8b476E
Ltmp970:
	jmp	LBB22_43
LBB22_43:
	jmp	LBB22_44
LBB22_44:
	.loc	6 0 21
	movq	-488(%rbp), %rsi
	.loc	6 934 40 is_stmt 1
	movq	-400(%rbp), %rax
	.loc	6 934 17 is_stmt 0
	movq	%rax, -376(%rbp)
	.loc	6 935 17 is_stmt 1
	movq	-400(%rbp), %rdi
	addq	$120, %rdi
	.loc	6 935 46 is_stmt 0
	movb	$0, -322(%rbp)
	.loc	6 935 17
	movzbl	-322(%rbp), %edx
Ltmp971:
	callq	__ZN4core4sync6atomic11AtomicUsize5store17hb128536bfab4c5aaE
Ltmp972:
	jmp	LBB22_45
LBB22_45:
	.loc	6 936 17 is_stmt 1
	movq	-432(%rbp), %rax
	addq	$1, %rax
	movq	%rax, -624(%rbp)
	setb	%al
	testb	$1, %al
	jne	LBB22_47
	.loc	6 0 17 is_stmt 0
	movq	-624(%rbp), %rax
	.loc	6 936 17
	movq	%rax, -432(%rbp)
	.loc	6 923 13 is_stmt 1
	jmp	LBB22_39
LBB22_47:
Ltmp973:
	.loc	6 936 17
	leaq	_str.0(%rip), %rdi
	leaq	l___unnamed_28(%rip), %rdx
	movl	$28, %esi
	callq	__ZN4core9panicking5panic17hc1bc45270cf64b03E
Ltmp974:
	jmp	LBB22_48
LBB22_48:
	.loc	6 0 17 is_stmt 0
	ud2
LBB22_49:
	movb	-613(%rbp), %al
	.loc	6 938 16 is_stmt 1
	testb	$1, %al
	jne	LBB22_51
	jmp	LBB22_50
LBB22_50:
Ltmp977:
	.loc	6 938 46 is_stmt 0
	leaq	l___unnamed_29(%rip), %rsi
	leaq	-409(%rbp), %rdi
	callq	__ZN81_$LT$parking_lot_core..parking_lot..RequeueOp$u20$as$u20$core..cmp..PartialEq$GT$2eq17heec4d8948541b77fE
Ltmp978:
	movb	%al, -625(%rbp)
	jmp	LBB22_53
LBB22_51:
	.loc	6 938 16
	movb	$1, -321(%rbp)
LBB22_52:
	testb	$1, -321(%rbp)
	jne	LBB22_55
	jmp	LBB22_54
LBB22_53:
	.loc	6 0 16
	movb	-625(%rbp), %al
	.loc	6 938 16
	andb	$1, %al
	movb	%al, -321(%rbp)
	jmp	LBB22_52
LBB22_54:
	.loc	6 0 16
	movq	-600(%rbp), %rax
	.loc	6 951 13 is_stmt 1
	movq	%rax, -400(%rbp)
Ltmp1038:
	.loc	6 914 9
	jmp	LBB22_15
LBB22_55:
	.loc	6 0 9 is_stmt 0
	movq	-600(%rbp), %rax
Ltmp1039:
	.loc	6 941 32 is_stmt 1
	movq	%rax, -320(%rbp)
LBB22_56:
Ltmp1040:
	.loc	6 942 24
	movq	-320(%rbp), %rdi
Ltmp979:
	callq	__ZN4core3ptr9const_ptr33_$LT$impl$u20$$BP$const$u20$T$GT$7is_null17h4f24a6938c63d2a7E
Ltmp980:
	movb	%al, -626(%rbp)
	jmp	LBB22_57
LBB22_57:
	.loc	6 0 24 is_stmt 0
	movb	-626(%rbp), %al
	.loc	6 942 23
	xorb	$-1, %al
	testb	$1, %al
	jne	LBB22_58
	jmp	LBB22_17
LBB22_58:
	.loc	6 943 24 is_stmt 1
	movq	-320(%rbp), %rdi
	addq	$120, %rdi
	.loc	6 943 41 is_stmt 0
	movb	$0, -305(%rbp)
	.loc	6 943 24
	movzbl	-305(%rbp), %esi
Ltmp981:
	callq	__ZN4core4sync6atomic11AtomicUsize4load17h9f59030344c744f2E
Ltmp982:
	movq	%rax, -640(%rbp)
	jmp	LBB22_59
LBB22_59:
	.loc	6 0 24
	movq	-640(%rbp), %rax
	movq	-480(%rbp), %rcx
	.loc	6 943 24
	cmpq	%rcx, %rax
	je	LBB22_61
	.loc	6 947 28 is_stmt 1
	movq	-320(%rbp), %rdi
	subq	$-128, %rdi
Ltmp983:
	callq	__ZN4core4cell13Cell$LT$T$GT$3get17h91f3150f3f68e435E
Ltmp984:
	movq	%rax, -648(%rbp)
	jmp	LBB22_62
LBB22_61:
	.loc	6 944 25
	movb	$1, -424(%rbp)
	.loc	10 1 1
	jmp	LBB22_17
LBB22_62:
	.loc	10 0 1 is_stmt 0
	movq	-648(%rbp), %rax
	.loc	6 947 21 is_stmt 1
	movq	%rax, -320(%rbp)
	.loc	6 942 17
	jmp	LBB22_56
Ltmp1041:
LBB22_63:
	.loc	6 0 17 is_stmt 0
	movq	-592(%rbp), %rax
	.loc	6 955 13 is_stmt 1
	movq	%rax, -400(%rbp)
	.loc	6 914 9
	jmp	LBB22_15
LBB22_64:
	.loc	6 0 9 is_stmt 0
	movb	-570(%rbp), %al
	.loc	6 960 8 is_stmt 1
	xorb	$-1, %al
	testb	$1, %al
	jne	LBB22_66
LBB22_65:
	.loc	6 973 8
	cmpq	$0, -440(%rbp)
	je	LBB22_78
	jmp	LBB22_79
LBB22_66:
	.loc	6 961 9
	movq	-376(%rbp), %rax
	addq	$128, %rax
	movq	%rax, -664(%rbp)
Ltmp1042:
	.loc	7 568 14
	movq	$0, -120(%rbp)
	movq	-120(%rbp), %rax
	movq	%rax, -112(%rbp)
Ltmp1043:
	.loc	8 118 36
	movq	%rax, -128(%rbp)
	.loc	8 118 14 is_stmt 0
	movq	-128(%rbp), %rax
	movq	%rax, -136(%rbp)
	movq	-136(%rbp), %rax
	movq	%rax, -656(%rbp)
Ltmp1044:
Ltmp987:
	.loc	8 0 14
	movq	-656(%rbp), %rsi
	movq	-664(%rbp), %rdi
	.loc	6 961 9 is_stmt 1
	callq	__ZN4core4cell13Cell$LT$T$GT$3set17hd9caf1a89fe8b476E
Ltmp988:
	jmp	LBB22_68
LBB22_68:
	.loc	6 0 9 is_stmt 0
	movq	-520(%rbp), %rdi
	.loc	6 962 13 is_stmt 1
	addq	$24, %rdi
Ltmp989:
	callq	__ZN4core4cell13Cell$LT$T$GT$3get17h91f3150f3f68e435E
Ltmp990:
	movq	%rax, -672(%rbp)
	jmp	LBB22_69
LBB22_69:
Ltmp991:
	.loc	6 0 13 is_stmt 0
	movq	-672(%rbp), %rdi
	.loc	6 962 13
	callq	__ZN4core3ptr9const_ptr33_$LT$impl$u20$$BP$const$u20$T$GT$7is_null17h4f24a6938c63d2a7E
Ltmp992:
	movb	%al, -673(%rbp)
	jmp	LBB22_70
LBB22_70:
	.loc	6 0 13
	movb	-673(%rbp), %al
	.loc	6 962 12
	xorb	$-1, %al
	testb	$1, %al
	jne	LBB22_72
	.loc	6 0 12
	movq	-520(%rbp), %rdi
	.loc	6 967 13 is_stmt 1
	addq	$24, %rdi
	.loc	6 967 38 is_stmt 0
	movq	-384(%rbp), %rsi
Ltmp993:
	.loc	6 967 13
	callq	__ZN4core4cell13Cell$LT$T$GT$3set17hd9caf1a89fe8b476E
Ltmp994:
	jmp	LBB22_76
LBB22_72:
	.loc	6 0 13
	movq	-520(%rbp), %rdi
	.loc	6 963 15 is_stmt 1
	addq	$32, %rdi
Ltmp995:
	callq	__ZN4core4cell13Cell$LT$T$GT$3get17h91f3150f3f68e435E
Ltmp996:
	movq	%rax, -688(%rbp)
	jmp	LBB22_73
LBB22_73:
	.loc	6 0 15 is_stmt 0
	movq	-688(%rbp), %rdi
	.loc	6 963 13
	subq	$-128, %rdi
	.loc	6 965 22 is_stmt 1
	movq	-384(%rbp), %rsi
Ltmp997:
	.loc	6 963 13
	callq	__ZN4core4cell13Cell$LT$T$GT$3set17hd9caf1a89fe8b476E
Ltmp998:
	jmp	LBB22_74
LBB22_74:
	jmp	LBB22_75
LBB22_75:
	.loc	6 0 13 is_stmt 0
	movq	-520(%rbp), %rdi
	.loc	6 969 9 is_stmt 1
	addq	$32, %rdi
	.loc	6 969 34 is_stmt 0
	movq	-376(%rbp), %rsi
Ltmp999:
	.loc	6 969 9
	callq	__ZN4core4cell13Cell$LT$T$GT$3set17hd9caf1a89fe8b476E
Ltmp1000:
	jmp	LBB22_77
LBB22_76:
	.loc	6 967 13 is_stmt 1
	jmp	LBB22_75
LBB22_77:
	.loc	6 969 9
	jmp	LBB22_65
LBB22_78:
	.loc	6 0 9 is_stmt 0
	movq	-512(%rbp), %rdi
	.loc	6 976 17 is_stmt 1
	movb	$0, -242(%rbp)
	.loc	6 976 26 is_stmt 0
	movb	-409(%rbp), %al
	.loc	6 976 30
	movq	-424(%rbp), %rcx
	movq	%rcx, -256(%rbp)
	movq	-440(%rbp), %rcx
	movq	-432(%rbp), %rdx
	movq	%rdx, -264(%rbp)
	movq	%rcx, -272(%rbp)
	.loc	6 976 17
	movb	%al, -304(%rbp)
	leaq	-296(%rbp), %rdx
	movq	-256(%rbp), %rax
	movq	%rax, -280(%rbp)
	movq	-272(%rbp), %rax
	movq	-264(%rbp), %rcx
	movq	%rcx, -288(%rbp)
	movq	%rax, -296(%rbp)
	movl	-304(%rbp), %esi
Ltmp1003:
	callq	__ZN4core3ops8function6FnOnce9call_once17hdde3cae1676be224E
Ltmp1004:
	movq	%rax, -696(%rbp)
	jmp	LBB22_82
LBB22_79:
	.loc	6 0 17
	movq	-528(%rbp), %rax
	movq	%rax, -8(%rbp)
Ltmp1001:
	movq	-528(%rbp), %rdi
	.loc	6 974 26 is_stmt 1
	callq	__ZN16parking_lot_core11parking_lot11FairTimeout14should_timeout17h1e5603a903a5a60cE
Ltmp1002:
	movb	%al, -697(%rbp)
	jmp	LBB22_81
LBB22_81:
	.loc	6 0 26 is_stmt 0
	movb	-697(%rbp), %al
	.loc	6 974 9
	andb	$1, %al
	movb	%al, -423(%rbp)
	.loc	6 973 5 is_stmt 1
	jmp	LBB22_78
LBB22_82:
	.loc	6 0 5 is_stmt 0
	movq	-696(%rbp), %rax
	.loc	6 976 17 is_stmt 1
	movq	%rax, -160(%rbp)
Ltmp1045:
	.loc	6 979 12
	cmpq	$1, -368(%rbp)
	jne	LBB22_84
	.loc	6 0 12 is_stmt 0
	movq	-696(%rbp), %rsi
	.loc	6 979 17
	movq	-360(%rbp), %rdi
	movq	%rdi, -712(%rbp)
	movq	%rdi, -152(%rbp)
	.loc	6 980 9 is_stmt 1
	addq	$136, %rdi
Ltmp1007:
	callq	__ZN4core4cell13Cell$LT$T$GT$3set17hb132ece05e8c701fE
Ltmp1008:
	jmp	LBB22_87
Ltmp1046:
LBB22_84:
Ltmp1005:
	.loc	6 0 9 is_stmt 0
	movq	-520(%rbp), %rsi
	movq	-528(%rbp), %rdi
	.loc	6 987 9 is_stmt 1
	callq	__ZN16parking_lot_core11parking_lot18unlock_bucket_pair17h09a1ea2ad93b5806E
Ltmp1006:
	jmp	LBB22_85
LBB22_85:
	jmp	LBB22_86
LBB22_86:
	.loc	6 0 9 is_stmt 0
	movq	-472(%rbp), %rax
	.loc	6 990 5 is_stmt 1
	movq	-440(%rbp), %rcx
	movq	%rcx, (%rax)
	movq	-432(%rbp), %rcx
	movq	%rcx, 8(%rax)
	movq	-424(%rbp), %rcx
	movq	%rcx, 16(%rax)
Ltmp1047:
	.loc	6 991 1
	jmp	LBB22_10
LBB22_87:
Ltmp1009:
	.loc	6 0 1 is_stmt 0
	movq	-712(%rbp), %rdi
Ltmp1048:
	.loc	6 981 22 is_stmt 1
	callq	__ZN117_$LT$parking_lot_core..thread_parker..imp..ThreadParker$u20$as$u20$parking_lot_core..thread_parker..ThreadParkerT$GT$11unpark_lock17he447e1adb5cc7f3bE
Ltmp1010:
	movq	%rax, -720(%rbp)
	jmp	LBB22_88
LBB22_88:
	.loc	6 0 22 is_stmt 0
	movq	-520(%rbp), %rsi
	movq	-528(%rbp), %rdi
	movq	-720(%rbp), %rax
	.loc	6 981 22
	movq	%rax, -144(%rbp)
Ltmp1011:
Ltmp1049:
	.loc	6 983 9 is_stmt 1
	callq	__ZN16parking_lot_core11parking_lot18unlock_bucket_pair17h09a1ea2ad93b5806E
Ltmp1012:
	jmp	LBB22_89
LBB22_89:
Ltmp1013:
	.loc	6 0 9 is_stmt 0
	movq	-720(%rbp), %rdi
	.loc	6 984 9 is_stmt 1
	callq	__ZN117_$LT$parking_lot_core..thread_parker..imp..UnparkHandle$u20$as$u20$parking_lot_core..thread_parker..UnparkHandleT$GT$6unpark17hb14bc6cfd5a3218fE
Ltmp1014:
	jmp	LBB22_90
LBB22_90:
	jmp	LBB22_86
Ltmp1050:
LBB22_91:
	.loc	6 991 1
	testb	$1, -241(%rbp)
	jne	LBB22_94
	jmp	LBB22_93
LBB22_92:
	jmp	LBB22_91
LBB22_93:
	.loc	6 888 1
	movq	-200(%rbp), %rdi
	callq	__Unwind_Resume
LBB22_94:
	.loc	6 991 1
	jmp	LBB22_93
Ltmp1051:
Lfunc_end22:
	.cfi_endproc
	.section	__TEXT,__gcc_except_tab
	.p2align	2
GCC_except_table22:
Lexception8:
	.byte	255
	.byte	255
	.byte	1
	.uleb128 Lcst_end8-Lcst_begin8
Lcst_begin8:
	.uleb128 Ltmp937-Lfunc_begin22
	.uleb128 Ltmp1014-Ltmp937
	.uleb128 Ltmp1017-Lfunc_begin22
	.byte	0
	.uleb128 Ltmp1014-Lfunc_begin22
	.uleb128 Lfunc_end22-Ltmp1014
	.byte	0
	.byte	0
Lcst_end8:
	.p2align	2

	.section	__TEXT,__text,regular,pure_instructions
	.globl	__ZN16parking_lot_core11parking_lot14unpark_requeue17h9b0630b2add0e2f7E
	.p2align	4, 0x90
__ZN16parking_lot_core11parking_lot14unpark_requeue17h9b0630b2add0e2f7E:
Lfunc_begin23:
	.loc	6 888 0
	.cfi_startproc
	.cfi_personality 155, _rust_eh_personality
	.cfi_lsda 16, Lexception9
	pushq	%rbp
	.cfi_def_cfa_offset 16
	.cfi_offset %rbp, -16
	movq	%rsp, %rbp
	.cfi_def_cfa_register %rbp
	subq	$720, %rsp
	movq	%r9, -512(%rbp)
	movq	%r8, -504(%rbp)
	movq	%rcx, -496(%rbp)
	movq	%rdx, -488(%rbp)
	movq	%rsi, %rax
	movq	-488(%rbp), %rsi
	movq	%rax, -480(%rbp)
	movq	%rdi, %rax
	movq	-480(%rbp), %rdi
	movq	%rax, -472(%rbp)
	movq	%rax, -464(%rbp)
	movq	%rdi, -240(%rbp)
	movq	%rsi, -232(%rbp)
	movq	%rcx, -224(%rbp)
	movq	%r8, -216(%rbp)
	movq	%r9, -208(%rbp)
Ltmp1133:
	.loc	6 895 36 prologue_end
	movb	$0, -242(%rbp)
	movb	$0, -241(%rbp)
	movb	$1, -241(%rbp)
	movb	$1, -242(%rbp)
Ltmp1052:
	callq	__ZN16parking_lot_core11parking_lot16lock_bucket_pair17h5e5040b127b768acE
Ltmp1053:
	movq	%rdx, -456(%rbp)
	movq	%rax, -448(%rbp)
	jmp	LBB23_3
LBB23_1:
	.loc	6 991 1
	testb	$1, -242(%rbp)
	jne	LBB23_92
	jmp	LBB23_91
LBB23_2:
Ltmp1132:
	.loc	6 0 1 is_stmt 0
	movq	%rax, %rcx
	movl	%edx, %eax
	movq	%rcx, -200(%rbp)
	movl	%eax, -192(%rbp)
	jmp	LBB23_1
LBB23_3:
	movq	-456(%rbp), %rax
	movq	-448(%rbp), %rcx
	.loc	6 895 36 is_stmt 1
	movq	%rcx, %rdx
	movq	%rdx, -528(%rbp)
	movq	%rax, %rdx
	movq	%rdx, -520(%rbp)
	.loc	6 895 10 is_stmt 0
	movq	%rcx, -184(%rbp)
	.loc	6 895 23
	movq	%rax, -176(%rbp)
Ltmp1054:
	leaq	-440(%rbp), %rdi
Ltmp1134:
	.loc	6 898 22 is_stmt 1
	callq	__ZN86_$LT$parking_lot_core..parking_lot..UnparkResult$u20$as$u20$core..default..Default$GT$7default17hbb16d72f09b92fbaE
Ltmp1055:
	jmp	LBB23_4
LBB23_4:
	.loc	6 0 22 is_stmt 0
	movq	-504(%rbp), %rsi
	movq	-496(%rbp), %rdi
Ltmp1135:
	.loc	6 899 14 is_stmt 1
	movb	$0, -241(%rbp)
Ltmp1056:
	callq	__ZN4core3ops8function6FnOnce9call_once17hb0c2a9d160539971E
Ltmp1057:
	movb	%al, -529(%rbp)
	jmp	LBB23_5
LBB23_5:
	.loc	6 0 14 is_stmt 0
	movb	-529(%rbp), %al
	.loc	6 899 14
	movb	%al, -409(%rbp)
Ltmp1058:
Ltmp1136:
	.loc	6 900 8 is_stmt 1
	leaq	l___unnamed_25(%rip), %rsi
	leaq	-409(%rbp), %rdi
	callq	__ZN81_$LT$parking_lot_core..parking_lot..RequeueOp$u20$as$u20$core..cmp..PartialEq$GT$2eq17heec4d8948541b77fE
Ltmp1059:
	movb	%al, -530(%rbp)
	jmp	LBB23_6
LBB23_6:
	.loc	6 0 8 is_stmt 0
	movb	-530(%rbp), %al
	.loc	6 900 8
	testb	$1, %al
	jne	LBB23_8
	jmp	LBB23_7
LBB23_7:
	.loc	6 0 8
	movq	-528(%rbp), %rdi
	.loc	6 907 20 is_stmt 1
	addq	$24, %rdi
	movq	%rdi, -408(%rbp)
Ltmp1060:
Ltmp1137:
	.loc	6 908 23
	callq	__ZN4core4cell13Cell$LT$T$GT$3get17h91f3150f3f68e435E
Ltmp1061:
	movq	%rax, -544(%rbp)
	jmp	LBB23_11
Ltmp1138:
LBB23_8:
Ltmp1130:
	.loc	6 0 23 is_stmt 0
	movq	-520(%rbp), %rsi
	movq	-528(%rbp), %rdi
	.loc	6 902 9 is_stmt 1
	callq	__ZN16parking_lot_core11parking_lot18unlock_bucket_pair17h09a1ea2ad93b5806E
Ltmp1131:
	jmp	LBB23_9
LBB23_9:
	.loc	6 0 9 is_stmt 0
	movq	-472(%rbp), %rax
	.loc	6 903 16 is_stmt 1
	movq	-440(%rbp), %rcx
	movq	%rcx, (%rax)
	movq	-432(%rbp), %rcx
	movq	%rcx, 8(%rax)
	movq	-424(%rbp), %rcx
	movq	%rcx, 16(%rax)
Ltmp1139:
LBB23_10:
	.loc	6 0 16 is_stmt 0
	movq	-464(%rbp), %rax
	.loc	6 991 2 is_stmt 1
	addq	$720, %rsp
	popq	%rbp
	retq
LBB23_11:
	.loc	6 0 2 is_stmt 0
	movq	-544(%rbp), %rax
Ltmp1140:
	.loc	6 908 23 is_stmt 1
	movq	%rax, -400(%rbp)
Ltmp1141:
	.loc	7 568 14
	movq	$0, -24(%rbp)
	movq	-24(%rbp), %rax
	movq	%rax, -16(%rbp)
Ltmp1142:
	.loc	8 118 36
	movq	%rax, -32(%rbp)
	.loc	8 118 14 is_stmt 0
	movq	-32(%rbp), %rax
	movq	%rax, -40(%rbp)
	movq	-40(%rbp), %rax
	movq	%rax, -552(%rbp)
Ltmp1143:
	.loc	8 0 14
	movq	-552(%rbp), %rax
	.loc	6 909 24 is_stmt 1
	movq	%rax, -392(%rbp)
Ltmp1144:
	.loc	7 568 14
	movq	$0, -56(%rbp)
	movq	-56(%rbp), %rax
	movq	%rax, -48(%rbp)
Ltmp1145:
	.loc	8 118 36
	movq	%rax, -64(%rbp)
	.loc	8 118 14 is_stmt 0
	movq	-64(%rbp), %rax
	movq	%rax, -72(%rbp)
	movq	-72(%rbp), %rax
	movq	%rax, -560(%rbp)
Ltmp1146:
	.loc	8 0 14
	movq	-560(%rbp), %rax
	.loc	6 910 50 is_stmt 1
	movq	%rax, -384(%rbp)
Ltmp1147:
	.loc	7 568 14
	movq	$0, -88(%rbp)
	movq	-88(%rbp), %rax
	movq	%rax, -80(%rbp)
Ltmp1148:
	.loc	8 118 36
	movq	%rax, -96(%rbp)
	.loc	8 118 14 is_stmt 0
	movq	-96(%rbp), %rax
	movq	%rax, -104(%rbp)
	movq	-104(%rbp), %rax
	movq	%rax, -568(%rbp)
Ltmp1149:
	.loc	8 0 14
	movq	-568(%rbp), %rax
	.loc	6 911 55 is_stmt 1
	movq	%rax, -376(%rbp)
Ltmp1150:
	.loc	6 912 29
	movq	$0, -368(%rbp)
LBB23_15:
Ltmp1151:
	.loc	6 913 12
	movq	-400(%rbp), %rdi
Ltmp1062:
	callq	__ZN4core3ptr9const_ptr33_$LT$impl$u20$$BP$const$u20$T$GT$7is_null17h4f24a6938c63d2a7E
Ltmp1063:
	movb	%al, -569(%rbp)
	jmp	LBB23_16
LBB23_16:
	.loc	6 0 12 is_stmt 0
	movb	-569(%rbp), %al
	.loc	6 913 11
	xorb	$-1, %al
	testb	$1, %al
	jne	LBB23_18
LBB23_17:
	.loc	6 960 9 is_stmt 1
	movq	-384(%rbp), %rdi
Ltmp1100:
	callq	__ZN4core3ptr9const_ptr33_$LT$impl$u20$$BP$const$u20$T$GT$7is_null17h4f24a6938c63d2a7E
Ltmp1101:
	movb	%al, -570(%rbp)
	jmp	LBB23_64
LBB23_18:
	.loc	6 914 12
	movq	-400(%rbp), %rdi
	addq	$120, %rdi
	.loc	6 914 32 is_stmt 0
	movb	$0, -347(%rbp)
	.loc	6 914 12
	movzbl	-347(%rbp), %esi
Ltmp1064:
	callq	__ZN4core4sync6atomic11AtomicUsize4load17h9f59030344c744f2E
Ltmp1065:
	movq	%rax, -584(%rbp)
	jmp	LBB23_19
LBB23_19:
	.loc	6 0 12
	movq	-584(%rbp), %rax
	movq	-480(%rbp), %rcx
	.loc	6 914 12
	cmpq	%rcx, %rax
	je	LBB23_21
	.loc	6 953 20 is_stmt 1
	movq	-400(%rbp), %rax
	subq	$-128, %rax
	.loc	6 953 13 is_stmt 0
	movq	%rax, -408(%rbp)
	.loc	6 954 24 is_stmt 1
	movq	-400(%rbp), %rax
	.loc	6 954 13 is_stmt 0
	movq	%rax, -392(%rbp)
	.loc	6 955 23 is_stmt 1
	movq	-408(%rbp), %rdi
Ltmp1066:
	callq	__ZN4core4cell13Cell$LT$T$GT$3get17h91f3150f3f68e435E
Ltmp1067:
	movq	%rax, -592(%rbp)
	jmp	LBB23_63
LBB23_21:
	.loc	6 916 24
	movq	-400(%rbp), %rdi
	subq	$-128, %rdi
Ltmp1068:
	callq	__ZN4core4cell13Cell$LT$T$GT$3get17h91f3150f3f68e435E
Ltmp1069:
	movq	%rax, -600(%rbp)
	jmp	LBB23_22
LBB23_22:
	.loc	6 0 24 is_stmt 0
	movq	-600(%rbp), %rsi
	.loc	6 916 24
	movq	%rsi, -168(%rbp)
Ltmp1152:
	.loc	6 917 13 is_stmt 1
	movq	-408(%rbp), %rdi
Ltmp1070:
	callq	__ZN4core4cell13Cell$LT$T$GT$3set17hd9caf1a89fe8b476E
Ltmp1071:
	jmp	LBB23_23
LBB23_23:
	.loc	6 0 13 is_stmt 0
	movq	-528(%rbp), %rdi
	.loc	6 918 16 is_stmt 1
	addq	$32, %rdi
Ltmp1072:
	callq	__ZN4core4cell13Cell$LT$T$GT$3get17h91f3150f3f68e435E
Ltmp1073:
	movq	%rax, -608(%rbp)
	jmp	LBB23_24
LBB23_24:
	.loc	6 0 16 is_stmt 0
	movq	-608(%rbp), %rax
	.loc	6 918 16
	cmpq	-400(%rbp), %rax
	je	LBB23_26
LBB23_25:
Ltmp1076:
	.loc	6 923 17 is_stmt 1
	leaq	l___unnamed_26(%rip), %rsi
	leaq	-409(%rbp), %rdi
	callq	__ZN81_$LT$parking_lot_core..parking_lot..RequeueOp$u20$as$u20$core..cmp..PartialEq$GT$2eq17heec4d8948541b77fE
Ltmp1077:
	movb	%al, -609(%rbp)
	jmp	LBB23_28
LBB23_26:
	.loc	6 0 17 is_stmt 0
	movq	-528(%rbp), %rdi
	.loc	6 919 17 is_stmt 1
	addq	$32, %rdi
	.loc	6 919 44 is_stmt 0
	movq	-392(%rbp), %rsi
Ltmp1074:
	.loc	6 919 17
	callq	__ZN4core4cell13Cell$LT$T$GT$3set17hd9caf1a89fe8b476E
Ltmp1075:
	jmp	LBB23_27
LBB23_27:
	jmp	LBB23_25
LBB23_28:
	.loc	6 0 17
	movb	-609(%rbp), %al
	.loc	6 923 16 is_stmt 1
	testb	$1, %al
	jne	LBB23_30
	jmp	LBB23_29
LBB23_29:
Ltmp1078:
	.loc	6 923 58 is_stmt 0
	leaq	l___unnamed_27(%rip), %rsi
	leaq	-409(%rbp), %rdi
	callq	__ZN81_$LT$parking_lot_core..parking_lot..RequeueOp$u20$as$u20$core..cmp..PartialEq$GT$2eq17heec4d8948541b77fE
Ltmp1079:
	movb	%al, -610(%rbp)
	jmp	LBB23_32
LBB23_30:
	.loc	6 923 16
	movb	$1, -345(%rbp)
LBB23_31:
	testb	$1, -345(%rbp)
	jne	LBB23_34
	jmp	LBB23_33
LBB23_32:
	.loc	6 0 16
	movb	-610(%rbp), %al
	.loc	6 923 16
	andb	$1, %al
	movb	%al, -345(%rbp)
	jmp	LBB23_31
LBB23_33:
	movb	$0, -346(%rbp)
	jmp	LBB23_36
LBB23_34:
Ltmp1080:
	.loc	6 0 16
	leaq	-368(%rbp), %rdi
	.loc	6 924 20 is_stmt 1
	callq	__ZN4core6option15Option$LT$T$GT$7is_none17h8afeaa5e21af0acaE
Ltmp1081:
	movb	%al, -611(%rbp)
	jmp	LBB23_35
LBB23_35:
	.loc	6 0 20 is_stmt 0
	movb	-611(%rbp), %al
	.loc	6 923 16 is_stmt 1
	andb	$1, %al
	movb	%al, -346(%rbp)
LBB23_36:
	testb	$1, -346(%rbp)
	jne	LBB23_38
	.loc	6 929 21
	movq	-384(%rbp), %rdi
Ltmp1082:
	callq	__ZN4core3ptr9const_ptr33_$LT$impl$u20$$BP$const$u20$T$GT$7is_null17h4f24a6938c63d2a7E
Ltmp1083:
	movb	%al, -612(%rbp)
	jmp	LBB23_40
LBB23_38:
	.loc	6 926 38
	movq	-400(%rbp), %rax
	.loc	6 926 33 is_stmt 0
	movq	%rax, -336(%rbp)
	movq	$1, -344(%rbp)
	.loc	6 926 17
	movq	-344(%rbp), %rcx
	movq	-336(%rbp), %rax
	movq	%rcx, -368(%rbp)
	movq	%rax, -360(%rbp)
	.loc	6 927 17 is_stmt 1
	movq	$1, -440(%rbp)
LBB23_39:
Ltmp1090:
	.loc	6 938 16
	leaq	l___unnamed_27(%rip), %rsi
	leaq	-409(%rbp), %rdi
	callq	__ZN81_$LT$parking_lot_core..parking_lot..RequeueOp$u20$as$u20$core..cmp..PartialEq$GT$2eq17heec4d8948541b77fE
Ltmp1091:
	movb	%al, -613(%rbp)
	jmp	LBB23_49
LBB23_40:
	.loc	6 0 16 is_stmt 0
	movb	-612(%rbp), %al
	.loc	6 929 20 is_stmt 1
	xorb	$-1, %al
	testb	$1, %al
	jne	LBB23_42
	.loc	6 932 39
	movq	-400(%rbp), %rax
	.loc	6 932 21 is_stmt 0
	movq	%rax, -384(%rbp)
	.loc	6 929 17 is_stmt 1
	jmp	LBB23_44
LBB23_42:
	.loc	6 930 21
	movq	-376(%rbp), %rdi
	subq	$-128, %rdi
	.loc	6 930 63 is_stmt 0
	movq	-400(%rbp), %rsi
Ltmp1084:
	.loc	6 930 21
	callq	__ZN4core4cell13Cell$LT$T$GT$3set17hd9caf1a89fe8b476E
Ltmp1085:
	jmp	LBB23_43
LBB23_43:
	jmp	LBB23_44
LBB23_44:
	.loc	6 0 21
	movq	-488(%rbp), %rsi
	.loc	6 934 40 is_stmt 1
	movq	-400(%rbp), %rax
	.loc	6 934 17 is_stmt 0
	movq	%rax, -376(%rbp)
	.loc	6 935 17 is_stmt 1
	movq	-400(%rbp), %rdi
	addq	$120, %rdi
	.loc	6 935 46 is_stmt 0
	movb	$0, -322(%rbp)
	.loc	6 935 17
	movzbl	-322(%rbp), %edx
Ltmp1086:
	callq	__ZN4core4sync6atomic11AtomicUsize5store17hb128536bfab4c5aaE
Ltmp1087:
	jmp	LBB23_45
LBB23_45:
	.loc	6 936 17 is_stmt 1
	movq	-432(%rbp), %rax
	addq	$1, %rax
	movq	%rax, -624(%rbp)
	setb	%al
	testb	$1, %al
	jne	LBB23_47
	.loc	6 0 17 is_stmt 0
	movq	-624(%rbp), %rax
	.loc	6 936 17
	movq	%rax, -432(%rbp)
	.loc	6 923 13 is_stmt 1
	jmp	LBB23_39
LBB23_47:
Ltmp1088:
	.loc	6 936 17
	leaq	_str.0(%rip), %rdi
	leaq	l___unnamed_28(%rip), %rdx
	movl	$28, %esi
	callq	__ZN4core9panicking5panic17hc1bc45270cf64b03E
Ltmp1089:
	jmp	LBB23_48
LBB23_48:
	.loc	6 0 17 is_stmt 0
	ud2
LBB23_49:
	movb	-613(%rbp), %al
	.loc	6 938 16 is_stmt 1
	testb	$1, %al
	jne	LBB23_51
	jmp	LBB23_50
LBB23_50:
Ltmp1092:
	.loc	6 938 46 is_stmt 0
	leaq	l___unnamed_29(%rip), %rsi
	leaq	-409(%rbp), %rdi
	callq	__ZN81_$LT$parking_lot_core..parking_lot..RequeueOp$u20$as$u20$core..cmp..PartialEq$GT$2eq17heec4d8948541b77fE
Ltmp1093:
	movb	%al, -625(%rbp)
	jmp	LBB23_53
LBB23_51:
	.loc	6 938 16
	movb	$1, -321(%rbp)
LBB23_52:
	testb	$1, -321(%rbp)
	jne	LBB23_55
	jmp	LBB23_54
LBB23_53:
	.loc	6 0 16
	movb	-625(%rbp), %al
	.loc	6 938 16
	andb	$1, %al
	movb	%al, -321(%rbp)
	jmp	LBB23_52
LBB23_54:
	.loc	6 0 16
	movq	-600(%rbp), %rax
	.loc	6 951 13 is_stmt 1
	movq	%rax, -400(%rbp)
Ltmp1153:
	.loc	6 914 9
	jmp	LBB23_15
LBB23_55:
	.loc	6 0 9 is_stmt 0
	movq	-600(%rbp), %rax
Ltmp1154:
	.loc	6 941 32 is_stmt 1
	movq	%rax, -320(%rbp)
LBB23_56:
Ltmp1155:
	.loc	6 942 24
	movq	-320(%rbp), %rdi
Ltmp1094:
	callq	__ZN4core3ptr9const_ptr33_$LT$impl$u20$$BP$const$u20$T$GT$7is_null17h4f24a6938c63d2a7E
Ltmp1095:
	movb	%al, -626(%rbp)
	jmp	LBB23_57
LBB23_57:
	.loc	6 0 24 is_stmt 0
	movb	-626(%rbp), %al
	.loc	6 942 23
	xorb	$-1, %al
	testb	$1, %al
	jne	LBB23_58
	jmp	LBB23_17
LBB23_58:
	.loc	6 943 24 is_stmt 1
	movq	-320(%rbp), %rdi
	addq	$120, %rdi
	.loc	6 943 41 is_stmt 0
	movb	$0, -305(%rbp)
	.loc	6 943 24
	movzbl	-305(%rbp), %esi
Ltmp1096:
	callq	__ZN4core4sync6atomic11AtomicUsize4load17h9f59030344c744f2E
Ltmp1097:
	movq	%rax, -640(%rbp)
	jmp	LBB23_59
LBB23_59:
	.loc	6 0 24
	movq	-640(%rbp), %rax
	movq	-480(%rbp), %rcx
	.loc	6 943 24
	cmpq	%rcx, %rax
	je	LBB23_61
	.loc	6 947 28 is_stmt 1
	movq	-320(%rbp), %rdi
	subq	$-128, %rdi
Ltmp1098:
	callq	__ZN4core4cell13Cell$LT$T$GT$3get17h91f3150f3f68e435E
Ltmp1099:
	movq	%rax, -648(%rbp)
	jmp	LBB23_62
LBB23_61:
	.loc	6 944 25
	movb	$1, -424(%rbp)
	.loc	10 1 1
	jmp	LBB23_17
LBB23_62:
	.loc	10 0 1 is_stmt 0
	movq	-648(%rbp), %rax
	.loc	6 947 21 is_stmt 1
	movq	%rax, -320(%rbp)
	.loc	6 942 17
	jmp	LBB23_56
Ltmp1156:
LBB23_63:
	.loc	6 0 17 is_stmt 0
	movq	-592(%rbp), %rax
	.loc	6 955 13 is_stmt 1
	movq	%rax, -400(%rbp)
	.loc	6 914 9
	jmp	LBB23_15
LBB23_64:
	.loc	6 0 9 is_stmt 0
	movb	-570(%rbp), %al
	.loc	6 960 8 is_stmt 1
	xorb	$-1, %al
	testb	$1, %al
	jne	LBB23_66
LBB23_65:
	.loc	6 973 8
	cmpq	$0, -440(%rbp)
	je	LBB23_78
	jmp	LBB23_79
LBB23_66:
	.loc	6 961 9
	movq	-376(%rbp), %rax
	addq	$128, %rax
	movq	%rax, -664(%rbp)
Ltmp1157:
	.loc	7 568 14
	movq	$0, -120(%rbp)
	movq	-120(%rbp), %rax
	movq	%rax, -112(%rbp)
Ltmp1158:
	.loc	8 118 36
	movq	%rax, -128(%rbp)
	.loc	8 118 14 is_stmt 0
	movq	-128(%rbp), %rax
	movq	%rax, -136(%rbp)
	movq	-136(%rbp), %rax
	movq	%rax, -656(%rbp)
Ltmp1159:
Ltmp1102:
	.loc	8 0 14
	movq	-656(%rbp), %rsi
	movq	-664(%rbp), %rdi
	.loc	6 961 9 is_stmt 1
	callq	__ZN4core4cell13Cell$LT$T$GT$3set17hd9caf1a89fe8b476E
Ltmp1103:
	jmp	LBB23_68
LBB23_68:
	.loc	6 0 9 is_stmt 0
	movq	-520(%rbp), %rdi
	.loc	6 962 13 is_stmt 1
	addq	$24, %rdi
Ltmp1104:
	callq	__ZN4core4cell13Cell$LT$T$GT$3get17h91f3150f3f68e435E
Ltmp1105:
	movq	%rax, -672(%rbp)
	jmp	LBB23_69
LBB23_69:
Ltmp1106:
	.loc	6 0 13 is_stmt 0
	movq	-672(%rbp), %rdi
	.loc	6 962 13
	callq	__ZN4core3ptr9const_ptr33_$LT$impl$u20$$BP$const$u20$T$GT$7is_null17h4f24a6938c63d2a7E
Ltmp1107:
	movb	%al, -673(%rbp)
	jmp	LBB23_70
LBB23_70:
	.loc	6 0 13
	movb	-673(%rbp), %al
	.loc	6 962 12
	xorb	$-1, %al
	testb	$1, %al
	jne	LBB23_72
	.loc	6 0 12
	movq	-520(%rbp), %rdi
	.loc	6 967 13 is_stmt 1
	addq	$24, %rdi
	.loc	6 967 38 is_stmt 0
	movq	-384(%rbp), %rsi
Ltmp1108:
	.loc	6 967 13
	callq	__ZN4core4cell13Cell$LT$T$GT$3set17hd9caf1a89fe8b476E
Ltmp1109:
	jmp	LBB23_76
LBB23_72:
	.loc	6 0 13
	movq	-520(%rbp), %rdi
	.loc	6 963 15 is_stmt 1
	addq	$32, %rdi
Ltmp1110:
	callq	__ZN4core4cell13Cell$LT$T$GT$3get17h91f3150f3f68e435E
Ltmp1111:
	movq	%rax, -688(%rbp)
	jmp	LBB23_73
LBB23_73:
	.loc	6 0 15 is_stmt 0
	movq	-688(%rbp), %rdi
	.loc	6 963 13
	subq	$-128, %rdi
	.loc	6 965 22 is_stmt 1
	movq	-384(%rbp), %rsi
Ltmp1112:
	.loc	6 963 13
	callq	__ZN4core4cell13Cell$LT$T$GT$3set17hd9caf1a89fe8b476E
Ltmp1113:
	jmp	LBB23_74
LBB23_74:
	jmp	LBB23_75
LBB23_75:
	.loc	6 0 13 is_stmt 0
	movq	-520(%rbp), %rdi
	.loc	6 969 9 is_stmt 1
	addq	$32, %rdi
	.loc	6 969 34 is_stmt 0
	movq	-376(%rbp), %rsi
Ltmp1114:
	.loc	6 969 9
	callq	__ZN4core4cell13Cell$LT$T$GT$3set17hd9caf1a89fe8b476E
Ltmp1115:
	jmp	LBB23_77
LBB23_76:
	.loc	6 967 13 is_stmt 1
	jmp	LBB23_75
LBB23_77:
	.loc	6 969 9
	jmp	LBB23_65
LBB23_78:
	.loc	6 0 9 is_stmt 0
	movq	-512(%rbp), %rdi
	.loc	6 976 17 is_stmt 1
	movb	$0, -242(%rbp)
	.loc	6 976 26 is_stmt 0
	movb	-409(%rbp), %al
	.loc	6 976 30
	movq	-424(%rbp), %rcx
	movq	%rcx, -256(%rbp)
	movq	-440(%rbp), %rcx
	movq	-432(%rbp), %rdx
	movq	%rdx, -264(%rbp)
	movq	%rcx, -272(%rbp)
	.loc	6 976 17
	movb	%al, -304(%rbp)
	leaq	-296(%rbp), %rdx
	movq	-256(%rbp), %rax
	movq	%rax, -280(%rbp)
	movq	-272(%rbp), %rax
	movq	-264(%rbp), %rcx
	movq	%rcx, -288(%rbp)
	movq	%rax, -296(%rbp)
	movl	-304(%rbp), %esi
Ltmp1118:
	callq	__ZN4core3ops8function6FnOnce9call_once17hd6a0ad30183cb3aaE
Ltmp1119:
	movq	%rax, -696(%rbp)
	jmp	LBB23_82
LBB23_79:
	.loc	6 0 17
	movq	-528(%rbp), %rax
	movq	%rax, -8(%rbp)
Ltmp1116:
	movq	-528(%rbp), %rdi
	.loc	6 974 26 is_stmt 1
	callq	__ZN16parking_lot_core11parking_lot11FairTimeout14should_timeout17h1e5603a903a5a60cE
Ltmp1117:
	movb	%al, -697(%rbp)
	jmp	LBB23_81
LBB23_81:
	.loc	6 0 26 is_stmt 0
	movb	-697(%rbp), %al
	.loc	6 974 9
	andb	$1, %al
	movb	%al, -423(%rbp)
	.loc	6 973 5 is_stmt 1
	jmp	LBB23_78
LBB23_82:
	.loc	6 0 5 is_stmt 0
	movq	-696(%rbp), %rax
	.loc	6 976 17 is_stmt 1
	movq	%rax, -160(%rbp)
Ltmp1160:
	.loc	6 979 12
	cmpq	$1, -368(%rbp)
	jne	LBB23_84
	.loc	6 0 12 is_stmt 0
	movq	-696(%rbp), %rsi
	.loc	6 979 17
	movq	-360(%rbp), %rdi
	movq	%rdi, -712(%rbp)
	movq	%rdi, -152(%rbp)
	.loc	6 980 9 is_stmt 1
	addq	$136, %rdi
Ltmp1122:
	callq	__ZN4core4cell13Cell$LT$T$GT$3set17hb132ece05e8c701fE
Ltmp1123:
	jmp	LBB23_87
Ltmp1161:
LBB23_84:
Ltmp1120:
	.loc	6 0 9 is_stmt 0
	movq	-520(%rbp), %rsi
	movq	-528(%rbp), %rdi
	.loc	6 987 9 is_stmt 1
	callq	__ZN16parking_lot_core11parking_lot18unlock_bucket_pair17h09a1ea2ad93b5806E
Ltmp1121:
	jmp	LBB23_85
LBB23_85:
	jmp	LBB23_86
LBB23_86:
	.loc	6 0 9 is_stmt 0
	movq	-472(%rbp), %rax
	.loc	6 990 5 is_stmt 1
	movq	-440(%rbp), %rcx
	movq	%rcx, (%rax)
	movq	-432(%rbp), %rcx
	movq	%rcx, 8(%rax)
	movq	-424(%rbp), %rcx
	movq	%rcx, 16(%rax)
Ltmp1162:
	.loc	6 991 1
	jmp	LBB23_10
LBB23_87:
Ltmp1124:
	.loc	6 0 1 is_stmt 0
	movq	-712(%rbp), %rdi
Ltmp1163:
	.loc	6 981 22 is_stmt 1
	callq	__ZN117_$LT$parking_lot_core..thread_parker..imp..ThreadParker$u20$as$u20$parking_lot_core..thread_parker..ThreadParkerT$GT$11unpark_lock17he447e1adb5cc7f3bE
Ltmp1125:
	movq	%rax, -720(%rbp)
	jmp	LBB23_88
LBB23_88:
	.loc	6 0 22 is_stmt 0
	movq	-520(%rbp), %rsi
	movq	-528(%rbp), %rdi
	movq	-720(%rbp), %rax
	.loc	6 981 22
	movq	%rax, -144(%rbp)
Ltmp1126:
Ltmp1164:
	.loc	6 983 9 is_stmt 1
	callq	__ZN16parking_lot_core11parking_lot18unlock_bucket_pair17h09a1ea2ad93b5806E
Ltmp1127:
	jmp	LBB23_89
LBB23_89:
Ltmp1128:
	.loc	6 0 9 is_stmt 0
	movq	-720(%rbp), %rdi
	.loc	6 984 9 is_stmt 1
	callq	__ZN117_$LT$parking_lot_core..thread_parker..imp..UnparkHandle$u20$as$u20$parking_lot_core..thread_parker..UnparkHandleT$GT$6unpark17hb14bc6cfd5a3218fE
Ltmp1129:
	jmp	LBB23_90
LBB23_90:
	jmp	LBB23_86
Ltmp1165:
LBB23_91:
	.loc	6 991 1
	testb	$1, -241(%rbp)
	jne	LBB23_94
	jmp	LBB23_93
LBB23_92:
	jmp	LBB23_91
LBB23_93:
	.loc	6 888 1
	movq	-200(%rbp), %rdi
	callq	__Unwind_Resume
LBB23_94:
	.loc	6 991 1
	jmp	LBB23_93
Ltmp1166:
Lfunc_end23:
	.cfi_endproc
	.section	__TEXT,__gcc_except_tab
	.p2align	2
GCC_except_table23:
Lexception9:
	.byte	255
	.byte	255
	.byte	1
	.uleb128 Lcst_end9-Lcst_begin9
Lcst_begin9:
	.uleb128 Ltmp1052-Lfunc_begin23
	.uleb128 Ltmp1129-Ltmp1052
	.uleb128 Ltmp1132-Lfunc_begin23
	.byte	0
	.uleb128 Ltmp1129-Lfunc_begin23
	.uleb128 Lfunc_end23-Ltmp1129
	.byte	0
	.byte	0
Lcst_end9:
	.p2align	2

	.section	__TEXT,__text,regular,pure_instructions
	.p2align	4, 0x90
__ZN16parking_lot_core11parking_lot16lock_bucket_pair17h5e5040b127b768acE:
Lfunc_begin24:
	.loc	6 416 0
	.cfi_startproc
	pushq	%rbp
	.cfi_def_cfa_offset 16
	.cfi_offset %rbp, -16
	movq	%rsp, %rbp
	.cfi_def_cfa_register %rbp
	subq	$176, %rsp
	movq	%rdi, -104(%rbp)
	movq	%rsi, -96(%rbp)
	movq	%rdi, -56(%rbp)
	movq	%rsi, -48(%rbp)
LBB24_1:
Ltmp1167:
	.loc	6 418 25 prologue_end
	callq	__ZN16parking_lot_core11parking_lot13get_hashtable17h590c04283eddbb68E
	movq	-104(%rbp), %rdi
	movq	%rax, -128(%rbp)
	movq	%rax, -40(%rbp)
Ltmp1168:
	.loc	6 420 32
	movl	24(%rax), %esi
	.loc	6 420 21 is_stmt 0
	callq	__ZN16parking_lot_core11parking_lot4hash17h27ec87ece7cb0105E
	movq	-96(%rbp), %rdi
	movq	%rax, %rcx
	movq	-128(%rbp), %rax
	movq	%rcx, -120(%rbp)
	movq	%rcx, -32(%rbp)
Ltmp1169:
	.loc	6 421 32 is_stmt 1
	movl	24(%rax), %esi
	.loc	6 421 21 is_stmt 0
	callq	__ZN16parking_lot_core11parking_lot4hash17h27ec87ece7cb0105E
	movq	%rax, %rcx
	movq	-120(%rbp), %rax
	movq	%rcx, -112(%rbp)
	movq	%rcx, -24(%rbp)
Ltmp1170:
	.loc	6 424 26 is_stmt 1
	cmpq	%rcx, %rax
	jbe	LBB24_3
	.loc	6 0 26 is_stmt 0
	movq	-112(%rbp), %rax
	movq	-128(%rbp), %rcx
	.loc	6 427 14 is_stmt 1
	movq	8(%rcx), %rcx
	movq	%rcx, -136(%rbp)
	cmpq	%rcx, %rax
	setb	%al
	testb	$1, %al
	jne	LBB24_7
	jmp	LBB24_8
LBB24_3:
	.loc	6 0 14 is_stmt 0
	movq	-120(%rbp), %rax
	movq	-128(%rbp), %rcx
	.loc	6 425 14 is_stmt 1
	movq	8(%rcx), %rcx
	movq	%rcx, -144(%rbp)
	cmpq	%rcx, %rax
	setb	%al
	testb	$1, %al
	jne	LBB24_4
	jmp	LBB24_5
LBB24_4:
	.loc	6 0 14 is_stmt 0
	movq	-128(%rbp), %rcx
	movq	-120(%rbp), %rax
	.loc	6 425 13
	shlq	$6, %rax
	addq	(%rcx), %rax
	movq	%rax, -72(%rbp)
	.loc	6 424 23 is_stmt 1
	jmp	LBB24_6
LBB24_5:
	.loc	6 0 23 is_stmt 0
	movq	-144(%rbp), %rsi
	movq	-120(%rbp), %rdi
	.loc	6 425 14 is_stmt 1
	leaq	l___unnamed_30(%rip), %rdx
	callq	__ZN4core9panicking18panic_bounds_check17hacb8a94866cda541E
LBB24_6:
Ltmp1171:
	.loc	6 431 9
	movq	-72(%rbp), %rdi
	addq	$16, %rdi
	callq	__ZN16parking_lot_core9word_lock8WordLock4lock17h6da5af21e8d9a399E
	.loc	6 435 27
	movb	$0, -57(%rbp)
	.loc	6 435 12 is_stmt 0
	movq	__ZN16parking_lot_core11parking_lot9HASHTABLE17h0901050c19a5fa90E@GOTPCREL(%rip), %rdi
	movzbl	-57(%rbp), %esi
	callq	__ZN4core4sync6atomic18AtomicPtr$LT$T$GT$4load17h2ddad4f475d10571E
	movq	-128(%rbp), %rcx
	cmpq	%rcx, %rax
	je	LBB24_10
	jmp	LBB24_9
Ltmp1172:
LBB24_7:
	.loc	6 0 12
	movq	-128(%rbp), %rcx
	movq	-112(%rbp), %rax
	.loc	6 427 13 is_stmt 1
	shlq	$6, %rax
	addq	(%rcx), %rax
	movq	%rax, -72(%rbp)
	.loc	6 424 23
	jmp	LBB24_6
LBB24_8:
	.loc	6 0 23 is_stmt 0
	movq	-136(%rbp), %rsi
	movq	-112(%rbp), %rdi
	.loc	6 427 14 is_stmt 1
	leaq	l___unnamed_31(%rip), %rdx
	callq	__ZN4core9panicking18panic_bounds_check17hacb8a94866cda541E
LBB24_9:
Ltmp1173:
	.loc	6 452 18
	movq	-72(%rbp), %rdi
	addq	$16, %rdi
	callq	__ZN16parking_lot_core9word_lock8WordLock6unlock17hcabffee10591cf5aE
	jmp	LBB24_1
LBB24_10:
	.loc	6 0 18 is_stmt 0
	movq	-120(%rbp), %rax
	movq	-112(%rbp), %rcx
	.loc	6 437 16 is_stmt 1
	cmpq	%rcx, %rax
	je	LBB24_12
	.loc	6 0 16 is_stmt 0
	movq	-120(%rbp), %rax
	movq	-112(%rbp), %rcx
	.loc	6 439 23 is_stmt 1
	cmpq	%rcx, %rax
	jb	LBB24_15
	jmp	LBB24_14
LBB24_12:
	.loc	6 438 25
	movq	-72(%rbp), %rcx
	.loc	6 438 34 is_stmt 0
	movq	-72(%rbp), %rax
	.loc	6 438 24
	movq	%rcx, -88(%rbp)
	movq	%rax, -80(%rbp)
Ltmp1174:
LBB24_13:
	.loc	6 454 2 is_stmt 1
	movq	-88(%rbp), %rax
	movq	-80(%rbp), %rdx
	addq	$176, %rsp
	popq	%rbp
	retq
LBB24_14:
	.loc	6 0 2 is_stmt 0
	movq	-120(%rbp), %rax
	movq	-128(%rbp), %rcx
Ltmp1175:
	.loc	6 444 32 is_stmt 1
	movq	8(%rcx), %rcx
	movq	%rcx, -152(%rbp)
	cmpq	%rcx, %rax
	setb	%al
	testb	$1, %al
	jne	LBB24_18
	jmp	LBB24_19
LBB24_15:
	.loc	6 0 32 is_stmt 0
	movq	-112(%rbp), %rax
	movq	-128(%rbp), %rcx
	.loc	6 440 32 is_stmt 1
	movq	8(%rcx), %rcx
	movq	%rcx, -160(%rbp)
	cmpq	%rcx, %rax
	setb	%al
	testb	$1, %al
	jne	LBB24_16
	jmp	LBB24_17
LBB24_16:
	.loc	6 0 32 is_stmt 0
	movq	-128(%rbp), %rax
	movq	-112(%rbp), %rdi
	.loc	6 440 31
	shlq	$6, %rdi
	addq	(%rax), %rdi
	movq	%rdi, -168(%rbp)
	movq	%rdi, -16(%rbp)
Ltmp1176:
	.loc	6 441 17 is_stmt 1
	addq	$16, %rdi
	callq	__ZN16parking_lot_core9word_lock8WordLock4lock17h6da5af21e8d9a399E
	movq	-168(%rbp), %rax
	.loc	6 442 25
	movq	-72(%rbp), %rcx
	.loc	6 442 24 is_stmt 0
	movq	%rcx, -88(%rbp)
	movq	%rax, -80(%rbp)
Ltmp1177:
	.loc	10 1 1 is_stmt 1
	jmp	LBB24_13
LBB24_17:
	.loc	10 0 1 is_stmt 0
	movq	-160(%rbp), %rsi
	movq	-112(%rbp), %rdi
	.loc	6 440 32 is_stmt 1
	leaq	l___unnamed_32(%rip), %rdx
	callq	__ZN4core9panicking18panic_bounds_check17hacb8a94866cda541E
LBB24_18:
	.loc	6 0 32 is_stmt 0
	movq	-128(%rbp), %rax
	movq	-120(%rbp), %rdi
	.loc	6 444 31 is_stmt 1
	shlq	$6, %rdi
	addq	(%rax), %rdi
	movq	%rdi, -176(%rbp)
	movq	%rdi, -8(%rbp)
Ltmp1178:
	.loc	6 445 17
	addq	$16, %rdi
	callq	__ZN16parking_lot_core9word_lock8WordLock4lock17h6da5af21e8d9a399E
	movq	-176(%rbp), %rcx
	.loc	6 446 34
	movq	-72(%rbp), %rax
	.loc	6 446 24 is_stmt 0
	movq	%rcx, -88(%rbp)
	movq	%rax, -80(%rbp)
Ltmp1179:
	.loc	10 1 1 is_stmt 1
	jmp	LBB24_13
LBB24_19:
	.loc	10 0 1 is_stmt 0
	movq	-152(%rbp), %rsi
	movq	-120(%rbp), %rdi
	.loc	6 444 32 is_stmt 1
	leaq	l___unnamed_33(%rip), %rdx
	callq	__ZN4core9panicking18panic_bounds_check17hacb8a94866cda541E
Ltmp1180:
Lfunc_end24:
	.cfi_endproc

	.p2align	4, 0x90
__ZN16parking_lot_core11parking_lot16with_thread_data11THREAD_DATA7__getit17ha13b67c5ed778481E:
Lfunc_begin25:
	.loc	1 319 0
	.cfi_startproc
	pushq	%rbp
	.cfi_def_cfa_offset 16
	.cfi_offset %rbp, -16
	movq	%rsp, %rbp
	.cfi_def_cfa_register %rbp
	subq	$16, %rsp
	movq	%rdi, -8(%rbp)
Ltmp1181:
	.loc	1 346 31 prologue_end
	movq	%rdi, -16(%rbp)
	.loc	1 346 21 is_stmt 0
	movq	-16(%rbp), %rsi
	movq	__ZN16parking_lot_core11parking_lot16with_thread_data11THREAD_DATA7__getit5__KEY17h791a5aaf1a70d458E@TLVP(%rip), %rdi
	callq	*(%rdi)
	movq	%rax, %rdi
	callq	__ZN3std6thread5local4fast12Key$LT$T$GT$3get17hd4065848483ae124E
	.loc	1 357 14 is_stmt 1
	addq	$16, %rsp
	popq	%rbp
	retq
Ltmp1182:
Lfunc_end25:
	.cfi_endproc

	.globl	__ZN16parking_lot_core11parking_lot16with_thread_data28_$u7b$$u7b$closure$u7d$$u7d$17h123b625fe12f2afeE
	.p2align	4, 0x90
__ZN16parking_lot_core11parking_lot16with_thread_data28_$u7b$$u7b$closure$u7d$$u7d$17h123b625fe12f2afeE:
Lfunc_begin26:
	.loc	6 204 0
	.cfi_startproc
	pushq	%rbp
	.cfi_def_cfa_offset 16
	.cfi_offset %rbp, -16
	movq	%rsp, %rbp
	.cfi_def_cfa_register %rbp
	subq	$16, %rsp
	movq	%rdi, %rax
	movq	%rax, -8(%rbp)
Ltmp1183:
	.loc	6 204 45 prologue_end
	addq	$16, %rsp
	popq	%rbp
	retq
Ltmp1184:
Lfunc_end26:
	.cfi_endproc

	.globl	__ZN16parking_lot_core11parking_lot16with_thread_data28_$u7b$$u7b$closure$u7d$$u7d$17h5c7df2915163a56bE
	.p2align	4, 0x90
__ZN16parking_lot_core11parking_lot16with_thread_data28_$u7b$$u7b$closure$u7d$$u7d$17h5c7df2915163a56bE:
Lfunc_begin27:
	.loc	6 204 0
	.cfi_startproc
	pushq	%rbp
	.cfi_def_cfa_offset 16
	.cfi_offset %rbp, -16
	movq	%rsp, %rbp
	.cfi_def_cfa_register %rbp
	subq	$16, %rsp
	movq	%rdi, %rax
	movq	%rax, -8(%rbp)
Ltmp1185:
	.loc	6 204 45 prologue_end
	addq	$16, %rsp
	popq	%rbp
	retq
Ltmp1186:
Lfunc_end27:
	.cfi_endproc

	.globl	__ZN16parking_lot_core11parking_lot16with_thread_data28_$u7b$$u7b$closure$u7d$$u7d$17h602fe491d68b83eeE
	.p2align	4, 0x90
__ZN16parking_lot_core11parking_lot16with_thread_data28_$u7b$$u7b$closure$u7d$$u7d$17h602fe491d68b83eeE:
Lfunc_begin28:
	.loc	6 205 0
	.cfi_startproc
	pushq	%rbp
	.cfi_def_cfa_offset 16
	.cfi_offset %rbp, -16
	movq	%rsp, %rbp
	.cfi_def_cfa_register %rbp
	subq	$16, %rsp
	movq	%rdi, -16(%rbp)
Ltmp1187:
	.loc	6 205 29 prologue_end
	movq	-16(%rbp), %rdi
	callq	__ZN4core6option15Option$LT$T$GT$18get_or_insert_with17h3c5596522a3d799dE
	.loc	6 205 84 is_stmt 0
	addq	$16, %rsp
	popq	%rbp
	retq
Ltmp1188:
Lfunc_end28:
	.cfi_endproc

	.globl	__ZN16parking_lot_core11parking_lot16with_thread_data28_$u7b$$u7b$closure$u7d$$u7d$17h6a804fb4001822d3E
	.p2align	4, 0x90
__ZN16parking_lot_core11parking_lot16with_thread_data28_$u7b$$u7b$closure$u7d$$u7d$17h6a804fb4001822d3E:
Lfunc_begin29:
	.loc	6 204 0 is_stmt 1
	.cfi_startproc
	pushq	%rbp
	.cfi_def_cfa_offset 16
	.cfi_offset %rbp, -16
	movq	%rsp, %rbp
	.cfi_def_cfa_register %rbp
	subq	$16, %rsp
	movq	%rdi, %rax
	movq	%rax, -8(%rbp)
Ltmp1189:
	.loc	6 204 45 prologue_end
	addq	$16, %rsp
	popq	%rbp
	retq
Ltmp1190:
Lfunc_end29:
	.cfi_endproc

	.globl	__ZN16parking_lot_core11parking_lot16with_thread_data28_$u7b$$u7b$closure$u7d$$u7d$17h8ec2072e3a27528cE
	.p2align	4, 0x90
__ZN16parking_lot_core11parking_lot16with_thread_data28_$u7b$$u7b$closure$u7d$$u7d$17h8ec2072e3a27528cE:
Lfunc_begin30:
	.loc	6 205 0
	.cfi_startproc
	pushq	%rbp
	.cfi_def_cfa_offset 16
	.cfi_offset %rbp, -16
	movq	%rsp, %rbp
	.cfi_def_cfa_register %rbp
	subq	$16, %rsp
	movq	%rdi, -16(%rbp)
Ltmp1191:
	.loc	6 205 29 prologue_end
	movq	-16(%rbp), %rdi
	callq	__ZN4core6option15Option$LT$T$GT$18get_or_insert_with17h3c5596522a3d799dE
	.loc	6 205 84 is_stmt 0
	addq	$16, %rsp
	popq	%rbp
	retq
Ltmp1192:
Lfunc_end30:
	.cfi_endproc

	.globl	__ZN16parking_lot_core11parking_lot16with_thread_data28_$u7b$$u7b$closure$u7d$$u7d$17h8f0bc19d54e4d8a1E
	.p2align	4, 0x90
__ZN16parking_lot_core11parking_lot16with_thread_data28_$u7b$$u7b$closure$u7d$$u7d$17h8f0bc19d54e4d8a1E:
Lfunc_begin31:
	.loc	6 204 0 is_stmt 1
	.cfi_startproc
	pushq	%rbp
	.cfi_def_cfa_offset 16
	.cfi_offset %rbp, -16
	movq	%rsp, %rbp
	.cfi_def_cfa_register %rbp
	subq	$16, %rsp
	movq	%rdi, %rax
	movq	%rax, -8(%rbp)
Ltmp1193:
	.loc	6 204 45 prologue_end
	addq	$16, %rsp
	popq	%rbp
	retq
Ltmp1194:
Lfunc_end31:
	.cfi_endproc

	.globl	__ZN16parking_lot_core11parking_lot16with_thread_data28_$u7b$$u7b$closure$u7d$$u7d$17h9e695e9f9ea43339E
	.p2align	4, 0x90
__ZN16parking_lot_core11parking_lot16with_thread_data28_$u7b$$u7b$closure$u7d$$u7d$17h9e695e9f9ea43339E:
Lfunc_begin32:
	.loc	6 204 0
	.cfi_startproc
	pushq	%rbp
	.cfi_def_cfa_offset 16
	.cfi_offset %rbp, -16
	movq	%rsp, %rbp
	.cfi_def_cfa_register %rbp
	subq	$16, %rsp
	movq	%rdi, %rax
	movq	%rax, -8(%rbp)
Ltmp1195:
	.loc	6 204 45 prologue_end
	addq	$16, %rsp
	popq	%rbp
	retq
Ltmp1196:
Lfunc_end32:
	.cfi_endproc

	.globl	__ZN16parking_lot_core11parking_lot16with_thread_data28_$u7b$$u7b$closure$u7d$$u7d$17ha79da97b7dfcc3c0E
	.p2align	4, 0x90
__ZN16parking_lot_core11parking_lot16with_thread_data28_$u7b$$u7b$closure$u7d$$u7d$17ha79da97b7dfcc3c0E:
Lfunc_begin33:
	.loc	6 205 0
	.cfi_startproc
	pushq	%rbp
	.cfi_def_cfa_offset 16
	.cfi_offset %rbp, -16
	movq	%rsp, %rbp
	.cfi_def_cfa_register %rbp
	subq	$16, %rsp
	movq	%rdi, -16(%rbp)
Ltmp1197:
	.loc	6 205 29 prologue_end
	movq	-16(%rbp), %rdi
	callq	__ZN4core6option15Option$LT$T$GT$18get_or_insert_with17h3c5596522a3d799dE
	.loc	6 205 84 is_stmt 0
	addq	$16, %rsp
	popq	%rbp
	retq
Ltmp1198:
Lfunc_end33:
	.cfi_endproc

	.globl	__ZN16parking_lot_core11parking_lot16with_thread_data28_$u7b$$u7b$closure$u7d$$u7d$17had336cd8498d4e3dE
	.p2align	4, 0x90
__ZN16parking_lot_core11parking_lot16with_thread_data28_$u7b$$u7b$closure$u7d$$u7d$17had336cd8498d4e3dE:
Lfunc_begin34:
	.loc	6 205 0 is_stmt 1
	.cfi_startproc
	pushq	%rbp
	.cfi_def_cfa_offset 16
	.cfi_offset %rbp, -16
	movq	%rsp, %rbp
	.cfi_def_cfa_register %rbp
	subq	$16, %rsp
	movq	%rdi, -16(%rbp)
Ltmp1199:
	.loc	6 205 29 prologue_end
	movq	-16(%rbp), %rdi
	callq	__ZN4core6option15Option$LT$T$GT$18get_or_insert_with17h3c5596522a3d799dE
	.loc	6 205 84 is_stmt 0
	addq	$16, %rsp
	popq	%rbp
	retq
Ltmp1200:
Lfunc_end34:
	.cfi_endproc

	.globl	__ZN16parking_lot_core11parking_lot16with_thread_data28_$u7b$$u7b$closure$u7d$$u7d$17haeb2eb58d326649bE
	.p2align	4, 0x90
__ZN16parking_lot_core11parking_lot16with_thread_data28_$u7b$$u7b$closure$u7d$$u7d$17haeb2eb58d326649bE:
Lfunc_begin35:
	.loc	6 205 0 is_stmt 1
	.cfi_startproc
	pushq	%rbp
	.cfi_def_cfa_offset 16
	.cfi_offset %rbp, -16
	movq	%rsp, %rbp
	.cfi_def_cfa_register %rbp
	subq	$16, %rsp
	movq	%rdi, -16(%rbp)
Ltmp1201:
	.loc	6 205 29 prologue_end
	movq	-16(%rbp), %rdi
	callq	__ZN4core6option15Option$LT$T$GT$18get_or_insert_with17h3c5596522a3d799dE
	.loc	6 205 84 is_stmt 0
	addq	$16, %rsp
	popq	%rbp
	retq
Ltmp1202:
Lfunc_end35:
	.cfi_endproc

	.globl	__ZN16parking_lot_core11parking_lot16with_thread_data28_$u7b$$u7b$closure$u7d$$u7d$17hd9bf973f33d7ddf2E
	.p2align	4, 0x90
__ZN16parking_lot_core11parking_lot16with_thread_data28_$u7b$$u7b$closure$u7d$$u7d$17hd9bf973f33d7ddf2E:
Lfunc_begin36:
	.loc	6 204 0 is_stmt 1
	.cfi_startproc
	pushq	%rbp
	.cfi_def_cfa_offset 16
	.cfi_offset %rbp, -16
	movq	%rsp, %rbp
	.cfi_def_cfa_register %rbp
	subq	$16, %rsp
	movq	%rdi, %rax
	movq	%rax, -8(%rbp)
Ltmp1203:
	.loc	6 204 45 prologue_end
	addq	$16, %rsp
	popq	%rbp
	retq
Ltmp1204:
Lfunc_end36:
	.cfi_endproc

	.globl	__ZN16parking_lot_core11parking_lot16with_thread_data28_$u7b$$u7b$closure$u7d$$u7d$17hdaa2027afc3bd502E
	.p2align	4, 0x90
__ZN16parking_lot_core11parking_lot16with_thread_data28_$u7b$$u7b$closure$u7d$$u7d$17hdaa2027afc3bd502E:
Lfunc_begin37:
	.loc	6 205 0
	.cfi_startproc
	pushq	%rbp
	.cfi_def_cfa_offset 16
	.cfi_offset %rbp, -16
	movq	%rsp, %rbp
	.cfi_def_cfa_register %rbp
	subq	$16, %rsp
	movq	%rdi, -16(%rbp)
Ltmp1205:
	.loc	6 205 29 prologue_end
	movq	-16(%rbp), %rdi
	callq	__ZN4core6option15Option$LT$T$GT$18get_or_insert_with17h3c5596522a3d799dE
	.loc	6 205 84 is_stmt 0
	addq	$16, %rsp
	popq	%rbp
	retq
Ltmp1206:
Lfunc_end37:
	.cfi_endproc

	.globl	__ZN16parking_lot_core11parking_lot16with_thread_data28_$u7b$$u7b$closure$u7d$$u7d$17hdee5f2a68f1aa2d5E
	.p2align	4, 0x90
__ZN16parking_lot_core11parking_lot16with_thread_data28_$u7b$$u7b$closure$u7d$$u7d$17hdee5f2a68f1aa2d5E:
Lfunc_begin38:
	.loc	6 205 0 is_stmt 1
	.cfi_startproc
	pushq	%rbp
	.cfi_def_cfa_offset 16
	.cfi_offset %rbp, -16
	movq	%rsp, %rbp
	.cfi_def_cfa_register %rbp
	subq	$16, %rsp
	movq	%rdi, -16(%rbp)
Ltmp1207:
	.loc	6 205 29 prologue_end
	movq	-16(%rbp), %rdi
	callq	__ZN4core6option15Option$LT$T$GT$18get_or_insert_with17h3c5596522a3d799dE
	.loc	6 205 84 is_stmt 0
	addq	$16, %rsp
	popq	%rbp
	retq
Ltmp1208:
Lfunc_end38:
	.cfi_endproc

	.globl	__ZN16parking_lot_core11parking_lot16with_thread_data28_$u7b$$u7b$closure$u7d$$u7d$17hed6d6476bb11a3efE
	.p2align	4, 0x90
__ZN16parking_lot_core11parking_lot16with_thread_data28_$u7b$$u7b$closure$u7d$$u7d$17hed6d6476bb11a3efE:
Lfunc_begin39:
	.loc	6 204 0 is_stmt 1
	.cfi_startproc
	pushq	%rbp
	.cfi_def_cfa_offset 16
	.cfi_offset %rbp, -16
	movq	%rsp, %rbp
	.cfi_def_cfa_register %rbp
	subq	$16, %rsp
	movq	%rdi, %rax
	movq	%rax, -8(%rbp)
Ltmp1209:
	.loc	6 204 45 prologue_end
	addq	$16, %rsp
	popq	%rbp
	retq
Ltmp1210:
Lfunc_end39:
	.cfi_endproc

	.p2align	4, 0x90
__ZN16parking_lot_core11parking_lot18unlock_bucket_pair17h09a1ea2ad93b5806E:
Lfunc_begin40:
	.loc	6 462 0
	.cfi_startproc
	pushq	%rbp
	.cfi_def_cfa_offset 16
	.cfi_offset %rbp, -16
	movq	%rsp, %rbp
	.cfi_def_cfa_register %rbp
	subq	$48, %rsp
	movq	%rdi, -40(%rbp)
	movq	%rsi, -48(%rbp)
	movq	%rdi, -32(%rbp)
	movq	%rsi, -24(%rbp)
Ltmp1211:
	.loc	6 463 5 prologue_end
	addq	$16, %rdi
	callq	__ZN16parking_lot_core9word_lock8WordLock6unlock17hcabffee10591cf5aE
	movq	-48(%rbp), %rsi
	movq	-40(%rbp), %rdi
	movq	%rdi, -16(%rbp)
	movq	%rsi, -8(%rbp)
Ltmp1212:
	.loc	7 1828 5
	cmpq	%rsi, %rdi
	sete	%al
Ltmp1213:
	.loc	6 464 8
	xorb	$-1, %al
	testb	$1, %al
	jne	LBB40_2
LBB40_1:
	.loc	6 467 2
	addq	$48, %rsp
	popq	%rbp
	retq
LBB40_2:
	.loc	6 0 2 is_stmt 0
	movq	-48(%rbp), %rdi
	.loc	6 465 9 is_stmt 1
	addq	$16, %rdi
	callq	__ZN16parking_lot_core9word_lock8WordLock6unlock17hcabffee10591cf5aE
	jmp	LBB40_1
Ltmp1214:
Lfunc_end40:
	.cfi_endproc

	.p2align	4, 0x90
__ZN16parking_lot_core11parking_lot19lock_bucket_checked17h08182d2afda6f172E:
Lfunc_begin41:
	.loc	6 384 0
	.cfi_startproc
	pushq	%rbp
	.cfi_def_cfa_offset 16
	.cfi_offset %rbp, -16
	movq	%rsp, %rbp
	.cfi_def_cfa_register %rbp
	subq	$112, %rsp
	movq	%rdi, -72(%rbp)
	movq	%rdi, -40(%rbp)
LBB41_1:
Ltmp1215:
	.loc	6 386 25 prologue_end
	callq	__ZN16parking_lot_core11parking_lot13get_hashtable17h590c04283eddbb68E
	movq	-72(%rbp), %rdi
	movq	%rax, -96(%rbp)
	movq	%rax, -32(%rbp)
Ltmp1216:
	.loc	6 387 36
	movb	$0, -44(%rbp)
	.loc	6 387 27 is_stmt 0
	movzbl	-44(%rbp), %esi
	callq	__ZN4core4sync6atomic11AtomicUsize4load17h9f59030344c744f2E
	movq	%rax, %rdi
	movq	-96(%rbp), %rax
	movq	%rdi, -104(%rbp)
	movq	%rdi, -24(%rbp)
Ltmp1217:
	.loc	6 389 38 is_stmt 1
	movl	24(%rax), %esi
	.loc	6 389 20 is_stmt 0
	callq	__ZN16parking_lot_core11parking_lot4hash17h27ec87ece7cb0105E
	movq	-96(%rbp), %rcx
	movq	%rax, -88(%rbp)
	movq	%rax, -16(%rbp)
Ltmp1218:
	.loc	6 390 23 is_stmt 1
	movq	8(%rcx), %rcx
	movq	%rcx, -80(%rbp)
	cmpq	%rcx, %rax
	setb	%al
	testb	$1, %al
	jne	LBB41_2
	jmp	LBB41_3
LBB41_2:
	.loc	6 0 23 is_stmt 0
	movq	-96(%rbp), %rax
	movq	-88(%rbp), %rdi
	.loc	6 390 22
	shlq	$6, %rdi
	addq	(%rax), %rdi
	movq	%rdi, -112(%rbp)
	movq	%rdi, -8(%rbp)
Ltmp1219:
	.loc	6 393 9 is_stmt 1
	addq	$16, %rdi
	callq	__ZN16parking_lot_core9word_lock8WordLock4lock17h6da5af21e8d9a399E
	.loc	6 398 27
	movb	$0, -42(%rbp)
	.loc	6 398 12 is_stmt 0
	movq	__ZN16parking_lot_core11parking_lot9HASHTABLE17h0901050c19a5fa90E@GOTPCREL(%rip), %rdi
	movzbl	-42(%rbp), %esi
	callq	__ZN4core4sync6atomic18AtomicPtr$LT$T$GT$4load17h2ddad4f475d10571E
	movq	-96(%rbp), %rcx
	cmpq	%rcx, %rax
	je	LBB41_5
	jmp	LBB41_4
Ltmp1220:
LBB41_3:
	.loc	6 0 12
	movq	-80(%rbp), %rsi
	movq	-88(%rbp), %rdi
	.loc	6 390 23 is_stmt 1
	leaq	l___unnamed_34(%rip), %rdx
	callq	__ZN4core9panicking18panic_bounds_check17hacb8a94866cda541E
LBB41_4:
Ltmp1221:
	.loc	6 398 12
	movb	$0, -43(%rbp)
	jmp	LBB41_6
LBB41_5:
	.loc	6 0 12 is_stmt 0
	movq	-72(%rbp), %rdi
	.loc	6 399 25 is_stmt 1
	movb	$0, -41(%rbp)
	.loc	6 399 16 is_stmt 0
	movzbl	-41(%rbp), %esi
	callq	__ZN4core4sync6atomic11AtomicUsize4load17h9f59030344c744f2E
	movq	-104(%rbp), %rcx
	cmpq	%rcx, %rax
	sete	%al
	.loc	6 398 12 is_stmt 1
	andb	$1, %al
	movb	%al, -43(%rbp)
LBB41_6:
	testb	$1, -43(%rbp)
	jne	LBB41_8
	.loc	6 0 12 is_stmt 0
	movq	-112(%rbp), %rdi
	.loc	6 406 18 is_stmt 1
	addq	$16, %rdi
	callq	__ZN16parking_lot_core9word_lock8WordLock6unlock17hcabffee10591cf5aE
	jmp	LBB41_1
LBB41_8:
	.loc	6 0 18 is_stmt 0
	movq	-112(%rbp), %rax
	movq	-104(%rbp), %rcx
	.loc	6 401 20 is_stmt 1
	movq	%rcx, -64(%rbp)
	movq	%rax, -56(%rbp)
Ltmp1222:
	.loc	6 408 2
	movq	-64(%rbp), %rax
	movq	-56(%rbp), %rdx
	addq	$112, %rsp
	popq	%rbp
	retq
Ltmp1223:
Lfunc_end41:
	.cfi_endproc

	.p2align	4, 0x90
__ZN16parking_lot_core11parking_lot4hash17h27ec87ece7cb0105E:
Lfunc_begin42:
	.loc	6 351 0
	.cfi_startproc
	pushq	%rbp
	.cfi_def_cfa_offset 16
	.cfi_offset %rbp, -16
	movq	%rsp, %rbp
	.cfi_def_cfa_register %rbp
	subq	$64, %rsp
	movq	%rdi, -32(%rbp)
	movl	%esi, -20(%rbp)
	movq	%rdi, -16(%rbp)
	movabsq	$-7046029254386353131, %rax
	movq	%rax, -8(%rbp)
Ltmp1224:
	.file	11 "/rustc/2c8cc343237b8f7d5a3c3703e3a87f2eb2c54a74/library/core/src/num" "uint_macros.rs"
	.loc	11 1226 13 prologue_end
	movabsq	$-7046029254386353131, %rax
	imulq	%rax, %rdi
	movq	%rdi, -48(%rbp)
Ltmp1225:
	.loc	6 352 45
	movl	$64, %eax
	subl	%esi, %eax
	movl	%eax, -36(%rbp)
	movl	$64, %eax
	cmpl	%esi, %eax
	setb	%al
	testb	$1, %al
	jne	LBB42_2
	.loc	6 0 45 is_stmt 0
	movq	-48(%rbp), %rdx
	movl	-36(%rbp), %ecx
	.loc	6 352 5
	movl	%ecx, %eax
	andl	$-64, %eax
	cmpl	$0, %eax
	setne	%al
	movl	%ecx, %ecx
	andq	$63, %rcx
	shrq	%cl, %rdx
	movq	%rdx, -56(%rbp)
	testb	$1, %al
	jne	LBB42_4
	jmp	LBB42_3
LBB42_2:
	.loc	6 352 45
	leaq	_str.1(%rip), %rdi
	leaq	l___unnamed_35(%rip), %rdx
	movl	$33, %esi
	callq	__ZN4core9panicking5panic17hc1bc45270cf64b03E
LBB42_3:
	.loc	6 0 45
	movq	-56(%rbp), %rax
	.loc	6 353 2 is_stmt 1
	addq	$64, %rsp
	popq	%rbp
	retq
LBB42_4:
	.loc	6 352 5
	leaq	_str.2(%rip), %rdi
	leaq	l___unnamed_36(%rip), %rdx
	movl	$36, %esi
	callq	__ZN4core9panicking5panic17hc1bc45270cf64b03E
Ltmp1226:
Lfunc_end42:
	.cfi_endproc

	.globl	__ZN16parking_lot_core11parking_lot4park17h0b421bcd0a9af345E
	.p2align	4, 0x90
__ZN16parking_lot_core11parking_lot4park17h0b421bcd0a9af345E:
Lfunc_begin43:
	.loc	6 591 0
	.cfi_startproc
	.cfi_personality 155, _rust_eh_personality
	.cfi_lsda 16, Lexception10
	pushq	%rbp
	.cfi_def_cfa_offset 16
	.cfi_offset %rbp, -16
	movq	%rsp, %rbp
	.cfi_def_cfa_register %rbp
	subq	$416, %rsp
	movq	16(%rbp), %rax
	movq	%rdi, -376(%rbp)
	movq	%r8, -368(%rbp)
	movq	%r9, -360(%rbp)
	movq	%rax, -352(%rbp)
	movq	%rsi, -296(%rbp)
	movq	%rdx, -288(%rbp)
	movq	%rcx, -272(%rbp)
	leaq	-376(%rbp), %rax
Ltmp1240:
	.loc	6 600 22 prologue_end
	movq	%rax, -328(%rbp)
	movq	%rsi, -344(%rbp)
	movq	%rdx, -336(%rbp)
	leaq	-360(%rbp), %rax
	movq	%rax, -320(%rbp)
	leaq	-368(%rbp), %rax
	movq	%rax, -312(%rbp)
	movq	%rcx, -304(%rbp)
Ltmp1241:
	.loc	6 201 9
	movb	$0, -25(%rbp)
	movb	$1, -25(%rbp)
	.loc	6 201 35 is_stmt 0
	movq	$0, -264(%rbp)
Ltmp1227:
Ltmp1242:
	.loc	6 203 27 is_stmt 1
	leaq	l___unnamed_37(%rip), %rdi
	callq	__ZN3std6thread5local17LocalKey$LT$T$GT$8try_with17h29c479f1b80f5fc8E
Ltmp1228:
	movq	%rdx, -392(%rbp)
	movq	%rax, -384(%rbp)
	jmp	LBB43_2
Ltmp1243:
LBB43_1:
Ltmp1233:
	.loc	6 0 27 is_stmt 0
	movq	%rax, %rcx
	movl	%edx, %eax
	movq	%rcx, -24(%rbp)
	movl	%eax, -16(%rbp)
Ltmp1234:
	leaq	-264(%rbp), %rdi
	.loc	6 208 1 is_stmt 1
	callq	__ZN4core3ptr90drop_in_place$LT$core..option..Option$LT$parking_lot_core..parking_lot..ThreadData$GT$$GT$17h90c3f74d9fad5bd6E
Ltmp1235:
	jmp	LBB43_6
LBB43_2:
	.loc	6 0 1 is_stmt 0
	movq	-392(%rbp), %rsi
	movq	-384(%rbp), %rdi
	leaq	-264(%rbp), %rax
Ltmp1244:
	.loc	6 205 25 is_stmt 1
	movq	%rax, -96(%rbp)
	.loc	6 203 27
	movq	-96(%rbp), %rdx
Ltmp1229:
	callq	__ZN4core6result19Result$LT$T$C$E$GT$14unwrap_or_else17hb75dfe869ffab18eE
Ltmp1230:
	movq	%rax, -400(%rbp)
	jmp	LBB43_3
LBB43_3:
	.loc	6 0 27 is_stmt 0
	movq	-400(%rbp), %rax
	.loc	6 203 27
	movq	%rax, -8(%rbp)
Ltmp1245:
	.loc	6 207 5 is_stmt 1
	movb	$0, -25(%rbp)
	movq	-304(%rbp), %rcx
	movq	%rcx, -48(%rbp)
	movq	-312(%rbp), %rcx
	movq	%rcx, -56(%rbp)
	movq	-320(%rbp), %rcx
	movq	%rcx, -64(%rbp)
	movq	-328(%rbp), %rcx
	movq	%rcx, -72(%rbp)
	movq	-344(%rbp), %rcx
	movq	-336(%rbp), %rdx
	movq	%rdx, -80(%rbp)
	movq	%rcx, -88(%rbp)
	movq	%rax, -40(%rbp)
	movq	-40(%rbp), %rsi
Ltmp1231:
	leaq	-88(%rbp), %rdi
	callq	__ZN16parking_lot_core11parking_lot4park28_$u7b$$u7b$closure$u7d$$u7d$17h5b43cf4f4aa75f3dE
Ltmp1232:
	movq	%rdx, -416(%rbp)
	movq	%rax, -408(%rbp)
	jmp	LBB43_4
Ltmp1246:
LBB43_4:
Ltmp1237:
	.loc	6 0 5 is_stmt 0
	leaq	-264(%rbp), %rdi
	.loc	6 208 1 is_stmt 1
	callq	__ZN4core3ptr90drop_in_place$LT$core..option..Option$LT$parking_lot_core..parking_lot..ThreadData$GT$$GT$17h90c3f74d9fad5bd6E
Ltmp1238:
	jmp	LBB43_10
LBB43_5:
Ltmp1236:
	.loc	6 197 1
	callq	__ZN4core9panicking19panic_cannot_unwind17h1fbca7e1d7f56ae1E
LBB43_6:
	.loc	6 208 1
	testb	$1, -25(%rbp)
	jne	LBB43_9
	jmp	LBB43_8
LBB43_7:
Ltmp1239:
	.loc	6 0 1 is_stmt 0
	movq	%rax, %rcx
	movl	%edx, %eax
	movq	%rcx, -24(%rbp)
	movl	%eax, -16(%rbp)
	jmp	LBB43_6
LBB43_8:
	.loc	6 197 1 is_stmt 1
	movq	-24(%rbp), %rdi
	callq	__Unwind_Resume
LBB43_9:
	.loc	6 208 1
	jmp	LBB43_8
Ltmp1247:
LBB43_10:
	.loc	6 0 1 is_stmt 0
	movq	-416(%rbp), %rdx
	movq	-408(%rbp), %rax
	.loc	6 706 2 is_stmt 1
	addq	$416, %rsp
	popq	%rbp
	retq
Ltmp1248:
Lfunc_end43:
	.cfi_endproc
	.section	__TEXT,__gcc_except_tab
	.p2align	2
GCC_except_table43:
Lexception10:
	.byte	255
	.byte	255
	.byte	1
	.uleb128 Lcst_end10-Lcst_begin10
Lcst_begin10:
	.uleb128 Ltmp1227-Lfunc_begin43
	.uleb128 Ltmp1228-Ltmp1227
	.uleb128 Ltmp1233-Lfunc_begin43
	.byte	0
	.uleb128 Ltmp1234-Lfunc_begin43
	.uleb128 Ltmp1235-Ltmp1234
	.uleb128 Ltmp1236-Lfunc_begin43
	.byte	0
	.uleb128 Ltmp1229-Lfunc_begin43
	.uleb128 Ltmp1232-Ltmp1229
	.uleb128 Ltmp1233-Lfunc_begin43
	.byte	0
	.uleb128 Ltmp1237-Lfunc_begin43
	.uleb128 Ltmp1238-Ltmp1237
	.uleb128 Ltmp1239-Lfunc_begin43
	.byte	0
	.uleb128 Ltmp1238-Lfunc_begin43
	.uleb128 Lfunc_end43-Ltmp1238
	.byte	0
	.byte	0
Lcst_end10:
	.p2align	2

	.section	__TEXT,__text,regular,pure_instructions
	.globl	__ZN16parking_lot_core11parking_lot4park17h0f1975ace1b53e54E
	.p2align	4, 0x90
__ZN16parking_lot_core11parking_lot4park17h0f1975ace1b53e54E:
Lfunc_begin44:
	.loc	6 591 0
	.cfi_startproc
	.cfi_personality 155, _rust_eh_personality
	.cfi_lsda 16, Lexception11
	pushq	%rbp
	.cfi_def_cfa_offset 16
	.cfi_offset %rbp, -16
	movq	%rsp, %rbp
	.cfi_def_cfa_register %rbp
	subq	$464, %rsp
	movq	16(%rbp), %rax
	movq	%rdi, -416(%rbp)
	movq	%r8, -408(%rbp)
	movq	%r9, -400(%rbp)
	movq	%rax, -392(%rbp)
	movq	%rdx, -304(%rbp)
	leaq	-416(%rbp), %rax
Ltmp1262:
	.loc	6 600 22 prologue_end
	movq	%rax, -384(%rbp)
	movq	16(%rsi), %rax
	movq	%rax, -360(%rbp)
	movq	(%rsi), %rax
	movq	8(%rsi), %rsi
Ltmp1263:
	movq	%rsi, -368(%rbp)
	movq	%rax, -376(%rbp)
	leaq	-400(%rbp), %rax
	movq	%rax, -352(%rbp)
	leaq	-408(%rbp), %rax
	movq	%rax, -344(%rbp)
	movq	%rdx, -336(%rbp)
	movq	16(%rcx), %rax
	movq	%rax, -312(%rbp)
	movq	(%rcx), %rax
	movq	8(%rcx), %rcx
Ltmp1264:
	movq	%rcx, -320(%rbp)
	movq	%rax, -328(%rbp)
Ltmp1265:
	.loc	6 201 9
	movb	$0, -25(%rbp)
	movb	$1, -25(%rbp)
	.loc	6 201 35 is_stmt 0
	movq	$0, -296(%rbp)
Ltmp1249:
Ltmp1266:
	.loc	6 203 27 is_stmt 1
	leaq	l___unnamed_37(%rip), %rdi
	callq	__ZN3std6thread5local17LocalKey$LT$T$GT$8try_with17h9acc489fd51d445aE
Ltmp1250:
	movq	%rdx, -432(%rbp)
	movq	%rax, -424(%rbp)
	jmp	LBB44_2
Ltmp1267:
LBB44_1:
Ltmp1255:
	.loc	6 0 27 is_stmt 0
	movq	%rax, %rcx
	movl	%edx, %eax
	movq	%rcx, -24(%rbp)
	movl	%eax, -16(%rbp)
Ltmp1256:
	leaq	-296(%rbp), %rdi
	.loc	6 208 1 is_stmt 1
	callq	__ZN4core3ptr90drop_in_place$LT$core..option..Option$LT$parking_lot_core..parking_lot..ThreadData$GT$$GT$17h90c3f74d9fad5bd6E
Ltmp1257:
	jmp	LBB44_6
Ltmp1268:
LBB44_2:
	.loc	6 0 1 is_stmt 0
	movq	-432(%rbp), %rsi
	movq	-424(%rbp), %rdi
	leaq	-296(%rbp), %rax
Ltmp1269:
	.loc	6 205 25 is_stmt 1
	movq	%rax, -128(%rbp)
	.loc	6 203 27
	movq	-128(%rbp), %rdx
Ltmp1251:
	callq	__ZN4core6result19Result$LT$T$C$E$GT$14unwrap_or_else17h97764fe5d587aed5E
Ltmp1252:
	movq	%rax, -440(%rbp)
	jmp	LBB44_3
Ltmp1270:
LBB44_3:
	.loc	6 0 27 is_stmt 0
	movq	-440(%rbp), %rax
	.loc	6 203 27
	movq	%rax, -8(%rbp)
Ltmp1271:
	.loc	6 207 5 is_stmt 1
	movb	$0, -25(%rbp)
	movl	$10, %ecx
	leaq	-120(%rbp), %rdi
	movq	%rdi, -464(%rbp)
	leaq	-384(%rbp), %rsi
	rep;movsq (%rsi), %es:(%rdi)
	movq	-464(%rbp), %rdi
	movq	%rax, -40(%rbp)
	movq	-40(%rbp), %rsi
Ltmp1253:
	callq	__ZN16parking_lot_core11parking_lot4park28_$u7b$$u7b$closure$u7d$$u7d$17h7b1a7b404be29759E
Ltmp1254:
	movq	%rdx, -456(%rbp)
	movq	%rax, -448(%rbp)
	jmp	LBB44_4
Ltmp1272:
LBB44_4:
Ltmp1259:
	.loc	6 0 5 is_stmt 0
	leaq	-296(%rbp), %rdi
	.loc	6 208 1 is_stmt 1
	callq	__ZN4core3ptr90drop_in_place$LT$core..option..Option$LT$parking_lot_core..parking_lot..ThreadData$GT$$GT$17h90c3f74d9fad5bd6E
Ltmp1260:
	jmp	LBB44_10
Ltmp1273:
LBB44_5:
Ltmp1258:
	.loc	6 197 1
	callq	__ZN4core9panicking19panic_cannot_unwind17h1fbca7e1d7f56ae1E
Ltmp1274:
LBB44_6:
	.loc	6 208 1
	testb	$1, -25(%rbp)
	jne	LBB44_9
	jmp	LBB44_8
Ltmp1275:
LBB44_7:
Ltmp1261:
	.loc	6 0 1 is_stmt 0
	movq	%rax, %rcx
	movl	%edx, %eax
	movq	%rcx, -24(%rbp)
	movl	%eax, -16(%rbp)
	jmp	LBB44_6
Ltmp1276:
LBB44_8:
	.loc	6 197 1 is_stmt 1
	movq	-24(%rbp), %rdi
	callq	__Unwind_Resume
Ltmp1277:
LBB44_9:
	.loc	6 208 1
	jmp	LBB44_8
Ltmp1278:
LBB44_10:
	.loc	6 0 1 is_stmt 0
	movq	-456(%rbp), %rdx
	movq	-448(%rbp), %rax
	.loc	6 706 2 is_stmt 1
	addq	$464, %rsp
	popq	%rbp
	retq
Ltmp1279:
Lfunc_end44:
	.cfi_endproc
	.section	__TEXT,__gcc_except_tab
	.p2align	2
GCC_except_table44:
Lexception11:
	.byte	255
	.byte	255
	.byte	1
	.uleb128 Lcst_end11-Lcst_begin11
Lcst_begin11:
	.uleb128 Ltmp1249-Lfunc_begin44
	.uleb128 Ltmp1250-Ltmp1249
	.uleb128 Ltmp1255-Lfunc_begin44
	.byte	0
	.uleb128 Ltmp1256-Lfunc_begin44
	.uleb128 Ltmp1257-Ltmp1256
	.uleb128 Ltmp1258-Lfunc_begin44
	.byte	0
	.uleb128 Ltmp1251-Lfunc_begin44
	.uleb128 Ltmp1254-Ltmp1251
	.uleb128 Ltmp1255-Lfunc_begin44
	.byte	0
	.uleb128 Ltmp1259-Lfunc_begin44
	.uleb128 Ltmp1260-Ltmp1259
	.uleb128 Ltmp1261-Lfunc_begin44
	.byte	0
	.uleb128 Ltmp1260-Lfunc_begin44
	.uleb128 Lfunc_end44-Ltmp1260
	.byte	0
	.byte	0
Lcst_end11:
	.p2align	2

	.section	__TEXT,__text,regular,pure_instructions
	.globl	__ZN16parking_lot_core11parking_lot4park17h2bcd0292d40547feE
	.p2align	4, 0x90
__ZN16parking_lot_core11parking_lot4park17h2bcd0292d40547feE:
Lfunc_begin45:
	.loc	6 591 0
	.cfi_startproc
	.cfi_personality 155, _rust_eh_personality
	.cfi_lsda 16, Lexception12
	pushq	%rbp
	.cfi_def_cfa_offset 16
	.cfi_offset %rbp, -16
	movq	%rsp, %rbp
	.cfi_def_cfa_register %rbp
	subq	$400, %rsp
	movq	%rdi, -352(%rbp)
	movq	%rcx, -344(%rbp)
	movq	%r8, -336(%rbp)
	movq	%r9, -328(%rbp)
	movq	%rsi, -280(%rbp)
	movq	%rdx, -264(%rbp)
	leaq	-352(%rbp), %rax
Ltmp1293:
	.loc	6 600 22 prologue_end
	movq	%rax, -320(%rbp)
	movq	%rsi, -312(%rbp)
	leaq	-336(%rbp), %rax
	movq	%rax, -304(%rbp)
	leaq	-344(%rbp), %rax
	movq	%rax, -296(%rbp)
	movq	%rdx, -288(%rbp)
Ltmp1294:
	.loc	6 201 9
	movb	$0, -25(%rbp)
	movb	$1, -25(%rbp)
	.loc	6 201 35 is_stmt 0
	movq	$0, -256(%rbp)
Ltmp1280:
Ltmp1295:
	.loc	6 203 27 is_stmt 1
	leaq	l___unnamed_37(%rip), %rdi
	callq	__ZN3std6thread5local17LocalKey$LT$T$GT$8try_with17h922df6bf265b4efaE
Ltmp1281:
	movq	%rdx, -368(%rbp)
	movq	%rax, -360(%rbp)
	jmp	LBB45_2
Ltmp1296:
LBB45_1:
Ltmp1286:
	.loc	6 0 27 is_stmt 0
	movq	%rax, %rcx
	movl	%edx, %eax
	movq	%rcx, -24(%rbp)
	movl	%eax, -16(%rbp)
Ltmp1287:
	leaq	-256(%rbp), %rdi
	.loc	6 208 1 is_stmt 1
	callq	__ZN4core3ptr90drop_in_place$LT$core..option..Option$LT$parking_lot_core..parking_lot..ThreadData$GT$$GT$17h90c3f74d9fad5bd6E
Ltmp1288:
	jmp	LBB45_6
LBB45_2:
	.loc	6 0 1 is_stmt 0
	movq	-368(%rbp), %rsi
	movq	-360(%rbp), %rdi
	leaq	-256(%rbp), %rax
Ltmp1297:
	.loc	6 205 25 is_stmt 1
	movq	%rax, -88(%rbp)
	.loc	6 203 27
	movq	-88(%rbp), %rdx
Ltmp1282:
	callq	__ZN4core6result19Result$LT$T$C$E$GT$14unwrap_or_else17hbcf8ac9dda98c340E
Ltmp1283:
	movq	%rax, -376(%rbp)
	jmp	LBB45_3
LBB45_3:
	.loc	6 0 27 is_stmt 0
	movq	-376(%rbp), %rax
	.loc	6 203 27
	movq	%rax, -8(%rbp)
Ltmp1298:
	.loc	6 207 5 is_stmt 1
	movb	$0, -25(%rbp)
	movq	-288(%rbp), %rcx
	movq	%rcx, -48(%rbp)
	movq	-296(%rbp), %rcx
	movq	%rcx, -56(%rbp)
	movq	-304(%rbp), %rcx
	movq	%rcx, -64(%rbp)
	movq	-320(%rbp), %rcx
	movq	-312(%rbp), %rdx
	movq	%rdx, -72(%rbp)
	movq	%rcx, -80(%rbp)
	movq	%rax, -40(%rbp)
	movq	-40(%rbp), %rsi
Ltmp1284:
	leaq	-80(%rbp), %rdi
	callq	__ZN16parking_lot_core11parking_lot4park28_$u7b$$u7b$closure$u7d$$u7d$17h18e89a1dcc2ea14dE
Ltmp1285:
	movq	%rdx, -392(%rbp)
	movq	%rax, -384(%rbp)
	jmp	LBB45_4
Ltmp1299:
LBB45_4:
Ltmp1290:
	.loc	6 0 5 is_stmt 0
	leaq	-256(%rbp), %rdi
	.loc	6 208 1 is_stmt 1
	callq	__ZN4core3ptr90drop_in_place$LT$core..option..Option$LT$parking_lot_core..parking_lot..ThreadData$GT$$GT$17h90c3f74d9fad5bd6E
Ltmp1291:
	jmp	LBB45_10
LBB45_5:
Ltmp1289:
	.loc	6 197 1
	callq	__ZN4core9panicking19panic_cannot_unwind17h1fbca7e1d7f56ae1E
LBB45_6:
	.loc	6 208 1
	testb	$1, -25(%rbp)
	jne	LBB45_9
	jmp	LBB45_8
LBB45_7:
Ltmp1292:
	.loc	6 0 1 is_stmt 0
	movq	%rax, %rcx
	movl	%edx, %eax
	movq	%rcx, -24(%rbp)
	movl	%eax, -16(%rbp)
	jmp	LBB45_6
LBB45_8:
	.loc	6 197 1 is_stmt 1
	movq	-24(%rbp), %rdi
	callq	__Unwind_Resume
LBB45_9:
	.loc	6 208 1
	jmp	LBB45_8
Ltmp1300:
LBB45_10:
	.loc	6 0 1 is_stmt 0
	movq	-392(%rbp), %rdx
	movq	-384(%rbp), %rax
	.loc	6 706 2 is_stmt 1
	addq	$400, %rsp
	popq	%rbp
	retq
Ltmp1301:
Lfunc_end45:
	.cfi_endproc
	.section	__TEXT,__gcc_except_tab
	.p2align	2
GCC_except_table45:
Lexception12:
	.byte	255
	.byte	255
	.byte	1
	.uleb128 Lcst_end12-Lcst_begin12
Lcst_begin12:
	.uleb128 Ltmp1280-Lfunc_begin45
	.uleb128 Ltmp1281-Ltmp1280
	.uleb128 Ltmp1286-Lfunc_begin45
	.byte	0
	.uleb128 Ltmp1287-Lfunc_begin45
	.uleb128 Ltmp1288-Ltmp1287
	.uleb128 Ltmp1289-Lfunc_begin45
	.byte	0
	.uleb128 Ltmp1282-Lfunc_begin45
	.uleb128 Ltmp1285-Ltmp1282
	.uleb128 Ltmp1286-Lfunc_begin45
	.byte	0
	.uleb128 Ltmp1290-Lfunc_begin45
	.uleb128 Ltmp1291-Ltmp1290
	.uleb128 Ltmp1292-Lfunc_begin45
	.byte	0
	.uleb128 Ltmp1291-Lfunc_begin45
	.uleb128 Lfunc_end45-Ltmp1291
	.byte	0
	.byte	0
Lcst_end12:
	.p2align	2

	.section	__TEXT,__text,regular,pure_instructions
	.globl	__ZN16parking_lot_core11parking_lot4park17h4649cca665a1bfd6E
	.p2align	4, 0x90
__ZN16parking_lot_core11parking_lot4park17h4649cca665a1bfd6E:
Lfunc_begin46:
	.loc	6 591 0
	.cfi_startproc
	.cfi_personality 155, _rust_eh_personality
	.cfi_lsda 16, Lexception13
	pushq	%rbp
	.cfi_def_cfa_offset 16
	.cfi_offset %rbp, -16
	movq	%rsp, %rbp
	.cfi_def_cfa_register %rbp
	subq	$384, %rsp
	movq	%rdi, -336(%rbp)
	movq	%rdx, -328(%rbp)
	movq	%rcx, -320(%rbp)
	movq	%r8, -312(%rbp)
	movq	%rsi, -272(%rbp)
	leaq	-336(%rbp), %rax
Ltmp1315:
	.loc	6 600 22 prologue_end
	movq	%rax, -304(%rbp)
	movq	%rsi, -296(%rbp)
	leaq	-320(%rbp), %rax
	movq	%rax, -288(%rbp)
	leaq	-328(%rbp), %rax
	movq	%rax, -280(%rbp)
Ltmp1316:
	.loc	6 201 9
	movb	$0, -25(%rbp)
	movb	$1, -25(%rbp)
	.loc	6 201 35 is_stmt 0
	movq	$0, -248(%rbp)
Ltmp1302:
Ltmp1317:
	.loc	6 203 27 is_stmt 1
	leaq	l___unnamed_37(%rip), %rdi
	callq	__ZN3std6thread5local17LocalKey$LT$T$GT$8try_with17h03145ebf0e337609E
Ltmp1303:
	movq	%rdx, -352(%rbp)
	movq	%rax, -344(%rbp)
	jmp	LBB46_2
Ltmp1318:
LBB46_1:
Ltmp1308:
	.loc	6 0 27 is_stmt 0
	movq	%rax, %rcx
	movl	%edx, %eax
	movq	%rcx, -24(%rbp)
	movl	%eax, -16(%rbp)
Ltmp1309:
	leaq	-248(%rbp), %rdi
	.loc	6 208 1 is_stmt 1
	callq	__ZN4core3ptr90drop_in_place$LT$core..option..Option$LT$parking_lot_core..parking_lot..ThreadData$GT$$GT$17h90c3f74d9fad5bd6E
Ltmp1310:
	jmp	LBB46_6
LBB46_2:
	.loc	6 0 1 is_stmt 0
	movq	-352(%rbp), %rsi
	movq	-344(%rbp), %rdi
	leaq	-248(%rbp), %rax
Ltmp1319:
	.loc	6 205 25 is_stmt 1
	movq	%rax, -80(%rbp)
	.loc	6 203 27
	movq	-80(%rbp), %rdx
Ltmp1304:
	callq	__ZN4core6result19Result$LT$T$C$E$GT$14unwrap_or_else17h68560f0fadb03cc7E
Ltmp1305:
	movq	%rax, -360(%rbp)
	jmp	LBB46_3
LBB46_3:
	.loc	6 0 27 is_stmt 0
	movq	-360(%rbp), %rax
	.loc	6 203 27
	movq	%rax, -8(%rbp)
Ltmp1320:
	.loc	6 207 5 is_stmt 1
	movb	$0, -25(%rbp)
	movq	-280(%rbp), %rcx
	movq	%rcx, -48(%rbp)
	movq	-288(%rbp), %rcx
	movq	%rcx, -56(%rbp)
	movq	-304(%rbp), %rcx
	movq	-296(%rbp), %rdx
	movq	%rdx, -64(%rbp)
	movq	%rcx, -72(%rbp)
	movq	%rax, -40(%rbp)
	movq	-40(%rbp), %rsi
Ltmp1306:
	leaq	-72(%rbp), %rdi
	callq	__ZN16parking_lot_core11parking_lot4park28_$u7b$$u7b$closure$u7d$$u7d$17he3922b3d19a3276bE
Ltmp1307:
	movq	%rdx, -376(%rbp)
	movq	%rax, -368(%rbp)
	jmp	LBB46_4
Ltmp1321:
LBB46_4:
Ltmp1312:
	.loc	6 0 5 is_stmt 0
	leaq	-248(%rbp), %rdi
	.loc	6 208 1 is_stmt 1
	callq	__ZN4core3ptr90drop_in_place$LT$core..option..Option$LT$parking_lot_core..parking_lot..ThreadData$GT$$GT$17h90c3f74d9fad5bd6E
Ltmp1313:
	jmp	LBB46_10
LBB46_5:
Ltmp1311:
	.loc	6 197 1
	callq	__ZN4core9panicking19panic_cannot_unwind17h1fbca7e1d7f56ae1E
LBB46_6:
	.loc	6 208 1
	testb	$1, -25(%rbp)
	jne	LBB46_9
	jmp	LBB46_8
LBB46_7:
Ltmp1314:
	.loc	6 0 1 is_stmt 0
	movq	%rax, %rcx
	movl	%edx, %eax
	movq	%rcx, -24(%rbp)
	movl	%eax, -16(%rbp)
	jmp	LBB46_6
LBB46_8:
	.loc	6 197 1 is_stmt 1
	movq	-24(%rbp), %rdi
	callq	__Unwind_Resume
LBB46_9:
	.loc	6 208 1
	jmp	LBB46_8
Ltmp1322:
LBB46_10:
	.loc	6 0 1 is_stmt 0
	movq	-376(%rbp), %rdx
	movq	-368(%rbp), %rax
	.loc	6 706 2 is_stmt 1
	addq	$384, %rsp
	popq	%rbp
	retq
Ltmp1323:
Lfunc_end46:
	.cfi_endproc
	.section	__TEXT,__gcc_except_tab
	.p2align	2
GCC_except_table46:
Lexception13:
	.byte	255
	.byte	255
	.byte	1
	.uleb128 Lcst_end13-Lcst_begin13
Lcst_begin13:
	.uleb128 Ltmp1302-Lfunc_begin46
	.uleb128 Ltmp1303-Ltmp1302
	.uleb128 Ltmp1308-Lfunc_begin46
	.byte	0
	.uleb128 Ltmp1309-Lfunc_begin46
	.uleb128 Ltmp1310-Ltmp1309
	.uleb128 Ltmp1311-Lfunc_begin46
	.byte	0
	.uleb128 Ltmp1304-Lfunc_begin46
	.uleb128 Ltmp1307-Ltmp1304
	.uleb128 Ltmp1308-Lfunc_begin46
	.byte	0
	.uleb128 Ltmp1312-Lfunc_begin46
	.uleb128 Ltmp1313-Ltmp1312
	.uleb128 Ltmp1314-Lfunc_begin46
	.byte	0
	.uleb128 Ltmp1313-Lfunc_begin46
	.uleb128 Lfunc_end46-Ltmp1313
	.byte	0
	.byte	0
Lcst_end13:
	.p2align	2

	.section	__TEXT,__text,regular,pure_instructions
	.globl	__ZN16parking_lot_core11parking_lot4park17h99776c72f9d04adeE
	.p2align	4, 0x90
__ZN16parking_lot_core11parking_lot4park17h99776c72f9d04adeE:
Lfunc_begin47:
	.loc	6 591 0
	.cfi_startproc
	.cfi_personality 155, _rust_eh_personality
	.cfi_lsda 16, Lexception14
	pushq	%rbp
	.cfi_def_cfa_offset 16
	.cfi_offset %rbp, -16
	movq	%rsp, %rbp
	.cfi_def_cfa_register %rbp
	subq	$416, %rsp
	movq	16(%rbp), %rax
	movq	%rdi, -376(%rbp)
	movq	%r8, -368(%rbp)
	movq	%r9, -360(%rbp)
	movq	%rax, -352(%rbp)
	movq	%rsi, -296(%rbp)
	movq	%rdx, -288(%rbp)
	movq	%rcx, -272(%rbp)
	leaq	-376(%rbp), %rax
Ltmp1337:
	.loc	6 600 22 prologue_end
	movq	%rax, -328(%rbp)
	movq	%rsi, -344(%rbp)
	movq	%rdx, -336(%rbp)
	leaq	-360(%rbp), %rax
	movq	%rax, -320(%rbp)
	leaq	-368(%rbp), %rax
	movq	%rax, -312(%rbp)
	movq	%rcx, -304(%rbp)
Ltmp1338:
	.loc	6 201 9
	movb	$0, -25(%rbp)
	movb	$1, -25(%rbp)
	.loc	6 201 35 is_stmt 0
	movq	$0, -264(%rbp)
Ltmp1324:
Ltmp1339:
	.loc	6 203 27 is_stmt 1
	leaq	l___unnamed_37(%rip), %rdi
	callq	__ZN3std6thread5local17LocalKey$LT$T$GT$8try_with17h0ac833821f31392dE
Ltmp1325:
	movq	%rdx, -392(%rbp)
	movq	%rax, -384(%rbp)
	jmp	LBB47_2
Ltmp1340:
LBB47_1:
Ltmp1330:
	.loc	6 0 27 is_stmt 0
	movq	%rax, %rcx
	movl	%edx, %eax
	movq	%rcx, -24(%rbp)
	movl	%eax, -16(%rbp)
Ltmp1331:
	leaq	-264(%rbp), %rdi
	.loc	6 208 1 is_stmt 1
	callq	__ZN4core3ptr90drop_in_place$LT$core..option..Option$LT$parking_lot_core..parking_lot..ThreadData$GT$$GT$17h90c3f74d9fad5bd6E
Ltmp1332:
	jmp	LBB47_6
LBB47_2:
	.loc	6 0 1 is_stmt 0
	movq	-392(%rbp), %rsi
	movq	-384(%rbp), %rdi
	leaq	-264(%rbp), %rax
Ltmp1341:
	.loc	6 205 25 is_stmt 1
	movq	%rax, -96(%rbp)
	.loc	6 203 27
	movq	-96(%rbp), %rdx
Ltmp1326:
	callq	__ZN4core6result19Result$LT$T$C$E$GT$14unwrap_or_else17h79ce65d48c1c1afbE
Ltmp1327:
	movq	%rax, -400(%rbp)
	jmp	LBB47_3
LBB47_3:
	.loc	6 0 27 is_stmt 0
	movq	-400(%rbp), %rax
	.loc	6 203 27
	movq	%rax, -8(%rbp)
Ltmp1342:
	.loc	6 207 5 is_stmt 1
	movb	$0, -25(%rbp)
	movq	-304(%rbp), %rcx
	movq	%rcx, -48(%rbp)
	movq	-312(%rbp), %rcx
	movq	%rcx, -56(%rbp)
	movq	-320(%rbp), %rcx
	movq	%rcx, -64(%rbp)
	movq	-328(%rbp), %rcx
	movq	%rcx, -72(%rbp)
	movq	-344(%rbp), %rcx
	movq	-336(%rbp), %rdx
	movq	%rdx, -80(%rbp)
	movq	%rcx, -88(%rbp)
	movq	%rax, -40(%rbp)
	movq	-40(%rbp), %rsi
Ltmp1328:
	leaq	-88(%rbp), %rdi
	callq	__ZN16parking_lot_core11parking_lot4park28_$u7b$$u7b$closure$u7d$$u7d$17he9f94a9dceb653e9E
Ltmp1329:
	movq	%rdx, -416(%rbp)
	movq	%rax, -408(%rbp)
	jmp	LBB47_4
Ltmp1343:
LBB47_4:
Ltmp1334:
	.loc	6 0 5 is_stmt 0
	leaq	-264(%rbp), %rdi
	.loc	6 208 1 is_stmt 1
	callq	__ZN4core3ptr90drop_in_place$LT$core..option..Option$LT$parking_lot_core..parking_lot..ThreadData$GT$$GT$17h90c3f74d9fad5bd6E
Ltmp1335:
	jmp	LBB47_10
LBB47_5:
Ltmp1333:
	.loc	6 197 1
	callq	__ZN4core9panicking19panic_cannot_unwind17h1fbca7e1d7f56ae1E
LBB47_6:
	.loc	6 208 1
	testb	$1, -25(%rbp)
	jne	LBB47_9
	jmp	LBB47_8
LBB47_7:
Ltmp1336:
	.loc	6 0 1 is_stmt 0
	movq	%rax, %rcx
	movl	%edx, %eax
	movq	%rcx, -24(%rbp)
	movl	%eax, -16(%rbp)
	jmp	LBB47_6
LBB47_8:
	.loc	6 197 1 is_stmt 1
	movq	-24(%rbp), %rdi
	callq	__Unwind_Resume
LBB47_9:
	.loc	6 208 1
	jmp	LBB47_8
Ltmp1344:
LBB47_10:
	.loc	6 0 1 is_stmt 0
	movq	-416(%rbp), %rdx
	movq	-408(%rbp), %rax
	.loc	6 706 2 is_stmt 1
	addq	$416, %rsp
	popq	%rbp
	retq
Ltmp1345:
Lfunc_end47:
	.cfi_endproc
	.section	__TEXT,__gcc_except_tab
	.p2align	2
GCC_except_table47:
Lexception14:
	.byte	255
	.byte	255
	.byte	1
	.uleb128 Lcst_end14-Lcst_begin14
Lcst_begin14:
	.uleb128 Ltmp1324-Lfunc_begin47
	.uleb128 Ltmp1325-Ltmp1324
	.uleb128 Ltmp1330-Lfunc_begin47
	.byte	0
	.uleb128 Ltmp1331-Lfunc_begin47
	.uleb128 Ltmp1332-Ltmp1331
	.uleb128 Ltmp1333-Lfunc_begin47
	.byte	0
	.uleb128 Ltmp1326-Lfunc_begin47
	.uleb128 Ltmp1329-Ltmp1326
	.uleb128 Ltmp1330-Lfunc_begin47
	.byte	0
	.uleb128 Ltmp1334-Lfunc_begin47
	.uleb128 Ltmp1335-Ltmp1334
	.uleb128 Ltmp1336-Lfunc_begin47
	.byte	0
	.uleb128 Ltmp1335-Lfunc_begin47
	.uleb128 Lfunc_end47-Ltmp1335
	.byte	0
	.byte	0
Lcst_end14:
	.p2align	2

	.section	__TEXT,__text,regular,pure_instructions
	.globl	__ZN16parking_lot_core11parking_lot4park17hdd2041b7307d98e0E
	.p2align	4, 0x90
__ZN16parking_lot_core11parking_lot4park17hdd2041b7307d98e0E:
Lfunc_begin48:
	.loc	6 591 0
	.cfi_startproc
	.cfi_personality 155, _rust_eh_personality
	.cfi_lsda 16, Lexception15
	pushq	%rbp
	.cfi_def_cfa_offset 16
	.cfi_offset %rbp, -16
	movq	%rsp, %rbp
	.cfi_def_cfa_register %rbp
	subq	$416, %rsp
	movq	16(%rbp), %rax
	movq	%rdi, -376(%rbp)
	movq	%r8, -368(%rbp)
	movq	%r9, -360(%rbp)
	movq	%rax, -352(%rbp)
	movq	%rsi, -296(%rbp)
	movq	%rdx, -288(%rbp)
	movq	%rcx, -272(%rbp)
	leaq	-376(%rbp), %rax
Ltmp1359:
	.loc	6 600 22 prologue_end
	movq	%rax, -328(%rbp)
	movq	%rsi, -344(%rbp)
	movq	%rdx, -336(%rbp)
	leaq	-360(%rbp), %rax
	movq	%rax, -320(%rbp)
	leaq	-368(%rbp), %rax
	movq	%rax, -312(%rbp)
	movq	%rcx, -304(%rbp)
Ltmp1360:
	.loc	6 201 9
	movb	$0, -25(%rbp)
	movb	$1, -25(%rbp)
	.loc	6 201 35 is_stmt 0
	movq	$0, -264(%rbp)
Ltmp1346:
Ltmp1361:
	.loc	6 203 27 is_stmt 1
	leaq	l___unnamed_37(%rip), %rdi
	callq	__ZN3std6thread5local17LocalKey$LT$T$GT$8try_with17ha086735fdac00143E
Ltmp1347:
	movq	%rdx, -392(%rbp)
	movq	%rax, -384(%rbp)
	jmp	LBB48_2
Ltmp1362:
LBB48_1:
Ltmp1352:
	.loc	6 0 27 is_stmt 0
	movq	%rax, %rcx
	movl	%edx, %eax
	movq	%rcx, -24(%rbp)
	movl	%eax, -16(%rbp)
Ltmp1353:
	leaq	-264(%rbp), %rdi
	.loc	6 208 1 is_stmt 1
	callq	__ZN4core3ptr90drop_in_place$LT$core..option..Option$LT$parking_lot_core..parking_lot..ThreadData$GT$$GT$17h90c3f74d9fad5bd6E
Ltmp1354:
	jmp	LBB48_6
LBB48_2:
	.loc	6 0 1 is_stmt 0
	movq	-392(%rbp), %rsi
	movq	-384(%rbp), %rdi
	leaq	-264(%rbp), %rax
Ltmp1363:
	.loc	6 205 25 is_stmt 1
	movq	%rax, -96(%rbp)
	.loc	6 203 27
	movq	-96(%rbp), %rdx
Ltmp1348:
	callq	__ZN4core6result19Result$LT$T$C$E$GT$14unwrap_or_else17h0777218bfe8cc55aE
Ltmp1349:
	movq	%rax, -400(%rbp)
	jmp	LBB48_3
LBB48_3:
	.loc	6 0 27 is_stmt 0
	movq	-400(%rbp), %rax
	.loc	6 203 27
	movq	%rax, -8(%rbp)
Ltmp1364:
	.loc	6 207 5 is_stmt 1
	movb	$0, -25(%rbp)
	movq	-304(%rbp), %rcx
	movq	%rcx, -48(%rbp)
	movq	-312(%rbp), %rcx
	movq	%rcx, -56(%rbp)
	movq	-320(%rbp), %rcx
	movq	%rcx, -64(%rbp)
	movq	-328(%rbp), %rcx
	movq	%rcx, -72(%rbp)
	movq	-344(%rbp), %rcx
	movq	-336(%rbp), %rdx
	movq	%rdx, -80(%rbp)
	movq	%rcx, -88(%rbp)
	movq	%rax, -40(%rbp)
	movq	-40(%rbp), %rsi
Ltmp1350:
	leaq	-88(%rbp), %rdi
	callq	__ZN16parking_lot_core11parking_lot4park28_$u7b$$u7b$closure$u7d$$u7d$17h414ddb5ae8b23df3E
Ltmp1351:
	movq	%rdx, -416(%rbp)
	movq	%rax, -408(%rbp)
	jmp	LBB48_4
Ltmp1365:
LBB48_4:
Ltmp1356:
	.loc	6 0 5 is_stmt 0
	leaq	-264(%rbp), %rdi
	.loc	6 208 1 is_stmt 1
	callq	__ZN4core3ptr90drop_in_place$LT$core..option..Option$LT$parking_lot_core..parking_lot..ThreadData$GT$$GT$17h90c3f74d9fad5bd6E
Ltmp1357:
	jmp	LBB48_10
LBB48_5:
Ltmp1355:
	.loc	6 197 1
	callq	__ZN4core9panicking19panic_cannot_unwind17h1fbca7e1d7f56ae1E
LBB48_6:
	.loc	6 208 1
	testb	$1, -25(%rbp)
	jne	LBB48_9
	jmp	LBB48_8
LBB48_7:
Ltmp1358:
	.loc	6 0 1 is_stmt 0
	movq	%rax, %rcx
	movl	%edx, %eax
	movq	%rcx, -24(%rbp)
	movl	%eax, -16(%rbp)
	jmp	LBB48_6
LBB48_8:
	.loc	6 197 1 is_stmt 1
	movq	-24(%rbp), %rdi
	callq	__Unwind_Resume
LBB48_9:
	.loc	6 208 1
	jmp	LBB48_8
Ltmp1366:
LBB48_10:
	.loc	6 0 1 is_stmt 0
	movq	-416(%rbp), %rdx
	movq	-408(%rbp), %rax
	.loc	6 706 2 is_stmt 1
	addq	$416, %rsp
	popq	%rbp
	retq
Ltmp1367:
Lfunc_end48:
	.cfi_endproc
	.section	__TEXT,__gcc_except_tab
	.p2align	2
GCC_except_table48:
Lexception15:
	.byte	255
	.byte	255
	.byte	1
	.uleb128 Lcst_end15-Lcst_begin15
Lcst_begin15:
	.uleb128 Ltmp1346-Lfunc_begin48
	.uleb128 Ltmp1347-Ltmp1346
	.uleb128 Ltmp1352-Lfunc_begin48
	.byte	0
	.uleb128 Ltmp1353-Lfunc_begin48
	.uleb128 Ltmp1354-Ltmp1353
	.uleb128 Ltmp1355-Lfunc_begin48
	.byte	0
	.uleb128 Ltmp1348-Lfunc_begin48
	.uleb128 Ltmp1351-Ltmp1348
	.uleb128 Ltmp1352-Lfunc_begin48
	.byte	0
	.uleb128 Ltmp1356-Lfunc_begin48
	.uleb128 Ltmp1357-Ltmp1356
	.uleb128 Ltmp1358-Lfunc_begin48
	.byte	0
	.uleb128 Ltmp1357-Lfunc_begin48
	.uleb128 Lfunc_end48-Ltmp1357
	.byte	0
	.byte	0
Lcst_end15:
	.p2align	2

	.section	__TEXT,__text,regular,pure_instructions
	.globl	__ZN16parking_lot_core11parking_lot4park17he06f18bfc99b23b0E
	.p2align	4, 0x90
__ZN16parking_lot_core11parking_lot4park17he06f18bfc99b23b0E:
Lfunc_begin49:
	.loc	6 591 0
	.cfi_startproc
	.cfi_personality 155, _rust_eh_personality
	.cfi_lsda 16, Lexception16
	pushq	%rbp
	.cfi_def_cfa_offset 16
	.cfi_offset %rbp, -16
	movq	%rsp, %rbp
	.cfi_def_cfa_register %rbp
	subq	$384, %rsp
	movq	%rdi, -336(%rbp)
	movq	%rdx, -328(%rbp)
	movq	%rcx, -320(%rbp)
	movq	%r8, -312(%rbp)
	movq	%rsi, -272(%rbp)
	leaq	-336(%rbp), %rax
Ltmp1381:
	.loc	6 600 22 prologue_end
	movq	%rax, -304(%rbp)
	movq	%rsi, -296(%rbp)
	leaq	-320(%rbp), %rax
	movq	%rax, -288(%rbp)
	leaq	-328(%rbp), %rax
	movq	%rax, -280(%rbp)
Ltmp1382:
	.loc	6 201 9
	movb	$0, -25(%rbp)
	movb	$1, -25(%rbp)
	.loc	6 201 35 is_stmt 0
	movq	$0, -248(%rbp)
Ltmp1368:
Ltmp1383:
	.loc	6 203 27 is_stmt 1
	leaq	l___unnamed_37(%rip), %rdi
	callq	__ZN3std6thread5local17LocalKey$LT$T$GT$8try_with17hd19788863d20983eE
Ltmp1369:
	movq	%rdx, -352(%rbp)
	movq	%rax, -344(%rbp)
	jmp	LBB49_2
Ltmp1384:
LBB49_1:
Ltmp1374:
	.loc	6 0 27 is_stmt 0
	movq	%rax, %rcx
	movl	%edx, %eax
	movq	%rcx, -24(%rbp)
	movl	%eax, -16(%rbp)
Ltmp1375:
	leaq	-248(%rbp), %rdi
	.loc	6 208 1 is_stmt 1
	callq	__ZN4core3ptr90drop_in_place$LT$core..option..Option$LT$parking_lot_core..parking_lot..ThreadData$GT$$GT$17h90c3f74d9fad5bd6E
Ltmp1376:
	jmp	LBB49_6
LBB49_2:
	.loc	6 0 1 is_stmt 0
	movq	-352(%rbp), %rsi
	movq	-344(%rbp), %rdi
	leaq	-248(%rbp), %rax
Ltmp1385:
	.loc	6 205 25 is_stmt 1
	movq	%rax, -80(%rbp)
	.loc	6 203 27
	movq	-80(%rbp), %rdx
Ltmp1370:
	callq	__ZN4core6result19Result$LT$T$C$E$GT$14unwrap_or_else17hcae59c473f3464c5E
Ltmp1371:
	movq	%rax, -360(%rbp)
	jmp	LBB49_3
LBB49_3:
	.loc	6 0 27 is_stmt 0
	movq	-360(%rbp), %rax
	.loc	6 203 27
	movq	%rax, -8(%rbp)
Ltmp1386:
	.loc	6 207 5 is_stmt 1
	movb	$0, -25(%rbp)
	movq	-280(%rbp), %rcx
	movq	%rcx, -48(%rbp)
	movq	-288(%rbp), %rcx
	movq	%rcx, -56(%rbp)
	movq	-304(%rbp), %rcx
	movq	-296(%rbp), %rdx
	movq	%rdx, -64(%rbp)
	movq	%rcx, -72(%rbp)
	movq	%rax, -40(%rbp)
	movq	-40(%rbp), %rsi
Ltmp1372:
	leaq	-72(%rbp), %rdi
	callq	__ZN16parking_lot_core11parking_lot4park28_$u7b$$u7b$closure$u7d$$u7d$17h2e95378f750ac06fE
Ltmp1373:
	movq	%rdx, -376(%rbp)
	movq	%rax, -368(%rbp)
	jmp	LBB49_4
Ltmp1387:
LBB49_4:
Ltmp1378:
	.loc	6 0 5 is_stmt 0
	leaq	-248(%rbp), %rdi
	.loc	6 208 1 is_stmt 1
	callq	__ZN4core3ptr90drop_in_place$LT$core..option..Option$LT$parking_lot_core..parking_lot..ThreadData$GT$$GT$17h90c3f74d9fad5bd6E
Ltmp1379:
	jmp	LBB49_10
LBB49_5:
Ltmp1377:
	.loc	6 197 1
	callq	__ZN4core9panicking19panic_cannot_unwind17h1fbca7e1d7f56ae1E
LBB49_6:
	.loc	6 208 1
	testb	$1, -25(%rbp)
	jne	LBB49_9
	jmp	LBB49_8
LBB49_7:
Ltmp1380:
	.loc	6 0 1 is_stmt 0
	movq	%rax, %rcx
	movl	%edx, %eax
	movq	%rcx, -24(%rbp)
	movl	%eax, -16(%rbp)
	jmp	LBB49_6
LBB49_8:
	.loc	6 197 1 is_stmt 1
	movq	-24(%rbp), %rdi
	callq	__Unwind_Resume
LBB49_9:
	.loc	6 208 1
	jmp	LBB49_8
Ltmp1388:
LBB49_10:
	.loc	6 0 1 is_stmt 0
	movq	-376(%rbp), %rdx
	movq	-368(%rbp), %rax
	.loc	6 706 2 is_stmt 1
	addq	$384, %rsp
	popq	%rbp
	retq
Ltmp1389:
Lfunc_end49:
	.cfi_endproc
	.section	__TEXT,__gcc_except_tab
	.p2align	2
GCC_except_table49:
Lexception16:
	.byte	255
	.byte	255
	.byte	1
	.uleb128 Lcst_end16-Lcst_begin16
Lcst_begin16:
	.uleb128 Ltmp1368-Lfunc_begin49
	.uleb128 Ltmp1369-Ltmp1368
	.uleb128 Ltmp1374-Lfunc_begin49
	.byte	0
	.uleb128 Ltmp1375-Lfunc_begin49
	.uleb128 Ltmp1376-Ltmp1375
	.uleb128 Ltmp1377-Lfunc_begin49
	.byte	0
	.uleb128 Ltmp1370-Lfunc_begin49
	.uleb128 Ltmp1373-Ltmp1370
	.uleb128 Ltmp1374-Lfunc_begin49
	.byte	0
	.uleb128 Ltmp1378-Lfunc_begin49
	.uleb128 Ltmp1379-Ltmp1378
	.uleb128 Ltmp1380-Lfunc_begin49
	.byte	0
	.uleb128 Ltmp1379-Lfunc_begin49
	.uleb128 Lfunc_end49-Ltmp1379
	.byte	0
	.byte	0
Lcst_end16:
	.p2align	2

	.section	__TEXT,__text,regular,pure_instructions
	.globl	__ZN16parking_lot_core11parking_lot4park28_$u7b$$u7b$closure$u7d$$u7d$17h18e89a1dcc2ea14dE
	.p2align	4, 0x90
__ZN16parking_lot_core11parking_lot4park28_$u7b$$u7b$closure$u7d$$u7d$17h18e89a1dcc2ea14dE:
Lfunc_begin50:
	.loc	6 600 0
	.cfi_startproc
	.cfi_personality 155, _rust_eh_personality
	.cfi_lsda 16, Lexception17
	pushq	%rbp
	.cfi_def_cfa_offset 16
	.cfi_offset %rbp, -16
	movq	%rsp, %rbp
	.cfi_def_cfa_register %rbp
	subq	$464, %rsp
	movq	%rdi, -256(%rbp)
Ltmp1473:
	movq	%rsi, -248(%rbp)
	movq	%rsi, -128(%rbp)
Ltmp1474:
	.loc	6 602 13 prologue_end
	movb	$0, -129(%rbp)
	movb	$0, -130(%rbp)
	movb	$0, -131(%rbp)
	movb	$1, -131(%rbp)
	movb	$1, -130(%rbp)
	movb	$1, -129(%rbp)
	.loc	6 602 34 is_stmt 0
	movq	(%rdi), %rax
	movq	(%rax), %rdi
Ltmp1475:
Ltmp1390:
	.loc	6 602 22
	callq	__ZN16parking_lot_core11parking_lot11lock_bucket17h7d64fcc90ba48539E
Ltmp1391:
	movq	%rax, -240(%rbp)
Ltmp1476:
	jmp	LBB50_3
Ltmp1477:
LBB50_1:
	.loc	6 705 5 is_stmt 1
	testb	$1, -129(%rbp)
	jne	LBB50_80
	jmp	LBB50_79
Ltmp1478:
LBB50_2:
Ltmp1472:
	.loc	6 0 5 is_stmt 0
	movq	%rax, %rcx
	movl	%edx, %eax
	movq	%rcx, -120(%rbp)
	movl	%eax, -112(%rbp)
	jmp	LBB50_1
Ltmp1479:
LBB50_3:
	movq	-256(%rbp), %rax
	movq	-240(%rbp), %rcx
	.loc	6 602 22 is_stmt 1
	movq	%rcx, -104(%rbp)
Ltmp1480:
	.loc	6 605 13
	movb	$0, -129(%rbp)
	movq	8(%rax), %rdi
Ltmp1392:
	callq	__ZN4core3ops8function6FnOnce9call_once17heb005d786f73c169E
Ltmp1393:
	movb	%al, -257(%rbp)
	jmp	LBB50_4
Ltmp1481:
LBB50_4:
	.loc	6 0 13 is_stmt 0
	movb	-257(%rbp), %al
	.loc	6 605 12
	xorb	$-1, %al
	testb	$1, %al
	jne	LBB50_6
Ltmp1482:
	.loc	6 0 12
	movq	-256(%rbp), %rax
	movq	-248(%rbp), %rcx
	.loc	6 612 9 is_stmt 1
	addq	$152, %rcx
	movq	%rcx, -272(%rbp)
	.loc	6 612 45 is_stmt 0
	movq	16(%rax), %rdi
Ltmp1394:
	callq	__ZN4core6option15Option$LT$T$GT$7is_some17h860db624a7c845a5E
Ltmp1395:
	movb	%al, -258(%rbp)
	jmp	LBB50_9
Ltmp1483:
LBB50_6:
	.loc	6 0 45
	movq	-240(%rbp), %rdi
	.loc	6 607 13 is_stmt 1
	addq	$16, %rdi
Ltmp1470:
	callq	__ZN16parking_lot_core9word_lock8WordLock6unlock17hcabffee10591cf5aE
Ltmp1471:
	jmp	LBB50_7
Ltmp1484:
LBB50_7:
	.loc	6 608 20
	movq	$1, -232(%rbp)
Ltmp1485:
LBB50_8:
	.loc	6 705 5
	testb	$1, -130(%rbp)
	jne	LBB50_43
	jmp	LBB50_42
Ltmp1486:
LBB50_9:
Ltmp1396:
	.loc	6 0 5 is_stmt 0
	movq	-272(%rbp), %rdi
	movb	-258(%rbp), %al
Ltmp1487:
	.loc	6 612 9 is_stmt 1
	movzbl	%al, %esi
	andl	$1, %esi
	callq	__ZN4core4cell13Cell$LT$T$GT$3set17h916739fa58dc872fE
Ltmp1397:
	jmp	LBB50_10
Ltmp1488:
LBB50_10:
	.loc	6 0 9 is_stmt 0
	movq	-248(%rbp), %rax
	.loc	6 613 9 is_stmt 1
	addq	$128, %rax
	movq	%rax, -288(%rbp)
Ltmp1489:
	.loc	7 568 14
	movq	$0, -16(%rbp)
	movq	-16(%rbp), %rax
	movq	%rax, -8(%rbp)
Ltmp1490:
	.loc	8 118 36
	movq	%rax, -24(%rbp)
	.loc	8 118 14 is_stmt 0
	movq	-24(%rbp), %rax
	movq	%rax, -32(%rbp)
	movq	-32(%rbp), %rax
	movq	%rax, -280(%rbp)
Ltmp1491:
Ltmp1398:
	.loc	8 0 14
	movq	-280(%rbp), %rsi
	movq	-288(%rbp), %rdi
	.loc	6 613 9 is_stmt 1
	callq	__ZN4core4cell13Cell$LT$T$GT$3set17hd9caf1a89fe8b476E
Ltmp1399:
	jmp	LBB50_12
Ltmp1492:
LBB50_12:
	.loc	6 0 9 is_stmt 0
	movq	-256(%rbp), %rax
	movq	-248(%rbp), %rdi
	.loc	6 614 9 is_stmt 1
	addq	$120, %rdi
	.loc	6 614 31 is_stmt 0
	movq	(%rax), %rax
	movq	(%rax), %rsi
	.loc	6 614 36
	movb	$0, -210(%rbp)
	.loc	6 614 9
	movzbl	-210(%rbp), %edx
Ltmp1400:
	callq	__ZN4core4sync6atomic11AtomicUsize5store17hb128536bfab4c5aaE
Ltmp1401:
	jmp	LBB50_13
Ltmp1493:
LBB50_13:
	.loc	6 0 9
	movq	-256(%rbp), %rax
	movq	-248(%rbp), %rdi
	.loc	6 615 9 is_stmt 1
	addq	$144, %rdi
	.loc	6 615 36 is_stmt 0
	movq	24(%rax), %rax
	movq	(%rax), %rsi
Ltmp1402:
	.loc	6 615 9
	callq	__ZN4core4cell13Cell$LT$T$GT$3set17h9822514a62c2ad29E
Ltmp1403:
	jmp	LBB50_14
Ltmp1494:
LBB50_14:
Ltmp1404:
	.loc	6 0 9
	movq	-248(%rbp), %rdi
	.loc	6 616 9 is_stmt 1
	callq	__ZN117_$LT$parking_lot_core..thread_parker..imp..ThreadParker$u20$as$u20$parking_lot_core..thread_parker..ThreadParkerT$GT$12prepare_park17h6d5edcea5e75f839E
Ltmp1405:
	jmp	LBB50_15
Ltmp1495:
LBB50_15:
	.loc	6 0 9 is_stmt 0
	movq	-240(%rbp), %rdi
	.loc	6 617 13 is_stmt 1
	addq	$24, %rdi
Ltmp1406:
	callq	__ZN4core4cell13Cell$LT$T$GT$3get17h91f3150f3f68e435E
Ltmp1407:
	movq	%rax, -296(%rbp)
	jmp	LBB50_16
Ltmp1496:
LBB50_16:
Ltmp1408:
	.loc	6 0 13 is_stmt 0
	movq	-296(%rbp), %rdi
	.loc	6 617 13
	callq	__ZN4core3ptr9const_ptr33_$LT$impl$u20$$BP$const$u20$T$GT$7is_null17h4f24a6938c63d2a7E
Ltmp1409:
	movb	%al, -297(%rbp)
	jmp	LBB50_17
Ltmp1497:
LBB50_17:
	.loc	6 0 13
	movb	-297(%rbp), %al
	.loc	6 617 12
	xorb	$-1, %al
	testb	$1, %al
	jne	LBB50_19
Ltmp1498:
	.loc	6 0 12
	movq	-248(%rbp), %rsi
	movq	-240(%rbp), %rdi
	.loc	6 620 13 is_stmt 1
	addq	$24, %rdi
Ltmp1410:
	callq	__ZN4core4cell13Cell$LT$T$GT$3set17hd9caf1a89fe8b476E
Ltmp1411:
	jmp	LBB50_23
Ltmp1499:
LBB50_19:
	.loc	6 0 13 is_stmt 0
	movq	-240(%rbp), %rdi
	.loc	6 618 15 is_stmt 1
	addq	$32, %rdi
Ltmp1412:
	callq	__ZN4core4cell13Cell$LT$T$GT$3get17h91f3150f3f68e435E
Ltmp1413:
	movq	%rax, -312(%rbp)
	jmp	LBB50_20
Ltmp1500:
LBB50_20:
	.loc	6 0 15 is_stmt 0
	movq	-248(%rbp), %rsi
	movq	-312(%rbp), %rdi
	.loc	6 618 13
	subq	$-128, %rdi
Ltmp1414:
	callq	__ZN4core4cell13Cell$LT$T$GT$3set17hd9caf1a89fe8b476E
Ltmp1415:
	jmp	LBB50_21
Ltmp1501:
LBB50_21:
	jmp	LBB50_22
Ltmp1502:
LBB50_22:
	.loc	6 0 13
	movq	-248(%rbp), %rsi
	movq	-240(%rbp), %rdi
	.loc	6 622 9 is_stmt 1
	addq	$32, %rdi
Ltmp1416:
	callq	__ZN4core4cell13Cell$LT$T$GT$3set17hd9caf1a89fe8b476E
Ltmp1417:
	jmp	LBB50_24
Ltmp1503:
LBB50_23:
	.loc	6 620 13
	jmp	LBB50_22
Ltmp1504:
LBB50_24:
	.loc	6 0 13 is_stmt 0
	movq	-240(%rbp), %rdi
	.loc	6 624 9 is_stmt 1
	addq	$16, %rdi
Ltmp1418:
	callq	__ZN16parking_lot_core9word_lock8WordLock6unlock17hcabffee10591cf5aE
Ltmp1419:
	jmp	LBB50_25
Ltmp1505:
LBB50_25:
	.loc	6 627 9
	movb	$0, -130(%rbp)
Ltmp1420:
	callq	__ZN4core3ops8function6FnOnce9call_once17h99809a5787656db5E
Ltmp1421:
	jmp	LBB50_26
Ltmp1506:
LBB50_26:
	.loc	6 0 9 is_stmt 0
	movq	-256(%rbp), %rax
	.loc	6 632 30 is_stmt 1
	movq	16(%rax), %rax
	.loc	6 632 24 is_stmt 0
	cmpq	$0, (%rax)
	jne	LBB50_28
Ltmp1507:
Ltmp1424:
	.loc	6 0 24
	movq	-248(%rbp), %rdi
	.loc	6 635 17 is_stmt 1
	callq	__ZN117_$LT$parking_lot_core..thread_parker..imp..ThreadParker$u20$as$u20$parking_lot_core..thread_parker..ThreadParkerT$GT$4park17ha6245edde015e8afE
Ltmp1425:
	jmp	LBB50_31
Ltmp1508:
LBB50_28:
	.loc	6 0 17 is_stmt 0
	movq	-248(%rbp), %rdi
	movq	-256(%rbp), %rax
	.loc	6 633 18 is_stmt 1
	movq	16(%rax), %rax
	movq	8(%rax), %rsi
	movq	%rsi, -96(%rbp)
Ltmp1422:
Ltmp1509:
	.loc	6 633 30 is_stmt 0
	callq	__ZN117_$LT$parking_lot_core..thread_parker..imp..ThreadParker$u20$as$u20$parking_lot_core..thread_parker..ThreadParkerT$GT$10park_until17h097183bd30d4c78cE
Ltmp1423:
	movb	%al, -313(%rbp)
	jmp	LBB50_29
Ltmp1510:
LBB50_29:
	.loc	6 0 30
	movb	-313(%rbp), %al
	.loc	6 633 30
	andb	$1, %al
	movb	%al, -209(%rbp)
Ltmp1511:
LBB50_30:
	.loc	6 643 12 is_stmt 1
	testb	$1, -209(%rbp)
	jne	LBB50_34
	jmp	LBB50_33
Ltmp1512:
LBB50_31:
Ltmp1426:
	.loc	6 0 12 is_stmt 0
	movq	-248(%rbp), %rdi
	.loc	6 637 17 is_stmt 1
	callq	__ZN16parking_lot_core11parking_lot8deadlock9on_unpark17he38a3a8561164bf8E
Ltmp1427:
	jmp	LBB50_32
Ltmp1513:
LBB50_32:
	.loc	6 638 17
	movb	$1, -209(%rbp)
	jmp	LBB50_30
Ltmp1514:
LBB50_33:
	.loc	6 0 17 is_stmt 0
	movq	-248(%rbp), %rdi
Ltmp1515:
	.loc	6 649 49 is_stmt 1
	addq	$120, %rdi
Ltmp1428:
	.loc	6 649 29 is_stmt 0
	callq	__ZN16parking_lot_core11parking_lot19lock_bucket_checked17h08182d2afda6f172E
Ltmp1429:
	movq	%rdx, -336(%rbp)
	movq	%rax, -328(%rbp)
	jmp	LBB50_36
Ltmp1516:
LBB50_34:
	.loc	6 0 29
	movq	-248(%rbp), %rdi
	.loc	6 644 41 is_stmt 1
	addq	$136, %rdi
Ltmp1468:
	callq	__ZN4core4cell13Cell$LT$T$GT$3get17hb032541bda91d071E
Ltmp1469:
	movq	%rax, -344(%rbp)
	jmp	LBB50_35
Ltmp1517:
LBB50_35:
	.loc	6 0 41 is_stmt 0
	movq	-344(%rbp), %rax
	.loc	6 644 20
	movq	%rax, -224(%rbp)
	movq	$0, -232(%rbp)
	.loc	10 1 1 is_stmt 1
	jmp	LBB50_8
Ltmp1518:
LBB50_36:
	.loc	10 0 1 is_stmt 0
	movq	-248(%rbp), %rdi
	movq	-336(%rbp), %rax
	movq	-328(%rbp), %rcx
	.loc	6 649 29 is_stmt 1
	movq	%rcx, %rdx
	movq	%rdx, -368(%rbp)
	movq	%rax, %rdx
	movq	%rdx, -360(%rbp)
	.loc	6 649 14 is_stmt 0
	movq	%rcx, -88(%rbp)
	.loc	6 649 19
	movq	%rax, -80(%rbp)
Ltmp1430:
Ltmp1519:
	.loc	6 653 13 is_stmt 1
	callq	__ZN117_$LT$parking_lot_core..thread_parker..imp..ThreadParker$u20$as$u20$parking_lot_core..thread_parker..ThreadParkerT$GT$9timed_out17h57a36ba3376cf27cE
Ltmp1431:
	movb	%al, -345(%rbp)
	jmp	LBB50_37
Ltmp1520:
LBB50_37:
	.loc	6 0 13 is_stmt 0
	movb	-345(%rbp), %al
	.loc	6 653 12
	xorb	$-1, %al
	testb	$1, %al
	jne	LBB50_39
Ltmp1521:
	.loc	6 0 12
	movq	-360(%rbp), %rdi
	.loc	6 660 24 is_stmt 1
	addq	$24, %rdi
	movq	%rdi, -208(%rbp)
Ltmp1432:
Ltmp1522:
	.loc	6 661 27
	callq	__ZN4core4cell13Cell$LT$T$GT$3get17h91f3150f3f68e435E
Ltmp1433:
	movq	%rax, -376(%rbp)
	jmp	LBB50_46
Ltmp1523:
LBB50_39:
	.loc	6 0 27 is_stmt 0
	movq	-360(%rbp), %rdi
	.loc	6 655 13 is_stmt 1
	addq	$16, %rdi
Ltmp1464:
	callq	__ZN16parking_lot_core9word_lock8WordLock6unlock17hcabffee10591cf5aE
Ltmp1465:
	jmp	LBB50_40
Ltmp1524:
LBB50_40:
	.loc	6 0 13 is_stmt 0
	movq	-248(%rbp), %rdi
	.loc	6 656 41 is_stmt 1
	addq	$136, %rdi
Ltmp1466:
	callq	__ZN4core4cell13Cell$LT$T$GT$3get17hb032541bda91d071E
Ltmp1467:
	movq	%rax, -384(%rbp)
	jmp	LBB50_41
Ltmp1525:
LBB50_41:
	.loc	6 0 41 is_stmt 0
	movq	-384(%rbp), %rax
	.loc	6 656 20
	movq	%rax, -224(%rbp)
	movq	$0, -232(%rbp)
Ltmp1526:
	.loc	10 1 1 is_stmt 1
	jmp	LBB50_8
Ltmp1527:
LBB50_42:
	.loc	6 705 5
	jmp	LBB50_45
Ltmp1528:
LBB50_43:
	jmp	LBB50_42
Ltmp1529:
LBB50_44:
	.loc	6 600 22
	movq	-120(%rbp), %rdi
	callq	__Unwind_Resume
Ltmp1530:
LBB50_45:
	.loc	6 705 6
	movq	-232(%rbp), %rax
	movq	-224(%rbp), %rdx
	addq	$464, %rsp
	popq	%rbp
	retq
Ltmp1531:
LBB50_46:
	.loc	6 0 6 is_stmt 0
	movq	-376(%rbp), %rax
Ltmp1532:
	.loc	6 661 27 is_stmt 1
	movq	%rax, -200(%rbp)
Ltmp1533:
	.loc	7 568 14
	movq	$0, -48(%rbp)
	movq	-48(%rbp), %rax
	movq	%rax, -40(%rbp)
Ltmp1534:
	.loc	8 118 36
	movq	%rax, -56(%rbp)
	.loc	8 118 14 is_stmt 0
	movq	-56(%rbp), %rax
	movq	%rax, -64(%rbp)
	movq	-64(%rbp), %rax
	movq	%rax, -392(%rbp)
Ltmp1535:
	.loc	8 0 14
	movq	-392(%rbp), %rax
	.loc	6 662 28 is_stmt 1
	movq	%rax, -192(%rbp)
Ltmp1536:
	.loc	6 663 35
	movb	$1, -177(%rbp)
Ltmp1537:
LBB50_48:
	.loc	6 664 16
	movq	-200(%rbp), %rdi
Ltmp1434:
	callq	__ZN4core3ptr9const_ptr33_$LT$impl$u20$$BP$const$u20$T$GT$7is_null17h4f24a6938c63d2a7E
Ltmp1435:
	movb	%al, -393(%rbp)
	jmp	LBB50_49
Ltmp1538:
LBB50_49:
	.loc	6 0 16 is_stmt 0
	movb	-393(%rbp), %al
	.loc	6 664 15
	xorb	$-1, %al
	testb	$1, %al
	jne	LBB50_51
Ltmp1539:
LBB50_50:
	.loc	6 699 24 is_stmt 1
	movq	-200(%rbp), %rdi
Ltmp1458:
	callq	__ZN4core3ptr9const_ptr33_$LT$impl$u20$$BP$const$u20$T$GT$7is_null17h4f24a6938c63d2a7E
Ltmp1459:
	movb	%al, -394(%rbp)
	jmp	LBB50_74
Ltmp1540:
LBB50_51:
	.loc	6 0 24 is_stmt 0
	movq	-248(%rbp), %rax
	.loc	6 665 27 is_stmt 1
	movq	%rax, -176(%rbp)
Ltmp1436:
	leaq	-200(%rbp), %rdi
	leaq	-176(%rbp), %rsi
	.loc	6 665 16 is_stmt 0
	callq	__ZN4core3ptr9const_ptr66_$LT$impl$u20$core..cmp..PartialEq$u20$for$u20$$BP$const$u20$T$GT$2eq17had46a84085ce8227E
Ltmp1437:
	movb	%al, -395(%rbp)
	jmp	LBB50_52
Ltmp1541:
LBB50_52:
	.loc	6 0 16
	movb	-395(%rbp), %al
	.loc	6 665 16
	testb	$1, %al
	jne	LBB50_54
	jmp	LBB50_53
Ltmp1542:
LBB50_53:
	.loc	6 688 20 is_stmt 1
	movq	-200(%rbp), %rdi
	addq	$120, %rdi
	.loc	6 688 40 is_stmt 0
	movb	$0, -132(%rbp)
	.loc	6 688 20
	movzbl	-132(%rbp), %esi
Ltmp1438:
	callq	__ZN4core4sync6atomic11AtomicUsize4load17h9f59030344c744f2E
Ltmp1439:
	movq	%rax, -408(%rbp)
	jmp	LBB50_70
Ltmp1543:
LBB50_54:
	.loc	6 666 28 is_stmt 1
	movq	-200(%rbp), %rdi
	subq	$-128, %rdi
Ltmp1442:
	callq	__ZN4core4cell13Cell$LT$T$GT$3get17h91f3150f3f68e435E
Ltmp1443:
	movq	%rax, -416(%rbp)
	jmp	LBB50_55
Ltmp1544:
LBB50_55:
	.loc	6 0 28 is_stmt 0
	movq	-416(%rbp), %rsi
	.loc	6 666 28
	movq	%rsi, -72(%rbp)
Ltmp1545:
	.loc	6 667 17 is_stmt 1
	movq	-208(%rbp), %rdi
Ltmp1444:
	callq	__ZN4core4cell13Cell$LT$T$GT$3set17hd9caf1a89fe8b476E
Ltmp1445:
	jmp	LBB50_56
Ltmp1546:
LBB50_56:
	.loc	6 0 17 is_stmt 0
	movq	-360(%rbp), %rdi
	.loc	6 668 20 is_stmt 1
	addq	$32, %rdi
Ltmp1446:
	callq	__ZN4core4cell13Cell$LT$T$GT$3get17h91f3150f3f68e435E
Ltmp1447:
	movq	%rax, -424(%rbp)
	jmp	LBB50_57
Ltmp1547:
LBB50_57:
	.loc	6 0 20 is_stmt 0
	movq	-424(%rbp), %rax
	.loc	6 668 20
	cmpq	-200(%rbp), %rax
	je	LBB50_59
Ltmp1548:
	.loc	6 0 20
	movq	-416(%rbp), %rax
	.loc	6 673 36 is_stmt 1
	movq	%rax, -168(%rbp)
Ltmp1549:
	.loc	6 674 21
	jmp	LBB50_62
Ltmp1550:
LBB50_59:
	.loc	6 0 21 is_stmt 0
	movq	-360(%rbp), %rdi
	.loc	6 669 21 is_stmt 1
	addq	$32, %rdi
	.loc	6 669 43 is_stmt 0
	movq	-192(%rbp), %rsi
Ltmp1454:
	.loc	6 669 21
	callq	__ZN4core4cell13Cell$LT$T$GT$3set17hd9caf1a89fe8b476E
Ltmp1455:
	jmp	LBB50_60
Ltmp1551:
LBB50_60:
	jmp	LBB50_61
Ltmp1552:
LBB50_61:
	.loc	6 0 21
	movq	-368(%rbp), %rcx
	movq	-256(%rbp), %rax
	.loc	6 685 17 is_stmt 1
	movb	$0, -131(%rbp)
	movq	32(%rax), %rdi
	.loc	6 685 32 is_stmt 0
	movb	-177(%rbp), %al
	.loc	6 685 17
	movq	%rcx, -152(%rbp)
	movb	%al, -144(%rbp)
	movq	-152(%rbp), %rsi
	movzbl	-144(%rbp), %edx
Ltmp1456:
	callq	__ZN4core3ops8function6FnOnce9call_once17h79337573754e8975E
Ltmp1457:
	jmp	LBB50_69
Ltmp1553:
LBB50_62:
	.loc	6 674 28 is_stmt 1
	movq	-168(%rbp), %rdi
Ltmp1448:
	callq	__ZN4core3ptr9const_ptr33_$LT$impl$u20$$BP$const$u20$T$GT$7is_null17h4f24a6938c63d2a7E
Ltmp1449:
	movb	%al, -425(%rbp)
	jmp	LBB50_63
Ltmp1554:
LBB50_63:
	.loc	6 0 28 is_stmt 0
	movb	-425(%rbp), %al
	.loc	6 674 27
	xorb	$-1, %al
	testb	$1, %al
	jne	LBB50_64
	jmp	LBB50_61
Ltmp1555:
LBB50_64:
	.loc	6 675 28 is_stmt 1
	movq	-168(%rbp), %rdi
	addq	$120, %rdi
	.loc	6 675 45 is_stmt 0
	movb	$0, -153(%rbp)
	.loc	6 675 28
	movzbl	-153(%rbp), %esi
Ltmp1450:
	callq	__ZN4core4sync6atomic11AtomicUsize4load17h9f59030344c744f2E
Ltmp1451:
	movq	%rax, -440(%rbp)
	jmp	LBB50_65
Ltmp1556:
LBB50_65:
	.loc	6 0 28
	movq	-440(%rbp), %rax
	movq	-368(%rbp), %rcx
	.loc	6 675 28
	cmpq	%rcx, %rax
	je	LBB50_67
Ltmp1557:
	.loc	6 679 32 is_stmt 1
	movq	-168(%rbp), %rdi
	subq	$-128, %rdi
Ltmp1452:
	callq	__ZN4core4cell13Cell$LT$T$GT$3get17h91f3150f3f68e435E
Ltmp1453:
	movq	%rax, -448(%rbp)
	jmp	LBB50_68
Ltmp1558:
LBB50_67:
	.loc	6 676 29
	movb	$0, -177(%rbp)
	.loc	10 1 1
	jmp	LBB50_61
Ltmp1559:
LBB50_68:
	.loc	10 0 1 is_stmt 0
	movq	-448(%rbp), %rax
	.loc	6 679 25 is_stmt 1
	movq	%rax, -168(%rbp)
	.loc	6 674 21
	jmp	LBB50_62
Ltmp1560:
LBB50_69:
	.loc	6 685 17
	jmp	LBB50_50
Ltmp1561:
LBB50_70:
	.loc	6 0 17 is_stmt 0
	movq	-408(%rbp), %rax
	movq	-368(%rbp), %rcx
	.loc	6 688 20 is_stmt 1
	cmpq	%rcx, %rax
	je	LBB50_72
Ltmp1562:
LBB50_71:
	.loc	6 691 24
	movq	-200(%rbp), %rax
	subq	$-128, %rax
	.loc	6 691 17 is_stmt 0
	movq	%rax, -208(%rbp)
	.loc	6 692 28 is_stmt 1
	movq	-200(%rbp), %rax
	.loc	6 692 17 is_stmt 0
	movq	%rax, -192(%rbp)
	.loc	6 693 27 is_stmt 1
	movq	-208(%rbp), %rdi
Ltmp1440:
	callq	__ZN4core4cell13Cell$LT$T$GT$3get17h91f3150f3f68e435E
Ltmp1441:
	movq	%rax, -456(%rbp)
	jmp	LBB50_73
Ltmp1563:
LBB50_72:
	.loc	6 689 21
	movb	$0, -177(%rbp)
	.loc	6 688 17
	jmp	LBB50_71
Ltmp1564:
LBB50_73:
	.loc	6 0 17 is_stmt 0
	movq	-456(%rbp), %rax
	.loc	6 693 17 is_stmt 1
	movq	%rax, -200(%rbp)
	.loc	6 664 9
	jmp	LBB50_48
Ltmp1565:
LBB50_74:
	.loc	6 0 9 is_stmt 0
	movb	-394(%rbp), %al
	.loc	6 699 23 is_stmt 1
	xorb	$-1, %al
	.loc	6 699 9 is_stmt 0
	xorb	$-1, %al
	testb	$1, %al
	jne	LBB50_76
Ltmp1566:
	.loc	6 0 9
	movq	-360(%rbp), %rdi
	.loc	6 703 9 is_stmt 1
	addq	$16, %rdi
Ltmp1460:
	callq	__ZN16parking_lot_core9word_lock8WordLock6unlock17hcabffee10591cf5aE
Ltmp1461:
	jmp	LBB50_78
Ltmp1567:
LBB50_76:
Ltmp1462:
	.loc	6 699 9
	leaq	l___unnamed_38(%rip), %rdi
	leaq	l___unnamed_39(%rip), %rdx
	movl	$36, %esi
	callq	__ZN4core9panicking5panic17hc1bc45270cf64b03E
Ltmp1463:
	jmp	LBB50_77
Ltmp1568:
LBB50_77:
	.loc	6 0 9 is_stmt 0
	ud2
Ltmp1569:
LBB50_78:
	.loc	6 704 9 is_stmt 1
	movq	$2, -232(%rbp)
Ltmp1570:
	.loc	6 705 5
	testb	$1, -131(%rbp)
	jne	LBB50_84
	jmp	LBB50_45
Ltmp1571:
LBB50_79:
	testb	$1, -130(%rbp)
	jne	LBB50_82
	jmp	LBB50_81
Ltmp1572:
LBB50_80:
	jmp	LBB50_79
Ltmp1573:
LBB50_81:
	testb	$1, -131(%rbp)
	jne	LBB50_83
	jmp	LBB50_44
Ltmp1574:
LBB50_82:
	jmp	LBB50_81
Ltmp1575:
LBB50_83:
	jmp	LBB50_44
Ltmp1576:
LBB50_84:
	jmp	LBB50_45
Ltmp1577:
Lfunc_end50:
	.cfi_endproc
	.section	__TEXT,__gcc_except_tab
	.p2align	2
GCC_except_table50:
Lexception17:
	.byte	255
	.byte	255
	.byte	1
	.uleb128 Lcst_end17-Lcst_begin17
Lcst_begin17:
	.uleb128 Ltmp1390-Lfunc_begin50
	.uleb128 Ltmp1467-Ltmp1390
	.uleb128 Ltmp1472-Lfunc_begin50
	.byte	0
	.uleb128 Ltmp1467-Lfunc_begin50
	.uleb128 Ltmp1434-Ltmp1467
	.byte	0
	.byte	0
	.uleb128 Ltmp1434-Lfunc_begin50
	.uleb128 Ltmp1463-Ltmp1434
	.uleb128 Ltmp1472-Lfunc_begin50
	.byte	0
Lcst_end17:
	.p2align	2

	.section	__TEXT,__text,regular,pure_instructions
	.globl	__ZN16parking_lot_core11parking_lot4park28_$u7b$$u7b$closure$u7d$$u7d$17h2e95378f750ac06fE
	.p2align	4, 0x90
__ZN16parking_lot_core11parking_lot4park28_$u7b$$u7b$closure$u7d$$u7d$17h2e95378f750ac06fE:
Lfunc_begin51:
	.loc	6 600 0
	.cfi_startproc
	.cfi_personality 155, _rust_eh_personality
	.cfi_lsda 16, Lexception18
	pushq	%rbp
	.cfi_def_cfa_offset 16
	.cfi_offset %rbp, -16
	movq	%rsp, %rbp
	.cfi_def_cfa_register %rbp
	subq	$464, %rsp
	movq	%rdi, -256(%rbp)
Ltmp1661:
	movq	%rsi, -248(%rbp)
	movq	%rsi, -128(%rbp)
Ltmp1662:
	.loc	6 602 13 prologue_end
	movb	$0, -129(%rbp)
	movb	$0, -130(%rbp)
	movb	$0, -131(%rbp)
	movb	$1, -131(%rbp)
	movb	$1, -130(%rbp)
	movb	$1, -129(%rbp)
	.loc	6 602 34 is_stmt 0
	movq	(%rdi), %rax
	movq	(%rax), %rdi
Ltmp1663:
Ltmp1578:
	.loc	6 602 22
	callq	__ZN16parking_lot_core11parking_lot11lock_bucket17h7d64fcc90ba48539E
Ltmp1579:
	movq	%rax, -240(%rbp)
Ltmp1664:
	jmp	LBB51_3
Ltmp1665:
LBB51_1:
	.loc	6 705 5 is_stmt 1
	testb	$1, -129(%rbp)
	jne	LBB51_80
	jmp	LBB51_79
Ltmp1666:
LBB51_2:
Ltmp1660:
	.loc	6 0 5 is_stmt 0
	movq	%rax, %rcx
	movl	%edx, %eax
	movq	%rcx, -120(%rbp)
	movl	%eax, -112(%rbp)
	jmp	LBB51_1
Ltmp1667:
LBB51_3:
	movq	-256(%rbp), %rax
	movq	-240(%rbp), %rcx
	.loc	6 602 22 is_stmt 1
	movq	%rcx, -104(%rbp)
Ltmp1668:
	.loc	6 605 13
	movb	$0, -129(%rbp)
	movq	8(%rax), %rdi
Ltmp1580:
	callq	__ZN4core3ops8function6FnOnce9call_once17hdd584901a4f61b62E
Ltmp1581:
	movb	%al, -257(%rbp)
	jmp	LBB51_4
Ltmp1669:
LBB51_4:
	.loc	6 0 13 is_stmt 0
	movb	-257(%rbp), %al
	.loc	6 605 12
	xorb	$-1, %al
	testb	$1, %al
	jne	LBB51_6
Ltmp1670:
	.loc	6 0 12
	movq	-256(%rbp), %rax
	movq	-248(%rbp), %rcx
	.loc	6 612 9 is_stmt 1
	addq	$152, %rcx
	movq	%rcx, -272(%rbp)
	.loc	6 612 45 is_stmt 0
	movq	16(%rax), %rdi
Ltmp1582:
	callq	__ZN4core6option15Option$LT$T$GT$7is_some17h860db624a7c845a5E
Ltmp1583:
	movb	%al, -258(%rbp)
	jmp	LBB51_9
Ltmp1671:
LBB51_6:
	.loc	6 0 45
	movq	-240(%rbp), %rdi
	.loc	6 607 13 is_stmt 1
	addq	$16, %rdi
Ltmp1658:
	callq	__ZN16parking_lot_core9word_lock8WordLock6unlock17hcabffee10591cf5aE
Ltmp1659:
	jmp	LBB51_7
Ltmp1672:
LBB51_7:
	.loc	6 608 20
	movq	$1, -232(%rbp)
Ltmp1673:
LBB51_8:
	.loc	6 705 5
	testb	$1, -130(%rbp)
	jne	LBB51_43
	jmp	LBB51_42
Ltmp1674:
LBB51_9:
Ltmp1584:
	.loc	6 0 5 is_stmt 0
	movq	-272(%rbp), %rdi
	movb	-258(%rbp), %al
Ltmp1675:
	.loc	6 612 9 is_stmt 1
	movzbl	%al, %esi
	andl	$1, %esi
	callq	__ZN4core4cell13Cell$LT$T$GT$3set17h916739fa58dc872fE
Ltmp1585:
	jmp	LBB51_10
Ltmp1676:
LBB51_10:
	.loc	6 0 9 is_stmt 0
	movq	-248(%rbp), %rax
	.loc	6 613 9 is_stmt 1
	addq	$128, %rax
	movq	%rax, -288(%rbp)
Ltmp1677:
	.loc	7 568 14
	movq	$0, -16(%rbp)
	movq	-16(%rbp), %rax
	movq	%rax, -8(%rbp)
Ltmp1678:
	.loc	8 118 36
	movq	%rax, -24(%rbp)
	.loc	8 118 14 is_stmt 0
	movq	-24(%rbp), %rax
	movq	%rax, -32(%rbp)
	movq	-32(%rbp), %rax
	movq	%rax, -280(%rbp)
Ltmp1679:
Ltmp1586:
	.loc	8 0 14
	movq	-280(%rbp), %rsi
	movq	-288(%rbp), %rdi
	.loc	6 613 9 is_stmt 1
	callq	__ZN4core4cell13Cell$LT$T$GT$3set17hd9caf1a89fe8b476E
Ltmp1587:
	jmp	LBB51_12
Ltmp1680:
LBB51_12:
	.loc	6 0 9 is_stmt 0
	movq	-256(%rbp), %rax
	movq	-248(%rbp), %rdi
	.loc	6 614 9 is_stmt 1
	addq	$120, %rdi
	.loc	6 614 31 is_stmt 0
	movq	(%rax), %rax
	movq	(%rax), %rsi
	.loc	6 614 36
	movb	$0, -210(%rbp)
	.loc	6 614 9
	movzbl	-210(%rbp), %edx
Ltmp1588:
	callq	__ZN4core4sync6atomic11AtomicUsize5store17hb128536bfab4c5aaE
Ltmp1589:
	jmp	LBB51_13
Ltmp1681:
LBB51_13:
	.loc	6 0 9
	movq	-256(%rbp), %rax
	movq	-248(%rbp), %rdi
	.loc	6 615 9 is_stmt 1
	addq	$144, %rdi
	.loc	6 615 36 is_stmt 0
	movq	24(%rax), %rax
	movq	(%rax), %rsi
Ltmp1590:
	.loc	6 615 9
	callq	__ZN4core4cell13Cell$LT$T$GT$3set17h9822514a62c2ad29E
Ltmp1591:
	jmp	LBB51_14
Ltmp1682:
LBB51_14:
Ltmp1592:
	.loc	6 0 9
	movq	-248(%rbp), %rdi
	.loc	6 616 9 is_stmt 1
	callq	__ZN117_$LT$parking_lot_core..thread_parker..imp..ThreadParker$u20$as$u20$parking_lot_core..thread_parker..ThreadParkerT$GT$12prepare_park17h6d5edcea5e75f839E
Ltmp1593:
	jmp	LBB51_15
Ltmp1683:
LBB51_15:
	.loc	6 0 9 is_stmt 0
	movq	-240(%rbp), %rdi
	.loc	6 617 13 is_stmt 1
	addq	$24, %rdi
Ltmp1594:
	callq	__ZN4core4cell13Cell$LT$T$GT$3get17h91f3150f3f68e435E
Ltmp1595:
	movq	%rax, -296(%rbp)
	jmp	LBB51_16
Ltmp1684:
LBB51_16:
Ltmp1596:
	.loc	6 0 13 is_stmt 0
	movq	-296(%rbp), %rdi
	.loc	6 617 13
	callq	__ZN4core3ptr9const_ptr33_$LT$impl$u20$$BP$const$u20$T$GT$7is_null17h4f24a6938c63d2a7E
Ltmp1597:
	movb	%al, -297(%rbp)
	jmp	LBB51_17
Ltmp1685:
LBB51_17:
	.loc	6 0 13
	movb	-297(%rbp), %al
	.loc	6 617 12
	xorb	$-1, %al
	testb	$1, %al
	jne	LBB51_19
Ltmp1686:
	.loc	6 0 12
	movq	-248(%rbp), %rsi
	movq	-240(%rbp), %rdi
	.loc	6 620 13 is_stmt 1
	addq	$24, %rdi
Ltmp1598:
	callq	__ZN4core4cell13Cell$LT$T$GT$3set17hd9caf1a89fe8b476E
Ltmp1599:
	jmp	LBB51_23
Ltmp1687:
LBB51_19:
	.loc	6 0 13 is_stmt 0
	movq	-240(%rbp), %rdi
	.loc	6 618 15 is_stmt 1
	addq	$32, %rdi
Ltmp1600:
	callq	__ZN4core4cell13Cell$LT$T$GT$3get17h91f3150f3f68e435E
Ltmp1601:
	movq	%rax, -312(%rbp)
	jmp	LBB51_20
Ltmp1688:
LBB51_20:
	.loc	6 0 15 is_stmt 0
	movq	-248(%rbp), %rsi
	movq	-312(%rbp), %rdi
	.loc	6 618 13
	subq	$-128, %rdi
Ltmp1602:
	callq	__ZN4core4cell13Cell$LT$T$GT$3set17hd9caf1a89fe8b476E
Ltmp1603:
	jmp	LBB51_21
Ltmp1689:
LBB51_21:
	jmp	LBB51_22
Ltmp1690:
LBB51_22:
	.loc	6 0 13
	movq	-248(%rbp), %rsi
	movq	-240(%rbp), %rdi
	.loc	6 622 9 is_stmt 1
	addq	$32, %rdi
Ltmp1604:
	callq	__ZN4core4cell13Cell$LT$T$GT$3set17hd9caf1a89fe8b476E
Ltmp1605:
	jmp	LBB51_24
Ltmp1691:
LBB51_23:
	.loc	6 620 13
	jmp	LBB51_22
Ltmp1692:
LBB51_24:
	.loc	6 0 13 is_stmt 0
	movq	-240(%rbp), %rdi
	.loc	6 624 9 is_stmt 1
	addq	$16, %rdi
Ltmp1606:
	callq	__ZN16parking_lot_core9word_lock8WordLock6unlock17hcabffee10591cf5aE
Ltmp1607:
	jmp	LBB51_25
Ltmp1693:
LBB51_25:
	.loc	6 627 9
	movb	$0, -130(%rbp)
Ltmp1608:
	callq	__ZN4core3ops8function6FnOnce9call_once17h8751da7c8df6cf84E
Ltmp1609:
	jmp	LBB51_26
Ltmp1694:
LBB51_26:
	.loc	6 0 9 is_stmt 0
	movq	-256(%rbp), %rax
	.loc	6 632 30 is_stmt 1
	movq	16(%rax), %rax
	.loc	6 632 24 is_stmt 0
	cmpq	$0, (%rax)
	jne	LBB51_28
Ltmp1695:
Ltmp1612:
	.loc	6 0 24
	movq	-248(%rbp), %rdi
	.loc	6 635 17 is_stmt 1
	callq	__ZN117_$LT$parking_lot_core..thread_parker..imp..ThreadParker$u20$as$u20$parking_lot_core..thread_parker..ThreadParkerT$GT$4park17ha6245edde015e8afE
Ltmp1613:
	jmp	LBB51_31
Ltmp1696:
LBB51_28:
	.loc	6 0 17 is_stmt 0
	movq	-248(%rbp), %rdi
	movq	-256(%rbp), %rax
	.loc	6 633 18 is_stmt 1
	movq	16(%rax), %rax
	movq	8(%rax), %rsi
	movq	%rsi, -96(%rbp)
Ltmp1610:
Ltmp1697:
	.loc	6 633 30 is_stmt 0
	callq	__ZN117_$LT$parking_lot_core..thread_parker..imp..ThreadParker$u20$as$u20$parking_lot_core..thread_parker..ThreadParkerT$GT$10park_until17h097183bd30d4c78cE
Ltmp1611:
	movb	%al, -313(%rbp)
	jmp	LBB51_29
Ltmp1698:
LBB51_29:
	.loc	6 0 30
	movb	-313(%rbp), %al
	.loc	6 633 30
	andb	$1, %al
	movb	%al, -209(%rbp)
Ltmp1699:
LBB51_30:
	.loc	6 643 12 is_stmt 1
	testb	$1, -209(%rbp)
	jne	LBB51_34
	jmp	LBB51_33
Ltmp1700:
LBB51_31:
Ltmp1614:
	.loc	6 0 12 is_stmt 0
	movq	-248(%rbp), %rdi
	.loc	6 637 17 is_stmt 1
	callq	__ZN16parking_lot_core11parking_lot8deadlock9on_unpark17he38a3a8561164bf8E
Ltmp1615:
	jmp	LBB51_32
Ltmp1701:
LBB51_32:
	.loc	6 638 17
	movb	$1, -209(%rbp)
	jmp	LBB51_30
Ltmp1702:
LBB51_33:
	.loc	6 0 17 is_stmt 0
	movq	-248(%rbp), %rdi
Ltmp1703:
	.loc	6 649 49 is_stmt 1
	addq	$120, %rdi
Ltmp1616:
	.loc	6 649 29 is_stmt 0
	callq	__ZN16parking_lot_core11parking_lot19lock_bucket_checked17h08182d2afda6f172E
Ltmp1617:
	movq	%rdx, -336(%rbp)
	movq	%rax, -328(%rbp)
	jmp	LBB51_36
Ltmp1704:
LBB51_34:
	.loc	6 0 29
	movq	-248(%rbp), %rdi
	.loc	6 644 41 is_stmt 1
	addq	$136, %rdi
Ltmp1656:
	callq	__ZN4core4cell13Cell$LT$T$GT$3get17hb032541bda91d071E
Ltmp1657:
	movq	%rax, -344(%rbp)
	jmp	LBB51_35
Ltmp1705:
LBB51_35:
	.loc	6 0 41 is_stmt 0
	movq	-344(%rbp), %rax
	.loc	6 644 20
	movq	%rax, -224(%rbp)
	movq	$0, -232(%rbp)
	.loc	10 1 1 is_stmt 1
	jmp	LBB51_8
Ltmp1706:
LBB51_36:
	.loc	10 0 1 is_stmt 0
	movq	-248(%rbp), %rdi
	movq	-336(%rbp), %rax
	movq	-328(%rbp), %rcx
	.loc	6 649 29 is_stmt 1
	movq	%rcx, %rdx
	movq	%rdx, -368(%rbp)
	movq	%rax, %rdx
	movq	%rdx, -360(%rbp)
	.loc	6 649 14 is_stmt 0
	movq	%rcx, -88(%rbp)
	.loc	6 649 19
	movq	%rax, -80(%rbp)
Ltmp1618:
Ltmp1707:
	.loc	6 653 13 is_stmt 1
	callq	__ZN117_$LT$parking_lot_core..thread_parker..imp..ThreadParker$u20$as$u20$parking_lot_core..thread_parker..ThreadParkerT$GT$9timed_out17h57a36ba3376cf27cE
Ltmp1619:
	movb	%al, -345(%rbp)
	jmp	LBB51_37
Ltmp1708:
LBB51_37:
	.loc	6 0 13 is_stmt 0
	movb	-345(%rbp), %al
	.loc	6 653 12
	xorb	$-1, %al
	testb	$1, %al
	jne	LBB51_39
Ltmp1709:
	.loc	6 0 12
	movq	-360(%rbp), %rdi
	.loc	6 660 24 is_stmt 1
	addq	$24, %rdi
	movq	%rdi, -208(%rbp)
Ltmp1620:
Ltmp1710:
	.loc	6 661 27
	callq	__ZN4core4cell13Cell$LT$T$GT$3get17h91f3150f3f68e435E
Ltmp1621:
	movq	%rax, -376(%rbp)
	jmp	LBB51_46
Ltmp1711:
LBB51_39:
	.loc	6 0 27 is_stmt 0
	movq	-360(%rbp), %rdi
	.loc	6 655 13 is_stmt 1
	addq	$16, %rdi
Ltmp1652:
	callq	__ZN16parking_lot_core9word_lock8WordLock6unlock17hcabffee10591cf5aE
Ltmp1653:
	jmp	LBB51_40
Ltmp1712:
LBB51_40:
	.loc	6 0 13 is_stmt 0
	movq	-248(%rbp), %rdi
	.loc	6 656 41 is_stmt 1
	addq	$136, %rdi
Ltmp1654:
	callq	__ZN4core4cell13Cell$LT$T$GT$3get17hb032541bda91d071E
Ltmp1655:
	movq	%rax, -384(%rbp)
	jmp	LBB51_41
Ltmp1713:
LBB51_41:
	.loc	6 0 41 is_stmt 0
	movq	-384(%rbp), %rax
	.loc	6 656 20
	movq	%rax, -224(%rbp)
	movq	$0, -232(%rbp)
Ltmp1714:
	.loc	10 1 1 is_stmt 1
	jmp	LBB51_8
Ltmp1715:
LBB51_42:
	.loc	6 705 5
	jmp	LBB51_45
Ltmp1716:
LBB51_43:
	jmp	LBB51_42
Ltmp1717:
LBB51_44:
	.loc	6 600 22
	movq	-120(%rbp), %rdi
	callq	__Unwind_Resume
Ltmp1718:
LBB51_45:
	.loc	6 705 6
	movq	-232(%rbp), %rax
	movq	-224(%rbp), %rdx
	addq	$464, %rsp
	popq	%rbp
	retq
Ltmp1719:
LBB51_46:
	.loc	6 0 6 is_stmt 0
	movq	-376(%rbp), %rax
Ltmp1720:
	.loc	6 661 27 is_stmt 1
	movq	%rax, -200(%rbp)
Ltmp1721:
	.loc	7 568 14
	movq	$0, -48(%rbp)
	movq	-48(%rbp), %rax
	movq	%rax, -40(%rbp)
Ltmp1722:
	.loc	8 118 36
	movq	%rax, -56(%rbp)
	.loc	8 118 14 is_stmt 0
	movq	-56(%rbp), %rax
	movq	%rax, -64(%rbp)
	movq	-64(%rbp), %rax
	movq	%rax, -392(%rbp)
Ltmp1723:
	.loc	8 0 14
	movq	-392(%rbp), %rax
	.loc	6 662 28 is_stmt 1
	movq	%rax, -192(%rbp)
Ltmp1724:
	.loc	6 663 35
	movb	$1, -177(%rbp)
Ltmp1725:
LBB51_48:
	.loc	6 664 16
	movq	-200(%rbp), %rdi
Ltmp1622:
	callq	__ZN4core3ptr9const_ptr33_$LT$impl$u20$$BP$const$u20$T$GT$7is_null17h4f24a6938c63d2a7E
Ltmp1623:
	movb	%al, -393(%rbp)
	jmp	LBB51_49
Ltmp1726:
LBB51_49:
	.loc	6 0 16 is_stmt 0
	movb	-393(%rbp), %al
	.loc	6 664 15
	xorb	$-1, %al
	testb	$1, %al
	jne	LBB51_51
Ltmp1727:
LBB51_50:
	.loc	6 699 24 is_stmt 1
	movq	-200(%rbp), %rdi
Ltmp1646:
	callq	__ZN4core3ptr9const_ptr33_$LT$impl$u20$$BP$const$u20$T$GT$7is_null17h4f24a6938c63d2a7E
Ltmp1647:
	movb	%al, -394(%rbp)
	jmp	LBB51_74
Ltmp1728:
LBB51_51:
	.loc	6 0 24 is_stmt 0
	movq	-248(%rbp), %rax
	.loc	6 665 27 is_stmt 1
	movq	%rax, -176(%rbp)
Ltmp1624:
	leaq	-200(%rbp), %rdi
	leaq	-176(%rbp), %rsi
	.loc	6 665 16 is_stmt 0
	callq	__ZN4core3ptr9const_ptr66_$LT$impl$u20$core..cmp..PartialEq$u20$for$u20$$BP$const$u20$T$GT$2eq17had46a84085ce8227E
Ltmp1625:
	movb	%al, -395(%rbp)
	jmp	LBB51_52
Ltmp1729:
LBB51_52:
	.loc	6 0 16
	movb	-395(%rbp), %al
	.loc	6 665 16
	testb	$1, %al
	jne	LBB51_54
	jmp	LBB51_53
Ltmp1730:
LBB51_53:
	.loc	6 688 20 is_stmt 1
	movq	-200(%rbp), %rdi
	addq	$120, %rdi
	.loc	6 688 40 is_stmt 0
	movb	$0, -132(%rbp)
	.loc	6 688 20
	movzbl	-132(%rbp), %esi
Ltmp1626:
	callq	__ZN4core4sync6atomic11AtomicUsize4load17h9f59030344c744f2E
Ltmp1627:
	movq	%rax, -408(%rbp)
	jmp	LBB51_70
Ltmp1731:
LBB51_54:
	.loc	6 666 28 is_stmt 1
	movq	-200(%rbp), %rdi
	subq	$-128, %rdi
Ltmp1630:
	callq	__ZN4core4cell13Cell$LT$T$GT$3get17h91f3150f3f68e435E
Ltmp1631:
	movq	%rax, -416(%rbp)
	jmp	LBB51_55
Ltmp1732:
LBB51_55:
	.loc	6 0 28 is_stmt 0
	movq	-416(%rbp), %rsi
	.loc	6 666 28
	movq	%rsi, -72(%rbp)
Ltmp1733:
	.loc	6 667 17 is_stmt 1
	movq	-208(%rbp), %rdi
Ltmp1632:
	callq	__ZN4core4cell13Cell$LT$T$GT$3set17hd9caf1a89fe8b476E
Ltmp1633:
	jmp	LBB51_56
Ltmp1734:
LBB51_56:
	.loc	6 0 17 is_stmt 0
	movq	-360(%rbp), %rdi
	.loc	6 668 20 is_stmt 1
	addq	$32, %rdi
Ltmp1634:
	callq	__ZN4core4cell13Cell$LT$T$GT$3get17h91f3150f3f68e435E
Ltmp1635:
	movq	%rax, -424(%rbp)
	jmp	LBB51_57
Ltmp1735:
LBB51_57:
	.loc	6 0 20 is_stmt 0
	movq	-424(%rbp), %rax
	.loc	6 668 20
	cmpq	-200(%rbp), %rax
	je	LBB51_59
Ltmp1736:
	.loc	6 0 20
	movq	-416(%rbp), %rax
	.loc	6 673 36 is_stmt 1
	movq	%rax, -168(%rbp)
Ltmp1737:
	.loc	6 674 21
	jmp	LBB51_62
Ltmp1738:
LBB51_59:
	.loc	6 0 21 is_stmt 0
	movq	-360(%rbp), %rdi
	.loc	6 669 21 is_stmt 1
	addq	$32, %rdi
	.loc	6 669 43 is_stmt 0
	movq	-192(%rbp), %rsi
Ltmp1642:
	.loc	6 669 21
	callq	__ZN4core4cell13Cell$LT$T$GT$3set17hd9caf1a89fe8b476E
Ltmp1643:
	jmp	LBB51_60
Ltmp1739:
LBB51_60:
	jmp	LBB51_61
Ltmp1740:
LBB51_61:
	.loc	6 0 21
	movq	-368(%rbp), %rcx
	.loc	6 685 17 is_stmt 1
	movb	$0, -131(%rbp)
	.loc	6 685 32 is_stmt 0
	movb	-177(%rbp), %al
	.loc	6 685 17
	movq	%rcx, -152(%rbp)
	movb	%al, -144(%rbp)
	movq	-152(%rbp), %rdi
	movzbl	-144(%rbp), %esi
Ltmp1644:
	callq	__ZN4core3ops8function6FnOnce9call_once17h5c585671df67823bE
Ltmp1645:
	jmp	LBB51_69
Ltmp1741:
LBB51_62:
	.loc	6 674 28 is_stmt 1
	movq	-168(%rbp), %rdi
Ltmp1636:
	callq	__ZN4core3ptr9const_ptr33_$LT$impl$u20$$BP$const$u20$T$GT$7is_null17h4f24a6938c63d2a7E
Ltmp1637:
	movb	%al, -425(%rbp)
	jmp	LBB51_63
Ltmp1742:
LBB51_63:
	.loc	6 0 28 is_stmt 0
	movb	-425(%rbp), %al
	.loc	6 674 27
	xorb	$-1, %al
	testb	$1, %al
	jne	LBB51_64
	jmp	LBB51_61
Ltmp1743:
LBB51_64:
	.loc	6 675 28 is_stmt 1
	movq	-168(%rbp), %rdi
	addq	$120, %rdi
	.loc	6 675 45 is_stmt 0
	movb	$0, -153(%rbp)
	.loc	6 675 28
	movzbl	-153(%rbp), %esi
Ltmp1638:
	callq	__ZN4core4sync6atomic11AtomicUsize4load17h9f59030344c744f2E
Ltmp1639:
	movq	%rax, -440(%rbp)
	jmp	LBB51_65
Ltmp1744:
LBB51_65:
	.loc	6 0 28
	movq	-440(%rbp), %rax
	movq	-368(%rbp), %rcx
	.loc	6 675 28
	cmpq	%rcx, %rax
	je	LBB51_67
Ltmp1745:
	.loc	6 679 32 is_stmt 1
	movq	-168(%rbp), %rdi
	subq	$-128, %rdi
Ltmp1640:
	callq	__ZN4core4cell13Cell$LT$T$GT$3get17h91f3150f3f68e435E
Ltmp1641:
	movq	%rax, -448(%rbp)
	jmp	LBB51_68
Ltmp1746:
LBB51_67:
	.loc	6 676 29
	movb	$0, -177(%rbp)
	.loc	10 1 1
	jmp	LBB51_61
Ltmp1747:
LBB51_68:
	.loc	10 0 1 is_stmt 0
	movq	-448(%rbp), %rax
	.loc	6 679 25 is_stmt 1
	movq	%rax, -168(%rbp)
	.loc	6 674 21
	jmp	LBB51_62
Ltmp1748:
LBB51_69:
	.loc	6 685 17
	jmp	LBB51_50
Ltmp1749:
LBB51_70:
	.loc	6 0 17 is_stmt 0
	movq	-408(%rbp), %rax
	movq	-368(%rbp), %rcx
	.loc	6 688 20 is_stmt 1
	cmpq	%rcx, %rax
	je	LBB51_72
Ltmp1750:
LBB51_71:
	.loc	6 691 24
	movq	-200(%rbp), %rax
	subq	$-128, %rax
	.loc	6 691 17 is_stmt 0
