	.section	__TEXT,__text,regular,pure_instructions
	.macosx_version_min 10, 7
	.globl	__ZN106_$LT$core..ops..range..Range$LT$usize$GT$$u20$as$u20$core..slice..index..SliceIndex$LT$$u5b$T$u5d$$GT$$GT$13get_unchecked17hda2805288b6cb9e5E
	.p2align	4, 0x90
__ZN106_$LT$core..ops..range..Range$LT$usize$GT$$u20$as$u20$core..slice..index..SliceIndex$LT$$u5b$T$u5d$$GT$$GT$13get_unchecked17hda2805288b6cb9e5E:
Lfunc_begin0:
	.file	1 "/rustc/2c8cc343237b8f7d5a3c3703e3a87f2eb2c54a74/library/core/src/slice" "index.rs"
	.loc	1 373 0
	.cfi_startproc
	pushq	%rbp
	.cfi_def_cfa_offset 16
	.cfi_offset %rbp, -16
	movq	%rsp, %rbp
	.cfi_def_cfa_register %rbp
	subq	$160, %rsp
	movq	%rdi, -128(%rbp)
	movq	%rsi, -120(%rbp)
	movq	%rdx, -112(%rbp)
	movq	%rcx, -104(%rbp)
Ltmp0:
	.loc	1 386 39 prologue_end
	movq	%rdx, -96(%rbp)
	movq	%rcx, -88(%rbp)
Ltmp1:
	.file	2 "/rustc/2c8cc343237b8f7d5a3c3703e3a87f2eb2c54a74/library/core/src/ptr" "const_ptr.rs"
	.loc	2 1650 9
	movq	%rdx, -80(%rbp)
Ltmp2:
	.loc	1 386 58
	movq	%rdi, -72(%rbp)
Ltmp3:
	.loc	2 932 18
	movq	%rdx, -64(%rbp)
	.loc	2 932 30 is_stmt 0
	movq	%rdi, -56(%rbp)
Ltmp4:
	.loc	2 473 18 is_stmt 1
	addq	%rdi, %rdx
	movq	%rdx, -48(%rbp)
	movq	-48(%rbp), %rax
	movq	%rax, -40(%rbp)
Ltmp5:
	.loc	1 386 71
	subq	%rdi, %rsi
	movq	%rsi, -32(%rbp)
Ltmp6:
	.file	3 "/rustc/2c8cc343237b8f7d5a3c3703e3a87f2eb2c54a74/library/core/src/ptr" "mod.rs"
	.loc	3 734 20
	movq	%rax, -24(%rbp)
Ltmp7:
	.loc	2 61 9
	movq	%rax, -16(%rbp)
Ltmp8:
	.loc	3 734 33
	movq	%rsi, -8(%rbp)
Ltmp9:
	.file	4 "/rustc/2c8cc343237b8f7d5a3c3703e3a87f2eb2c54a74/library/core/src/ptr" "metadata.rs"
	.loc	4 118 36
	movq	%rax, -144(%rbp)
	movq	%rsi, -136(%rbp)
	.loc	4 118 14 is_stmt 0
	movq	-144(%rbp), %rcx
	movq	-136(%rbp), %rax
	movq	%rcx, -160(%rbp)
	movq	%rax, -152(%rbp)
	movq	-160(%rbp), %rax
	movq	-152(%rbp), %rdx
Ltmp10:
	.loc	1 388 6 is_stmt 1
	addq	$160, %rsp
	popq	%rbp
	retq
Ltmp11:
Lfunc_end0:
	.cfi_endproc

	.globl	__ZN106_$LT$core..ops..range..Range$LT$usize$GT$$u20$as$u20$core..slice..index..SliceIndex$LT$$u5b$T$u5d$$GT$$GT$5index17h7363df975fb64a45E
	.p2align	4, 0x90
__ZN106_$LT$core..ops..range..Range$LT$usize$GT$$u20$as$u20$core..slice..index..SliceIndex$LT$$u5b$T$u5d$$GT$$GT$5index17h7363df975fb64a45E:
Lfunc_begin1:
	.loc	1 405 0
	.cfi_startproc
	pushq	%rbp
	.cfi_def_cfa_offset 16
	.cfi_offset %rbp, -16
	movq	%rsp, %rbp
	.cfi_def_cfa_register %rbp
	subq	$80, %rsp
	movq	%rdi, -72(%rbp)
	movq	%rsi, -64(%rbp)
	movq	%rdx, -56(%rbp)
	movq	%rcx, -48(%rbp)
	movq	%r8, -40(%rbp)
	movq	%rdi, -32(%rbp)
	movq	%rsi, -24(%rbp)
	movq	%rdx, -16(%rbp)
	movq	%rcx, -8(%rbp)
Ltmp12:
	.loc	1 406 12 prologue_end
	cmpq	%rsi, %rdi
	ja	LBB1_2
	.loc	1 0 12 is_stmt 0
	movq	-64(%rbp), %rax
	movq	-48(%rbp), %rcx
	.loc	1 408 19 is_stmt 1
	cmpq	%rcx, %rax
	ja	LBB1_4
	jmp	LBB1_3
LBB1_2:
	.loc	1 0 19 is_stmt 0
	movq	-40(%rbp), %rdx
	movq	-64(%rbp), %rsi
	movq	-72(%rbp), %rdi
	.loc	1 407 13 is_stmt 1
	callq	__ZN4core5slice5index22slice_index_order_fail17h0d8f800a07d5f26eE
LBB1_3:
	.loc	1 0 13 is_stmt 0
	movq	-48(%rbp), %rcx
	movq	-56(%rbp), %rdx
	movq	-64(%rbp), %rsi
	movq	-72(%rbp), %rdi
	.loc	1 412 20 is_stmt 1
	callq	__ZN106_$LT$core..ops..range..Range$LT$usize$GT$$u20$as$u20$core..slice..index..SliceIndex$LT$$u5b$T$u5d$$GT$$GT$13get_unchecked17hda2805288b6cb9e5E
	.loc	1 413 6
	addq	$80, %rsp
	popq	%rbp
	retq
LBB1_4:
	.loc	1 0 6 is_stmt 0
	movq	-40(%rbp), %rdx
	movq	-48(%rbp), %rsi
	movq	-64(%rbp), %rdi
	.loc	1 409 13 is_stmt 1
	callq	__ZN4core5slice5index24slice_end_index_len_fail17hc921cb2f1513645aE
Ltmp13:
Lfunc_end1:
	.cfi_endproc

	.globl	__ZN108_$LT$core..ops..range..RangeTo$LT$usize$GT$$u20$as$u20$core..slice..index..SliceIndex$LT$$u5b$T$u5d$$GT$$GT$5index17hba457f6176f9e0e6E
	.p2align	4, 0x90
__ZN108_$LT$core..ops..range..RangeTo$LT$usize$GT$$u20$as$u20$core..slice..index..SliceIndex$LT$$u5b$T$u5d$$GT$$GT$5index17hba457f6176f9e0e6E:
Lfunc_begin2:
	.loc	1 455 0
	.cfi_startproc
	pushq	%rbp
	.cfi_def_cfa_offset 16
	.cfi_offset %rbp, -16
	movq	%rsp, %rbp
	.cfi_def_cfa_register %rbp
	subq	$48, %rsp
	movq	%rcx, %r8
	movq	%rdx, %rcx
	movq	%rsi, %rdx
	movq	%rdi, -24(%rbp)
	movq	%rdx, -16(%rbp)
	movq	%rcx, -8(%rbp)
Ltmp14:
	.loc	1 456 9 prologue_end
	movq	$0, -40(%rbp)
	movq	%rdi, -32(%rbp)
	movq	-40(%rbp), %rdi
	movq	-32(%rbp), %rsi
	callq	__ZN106_$LT$core..ops..range..Range$LT$usize$GT$$u20$as$u20$core..slice..index..SliceIndex$LT$$u5b$T$u5d$$GT$$GT$5index17h7363df975fb64a45E
	.loc	1 457 6
	addq	$48, %rsp
	popq	%rbp
	retq
Ltmp15:
Lfunc_end2:
	.cfi_endproc

	.globl	__ZN110_$LT$core..iter..adapters..enumerate..Enumerate$LT$I$GT$$u20$as$u20$core..iter..traits..iterator..Iterator$GT$4next17hf3e83e2c7850454bE
	.p2align	4, 0x90
__ZN110_$LT$core..iter..adapters..enumerate..Enumerate$LT$I$GT$$u20$as$u20$core..iter..traits..iterator..Iterator$GT$4next17hf3e83e2c7850454bE:
Lfunc_begin3:
	.file	5 "/rustc/2c8cc343237b8f7d5a3c3703e3a87f2eb2c54a74/library/core/src/iter/adapters" "enumerate.rs"
	.loc	5 45 0
	.cfi_startproc
	.cfi_personality 155, _rust_eh_personality
	.cfi_lsda 16, Lexception0
	pushq	%rbp
	.cfi_def_cfa_offset 16
	.cfi_offset %rbp, -16
	movq	%rsp, %rbp
	.cfi_def_cfa_register %rbp
	subq	$160, %rsp
	movq	%rdi, -128(%rbp)
	movq	%rdi, -72(%rbp)
Ltmp19:
	.loc	5 46 17 prologue_end
	callq	__ZN91_$LT$core..slice..iter..Iter$LT$T$GT$$u20$as$u20$core..iter..traits..iterator..Iterator$GT$4next17h31666222c3d0f2eeE
	movq	%rax, -96(%rbp)
Ltmp20:
	.file	6 "/rustc/2c8cc343237b8f7d5a3c3703e3a87f2eb2c54a74/library/core/src" "option.rs"
	.loc	6 2407 15
	movq	-96(%rbp), %rdx
	movl	$1, %eax
	xorl	%ecx, %ecx
	cmpq	$0, %rdx
	cmoveq	%rcx, %rax
	.loc	6 2407 9 is_stmt 0
	cmpq	$0, %rax
	jne	LBB3_2
	.loc	6 2409 21 is_stmt 1
	movq	$0, -104(%rbp)
	.loc	6 2409 44 is_stmt 0
	jmp	LBB3_3
LBB3_2:
	.loc	6 2408 18 is_stmt 1
	movq	-96(%rbp), %rax
	movq	%rax, -48(%rbp)
Ltmp21:
	.loc	6 2408 24 is_stmt 0
	movq	%rax, -104(%rbp)
Ltmp22:
LBB3_3:
	.loc	5 46 17 is_stmt 1
	movq	-104(%rbp), %rdx
	xorl	%eax, %eax
	movl	$1, %ecx
	cmpq	$0, %rdx
	cmoveq	%rcx, %rax
	cmpq	$0, %rax
	jne	LBB3_5
	.loc	5 0 17 is_stmt 0
	movq	-128(%rbp), %rax
	.loc	5 46 17
	movq	-104(%rbp), %rcx
	movq	%rcx, -152(%rbp)
	movq	%rcx, -40(%rbp)
Ltmp23:
	.loc	5 46 17
	movq	%rcx, -32(%rbp)
Ltmp24:
	.loc	5 47 17 is_stmt 1
	movq	16(%rax), %rcx
	movq	%rcx, -144(%rbp)
	movq	%rcx, -24(%rbp)
Ltmp25:
	.loc	5 48 9
	movq	16(%rax), %rax
	addq	$1, %rax
	movq	%rax, -136(%rbp)
	setb	%al
	testb	$1, %al
	jne	LBB3_8
	jmp	LBB3_7
Ltmp26:
LBB3_5:
	.loc	6 2420 21
	movq	$0, -112(%rbp)
Ltmp27:
LBB3_6:
	.loc	5 50 6
	movq	-120(%rbp), %rax
	movq	-112(%rbp), %rdx
	addq	$160, %rsp
	popq	%rbp
	retq
LBB3_7:
	.loc	5 0 6 is_stmt 0
	movq	-152(%rbp), %rax
	movq	-144(%rbp), %rcx
	movq	-128(%rbp), %rdx
	movq	-136(%rbp), %rsi
Ltmp28:
	.loc	5 48 9 is_stmt 1
	movq	%rsi, 16(%rdx)
	.loc	5 49 14
	movq	%rcx, -88(%rbp)
	movq	%rax, -80(%rbp)
	.loc	5 49 9 is_stmt 0
	movq	-88(%rbp), %rcx
	movq	-80(%rbp), %rax
	movq	%rcx, -120(%rbp)
	movq	%rax, -112(%rbp)
Ltmp29:
	.loc	5 50 6 is_stmt 1
	jmp	LBB3_6
LBB3_8:
Ltmp16:
Ltmp30:
	.loc	5 48 9
	leaq	_str.0(%rip), %rdi
	leaq	l___unnamed_4(%rip), %rdx
	movl	$28, %esi
	callq	__ZN4core9panicking5panic17hc1bc45270cf64b03E
Ltmp17:
	jmp	LBB3_11
Ltmp31:
LBB3_9:
	.loc	5 45 5
	movq	-16(%rbp), %rdi
	callq	__Unwind_Resume
Ltmp32:
LBB3_10:
Ltmp18:
	.loc	5 0 5 is_stmt 0
	movq	%rax, %rcx
	movl	%edx, %eax
	movq	%rcx, -16(%rbp)
	movl	%eax, -8(%rbp)
	jmp	LBB3_9
LBB3_11:
	ud2
Lfunc_end3:
	.cfi_endproc
	.section	__TEXT,__gcc_except_tab
	.p2align	2
GCC_except_table3:
Lexception0:
	.byte	255
	.byte	255
	.byte	1
	.uleb128 Lcst_end0-Lcst_begin0
Lcst_begin0:
	.uleb128 Lfunc_begin3-Lfunc_begin3
	.uleb128 Ltmp16-Lfunc_begin3
	.byte	0
	.byte	0
	.uleb128 Ltmp16-Lfunc_begin3
	.uleb128 Ltmp17-Ltmp16
	.uleb128 Ltmp18-Lfunc_begin3
	.byte	0
	.uleb128 Ltmp17-Lfunc_begin3
	.uleb128 Lfunc_end3-Ltmp17
	.byte	0
	.byte	0
Lcst_end0:
	.p2align	2

	.section	__TEXT,__text,regular,pure_instructions
	.globl	__ZN119_$LT$core..ptr..non_null..NonNull$LT$T$GT$$u20$as$u20$core..convert..From$LT$core..ptr..unique..Unique$LT$T$GT$$GT$$GT$4from17h9185ec441a9f45b6E
	.p2align	4, 0x90
__ZN119_$LT$core..ptr..non_null..NonNull$LT$T$GT$$u20$as$u20$core..convert..From$LT$core..ptr..unique..Unique$LT$T$GT$$GT$$GT$4from17h9185ec441a9f45b6E:
Lfunc_begin4:
	.file	7 "/rustc/2c8cc343237b8f7d5a3c3703e3a87f2eb2c54a74/library/core/src/ptr" "non_null.rs"
	.loc	7 765 0 is_stmt 1
	.cfi_startproc
	pushq	%rbp
	.cfi_def_cfa_offset 16
	.cfi_offset %rbp, -16
	movq	%rsp, %rbp
	.cfi_def_cfa_register %rbp
	subq	$40, %rsp
	movq	%rdi, -32(%rbp)
Ltmp33:
	.loc	7 768 41 prologue_end
	movq	%rdi, -24(%rbp)
Ltmp34:
	.file	8 "/rustc/2c8cc343237b8f7d5a3c3703e3a87f2eb2c54a74/library/core/src/ptr" "unique.rs"
	.loc	8 104 9
	movq	%rdi, -16(%rbp)
Ltmp35:
	.loc	7 326 9
	movq	%rdi, -8(%rbp)
Ltmp36:
	.loc	7 201 13
	movq	%rdi, -40(%rbp)
Ltmp37:
	.loc	7 769 6
	movq	-40(%rbp), %rax
	addq	$40, %rsp
	popq	%rbp
	retq
Ltmp38:
Lfunc_end4:
	.cfi_endproc

	.p2align	4, 0x90
__ZN122_$LT$alloc..collections..TryReserveError$u20$as$u20$core..convert..From$LT$alloc..collections..TryReserveErrorKind$GT$$GT$4from17h0090c7eb1671fcecE:
Lfunc_begin5:
	.file	9 "/rustc/2c8cc343237b8f7d5a3c3703e3a87f2eb2c54a74/library/alloc/src/collections" "mod.rs"
	.loc	9 116 0
	.cfi_startproc
	pushq	%rbp
	.cfi_def_cfa_offset 16
	.cfi_offset %rbp, -16
	movq	%rsp, %rbp
	.cfi_def_cfa_register %rbp
	subq	$32, %rsp
	movq	%rdi, -16(%rbp)
	movq	%rsi, -8(%rbp)
Ltmp39:
	.loc	9 117 9 prologue_end
	movq	%rdi, -32(%rbp)
	movq	%rsi, -24(%rbp)
	.loc	9 118 6
	movq	-32(%rbp), %rax
	movq	-24(%rbp), %rdx
	addq	$32, %rsp
	popq	%rbp
	retq
Ltmp40:
Lfunc_end5:
	.cfi_endproc

	.globl	__ZN132_$LT$alloc..vec..Vec$LT$T$C$A$GT$$u20$as$u20$alloc..vec..spec_extend..SpecExtend$LT$$RF$T$C$core..slice..iter..Iter$LT$T$GT$$GT$$GT$11spec_extend17hb3b20d3b591ea890E
	.p2align	4, 0x90
__ZN132_$LT$alloc..vec..Vec$LT$T$C$A$GT$$u20$as$u20$alloc..vec..spec_extend..SpecExtend$LT$$RF$T$C$core..slice..iter..Iter$LT$T$GT$$GT$$GT$11spec_extend17hb3b20d3b591ea890E:
Lfunc_begin6:
	.file	10 "/rustc/2c8cc343237b8f7d5a3c3703e3a87f2eb2c54a74/library/alloc/src/vec" "spec_extend.rs"
	.loc	10 53 0
	.cfi_startproc
	pushq	%rbp
	.cfi_def_cfa_offset 16
	.cfi_offset %rbp, -16
	movq	%rsp, %rbp
	.cfi_def_cfa_register %rbp
	subq	$48, %rsp
	movq	%rdi, -48(%rbp)
	movq	%rsi, -40(%rbp)
	movq	%rdx, -32(%rbp)
	movq	%rdi, -24(%rbp)
Ltmp41:
	.loc	10 54 21 prologue_end
	leaq	-40(%rbp), %rdi
	callq	__ZN4core5slice4iter13Iter$LT$T$GT$8as_slice17hb6eed525f40ed676E
	movq	-48(%rbp), %rdi
	movq	%rax, %rsi
	movq	%rsi, -16(%rbp)
	movq	%rdx, -8(%rbp)
Ltmp42:
	.loc	10 55 18
	callq	__ZN5alloc3vec16Vec$LT$T$C$A$GT$15append_elements17h3394390727f703f6E
Ltmp43:
	.loc	10 56 6
	addq	$48, %rsp
	popq	%rbp
	retq
Ltmp44:
Lfunc_end6:
	.cfi_endproc

	.globl	__ZN153_$LT$core..result..Result$LT$T$C$F$GT$$u20$as$u20$core..ops..try_trait..FromResidual$LT$core..result..Result$LT$core..convert..Infallible$C$E$GT$$GT$$GT$13from_residual17had5055d00c1e151eE
	.p2align	4, 0x90
__ZN153_$LT$core..result..Result$LT$T$C$F$GT$$u20$as$u20$core..ops..try_trait..FromResidual$LT$core..result..Result$LT$core..convert..Infallible$C$E$GT$$GT$$GT$13from_residual17had5055d00c1e151eE:
Lfunc_begin7:
	.file	11 "/rustc/2c8cc343237b8f7d5a3c3703e3a87f2eb2c54a74/library/core/src" "result.rs"
	.loc	11 2105 0
	.cfi_startproc
	pushq	%rbp
	.cfi_def_cfa_offset 16
	.cfi_offset %rbp, -16
	movq	%rsp, %rbp
	.cfi_def_cfa_register %rbp
	subq	$24, %rsp
Ltmp45:
	.loc	11 2107 23 prologue_end
	movb	$1, -17(%rbp)
Ltmp46:
	.loc	11 2109 6
	movb	-17(%rbp), %al
	andb	$1, %al
	movzbl	%al, %eax
	addq	$24, %rsp
	popq	%rbp
	retq
Ltmp47:
Lfunc_end7:
	.cfi_endproc

	.globl	__ZN42_$LT$$RF$T$u20$as$u20$core..fmt..Debug$GT$3fmt17h531f7dce34f264d7E
	.p2align	4, 0x90
__ZN42_$LT$$RF$T$u20$as$u20$core..fmt..Debug$GT$3fmt17h531f7dce34f264d7E:
Lfunc_begin8:
	.file	12 "/rustc/2c8cc343237b8f7d5a3c3703e3a87f2eb2c54a74/library/core/src/fmt" "mod.rs"
	.loc	12 2377 0
	.cfi_startproc
	pushq	%rbp
	.cfi_def_cfa_offset 16
	.cfi_offset %rbp, -16
	movq	%rsp, %rbp
	.cfi_def_cfa_register %rbp
	subq	$16, %rsp
	movq	%rsi, %rdx
	movq	%rdi, %rax
	movq	%rax, -16(%rbp)
	movq	%rdx, -8(%rbp)
Ltmp48:
	.loc	12 2377 71 prologue_end
	movq	(%rax), %rdi
	movq	8(%rax), %rsi
	.loc	12 2377 62 is_stmt 0
	callq	__ZN48_$LT$$u5b$T$u5d$$u20$as$u20$core..fmt..Debug$GT$3fmt17h385734a57e58890eE
	.loc	12 2377 84
	andb	$1, %al
	movzbl	%al, %eax
	addq	$16, %rsp
	popq	%rbp
	retq
Ltmp49:
Lfunc_end8:
	.cfi_endproc

	.globl	__ZN42_$LT$$RF$T$u20$as$u20$core..fmt..Debug$GT$3fmt17h7a2c8a1eeb759d43E
	.p2align	4, 0x90
__ZN42_$LT$$RF$T$u20$as$u20$core..fmt..Debug$GT$3fmt17h7a2c8a1eeb759d43E:
Lfunc_begin9:
	.loc	12 2377 0 is_stmt 1
	.cfi_startproc
	pushq	%rbp
	.cfi_def_cfa_offset 16
	.cfi_offset %rbp, -16
	movq	%rsp, %rbp
	.cfi_def_cfa_register %rbp
	subq	$16, %rsp
	movq	%rdi, -16(%rbp)
	movq	%rsi, -8(%rbp)
Ltmp50:
	.loc	12 2377 71 prologue_end
	movq	(%rdi), %rdi
	.loc	12 2377 62 is_stmt 0
	callq	__ZN4core3fmt3num49_$LT$impl$u20$core..fmt..Debug$u20$for$u20$u8$GT$3fmt17he5875d910f4a0b36E
	.loc	12 2377 84
	andb	$1, %al
	movzbl	%al, %eax
	addq	$16, %rsp
	popq	%rbp
	retq
Ltmp51:
Lfunc_end9:
	.cfi_endproc

	.globl	__ZN42_$LT$$RF$T$u20$as$u20$core..fmt..Debug$GT$3fmt17hf2c8f2b14dc52f25E
	.p2align	4, 0x90
__ZN42_$LT$$RF$T$u20$as$u20$core..fmt..Debug$GT$3fmt17hf2c8f2b14dc52f25E:
Lfunc_begin10:
	.loc	12 2377 0 is_stmt 1
	.cfi_startproc
	pushq	%rbp
	.cfi_def_cfa_offset 16
	.cfi_offset %rbp, -16
	movq	%rsp, %rbp
	.cfi_def_cfa_register %rbp
	subq	$16, %rsp
	movq	%rdi, -16(%rbp)
	movq	%rsi, -8(%rbp)
Ltmp52:
	.loc	12 2377 71 prologue_end
	movq	(%rdi), %rdi
	.loc	12 2377 62 is_stmt 0
	callq	__ZN69_$LT$core..slice..iter..Iter$LT$T$GT$$u20$as$u20$core..fmt..Debug$GT$3fmt17hfc53ac2598ef5d6dE
	.loc	12 2377 84
	andb	$1, %al
	movzbl	%al, %eax
	addq	$16, %rsp
	popq	%rbp
	retq
Ltmp53:
Lfunc_end10:
	.cfi_endproc

	.globl	__ZN48_$LT$$u5b$T$u5d$$u20$as$u20$core..fmt..Debug$GT$3fmt17h385734a57e58890eE
	.p2align	4, 0x90
__ZN48_$LT$$u5b$T$u5d$$u20$as$u20$core..fmt..Debug$GT$3fmt17h385734a57e58890eE:
Lfunc_begin11:
	.loc	12 2602 0 is_stmt 1
	.cfi_startproc
	pushq	%rbp
	.cfi_def_cfa_offset 16
	.cfi_offset %rbp, -16
	movq	%rsp, %rbp
	.cfi_def_cfa_register %rbp
	subq	$80, %rsp
	movq	%rdx, -80(%rbp)
	movq	%rsi, %rax
	movq	-80(%rbp), %rsi
	movq	%rdi, -72(%rbp)
	movq	%rax, -64(%rbp)
	movq	%rdi, -40(%rbp)
	movq	%rax, -32(%rbp)
	movq	%rsi, -24(%rbp)
Ltmp54:
	.loc	12 2603 9 prologue_end
	leaq	-56(%rbp), %rdi
	callq	__ZN4core3fmt9Formatter10debug_list17hc648f6f2ff865c45E
	movq	-72(%rbp), %rdi
	movq	-64(%rbp), %rsi
	.loc	12 2603 32 is_stmt 0
	movq	%rdi, -16(%rbp)
	movq	%rsi, -8(%rbp)
Ltmp55:
	.file	13 "/rustc/2c8cc343237b8f7d5a3c3703e3a87f2eb2c54a74/library/core/src/slice" "mod.rs"
	.loc	13 742 9 is_stmt 1
	callq	__ZN4core5slice4iter13Iter$LT$T$GT$3new17h94c64fc37df14715E
	movq	%rax, %rsi
Ltmp56:
	.loc	12 2603 9
	leaq	-56(%rbp), %rdi
	callq	__ZN4core3fmt8builders9DebugList7entries17h7ea892ead86c36b2E
	movq	%rax, %rdi
	callq	__ZN4core3fmt8builders9DebugList6finish17hed399f470c25b4b2E
	.loc	12 2604 6
	andb	$1, %al
	movzbl	%al, %eax
	addq	$80, %rsp
	popq	%rbp
	retq
Ltmp57:
Lfunc_end11:
	.cfi_endproc

	.p2align	4, 0x90
__ZN4core3cmp5impls50_$LT$impl$u20$core..cmp..Ord$u20$for$u20$usize$GT$3cmp17h8c3533f3fb52c00fE:
Lfunc_begin12:
	.file	14 "/rustc/2c8cc343237b8f7d5a3c3703e3a87f2eb2c54a74/library/core/src" "cmp.rs"
	.loc	14 1454 0
	.cfi_startproc
	pushq	%rbp
	.cfi_def_cfa_offset 16
	.cfi_offset %rbp, -16
	movq	%rsp, %rbp
	.cfi_def_cfa_register %rbp
	subq	$40, %rsp
	movq	%rdi, -40(%rbp)
	movq	%rsi, -32(%rbp)
	movq	%rdi, -16(%rbp)
	movq	%rsi, -8(%rbp)
Ltmp58:
	.loc	14 1457 24 prologue_end
	movq	(%rdi), %rax
	cmpq	(%rsi), %rax
	jb	LBB12_2
	.loc	14 0 24 is_stmt 0
	movq	-32(%rbp), %rcx
	movq	-40(%rbp), %rax
	.loc	14 1458 29 is_stmt 1
	movq	(%rax), %rax
	cmpq	(%rcx), %rax
	je	LBB12_5
	jmp	LBB12_4
LBB12_2:
	.loc	14 1457 41
	movb	$-1, -17(%rbp)
LBB12_3:
	.loc	14 1460 18
	movb	-17(%rbp), %al
	addq	$40, %rsp
	popq	%rbp
	retq
LBB12_4:
	.loc	14 1459 28
	movb	$1, -17(%rbp)
	.loc	14 1458 26
	jmp	LBB12_6
LBB12_5:
	.loc	14 1458 47 is_stmt 0
	movb	$0, -17(%rbp)
LBB12_6:
	.loc	14 1457 21 is_stmt 1
	jmp	LBB12_3
Ltmp59:
Lfunc_end12:
	.cfi_endproc

	.globl	__ZN4core3cmp6max_by17he606c6a9b503baa4E
	.p2align	4, 0x90
__ZN4core3cmp6max_by17he606c6a9b503baa4E:
Lfunc_begin13:
	.loc	14 1295 0
	.cfi_startproc
	.cfi_personality 155, _rust_eh_personality
	.cfi_lsda 16, Lexception1
	pushq	%rbp
	.cfi_def_cfa_offset 16
	.cfi_offset %rbp, -16
	movq	%rsp, %rbp
	.cfi_def_cfa_register %rbp
	subq	$96, %rsp
	movq	%rdi, -80(%rbp)
	movq	%rsi, -72(%rbp)
Ltmp63:
	.loc	14 1300 11 prologue_end
	movb	$1, -25(%rbp)
	movb	$1, -26(%rbp)
	leaq	-80(%rbp), %rax
	movq	%rax, -48(%rbp)
	leaq	-72(%rbp), %rax
	movq	%rax, -40(%rbp)
	movq	-48(%rbp), %rdi
	movq	-40(%rbp), %rsi
Ltmp60:
	callq	__ZN4core3ops8function6FnOnce9call_once17hba39c2b062f324cdE
Ltmp61:
	movb	%al, -81(%rbp)
	jmp	LBB13_3
LBB13_1:
	.loc	14 1304 1
	jmp	LBB13_4
LBB13_2:
Ltmp62:
	.loc	14 0 1 is_stmt 0
	movq	%rax, %rcx
	movl	%edx, %eax
	movq	%rcx, -16(%rbp)
	movl	%eax, -8(%rbp)
	jmp	LBB13_1
LBB13_3:
	movb	-81(%rbp), %al
	.loc	14 1300 11 is_stmt 1
	movb	%al, -49(%rbp)
	movb	-49(%rbp), %al
	.loc	14 1300 5 is_stmt 0
	incb	%al
	subb	$2, %al
	jb	LBB13_6
	jmp	LBB13_15
LBB13_15:
	jmp	LBB13_7
LBB13_4:
	.loc	14 1304 1 is_stmt 1
	testb	$1, -25(%rbp)
	jne	LBB13_12
	jmp	LBB13_11
	.loc	14 1300 11
	ud2
LBB13_6:
	.loc	14 1301 45
	movb	$0, -26(%rbp)
	movq	-72(%rbp), %rax
	movq	%rax, -64(%rbp)
	jmp	LBB13_8
LBB13_7:
	.loc	14 1302 30
	movb	$0, -25(%rbp)
	movq	-80(%rbp), %rax
	movq	%rax, -64(%rbp)
LBB13_8:
	.loc	14 1304 1
	testb	$1, -26(%rbp)
	jne	LBB13_10
LBB13_9:
	testb	$1, -25(%rbp)
	jne	LBB13_14
	jmp	LBB13_13
LBB13_10:
	jmp	LBB13_9
LBB13_11:
	.loc	14 1295 1
	movq	-16(%rbp), %rdi
	callq	__Unwind_Resume
LBB13_12:
	.loc	14 1304 1
	jmp	LBB13_11
LBB13_13:
	.loc	14 1304 2 is_stmt 0
	movq	-64(%rbp), %rax
	addq	$96, %rsp
	popq	%rbp
	retq
LBB13_14:
	.loc	14 1304 1
	jmp	LBB13_13
Ltmp64:
Lfunc_end13:
	.cfi_endproc
	.section	__TEXT,__gcc_except_tab
	.p2align	2
GCC_except_table13:
Lexception1:
	.byte	255
	.byte	255
	.byte	1
	.uleb128 Lcst_end1-Lcst_begin1
Lcst_begin1:
	.uleb128 Ltmp60-Lfunc_begin13
	.uleb128 Ltmp61-Ltmp60
	.uleb128 Ltmp62-Lfunc_begin13
	.byte	0
	.uleb128 Ltmp61-Lfunc_begin13
	.uleb128 Lfunc_end13-Ltmp61
	.byte	0
	.byte	0
Lcst_end1:
	.p2align	2

	.section	__TEXT,__text,regular,pure_instructions
	.p2align	4, 0x90
__ZN4core3fmt3num49_$LT$impl$u20$core..fmt..Debug$u20$for$u20$u8$GT$3fmt17he5875d910f4a0b36E:
Lfunc_begin14:
	.file	15 "/rustc/2c8cc343237b8f7d5a3c3703e3a87f2eb2c54a74/library/core/src/fmt" "num.rs"
	.loc	15 185 0 is_stmt 1
	.cfi_startproc
	pushq	%rbp
	.cfi_def_cfa_offset 16
	.cfi_offset %rbp, -16
	movq	%rsp, %rbp
	.cfi_def_cfa_register %rbp
	subq	$48, %rsp
	movq	%rsi, -48(%rbp)
	movq	%rdi, %rax
	movq	-48(%rbp), %rdi
	movq	%rax, -40(%rbp)
	movq	%rdi, -32(%rbp)
	movq	%rax, -16(%rbp)
	movq	%rdi, -8(%rbp)
Ltmp65:
	.loc	15 186 20 prologue_end
	callq	__ZN4core3fmt9Formatter15debug_lower_hex17h0921e6b9188d914eE
	testb	$1, %al
	jne	LBB14_2
	.loc	15 0 20 is_stmt 0
	movq	-32(%rbp), %rdi
	.loc	15 188 27 is_stmt 1
	callq	__ZN4core3fmt9Formatter15debug_upper_hex17h8ce487049a6cccf8E
	testb	$1, %al
	jne	LBB14_5
	jmp	LBB14_4
LBB14_2:
	.loc	15 0 27 is_stmt 0
	movq	-32(%rbp), %rsi
	movq	-40(%rbp), %rdi
	.loc	15 187 21 is_stmt 1
	callq	__ZN4core3fmt3num52_$LT$impl$u20$core..fmt..LowerHex$u20$for$u20$u8$GT$3fmt17h5cfdcd8eebabca5eE
	andb	$1, %al
	movb	%al, -17(%rbp)
LBB14_3:
	.loc	15 193 14
	movb	-17(%rbp), %al
	andb	$1, %al
	movzbl	%al, %eax
	addq	$48, %rsp
	popq	%rbp
	retq
LBB14_4:
	.loc	15 0 14 is_stmt 0
	movq	-32(%rbp), %rsi
	movq	-40(%rbp), %rdi
	.loc	15 191 21 is_stmt 1
	callq	__ZN4core3fmt3num3imp51_$LT$impl$u20$core..fmt..Display$u20$for$u20$u8$GT$3fmt17he2a0798a745fb926E
	andb	$1, %al
	movb	%al, -17(%rbp)
	.loc	15 188 24
	jmp	LBB14_6
LBB14_5:
	.loc	15 0 24 is_stmt 0
	movq	-32(%rbp), %rsi
	movq	-40(%rbp), %rdi
	.loc	15 189 21 is_stmt 1
	callq	__ZN4core3fmt3num52_$LT$impl$u20$core..fmt..UpperHex$u20$for$u20$u8$GT$3fmt17h0d44eda8e53b13dbE
	andb	$1, %al
	movb	%al, -17(%rbp)
LBB14_6:
	.loc	15 186 17
	jmp	LBB14_3
Ltmp66:
Lfunc_end14:
	.cfi_endproc

	.globl	__ZN4core3fmt8builders9DebugList7entries17h7ea892ead86c36b2E
	.p2align	4, 0x90
__ZN4core3fmt8builders9DebugList7entries17h7ea892ead86c36b2E:
Lfunc_begin15:
	.file	16 "/rustc/2c8cc343237b8f7d5a3c3703e3a87f2eb2c54a74/library/core/src/fmt" "builders.rs"
	.loc	16 627 0
	.cfi_startproc
	.cfi_personality 155, _rust_eh_personality
	.cfi_lsda 16, Lexception2
	pushq	%rbp
	.cfi_def_cfa_offset 16
	.cfi_offset %rbp, -16
	movq	%rsp, %rbp
	.cfi_def_cfa_register %rbp
	subq	$112, %rsp
	movq	%rdx, -96(%rbp)
	movq	%rsi, %rax
	movq	-96(%rbp), %rsi
	movq	%rax, -88(%rbp)
	movq	%rdi, %rax
	movq	-88(%rbp), %rdi
	movq	%rax, -80(%rbp)
	movq	%rax, -40(%rbp)
	movq	%rdi, -32(%rbp)
	movq	%rsi, -24(%rbp)
Ltmp73:
	.loc	16 632 22 prologue_end
	callq	__ZN63_$LT$I$u20$as$u20$core..iter..traits..collect..IntoIterator$GT$9into_iter17hc4834b2aae2a828dE
	movq	%rax, -72(%rbp)
	movq	%rdx, -64(%rbp)
LBB15_1:
Ltmp67:
	.loc	16 0 22 is_stmt 0
	leaq	-72(%rbp), %rdi
Ltmp74:
	.loc	16 632 22
	callq	__ZN91_$LT$core..slice..iter..Iter$LT$T$GT$$u20$as$u20$core..iter..traits..iterator..Iterator$GT$4next17h31666222c3d0f2eeE
Ltmp68:
	movq	%rax, -104(%rbp)
	jmp	LBB15_4
Ltmp75:
LBB15_2:
	.loc	16 627 5 is_stmt 1
	movq	-16(%rbp), %rdi
	callq	__Unwind_Resume
LBB15_3:
Ltmp69:
	.loc	16 0 5 is_stmt 0
	movq	%rax, %rcx
	movl	%edx, %eax
	movq	%rcx, -16(%rbp)
	movl	%eax, -8(%rbp)
	jmp	LBB15_2
LBB15_4:
	movq	-104(%rbp), %rax
Ltmp76:
	.loc	16 632 22 is_stmt 1
	movq	%rax, -56(%rbp)
	movq	-56(%rbp), %rdx
	movl	$1, %eax
	xorl	%ecx, %ecx
	cmpq	$0, %rdx
	cmoveq	%rcx, %rax
	cmpq	$0, %rax
	jne	LBB15_6
Ltmp77:
	.loc	16 0 22 is_stmt 0
	movq	-80(%rbp), %rax
	.loc	16 636 6 is_stmt 1
	addq	$112, %rsp
	popq	%rbp
	retq
LBB15_6:
	.loc	16 0 6 is_stmt 0
	movq	-80(%rbp), %rdi
Ltmp78:
	.loc	16 632 13 is_stmt 1
	movq	-56(%rbp), %rax
	movq	%rax, -48(%rbp)
Ltmp70:
Ltmp79:
	.loc	16 633 13
	leaq	l___unnamed_1(%rip), %rdx
	leaq	-48(%rbp), %rsi
	callq	__ZN4core3fmt8builders9DebugList5entry17h90e9fab3d6cede22E
Ltmp71:
	jmp	LBB15_9
Ltmp80:
LBB15_7:
	.loc	16 634 9
	jmp	LBB15_2
LBB15_8:
Ltmp72:
	.loc	16 0 9 is_stmt 0
	movq	%rax, %rcx
	movl	%edx, %eax
	movq	%rcx, -16(%rbp)
	movl	%eax, -8(%rbp)
	jmp	LBB15_7
LBB15_9:
	.loc	16 634 9
	jmp	LBB15_10
LBB15_10:
	.loc	16 632 9 is_stmt 1
	jmp	LBB15_1
Ltmp81:
Lfunc_end15:
	.cfi_endproc
	.section	__TEXT,__gcc_except_tab
	.p2align	2
GCC_except_table15:
Lexception2:
	.byte	255
	.byte	255
	.byte	1
	.uleb128 Lcst_end2-Lcst_begin2
Lcst_begin2:
	.uleb128 Lfunc_begin15-Lfunc_begin15
	.uleb128 Ltmp67-Lfunc_begin15
	.byte	0
	.byte	0
	.uleb128 Ltmp67-Lfunc_begin15
	.uleb128 Ltmp68-Ltmp67
	.uleb128 Ltmp69-Lfunc_begin15
	.byte	0
	.uleb128 Ltmp68-Lfunc_begin15
	.uleb128 Ltmp70-Ltmp68
	.byte	0
	.byte	0
	.uleb128 Ltmp70-Lfunc_begin15
	.uleb128 Ltmp71-Ltmp70
	.uleb128 Ltmp72-Lfunc_begin15
	.byte	0
Lcst_end2:
	.p2align	2

	.section	__TEXT,__text,regular,pure_instructions
	.p2align	4, 0x90
__ZN4core3fmt9Arguments6new_v117h11b609f48d759eaeE:
Lfunc_begin16:
	.loc	12 399 0
	.cfi_startproc
	pushq	%rbp
	.cfi_def_cfa_offset 16
	.cfi_offset %rbp, -16
	movq	%rsp, %rbp
	.cfi_def_cfa_register %rbp
	subq	$160, %rsp
	movq	%r8, -152(%rbp)
	movq	%rcx, -144(%rbp)
	movq	%rdx, -136(%rbp)
	movq	%rsi, -128(%rbp)
	movq	%rdi, -120(%rbp)
	movq	%rdi, -112(%rbp)
	movq	%rsi, -32(%rbp)
	movq	%rdx, -24(%rbp)
	movq	%rcx, -16(%rbp)
	movq	%r8, -8(%rbp)
Ltmp82:
	.loc	12 400 12 prologue_end
	cmpq	%r8, %rdx
	jb	LBB16_2
	.loc	12 0 12 is_stmt 0
	movq	-136(%rbp), %rax
	movq	-152(%rbp), %rcx
	.loc	12 400 56
	addq	$1, %rcx
	.loc	12 400 41
	cmpq	%rcx, %rax
	seta	%al
	.loc	12 400 12
	andb	$1, %al
	movb	%al, -97(%rbp)
	jmp	LBB16_3
LBB16_2:
	movb	$1, -97(%rbp)
LBB16_3:
	testb	$1, -97(%rbp)
	jne	LBB16_5
	.loc	12 0 12
	movq	-112(%rbp), %rax
	movq	-120(%rbp), %rcx
	movq	-152(%rbp), %rdx
	movq	-144(%rbp), %rsi
	movq	-136(%rbp), %rdi
	movq	-128(%rbp), %r8
	.loc	12 403 34 is_stmt 1
	movq	$0, -48(%rbp)
	.loc	12 403 9 is_stmt 0
	movq	%r8, 16(%rcx)
	movq	%rdi, 24(%rcx)
	movq	-48(%rbp), %r8
	movq	-40(%rbp), %rdi
	movq	%r8, (%rcx)
	movq	%rdi, 8(%rcx)
	movq	%rsi, 32(%rcx)
	movq	%rdx, 40(%rcx)
	.loc	12 404 6 is_stmt 1
	addq	$160, %rsp
	popq	%rbp
	retq
LBB16_5:
	.loc	12 401 13
	leaq	l___unnamed_5(%rip), %rsi
	leaq	l___unnamed_6(%rip), %rcx
	xorl	%eax, %eax
	movl	%eax, %r8d
	leaq	-96(%rbp), %rdi
	movq	%rdi, -160(%rbp)
	movl	$1, %edx
	callq	__ZN4core3fmt9Arguments6new_v117h11b609f48d759eaeE
	movq	-160(%rbp), %rdi
	leaq	l___unnamed_7(%rip), %rsi
	callq	__ZN4core9panicking9panic_fmt17h9b5d807e24bcaaedE
Ltmp83:
Lfunc_end16:
	.cfi_endproc

	.p2align	4, 0x90
__ZN4core3num20_$LT$impl$u20$u8$GT$8is_ascii17h9b640de70e479f25E:
Lfunc_begin17:
	.file	17 "/rustc/2c8cc343237b8f7d5a3c3703e3a87f2eb2c54a74/library/core/src/num" "mod.rs"
	.loc	17 324 0
	.cfi_startproc
	pushq	%rbp
	.cfi_def_cfa_offset 16
	.cfi_offset %rbp, -16
	movq	%rsp, %rbp
	.cfi_def_cfa_register %rbp
	pushq	%rax
	movq	%rdi, -8(%rbp)
Ltmp84:
	.loc	17 325 9 prologue_end
	movb	(%rdi), %al
	andb	$-128, %al
	cmpb	$0, %al
	sete	%al
	.loc	17 326 6
	andb	$1, %al
	movzbl	%al, %eax
	addq	$8, %rsp
	popq	%rbp
	retq
Ltmp85:
Lfunc_end17:
	.cfi_endproc

	.p2align	4, 0x90
__ZN4core3num23_$LT$impl$u20$usize$GT$11checked_add17h0bd7959b12e2001bE:
Lfunc_begin18:
	.file	18 "/rustc/2c8cc343237b8f7d5a3c3703e3a87f2eb2c54a74/library/core/src/num" "uint_macros.rs"
	.loc	18 442 0
	.cfi_startproc
	pushq	%rbp
	.cfi_def_cfa_offset 16
	.cfi_offset %rbp, -16
	movq	%rsp, %rbp
	.cfi_def_cfa_register %rbp
	subq	$120, %rsp
	movq	%rdi, -80(%rbp)
	movq	%rsi, -72(%rbp)
Ltmp86:
	.loc	18 443 26 prologue_end
	movq	%rdi, -64(%rbp)
	.loc	18 443 47 is_stmt 0
	movq	%rsi, -56(%rbp)
Ltmp87:
	.loc	18 1479 26 is_stmt 1
	addq	%rsi, %rdi
	setb	%al
	andb	$1, %al
	movq	%rdi, -48(%rbp)
	movb	%al, -40(%rbp)
	movq	-48(%rbp), %rcx
	movb	-40(%rbp), %al
	.loc	18 1479 18 is_stmt 0
	movq	%rcx, -32(%rbp)
	.loc	18 1479 21
	movb	%al, %dl
	andb	$1, %dl
	movb	%dl, -17(%rbp)
Ltmp88:
	.loc	18 1480 13 is_stmt 1
	movq	%rcx, -96(%rbp)
	andb	$1, %al
	movb	%al, -88(%rbp)
Ltmp89:
	.loc	18 443 18
	movq	-96(%rbp), %rax
	movq	%rax, -120(%rbp)
	movq	%rax, -16(%rbp)
	.loc	18 443 21 is_stmt 0
	movb	-88(%rbp), %al
	movb	%al, %cl
	andb	$1, %cl
	movb	%cl, -2(%rbp)
Ltmp90:
	.loc	18 444 16 is_stmt 1
	andb	$1, %al
	movb	%al, -1(%rbp)
	testb	$1, -1(%rbp)
	jne	LBB18_2
	.loc	18 0 16 is_stmt 0
	movq	-120(%rbp), %rax
	.loc	18 444 42
	movq	%rax, -104(%rbp)
	movq	$1, -112(%rbp)
	.loc	18 444 13
	jmp	LBB18_3
LBB18_2:
	.loc	18 444 30
	movq	$0, -112(%rbp)
Ltmp91:
LBB18_3:
	.loc	18 445 10 is_stmt 1
	movq	-112(%rbp), %rax
	movq	-104(%rbp), %rdx
	addq	$120, %rsp
	popq	%rbp
	retq
Ltmp92:
Lfunc_end18:
	.cfi_endproc

	.p2align	4, 0x90
__ZN4core3ops8function6FnOnce9call_once17hba39c2b062f324cdE:
Lfunc_begin19:
	.file	19 "/rustc/2c8cc343237b8f7d5a3c3703e3a87f2eb2c54a74/library/core/src/ops" "function.rs"
	.loc	19 250 0
	.cfi_startproc
	pushq	%rbp
	.cfi_def_cfa_offset 16
	.cfi_offset %rbp, -16
	movq	%rsp, %rbp
	.cfi_def_cfa_register %rbp
	subq	$32, %rsp
	movq	%rdi, -24(%rbp)
	movq	%rsi, -16(%rbp)
Ltmp93:
	.loc	19 250 5 prologue_end
	movq	-24(%rbp), %rdi
	movq	-16(%rbp), %rsi
	callq	__ZN4core3cmp5impls50_$LT$impl$u20$core..cmp..Ord$u20$for$u20$usize$GT$3cmp17h8c3533f3fb52c00fE
	addq	$32, %rsp
	popq	%rbp
	retq
Ltmp94:
Lfunc_end19:
	.cfi_endproc

	.p2align	4, 0x90
__ZN4core3ptr27drop_in_place$LT$$RF$u8$GT$17h40cc136f3c8f774cE:
Lfunc_begin20:
	.loc	3 490 0
	.cfi_startproc
	pushq	%rbp
	.cfi_def_cfa_offset 16
	.cfi_offset %rbp, -16
	movq	%rsp, %rbp
	.cfi_def_cfa_register %rbp
	pushq	%rax
	movq	%rdi, -8(%rbp)
Ltmp95:
	.loc	3 490 1 prologue_end
	addq	$8, %rsp
	popq	%rbp
	retq
Ltmp96:
Lfunc_end20:
	.cfi_endproc

	.p2align	4, 0x90
__ZN4core3ptr37drop_in_place$LT$$RF$$u5b$u8$u5d$$GT$17ha372b6f873942ef7E:
Lfunc_begin21:
	.loc	3 490 0
	.cfi_startproc
	pushq	%rbp
	.cfi_def_cfa_offset 16
	.cfi_offset %rbp, -16
	movq	%rsp, %rbp
	.cfi_def_cfa_register %rbp
	pushq	%rax
	movq	%rdi, -8(%rbp)
Ltmp97:
	.loc	3 490 1 prologue_end
	addq	$8, %rsp
	popq	%rbp
	retq
Ltmp98:
Lfunc_end21:
	.cfi_endproc

	.globl	__ZN4core3ptr42drop_in_place$LT$alloc..string..String$GT$17h1b3e09bcaf33a849E
	.p2align	4, 0x90
__ZN4core3ptr42drop_in_place$LT$alloc..string..String$GT$17h1b3e09bcaf33a849E:
Lfunc_begin22:
	.loc	3 490 0
	.cfi_startproc
	pushq	%rbp
	.cfi_def_cfa_offset 16
	.cfi_offset %rbp, -16
	movq	%rsp, %rbp
	.cfi_def_cfa_register %rbp
	subq	$16, %rsp
	movq	%rdi, -8(%rbp)
Ltmp99:
	.loc	3 490 1 prologue_end
	callq	__ZN4core3ptr46drop_in_place$LT$alloc..vec..Vec$LT$u8$GT$$GT$17h83e90276065d94e4E
	addq	$16, %rsp
	popq	%rbp
	retq
Ltmp100:
Lfunc_end22:
	.cfi_endproc

	.globl	__ZN4core3ptr46drop_in_place$LT$alloc..vec..Vec$LT$u8$GT$$GT$17h83e90276065d94e4E
	.p2align	4, 0x90
__ZN4core3ptr46drop_in_place$LT$alloc..vec..Vec$LT$u8$GT$$GT$17h83e90276065d94e4E:
Lfunc_begin23:
	.loc	3 490 0
	.cfi_startproc
	.cfi_personality 155, _rust_eh_personality
	.cfi_lsda 16, Lexception3
	pushq	%rbp
	.cfi_def_cfa_offset 16
	.cfi_offset %rbp, -16
	movq	%rsp, %rbp
	.cfi_def_cfa_register %rbp
	subq	$32, %rsp
	movq	%rdi, -32(%rbp)
	movq	%rdi, -24(%rbp)
Ltmp101:
Ltmp107:
	.loc	3 490 1 prologue_end
	callq	__ZN70_$LT$alloc..vec..Vec$LT$T$C$A$GT$$u20$as$u20$core..ops..drop..Drop$GT$4drop17hb04ed5cfe73927b6E
Ltmp102:
	jmp	LBB23_3
LBB23_1:
Ltmp104:
	.loc	3 0 1 is_stmt 0
	movq	-32(%rbp), %rdi
	.loc	3 490 1
	callq	__ZN4core3ptr53drop_in_place$LT$alloc..raw_vec..RawVec$LT$u8$GT$$GT$17hc2c2cc1f95b7561aE
Ltmp105:
	jmp	LBB23_5
LBB23_2:
Ltmp103:
	.loc	3 0 1
	movq	%rax, %rcx
	movl	%edx, %eax
	movq	%rcx, -16(%rbp)
	movl	%eax, -8(%rbp)
	jmp	LBB23_1
LBB23_3:
	movq	-32(%rbp), %rdi
	.loc	3 490 1
	callq	__ZN4core3ptr53drop_in_place$LT$alloc..raw_vec..RawVec$LT$u8$GT$$GT$17hc2c2cc1f95b7561aE
	addq	$32, %rsp
	popq	%rbp
	retq
LBB23_4:
Ltmp106:
	callq	__ZN4core9panicking19panic_cannot_unwind17h1fbca7e1d7f56ae1E
LBB23_5:
	movq	-16(%rbp), %rdi
	callq	__Unwind_Resume
Ltmp108:
Lfunc_end23:
	.cfi_endproc
	.section	__TEXT,__gcc_except_tab
	.p2align	2
GCC_except_table23:
Lexception3:
	.byte	255
	.byte	255
	.byte	1
	.uleb128 Lcst_end3-Lcst_begin3
Lcst_begin3:
	.uleb128 Ltmp101-Lfunc_begin23
	.uleb128 Ltmp102-Ltmp101
	.uleb128 Ltmp103-Lfunc_begin23
	.byte	0
	.uleb128 Ltmp104-Lfunc_begin23
	.uleb128 Ltmp105-Ltmp104
	.uleb128 Ltmp106-Lfunc_begin23
	.byte	0
	.uleb128 Ltmp105-Lfunc_begin23
	.uleb128 Lfunc_end23-Ltmp105
	.byte	0
	.byte	0
Lcst_end3:
	.p2align	2

	.section	__TEXT,__text,regular,pure_instructions
	.globl	__ZN4core3ptr49drop_in_place$LT$alloc..string..FromUtf8Error$GT$17h35c52bd62a0f808bE
	.p2align	4, 0x90
__ZN4core3ptr49drop_in_place$LT$alloc..string..FromUtf8Error$GT$17h35c52bd62a0f808bE:
Lfunc_begin24:
	.loc	3 490 0 is_stmt 1
	.cfi_startproc
	pushq	%rbp
	.cfi_def_cfa_offset 16
	.cfi_offset %rbp, -16
	movq	%rsp, %rbp
	.cfi_def_cfa_register %rbp
	subq	$16, %rsp
	movq	%rdi, -8(%rbp)
Ltmp109:
	.loc	3 490 1 prologue_end
	addq	$16, %rdi
	callq	__ZN4core3ptr46drop_in_place$LT$alloc..vec..Vec$LT$u8$GT$$GT$17h83e90276065d94e4E
	addq	$16, %rsp
	popq	%rbp
	retq
Ltmp110:
Lfunc_end24:
	.cfi_endproc

	.globl	__ZN4core3ptr53drop_in_place$LT$alloc..raw_vec..RawVec$LT$u8$GT$$GT$17hc2c2cc1f95b7561aE
	.p2align	4, 0x90
__ZN4core3ptr53drop_in_place$LT$alloc..raw_vec..RawVec$LT$u8$GT$$GT$17hc2c2cc1f95b7561aE:
Lfunc_begin25:
	.loc	3 490 0
	.cfi_startproc
	pushq	%rbp
	.cfi_def_cfa_offset 16
	.cfi_offset %rbp, -16
	movq	%rsp, %rbp
	.cfi_def_cfa_register %rbp
	subq	$16, %rsp
	movq	%rdi, -8(%rbp)
Ltmp111:
	.loc	3 490 1 prologue_end
	callq	__ZN77_$LT$alloc..raw_vec..RawVec$LT$T$C$A$GT$$u20$as$u20$core..ops..drop..Drop$GT$4drop17h098c0044af948dbbE
	addq	$16, %rsp
	popq	%rbp
	retq
Ltmp112:
Lfunc_end25:
	.cfi_endproc

	.p2align	4, 0x90
__ZN4core3ptr58drop_in_place$LT$$RF$core..slice..iter..Iter$LT$u8$GT$$GT$17hc48ebd81f582a5d3E:
Lfunc_begin26:
	.loc	3 490 0
	.cfi_startproc
	pushq	%rbp
	.cfi_def_cfa_offset 16
	.cfi_offset %rbp, -16
	movq	%rsp, %rbp
	.cfi_def_cfa_register %rbp
	pushq	%rax
	movq	%rdi, -8(%rbp)
Ltmp113:
	.loc	3 490 1 prologue_end
	addq	$8, %rsp
	popq	%rbp
	retq
Ltmp114:
Lfunc_end26:
	.cfi_endproc

	.globl	__ZN4core3ptr8non_null16NonNull$LT$T$GT$3new17h021bcc89dfac5266E
	.p2align	4, 0x90
__ZN4core3ptr8non_null16NonNull$LT$T$GT$3new17h021bcc89dfac5266E:
Lfunc_begin27:
	.loc	7 222 0
	.cfi_startproc
	pushq	%rbp
	.cfi_def_cfa_offset 16
	.cfi_offset %rbp, -16
	movq	%rsp, %rbp
	.cfi_def_cfa_register %rbp
	subq	$88, %rsp
	movq	%rdi, -88(%rbp)
	movq	%rdi, -56(%rbp)
Ltmp115:
	.loc	7 223 13 prologue_end
	movq	%rdi, -48(%rbp)
Ltmp116:
	.file	20 "/rustc/2c8cc343237b8f7d5a3c3703e3a87f2eb2c54a74/library/core/src/ptr" "mut_ptr.rs"
	.loc	20 52 36
	movq	%rdi, -64(%rbp)
	.loc	20 52 18 is_stmt 0
	movq	-64(%rbp), %rax
	movq	%rax, -40(%rbp)
Ltmp117:
	.loc	20 38 13 is_stmt 1
	movq	%rax, -32(%rbp)
Ltmp118:
	.loc	20 215 33
	movq	%rax, -24(%rbp)
	.loc	20 215 18 is_stmt 0
	movq	%rax, -16(%rbp)
Ltmp119:
	.loc	20 38 13 is_stmt 1
	cmpq	$0, -16(%rbp)
	sete	%al
Ltmp120:
	.loc	7 223 12
	xorb	$-1, %al
	testb	$1, %al
	jne	LBB27_2
	.loc	7 227 13
	movq	$0, -80(%rbp)
	.loc	7 223 9
	jmp	LBB27_3
LBB27_2:
	.loc	7 0 9 is_stmt 0
	movq	-88(%rbp), %rax
	.loc	7 225 47 is_stmt 1
	movq	%rax, -8(%rbp)
Ltmp121:
	.loc	7 201 13
	movq	%rax, -72(%rbp)
Ltmp122:
	.loc	7 225 13
	movq	-72(%rbp), %rax
	movq	%rax, -80(%rbp)
LBB27_3:
	.loc	7 229 6
	movq	-80(%rbp), %rax
	addq	$88, %rsp
	popq	%rbp
	retq
Ltmp123:
Lfunc_end27:
	.cfi_endproc

	.globl	__ZN4core3ptr8non_null26NonNull$LT$$u5b$T$u5d$$GT$20slice_from_raw_parts17h418232f47a8686e2E
	.p2align	4, 0x90
__ZN4core3ptr8non_null26NonNull$LT$$u5b$T$u5d$$GT$20slice_from_raw_parts17h418232f47a8686e2E:
Lfunc_begin28:
	.loc	7 482 0
	.cfi_startproc
	pushq	%rbp
	.cfi_def_cfa_offset 16
	.cfi_offset %rbp, -16
	movq	%rsp, %rbp
	.cfi_def_cfa_register %rbp
	subq	$128, %rsp
	movq	%rdi, -80(%rbp)
	movq	%rsi, -72(%rbp)
Ltmp124:
	.loc	7 484 70 prologue_end
	movq	%rdi, -64(%rbp)
Ltmp125:
	.loc	7 326 9
	movq	%rdi, -56(%rbp)
Ltmp126:
	.loc	7 484 85
	movq	%rsi, -48(%rbp)
Ltmp127:
	.loc	3 766 24
	movq	%rdi, -40(%rbp)
Ltmp128:
	.loc	20 60 9
	movq	%rdi, -32(%rbp)
Ltmp129:
	.loc	3 766 37
	movq	%rsi, -24(%rbp)
Ltmp130:
	.loc	4 135 36
	movq	%rdi, -96(%rbp)
	movq	%rsi, -88(%rbp)
	.loc	4 135 14 is_stmt 0
	movq	-96(%rbp), %rcx
	movq	-88(%rbp), %rax
	movq	%rcx, -112(%rbp)
	movq	%rax, -104(%rbp)
	movq	-112(%rbp), %rcx
	movq	-104(%rbp), %rax
	movq	%rcx, -16(%rbp)
	movq	%rax, -8(%rbp)
Ltmp131:
	.loc	7 201 13 is_stmt 1
	movq	%rcx, -128(%rbp)
	movq	%rax, -120(%rbp)
Ltmp132:
	.loc	7 485 6
	movq	-128(%rbp), %rax
	movq	-120(%rbp), %rdx
	addq	$128, %rsp
	popq	%rbp
	retq
Ltmp133:
Lfunc_end28:
	.cfi_endproc

	.globl	__ZN4core3ptr9const_ptr33_$LT$impl$u20$$BP$const$u20$T$GT$7sub_ptr17he4351ea9308b09d0E
	.p2align	4, 0x90
__ZN4core3ptr9const_ptr33_$LT$impl$u20$$BP$const$u20$T$GT$7sub_ptr17he4351ea9308b09d0E:
Lfunc_begin29:
	.loc	2 791 0
	.cfi_startproc
	pushq	%rbp
	.cfi_def_cfa_offset 16
	.cfi_offset %rbp, -16
	movq	%rsp, %rbp
	.cfi_def_cfa_register %rbp
	subq	$64, %rsp
	movq	%rdi, -56(%rbp)
	movq	%rsi, -48(%rbp)
	movq	%rdi, -32(%rbp)
	movq	%rsi, -24(%rbp)
Ltmp134:
	.file	21 "/rustc/2c8cc343237b8f7d5a3c3703e3a87f2eb2c54a74/library/core/src/mem" "mod.rs"
	.loc	21 309 5 prologue_end
	movq	$1, -16(%rbp)
Ltmp135:
	.loc	2 806 17
	movb	$1, %al
	testb	$1, %al
	jne	LBB29_2
	movb	$0, -33(%rbp)
	jmp	LBB29_3
LBB29_2:
	movb	$1, -33(%rbp)
LBB29_3:
	.loc	2 806 9 is_stmt 0
	movb	-33(%rbp), %al
	xorb	$-1, %al
	testb	$1, %al
	jne	LBB29_5
	.loc	2 0 9
	movq	-48(%rbp), %rcx
	movq	-56(%rbp), %rax
	.loc	2 808 18 is_stmt 1
	subq	%rcx, %rax
	shrq	$0, %rax
	movq	%rax, -8(%rbp)
	movq	-8(%rbp), %rax
Ltmp136:
	.loc	2 809 6
	addq	$64, %rsp
	popq	%rbp
	retq
LBB29_5:
Ltmp137:
	.loc	2 806 9
	leaq	l___unnamed_8(%rip), %rdi
	leaq	l___unnamed_9(%rip), %rdx
	movl	$73, %esi
	callq	__ZN4core9panicking5panic17hc1bc45270cf64b03E
Ltmp138:
Lfunc_end29:
	.cfi_endproc

	.p2align	4, 0x90
__ZN4core3str21_$LT$impl$u20$str$GT$16is_char_boundary17hc016639ac6a8c958E:
Lfunc_begin30:
	.file	22 "/rustc/2c8cc343237b8f7d5a3c3703e3a87f2eb2c54a74/library/core/src/str" "mod.rs"
	.loc	22 211 0
	.cfi_startproc
	pushq	%rbp
	.cfi_def_cfa_offset 16
	.cfi_offset %rbp, -16
	movq	%rsp, %rbp
	.cfi_def_cfa_register %rbp
	subq	$176, %rsp
	movq	%rdi, -176(%rbp)
	movq	%rsi, -168(%rbp)
	movq	%rdx, -160(%rbp)
	movq	%rdi, -136(%rbp)
	movq	%rsi, -128(%rbp)
	movq	%rdx, -120(%rbp)
Ltmp139:
	.loc	22 216 12 prologue_end
	cmpq	$0, %rdx
	jne	LBB30_2
	.loc	22 217 20
	movb	$1, -145(%rbp)
	.loc	22 234 6
	jmp	LBB30_6
LBB30_2:
	.loc	22 0 6 is_stmt 0
	movq	-160(%rbp), %rdi
	movq	-168(%rbp), %rax
	movq	-176(%rbp), %rcx
	.loc	22 220 15 is_stmt 1
	movq	%rcx, -112(%rbp)
	movq	%rax, -104(%rbp)
Ltmp140:
	.loc	22 327 18
	movq	%rcx, -96(%rbp)
	movq	%rax, -88(%rbp)
	movq	-96(%rbp), %rsi
	movq	-88(%rbp), %rdx
Ltmp141:
	.loc	22 220 15
	movq	%rsi, -80(%rbp)
	movq	%rdx, -72(%rbp)
	.loc	22 220 35 is_stmt 0
	movq	%rdi, -64(%rbp)
Ltmp142:
	.loc	13 343 9 is_stmt 1
	callq	__ZN75_$LT$usize$u20$as$u20$core..slice..index..SliceIndex$LT$$u5b$T$u5d$$GT$$GT$3get17h3039fbdc0d8969e1E
	movq	%rax, -144(%rbp)
Ltmp143:
	.loc	22 220 15
	movq	-144(%rbp), %rdx
	movl	$1, %eax
	xorl	%ecx, %ecx
	cmpq	$0, %rdx
	cmoveq	%rcx, %rax
	.loc	22 220 9 is_stmt 0
	cmpq	$0, %rax
	jne	LBB30_4
	.loc	22 0 9
	movq	-160(%rbp), %rax
	movq	-168(%rbp), %rcx
	movq	-176(%rbp), %rdx
	.loc	22 230 30 is_stmt 1
	movq	%rdx, -48(%rbp)
	movq	%rcx, -40(%rbp)
Ltmp144:
	.loc	22 160 9
	movq	%rdx, -32(%rbp)
	movq	%rcx, -24(%rbp)
Ltmp145:
	.loc	22 327 18
	movq	%rdx, -16(%rbp)
	movq	%rcx, -8(%rbp)
Ltmp146:
	.loc	22 230 21
	cmpq	-8(%rbp), %rax
	sete	%al
	andb	$1, %al
	movb	%al, -145(%rbp)
	.loc	22 230 39 is_stmt 0
	jmp	LBB30_5
LBB30_4:
	.loc	22 232 19 is_stmt 1
	movq	-144(%rbp), %rax
	movb	(%rax), %al
	movb	%al, -50(%rbp)
Ltmp147:
	.loc	22 232 25 is_stmt 0
	movb	%al, -49(%rbp)
Ltmp148:
	.loc	17 885 9 is_stmt 1
	cmpb	$-64, %al
	setge	%al
	andb	$1, %al
	movb	%al, -145(%rbp)
Ltmp149:
LBB30_5:
	.loc	22 234 6
	jmp	LBB30_6
LBB30_6:
	movb	-145(%rbp), %al
	andb	$1, %al
	movzbl	%al, %eax
	addq	$176, %rsp
	popq	%rbp
	retq
Ltmp150:
Lfunc_end30:
	.cfi_endproc

	.p2align	4, 0x90
__ZN4core3str6traits108_$LT$impl$u20$core..slice..index..SliceIndex$LT$str$GT$$u20$for$u20$core..ops..range..Range$LT$usize$GT$$GT$13get_unchecked17h8c30106eaeb30810E:
Lfunc_begin31:
	.file	23 "/rustc/2c8cc343237b8f7d5a3c3703e3a87f2eb2c54a74/library/core/src/str" "traits.rs"
	.loc	23 197 0
	.cfi_startproc
	pushq	%rbp
	.cfi_def_cfa_offset 16
	.cfi_offset %rbp, -16
	movq	%rsp, %rbp
	.cfi_def_cfa_register %rbp
	subq	$192, %rsp
	movq	%rdi, -160(%rbp)
	movq	%rsi, -152(%rbp)
	movq	%rdx, -144(%rbp)
	movq	%rcx, -136(%rbp)
Ltmp151:
	.loc	23 198 21 prologue_end
	movq	%rdx, -128(%rbp)
	movq	%rcx, -120(%rbp)
Ltmp152:
	.loc	23 201 28
	movq	%rdx, -112(%rbp)
	movq	%rcx, -104(%rbp)
Ltmp153:
	.loc	2 1650 9
	movq	%rdx, -96(%rbp)
Ltmp154:
	.loc	23 201 47
	movq	%rdi, -88(%rbp)
Ltmp155:
	.loc	2 932 18
	movq	%rdx, -80(%rbp)
	.loc	2 932 30 is_stmt 0
	movq	%rdi, -72(%rbp)
Ltmp156:
	.loc	2 473 18 is_stmt 1
	addq	%rdi, %rdx
	movq	%rdx, -64(%rbp)
	movq	-64(%rbp), %rax
	movq	%rax, -56(%rbp)
Ltmp157:
	.loc	23 202 19
	subq	%rdi, %rsi
	movq	%rsi, -48(%rbp)
Ltmp158:
	.loc	23 203 35
	movq	%rax, -40(%rbp)
	.loc	23 203 40 is_stmt 0
	movq	%rsi, -32(%rbp)
Ltmp159:
	.loc	3 734 20 is_stmt 1
	movq	%rax, -24(%rbp)
Ltmp160:
	.loc	2 61 9
	movq	%rax, -16(%rbp)
Ltmp161:
	.loc	3 734 33
	movq	%rsi, -8(%rbp)
Ltmp162:
	.loc	4 118 36
	movq	%rax, -176(%rbp)
	movq	%rsi, -168(%rbp)
	.loc	4 118 14 is_stmt 0
	movq	-176(%rbp), %rcx
	movq	-168(%rbp), %rax
	movq	%rcx, -192(%rbp)
	movq	%rax, -184(%rbp)
	movq	-192(%rbp), %rax
	movq	-184(%rbp), %rdx
Ltmp163:
	.loc	23 204 6 is_stmt 1
	addq	$192, %rsp
	popq	%rbp
	retq
Ltmp164:
Lfunc_end31:
	.cfi_endproc

	.p2align	4, 0x90
__ZN4core3str6traits108_$LT$impl$u20$core..slice..index..SliceIndex$LT$str$GT$$u20$for$u20$core..ops..range..Range$LT$usize$GT$$GT$3get17h51df7566c3b030c4E:
Lfunc_begin32:
	.loc	23 170 0
	.cfi_startproc
	pushq	%rbp
	.cfi_def_cfa_offset 16
	.cfi_offset %rbp, -16
	movq	%rsp, %rbp
	.cfi_def_cfa_register %rbp
	subq	$96, %rsp
	movq	%rdi, -88(%rbp)
	movq	%rsi, -80(%rbp)
	movq	%rdx, -72(%rbp)
	movq	%rcx, -64(%rbp)
	movq	%rdi, -32(%rbp)
	movq	%rsi, -24(%rbp)
	movq	%rdx, -16(%rbp)
	movq	%rcx, -8(%rbp)
Ltmp165:
	.loc	23 171 12 prologue_end
	cmpq	%rsi, %rdi
	jbe	LBB32_2
	movb	$0, -33(%rbp)
	jmp	LBB32_3
LBB32_2:
	.loc	23 0 12 is_stmt 0
	movq	-88(%rbp), %rdx
	movq	-64(%rbp), %rsi
	movq	-72(%rbp), %rdi
	.loc	23 172 16 is_stmt 1
	callq	__ZN4core3str21_$LT$impl$u20$str$GT$16is_char_boundary17hc016639ac6a8c958E
	.loc	23 171 12
	andb	$1, %al
	movb	%al, -33(%rbp)
LBB32_3:
	testb	$1, -33(%rbp)
	jne	LBB32_5
	movb	$0, -34(%rbp)
	jmp	LBB32_6
LBB32_5:
	.loc	23 0 12 is_stmt 0
	movq	-80(%rbp), %rdx
	movq	-64(%rbp), %rsi
	movq	-72(%rbp), %rdi
	.loc	23 173 16 is_stmt 1
	callq	__ZN4core3str21_$LT$impl$u20$str$GT$16is_char_boundary17hc016639ac6a8c958E
	.loc	23 171 12
	andb	$1, %al
	movb	%al, -34(%rbp)
LBB32_6:
	testb	$1, -34(%rbp)
	jne	LBB32_8
	.loc	23 180 13
	movq	$0, -56(%rbp)
	.loc	23 171 9
	jmp	LBB32_9
LBB32_8:
	.loc	23 0 9 is_stmt 0
	movq	-64(%rbp), %rcx
	movq	-72(%rbp), %rdx
	movq	-80(%rbp), %rsi
	movq	-88(%rbp), %rdi
	.loc	23 178 29 is_stmt 1
	callq	__ZN4core3str6traits108_$LT$impl$u20$core..slice..index..SliceIndex$LT$str$GT$$u20$for$u20$core..ops..range..Range$LT$usize$GT$$GT$13get_unchecked17h8c30106eaeb30810E
	.loc	23 178 13 is_stmt 0
	movq	%rax, -56(%rbp)
	movq	%rdx, -48(%rbp)
LBB32_9:
	.loc	23 182 6 is_stmt 1
	movq	-56(%rbp), %rax
	movq	-48(%rbp), %rdx
	addq	$96, %rsp
	popq	%rbp
	retq
Ltmp166:
Lfunc_end32:
	.cfi_endproc

	.p2align	4, 0x90
__ZN4core3str6traits108_$LT$impl$u20$core..slice..index..SliceIndex$LT$str$GT$$u20$for$u20$core..ops..range..Range$LT$usize$GT$$GT$5index17hefbdc7b14ab4084cE:
Lfunc_begin33:
	.loc	23 214 0
	.cfi_startproc
	pushq	%rbp
	.cfi_def_cfa_offset 16
	.cfi_offset %rbp, -16
	movq	%rsp, %rbp
	.cfi_def_cfa_register %rbp
	subq	$144, %rsp
	movq	%rdx, -136(%rbp)
	movq	%rcx, -128(%rbp)
	movq	%r8, -120(%rbp)
	movq	%rdi, -64(%rbp)
	movq	%rsi, -56(%rbp)
	movq	%rdx, -48(%rbp)
	movq	%rcx, -40(%rbp)
Ltmp167:
	.loc	23 215 28 prologue_end
	movq	%rdi, -96(%rbp)
	movq	%rsi, -88(%rbp)
	.loc	23 215 14 is_stmt 0
	movq	-96(%rbp), %rax
	movq	%rax, -112(%rbp)
	movq	%rax, -32(%rbp)
	.loc	23 215 21
	movq	-88(%rbp), %rax
	movq	%rax, -104(%rbp)
	movq	%rax, -24(%rbp)
Ltmp168:
	.loc	23 216 15 is_stmt 1
	callq	__ZN4core3str6traits108_$LT$impl$u20$core..slice..index..SliceIndex$LT$str$GT$$u20$for$u20$core..ops..range..Range$LT$usize$GT$$GT$3get17h51df7566c3b030c4E
	movq	%rdx, -72(%rbp)
	movq	%rax, -80(%rbp)
	movq	-80(%rbp), %rdx
	movl	$1, %eax
	xorl	%ecx, %ecx
	cmpq	$0, %rdx
	cmoveq	%rcx, %rax
	.loc	23 216 9 is_stmt 0
	cmpq	$0, %rax
	jne	LBB33_2
	.loc	23 0 9
	movq	-120(%rbp), %r8
	movq	-104(%rbp), %rcx
	movq	-112(%rbp), %rdx
	movq	-128(%rbp), %rsi
	movq	-136(%rbp), %rdi
	.loc	23 218 21 is_stmt 1
	callq	__ZN4core3str16slice_error_fail17h13b85bf03fb2869bE
LBB33_2:
	.loc	23 217 18
	movq	-80(%rbp), %rax
	movq	-72(%rbp), %rdx
	movq	%rax, -16(%rbp)
	movq	%rdx, -8(%rbp)
Ltmp169:
	.loc	23 220 6
	addq	$144, %rsp
	popq	%rbp
	retq
Ltmp170:
Lfunc_end33:
	.cfi_endproc

	.globl	__ZN4core3str6traits66_$LT$impl$u20$core..ops..index..Index$LT$I$GT$$u20$for$u20$str$GT$5index17h4f3c22bb3cafc430E
	.p2align	4, 0x90
__ZN4core3str6traits66_$LT$impl$u20$core..ops..index..Index$LT$I$GT$$u20$for$u20$str$GT$5index17h4f3c22bb3cafc430E:
Lfunc_begin34:
	.loc	23 64 0
	.cfi_startproc
	pushq	%rbp
	.cfi_def_cfa_offset 16
	.cfi_offset %rbp, -16
	movq	%rsp, %rbp
	.cfi_def_cfa_register %rbp
	subq	$48, %rsp
	movq	%rcx, -48(%rbp)
	movq	%rdx, -40(%rbp)
	movq	%rsi, %rcx
	movq	-48(%rbp), %rsi
	movq	%rdi, %rdx
	movq	-40(%rbp), %rdi
	movq	%rdx, -32(%rbp)
	movq	%rcx, -24(%rbp)
	movq	%rdi, -16(%rbp)
	movq	%rsi, -8(%rbp)
Ltmp171:
	.loc	23 65 9 prologue_end
	callq	__ZN4core3str6traits108_$LT$impl$u20$core..slice..index..SliceIndex$LT$str$GT$$u20$for$u20$core..ops..range..Range$LT$usize$GT$$GT$5index17hefbdc7b14ab4084cE
	.loc	23 66 6
	addq	$48, %rsp
	popq	%rbp
	retq
Ltmp172:
Lfunc_end34:
	.cfi_endproc

	.p2align	4, 0x90
__ZN4core3str8converts19from_utf8_unchecked17hd7853bb7e23e58e3E:
Lfunc_begin35:
	.file	24 "/rustc/2c8cc343237b8f7d5a3c3703e3a87f2eb2c54a74/library/core/src/str" "converts.rs"
	.loc	24 170 0
	.cfi_startproc
	pushq	%rbp
	.cfi_def_cfa_offset 16
	.cfi_offset %rbp, -16
	movq	%rsp, %rbp
	.cfi_def_cfa_register %rbp
	subq	$32, %rsp
	movq	%rdi, -32(%rbp)
	movq	%rsi, -24(%rbp)
Ltmp173:
	.loc	24 173 14 prologue_end
	movq	%rdi, -16(%rbp)
	movq	%rsi, -8(%rbp)
	movq	-16(%rbp), %rax
	movq	-8(%rbp), %rdx
	.loc	24 174 2
	addq	$32, %rsp
	popq	%rbp
	retq
Ltmp174:
Lfunc_end35:
	.cfi_endproc

	.p2align	4, 0x90
__ZN4core4char7convert64_$LT$impl$u20$core..convert..From$LT$u8$GT$$u20$for$u20$char$GT$4from17had2b00d696ae6214E:
Lfunc_begin36:
	.file	25 "/rustc/2c8cc343237b8f7d5a3c3703e3a87f2eb2c54a74/library/core/src/char" "convert.rs"
	.loc	25 139 0
	.cfi_startproc
	pushq	%rbp
	.cfi_def_cfa_offset 16
	.cfi_offset %rbp, -16
	movq	%rsp, %rbp
	.cfi_def_cfa_register %rbp
	subq	$1, %rsp
	movb	%dil, %al
	movb	%al, -1(%rbp)
Ltmp175:
	.loc	25 140 9 prologue_end
	movzbl	%al, %eax
	.loc	25 141 6
	addq	$1, %rsp
	popq	%rbp
	retq
Ltmp176:
Lfunc_end36:
	.cfi_endproc

	.p2align	4, 0x90
__ZN4core4char7methods22_$LT$impl$u20$char$GT$8to_digit17h6fa393c418087d41E:
Lfunc_begin37:
	.file	26 "/rustc/2c8cc343237b8f7d5a3c3703e3a87f2eb2c54a74/library/core/src/char" "methods.rs"
	.loc	26 345 0
	.cfi_startproc
	pushq	%rbp
	.cfi_def_cfa_offset 16
	.cfi_offset %rbp, -16
	movq	%rsp, %rbp
	.cfi_def_cfa_register %rbp
	subq	$112, %rsp
	movl	%edi, -96(%rbp)
	movl	%esi, -92(%rbp)
	movl	%edi, -24(%rbp)
	movl	%esi, -20(%rbp)
Ltmp177:
	.loc	26 347 25 prologue_end
	movl	%edi, -16(%rbp)
Ltmp178:
	.loc	18 1203 13
	subl	$48, %edi
	movl	%edi, -76(%rbp)
Ltmp179:
	.loc	26 348 12
	cmpl	$10, %esi
	ja	LBB37_2
LBB37_1:
	.loc	26 0 12 is_stmt 0
	movl	-92(%rbp), %eax
	.loc	26 357 12 is_stmt 1
	cmpl	%eax, -76(%rbp)
	jb	LBB37_9
	jmp	LBB37_8
LBB37_2:
	.loc	26 0 12 is_stmt 0
	movl	-92(%rbp), %eax
	.loc	26 349 21 is_stmt 1
	cmpl	$36, %eax
	setbe	%al
	.loc	26 349 13 is_stmt 0
	xorb	$-1, %al
	testb	$1, %al
	jne	LBB37_4
	.loc	26 350 16 is_stmt 1
	cmpl	$10, -76(%rbp)
	jb	LBB37_6
	jmp	LBB37_5
LBB37_4:
	.loc	26 349 13
	leaq	l___unnamed_10(%rip), %rsi
	leaq	l___unnamed_6(%rip), %rcx
	xorl	%eax, %eax
	movl	%eax, %r8d
	leaq	-72(%rbp), %rdi
	movq	%rdi, -104(%rbp)
	movl	$1, %edx
	callq	__ZN4core3fmt9Arguments6new_v117h11b609f48d759eaeE
	movq	-104(%rbp), %rdi
	leaq	l___unnamed_11(%rip), %rsi
	callq	__ZN4core9panicking9panic_fmt17h9b5d807e24bcaaedE
LBB37_5:
	.loc	26 0 13 is_stmt 0
	movl	-96(%rbp), %eax
	.loc	26 354 21 is_stmt 1
	orl	$32, %eax
	movl	%eax, -12(%rbp)
Ltmp180:
	.loc	18 1203 13
	subl	$97, %eax
	movl	%eax, -8(%rbp)
Ltmp181:
	.loc	18 1022 13
	addl	$10, %eax
	movl	$-1, %ecx
	cmovbl	%ecx, %eax
	movl	%eax, -4(%rbp)
	movl	-4(%rbp), %eax
Ltmp182:
	.loc	26 354 13
	movl	%eax, -76(%rbp)
	.loc	26 348 9
	jmp	LBB37_1
LBB37_6:
	.loc	26 351 29
	movl	-76(%rbp), %eax
	.loc	26 351 24 is_stmt 0
	movl	%eax, -84(%rbp)
	movl	$1, -88(%rbp)
Ltmp183:
LBB37_7:
	.loc	26 358 6 is_stmt 1
	movl	-88(%rbp), %eax
	movl	-84(%rbp), %edx
	addq	$112, %rsp
	popq	%rbp
	retq
LBB37_8:
Ltmp184:
	.loc	26 357 49
	movl	$0, -88(%rbp)
	.loc	26 357 9 is_stmt 0
	jmp	LBB37_10
LBB37_9:
	.loc	26 357 33
	movl	-76(%rbp), %eax
	.loc	26 357 28
	movl	%eax, -84(%rbp)
	movl	$1, -88(%rbp)
Ltmp185:
LBB37_10:
	.loc	26 358 6 is_stmt 1
	jmp	LBB37_7
Ltmp186:
Lfunc_end37:
	.cfi_endproc

	.p2align	4, 0x90
__ZN4core4hint21unreachable_unchecked17h62a8a0f158c03730E:
Lfunc_begin38:
	.file	27 "/rustc/2c8cc343237b8f7d5a3c3703e3a87f2eb2c54a74/library/core/src" "hint.rs"
	.loc	27 100 0
	.cfi_startproc
	pushq	%rbp
	.cfi_def_cfa_offset 16
	.cfi_offset %rbp, -16
	movq	%rsp, %rbp
	.cfi_def_cfa_register %rbp
Ltmp187:
	.loc	27 104 9 prologue_end
	ud2
Ltmp188:
Lfunc_end38:
	.cfi_endproc

	.globl	__ZN4core4iter6traits8iterator8Iterator4fold17h133d236b267e22cfE
	.p2align	4, 0x90
__ZN4core4iter6traits8iterator8Iterator4fold17h133d236b267e22cfE:
Lfunc_begin39:
	.file	28 "/rustc/2c8cc343237b8f7d5a3c3703e3a87f2eb2c54a74/library/core/src/iter/traits" "iterator.rs"
	.loc	28 2431 0
	.cfi_startproc
	.cfi_personality 155, _rust_eh_personality
	.cfi_lsda 16, Lexception4
	pushq	%rbp
	.cfi_def_cfa_offset 16
	.cfi_offset %rbp, -16
	movq	%rsp, %rbp
	.cfi_def_cfa_register %rbp
	subq	$128, %rsp
	movq	%rdi, -104(%rbp)
Ltmp194:
	movq	%rsi, -96(%rbp)
Ltmp195:
	.loc	28 2436 25 prologue_end
	movb	$1, -49(%rbp)
Ltmp196:
LBB39_1:
Ltmp189:
	.loc	28 0 25 is_stmt 0
	movq	-104(%rbp), %rdi
Ltmp197:
	.loc	28 2437 29 is_stmt 1
	callq	__ZN90_$LT$percent_encoding..PercentEncode$u20$as$u20$core..iter..traits..iterator..Iterator$GT$4next17h5f729b47186a048eE
Ltmp190:
	movq	%rdx, -120(%rbp)
	movq	%rax, -112(%rbp)
	jmp	LBB39_4
Ltmp198:
LBB39_2:
	.loc	28 2441 5
	testb	$1, -49(%rbp)
	jne	LBB39_11
	jmp	LBB39_10
Ltmp199:
LBB39_3:
Ltmp193:
	.loc	28 0 5 is_stmt 0
	movq	%rax, %rcx
	movl	%edx, %eax
	movq	%rcx, -32(%rbp)
	movl	%eax, -24(%rbp)
	jmp	LBB39_2
Ltmp200:
LBB39_4:
	movq	-120(%rbp), %rax
	movq	-112(%rbp), %rcx
Ltmp201:
	.loc	28 2437 29 is_stmt 1
	movq	%rcx, -88(%rbp)
	movq	%rax, -80(%rbp)
	.loc	28 2437 19 is_stmt 0
	movq	-88(%rbp), %rdx
	movl	$1, %eax
	xorl	%ecx, %ecx
	cmpq	$0, %rdx
	cmoveq	%rcx, %rax
	cmpq	$1, %rax
	jne	LBB39_6
Ltmp202:
	.loc	28 2437 24
	movq	-88(%rbp), %rcx
	movq	-80(%rbp), %rax
	movq	%rcx, -16(%rbp)
	movq	%rax, -8(%rbp)
	.loc	28 2438 23 is_stmt 1
	movb	$0, -49(%rbp)
	.loc	28 2438 21 is_stmt 0
	movq	%rcx, -72(%rbp)
	movq	%rax, -64(%rbp)
	movq	-72(%rbp), %rsi
	movq	-64(%rbp), %rdx
Ltmp191:
	leaq	-96(%rbp), %rdi
	callq	__ZN4core4iter6traits8iterator8Iterator8for_each4call28_$u7b$$u7b$closure$u7d$$u7d$17h9e21abe9d5683eaaE
Ltmp192:
	jmp	LBB39_9
Ltmp203:
LBB39_6:
	.loc	28 2437 9 is_stmt 1
	jmp	LBB39_7
Ltmp204:
LBB39_7:
	.loc	28 2441 5
	jmp	LBB39_8
Ltmp205:
LBB39_8:
	.loc	28 2441 6 is_stmt 0
	addq	$128, %rsp
	popq	%rbp
	retq
Ltmp206:
LBB39_9:
	.loc	28 2438 13 is_stmt 1
	movb	$1, -49(%rbp)
Ltmp207:
	.loc	28 2437 9
	jmp	LBB39_1
Ltmp208:
LBB39_10:
	.loc	28 2441 5
	jmp	LBB39_12
Ltmp209:
LBB39_11:
	jmp	LBB39_10
Ltmp210:
LBB39_12:
	.loc	28 2431 5
	movq	-32(%rbp), %rdi
	callq	__Unwind_Resume
Ltmp211:
Lfunc_end39:
	.cfi_endproc
	.section	__TEXT,__gcc_except_tab
	.p2align	2
GCC_except_table39:
Lexception4:
	.byte	255
	.byte	255
	.byte	1
	.uleb128 Lcst_end4-Lcst_begin4
Lcst_begin4:
	.uleb128 Ltmp189-Lfunc_begin39
	.uleb128 Ltmp192-Ltmp189
	.uleb128 Ltmp193-Lfunc_begin39
	.byte	0
	.uleb128 Ltmp192-Lfunc_begin39
	.uleb128 Lfunc_end39-Ltmp192
	.byte	0
	.byte	0
Lcst_end4:
	.p2align	2

	.section	__TEXT,__text,regular,pure_instructions
	.globl	__ZN4core4iter6traits8iterator8Iterator8for_each17h9a9f12a479900ffcE
	.p2align	4, 0x90
__ZN4core4iter6traits8iterator8Iterator8for_each17h9a9f12a479900ffcE:
Lfunc_begin40:
	.loc	28 827 0
	.cfi_startproc
	.cfi_personality 155, _rust_eh_personality
	.cfi_lsda 16, Lexception5
	pushq	%rbp
	.cfi_def_cfa_offset 16
	.cfi_offset %rbp, -16
	movq	%rsp, %rbp
	.cfi_def_cfa_register %rbp
	subq	$64, %rsp
	movq	%rsi, -32(%rbp)
Ltmp215:
	.loc	28 837 9 prologue_end
	movq	16(%rdi), %rax
	movq	%rax, -48(%rbp)
	movq	(%rdi), %rax
	movq	8(%rdi), %rcx
	movq	%rcx, -56(%rbp)
	movq	%rax, -64(%rbp)
	.loc	28 837 28 is_stmt 0
	movq	%rsi, -24(%rbp)
Ltmp216:
	.loc	28 834 13 is_stmt 1
	movq	%rsi, -40(%rbp)
Ltmp217:
	.loc	28 837 9
	movq	-40(%rbp), %rsi
Ltmp212:
	leaq	-64(%rbp), %rdi
Ltmp218:
	callq	__ZN4core4iter6traits8iterator8Iterator4fold17h133d236b267e22cfE
Ltmp213:
	jmp	LBB40_3
Ltmp219:
LBB40_1:
	.loc	28 837 30 is_stmt 0
	xorl	%eax, %eax
	testb	$1, %al
	jne	LBB40_5
	jmp	LBB40_4
Ltmp220:
LBB40_2:
Ltmp214:
	.loc	28 0 30
	movq	%rax, %rcx
	movl	%edx, %eax
	movq	%rcx, -16(%rbp)
	movl	%eax, -8(%rbp)
	jmp	LBB40_1
Ltmp221:
LBB40_3:
	.loc	28 838 6 is_stmt 1
	addq	$64, %rsp
	popq	%rbp
	retq
Ltmp222:
LBB40_4:
	.loc	28 827 5
	movq	-16(%rbp), %rdi
	callq	__Unwind_Resume
Ltmp223:
LBB40_5:
	.loc	28 837 30
	jmp	LBB40_4
Ltmp224:
Lfunc_end40:
	.cfi_endproc
	.section	__TEXT,__gcc_except_tab
	.p2align	2
GCC_except_table40:
Lexception5:
	.byte	255
	.byte	255
	.byte	1
	.uleb128 Lcst_end5-Lcst_begin5
Lcst_begin5:
	.uleb128 Ltmp212-Lfunc_begin40
	.uleb128 Ltmp213-Ltmp212
	.uleb128 Ltmp214-Lfunc_begin40
	.byte	0
	.uleb128 Ltmp213-Lfunc_begin40
	.uleb128 Lfunc_end40-Ltmp213
	.byte	0
	.byte	0
Lcst_end5:
	.p2align	2

	.section	__TEXT,__text,regular,pure_instructions
	.globl	__ZN4core4iter6traits8iterator8Iterator8for_each4call28_$u7b$$u7b$closure$u7d$$u7d$17h9e21abe9d5683eaaE
	.p2align	4, 0x90
__ZN4core4iter6traits8iterator8Iterator8for_each4call28_$u7b$$u7b$closure$u7d$$u7d$17h9e21abe9d5683eaaE:
Lfunc_begin41:
	.loc	28 834 0
	.cfi_startproc
	pushq	%rbp
	.cfi_def_cfa_offset 16
	.cfi_offset %rbp, -16
	movq	%rsp, %rbp
	.cfi_def_cfa_register %rbp
	subq	$48, %rsp
	movq	%rdi, -32(%rbp)
	movq	%rsi, -16(%rbp)
	movq	%rdx, -8(%rbp)
Ltmp225:
	.loc	28 834 29 prologue_end
	movq	%rsi, -48(%rbp)
	movq	%rdx, -40(%rbp)
	movq	-48(%rbp), %rsi
	movq	-40(%rbp), %rdx
	callq	__ZN92_$LT$alloc..string..String$u20$as$u20$core..iter..traits..collect..Extend$LT$$RF$str$GT$$GT$6extend28_$u7b$$u7b$closure$u7d$$u7d$17h6737c0ca4df54b2cE
	.loc	28 834 36 is_stmt 0
	addq	$48, %rsp
	popq	%rbp
	retq
Ltmp226:
Lfunc_end41:
	.cfi_endproc

	.globl	__ZN4core4iter6traits8iterator8Iterator9enumerate17hd4c6f2bf2550ae79E
	.p2align	4, 0x90
__ZN4core4iter6traits8iterator8Iterator9enumerate17hd4c6f2bf2550ae79E:
Lfunc_begin42:
	.loc	28 993 0 is_stmt 1
	.cfi_startproc
	pushq	%rbp
	.cfi_def_cfa_offset 16
	.cfi_offset %rbp, -16
	movq	%rsp, %rbp
	.cfi_def_cfa_register %rbp
	subq	$32, %rsp
	movq	%rdi, %rax
	movq	%rax, -24(%rbp)
	movq	%rsi, -16(%rbp)
	movq	%rdx, -8(%rbp)
Ltmp227:
	.loc	28 997 9 prologue_end
	callq	__ZN4core4iter8adapters9enumerate18Enumerate$LT$I$GT$3new17h23c2d54f22e333d7E
	movq	-24(%rbp), %rax
	.loc	28 998 6
	addq	$32, %rsp
	popq	%rbp
	retq
Ltmp228:
Lfunc_end42:
	.cfi_endproc

	.globl	__ZN4core4iter8adapters9enumerate18Enumerate$LT$I$GT$3new17h23c2d54f22e333d7E
	.p2align	4, 0x90
__ZN4core4iter8adapters9enumerate18Enumerate$LT$I$GT$3new17h23c2d54f22e333d7E:
Lfunc_begin43:
	.loc	5 22 0
	.cfi_startproc
	pushq	%rbp
	.cfi_def_cfa_offset 16
	.cfi_offset %rbp, -16
	movq	%rsp, %rbp
	.cfi_def_cfa_register %rbp
	subq	$16, %rsp
	movq	%rdi, %rax
	movq	%rsi, -16(%rbp)
	movq	%rdx, -8(%rbp)
Ltmp229:
	.loc	5 23 9 prologue_end
	movq	%rsi, (%rdi)
	movq	%rdx, 8(%rdi)
	movq	$0, 16(%rdi)
	.loc	5 24 6
	addq	$16, %rsp
	popq	%rbp
	retq
Ltmp230:
Lfunc_end43:
	.cfi_endproc

	.p2align	4, 0x90
__ZN4core5alloc6layout6Layout5array5inner17hc2bcd3d1438f650bE:
Lfunc_begin44:
	.file	29 "/rustc/2c8cc343237b8f7d5a3c3703e3a87f2eb2c54a74/library/core/src/alloc" "layout.rs"
	.loc	29 441 0
	.cfi_startproc
	pushq	%rbp
	.cfi_def_cfa_offset 16
	.cfi_offset %rbp, -16
	movq	%rsp, %rbp
	.cfi_def_cfa_register %rbp
	subq	$176, %rsp
	movq	%rdi, -168(%rbp)
	movq	%rsi, -160(%rbp)
	movq	%rdx, -152(%rbp)
	movq	%rdi, -88(%rbp)
	movq	%rsi, -80(%rbp)
	movq	%rdx, -72(%rbp)
Ltmp231:
	.loc	29 452 16 prologue_end
	cmpq	$0, %rdi
	jne	LBB44_2
	movb	$0, -121(%rbp)
	jmp	LBB44_5
LBB44_2:
	.loc	29 0 16 is_stmt 0
	movq	-168(%rbp), %rax
	movq	-160(%rbp), %rcx
	.loc	29 452 68
	movq	%rcx, -64(%rbp)
Ltmp232:
	.loc	29 93 32 is_stmt 1
	movq	%rcx, -56(%rbp)
Ltmp233:
	.file	30 "/rustc/2c8cc343237b8f7d5a3c3703e3a87f2eb2c54a74/library/core/src/ptr" "alignment.rs"
	.loc	30 97 9
	movq	%rcx, -104(%rbp)
	movq	-104(%rbp), %rdx
Ltmp234:
	.loc	29 93 31
	subq	$1, %rdx
	.loc	29 93 9 is_stmt 0
	movabsq	$9223372036854775807, %rcx
	subq	%rdx, %rcx
	movq	%rcx, -176(%rbp)
Ltmp235:
	.loc	29 452 41 is_stmt 1
	cmpq	$0, %rax
	sete	%al
	testb	$1, %al
	jne	LBB44_4
	.loc	29 0 41 is_stmt 0
	movq	-168(%rbp), %rcx
	movq	-176(%rbp), %rax
	.loc	29 452 41
	xorl	%edx, %edx
	divq	%rcx
	movq	%rax, %rcx
	movq	-152(%rbp), %rax
	.loc	29 452 37
	cmpq	%rcx, %rax
	seta	%al
	.loc	29 452 16
	andb	$1, %al
	movb	%al, -121(%rbp)
	jmp	LBB44_5
LBB44_4:
	.loc	29 452 41
	leaq	_str.1(%rip), %rdi
	leaq	l___unnamed_12(%rip), %rdx
	movl	$25, %esi
	callq	__ZN4core9panicking5panic17hc1bc45270cf64b03E
LBB44_5:
	.loc	29 452 16
	testb	$1, -121(%rbp)
	jne	LBB44_7
	.loc	29 0 16
	movq	-160(%rbp), %rax
	movq	-152(%rbp), %rdx
	movq	-168(%rbp), %rcx
	.loc	29 456 30 is_stmt 1
	imulq	%rdx, %rcx
	movq	%rcx, -48(%rbp)
Ltmp236:
	.loc	29 461 59
	movq	%rcx, -40(%rbp)
	.loc	29 461 71 is_stmt 0
	movq	%rax, -32(%rbp)
Ltmp237:
	.loc	30 97 9 is_stmt 1
	movq	%rax, -96(%rbp)
	movq	-96(%rbp), %rax
	movq	%rax, -24(%rbp)
Ltmp238:
	.loc	29 120 65
	movq	%rax, -16(%rbp)
Ltmp239:
	.loc	30 89 18
	movq	%rax, -8(%rbp)
	movq	-8(%rbp), %rax
Ltmp240:
	.loc	29 120 18
	movq	%rcx, -120(%rbp)
	movq	%rax, -112(%rbp)
Ltmp241:
	.loc	29 461 22
	movq	-120(%rbp), %rcx
	movq	-112(%rbp), %rax
	movq	%rcx, -144(%rbp)
	movq	%rax, -136(%rbp)
Ltmp242:
	.loc	29 462 10
	jmp	LBB44_8
LBB44_7:
	.loc	29 453 24
	movq	$0, -136(%rbp)
LBB44_8:
	.loc	29 462 10
	movq	-144(%rbp), %rax
	movq	-136(%rbp), %rdx
	addq	$176, %rsp
	popq	%rbp
	retq
Ltmp243:
Lfunc_end44:
	.cfi_endproc

	.globl	__ZN4core5array85_$LT$impl$u20$core..ops..index..Index$LT$I$GT$$u20$for$u20$$u5b$T$u3b$$u20$N$u5d$$GT$5index17hb401778b1f09aa78E
	.p2align	4, 0x90
__ZN4core5array85_$LT$impl$u20$core..ops..index..Index$LT$I$GT$$u20$for$u20$$u5b$T$u3b$$u20$N$u5d$$GT$5index17hb401778b1f09aa78E:
Lfunc_begin45:
	.file	31 "/rustc/2c8cc343237b8f7d5a3c3703e3a87f2eb2c54a74/library/core/src/array" "mod.rs"
	.loc	31 357 0
	.cfi_startproc
	pushq	%rbp
	.cfi_def_cfa_offset 16
	.cfi_offset %rbp, -16
	movq	%rsp, %rbp
	.cfi_def_cfa_register %rbp
	subq	$16, %rsp
	movq	%rsi, %rdx
	movq	%rdi, -16(%rbp)
	xorl	%eax, %eax
	movl	%eax, %esi
Ltmp244:
	.loc	31 358 9 prologue_end
	callq	__ZN4core5slice5index74_$LT$impl$u20$core..ops..index..Index$LT$I$GT$$u20$for$u20$$u5b$T$u5d$$GT$5index17hd14a4e5ce0a8f3f1E
	.loc	31 359 6
	addq	$16, %rsp
	popq	%rbp
	retq
Ltmp245:
Lfunc_end45:
	.cfi_endproc

	.globl	__ZN4core5slice29_$LT$impl$u20$$u5b$T$u5d$$GT$11split_first17h43a60c7175bc96fbE
	.p2align	4, 0x90
__ZN4core5slice29_$LT$impl$u20$$u5b$T$u5d$$GT$11split_first17h43a60c7175bc96fbE:
Lfunc_begin46:
	.loc	13 211 0
	.cfi_startproc
	pushq	%rbp
	.cfi_def_cfa_offset 16
	.cfi_offset %rbp, -16
	movq	%rsp, %rbp
	.cfi_def_cfa_register %rbp
	subq	$96, %rsp
	movq	%rdx, -96(%rbp)
	movq	%rsi, -88(%rbp)
	movq	%rdi, -80(%rbp)
	movq	%rdi, -72(%rbp)
	movq	%rsi, -40(%rbp)
	movq	%rdx, -32(%rbp)
Ltmp246:
	.loc	13 212 16 prologue_end
	cmpq	$1, %rdx
	jae	LBB46_2
Ltmp247:
	.loc	13 0 16 is_stmt 0
	movq	-80(%rbp), %rax
	.loc	13 212 73
	movq	$0, (%rax)
	.loc	13 212 9
	jmp	LBB46_3
LBB46_2:
	.loc	13 0 9
	movq	-80(%rbp), %rax
	movq	-88(%rbp), %rsi
	movq	-96(%rbp), %rcx
Ltmp248:
	.loc	13 212 17
	movq	%rsi, -24(%rbp)
	.loc	13 212 24
	movq	%rsi, %rdx
	addq	$1, %rdx
	subq	$1, %rcx
	movq	%rdx, -16(%rbp)
	movq	%rcx, -8(%rbp)
	.loc	13 212 49
	movq	%rsi, -64(%rbp)
	movq	%rdx, -56(%rbp)
	movq	%rcx, -48(%rbp)
	.loc	13 212 44
	movq	-64(%rbp), %rcx
	movq	%rcx, (%rax)
	movq	-56(%rbp), %rcx
	movq	%rcx, 8(%rax)
	movq	-48(%rbp), %rcx
	movq	%rcx, 16(%rax)
Ltmp249:
LBB46_3:
	.loc	13 0 44
	movq	-72(%rbp), %rax
	.loc	13 213 6 is_stmt 1
	addq	$96, %rsp
	popq	%rbp
	retq
Ltmp250:
Lfunc_end46:
	.cfi_endproc

	.globl	__ZN4core5slice29_$LT$impl$u20$$u5b$T$u5d$$GT$18split_at_unchecked17h33c32e299a76183aE
	.p2align	4, 0x90
__ZN4core5slice29_$LT$impl$u20$$u5b$T$u5d$$GT$18split_at_unchecked17h33c32e299a76183aE:
Lfunc_begin47:
	.loc	13 1673 0
	.cfi_startproc
	pushq	%rbp
	.cfi_def_cfa_offset 16
	.cfi_offset %rbp, -16
	movq	%rsp, %rbp
	.cfi_def_cfa_register %rbp
	subq	$272, %rsp
	movq	%rcx, %r9
	movq	%rsi, %rcx
	movq	%rdi, %rax
	movq	%rcx, -208(%rbp)
	movq	%rdx, -200(%rbp)
	movq	%r9, -192(%rbp)
Ltmp251:
	.loc	13 1678 19 prologue_end
	movq	%rdx, -184(%rbp)
Ltmp252:
	.loc	13 1679 19
	movq	%rcx, -176(%rbp)
	movq	%rdx, -168(%rbp)
Ltmp253:
	.loc	13 477 9
	movq	%rcx, -160(%rbp)
Ltmp254:
	.loc	13 1682 34
	movq	%rcx, -152(%rbp)
	.loc	13 1682 39 is_stmt 0
	movq	%r9, -144(%rbp)
Ltmp255:
	.file	32 "/rustc/2c8cc343237b8f7d5a3c3703e3a87f2eb2c54a74/library/core/src/slice" "raw.rs"
	.loc	32 100 37 is_stmt 1
	movq	%rcx, -136(%rbp)
	.loc	32 100 43 is_stmt 0
	movq	%r9, -128(%rbp)
Ltmp256:
	.loc	3 734 20 is_stmt 1
	movq	%rcx, -120(%rbp)
Ltmp257:
	.loc	2 61 9
	movq	%rcx, -112(%rbp)
Ltmp258:
	.loc	3 734 33
	movq	%r9, -104(%rbp)
Ltmp259:
	.loc	4 118 36
	movq	%rcx, -256(%rbp)
	movq	%r9, -248(%rbp)
	.loc	4 118 14 is_stmt 0
	movq	-256(%rbp), %r8
	movq	-248(%rbp), %rsi
	movq	%r8, -272(%rbp)
	movq	%rsi, -264(%rbp)
	movq	-272(%rbp), %r8
	movq	-264(%rbp), %rsi
Ltmp260:
	.loc	13 1682 60 is_stmt 1
	movq	%rcx, -96(%rbp)
	.loc	13 1682 68 is_stmt 0
	movq	%r9, -88(%rbp)
Ltmp261:
	.loc	2 932 18 is_stmt 1
	movq	%rcx, -80(%rbp)
	.loc	2 932 30 is_stmt 0
	movq	%r9, -72(%rbp)
Ltmp262:
	.loc	2 473 18 is_stmt 1
	addq	%r9, %rcx
	movq	%rcx, -64(%rbp)
	movq	-64(%rbp), %rcx
	movq	%rcx, -56(%rbp)
Ltmp263:
	.loc	13 1682 74
	subq	%r9, %rdx
	movq	%rdx, -48(%rbp)
Ltmp264:
	.loc	32 100 37
	movq	%rcx, -40(%rbp)
	.loc	32 100 43 is_stmt 0
	movq	%rdx, -32(%rbp)
Ltmp265:
	.loc	3 734 20 is_stmt 1
	movq	%rcx, -24(%rbp)
Ltmp266:
	.loc	2 61 9
	movq	%rcx, -16(%rbp)
Ltmp267:
	.loc	3 734 33
	movq	%rdx, -8(%rbp)
Ltmp268:
	.loc	4 118 36
	movq	%rcx, -224(%rbp)
	movq	%rdx, -216(%rbp)
	.loc	4 118 14 is_stmt 0
	movq	-224(%rbp), %rdx
	movq	-216(%rbp), %rcx
	movq	%rdx, -240(%rbp)
	movq	%rcx, -232(%rbp)
	movq	-240(%rbp), %rdx
	movq	-232(%rbp), %rcx
Ltmp269:
	.loc	13 1682 18 is_stmt 1
	movq	%r8, (%rdi)
	movq	%rsi, 8(%rdi)
	movq	%rdx, 16(%rdi)
	movq	%rcx, 24(%rdi)
Ltmp270:
	.loc	13 1683 6
	addq	$272, %rsp
	popq	%rbp
	retq
Ltmp271:
Lfunc_end47:
	.cfi_endproc

	.globl	__ZN4core5slice29_$LT$impl$u20$$u5b$T$u5d$$GT$4iter17h1373bfcc6c1ed715E
	.p2align	4, 0x90
__ZN4core5slice29_$LT$impl$u20$$u5b$T$u5d$$GT$4iter17h1373bfcc6c1ed715E:
Lfunc_begin48:
	.loc	13 741 0
	.cfi_startproc
	pushq	%rbp
	.cfi_def_cfa_offset 16
	.cfi_offset %rbp, -16
	movq	%rsp, %rbp
	.cfi_def_cfa_register %rbp
	subq	$16, %rsp
	movq	%rdi, -16(%rbp)
	movq	%rsi, -8(%rbp)
Ltmp272:
	.loc	13 742 9 prologue_end
	callq	__ZN4core5slice4iter13Iter$LT$T$GT$3new17h94c64fc37df14715E
	.loc	13 743 6
	addq	$16, %rsp
	popq	%rbp
	retq
Ltmp273:
Lfunc_end48:
	.cfi_endproc

	.globl	__ZN4core5slice29_$LT$impl$u20$$u5b$T$u5d$$GT$8is_empty17h8aa58562f21d44fcE
	.p2align	4, 0x90
__ZN4core5slice29_$LT$impl$u20$$u5b$T$u5d$$GT$8is_empty17h8aa58562f21d44fcE:
Lfunc_begin49:
	.loc	13 152 0
	.cfi_startproc
	pushq	%rbp
	.cfi_def_cfa_offset 16
	.cfi_offset %rbp, -16
	movq	%rsp, %rbp
	.cfi_def_cfa_register %rbp
	subq	$16, %rsp
	movq	%rdi, -16(%rbp)
	movq	%rsi, -8(%rbp)
Ltmp274:
	.loc	13 153 9 prologue_end
	cmpq	$0, %rsi
	sete	%al
	.loc	13 154 6
	andb	$1, %al
	movzbl	%al, %eax
	addq	$16, %rsp
	popq	%rbp
	retq
Ltmp275:
Lfunc_end49:
	.cfi_endproc

	.globl	__ZN4core5slice29_$LT$impl$u20$$u5b$T$u5d$$GT$8split_at17h5f55f17495745eb8E
	.p2align	4, 0x90
__ZN4core5slice29_$LT$impl$u20$$u5b$T$u5d$$GT$8split_at17h5f55f17495745eb8E:
Lfunc_begin50:
	.loc	13 1587 0
	.cfi_startproc
	pushq	%rbp
	.cfi_def_cfa_offset 16
	.cfi_offset %rbp, -16
	movq	%rsp, %rbp
	.cfi_def_cfa_register %rbp
	subq	$80, %rsp
	movq	%r8, -72(%rbp)
	movq	%rcx, -64(%rbp)
	movq	%rdx, -56(%rbp)
	movq	%rsi, -48(%rbp)
	movq	%rdi, -40(%rbp)
	movq	%rdi, -32(%rbp)
	movq	%rsi, -24(%rbp)
	movq	%rdx, -16(%rbp)
	movq	%rcx, -8(%rbp)
Ltmp276:
	.loc	13 1588 17 prologue_end
	cmpq	%rdx, %rcx
	setbe	%al
	.loc	13 1588 9 is_stmt 0
	xorb	$-1, %al
	testb	$1, %al
	jne	LBB50_2
	.loc	13 0 9
	movq	-64(%rbp), %rcx
	movq	-56(%rbp), %rdx
	movq	-48(%rbp), %rsi
	movq	-40(%rbp), %rdi
	.loc	13 1591 18 is_stmt 1
	callq	__ZN4core5slice29_$LT$impl$u20$$u5b$T$u5d$$GT$18split_at_unchecked17h33c32e299a76183aE
	movq	-32(%rbp), %rax
	.loc	13 1592 6
	addq	$80, %rsp
	popq	%rbp
	retq
LBB50_2:
	.loc	13 0 6 is_stmt 0
	movq	-72(%rbp), %rdx
	.loc	13 1588 9 is_stmt 1
	leaq	l___unnamed_13(%rip), %rdi
	movl	$35, %esi
	callq	__ZN4core9panicking5panic17hc1bc45270cf64b03E
Ltmp277:
Lfunc_end50:
	.cfi_endproc

	.globl	__ZN4core5slice4iter13Iter$LT$T$GT$3new17h94c64fc37df14715E
	.p2align	4, 0x90
__ZN4core5slice4iter13Iter$LT$T$GT$3new17h94c64fc37df14715E:
Lfunc_begin51:
	.file	33 "/rustc/2c8cc343237b8f7d5a3c3703e3a87f2eb2c54a74/library/core/src/slice" "iter.rs"
	.loc	33 82 0
	.cfi_startproc
	pushq	%rbp
	.cfi_def_cfa_offset 16
	.cfi_offset %rbp, -16
	movq	%rsp, %rbp
	.cfi_def_cfa_register %rbp
	subq	$280, %rsp
	movq	%rdi, -280(%rbp)
	movq	%rsi, -272(%rbp)
	movq	%rdi, -208(%rbp)
	movq	%rsi, -200(%rbp)
Ltmp278:
	.loc	33 83 19 prologue_end
	movq	%rdi, -184(%rbp)
	movq	%rsi, -176(%rbp)
Ltmp279:
	.loc	13 477 9
	movq	%rdi, -168(%rbp)
Ltmp280:
	.loc	33 86 21
	movq	%rdi, -160(%rbp)
Ltmp281:
	.loc	2 53 36
	movq	%rdi, -232(%rbp)
	.loc	2 53 18 is_stmt 0
	movq	-232(%rbp), %rax
	movq	%rax, -152(%rbp)
Ltmp282:
	.loc	2 39 13 is_stmt 1
	movq	%rax, -144(%rbp)
Ltmp283:
	.loc	2 209 33
	movq	%rax, -136(%rbp)
	.loc	2 209 18 is_stmt 0
	movq	%rax, -128(%rbp)
Ltmp284:
	.loc	33 89 20 is_stmt 1
	xorl	%eax, %eax
	testb	$1, %al
	jne	LBB51_2
	.loc	33 0 20 is_stmt 0
	movq	-272(%rbp), %rcx
	movq	-280(%rbp), %rax
	.loc	33 89 76
	movq	%rax, -40(%rbp)
	.loc	33 89 84
	movq	%rcx, -32(%rbp)
Ltmp285:
	.loc	2 932 18 is_stmt 1
	movq	%rax, -24(%rbp)
	.loc	2 932 30 is_stmt 0
	movq	%rcx, -16(%rbp)
Ltmp286:
	.loc	2 473 18 is_stmt 1
	addq	%rcx, %rax
	movq	%rax, -248(%rbp)
Ltmp287:
	.loc	33 89 17
	jmp	LBB51_3
LBB51_2:
	.loc	33 0 17 is_stmt 0
	movq	-272(%rbp), %rcx
	movq	-280(%rbp), %rax
	.loc	33 89 32
	movq	%rax, -120(%rbp)
	.loc	33 89 54
	movq	%rcx, -112(%rbp)
Ltmp288:
	.loc	2 1118 9 is_stmt 1
	movq	%rax, -104(%rbp)
Ltmp289:
	.loc	2 61 9
	movq	%rax, -96(%rbp)
Ltmp290:
	.loc	2 1118 40
	movq	%rcx, -88(%rbp)
Ltmp291:
	.loc	2 1100 9
	movq	%rax, -80(%rbp)
	.loc	2 1100 30 is_stmt 0
	movq	%rcx, -72(%rbp)
Ltmp292:
	.loc	2 555 18 is_stmt 1
	addq	%rcx, %rax
	movq	%rax, -64(%rbp)
	movq	-64(%rbp), %rax
	movq	%rax, -56(%rbp)
Ltmp293:
	.loc	2 100 29
	movq	%rax, -48(%rbp)
Ltmp294:
	.loc	4 118 36
	movq	%rax, -216(%rbp)
	.loc	4 118 14 is_stmt 0
	movq	-216(%rbp), %rax
	movq	%rax, -224(%rbp)
	movq	-224(%rbp), %rax
	movq	%rax, -248(%rbp)
Ltmp295:
LBB51_3:
	.loc	4 0 14
	movq	-280(%rbp), %rax
Ltmp296:
	.loc	33 91 48 is_stmt 1
	movq	%rax, -8(%rbp)
Ltmp297:
	.loc	7 201 13
	movq	%rax, -240(%rbp)
Ltmp298:
	.loc	33 91 64
	movq	-248(%rbp), %rax
	.loc	33 91 13 is_stmt 0
	movq	-240(%rbp), %rcx
	movq	%rcx, -256(%rbp)
	movq	%rax, -264(%rbp)
Ltmp299:
	.loc	33 93 6 is_stmt 1
	movq	-264(%rbp), %rax
	movq	-256(%rbp), %rdx
	addq	$280, %rsp
	popq	%rbp
	retq
Ltmp300:
Lfunc_end51:
	.cfi_endproc

	.globl	__ZN4core5slice4iter13Iter$LT$T$GT$8as_slice17hb6eed525f40ed676E
	.p2align	4, 0x90
__ZN4core5slice4iter13Iter$LT$T$GT$8as_slice17hb6eed525f40ed676E:
Lfunc_begin52:
	.loc	33 122 0
	.cfi_startproc
	pushq	%rbp
	.cfi_def_cfa_offset 16
	.cfi_offset %rbp, -16
	movq	%rsp, %rbp
	.cfi_def_cfa_register %rbp
	subq	$224, %rsp
	movq	%rdi, -224(%rbp)
	movq	%rdi, -160(%rbp)
Ltmp301:
	.loc	33 123 9 prologue_end
	movq	%rdi, -152(%rbp)
Ltmp302:
	.file	34 "/rustc/2c8cc343237b8f7d5a3c3703e3a87f2eb2c54a74/library/core/src/slice/iter" "macros.rs"
	.loc	34 68 41
	movq	8(%rdi), %rax
	movq	%rax, -216(%rbp)
	movq	%rax, -144(%rbp)
	movq	%rax, -136(%rbp)
	.loc	34 16 21
	movq	8(%rdi), %rax
	movq	%rax, -208(%rbp)
	movq	%rax, -128(%rbp)
Ltmp303:
	.loc	34 17 12
	xorl	%eax, %eax
	testb	$1, %al
	jne	LBB52_2
	.loc	34 0 12 is_stmt 0
	movq	-208(%rbp), %rsi
	movq	-224(%rbp), %rax
	.loc	34 25 22 is_stmt 1
	movq	(%rax), %rdi
	.loc	34 25 40 is_stmt 0
	movq	%rsi, -48(%rbp)
	.loc	34 25 22
	callq	__ZN4core3ptr9const_ptr33_$LT$impl$u20$$BP$const$u20$T$GT$7sub_ptr17he4351ea9308b09d0E
	movq	%rax, -200(%rbp)
	.loc	34 17 9 is_stmt 1
	jmp	LBB52_3
LBB52_2:
	.loc	34 0 9 is_stmt 0
	movq	-208(%rbp), %rcx
	movq	-224(%rbp), %rax
	.loc	34 20 13 is_stmt 1
	movq	(%rax), %rax
	movq	%rax, -120(%rbp)
Ltmp304:
	.loc	2 209 33
	movq	%rax, -112(%rbp)
	.loc	2 209 18 is_stmt 0
	movq	%rax, -104(%rbp)
	movq	-104(%rbp), %rax
	movq	%rax, -96(%rbp)
Ltmp305:
	.loc	34 20 43 is_stmt 1
	movq	%rcx, -88(%rbp)
Ltmp306:
	.loc	7 326 9
	movq	%rcx, -80(%rbp)
Ltmp307:
	.loc	20 215 33
	movq	%rcx, -72(%rbp)
	.loc	20 215 18 is_stmt 0
	movq	%rcx, -64(%rbp)
	movq	-64(%rbp), %rcx
	movq	%rcx, -56(%rbp)
Ltmp308:
	.loc	18 1203 13 is_stmt 1
	subq	%rcx, %rax
	movq	%rax, -200(%rbp)
Ltmp309:
LBB52_3:
	.loc	18 0 13 is_stmt 0
	movq	-216(%rbp), %rcx
Ltmp310:
	.loc	32 100 37 is_stmt 1
	movq	%rcx, -40(%rbp)
	.loc	32 100 43 is_stmt 0
	movq	-200(%rbp), %rax
	movq	%rax, -32(%rbp)
Ltmp311:
	.loc	3 734 20 is_stmt 1
	movq	%rcx, -24(%rbp)
Ltmp312:
	.loc	2 61 9
	movq	%rcx, -16(%rbp)
Ltmp313:
	.loc	3 734 33
	movq	%rax, -8(%rbp)
Ltmp314:
	.loc	4 118 36
	movq	%rcx, -176(%rbp)
	movq	%rax, -168(%rbp)
	.loc	4 118 14 is_stmt 0
	movq	-176(%rbp), %rcx
	movq	-168(%rbp), %rax
	movq	%rcx, -192(%rbp)
	movq	%rax, -184(%rbp)
	movq	-192(%rbp), %rax
	movq	-184(%rbp), %rdx
Ltmp315:
	.loc	33 124 6 is_stmt 1
	addq	$224, %rsp
	popq	%rbp
	retq
Ltmp316:
Lfunc_end52:
	.cfi_endproc

	.globl	__ZN4core5slice5index74_$LT$impl$u20$core..ops..index..Index$LT$I$GT$$u20$for$u20$$u5b$T$u5d$$GT$5index17h665a5d2201fd1f84E
	.p2align	4, 0x90
__ZN4core5slice5index74_$LT$impl$u20$core..ops..index..Index$LT$I$GT$$u20$for$u20$$u5b$T$u5d$$GT$5index17h665a5d2201fd1f84E:
Lfunc_begin53:
	.loc	1 17 0
	.cfi_startproc
	pushq	%rbp
	.cfi_def_cfa_offset 16
	.cfi_offset %rbp, -16
	movq	%rsp, %rbp
	.cfi_def_cfa_register %rbp
	subq	$32, %rsp
	movq	%rdx, -32(%rbp)
	movq	%rsi, %rdx
	movq	%rdi, %rsi
	movq	-32(%rbp), %rdi
	movq	%rsi, -24(%rbp)
	movq	%rdx, -16(%rbp)
	movq	%rdi, -8(%rbp)
Ltmp317:
	.loc	1 18 9 prologue_end
	callq	__ZN108_$LT$core..ops..range..RangeTo$LT$usize$GT$$u20$as$u20$core..slice..index..SliceIndex$LT$$u5b$T$u5d$$GT$$GT$5index17hba457f6176f9e0e6E
	.loc	1 19 6
	addq	$32, %rsp
	popq	%rbp
	retq
Ltmp318:
Lfunc_end53:
	.cfi_endproc

	.globl	__ZN4core5slice5index74_$LT$impl$u20$core..ops..index..Index$LT$I$GT$$u20$for$u20$$u5b$T$u5d$$GT$5index17hd14a4e5ce0a8f3f1E
	.p2align	4, 0x90
__ZN4core5slice5index74_$LT$impl$u20$core..ops..index..Index$LT$I$GT$$u20$for$u20$$u5b$T$u5d$$GT$5index17hd14a4e5ce0a8f3f1E:
Lfunc_begin54:
	.loc	1 17 0
	.cfi_startproc
	pushq	%rbp
	.cfi_def_cfa_offset 16
	.cfi_offset %rbp, -16
	movq	%rsp, %rbp
	.cfi_def_cfa_register %rbp
	subq	$32, %rsp
	movq	%rdi, -24(%rbp)
	movq	%rsi, -16(%rbp)
Ltmp319:
	.loc	1 18 9 prologue_end
	callq	__ZN97_$LT$core..ops..range..RangeFull$u20$as$u20$core..slice..index..SliceIndex$LT$$u5b$T$u5d$$GT$$GT$5index17h72fc98fcc13f5d57E
	.loc	1 19 6
	addq	$32, %rsp
	popq	%rbp
	retq
Ltmp320:
Lfunc_end54:
	.cfi_endproc

	.globl	__ZN4core6option15Option$LT$T$GT$3map17he7544e344c371306E
	.p2align	4, 0x90
__ZN4core6option15Option$LT$T$GT$3map17he7544e344c371306E:
Lfunc_begin55:
	.loc	6 964 0
	.cfi_startproc
	pushq	%rbp
	.cfi_def_cfa_offset 16
	.cfi_offset %rbp, -16
	movq	%rsp, %rbp
	.cfi_def_cfa_register %rbp
	subq	$64, %rsp
	movq	%rsi, -56(%rbp)
	movq	%rdi, -48(%rbp)
	movq	%rsi, -16(%rbp)
Ltmp321:
	.loc	6 969 15 prologue_end
	movb	$1, -17(%rbp)
	movq	-48(%rbp), %rdx
	movl	$1, %eax
	xorl	%ecx, %ecx
	cmpq	$0, %rdx
	cmoveq	%rcx, %rax
	.loc	6 969 9 is_stmt 0
	cmpq	$0, %rax
	jne	LBB55_2
	.loc	6 971 21 is_stmt 1
	movb	$0, -40(%rbp)
	jmp	LBB55_3
LBB55_2:
	.loc	6 0 21 is_stmt 0
	movq	-56(%rbp), %rdi
	.loc	6 970 18 is_stmt 1
	movq	-48(%rbp), %rax
	movq	%rax, -8(%rbp)
Ltmp322:
	.loc	6 970 29 is_stmt 0
	movb	$0, -17(%rbp)
	movq	%rax, -32(%rbp)
	movq	-32(%rbp), %rsi
	callq	__ZN90_$LT$percent_encoding..PercentDecode$u20$as$u20$core..iter..traits..iterator..Iterator$GT$4next28_$u7b$$u7b$closure$u7d$$u7d$17hacf666509b63782dE
	.loc	6 970 24
	movb	%al, -39(%rbp)
	movb	$1, -40(%rbp)
Ltmp323:
LBB55_3:
	.loc	6 973 5 is_stmt 1
	testb	$1, -17(%rbp)
	jne	LBB55_5
LBB55_4:
	.loc	6 973 6 is_stmt 0
	movb	-40(%rbp), %al
	movb	-39(%rbp), %dl
	addq	$64, %rsp
	popq	%rbp
	retq
LBB55_5:
	.loc	6 973 5
	jmp	LBB55_4
Ltmp324:
Lfunc_end55:
	.cfi_endproc

	.globl	__ZN4core6option15Option$LT$T$GT$9unwrap_or17h6db924f21f7de898E
	.p2align	4, 0x90
__ZN4core6option15Option$LT$T$GT$9unwrap_or17h6db924f21f7de898E:
Lfunc_begin56:
	.loc	6 844 0 is_stmt 1
	.cfi_startproc
	pushq	%rbp
	.cfi_def_cfa_offset 16
	.cfi_offset %rbp, -16
	movq	%rsp, %rbp
	.cfi_def_cfa_register %rbp
	subq	$16, %rsp
	movb	%dl, %al
	movb	%al, -9(%rbp)
	movb	%sil, %cl
	movb	%dil, %dl
	andb	$1, %dl
	movb	%dl, -8(%rbp)
	movb	%cl, -7(%rbp)
	movb	%al, -2(%rbp)
Ltmp325:
	.loc	6 848 15 prologue_end
	movb	$1, -3(%rbp)
	movb	-8(%rbp), %al
	andb	$1, %al
	movzbl	%al, %eax
	.loc	6 848 9 is_stmt 0
	cmpq	$0, %rax
	jne	LBB56_2
	.loc	6 0 9
	movb	-9(%rbp), %al
	.loc	6 850 21 is_stmt 1
	movb	$0, -3(%rbp)
	movb	%al, -4(%rbp)
	jmp	LBB56_3
LBB56_2:
	.loc	6 849 18
	movb	-7(%rbp), %al
	movb	%al, -1(%rbp)
Ltmp326:
	.loc	6 849 24 is_stmt 0
	movb	%al, -4(%rbp)
Ltmp327:
LBB56_3:
	.loc	6 852 5 is_stmt 1
	testb	$1, -3(%rbp)
	jne	LBB56_5
LBB56_4:
	.loc	6 852 6 is_stmt 0
	movb	-4(%rbp), %al
	addq	$16, %rsp
	popq	%rbp
	retq
LBB56_5:
	.loc	6 852 5
	jmp	LBB56_4
Ltmp328:
Lfunc_end56:
	.cfi_endproc

	.globl	__ZN4core6result19Result$LT$T$C$E$GT$16unwrap_unchecked17h1eed0f981d333cf1E
	.p2align	4, 0x90
__ZN4core6result19Result$LT$T$C$E$GT$16unwrap_unchecked17h1eed0f981d333cf1E:
Lfunc_begin57:
	.loc	11 1530 0 is_stmt 1
	.cfi_startproc
	.cfi_personality 155, _rust_eh_personality
	.cfi_lsda 16, Lexception6
	pushq	%rbp
	.cfi_def_cfa_offset 16
	.cfi_offset %rbp, -16
	movq	%rsp, %rbp
	.cfi_def_cfa_register %rbp
	subq	$64, %rsp
	movq	%rdi, -48(%rbp)
	movq	%rsi, -40(%rbp)
Ltmp332:
	.loc	11 1532 15 prologue_end
	xorl	%eax, %eax
	movl	$1, %ecx
	cmpq	$0, -40(%rbp)
	cmoveq	%rcx, %rax
	.loc	11 1532 9 is_stmt 0
	cmpq	$0, %rax
	jne	LBB57_2
	.loc	11 1533 16 is_stmt 1
	movq	-48(%rbp), %rcx
	movq	%rcx, -64(%rbp)
	movq	-40(%rbp), %rax
	movq	%rax, -56(%rbp)
	movq	%rcx, -16(%rbp)
	movq	%rax, -8(%rbp)
	.loc	11 1537 5
	xorl	%eax, %eax
	movl	$1, %ecx
	cmpq	$0, -40(%rbp)
	cmoveq	%rcx, %rax
	cmpq	$0, %rax
	je	LBB57_10
	jmp	LBB57_11
LBB57_2:
Ltmp329:
	.loc	11 1535 32
	callq	__ZN4core4hint21unreachable_unchecked17h62a8a0f158c03730E
Ltmp330:
	jmp	LBB57_5
LBB57_3:
	.loc	11 1537 5
	xorl	%eax, %eax
	movl	$1, %ecx
	cmpq	$0, -40(%rbp)
	cmoveq	%rcx, %rax
	cmpq	$0, %rax
	je	LBB57_6
	jmp	LBB57_7
LBB57_4:
Ltmp331:
	.loc	11 0 5 is_stmt 0
	movq	%rax, %rcx
	movl	%edx, %eax
	movq	%rcx, -32(%rbp)
	movl	%eax, -24(%rbp)
	jmp	LBB57_3
LBB57_5:
	ud2
LBB57_6:
	.loc	11 1537 5
	movb	$1, %al
	testb	$1, %al
	jne	LBB57_9
	jmp	LBB57_8
LBB57_7:
	jmp	LBB57_8
LBB57_8:
	.loc	11 1530 5 is_stmt 1
	movq	-32(%rbp), %rdi
	callq	__Unwind_Resume
LBB57_9:
	.loc	11 1537 5
	jmp	LBB57_8
LBB57_10:
	.loc	11 0 5 is_stmt 0
	movq	-56(%rbp), %rdx
	movq	-64(%rbp), %rax
	.loc	11 1537 6
	addq	$64, %rsp
	popq	%rbp
	retq
LBB57_11:
	.loc	11 1537 5
	jmp	LBB57_10
Ltmp333:
Lfunc_end57:
	.cfi_endproc
	.section	__TEXT,__gcc_except_tab
	.p2align	2
GCC_except_table57:
Lexception6:
	.byte	255
	.byte	255
	.byte	1
	.uleb128 Lcst_end6-Lcst_begin6
Lcst_begin6:
	.uleb128 Ltmp329-Lfunc_begin57
	.uleb128 Ltmp330-Ltmp329
	.uleb128 Ltmp331-Lfunc_begin57
	.byte	0
	.uleb128 Ltmp330-Lfunc_begin57
	.uleb128 Lfunc_end57-Ltmp330
	.byte	0
	.byte	0
Lcst_end6:
	.p2align	2

	.section	__TEXT,__text,regular,pure_instructions
	.globl	__ZN4core6result19Result$LT$T$C$E$GT$7map_err17h25849380f3f35178E
	.p2align	4, 0x90
__ZN4core6result19Result$LT$T$C$E$GT$7map_err17h25849380f3f35178E:
Lfunc_begin58:
	.loc	11 857 0 is_stmt 1
	.cfi_startproc
	pushq	%rbp
	.cfi_def_cfa_offset 16
	.cfi_offset %rbp, -16
	movq	%rsp, %rbp
	.cfi_def_cfa_register %rbp
	subq	$96, %rsp
	movq	%rdi, -88(%rbp)
	movq	%rsi, -80(%rbp)
Ltmp334:
	.loc	11 858 15 prologue_end
	movb	$1, -33(%rbp)
	movabsq	$-9223372036854775807, %rdx
	movl	$1, %eax
	xorl	%ecx, %ecx
	cmpq	%rdx, -80(%rbp)
	cmoveq	%rcx, %rax
	.loc	11 858 9 is_stmt 0
	cmpq	$0, %rax
	jne	LBB58_2
Ltmp335:
	.loc	11 859 22 is_stmt 1
	movabsq	$-9223372036854775807, %rax
	movq	%rax, -64(%rbp)
Ltmp336:
	.loc	11 859 26 is_stmt 0
	jmp	LBB58_3
LBB58_2:
	.loc	11 860 17 is_stmt 1
	movq	-88(%rbp), %rcx
	movq	-80(%rbp), %rax
	movq	%rcx, -16(%rbp)
	movq	%rax, -8(%rbp)
Ltmp337:
	.loc	11 860 27 is_stmt 0
	movb	$0, -33(%rbp)
	movq	%rcx, -56(%rbp)
	movq	%rax, -48(%rbp)
	movq	-56(%rbp), %rdi
	movq	-48(%rbp), %rsi
	callq	__ZN5alloc7raw_vec14handle_reserve28_$u7b$$u7b$closure$u7d$$u7d$17h3ef9d37c60a32c89E
	.loc	11 860 23
	movq	%rax, -72(%rbp)
	movq	%rdx, -64(%rbp)
Ltmp338:
LBB58_3:
	.loc	11 862 5 is_stmt 1
	testb	$1, -33(%rbp)
	jne	LBB58_5
LBB58_4:
	.loc	11 862 6 is_stmt 0
	movq	-72(%rbp), %rax
	movq	-64(%rbp), %rdx
	addq	$96, %rsp
	popq	%rbp
	retq
LBB58_5:
	.loc	11 862 5
	jmp	LBB58_4
Ltmp339:
Lfunc_end58:
	.cfi_endproc

	.globl	__ZN4core6result19Result$LT$T$C$E$GT$7map_err17haa6380eefe530da8E
	.p2align	4, 0x90
__ZN4core6result19Result$LT$T$C$E$GT$7map_err17haa6380eefe530da8E:
Lfunc_begin59:
	.loc	11 857 0 is_stmt 1
	.cfi_startproc
	pushq	%rbp
	.cfi_def_cfa_offset 16
	.cfi_offset %rbp, -16
	movq	%rsp, %rbp
	.cfi_def_cfa_register %rbp
	subq	$80, %rsp
	movq	%rdi, -72(%rbp)
	movq	%rdi, -64(%rbp)
	movq	%rsi, -56(%rbp)
	movq	%rdx, -48(%rbp)
Ltmp340:
	.loc	11 858 15 prologue_end
	movb	$1, -33(%rbp)
	xorl	%eax, %eax
	movl	$1, %ecx
	cmpq	$0, -48(%rbp)
	cmoveq	%rcx, %rax
	.loc	11 858 9 is_stmt 0
	cmpq	$0, %rax
	jne	LBB59_2
	.loc	11 0 9
	movq	-72(%rbp), %rax
	.loc	11 859 16 is_stmt 1
	movq	-56(%rbp), %rdx
	movq	-48(%rbp), %rcx
	movq	%rdx, -16(%rbp)
	movq	%rcx, -8(%rbp)
Ltmp341:
	.loc	11 859 22 is_stmt 0
	movq	%rdx, 8(%rax)
	movq	%rcx, 16(%rax)
	movq	$0, (%rax)
Ltmp342:
	.loc	11 859 26
	jmp	LBB59_3
LBB59_2:
Ltmp343:
	.loc	11 860 27 is_stmt 1
	movb	$0, -33(%rbp)
	callq	__ZN5alloc7raw_vec11finish_grow28_$u7b$$u7b$closure$u7d$$u7d$17hab79c1ea146e1d60E
	movq	%rax, %rcx
	movq	-72(%rbp), %rax
	.loc	11 860 23 is_stmt 0
	movq	%rcx, 8(%rax)
	movq	%rdx, 16(%rax)
	movq	$1, (%rax)
Ltmp344:
LBB59_3:
	.loc	11 862 5 is_stmt 1
	testb	$1, -33(%rbp)
	jne	LBB59_5
LBB59_4:
	.loc	11 0 5 is_stmt 0
	movq	-64(%rbp), %rax
	.loc	11 862 6
	addq	$80, %rsp
	popq	%rbp
	retq
LBB59_5:
	.loc	11 862 5
	jmp	LBB59_4
Ltmp345:
Lfunc_end59:
	.cfi_endproc

	.globl	__ZN4core6result19Result$LT$T$C$E$GT$7map_err17he90d2b8960efbe89E
	.p2align	4, 0x90
__ZN4core6result19Result$LT$T$C$E$GT$7map_err17he90d2b8960efbe89E:
Lfunc_begin60:
	.loc	11 857 0 is_stmt 1
	.cfi_startproc
	pushq	%rbp
	.cfi_def_cfa_offset 16
	.cfi_offset %rbp, -16
	movq	%rsp, %rbp
	.cfi_def_cfa_register %rbp
	subq	$80, %rsp
	movq	%rcx, -80(%rbp)
	movq	%rdi, -72(%rbp)
	movq	%rdi, -64(%rbp)
	movq	%rsi, -56(%rbp)
	movq	%rdx, -48(%rbp)
	movq	%rcx, -32(%rbp)
Ltmp346:
	.loc	11 858 15 prologue_end
	movb	$1, -33(%rbp)
	movq	-56(%rbp), %rdx
	xorl	%eax, %eax
	movl	$1, %ecx
	cmpq	$0, %rdx
	cmoveq	%rcx, %rax
	.loc	11 858 9 is_stmt 0
	cmpq	$0, %rax
	jne	LBB60_2
	.loc	11 0 9
	movq	-72(%rbp), %rax
	.loc	11 859 16 is_stmt 1
	movq	-56(%rbp), %rdx
	movq	-48(%rbp), %rcx
	movq	%rdx, -16(%rbp)
	movq	%rcx, -8(%rbp)
Ltmp347:
	.loc	11 859 22 is_stmt 0
	movq	%rdx, 8(%rax)
	movq	%rcx, 16(%rax)
	movq	$0, (%rax)
Ltmp348:
	.loc	11 859 26
	jmp	LBB60_3
LBB60_2:
	.loc	11 0 26
	movq	-80(%rbp), %rdi
Ltmp349:
	.loc	11 860 27 is_stmt 1
	movb	$0, -33(%rbp)
	callq	__ZN5alloc7raw_vec11finish_grow28_$u7b$$u7b$closure$u7d$$u7d$17hc44dcb362b1eb597E
	movq	%rax, %rcx
	movq	-72(%rbp), %rax
	.loc	11 860 23 is_stmt 0
	movq	%rcx, 8(%rax)
	movq	%rdx, 16(%rax)
	movq	$1, (%rax)
Ltmp350:
LBB60_3:
	.loc	11 862 5 is_stmt 1
	testb	$1, -33(%rbp)
	jne	LBB60_5
LBB60_4:
	.loc	11 0 5 is_stmt 0
	movq	-64(%rbp), %rax
	.loc	11 862 6
	addq	$80, %rsp
	popq	%rbp
	retq
LBB60_5:
	.loc	11 862 5
	jmp	LBB60_4
Ltmp351:
Lfunc_end60:
	.cfi_endproc

	.globl	__ZN50_$LT$T$u20$as$u20$core..convert..Into$LT$U$GT$$GT$4into17h16234ee799c76780E
	.p2align	4, 0x90
__ZN50_$LT$T$u20$as$u20$core..convert..Into$LT$U$GT$$GT$4into17h16234ee799c76780E:
Lfunc_begin61:
	.file	35 "/rustc/2c8cc343237b8f7d5a3c3703e3a87f2eb2c54a74/library/core/src/convert" "mod.rs"
	.loc	35 725 0 is_stmt 1
	.cfi_startproc
	pushq	%rbp
	.cfi_def_cfa_offset 16
	.cfi_offset %rbp, -16
	movq	%rsp, %rbp
	.cfi_def_cfa_register %rbp
	subq	$32, %rsp
	movq	%rdi, %rax
	movq	%rax, -24(%rbp)
	movq	%rsi, -16(%rbp)
	movq	%rdx, -8(%rbp)
Ltmp352:
	.loc	35 726 9 prologue_end
	callq	__ZN16percent_encoding127_$LT$impl$u20$core..convert..From$LT$percent_encoding..PercentDecode$GT$$u20$for$u20$alloc..borrow..Cow$LT$$u5b$u8$u5d$$GT$$GT$4from17h91971bc813e19f8eE
	movq	-24(%rbp), %rax
	.loc	35 727 6
	addq	$32, %rsp
	popq	%rbp
	retq
Ltmp353:
Lfunc_end61:
	.cfi_endproc

	.globl	__ZN50_$LT$T$u20$as$u20$core..convert..Into$LT$U$GT$$GT$4into17h66957494f4841e4eE
	.p2align	4, 0x90
__ZN50_$LT$T$u20$as$u20$core..convert..Into$LT$U$GT$$GT$4into17h66957494f4841e4eE:
Lfunc_begin62:
	.loc	35 725 0
	.cfi_startproc
	pushq	%rbp
	.cfi_def_cfa_offset 16
	.cfi_offset %rbp, -16
	movq	%rsp, %rbp
	.cfi_def_cfa_register %rbp
	subq	$32, %rsp
	movq	%rdi, %rax
	movq	%rax, -32(%rbp)
Ltmp354:
	.loc	35 726 17 prologue_end
	movq	(%rsi), %rax
	movq	%rax, -24(%rbp)
	movq	8(%rsi), %rax
	movq	%rax, -16(%rbp)
	movq	16(%rsi), %rax
	movq	%rax, -8(%rbp)
	.loc	35 726 9 is_stmt 0
	leaq	-24(%rbp), %rsi
Ltmp355:
	callq	__ZN5alloc6string108_$LT$impl$u20$core..convert..From$LT$alloc..string..String$GT$$u20$for$u20$alloc..borrow..Cow$LT$str$GT$$GT$4from17h57dc9b9505848e7bE
	movq	-32(%rbp), %rax
	.loc	35 727 6 is_stmt 1
	addq	$32, %rsp
	popq	%rbp
	retq
Ltmp356:
Lfunc_end62:
	.cfi_endproc

	.globl	__ZN50_$LT$T$u20$as$u20$core..convert..Into$LT$U$GT$$GT$4into17h83533c440f0f5146E
	.p2align	4, 0x90
__ZN50_$LT$T$u20$as$u20$core..convert..Into$LT$U$GT$$GT$4into17h83533c440f0f5146E:
Lfunc_begin63:
	.loc	35 725 0
	.cfi_startproc
	pushq	%rbp
	.cfi_def_cfa_offset 16
	.cfi_offset %rbp, -16
	movq	%rsp, %rbp
	.cfi_def_cfa_register %rbp
	subq	$32, %rsp
	movq	%rdi, %rax
	movq	%rax, -24(%rbp)
	movq	%rsi, -16(%rbp)
	movq	%rdx, -8(%rbp)
Ltmp357:
	.loc	35 726 9 prologue_end
	callq	__ZN5alloc6string94_$LT$impl$u20$core..convert..From$LT$$RF$str$GT$$u20$for$u20$alloc..borrow..Cow$LT$str$GT$$GT$4from17h1fa0838f545493d9E
	movq	-24(%rbp), %rax
	.loc	35 727 6
	addq	$32, %rsp
	popq	%rbp
	retq
Ltmp358:
Lfunc_end63:
	.cfi_endproc

	.globl	__ZN50_$LT$T$u20$as$u20$core..convert..Into$LT$U$GT$$GT$4into17hb3e68b1d340acaf3E
	.p2align	4, 0x90
__ZN50_$LT$T$u20$as$u20$core..convert..Into$LT$U$GT$$GT$4into17hb3e68b1d340acaf3E:
Lfunc_begin64:
	.loc	35 725 0
	.cfi_startproc
	pushq	%rbp
	.cfi_def_cfa_offset 16
	.cfi_offset %rbp, -16
	movq	%rsp, %rbp
	.cfi_def_cfa_register %rbp
	subq	$16, %rsp
	movq	%rdi, -8(%rbp)
Ltmp359:
	.loc	35 726 9 prologue_end
	callq	__ZN119_$LT$core..ptr..non_null..NonNull$LT$T$GT$$u20$as$u20$core..convert..From$LT$core..ptr..unique..Unique$LT$T$GT$$GT$$GT$4from17h9185ec441a9f45b6E
	.loc	35 727 6
	addq	$16, %rsp
	popq	%rbp
	retq
Ltmp360:
Lfunc_end64:
	.cfi_endproc

	.globl	__ZN50_$LT$T$u20$as$u20$core..convert..Into$LT$U$GT$$GT$4into17he6fc19bf885ff601E
	.p2align	4, 0x90
__ZN50_$LT$T$u20$as$u20$core..convert..Into$LT$U$GT$$GT$4into17he6fc19bf885ff601E:
Lfunc_begin65:
	.loc	35 725 0
	.cfi_startproc
	pushq	%rbp
	.cfi_def_cfa_offset 16
	.cfi_offset %rbp, -16
	movq	%rsp, %rbp
	.cfi_def_cfa_register %rbp
	subq	$16, %rsp
	movq	%rdi, -16(%rbp)
	movq	%rsi, -8(%rbp)
Ltmp361:
	.loc	35 726 9 prologue_end
	callq	__ZN122_$LT$alloc..collections..TryReserveError$u20$as$u20$core..convert..From$LT$alloc..collections..TryReserveErrorKind$GT$$GT$4from17h0090c7eb1671fcecE
	.loc	35 727 6
	addq	$16, %rsp
	popq	%rbp
	retq
Ltmp362:
Lfunc_end65:
	.cfi_endproc

	.globl	__ZN52_$LT$T$u20$as$u20$alloc..slice..hack..ConvertVec$GT$6to_vec17h8e1fba677b199351E
	.p2align	4, 0x90
__ZN52_$LT$T$u20$as$u20$alloc..slice..hack..ConvertVec$GT$6to_vec17h8e1fba677b199351E:
Lfunc_begin66:
	.file	36 "/rustc/2c8cc343237b8f7d5a3c3703e3a87f2eb2c54a74/library/alloc/src" "slice.rs"
	.loc	36 161 0
	.cfi_startproc
	.cfi_personality 155, _rust_eh_personality
	.cfi_lsda 16, Lexception7
	pushq	%rbp
	.cfi_def_cfa_offset 16
	.cfi_offset %rbp, -16
	movq	%rsp, %rbp
	.cfi_def_cfa_register %rbp
	subq	$448, %rsp
	movq	%rdx, -432(%rbp)
	movq	%rsi, -424(%rbp)
	movq	%rdi, -416(%rbp)
	movq	%rdi, -408(%rbp)
	movq	%rsi, -320(%rbp)
	movq	%rdx, -312(%rbp)
Ltmp366:
	.loc	36 162 47 prologue_end
	movq	%rsi, -280(%rbp)
	movq	%rdx, -272(%rbp)
Ltmp367:
	.loc	13 137 23
	movq	%rsi, -264(%rbp)
	movq	%rdx, -256(%rbp)
Ltmp368:
	.loc	4 98 14
	movq	%rsi, -384(%rbp)
	movq	%rdx, -376(%rbp)
	movq	-376(%rbp), %rdi
	movq	%rdi, -248(%rbp)
Ltmp369:
	.file	37 "/rustc/2c8cc343237b8f7d5a3c3703e3a87f2eb2c54a74/library/alloc/src/vec" "mod.rs"
	.loc	37 676 45
	movq	%rdi, -240(%rbp)
Ltmp370:
	.file	38 "/rustc/2c8cc343237b8f7d5a3c3703e3a87f2eb2c54a74/library/alloc/src" "raw_vec.rs"
	.loc	38 131 37
	movb	$0, -361(%rbp)
	.loc	38 131 9 is_stmt 0
	movzbl	-361(%rbp), %esi
Ltmp363:
	callq	__ZN5alloc7raw_vec19RawVec$LT$T$C$A$GT$11allocate_in17h0465702ddddc4765E
Ltmp364:
	movq	%rdx, -400(%rbp)
	movq	%rax, -392(%rbp)
	jmp	LBB66_3
Ltmp371:
LBB66_1:
	.loc	36 171 9 is_stmt 1
	xorl	%eax, %eax
	testb	$1, %al
	jne	LBB66_6
	jmp	LBB66_5
LBB66_2:
Ltmp365:
	.loc	36 0 9 is_stmt 0
	movq	%rax, %rcx
	movl	%edx, %eax
	movq	%rcx, -232(%rbp)
	movl	%eax, -224(%rbp)
	jmp	LBB66_1
LBB66_3:
Ltmp372:
	movq	-416(%rbp), %rax
	movq	-424(%rbp), %rcx
	movq	-432(%rbp), %rdx
	movq	-400(%rbp), %rsi
	movq	-392(%rbp), %rdi
Ltmp373:
	.loc	37 676 9 is_stmt 1
	movq	%rdi, (%rax)
	movq	%rsi, 8(%rax)
	movq	$0, 16(%rax)
Ltmp374:
	.loc	36 167 17
	movq	%rcx, -216(%rbp)
	movq	%rdx, -208(%rbp)
Ltmp375:
	.loc	13 477 9
	movq	%rcx, -200(%rbp)
Ltmp376:
	.loc	36 167 51
	movq	%rax, -192(%rbp)
Ltmp377:
	.loc	37 1280 19
	movq	%rax, -184(%rbp)
Ltmp378:
	.loc	38 224 9
	movq	8(%rax), %rax
	movq	%rax, -440(%rbp)
	movq	%rax, -176(%rbp)
Ltmp379:
	.loc	8 104 9
	movq	%rax, -168(%rbp)
Ltmp380:
	.loc	7 326 9
	movq	%rax, -160(%rbp)
Ltmp381:
	.loc	37 1282 21
	movq	%rax, -152(%rbp)
Ltmp382:
	.loc	20 52 36
	movq	%rax, -360(%rbp)
	.loc	20 52 18 is_stmt 0
	movq	-360(%rbp), %rax
	movq	%rax, -144(%rbp)
Ltmp383:
	.loc	20 38 13 is_stmt 1
	movq	%rax, -136(%rbp)
Ltmp384:
	.loc	20 215 33
	movq	%rax, -128(%rbp)
	.loc	20 215 18 is_stmt 0
	movq	%rax, -120(%rbp)
	movq	-120(%rbp), %rax
Ltmp385:
	.loc	20 0 18
	movq	-432(%rbp), %rax
	movq	-424(%rbp), %rsi
	movq	-440(%rbp), %rdi
	.loc	36 167 67 is_stmt 1
	movq	%rsi, -112(%rbp)
	movq	%rax, -104(%rbp)
Ltmp386:
	.loc	13 137 23
	movq	%rsi, -96(%rbp)
	movq	%rax, -88(%rbp)
Ltmp387:
	.loc	4 98 14
	movq	%rsi, -352(%rbp)
	movq	%rax, -344(%rbp)
	movq	-344(%rbp), %rdx
	movq	%rdx, -80(%rbp)
Ltmp388:
	.loc	2 1297 38
	movq	%rsi, -72(%rbp)
	.loc	2 1297 44 is_stmt 0
	movq	%rdi, -64(%rbp)
	.loc	2 1297 50
	movq	%rdx, -56(%rbp)
Ltmp389:
	.file	39 "/rustc/2c8cc343237b8f7d5a3c3703e3a87f2eb2c54a74/library/core/src" "intrinsics.rs"
	.loc	39 2372 9 is_stmt 1
	shlq	$0, %rdx
	callq	_memcpy
	movq	-424(%rbp), %rsi
	movq	-432(%rbp), %rdx
	movq	-416(%rbp), %rcx
	movq	-408(%rbp), %rax
Ltmp390:
	.loc	36 168 17
	movq	%rcx, -48(%rbp)
	.loc	36 168 27 is_stmt 0
	movq	%rsi, -40(%rbp)
	movq	%rdx, -32(%rbp)
Ltmp391:
	.loc	13 137 23 is_stmt 1
	movq	%rsi, -24(%rbp)
	movq	%rdx, -16(%rbp)
Ltmp392:
	.loc	4 98 14
	movq	%rsi, -336(%rbp)
	movq	%rdx, -328(%rbp)
	movq	-328(%rbp), %rdx
	movq	%rdx, -8(%rbp)
Ltmp393:
	.loc	37 1377 9
	movq	%rdx, 16(%rcx)
Ltmp394:
	.loc	36 171 10
	addq	$448, %rsp
	popq	%rbp
	retq
Ltmp395:
LBB66_5:
	.loc	36 161 9
	movq	-232(%rbp), %rdi
	callq	__Unwind_Resume
LBB66_6:
	.loc	36 171 9
	jmp	LBB66_5
Ltmp396:
Lfunc_end66:
	.cfi_endproc
	.section	__TEXT,__gcc_except_tab
	.p2align	2
GCC_except_table66:
Lexception7:
	.byte	255
	.byte	255
	.byte	1
	.uleb128 Lcst_end7-Lcst_begin7
Lcst_begin7:
	.uleb128 Ltmp363-Lfunc_begin66
	.uleb128 Ltmp364-Ltmp363
	.uleb128 Ltmp365-Lfunc_begin66
	.byte	0
	.uleb128 Ltmp364-Lfunc_begin66
	.uleb128 Lfunc_end66-Ltmp364
	.byte	0
	.byte	0
Lcst_end7:
	.p2align	2

	.section	__TEXT,__text,regular,pure_instructions
	.p2align	4, 0x90
__ZN5alloc3str56_$LT$impl$u20$alloc..borrow..ToOwned$u20$for$u20$str$GT$8to_owned17ha866e405f31764bdE:
Lfunc_begin67:
	.file	40 "/rustc/2c8cc343237b8f7d5a3c3703e3a87f2eb2c54a74/library/alloc/src" "str.rs"
	.loc	40 208 0
	.cfi_startproc
	pushq	%rbp
	.cfi_def_cfa_offset 16
	.cfi_offset %rbp, -16
	movq	%rsp, %rbp
	.cfi_def_cfa_register %rbp
	subq	$112, %rsp
	movq	%rdi, -112(%rbp)
	movq	%rdi, -104(%rbp)
	movq	%rsi, -48(%rbp)
	movq	%rdx, -40(%rbp)
Ltmp397:
	.loc	40 209 46 prologue_end
	movq	%rsi, -32(%rbp)
	movq	%rdx, -24(%rbp)
Ltmp398:
	.loc	22 327 18
	movq	%rsi, -16(%rbp)
	movq	%rdx, -8(%rbp)
	movq	-16(%rbp), %rsi
	movq	-8(%rbp), %rdx
Ltmp399:
	.loc	40 209 46
	leaq	-96(%rbp), %rdi
	callq	__ZN5alloc5slice64_$LT$impl$u20$alloc..borrow..ToOwned$u20$for$u20$$u5b$T$u5d$$GT$8to_owned17h607b302c8a77fb8aE
	movq	-112(%rbp), %rdi
	movq	-104(%rbp), %rax
Ltmp400:
	.file	41 "/rustc/2c8cc343237b8f7d5a3c3703e3a87f2eb2c54a74/library/alloc/src" "string.rs"
	.loc	41 846 23
	movq	-96(%rbp), %rcx
	movq	%rcx, -72(%rbp)
	movq	-88(%rbp), %rcx
	movq	%rcx, -64(%rbp)
	movq	-80(%rbp), %rcx
	movq	%rcx, -56(%rbp)
	.loc	41 846 9 is_stmt 0
	movq	-72(%rbp), %rcx
	movq	%rcx, (%rdi)
	movq	-64(%rbp), %rcx
	movq	%rcx, 8(%rdi)
	movq	-56(%rbp), %rcx
	movq	%rcx, 16(%rdi)
Ltmp401:
	.loc	40 210 6 is_stmt 1
	addq	$112, %rsp
	popq	%rbp
	retq
Ltmp402:
Lfunc_end67:
	.cfi_endproc

	.globl	__ZN5alloc3vec16Vec$LT$T$C$A$GT$15append_elements17h3394390727f703f6E
	.p2align	4, 0x90
__ZN5alloc3vec16Vec$LT$T$C$A$GT$15append_elements17h3394390727f703f6E:
Lfunc_begin68:
	.loc	37 1950 0
	.cfi_startproc
	pushq	%rbp
	.cfi_def_cfa_offset 16
	.cfi_offset %rbp, -16
	movq	%rsp, %rbp
	.cfi_def_cfa_register %rbp
	subq	$224, %rsp
	movq	%rdx, -224(%rbp)
	movq	%rsi, %rax
	movq	-224(%rbp), %rsi
	movq	%rdi, -200(%rbp)
	movq	%rax, -216(%rbp)
	movq	%rsi, -208(%rbp)
	movq	%rdi, -184(%rbp)
	movq	%rax, -176(%rbp)
	movq	%rsi, -168(%rbp)
Ltmp403:
	.loc	37 1951 30 prologue_end
	movq	%rsi, -160(%rbp)
Ltmp404:
	.loc	37 1952 9
	callq	__ZN5alloc3vec16Vec$LT$T$C$A$GT$7reserve17hc37353164524f104E
	movq	-216(%rbp), %rsi
	movq	-208(%rbp), %rdx
	movq	-200(%rbp), %rdi
	.loc	37 1953 19
	movq	%rdi, -152(%rbp)
Ltmp405:
	.loc	37 2062 9
	movq	16(%rdi), %rcx
	movq	%rcx, -144(%rbp)
Ltmp406:
	.loc	37 1954 43
	movq	%rsi, -136(%rbp)
	.loc	37 1954 62 is_stmt 0
	movq	%rdi, -128(%rbp)
Ltmp407:
	.loc	37 1280 19 is_stmt 1
	movq	%rdi, -120(%rbp)
Ltmp408:
	.loc	38 224 9
	movq	8(%rdi), %rax
	movq	%rax, -112(%rbp)
Ltmp409:
	.loc	8 104 9
	movq	%rax, -104(%rbp)
Ltmp410:
	.loc	7 326 9
	movq	%rax, -96(%rbp)
Ltmp411:
	.loc	37 1282 21
	movq	%rax, -88(%rbp)
Ltmp412:
	.loc	20 52 36
	movq	%rax, -192(%rbp)
	.loc	20 52 18 is_stmt 0
	movq	-192(%rbp), %rdi
	movq	%rdi, -80(%rbp)
Ltmp413:
	.loc	20 38 13 is_stmt 1
	movq	%rdi, -72(%rbp)
Ltmp414:
	.loc	20 215 33
	movq	%rdi, -64(%rbp)
	.loc	20 215 18 is_stmt 0
	movq	%rdi, -56(%rbp)
Ltmp415:
	.loc	37 1954 84 is_stmt 1
	movq	%rcx, -48(%rbp)
Ltmp416:
	.loc	20 1034 18
	movq	%rax, -40(%rbp)
	.loc	20 1034 30 is_stmt 0
	movq	%rcx, -32(%rbp)
Ltmp417:
	.loc	20 487 18 is_stmt 1
	addq	%rcx, %rax
	movq	%rax, -24(%rbp)
	movq	-24(%rbp), %rdi
	movq	%rdi, -16(%rbp)
Ltmp418:
	.loc	37 1954 90
	movq	%rdx, -8(%rbp)
Ltmp419:
	.loc	39 2372 9
	shlq	$0, %rdx
	callq	_memcpy
	movq	-208(%rbp), %rdx
	movq	-200(%rbp), %rdi
Ltmp420:
	.loc	37 1955 9
	addq	16(%rdi), %rdx
	movq	%rdx, 16(%rdi)
Ltmp421:
	.loc	37 1956 6
	addq	$224, %rsp
	popq	%rbp
	retq
Ltmp422:
Lfunc_end68:
	.cfi_endproc

	.globl	__ZN5alloc3vec16Vec$LT$T$C$A$GT$16extend_desugared17hb973a0d8d97310e9E
	.p2align	4, 0x90
__ZN5alloc3vec16Vec$LT$T$C$A$GT$16extend_desugared17hb973a0d8d97310e9E:
Lfunc_begin69:
	.loc	37 2845 0
	.cfi_startproc
	.cfi_personality 155, _rust_eh_personality
	.cfi_lsda 16, Lexception8
	pushq	%rbp
	.cfi_def_cfa_offset 16
	.cfi_offset %rbp, -16
	movq	%rsp, %rbp
	.cfi_def_cfa_register %rbp
	subq	$352, %rsp
	movq	%rdi, -304(%rbp)
	movq	%rsi, -296(%rbp)
	movq	%rdx, -288(%rbp)
	movq	%rdi, -224(%rbp)
LBB69_1:
Ltmp423:
	leaq	-296(%rbp), %rdi
Ltmp431:
	.loc	37 2853 35 prologue_end
	callq	__ZN90_$LT$percent_encoding..PercentDecode$u20$as$u20$core..iter..traits..iterator..Iterator$GT$4next17ha7eebda17fe7ebfeE
Ltmp424:
	movb	%dl, -306(%rbp)
	movb	%al, -305(%rbp)
	jmp	LBB69_4
Ltmp432:
LBB69_2:
	.loc	37 2845 5
	movq	-216(%rbp), %rdi
	callq	__Unwind_Resume
LBB69_3:
Ltmp425:
	.loc	37 0 5 is_stmt 0
	movq	%rax, %rcx
	movl	%edx, %eax
	movq	%rcx, -216(%rbp)
	movl	%eax, -208(%rbp)
	jmp	LBB69_2
LBB69_4:
	movb	-306(%rbp), %al
	movb	-305(%rbp), %cl
Ltmp433:
	.loc	37 2853 35 is_stmt 1
	movb	%cl, -280(%rbp)
	movb	%al, -279(%rbp)
	.loc	37 2853 19 is_stmt 0
	movb	-280(%rbp), %al
	andb	$1, %al
	movzbl	%al, %eax
	cmpq	$1, %rax
	jne	LBB69_6
	.loc	37 0 19
	movq	-304(%rbp), %rax
	.loc	37 2853 24
	movb	-279(%rbp), %cl
	movb	%cl, -321(%rbp)
	movb	%cl, -193(%rbp)
	.loc	37 2854 23 is_stmt 1
	movq	%rax, -192(%rbp)
Ltmp434:
	.loc	37 2062 9
	movq	16(%rax), %rcx
	movq	%rcx, -320(%rbp)
	movq	%rcx, -184(%rbp)
Ltmp435:
	.loc	37 2855 23
	movq	%rax, -176(%rbp)
Ltmp436:
	.loc	37 889 9
	movq	%rax, -168(%rbp)
Ltmp437:
	.loc	38 232 12
	xorl	%eax, %eax
	testb	$1, %al
	jne	LBB69_9
	jmp	LBB69_8
Ltmp438:
LBB69_6:
	.loc	37 2853 9
	jmp	LBB69_7
LBB69_7:
	.loc	37 2867 6
	addq	$352, %rsp
	popq	%rbp
	retq
LBB69_8:
	.loc	37 0 6 is_stmt 0
	movq	-304(%rbp), %rax
Ltmp439:
	.loc	38 232 44 is_stmt 1
	movq	(%rax), %rax
	movq	%rax, -272(%rbp)
	.loc	38 232 9 is_stmt 0
	jmp	LBB69_10
LBB69_9:
	.loc	38 232 24
	movq	$-1, -272(%rbp)
Ltmp440:
LBB69_10:
	.loc	38 0 24
	movq	-320(%rbp), %rax
	.loc	37 2855 16 is_stmt 1
	cmpq	-272(%rbp), %rax
	je	LBB69_12
LBB69_11:
	.loc	37 0 16 is_stmt 0
	movq	-304(%rbp), %rax
	.loc	37 2860 28 is_stmt 1
	movq	%rax, -136(%rbp)
Ltmp441:
	.loc	37 1280 19
	movq	%rax, -128(%rbp)
Ltmp442:
	.loc	38 224 9
	movq	8(%rax), %rax
	movq	%rax, -336(%rbp)
	movq	%rax, -120(%rbp)
Ltmp443:
	.loc	8 104 9
	movq	%rax, -112(%rbp)
Ltmp444:
	.loc	7 326 9
	movq	%rax, -104(%rbp)
Ltmp445:
	.loc	37 1282 21
	movq	%rax, -96(%rbp)
Ltmp446:
	.loc	20 52 36
	movq	%rax, -232(%rbp)
	.loc	20 52 18 is_stmt 0
	movq	-232(%rbp), %rax
	movq	%rax, -88(%rbp)
Ltmp447:
	.loc	20 38 13 is_stmt 1
	movq	%rax, -80(%rbp)
Ltmp448:
	.loc	20 215 33
	movq	%rax, -72(%rbp)
	.loc	20 215 18 is_stmt 0
	movq	%rax, -64(%rbp)
	movq	-64(%rbp), %rax
	jmp	LBB69_18
Ltmp449:
LBB69_12:
Ltmp426:
	.loc	20 0 18
	leaq	-264(%rbp), %rdi
	leaq	-296(%rbp), %rsi
	.loc	37 2856 34 is_stmt 1
	callq	__ZN90_$LT$percent_encoding..PercentDecode$u20$as$u20$core..iter..traits..iterator..Iterator$GT$9size_hint17h18e7c596d5e430dcE
Ltmp427:
	jmp	LBB69_15
Ltmp450:
LBB69_13:
	.loc	37 2866 9
	movb	$1, %al
	testb	$1, %al
	jne	LBB69_20
	jmp	LBB69_2
LBB69_14:
Ltmp430:
	.loc	37 0 9 is_stmt 0
	movq	%rax, %rcx
	movl	%edx, %eax
	movq	%rcx, -216(%rbp)
	movl	%eax, -208(%rbp)
	jmp	LBB69_13
LBB69_15:
Ltmp451:
	.loc	37 2856 22 is_stmt 1
	movq	-264(%rbp), %rax
	movq	%rax, -160(%rbp)
Ltmp452:
	.loc	37 2857 30
	movq	%rax, -152(%rbp)
Ltmp453:
	.loc	18 1022 13
	incq	%rax
	movq	$-1, %rcx
	cmoveq	%rcx, %rax
	movq	%rax, -144(%rbp)
	movq	-144(%rbp), %rax
	movq	%rax, -344(%rbp)
Ltmp454:
Ltmp428:
	.loc	18 0 13 is_stmt 0
	movq	-344(%rbp), %rsi
	movq	-304(%rbp), %rdi
	.loc	37 2857 17 is_stmt 1
	callq	__ZN5alloc3vec16Vec$LT$T$C$A$GT$7reserve17hc37353164524f104E
Ltmp429:
	jmp	LBB69_17
Ltmp455:
LBB69_17:
	.loc	37 2855 13
	jmp	LBB69_11
LBB69_18:
	.loc	37 0 13 is_stmt 0
	movq	-320(%rbp), %rcx
	movq	-336(%rbp), %rax
	.loc	37 2860 50 is_stmt 1
	movq	%rcx, -56(%rbp)
Ltmp456:
	.loc	20 1034 18
	movq	%rax, -48(%rbp)
	.loc	20 1034 30 is_stmt 0
	movq	%rcx, -40(%rbp)
Ltmp457:
	.loc	20 487 18 is_stmt 1
	addq	%rcx, %rax
	movq	%rax, -32(%rbp)
	movq	-32(%rbp), %rax
	movq	%rax, -352(%rbp)
	.loc	20 0 18 is_stmt 0
	movq	-304(%rbp), %rax
	movq	-320(%rbp), %rcx
	movq	-352(%rbp), %rdx
	movb	-321(%rbp), %sil
	.loc	20 487 18
	movq	%rdx, -24(%rbp)
Ltmp458:
	.loc	37 2860 56 is_stmt 1
	movb	%sil, -233(%rbp)
Ltmp459:
	.loc	3 1354 9
	movb	-233(%rbp), %sil
	movb	%sil, (%rdx)
Ltmp460:
	.loc	37 2864 17
	movq	%rax, -16(%rbp)
	.loc	37 2864 30 is_stmt 0
	addq	$1, %rcx
	movq	%rcx, -8(%rbp)
Ltmp461:
	.loc	37 1377 9 is_stmt 1
	movq	%rcx, 16(%rax)
Ltmp462:
	.loc	37 2853 9
	jmp	LBB69_1
LBB69_20:
	.loc	37 2866 9
	jmp	LBB69_2
Ltmp463:
Lfunc_end69:
	.cfi_endproc
	.section	__TEXT,__gcc_except_tab
	.p2align	2
GCC_except_table69:
Lexception8:
	.byte	255
	.byte	255
	.byte	1
	.uleb128 Lcst_end8-Lcst_begin8
Lcst_begin8:
	.uleb128 Ltmp423-Lfunc_begin69
	.uleb128 Ltmp424-Ltmp423
	.uleb128 Ltmp425-Lfunc_begin69
	.byte	0
	.uleb128 Ltmp424-Lfunc_begin69
	.uleb128 Ltmp426-Ltmp424
	.byte	0
	.byte	0
	.uleb128 Ltmp426-Lfunc_begin69
	.uleb128 Ltmp429-Ltmp426
	.uleb128 Ltmp430-Lfunc_begin69
	.byte	0
Lcst_end8:
	.p2align	2

	.section	__TEXT,__text,regular,pure_instructions
	.globl	__ZN5alloc3vec16Vec$LT$T$C$A$GT$17extend_from_slice17haa8f2ee62292ceaaE
	.p2align	4, 0x90
__ZN5alloc3vec16Vec$LT$T$C$A$GT$17extend_from_slice17haa8f2ee62292ceaaE:
Lfunc_begin70:
	.loc	37 2397 0
	.cfi_startproc
	pushq	%rbp
	.cfi_def_cfa_offset 16
	.cfi_offset %rbp, -16
	movq	%rsp, %rbp
	.cfi_def_cfa_register %rbp
	subq	$64, %rsp
	movq	%rdx, -64(%rbp)
	movq	%rsi, %rax
	movq	-64(%rbp), %rsi
	movq	%rax, -56(%rbp)
	movq	%rdi, %rax
	movq	-56(%rbp), %rdi
	movq	%rax, -48(%rbp)
	movq	%rax, -40(%rbp)
	movq	%rdi, -32(%rbp)
	movq	%rsi, -24(%rbp)
Ltmp464:
	.loc	37 2398 26 prologue_end
	movq	%rdi, -16(%rbp)
	movq	%rsi, -8(%rbp)
Ltmp465:
	.loc	13 742 9
	callq	__ZN4core5slice4iter13Iter$LT$T$GT$3new17h94c64fc37df14715E
	movq	-48(%rbp), %rdi
	movq	%rax, %rsi
Ltmp466:
	.loc	37 2398 9
	callq	__ZN132_$LT$alloc..vec..Vec$LT$T$C$A$GT$$u20$as$u20$alloc..vec..spec_extend..SpecExtend$LT$$RF$T$C$core..slice..iter..Iter$LT$T$GT$$GT$$GT$11spec_extend17hb3b20d3b591ea890E
	.loc	37 2399 6
	addq	$64, %rsp
	popq	%rbp
	retq
Ltmp467:
Lfunc_end70:
	.cfi_endproc

	.globl	__ZN5alloc3vec16Vec$LT$T$C$A$GT$4push17h5b26a73daf2eef37E
	.p2align	4, 0x90
__ZN5alloc3vec16Vec$LT$T$C$A$GT$4push17h5b26a73daf2eef37E:
Lfunc_begin71:
	.loc	37 1836 0
	.cfi_startproc
	.cfi_personality 155, _rust_eh_personality
	.cfi_lsda 16, Lexception9
	pushq	%rbp
	.cfi_def_cfa_offset 16
	.cfi_offset %rbp, -16
	movq	%rsp, %rbp
	.cfi_def_cfa_register %rbp
	subq	$240, %rsp
	movq	%rdi, -216(%rbp)
	movb	%sil, %al
	movb	%al, -201(%rbp)
	movq	%rdi, -168(%rbp)
	movb	%al, -153(%rbp)
Ltmp471:
	.loc	37 1839 12 prologue_end
	movq	16(%rdi), %rax
	movq	%rax, -200(%rbp)
	.loc	37 1839 24 is_stmt 0
	movq	%rdi, -152(%rbp)
Ltmp472:
	.loc	38 232 12 is_stmt 1
	xorl	%eax, %eax
	testb	$1, %al
	jne	LBB71_2
	.loc	38 0 12 is_stmt 0
	movq	-216(%rbp), %rax
	.loc	38 232 44
	movq	(%rax), %rax
	movq	%rax, -192(%rbp)
	.loc	38 232 9
	jmp	LBB71_3
LBB71_2:
	.loc	38 232 24
	movq	$-1, -192(%rbp)
Ltmp473:
LBB71_3:
	.loc	38 0 24
	movq	-200(%rbp), %rax
	.loc	37 1839 12 is_stmt 1
	cmpq	-192(%rbp), %rax
	je	LBB71_5
LBB71_4:
	.loc	37 0 12 is_stmt 0
	movq	-216(%rbp), %rax
	.loc	37 1843 23 is_stmt 1
	movq	%rax, -128(%rbp)
Ltmp474:
	.loc	37 1280 19
	movq	%rax, -120(%rbp)
Ltmp475:
	.loc	38 224 9
	movq	8(%rax), %rax
	movq	%rax, -224(%rbp)
	movq	%rax, -112(%rbp)
Ltmp476:
	.loc	8 104 9
	movq	%rax, -104(%rbp)
Ltmp477:
	.loc	7 326 9
	movq	%rax, -96(%rbp)
Ltmp478:
	.loc	37 1282 21
	movq	%rax, -88(%rbp)
Ltmp479:
	.loc	20 52 36
	movq	%rax, -176(%rbp)
	.loc	20 52 18 is_stmt 0
	movq	-176(%rbp), %rax
	movq	%rax, -80(%rbp)
Ltmp480:
	.loc	20 38 13 is_stmt 1
	movq	%rax, -72(%rbp)
Ltmp481:
	.loc	20 215 33
	movq	%rax, -64(%rbp)
	.loc	20 215 18 is_stmt 0
	movq	%rax, -56(%rbp)
	movq	-56(%rbp), %rax
	jmp	LBB71_9
Ltmp482:
LBB71_5:
	.loc	20 0 18
	movq	-216(%rbp), %rdi
	.loc	37 1840 39 is_stmt 1
	movq	16(%rdi), %rsi
Ltmp468:
	.loc	37 1840 13 is_stmt 0
	callq	__ZN5alloc7raw_vec19RawVec$LT$T$C$A$GT$16reserve_for_push17h0769c8656d9ed598E
Ltmp469:
	jmp	LBB71_8
LBB71_6:
	.loc	37 1847 5 is_stmt 1
	movb	$1, %al
	testb	$1, %al
	jne	LBB71_12
	jmp	LBB71_11
LBB71_7:
Ltmp470:
	.loc	37 0 5 is_stmt 0
	movq	%rax, %rcx
	movl	%edx, %eax
	movq	%rcx, -144(%rbp)
	movl	%eax, -136(%rbp)
	jmp	LBB71_6
LBB71_8:
	.loc	37 1839 9 is_stmt 1
	jmp	LBB71_4
LBB71_9:
	.loc	37 0 9 is_stmt 0
	movq	-224(%rbp), %rax
	movq	-216(%rbp), %rcx
	.loc	37 1843 45 is_stmt 1
	movq	16(%rcx), %rcx
	movq	%rcx, -48(%rbp)
Ltmp483:
	.loc	20 1034 18
	movq	%rax, -40(%rbp)
	.loc	20 1034 30 is_stmt 0
	movq	%rcx, -32(%rbp)
Ltmp484:
	.loc	20 487 18 is_stmt 1
	addq	%rcx, %rax
	movq	%rax, -24(%rbp)
	movq	-24(%rbp), %rax
	movq	%rax, -232(%rbp)
	.loc	20 0 18 is_stmt 0
	movq	-216(%rbp), %rax
	movq	-232(%rbp), %rcx
	movb	-201(%rbp), %dl
	.loc	20 487 18
	movq	%rcx, -16(%rbp)
Ltmp485:
	.loc	37 1844 24 is_stmt 1
	movq	%rcx, -8(%rbp)
	.loc	37 1844 29 is_stmt 0
	movb	%dl, -177(%rbp)
Ltmp486:
	.loc	3 1354 9 is_stmt 1
	movb	-177(%rbp), %dl
	movb	%dl, (%rcx)
Ltmp487:
	.loc	37 1845 13
	movq	16(%rax), %rcx
	addq	$1, %rcx
	movq	%rcx, 16(%rax)
Ltmp488:
	.loc	37 1847 6
	addq	$240, %rsp
	popq	%rbp
	retq
LBB71_11:
	.loc	37 1836 5
	movq	-144(%rbp), %rdi
	callq	__Unwind_Resume
LBB71_12:
	.loc	37 1847 5
	jmp	LBB71_11
Ltmp489:
Lfunc_end71:
	.cfi_endproc
	.section	__TEXT,__gcc_except_tab
	.p2align	2
GCC_except_table71:
Lexception9:
	.byte	255
	.byte	255
	.byte	1
	.uleb128 Lcst_end9-Lcst_begin9
Lcst_begin9:
	.uleb128 Ltmp468-Lfunc_begin71
	.uleb128 Ltmp469-Ltmp468
	.uleb128 Ltmp470-Lfunc_begin71
	.byte	0
	.uleb128 Ltmp469-Lfunc_begin71
	.uleb128 Lfunc_end71-Ltmp469
	.byte	0
	.byte	0
Lcst_end9:
	.p2align	2

	.section	__TEXT,__text,regular,pure_instructions
	.globl	__ZN5alloc3vec16Vec$LT$T$C$A$GT$7reserve17hc37353164524f104E
	.p2align	4, 0x90
__ZN5alloc3vec16Vec$LT$T$C$A$GT$7reserve17hc37353164524f104E:
Lfunc_begin72:
	.loc	37 911 0
	.cfi_startproc
	pushq	%rbp
	.cfi_def_cfa_offset 16
	.cfi_offset %rbp, -16
	movq	%rsp, %rbp
	.cfi_def_cfa_register %rbp
	subq	$16, %rsp
	movq	%rsi, %rdx
	movq	%rdi, -16(%rbp)
	movq	%rdx, -8(%rbp)
Ltmp490:
	.loc	37 912 26 prologue_end
	movq	16(%rdi), %rsi
	.loc	37 912 9 is_stmt 0
	callq	__ZN5alloc7raw_vec19RawVec$LT$T$C$A$GT$7reserve17h725182efd1054144E
	.loc	37 913 6 is_stmt 1
	addq	$16, %rsp
	popq	%rbp
	retq
Ltmp491:
Lfunc_end72:
	.cfi_endproc

	.p2align	4, 0x90
__ZN5alloc5alloc6Global10alloc_impl17h299e2783acd20743E:
Lfunc_begin73:
	.file	42 "/rustc/2c8cc343237b8f7d5a3c3703e3a87f2eb2c54a74/library/alloc/src" "alloc.rs"
	.loc	42 172 0
	.cfi_startproc
	pushq	%rbp
	.cfi_def_cfa_offset 16
	.cfi_offset %rbp, -16
	movq	%rsp, %rbp
	.cfi_def_cfa_register %rbp
	subq	$352, %rsp
	movb	%cl, %al
	movb	%al, -345(%rbp)
	movq	%rsi, -336(%rbp)
	movq	%rdx, -328(%rbp)
	movq	%rdi, -208(%rbp)
	andb	$1, %al
	movb	%al, -193(%rbp)
Ltmp492:
	.loc	42 173 15 prologue_end
	leaq	-336(%rbp), %rax
	movq	%rax, -144(%rbp)
Ltmp493:
	.loc	29 129 9
	movq	-336(%rbp), %rax
	movq	%rax, -344(%rbp)
Ltmp494:
	.loc	42 173 9
	cmpq	$0, %rax
	jne	LBB73_2
	.loc	42 174 51
	leaq	-336(%rbp), %rax
	movq	%rax, -48(%rbp)
Ltmp495:
	.loc	29 216 71
	leaq	-336(%rbp), %rax
	movq	%rax, -40(%rbp)
Ltmp496:
	.loc	29 140 9
	movq	-328(%rbp), %rax
	movq	%rax, -32(%rbp)
Ltmp497:
	.loc	30 97 9
	movq	%rax, -232(%rbp)
	movq	-232(%rbp), %rax
	movq	%rax, -24(%rbp)
Ltmp498:
	.loc	3 599 14
	movq	%rax, -16(%rbp)
	movq	-16(%rbp), %rax
	movq	%rax, -8(%rbp)
Ltmp499:
	.loc	7 201 13
	movq	%rax, -304(%rbp)
Ltmp500:
	.loc	42 174 21
	movq	-304(%rbp), %rdi
	xorl	%eax, %eax
	movl	%eax, %esi
	callq	__ZN4core3ptr8non_null26NonNull$LT$$u5b$T$u5d$$GT$20slice_from_raw_parts17h418232f47a8686e2E
	.loc	42 174 18 is_stmt 0
	movq	%rax, -320(%rbp)
	movq	%rdx, -312(%rbp)
	.loc	42 174 72
	jmp	LBB73_15
LBB73_2:
	.loc	42 0 72
	movb	-345(%rbp), %al
	movq	-344(%rbp), %rcx
	.loc	42 176 13 is_stmt 1
	movq	%rcx, -136(%rbp)
Ltmp501:
	.loc	42 177 34
	testb	$1, %al
	jne	LBB73_4
	.loc	42 177 79 is_stmt 0
	movq	-336(%rbp), %rcx
	movq	-328(%rbp), %rax
	movq	%rcx, -272(%rbp)
	movq	%rax, -264(%rbp)
Ltmp502:
	.loc	42 95 27 is_stmt 1
	leaq	-272(%rbp), %rax
	movq	%rax, -104(%rbp)
Ltmp503:
	.loc	29 129 9
	movq	-272(%rbp), %rdi
Ltmp504:
	.loc	42 95 42
	leaq	-272(%rbp), %rax
	movq	%rax, -96(%rbp)
Ltmp505:
	.loc	29 140 9
	movq	-264(%rbp), %rax
	movq	%rax, -88(%rbp)
Ltmp506:
	.loc	30 97 9
	movq	%rax, -216(%rbp)
	movq	-216(%rbp), %rsi
Ltmp507:
	.loc	42 95 14
	callq	___rust_alloc
	movq	%rax, -296(%rbp)
Ltmp508:
	.loc	42 177 31
	jmp	LBB73_5
LBB73_4:
	.loc	42 177 56 is_stmt 0
	movq	-336(%rbp), %rcx
	movq	-328(%rbp), %rax
	movq	%rcx, -288(%rbp)
	movq	%rax, -280(%rbp)
Ltmp509:
	.loc	42 166 34 is_stmt 1
	leaq	-288(%rbp), %rax
	movq	%rax, -128(%rbp)
Ltmp510:
	.loc	29 129 9
	movq	-288(%rbp), %rdi
Ltmp511:
	.loc	42 166 49
	leaq	-288(%rbp), %rax
	movq	%rax, -120(%rbp)
Ltmp512:
	.loc	29 140 9
	movq	-280(%rbp), %rax
	movq	%rax, -112(%rbp)
Ltmp513:
	.loc	30 97 9
	movq	%rax, -224(%rbp)
	movq	-224(%rbp), %rsi
Ltmp514:
	.loc	42 166 14
	callq	___rust_alloc_zeroed
	movq	%rax, -296(%rbp)
Ltmp515:
LBB73_5:
	.loc	42 178 40
	movq	-296(%rbp), %rdi
	.loc	42 178 27 is_stmt 0
	callq	__ZN4core3ptr8non_null16NonNull$LT$T$GT$3new17h021bcc89dfac5266E
	movq	%rax, -240(%rbp)
Ltmp516:
	.loc	6 1096 15 is_stmt 1
	movq	-240(%rbp), %rdx
	movl	$1, %eax
	xorl	%ecx, %ecx
	cmpq	$0, %rdx
	cmoveq	%rcx, %rax
	.loc	6 1096 9 is_stmt 0
	cmpq	$0, %rax
	jne	LBB73_7
	.loc	6 1098 21 is_stmt 1
	movq	$0, -248(%rbp)
	.loc	6 1098 28 is_stmt 0
	jmp	LBB73_8
LBB73_7:
	.loc	6 1097 18 is_stmt 1
	movq	-240(%rbp), %rax
	movq	%rax, -80(%rbp)
Ltmp517:
	.loc	6 1097 24 is_stmt 0
	movq	%rax, -248(%rbp)
Ltmp518:
LBB73_8:
	.loc	11 2091 15 is_stmt 1
	movq	-248(%rbp), %rdx
	xorl	%eax, %eax
	movl	$1, %ecx
	cmpq	$0, %rdx
	cmoveq	%rcx, %rax
	.loc	11 2091 9 is_stmt 0
	cmpq	$0, %rax
	jne	LBB73_10
	.loc	11 2092 16 is_stmt 1
	movq	-248(%rbp), %rax
	movq	%rax, -72(%rbp)
Ltmp519:
	.loc	11 2092 22 is_stmt 0
	movq	%rax, -256(%rbp)
Ltmp520:
	.loc	11 2092 45
	jmp	LBB73_11
LBB73_10:
Ltmp521:
	.loc	11 2093 23 is_stmt 1
	movq	$0, -256(%rbp)
Ltmp522:
LBB73_11:
	.loc	42 178 27
	movq	-256(%rbp), %rdx
	xorl	%eax, %eax
	movl	$1, %ecx
	cmpq	$0, %rdx
	cmoveq	%rcx, %rax
	cmpq	$0, %rax
	jne	LBB73_13
	.loc	42 0 27 is_stmt 0
	movq	-344(%rbp), %rsi
	.loc	42 178 27
	movq	-256(%rbp), %rdi
	movq	%rdi, -64(%rbp)
Ltmp523:
	.loc	42 178 27
	movq	%rdi, -56(%rbp)
Ltmp524:
	.loc	42 179 20 is_stmt 1
	callq	__ZN4core3ptr8non_null26NonNull$LT$$u5b$T$u5d$$GT$20slice_from_raw_parts17h418232f47a8686e2E
	.loc	42 179 17 is_stmt 0
	movq	%rax, -320(%rbp)
	movq	%rdx, -312(%rbp)
Ltmp525:
	.loc	42 180 13 is_stmt 1
	jmp	LBB73_15
LBB73_13:
Ltmp526:
	.loc	11 2107 23
	movq	$0, -320(%rbp)
Ltmp527:
LBB73_14:
	.loc	42 182 6
	movq	-320(%rbp), %rax
	movq	-312(%rbp), %rdx
	addq	$352, %rsp
	popq	%rbp
	retq
LBB73_15:
	jmp	LBB73_14
Ltmp528:
Lfunc_end73:
	.cfi_endproc

	.p2align	4, 0x90
__ZN5alloc5alloc6Global9grow_impl17hd317e99a54b85b2bE:
Lfunc_begin74:
	.loc	42 186 0
	.cfi_startproc
	pushq	%rbp
	.cfi_def_cfa_offset 16
	.cfi_offset %rbp, -16
	movq	%rsp, %rbp
	.cfi_def_cfa_register %rbp
	subq	$736, %rsp
	movq	%rsi, -688(%rbp)
	movq	%rdi, -680(%rbp)
	movb	16(%rbp), %al
	movb	%al, -665(%rbp)
	movq	%rdx, -656(%rbp)
	movq	%rcx, -648(%rbp)
	movq	%r8, -640(%rbp)
	movq	%r9, -632(%rbp)
	movq	%rdi, -504(%rbp)
	movq	%rsi, -496(%rbp)
	andb	$1, %al
	movb	%al, -481(%rbp)
Ltmp529:
	.loc	42 198 15 prologue_end
	leaq	-656(%rbp), %rax
	movq	%rax, -392(%rbp)
Ltmp530:
	.loc	29 129 9
	movq	-656(%rbp), %rax
	movq	%rax, -664(%rbp)
Ltmp531:
	.loc	42 198 9
	cmpq	$0, %rax
	jne	LBB74_2
	.loc	42 0 9 is_stmt 0
	movq	-680(%rbp), %rdi
	movb	-665(%rbp), %al
	.loc	42 199 34 is_stmt 1
	movq	-640(%rbp), %rsi
	movq	-632(%rbp), %rdx
	.loc	42 199 18 is_stmt 0
	movzbl	%al, %ecx
	andl	$1, %ecx
	callq	__ZN5alloc5alloc6Global10alloc_impl17h299e2783acd20743E
	movq	%rdx, -616(%rbp)
	movq	%rax, -624(%rbp)
	.loc	42 199 52
	jmp	LBB74_16
LBB74_2:
	.loc	42 203 25 is_stmt 1
	leaq	-656(%rbp), %rax
	movq	%rax, -384(%rbp)
Ltmp532:
	.loc	29 140 9
	movq	-648(%rbp), %rax
	movq	%rax, -376(%rbp)
Ltmp533:
	.loc	30 97 9
	movq	%rax, -536(%rbp)
	movq	-536(%rbp), %rax
Ltmp534:
	.loc	42 203 47
	leaq	-640(%rbp), %rcx
	movq	%rcx, -368(%rbp)
Ltmp535:
	.loc	29 140 9
	movq	-632(%rbp), %rcx
	movq	%rcx, -360(%rbp)
Ltmp536:
	.loc	30 97 9
	movq	%rcx, -528(%rbp)
	movq	-528(%rbp), %rcx
Ltmp537:
	.loc	42 203 25
	cmpq	%rcx, %rax
	je	LBB74_4
	.loc	42 0 25 is_stmt 0
	movq	-680(%rbp), %rdi
	movb	-665(%rbp), %al
	movq	-664(%rbp), %rcx
	.loc	42 222 13 is_stmt 1
	movq	%rcx, -160(%rbp)
Ltmp538:
	.loc	42 223 47
	movq	-640(%rbp), %rsi
	movq	-632(%rbp), %rdx
	.loc	42 223 31 is_stmt 0
	movzbl	%al, %ecx
	andl	$1, %ecx
	callq	__ZN5alloc5alloc6Global10alloc_impl17h299e2783acd20743E
	movq	%rdx, -544(%rbp)
	movq	%rax, -552(%rbp)
Ltmp539:
	.loc	11 2091 15 is_stmt 1
	movq	-552(%rbp), %rdx
	xorl	%eax, %eax
	movl	$1, %ecx
	cmpq	$0, %rdx
	cmoveq	%rcx, %rax
	.loc	11 2091 9 is_stmt 0
	cmpq	$0, %rax
	je	LBB74_17
	jmp	LBB74_18
Ltmp540:
LBB74_4:
	.loc	11 0 9
	movq	-688(%rbp), %rdi
	movq	-664(%rbp), %rax
	.loc	42 203 13 is_stmt 1
	movq	%rax, -352(%rbp)
Ltmp541:
	.loc	42 204 32
	leaq	-640(%rbp), %rax
	movq	%rax, -344(%rbp)
Ltmp542:
	.loc	29 129 9
	movq	-640(%rbp), %rcx
	movq	%rcx, -704(%rbp)
	movq	%rcx, -336(%rbp)
Ltmp543:
	.loc	42 207 48
	leaq	-656(%rbp), %rax
	movq	%rax, -328(%rbp)
	.loc	42 209 39
	movq	%rdi, -320(%rbp)
Ltmp544:
	.loc	7 326 9
	movq	%rdi, -312(%rbp)
Ltmp545:
	.loc	42 209 53
	movq	-656(%rbp), %rdx
	movq	-648(%rbp), %rax
	movq	%rdx, -608(%rbp)
	movq	%rax, -600(%rbp)
	.loc	42 209 65 is_stmt 0
	movq	%rcx, -304(%rbp)
Ltmp546:
	.loc	42 132 34 is_stmt 1
	leaq	-608(%rbp), %rax
	movq	%rax, -296(%rbp)
Ltmp547:
	.loc	29 129 9
	movq	-608(%rbp), %rsi
Ltmp548:
	.loc	42 132 49
	leaq	-608(%rbp), %rax
	movq	%rax, -288(%rbp)
Ltmp549:
	.loc	29 140 9
	movq	-600(%rbp), %rax
	movq	%rax, -280(%rbp)
Ltmp550:
	.loc	30 97 9
	movq	%rax, -520(%rbp)
	movq	-520(%rbp), %rdx
Ltmp551:
	.loc	42 132 14
	callq	___rust_realloc
	movq	%rax, %rdi
	movq	%rdi, -696(%rbp)
	movq	%rdi, -272(%rbp)
Ltmp552:
	.loc	42 210 27
	callq	__ZN4core3ptr8non_null16NonNull$LT$T$GT$3new17h021bcc89dfac5266E
	movq	%rax, -576(%rbp)
Ltmp553:
	.loc	6 1096 15
	movq	-576(%rbp), %rdx
	movl	$1, %eax
	xorl	%ecx, %ecx
	cmpq	$0, %rdx
	cmoveq	%rcx, %rax
	.loc	6 1096 9 is_stmt 0
	cmpq	$0, %rax
	jne	LBB74_6
	.loc	6 1098 21 is_stmt 1
	movq	$0, -584(%rbp)
	.loc	6 1098 28 is_stmt 0
	jmp	LBB74_7
LBB74_6:
	.loc	6 1097 18 is_stmt 1
	movq	-576(%rbp), %rax
	movq	%rax, -264(%rbp)
Ltmp554:
	.loc	6 1097 24 is_stmt 0
	movq	%rax, -584(%rbp)
Ltmp555:
LBB74_7:
	.loc	11 2091 15 is_stmt 1
	movq	-584(%rbp), %rdx
	xorl	%eax, %eax
	movl	$1, %ecx
	cmpq	$0, %rdx
	cmoveq	%rcx, %rax
	.loc	11 2091 9 is_stmt 0
	cmpq	$0, %rax
	jne	LBB74_9
	.loc	11 2092 16 is_stmt 1
	movq	-584(%rbp), %rax
	movq	%rax, -256(%rbp)
Ltmp556:
	.loc	11 2092 22 is_stmt 0
	movq	%rax, -592(%rbp)
Ltmp557:
	.loc	11 2092 45
	jmp	LBB74_10
LBB74_9:
Ltmp558:
	.loc	11 2093 23 is_stmt 1
	movq	$0, -592(%rbp)
Ltmp559:
LBB74_10:
	.loc	42 210 27
	movq	-592(%rbp), %rdx
	xorl	%eax, %eax
	movl	$1, %ecx
	cmpq	$0, %rdx
	cmoveq	%rcx, %rax
	cmpq	$0, %rax
	jne	LBB74_12
	.loc	42 0 27 is_stmt 0
	movb	-665(%rbp), %al
	.loc	42 210 27
	movq	-592(%rbp), %rcx
	movq	%rcx, -712(%rbp)
	movq	%rcx, -248(%rbp)
Ltmp560:
	.loc	42 210 27
	movq	%rcx, -240(%rbp)
Ltmp561:
	.loc	42 211 20 is_stmt 1
	testb	$1, %al
	jne	LBB74_15
	jmp	LBB74_14
Ltmp562:
LBB74_12:
	.loc	11 2107 23
	movq	$0, -624(%rbp)
Ltmp563:
LBB74_13:
	.loc	42 229 6
	jmp	LBB74_22
LBB74_14:
	.loc	42 0 6 is_stmt 0
	movq	-704(%rbp), %rsi
	movq	-712(%rbp), %rdi
Ltmp564:
	.loc	42 214 20 is_stmt 1
	callq	__ZN4core3ptr8non_null26NonNull$LT$$u5b$T$u5d$$GT$20slice_from_raw_parts17h418232f47a8686e2E
	.loc	42 214 17 is_stmt 0
	movq	%rax, -624(%rbp)
	movq	%rdx, -616(%rbp)
Ltmp565:
	.loc	42 215 13 is_stmt 1
	jmp	LBB74_16
LBB74_15:
	.loc	42 0 13 is_stmt 0
	movq	-664(%rbp), %rax
	movq	-704(%rbp), %rdx
	movq	-696(%rbp), %rcx
Ltmp566:
	.loc	42 212 21 is_stmt 1
	movq	%rcx, -232(%rbp)
	.loc	42 212 33 is_stmt 0
	movq	%rax, -224(%rbp)
Ltmp567:
	.loc	20 1034 18 is_stmt 1
	movq	%rcx, -216(%rbp)
	.loc	20 1034 30 is_stmt 0
	movq	%rax, -208(%rbp)
Ltmp568:
	.loc	20 487 18 is_stmt 1
	addq	%rax, %rcx
	movq	%rcx, -200(%rbp)
	movq	-200(%rbp), %rdi
	movq	%rdi, -192(%rbp)
Ltmp569:
	.loc	42 212 58
	subq	%rax, %rdx
	movq	%rdx, -184(%rbp)
Ltmp570:
	.loc	20 1488 30
	movq	%rdi, -176(%rbp)
	.loc	20 1488 41 is_stmt 0
	movq	%rdx, -168(%rbp)
Ltmp571:
	.loc	39 2529 9 is_stmt 1
	shlq	$0, %rdx
	xorl	%esi, %esi
	callq	_memset
Ltmp572:
	.loc	42 211 17
	jmp	LBB74_14
Ltmp573:
LBB74_16:
	.loc	42 229 6
	jmp	LBB74_22
LBB74_17:
Ltmp574:
	.loc	11 2092 16
	movq	-552(%rbp), %rcx
	movq	-544(%rbp), %rax
	movq	%rcx, -152(%rbp)
	movq	%rax, -144(%rbp)
Ltmp575:
	.loc	11 2092 22 is_stmt 0
	movq	%rcx, -568(%rbp)
	movq	%rax, -560(%rbp)
Ltmp576:
	.loc	11 2092 45
	jmp	LBB74_19
LBB74_18:
Ltmp577:
	.loc	11 2093 23 is_stmt 1
	movq	$0, -568(%rbp)
Ltmp578:
LBB74_19:
	.loc	42 223 31
	movq	-568(%rbp), %rdx
	xorl	%eax, %eax
	movl	$1, %ecx
	cmpq	$0, %rdx
	cmoveq	%rcx, %rax
	cmpq	$0, %rax
	jne	LBB74_21
	.loc	42 0 31 is_stmt 0
	movq	-688(%rbp), %rsi
	movq	-664(%rbp), %rdx
	.loc	42 223 31
	movq	-568(%rbp), %rax
	movq	%rax, -728(%rbp)
	movq	-560(%rbp), %rcx
	movq	%rcx, -720(%rbp)
	movq	%rax, -136(%rbp)
	movq	%rcx, -128(%rbp)
Ltmp579:
	.loc	42 223 31
	movq	%rax, -120(%rbp)
	movq	%rcx, -112(%rbp)
Ltmp580:
	.loc	42 224 42 is_stmt 1
	movq	%rsi, -104(%rbp)
	movq	%rsi, -96(%rbp)
	.loc	42 224 56 is_stmt 0
	movq	%rax, -88(%rbp)
	movq	%rcx, -80(%rbp)
Ltmp581:
	.loc	7 548 9 is_stmt 1
	movq	%rax, -72(%rbp)
	movq	%rcx, -64(%rbp)
Ltmp582:
	.loc	7 529 41
	movq	%rax, -56(%rbp)
	movq	%rcx, -48(%rbp)
Ltmp583:
	.loc	7 326 9
	movq	%rax, -40(%rbp)
	movq	%rcx, -32(%rbp)
Ltmp584:
	.loc	20 2037 9
	movq	%rax, -24(%rbp)
Ltmp585:
	.loc	7 201 13
	movq	%rax, -512(%rbp)
Ltmp586:
	.loc	7 326 9
	movq	-512(%rbp), %rdi
	movq	%rdi, -16(%rbp)
Ltmp587:
	.loc	42 224 78
	movq	%rdx, -8(%rbp)
Ltmp588:
	.loc	39 2372 9
	shlq	$0, %rdx
	callq	_memcpy
	movq	-680(%rbp), %rdi
	movq	-688(%rbp), %rsi
Ltmp589:
	.loc	42 225 38
	movq	-656(%rbp), %rdx
	movq	-648(%rbp), %rcx
	.loc	42 225 17 is_stmt 0
	callq	__ZN63_$LT$alloc..alloc..Global$u20$as$u20$core..alloc..Allocator$GT$10deallocate17ha49b7fe964e6fc1cE
	movq	-728(%rbp), %rcx
	movq	-720(%rbp), %rax
	.loc	42 226 17 is_stmt 1
	movq	%rcx, -624(%rbp)
	movq	%rax, -616(%rbp)
Ltmp590:
	.loc	42 227 13
	jmp	LBB74_16
LBB74_21:
Ltmp591:
	.loc	11 2107 23
	movq	$0, -624(%rbp)
Ltmp592:
	.file	43 "/Users/natalie/.cargo/registry/src/github.com-1ecc6299db9ec823/percent-encoding-2.2.0" "src/lib.rs"
	.loc	43 1 1
	jmp	LBB74_13
LBB74_22:
	.loc	42 229 6
	movq	-624(%rbp), %rax
	movq	-616(%rbp), %rdx
	addq	$736, %rsp
	popq	%rbp
	retq
Ltmp593:
Lfunc_end74:
	.cfi_endproc

	.globl	__ZN5alloc5slice64_$LT$impl$u20$alloc..borrow..ToOwned$u20$for$u20$$u5b$T$u5d$$GT$8to_owned17h607b302c8a77fb8aE
	.p2align	4, 0x90
__ZN5alloc5slice64_$LT$impl$u20$alloc..borrow..ToOwned$u20$for$u20$$u5b$T$u5d$$GT$8to_owned17h607b302c8a77fb8aE:
Lfunc_begin75:
	.loc	36 790 0
	.cfi_startproc
	pushq	%rbp
	.cfi_def_cfa_offset 16
	.cfi_offset %rbp, -16
	movq	%rsp, %rbp
	.cfi_def_cfa_register %rbp
	subq	$96, %rsp
	movq	%rdi, %rax
	movq	%rax, -88(%rbp)
	movq	%rsi, -80(%rbp)
	movq	%rdx, -72(%rbp)
Ltmp594:
	.loc	36 791 9 prologue_end
	movq	%rsi, -48(%rbp)
	movq	%rdx, -40(%rbp)
Ltmp595:
	.loc	36 416 9
	movq	%rsi, -32(%rbp)
	movq	%rdx, -24(%rbp)
Ltmp596:
	.loc	36 441 22
	movq	%rsi, -16(%rbp)
	movq	%rdx, -8(%rbp)
Ltmp597:
	.loc	36 111 9
	callq	__ZN52_$LT$T$u20$as$u20$alloc..slice..hack..ConvertVec$GT$6to_vec17h8e1fba677b199351E
	movq	-88(%rbp), %rax
Ltmp598:
	.loc	36 792 6
	addq	$96, %rsp
	popq	%rbp
	retq
Ltmp599:
Lfunc_end75:
	.cfi_endproc

	.p2align	4, 0x90
__ZN5alloc6string108_$LT$impl$u20$core..convert..From$LT$alloc..string..String$GT$$u20$for$u20$alloc..borrow..Cow$LT$str$GT$$GT$4from17h57dc9b9505848e7bE:
Lfunc_begin76:
	.loc	41 2797 0
	.cfi_startproc
	pushq	%rbp
	.cfi_def_cfa_offset 16
	.cfi_offset %rbp, -16
	movq	%rsp, %rbp
	.cfi_def_cfa_register %rbp
	subq	$24, %rsp
	movq	%rdi, %rax
Ltmp600:
	.loc	41 2798 20 prologue_end
	movq	(%rsi), %rcx
	movq	%rcx, -24(%rbp)
	movq	8(%rsi), %rcx
	movq	%rcx, -16(%rbp)
	movq	16(%rsi), %rcx
	movq	%rcx, -8(%rbp)
	.loc	41 2798 9 is_stmt 0
	movq	-24(%rbp), %rcx
	movq	%rcx, 8(%rdi)
	movq	-16(%rbp), %rcx
	movq	%rcx, 16(%rdi)
	movq	-8(%rbp), %rcx
	movq	%rcx, 24(%rdi)
	movq	$1, (%rdi)
	.loc	41 2799 6 is_stmt 1
	addq	$24, %rsp
	popq	%rbp
	retq
Ltmp601:
Lfunc_end76:
	.cfi_endproc

	.p2align	4, 0x90
__ZN5alloc6string6String19from_utf8_unchecked17hbcaf48ea4a7b6313E:
Lfunc_begin77:
	.loc	41 845 0
	.cfi_startproc
	pushq	%rbp
	.cfi_def_cfa_offset 16
	.cfi_offset %rbp, -16
	movq	%rsp, %rbp
	.cfi_def_cfa_register %rbp
	subq	$24, %rsp
	movq	%rdi, %rax
Ltmp602:
	.loc	41 846 23 prologue_end
	movq	(%rsi), %rcx
	movq	%rcx, -24(%rbp)
	movq	8(%rsi), %rcx
	movq	%rcx, -16(%rbp)
	movq	16(%rsi), %rcx
	movq	%rcx, -8(%rbp)
	.loc	41 846 9 is_stmt 0
	movq	-24(%rbp), %rcx
	movq	%rcx, (%rdi)
	movq	-16(%rbp), %rcx
	movq	%rcx, 8(%rdi)
	movq	-8(%rbp), %rcx
	movq	%rcx, 16(%rdi)
	.loc	41 847 6 is_stmt 1
	addq	$24, %rsp
	popq	%rbp
	retq
Ltmp603:
Lfunc_end77:
	.cfi_endproc

	.p2align	4, 0x90
__ZN5alloc6string6String8push_str17h26b7e4dc3df71b82E:
Lfunc_begin78:
	.loc	41 925 0
	.cfi_startproc
	pushq	%rbp
	.cfi_def_cfa_offset 16
	.cfi_offset %rbp, -16
	movq	%rsp, %rbp
	.cfi_def_cfa_register %rbp
	subq	$64, %rsp
	movq	%rdi, -56(%rbp)
	movq	%rsi, -48(%rbp)
	movq	%rdx, -40(%rbp)
Ltmp604:
	.loc	41 926 36 prologue_end
	movq	%rsi, -32(%rbp)
	movq	%rdx, -24(%rbp)
Ltmp605:
	.loc	22 327 18
	movq	%rsi, -16(%rbp)
	movq	%rdx, -8(%rbp)
	movq	-16(%rbp), %rsi
	movq	-8(%rbp), %rdx
Ltmp606:
	.loc	41 926 9
	callq	__ZN5alloc3vec16Vec$LT$T$C$A$GT$17extend_from_slice17haa8f2ee62292ceaaE
	.loc	41 927 6
	addq	$64, %rsp
	popq	%rbp
	retq
Ltmp607:
Lfunc_end78:
	.cfi_endproc

	.p2align	4, 0x90
__ZN5alloc6string6String9from_utf817h0236dc997a4ba405E:
Lfunc_begin79:
	.loc	41 572 0
	.cfi_startproc
	.cfi_personality 155, _rust_eh_personality
	.cfi_lsda 16, Lexception10
	pushq	%rbp
	.cfi_def_cfa_offset 16
	.cfi_offset %rbp, -16
	movq	%rsp, %rbp
	.cfi_def_cfa_register %rbp
	subq	$224, %rsp
	movq	%rsi, -224(%rbp)
Ltmp616:
	movq	%rdi, %rax
	movq	-224(%rbp), %rdi
	movq	%rax, -216(%rbp)
	movq	%rax, -208(%rbp)
Ltmp608:
Ltmp617:
	.loc	41 573 30 prologue_end
	callq	__ZN72_$LT$alloc..vec..Vec$LT$T$C$A$GT$$u20$as$u20$core..ops..deref..Deref$GT$5deref17h7a5c131a8ce8beeeE
Ltmp609:
	movq	%rdx, -200(%rbp)
	movq	%rax, -192(%rbp)
	jmp	LBB79_3
Ltmp618:
LBB79_1:
Ltmp613:
	.loc	41 0 30 is_stmt 0
	movq	-224(%rbp), %rdi
	.loc	41 577 5 is_stmt 1
	callq	__ZN4core3ptr46drop_in_place$LT$alloc..vec..Vec$LT$u8$GT$$GT$17h83e90276065d94e4E
Ltmp614:
	jmp	LBB79_6
Ltmp619:
LBB79_2:
Ltmp612:
	.loc	41 0 5 is_stmt 0
	movq	%rax, %rcx
	movl	%edx, %eax
	movq	%rcx, -16(%rbp)
	movl	%eax, -8(%rbp)
	jmp	LBB79_1
Ltmp620:
LBB79_3:
Ltmp610:
	movq	-200(%rbp), %rdx
	movq	-192(%rbp), %rsi
	leaq	-184(%rbp), %rdi
	.loc	41 573 15 is_stmt 1
	callq	__ZN4core3str8converts9from_utf817h97544f31e939b049E
Ltmp611:
	jmp	LBB79_4
Ltmp621:
LBB79_4:
	.loc	41 573 9 is_stmt 0
	cmpq	$0, -184(%rbp)
	je	LBB79_7
	jmp	LBB79_8
Ltmp622:
LBB79_5:
Ltmp615:
	.loc	41 572 5 is_stmt 1
	callq	__ZN4core9panicking19panic_cannot_unwind17h1fbca7e1d7f56ae1E
Ltmp623:
LBB79_6:
	movq	-16(%rbp), %rdi
	callq	__Unwind_Resume
Ltmp624:
LBB79_7:
	.loc	41 0 5 is_stmt 0
	movq	-216(%rbp), %rax
	movq	-224(%rbp), %rcx
	.loc	41 574 35 is_stmt 1
	movq	(%rcx), %rdx
	movq	%rdx, -136(%rbp)
	movq	8(%rcx), %rdx
	movq	%rdx, -128(%rbp)
	movq	16(%rcx), %rcx
	movq	%rcx, -120(%rbp)
	.loc	41 574 26 is_stmt 0
	movq	-136(%rbp), %rcx
	movq	%rcx, -160(%rbp)
	movq	-128(%rbp), %rcx
	movq	%rcx, -152(%rbp)
	movq	-120(%rbp), %rcx
	movq	%rcx, -144(%rbp)
	.loc	41 574 23
	movq	-160(%rbp), %rcx
	movq	%rcx, 16(%rax)
	movq	-152(%rbp), %rcx
	movq	%rcx, 24(%rax)
	movq	-144(%rbp), %rcx
	movq	%rcx, 32(%rax)
	movb	$2, 8(%rax)
	.loc	41 574 40
	jmp	LBB79_9
Ltmp625:
LBB79_8:
	.loc	41 0 40
	movq	-216(%rbp), %rdi
	movq	-224(%rbp), %rax
	.loc	41 575 17 is_stmt 1
	movq	-176(%rbp), %rcx
	movq	%rcx, -112(%rbp)
	movq	-168(%rbp), %rcx
	movq	%rcx, -104(%rbp)
Ltmp626:
	.loc	41 575 50 is_stmt 0
	movq	(%rax), %rcx
	movq	%rcx, -56(%rbp)
	movq	8(%rax), %rcx
	movq	%rcx, -48(%rbp)
	movq	16(%rax), %rax
	movq	%rax, -40(%rbp)
	.loc	41 575 62
	movq	-112(%rbp), %rax
	movq	%rax, -32(%rbp)
	movq	-104(%rbp), %rax
	movq	%rax, -24(%rbp)
	.loc	41 575 27
	movq	-56(%rbp), %rax
	movq	%rax, -80(%rbp)
	movq	-48(%rbp), %rax
	movq	%rax, -72(%rbp)
	movq	-40(%rbp), %rax
	movq	%rax, -64(%rbp)
	movq	-32(%rbp), %rax
	movq	%rax, -96(%rbp)
	movq	-24(%rbp), %rax
	movq	%rax, -88(%rbp)
	.loc	41 575 23
	leaq	-96(%rbp), %rsi
	movl	$40, %edx
	callq	_memcpy
Ltmp627:
LBB79_9:
	.loc	41 0 23
	movq	-208(%rbp), %rax
	.loc	41 577 6 is_stmt 1
	addq	$224, %rsp
	popq	%rbp
	retq
Ltmp628:
Lfunc_end79:
	.cfi_endproc
	.section	__TEXT,__gcc_except_tab
	.p2align	2
GCC_except_table79:
Lexception10:
	.byte	255
	.byte	255
	.byte	1
	.uleb128 Lcst_end10-Lcst_begin10
Lcst_begin10:
	.uleb128 Ltmp608-Lfunc_begin79
	.uleb128 Ltmp609-Ltmp608
	.uleb128 Ltmp612-Lfunc_begin79
	.byte	0
	.uleb128 Ltmp613-Lfunc_begin79
	.uleb128 Ltmp614-Ltmp613
	.uleb128 Ltmp615-Lfunc_begin79
	.byte	0
	.uleb128 Ltmp610-Lfunc_begin79
	.uleb128 Ltmp611-Ltmp610
	.uleb128 Ltmp612-Lfunc_begin79
	.byte	0
	.uleb128 Ltmp611-Lfunc_begin79
	.uleb128 Lfunc_end79-Ltmp611
	.byte	0
	.byte	0
Lcst_end10:
	.p2align	2

	.section	__TEXT,__text,regular,pure_instructions
	.p2align	4, 0x90
__ZN5alloc6string94_$LT$impl$u20$core..convert..From$LT$$RF$str$GT$$u20$for$u20$alloc..borrow..Cow$LT$str$GT$$GT$4from17h1fa0838f545493d9E:
Lfunc_begin80:
	.loc	41 2774 0
	.cfi_startproc
	pushq	%rbp
	.cfi_def_cfa_offset 16
	.cfi_offset %rbp, -16
	movq	%rsp, %rbp
	.cfi_def_cfa_register %rbp
	subq	$16, %rsp
	movq	%rdi, %rax
	movq	%rsi, -16(%rbp)
	movq	%rdx, -8(%rbp)
Ltmp629:
	.loc	41 2775 9 prologue_end
	movq	%rsi, 8(%rdi)
	movq	%rdx, 16(%rdi)
	movq	$0, (%rdi)
	.loc	41 2776 6
	addq	$16, %rsp
	popq	%rbp
	retq
Ltmp630:
Lfunc_end80:
	.cfi_endproc

	.globl	__ZN5alloc7raw_vec11finish_grow17h0994484bfeb187c8E
	.p2align	4, 0x90
__ZN5alloc7raw_vec11finish_grow17h0994484bfeb187c8E:
Lfunc_begin81:
	.loc	38 448 0
	.cfi_startproc
	pushq	%rbp
	.cfi_def_cfa_offset 16
	.cfi_offset %rbp, -16
	movq	%rsp, %rbp
	.cfi_def_cfa_register %rbp
	subq	$512, %rsp
	movq	%r8, -504(%rbp)
	movq	%rcx, -496(%rbp)
Ltmp631:
	movq	%rdi, -488(%rbp)
	movq	%rdi, -480(%rbp)
	movq	%rsi, -240(%rbp)
	movq	%rdx, -232(%rbp)
Ltmp632:
	movq	%r8, -224(%rbp)
Ltmp633:
	.loc	38 457 22 prologue_end
	leaq	-432(%rbp), %rdi
	callq	__ZN4core6result19Result$LT$T$C$E$GT$7map_err17haa6380eefe530da8E
Ltmp634:
	.loc	11 2091 9
	cmpq	$0, -432(%rbp)
Ltmp635:
	jne	LBB81_2
Ltmp636:
	.loc	11 2092 16
	movq	-424(%rbp), %rcx
	movq	-416(%rbp), %rax
	movq	%rcx, -184(%rbp)
	movq	%rax, -176(%rbp)
Ltmp637:
	.loc	11 2092 22 is_stmt 0
	movq	%rcx, -448(%rbp)
	movq	%rax, -440(%rbp)
	movq	$0, -456(%rbp)
Ltmp638:
	.loc	11 2092 45
	jmp	LBB81_3
Ltmp639:
LBB81_2:
	.loc	11 2093 17 is_stmt 1
	movq	-424(%rbp), %rcx
	movq	-416(%rbp), %rax
	movq	%rcx, -200(%rbp)
	movq	%rax, -192(%rbp)
Ltmp640:
	.loc	11 2093 42 is_stmt 0
	movq	%rcx, -304(%rbp)
	movq	%rax, -296(%rbp)
	.loc	11 2093 23
	movq	-304(%rbp), %rcx
	movq	-296(%rbp), %rax
	movq	%rcx, -448(%rbp)
	movq	%rax, -440(%rbp)
	movq	$1, -456(%rbp)
Ltmp641:
LBB81_3:
	.loc	38 457 22 is_stmt 1
	cmpq	$0, -456(%rbp)
	jne	LBB81_5
Ltmp642:
	movq	-448(%rbp), %rcx
	movq	-440(%rbp), %rax
	movq	%rcx, -120(%rbp)
	movq	%rax, -112(%rbp)
Ltmp643:
	.loc	38 457 22 is_stmt 0
	movq	%rcx, -472(%rbp)
	movq	%rax, -464(%rbp)
Ltmp644:
	.loc	38 509 9 is_stmt 1
	movabsq	$-9223372036854775807, %rax
	movq	%rax, -368(%rbp)
Ltmp645:
	.loc	11 2091 15
	movabsq	$-9223372036854775807, %rdx
	movl	$1, %eax
	xorl	%ecx, %ecx
	cmpq	%rdx, -368(%rbp)
	cmoveq	%rcx, %rax
	.loc	11 2091 9 is_stmt 0
	cmpq	$0, %rax
	je	LBB81_7
	jmp	LBB81_8
Ltmp646:
LBB81_5:
	.loc	11 0 9
	movq	-488(%rbp), %rax
	.loc	38 457 62 is_stmt 1
	movq	-448(%rbp), %rdx
	movq	-440(%rbp), %rcx
	movq	%rdx, -168(%rbp)
	movq	%rcx, -160(%rbp)
Ltmp647:
	.loc	38 457 62 is_stmt 0
	movq	%rdx, -408(%rbp)
	movq	%rcx, -400(%rbp)
Ltmp648:
	.loc	11 2107 17 is_stmt 1
	movq	-408(%rbp), %rdx
	movq	-400(%rbp), %rcx
	movq	%rdx, -152(%rbp)
	movq	%rcx, -144(%rbp)
Ltmp649:
	.loc	11 2107 38 is_stmt 0
	movq	%rdx, -136(%rbp)
	movq	%rcx, -128(%rbp)
Ltmp650:
	.loc	9 117 9 is_stmt 1
	movq	%rdx, -288(%rbp)
	movq	%rcx, -280(%rbp)
Ltmp651:
	.loc	11 2107 23
	movq	-288(%rbp), %rdx
	movq	-280(%rbp), %rcx
	movq	%rdx, 8(%rax)
	movq	%rcx, 16(%rax)
	movq	$1, (%rax)
Ltmp652:
LBB81_6:
	.loc	38 473 2
	jmp	LBB81_12
Ltmp653:
LBB81_7:
	.loc	11 2092 22
	movabsq	$-9223372036854775807, %rax
	movq	%rax, -384(%rbp)
Ltmp654:
	.loc	11 2092 45 is_stmt 0
	jmp	LBB81_9
Ltmp655:
LBB81_8:
	.loc	11 2093 17 is_stmt 1
	movq	-376(%rbp), %rcx
	movq	-368(%rbp), %rax
	movq	%rcx, -104(%rbp)
	movq	%rax, -96(%rbp)
Ltmp656:
	.loc	11 2093 42 is_stmt 0
	movq	%rcx, -272(%rbp)
	movq	%rax, -264(%rbp)
	.loc	11 2093 23
	movq	-272(%rbp), %rcx
	movq	-264(%rbp), %rax
	movq	%rcx, -392(%rbp)
	movq	%rax, -384(%rbp)
Ltmp657:
LBB81_9:
	.loc	38 459 5 is_stmt 1
	movabsq	$-9223372036854775807, %rdx
	movl	$1, %eax
	xorl	%ecx, %ecx
	cmpq	%rdx, -384(%rbp)
	cmoveq	%rcx, %rax
	cmpq	$0, %rax
	jne	LBB81_11
Ltmp658:
	.loc	38 0 5 is_stmt 0
	movq	-496(%rbp), %rdx
Ltmp659:
	.loc	38 461 25 is_stmt 1
	movl	$1, %eax
	xorl	%ecx, %ecx
	cmpq	$0, 16(%rdx)
	cmoveq	%rcx, %rax
	cmpq	$1, %rax
	je	LBB81_13
	jmp	LBB81_14
Ltmp660:
LBB81_11:
	.loc	38 0 25 is_stmt 0
	movq	-488(%rbp), %rax
	.loc	38 459 35 is_stmt 1
	movq	-392(%rbp), %rdx
	movq	-384(%rbp), %rcx
	movq	%rdx, -88(%rbp)
	movq	%rcx, -80(%rbp)
Ltmp661:
	.loc	38 459 35 is_stmt 0
	movq	%rdx, -360(%rbp)
	movq	%rcx, -352(%rbp)
Ltmp662:
	.loc	11 2107 17 is_stmt 1
	movq	-360(%rbp), %rdx
	movq	-352(%rbp), %rcx
	movq	%rdx, -72(%rbp)
	movq	%rcx, -64(%rbp)
Ltmp663:
	.loc	11 2107 38 is_stmt 0
	movq	%rdx, -56(%rbp)
	movq	%rcx, -48(%rbp)
	.loc	11 2107 23
	movq	%rdx, 8(%rax)
	movq	%rcx, 16(%rax)
	movq	$1, (%rax)
Ltmp664:
	.loc	43 1 1 is_stmt 1
	jmp	LBB81_6
Ltmp665:
LBB81_12:
	.loc	43 0 1 is_stmt 0
	movq	-480(%rbp), %rax
	.loc	38 473 2 is_stmt 1
	addq	$512, %rsp
	popq	%rbp
	retq
Ltmp666:
LBB81_13:
	.loc	38 0 2 is_stmt 0
	movq	-504(%rbp), %rdi
	movq	-496(%rbp), %rax
Ltmp667:
	.loc	38 461 31 is_stmt 1
	movq	(%rax), %rsi
	movq	%rsi, -40(%rbp)
	.loc	38 461 36 is_stmt 0
	movq	8(%rax), %rcx
	movq	16(%rax), %rax
	movq	%rcx, -328(%rbp)
	movq	%rax, -320(%rbp)
	leaq	-328(%rbp), %rax
	.loc	38 465 32 is_stmt 1
	movq	%rax, -32(%rbp)
Ltmp668:
	.loc	29 140 9
	movq	-320(%rbp), %rax
	movq	%rax, -24(%rbp)
Ltmp669:
	.loc	30 97 9
	movq	%rax, -256(%rbp)
	leaq	-472(%rbp), %rax
Ltmp670:
	.loc	38 465 54
	movq	%rax, -16(%rbp)
Ltmp671:
	.loc	29 140 9
	movq	-464(%rbp), %rax
	movq	%rax, -8(%rbp)
Ltmp672:
	.loc	30 97 9
	movq	%rax, -248(%rbp)
Ltmp673:
	.loc	38 466 29
	movq	-328(%rbp), %rdx
	movq	-320(%rbp), %rcx
	.loc	38 466 41 is_stmt 0
	movq	-472(%rbp), %r8
	movq	-464(%rbp), %r9
	.loc	38 466 13
	callq	__ZN63_$LT$alloc..alloc..Global$u20$as$u20$core..alloc..Allocator$GT$4grow17h63b32e2a836468f4E
	movq	%rdx, -336(%rbp)
	movq	%rax, -344(%rbp)
Ltmp674:
	.loc	38 461 18 is_stmt 1
	jmp	LBB81_15
Ltmp675:
LBB81_14:
	.loc	38 0 18 is_stmt 0
	movq	-504(%rbp), %rdi
	.loc	38 469 24 is_stmt 1
	movq	-472(%rbp), %rsi
	movq	-464(%rbp), %rdx
	.loc	38 469 9 is_stmt 0
	callq	__ZN63_$LT$alloc..alloc..Global$u20$as$u20$core..alloc..Allocator$GT$8allocate17hba77ccc21a85d43aE
	movq	%rdx, -336(%rbp)
	movq	%rax, -344(%rbp)
Ltmp676:
LBB81_15:
	.loc	38 0 9
	movq	-488(%rbp), %rdi
Ltmp677:
	.loc	38 472 5 is_stmt 1
	movq	-344(%rbp), %rsi
	movq	-336(%rbp), %rdx
	.loc	38 472 20 is_stmt 0
	leaq	-472(%rbp), %rax
	movq	%rax, -312(%rbp)
	.loc	38 472 5
	movq	-312(%rbp), %rcx
	callq	__ZN4core6result19Result$LT$T$C$E$GT$7map_err17he90d2b8960efbe89E
Ltmp678:
	.loc	38 473 2 is_stmt 1
	jmp	LBB81_12
Ltmp679:
Lfunc_end81:
	.cfi_endproc

	.globl	__ZN5alloc7raw_vec11finish_grow28_$u7b$$u7b$closure$u7d$$u7d$17hab79c1ea146e1d60E
	.p2align	4, 0x90
__ZN5alloc7raw_vec11finish_grow28_$u7b$$u7b$closure$u7d$$u7d$17hab79c1ea146e1d60E:
Lfunc_begin82:
	.loc	38 457 0
	.cfi_startproc
	pushq	%rbp
	.cfi_def_cfa_offset 16
	.cfi_offset %rbp, -16
	movq	%rsp, %rbp
	.cfi_def_cfa_register %rbp
	subq	$32, %rsp
Ltmp680:
	.loc	38 457 45 prologue_end
	movq	$0, -24(%rbp)
	.loc	38 457 61 is_stmt 0
	movq	-32(%rbp), %rax
	movq	-24(%rbp), %rdx
	addq	$32, %rsp
	popq	%rbp
	retq
Ltmp681:
Lfunc_end82:
	.cfi_endproc

	.globl	__ZN5alloc7raw_vec11finish_grow28_$u7b$$u7b$closure$u7d$$u7d$17hc44dcb362b1eb597E
	.p2align	4, 0x90
__ZN5alloc7raw_vec11finish_grow28_$u7b$$u7b$closure$u7d$$u7d$17hc44dcb362b1eb597E:
Lfunc_begin83:
	.loc	38 472 0 is_stmt 1
	.cfi_startproc
	pushq	%rbp
	.cfi_def_cfa_offset 16
	.cfi_offset %rbp, -16
	movq	%rsp, %rbp
	.cfi_def_cfa_register %rbp
	subq	$32, %rsp
	movq	%rdi, -32(%rbp)
Ltmp682:
	.loc	38 472 45 prologue_end
	movq	-32(%rbp), %rax
	movq	(%rax), %rcx
	movq	8(%rax), %rax
	.loc	38 472 24 is_stmt 0
	movq	%rcx, -24(%rbp)
	movq	%rax, -16(%rbp)
	movq	-24(%rbp), %rdi
	movq	-16(%rbp), %rsi
	callq	__ZN50_$LT$T$u20$as$u20$core..convert..Into$LT$U$GT$$GT$4into17he6fc19bf885ff601E
	.loc	38 472 84
	addq	$32, %rsp
	popq	%rbp
	retq
Ltmp683:
Lfunc_end83:
	.cfi_endproc

	.p2align	4, 0x90
__ZN5alloc7raw_vec14handle_reserve17h1a5b7b415c016e83E:
Lfunc_begin84:
	.loc	38 487 0 is_stmt 1
	.cfi_startproc
	pushq	%rbp
	.cfi_def_cfa_offset 16
	.cfi_offset %rbp, -16
	movq	%rsp, %rbp
	.cfi_def_cfa_register %rbp
	subq	$48, %rsp
	movq	%rdi, -32(%rbp)
	movq	%rsi, -24(%rbp)
Ltmp684:
	.loc	38 488 11 prologue_end
	callq	__ZN4core6result19Result$LT$T$C$E$GT$7map_err17h25849380f3f35178E
	movq	%rdx, -40(%rbp)
	movq	%rax, -48(%rbp)
	movabsq	$-9223372036854775807, %rdx
	movl	$1, %eax
	xorl	%ecx, %ecx
	cmpq	%rdx, -40(%rbp)
	cmoveq	%rcx, %rax
	.loc	38 488 5 is_stmt 0
	cmpq	$0, %rax
	jne	LBB84_2
	.loc	38 493 2 is_stmt 1
	addq	$48, %rsp
	popq	%rbp
	retq
LBB84_2:
	.loc	38 488 11
	movl	$1, %eax
	xorl	%ecx, %ecx
	cmpq	$0, -40(%rbp)
	cmoveq	%rcx, %rax
	.loc	38 488 5 is_stmt 0
	cmpq	$0, %rax
	jne	LBB84_4
	.loc	38 489 34 is_stmt 1
	callq	__ZN5alloc7raw_vec17capacity_overflow17h082ee8492f253a0eE
LBB84_4:
	.loc	38 490 26
	movq	-48(%rbp), %rdi
	movq	-40(%rbp), %rsi
	movq	%rdi, -16(%rbp)
	movq	%rsi, -8(%rbp)
Ltmp685:
	.loc	38 490 43 is_stmt 0
	callq	__ZN5alloc5alloc18handle_alloc_error17hb5f6ff255f23ea4dE
Ltmp686:
Lfunc_end84:
	.cfi_endproc

	.globl	__ZN5alloc7raw_vec14handle_reserve28_$u7b$$u7b$closure$u7d$$u7d$17h3ef9d37c60a32c89E
	.p2align	4, 0x90
__ZN5alloc7raw_vec14handle_reserve28_$u7b$$u7b$closure$u7d$$u7d$17h3ef9d37c60a32c89E:
Lfunc_begin85:
	.loc	38 488 0 is_stmt 1
	.cfi_startproc
	pushq	%rbp
	.cfi_def_cfa_offset 16
	.cfi_offset %rbp, -16
	movq	%rsp, %rbp
	.cfi_def_cfa_register %rbp
	subq	$72, %rsp
	movq	%rdi, -72(%rbp)
	movq	%rsi, -64(%rbp)
Ltmp687:
	.loc	38 488 30 prologue_end
	leaq	-72(%rbp), %rax
	movq	%rax, -32(%rbp)
Ltmp688:
	.loc	9 75 9
	leaq	-72(%rbp), %rax
	movq	%rax, -24(%rbp)
Ltmp689:
	.loc	9 80 10
	movl	$1, %eax
	xorl	%ecx, %ecx
	cmpq	$0, -64(%rbp)
	cmoveq	%rcx, %rax
	cmpq	$0, %rax
	jne	LBB85_2
	movq	$0, -48(%rbp)
	jmp	LBB85_3
LBB85_2:
	.loc	9 94 9
	leaq	-72(%rbp), %rax
	movq	%rax, -16(%rbp)
Ltmp690:
	.loc	9 94 9 is_stmt 0
	leaq	-72(%rbp), %rax
	movq	%rax, -8(%rbp)
Ltmp691:
	.loc	29 36 16 is_stmt 1
	movq	-72(%rbp), %rcx
	movq	-64(%rbp), %rax
Ltmp692:
	.loc	9 80 10
	movq	%rcx, -56(%rbp)
	movq	%rax, -48(%rbp)
Ltmp693:
LBB85_3:
	.loc	38 488 38
	movq	-56(%rbp), %rax
	movq	-48(%rbp), %rdx
	addq	$72, %rsp
	popq	%rbp
	retq
Ltmp694:
Lfunc_end85:
	.cfi_endproc

	.globl	__ZN5alloc7raw_vec19RawVec$LT$T$C$A$GT$11allocate_in17h0465702ddddc4765E
	.p2align	4, 0x90
__ZN5alloc7raw_vec19RawVec$LT$T$C$A$GT$11allocate_in17h0465702ddddc4765E:
Lfunc_begin86:
	.loc	38 169 0
	.cfi_startproc
	.cfi_personality 155, _rust_eh_personality
	.cfi_lsda 16, Lexception11
	pushq	%rbp
	.cfi_def_cfa_offset 16
	.cfi_offset %rbp, -16
	movq	%rsp, %rbp
	.cfi_def_cfa_register %rbp
	subq	$384, %rsp
	movq	%rdi, -296(%rbp)
	movb	%sil, %al
	andb	$1, %al
	movb	%al, -281(%rbp)
	movq	%rdi, -168(%rbp)
Ltmp710:
	.loc	38 171 12 prologue_end
	movb	$1, -177(%rbp)
	xorl	%eax, %eax
	testb	$1, %al
	jne	LBB86_2
	.loc	38 0 12 is_stmt 0
	movq	-296(%rbp), %rax
	.loc	38 171 25
	cmpq	$0, %rax
	sete	%al
	.loc	38 171 12
	andb	$1, %al
	movb	%al, -249(%rbp)
	jmp	LBB86_3
LBB86_2:
	movb	$1, -249(%rbp)
LBB86_3:
	testb	$1, -249(%rbp)
	jne	LBB86_5
	.loc	38 0 12
	movq	-296(%rbp), %rax
	.loc	38 176 51 is_stmt 1
	movq	%rax, -144(%rbp)
Ltmp711:
	.loc	21 459 5
	movq	$1, -136(%rbp)
Ltmp712:
	.loc	30 89 18
	movq	$1, -128(%rbp)
	movq	-128(%rbp), %rax
	movq	%rax, -304(%rbp)
	jmp	LBB86_10
Ltmp713:
LBB86_5:
	.loc	38 172 26
	movb	$0, -177(%rbp)
Ltmp707:
	.loc	38 172 13 is_stmt 0
	callq	__ZN5alloc7raw_vec19RawVec$LT$T$C$A$GT$6new_in17h9bc90330773ed103E
Ltmp708:
	movq	%rdx, -320(%rbp)
	movq	%rax, -312(%rbp)
	jmp	LBB86_8
LBB86_6:
	.loc	38 202 5 is_stmt 1
	testb	$1, -177(%rbp)
	jne	LBB86_25
	jmp	LBB86_24
LBB86_7:
Ltmp709:
	.loc	38 0 5 is_stmt 0
	movq	%rax, %rcx
	movl	%edx, %eax
	movq	%rcx, -160(%rbp)
	movl	%eax, -152(%rbp)
	jmp	LBB86_6
LBB86_8:
	movq	-320(%rbp), %rax
	movq	-312(%rbp), %rcx
	.loc	38 172 13 is_stmt 1
	movq	%rcx, -272(%rbp)
	movq	%rax, -264(%rbp)
LBB86_9:
	.loc	38 202 6
	movq	-272(%rbp), %rax
	movq	-264(%rbp), %rdx
	addq	$384, %rsp
	popq	%rbp
	retq
LBB86_10:
Ltmp695:
	.loc	38 0 6 is_stmt 0
	movq	-296(%rbp), %rdx
	movq	-304(%rbp), %rsi
	movl	$1, %edi
Ltmp714:
	.loc	29 438 16 is_stmt 1
	callq	__ZN4core5alloc6layout6Layout5array5inner17hc2bcd3d1438f650bE
Ltmp696:
	movq	%rdx, -336(%rbp)
	movq	%rax, -328(%rbp)
	jmp	LBB86_11
LBB86_11:
	.loc	29 0 16 is_stmt 0
	movq	-336(%rbp), %rax
	movq	-328(%rbp), %rcx
	.loc	29 438 16
	movq	%rcx, -248(%rbp)
	movq	%rax, -240(%rbp)
Ltmp715:
	.loc	38 176 32 is_stmt 1
	xorl	%eax, %eax
	movl	$1, %ecx
	cmpq	$0, -240(%rbp)
	cmoveq	%rcx, %rax
	.loc	38 176 26 is_stmt 0
	cmpq	$0, %rax
	jne	LBB86_13
	.loc	38 177 20 is_stmt 1
	movq	-248(%rbp), %rcx
	movq	%rcx, -352(%rbp)
	movq	-240(%rbp), %rax
	movq	%rax, -344(%rbp)
	movq	%rcx, -120(%rbp)
	movq	%rax, -112(%rbp)
Ltmp716:
	.loc	38 177 31 is_stmt 0
	movq	%rcx, -104(%rbp)
	movq	%rax, -96(%rbp)
Ltmp717:
	.loc	38 509 9 is_stmt 1
	movabsq	$-9223372036854775807, %rax
	movq	%rax, -224(%rbp)
Ltmp718:
	.loc	38 180 19
	movabsq	$-9223372036854775807, %rdx
	movl	$1, %eax
	xorl	%ecx, %ecx
	cmpq	%rdx, -224(%rbp)
	cmoveq	%rcx, %rax
	.loc	38 180 13 is_stmt 0
	cmpq	$0, %rax
	je	LBB86_15
	jmp	LBB86_16
Ltmp719:
LBB86_13:
Ltmp697:
	.loc	38 178 27 is_stmt 1
	callq	__ZN5alloc7raw_vec17capacity_overflow17h082ee8492f253a0eE
Ltmp698:
	jmp	LBB86_14
LBB86_14:
	.loc	38 0 27 is_stmt 0
	ud2
LBB86_15:
Ltmp720:
	.loc	38 184 32 is_stmt 1
	movb	-281(%rbp), %al
	andb	$1, %al
	movzbl	%al, %eax
	.loc	38 184 26 is_stmt 0
	cmpq	$0, %rax
	je	LBB86_17
	jmp	LBB86_18
LBB86_16:
Ltmp699:
	.loc	38 182 27 is_stmt 1
	callq	__ZN5alloc7raw_vec17capacity_overflow17h082ee8492f253a0eE
Ltmp700:
	jmp	LBB86_14
LBB86_17:
Ltmp703:
	.loc	38 0 27 is_stmt 0
	movq	-344(%rbp), %rdx
	movq	-352(%rbp), %rsi
	leaq	-280(%rbp), %rdi
	.loc	38 185 45 is_stmt 1
	callq	__ZN63_$LT$alloc..alloc..Global$u20$as$u20$core..alloc..Allocator$GT$8allocate17hba77ccc21a85d43aE
Ltmp704:
	movq	%rdx, -368(%rbp)
	movq	%rax, -360(%rbp)
	jmp	LBB86_21
LBB86_18:
Ltmp701:
	.loc	38 0 45 is_stmt 0
	movq	-344(%rbp), %rdx
	movq	-352(%rbp), %rsi
	leaq	-280(%rbp), %rdi
	.loc	38 186 38 is_stmt 1
	callq	__ZN63_$LT$alloc..alloc..Global$u20$as$u20$core..alloc..Allocator$GT$15allocate_zeroed17h2fe4a8f1c814cedcE
Ltmp702:
	movq	%rdx, -384(%rbp)
	movq	%rax, -376(%rbp)
	jmp	LBB86_19
LBB86_19:
	.loc	38 0 38 is_stmt 0
	movq	-384(%rbp), %rax
	movq	-376(%rbp), %rcx
	.loc	38 186 38
	movq	%rcx, -216(%rbp)
	movq	%rax, -208(%rbp)
LBB86_20:
Ltmp721:
	.loc	38 188 29 is_stmt 1
	movq	-216(%rbp), %rdx
	xorl	%eax, %eax
	movl	$1, %ecx
	cmpq	$0, %rdx
	cmoveq	%rcx, %rax
	.loc	38 188 23 is_stmt 0
	cmpq	$0, %rax
	je	LBB86_22
	jmp	LBB86_23
Ltmp722:
LBB86_21:
	.loc	38 0 23
	movq	-368(%rbp), %rax
	movq	-360(%rbp), %rcx
	.loc	38 185 45 is_stmt 1
	movq	%rcx, -216(%rbp)
	movq	%rax, -208(%rbp)
	.loc	38 185 66 is_stmt 0
	jmp	LBB86_20
LBB86_22:
	.loc	38 0 66
	movq	-296(%rbp), %rax
Ltmp723:
	.loc	38 189 20 is_stmt 1
	movq	-216(%rbp), %rcx
	movq	-208(%rbp), %rdx
	movq	%rcx, -88(%rbp)
	movq	%rdx, -80(%rbp)
Ltmp724:
	.loc	38 189 28 is_stmt 0
	movq	%rcx, -72(%rbp)
	movq	%rdx, -64(%rbp)
Ltmp725:
	.loc	38 197 53 is_stmt 1
	movq	%rcx, -56(%rbp)
	movq	%rdx, -48(%rbp)
Ltmp726:
	.loc	7 450 41
	movq	%rcx, -40(%rbp)
	movq	%rdx, -32(%rbp)
	movq	%rcx, -24(%rbp)
Ltmp727:
	.loc	7 201 13
	movq	%rcx, -192(%rbp)
Ltmp728:
	.loc	7 326 9
	movq	-192(%rbp), %rcx
	movq	%rcx, -16(%rbp)
Ltmp729:
	.loc	8 87 59
	movq	%rcx, -8(%rbp)
Ltmp730:
	.loc	7 201 13
	movq	%rcx, -176(%rbp)
Ltmp731:
	.loc	8 87 18
	movq	-176(%rbp), %rcx
	movq	%rcx, -200(%rbp)
Ltmp732:
	.loc	38 196 13
	movq	-200(%rbp), %rcx
	movq	%rcx, -264(%rbp)
	movq	%rax, -272(%rbp)
Ltmp733:
	.loc	38 171 9
	jmp	LBB86_9
LBB86_23:
Ltmp705:
	.loc	38 0 9 is_stmt 0
	movq	-344(%rbp), %rsi
	movq	-352(%rbp), %rdi
Ltmp734:
	.loc	38 190 27 is_stmt 1
	callq	__ZN5alloc5alloc18handle_alloc_error17hb5f6ff255f23ea4dE
Ltmp706:
	jmp	LBB86_14
Ltmp735:
LBB86_24:
	.loc	38 169 5
	movq	-160(%rbp), %rdi
	callq	__Unwind_Resume
LBB86_25:
	.loc	38 202 5
	jmp	LBB86_24
Ltmp736:
Lfunc_end86:
	.cfi_endproc
	.section	__TEXT,__gcc_except_tab
	.p2align	2
GCC_except_table86:
Lexception11:
	.byte	255
	.byte	255
	.byte	1
	.uleb128 Lcst_end11-Lcst_begin11
Lcst_begin11:
	.uleb128 Ltmp707-Lfunc_begin86
	.uleb128 Ltmp706-Ltmp707
	.uleb128 Ltmp709-Lfunc_begin86
	.byte	0
	.uleb128 Ltmp706-Lfunc_begin86
	.uleb128 Lfunc_end86-Ltmp706
	.byte	0
	.byte	0
Lcst_end11:
	.p2align	2

	.section	__TEXT,__text,regular,pure_instructions
	.globl	__ZN5alloc7raw_vec19RawVec$LT$T$C$A$GT$13needs_to_grow17h932ecc5c0a878191E
	.p2align	4, 0x90
__ZN5alloc7raw_vec19RawVec$LT$T$C$A$GT$13needs_to_grow17h932ecc5c0a878191E:
Lfunc_begin87:
	.loc	38 360 0
	.cfi_startproc
	pushq	%rbp
	.cfi_def_cfa_offset 16
	.cfi_offset %rbp, -16
	movq	%rsp, %rbp
	.cfi_def_cfa_register %rbp
	subq	$72, %rsp
	movq	%rdi, -72(%rbp)
	movq	%rsi, -64(%rbp)
	movq	%rdx, -56(%rbp)
	movq	%rdi, -40(%rbp)
	movq	%rsi, -32(%rbp)
	movq	%rdx, -24(%rbp)
Ltmp737:
	.loc	38 361 22 prologue_end
	movq	%rdi, -16(%rbp)
Ltmp738:
	.loc	38 232 12
	xorl	%eax, %eax
	testb	$1, %al
	jne	LBB87_2
	.loc	38 0 12 is_stmt 0
	movq	-72(%rbp), %rax
	.loc	38 232 44
	movq	(%rax), %rax
	movq	%rax, -48(%rbp)
	.loc	38 232 9
	jmp	LBB87_3
LBB87_2:
	.loc	38 232 24
	movq	$-1, -48(%rbp)
Ltmp739:
LBB87_3:
	.loc	38 0 24
	movq	-56(%rbp), %rax
	movq	-64(%rbp), %rdx
	.loc	38 361 51 is_stmt 1
	movq	%rdx, -8(%rbp)
Ltmp740:
	.loc	18 1203 38
	movq	-48(%rbp), %rcx
	.loc	18 1203 13 is_stmt 0
	subq	%rdx, %rcx
Ltmp741:
	.loc	38 361 9 is_stmt 1
	cmpq	%rcx, %rax
	seta	%al
	.loc	38 362 6
	andb	$1, %al
	movzbl	%al, %eax
	addq	$72, %rsp
	popq	%rbp
	retq
Ltmp742:
Lfunc_end87:
	.cfi_endproc

	.globl	__ZN5alloc7raw_vec19RawVec$LT$T$C$A$GT$14current_memory17h4268bc40db2186bdE
	.p2align	4, 0x90
__ZN5alloc7raw_vec19RawVec$LT$T$C$A$GT$14current_memory17h4268bc40db2186bdE:
Lfunc_begin88:
	.loc	38 240 0
	.cfi_startproc
	pushq	%rbp
	.cfi_def_cfa_offset 16
	.cfi_offset %rbp, -16
	movq	%rsp, %rbp
	.cfi_def_cfa_register %rbp
	subq	$176, %rsp
	movq	%rsi, -152(%rbp)
	movq	%rdi, -144(%rbp)
	movq	%rdi, -136(%rbp)
	movq	%rsi, -80(%rbp)
Ltmp743:
	.loc	38 241 12 prologue_end
	xorl	%eax, %eax
	testb	$1, %al
	jne	LBB88_2
	.loc	38 0 12 is_stmt 0
	movq	-152(%rbp), %rax
	.loc	38 241 25
	cmpq	$0, (%rax)
	sete	%al
	.loc	38 241 12
	andb	$1, %al
	movb	%al, -121(%rbp)
	jmp	LBB88_3
LBB88_2:
	movb	$1, -121(%rbp)
LBB88_3:
	testb	$1, -121(%rbp)
	jne	LBB88_5
	.loc	38 0 12
	movq	-152(%rbp), %rax
	.loc	38 247 49 is_stmt 1
	movq	(%rax), %rdx
	movq	%rdx, -72(%rbp)
Ltmp744:
	.loc	21 459 5
	movq	$1, -64(%rbp)
Ltmp745:
	.loc	30 89 18
	movq	$1, -56(%rbp)
	movq	-56(%rbp), %rsi
Ltmp746:
	.loc	29 438 16
	movl	$1, %edi
	callq	__ZN4core5alloc6layout6Layout5array5inner17hc2bcd3d1438f650bE
	movq	%rax, %rdi
	movq	%rdx, %rsi
Ltmp747:
	.loc	38 247 30
	leaq	l___unnamed_14(%rip), %rdx
	callq	__ZN4core6result19Result$LT$T$C$E$GT$16unwrap_unchecked17h1eed0f981d333cf1E
	movq	%rax, %rcx
	movq	-152(%rbp), %rax
	movq	%rcx, -168(%rbp)
	movq	%rdx, -160(%rbp)
	movq	%rcx, -48(%rbp)
	movq	%rdx, -40(%rbp)
Ltmp748:
	.loc	38 248 23
	movq	8(%rax), %rax
	movq	%rax, -32(%rbp)
Ltmp749:
	.loc	8 137 22
	movq	%rax, -24(%rbp)
Ltmp750:
	.loc	7 450 41
	movq	%rax, -16(%rbp)
	movq	%rax, -8(%rbp)
Ltmp751:
	.loc	7 201 13
	movq	%rax, -88(%rbp)
Ltmp752:
	.loc	8 191 18
	movq	-88(%rbp), %rax
	.loc	8 191 9 is_stmt 0
	movq	%rax, -96(%rbp)
Ltmp753:
	.loc	38 248 23 is_stmt 1
	movq	-96(%rbp), %rdi
	callq	__ZN50_$LT$T$u20$as$u20$core..convert..Into$LT$U$GT$$GT$4into17hb3e68b1d340acaf3E
	movq	-168(%rbp), %rcx
	movq	-160(%rbp), %rdx
	movq	%rax, %rsi
	movq	-144(%rbp), %rax
	.loc	38 248 22 is_stmt 0
	movq	%rsi, -120(%rbp)
	movq	%rcx, -112(%rbp)
	movq	%rdx, -104(%rbp)
	.loc	38 248 17
	movq	-120(%rbp), %rcx
	movq	%rcx, (%rax)
	movq	-112(%rbp), %rcx
	movq	%rcx, 8(%rax)
	movq	-104(%rbp), %rcx
	movq	%rcx, 16(%rax)
Ltmp754:
	.loc	38 241 9 is_stmt 1
	jmp	LBB88_6
LBB88_5:
	.loc	38 0 9 is_stmt 0
	movq	-144(%rbp), %rax
	.loc	38 242 13 is_stmt 1
	movq	$0, 16(%rax)
LBB88_6:
	.loc	38 0 13 is_stmt 0
	movq	-136(%rbp), %rax
	.loc	38 251 6 is_stmt 1
	addq	$176, %rsp
	popq	%rbp
	retq
Ltmp755:
Lfunc_end88:
	.cfi_endproc

	.globl	__ZN5alloc7raw_vec19RawVec$LT$T$C$A$GT$14grow_amortized17h2a194bca1c1ec416E
	.p2align	4, 0x90
__ZN5alloc7raw_vec19RawVec$LT$T$C$A$GT$14grow_amortized17h2a194bca1c1ec416E:
Lfunc_begin89:
	.loc	38 379 0
	.cfi_startproc
	pushq	%rbp
	.cfi_def_cfa_offset 16
	.cfi_offset %rbp, -16
	movq	%rsp, %rbp
	.cfi_def_cfa_register %rbp
	subq	$656, %rsp
	movq	%rdi, -624(%rbp)
	movq	%rsi, -616(%rbp)
	movq	%rdx, -608(%rbp)
	movq	%rdi, -352(%rbp)
	movq	%rsi, -344(%rbp)
	movq	%rdx, -336(%rbp)
Ltmp756:
	.loc	38 383 12 prologue_end
	xorl	%eax, %eax
	testb	$1, %al
	jne	LBB89_2
	.loc	38 0 12 is_stmt 0
	movq	-608(%rbp), %rsi
	movq	-616(%rbp), %rdi
	.loc	38 390 28 is_stmt 1
	callq	__ZN4core3num23_$LT$impl$u20$usize$GT$11checked_add17h0bd7959b12e2001bE
	movq	%rdx, -528(%rbp)
	movq	%rax, -536(%rbp)
	.loc	38 390 62 is_stmt 0
	movq	$0, -512(%rbp)
Ltmp757:
	.loc	6 1096 9 is_stmt 1
	cmpq	$0, -536(%rbp)
	je	LBB89_4
	jmp	LBB89_5
Ltmp758:
LBB89_2:
	.loc	38 386 24
	movq	$0, -576(%rbp)
	movq	-584(%rbp), %rdi
	movq	-576(%rbp), %rsi
	callq	__ZN50_$LT$T$u20$as$u20$core..convert..Into$LT$U$GT$$GT$4into17he6fc19bf885ff601E
	.loc	38 386 20 is_stmt 0
	movq	%rax, -600(%rbp)
	movq	%rdx, -592(%rbp)
LBB89_3:
	.loc	38 403 6 is_stmt 1
	movq	-600(%rbp), %rax
	movq	-592(%rbp), %rdx
	addq	$656, %rsp
	popq	%rbp
	retq
LBB89_4:
Ltmp759:
	.loc	6 1098 25
	movq	-520(%rbp), %rcx
	movq	-512(%rbp), %rax
	.loc	6 1098 21 is_stmt 0
	movq	%rcx, -552(%rbp)
	movq	%rax, -544(%rbp)
	.loc	6 1098 28
	jmp	LBB89_6
LBB89_5:
	.loc	6 1097 18 is_stmt 1
	movq	-528(%rbp), %rax
	movq	%rax, -328(%rbp)
Ltmp760:
	.loc	6 1097 24 is_stmt 0
	movq	%rax, -552(%rbp)
	movabsq	$-9223372036854775807, %rax
	movq	%rax, -544(%rbp)
Ltmp761:
LBB89_6:
	.loc	11 2091 15 is_stmt 1
	movabsq	$-9223372036854775807, %rdx
	movl	$1, %eax
	xorl	%ecx, %ecx
	cmpq	%rdx, -544(%rbp)
	cmoveq	%rcx, %rax
	.loc	11 2091 9 is_stmt 0
	cmpq	$0, %rax
	jne	LBB89_8
	.loc	11 2092 16 is_stmt 1
	movq	-552(%rbp), %rax
	movq	%rax, -304(%rbp)
Ltmp762:
	.loc	11 2092 22 is_stmt 0
	movq	%rax, -568(%rbp)
	movabsq	$-9223372036854775807, %rax
	movq	%rax, -560(%rbp)
Ltmp763:
	.loc	11 2092 45
	jmp	LBB89_9
LBB89_8:
	.loc	11 2093 17 is_stmt 1
	movq	-552(%rbp), %rcx
	movq	-544(%rbp), %rax
	movq	%rcx, -320(%rbp)
	movq	%rax, -312(%rbp)
Ltmp764:
	.loc	11 2093 42 is_stmt 0
	movq	%rcx, -400(%rbp)
	movq	%rax, -392(%rbp)
	.loc	11 2093 23
	movq	-400(%rbp), %rcx
	movq	-392(%rbp), %rax
	movq	%rcx, -568(%rbp)
	movq	%rax, -560(%rbp)
Ltmp765:
LBB89_9:
	.loc	38 390 28 is_stmt 1
	movabsq	$-9223372036854775807, %rdx
	movl	$1, %eax
	xorl	%ecx, %ecx
	cmpq	%rdx, -560(%rbp)
	cmoveq	%rcx, %rax
	cmpq	$0, %rax
	jne	LBB89_11
	.loc	38 0 28 is_stmt 0
	movq	-624(%rbp), %rax
	.loc	38 390 28
	movq	-568(%rbp), %rsi
	movq	%rsi, -248(%rbp)
Ltmp766:
	.loc	38 390 28
	movq	%rsi, -240(%rbp)
Ltmp767:
	.loc	38 394 28 is_stmt 1
	movq	(%rax), %rdi
	shlq	$1, %rdi
	movq	%rdi, -232(%rbp)
	.loc	38 394 42 is_stmt 0
	movq	%rsi, -224(%rbp)
Ltmp768:
	.loc	14 1276 5 is_stmt 1
	movq	%rdi, -216(%rbp)
	.loc	14 1276 12 is_stmt 0
	movq	%rsi, -208(%rbp)
Ltmp769:
	.loc	14 803 13 is_stmt 1
	callq	__ZN4core3cmp6max_by17he606c6a9b503baa4E
	movq	%rax, %rsi
	movq	%rsi, -200(%rbp)
Ltmp770:
	.loc	38 395 52
	movq	%rsi, -192(%rbp)
	.loc	38 395 19 is_stmt 0
	movq	$8, -184(%rbp)
Ltmp771:
	.loc	14 1276 5 is_stmt 1
	movq	$8, -176(%rbp)
	.loc	14 1276 12 is_stmt 0
	movq	%rsi, -168(%rbp)
Ltmp772:
	.loc	14 803 13 is_stmt 1
	movl	$8, %edi
	callq	__ZN4core3cmp6max_by17he606c6a9b503baa4E
	movq	%rax, %rdx
	movq	%rdx, -648(%rbp)
	movq	%rdx, -160(%rbp)
Ltmp773:
	.loc	38 397 45
	movq	%rdx, -152(%rbp)
Ltmp774:
	.loc	21 459 5
	movq	$1, -144(%rbp)
Ltmp775:
	.loc	30 89 18
	movq	$1, -136(%rbp)
	movq	-136(%rbp), %rsi
Ltmp776:
	.loc	29 438 16
	movl	$1, %edi
	callq	__ZN4core5alloc6layout6Layout5array5inner17hc2bcd3d1438f650bE
	movq	-624(%rbp), %rsi
	movq	%rax, -640(%rbp)
	movq	%rdx, -632(%rbp)
	movq	%rax, -128(%rbp)
	movq	%rdx, -120(%rbp)
Ltmp777:
	.loc	38 400 43
	leaq	-440(%rbp), %rdi
	callq	__ZN5alloc7raw_vec19RawVec$LT$T$C$A$GT$14current_memory17h4268bc40db2186bdE
	movq	-640(%rbp), %rsi
	movq	-632(%rbp), %rdx
	movq	-624(%rbp), %r8
	.loc	38 400 19 is_stmt 0
	leaq	-464(%rbp), %rdi
	leaq	-440(%rbp), %rcx
	callq	__ZN5alloc7raw_vec11finish_grow17h0994484bfeb187c8E
Ltmp778:
	.loc	11 2091 9 is_stmt 1
	cmpq	$0, -464(%rbp)
	je	LBB89_13
	jmp	LBB89_14
Ltmp779:
LBB89_11:
	.loc	38 390 79
	movq	-568(%rbp), %rcx
	movq	-560(%rbp), %rax
	movq	%rcx, -296(%rbp)
	movq	%rax, -288(%rbp)
Ltmp780:
	.loc	38 390 79 is_stmt 0
	movq	%rcx, -504(%rbp)
	movq	%rax, -496(%rbp)
Ltmp781:
	.loc	11 2107 17 is_stmt 1
	movq	-504(%rbp), %rcx
	movq	-496(%rbp), %rax
	movq	%rcx, -280(%rbp)
	movq	%rax, -272(%rbp)
Ltmp782:
	.loc	11 2107 38 is_stmt 0
	movq	%rcx, -264(%rbp)
	movq	%rax, -256(%rbp)
Ltmp783:
	.loc	9 117 9 is_stmt 1
	movq	%rcx, -384(%rbp)
	movq	%rax, -376(%rbp)
Ltmp784:
	.loc	11 2107 23
	movq	-384(%rbp), %rcx
	movq	-376(%rbp), %rax
	movq	%rcx, -600(%rbp)
	movq	%rax, -592(%rbp)
Ltmp785:
LBB89_12:
	.loc	43 1 1
	jmp	LBB89_3
LBB89_13:
Ltmp786:
	.loc	11 2092 16
	movq	-456(%rbp), %rcx
	movq	-448(%rbp), %rax
	movq	%rcx, -96(%rbp)
	movq	%rax, -88(%rbp)
Ltmp787:
	.loc	11 2092 22 is_stmt 0
	movq	%rcx, -480(%rbp)
	movq	%rax, -472(%rbp)
	movq	$0, -488(%rbp)
Ltmp788:
	.loc	11 2092 45
	jmp	LBB89_15
LBB89_14:
	.loc	11 2093 17 is_stmt 1
	movq	-456(%rbp), %rcx
	movq	-448(%rbp), %rax
	movq	%rcx, -112(%rbp)
	movq	%rax, -104(%rbp)
Ltmp789:
	.loc	11 2093 42 is_stmt 0
	movq	%rcx, -368(%rbp)
	movq	%rax, -360(%rbp)
	.loc	11 2093 23
	movq	-368(%rbp), %rcx
	movq	-360(%rbp), %rax
	movq	%rcx, -480(%rbp)
	movq	%rax, -472(%rbp)
	movq	$1, -488(%rbp)
Ltmp790:
LBB89_15:
	.loc	38 400 19 is_stmt 1
	cmpq	$0, -488(%rbp)
	jne	LBB89_17
	.loc	38 0 19 is_stmt 0
	movq	-648(%rbp), %rcx
	movq	-624(%rbp), %rdi
	.loc	38 400 19
	movq	-480(%rbp), %rsi
	movq	-472(%rbp), %rdx
	movq	%rsi, -32(%rbp)
	movq	%rdx, -24(%rbp)
Ltmp791:
	.loc	38 400 19
	movq	%rsi, -16(%rbp)
	movq	%rdx, -8(%rbp)
Ltmp792:
	.loc	38 401 9 is_stmt 1
	callq	__ZN5alloc7raw_vec19RawVec$LT$T$C$A$GT$15set_ptr_and_cap17hfd665eedee600627E
	.loc	38 402 9
	movabsq	$-9223372036854775807, %rax
	movq	%rax, -592(%rbp)
Ltmp793:
	.loc	38 403 6
	jmp	LBB89_3
LBB89_17:
Ltmp794:
	.loc	38 400 82
	movq	-480(%rbp), %rcx
	movq	-472(%rbp), %rax
	movq	%rcx, -80(%rbp)
	movq	%rax, -72(%rbp)
Ltmp795:
	.loc	38 400 82 is_stmt 0
	movq	%rcx, -416(%rbp)
	movq	%rax, -408(%rbp)
Ltmp796:
	.loc	11 2107 17 is_stmt 1
	movq	-416(%rbp), %rcx
	movq	-408(%rbp), %rax
	movq	%rcx, -64(%rbp)
	movq	%rax, -56(%rbp)
Ltmp797:
	.loc	11 2107 38 is_stmt 0
	movq	%rcx, -48(%rbp)
	movq	%rax, -40(%rbp)
	.loc	11 2107 23
	movq	%rcx, -600(%rbp)
	movq	%rax, -592(%rbp)
Ltmp798:
	.loc	43 1 1 is_stmt 1
	jmp	LBB89_12
Ltmp799:
Lfunc_end89:
	.cfi_endproc

	.globl	__ZN5alloc7raw_vec19RawVec$LT$T$C$A$GT$15set_ptr_and_cap17hfd665eedee600627E
	.p2align	4, 0x90
__ZN5alloc7raw_vec19RawVec$LT$T$C$A$GT$15set_ptr_and_cap17hfd665eedee600627E:
Lfunc_begin90:
	.loc	38 364 0
	.cfi_startproc
	pushq	%rbp
	.cfi_def_cfa_offset 16
	.cfi_offset %rbp, -16
	movq	%rsp, %rbp
	.cfi_def_cfa_register %rbp
	subq	$112, %rsp
	movq	%rdi, -88(%rbp)
	movq	%rsi, -80(%rbp)
	movq	%rdx, -72(%rbp)
	movq	%rcx, -64(%rbp)
Ltmp800:
	.loc	38 368 51 prologue_end
	movq	%rsi, -56(%rbp)
	movq	%rdx, -48(%rbp)
Ltmp801:
	.loc	7 450 41
	movq	%rsi, -40(%rbp)
	movq	%rdx, -32(%rbp)
	movq	%rsi, -24(%rbp)
Ltmp802:
	.loc	7 201 13
	movq	%rsi, -104(%rbp)
Ltmp803:
	.loc	7 326 9
	movq	-104(%rbp), %rax
	movq	%rax, -16(%rbp)
Ltmp804:
	.loc	8 87 59
	movq	%rax, -8(%rbp)
Ltmp805:
	.loc	7 201 13
	movq	%rax, -96(%rbp)
Ltmp806:
	.loc	8 87 18
	movq	-96(%rbp), %rax
	movq	%rax, -112(%rbp)
Ltmp807:
	.loc	38 368 9
	movq	-112(%rbp), %rax
	movq	%rax, 8(%rdi)
	.loc	38 369 9
	movq	%rcx, (%rdi)
	.loc	38 370 6
	addq	$112, %rsp
	popq	%rbp
	retq
Ltmp808:
Lfunc_end90:
	.cfi_endproc

	.globl	__ZN5alloc7raw_vec19RawVec$LT$T$C$A$GT$16reserve_for_push17h0769c8656d9ed598E
	.p2align	4, 0x90
__ZN5alloc7raw_vec19RawVec$LT$T$C$A$GT$16reserve_for_push17h0769c8656d9ed598E:
Lfunc_begin91:
	.loc	38 297 0
	.cfi_startproc
	pushq	%rbp
	.cfi_def_cfa_offset 16
	.cfi_offset %rbp, -16
	movq	%rsp, %rbp
	.cfi_def_cfa_register %rbp
	subq	$16, %rsp
	movq	%rdi, -16(%rbp)
	movq	%rsi, -8(%rbp)
Ltmp809:
	.loc	38 298 24 prologue_end
	movl	$1, %edx
	callq	__ZN5alloc7raw_vec19RawVec$LT$T$C$A$GT$14grow_amortized17h2a194bca1c1ec416E
	movq	%rax, %rdi
	movq	%rdx, %rsi
	.loc	38 298 9 is_stmt 0
	callq	__ZN5alloc7raw_vec14handle_reserve17h1a5b7b415c016e83E
	.loc	38 299 6 is_stmt 1
	addq	$16, %rsp
	popq	%rbp
	retq
Ltmp810:
Lfunc_end91:
	.cfi_endproc

	.globl	__ZN5alloc7raw_vec19RawVec$LT$T$C$A$GT$6new_in17h9bc90330773ed103E
	.p2align	4, 0x90
__ZN5alloc7raw_vec19RawVec$LT$T$C$A$GT$6new_in17h9bc90330773ed103E:
Lfunc_begin92:
	.loc	38 121 0
	.cfi_startproc
	pushq	%rbp
	.cfi_def_cfa_offset 16
	.cfi_offset %rbp, -16
	movq	%rsp, %rbp
	.cfi_def_cfa_register %rbp
	subq	$96, %rsp
Ltmp811:
	.loc	21 459 5 prologue_end
	movq	$1, -48(%rbp)
Ltmp812:
	.loc	3 599 14
	movq	$1, -40(%rbp)
	movq	-40(%rbp), %rax
	movq	%rax, -96(%rbp)
	movq	%rax, -32(%rbp)
Ltmp813:
	.loc	3 0 14 is_stmt 0
	movq	-96(%rbp), %rax
Ltmp814:
	.loc	7 97 36 is_stmt 1
	movq	%rax, -8(%rbp)
Ltmp815:
	.loc	7 201 13
	movq	%rax, -64(%rbp)
Ltmp816:
	.loc	8 191 18
	movq	-64(%rbp), %rax
	.loc	8 191 9 is_stmt 0
	movq	%rax, -72(%rbp)
Ltmp817:
	.loc	38 123 9 is_stmt 1
	movq	-72(%rbp), %rax
	movq	%rax, -80(%rbp)
	movq	$0, -88(%rbp)
	.loc	38 124 6
	movq	-88(%rbp), %rax
	movq	-80(%rbp), %rdx
	addq	$96, %rsp
	popq	%rbp
	retq
Ltmp818:
Lfunc_end92:
	.cfi_endproc

	.globl	__ZN5alloc7raw_vec19RawVec$LT$T$C$A$GT$7reserve17h725182efd1054144E
	.p2align	4, 0x90
__ZN5alloc7raw_vec19RawVec$LT$T$C$A$GT$7reserve17h725182efd1054144E:
Lfunc_begin93:
	.loc	38 274 0
	.cfi_startproc
	pushq	%rbp
	.cfi_def_cfa_offset 16
	.cfi_offset %rbp, -16
	movq	%rsp, %rbp
	.cfi_def_cfa_register %rbp
	subq	$48, %rsp
	movq	%rdi, -48(%rbp)
	movq	%rsi, -40(%rbp)
	movq	%rdx, -32(%rbp)
	movq	%rdi, -24(%rbp)
	movq	%rsi, -16(%rbp)
	movq	%rdx, -8(%rbp)
Ltmp819:
	.loc	38 288 12 prologue_end
	callq	__ZN5alloc7raw_vec19RawVec$LT$T$C$A$GT$13needs_to_grow17h932ecc5c0a878191E
	testb	$1, %al
	jne	LBB93_2
LBB93_1:
	.loc	38 291 6
	addq	$48, %rsp
	popq	%rbp
	retq
LBB93_2:
	.loc	38 0 6 is_stmt 0
	movq	-32(%rbp), %rdx
	movq	-40(%rbp), %rsi
	movq	-48(%rbp), %rdi
	.loc	38 289 13 is_stmt 1
	callq	__ZN5alloc7raw_vec19RawVec$LT$T$C$A$GT$7reserve21do_reserve_and_handle17hd888f45a38b47e45E
	.loc	38 288 9
	jmp	LBB93_1
Ltmp820:
Lfunc_end93:
	.cfi_endproc

	.globl	__ZN5alloc7raw_vec19RawVec$LT$T$C$A$GT$7reserve21do_reserve_and_handle17hd888f45a38b47e45E
	.p2align	4, 0x90
__ZN5alloc7raw_vec19RawVec$LT$T$C$A$GT$7reserve21do_reserve_and_handle17hd888f45a38b47e45E:
Lfunc_begin94:
	.loc	38 280 0
	.cfi_startproc
	pushq	%rbp
	.cfi_def_cfa_offset 16
	.cfi_offset %rbp, -16
	movq	%rsp, %rbp
	.cfi_def_cfa_register %rbp
	subq	$32, %rsp
	movq	%rdi, -24(%rbp)
	movq	%rsi, -16(%rbp)
	movq	%rdx, -8(%rbp)
Ltmp821:
	.loc	38 285 28 prologue_end
	callq	__ZN5alloc7raw_vec19RawVec$LT$T$C$A$GT$14grow_amortized17h2a194bca1c1ec416E
	movq	%rax, %rdi
	movq	%rdx, %rsi
	.loc	38 285 13 is_stmt 0
	callq	__ZN5alloc7raw_vec14handle_reserve17h1a5b7b415c016e83E
	.loc	38 286 10 is_stmt 1
	addq	$32, %rsp
	popq	%rbp
	retq
Ltmp822:
Lfunc_end94:
	.cfi_endproc

	.globl	__ZN63_$LT$I$u20$as$u20$core..iter..traits..collect..IntoIterator$GT$9into_iter17h3837433efa213673E
	.p2align	4, 0x90
__ZN63_$LT$I$u20$as$u20$core..iter..traits..collect..IntoIterator$GT$9into_iter17h3837433efa213673E:
Lfunc_begin95:
	.file	44 "/rustc/2c8cc343237b8f7d5a3c3703e3a87f2eb2c54a74/library/core/src/iter/traits" "collect.rs"
	.loc	44 272 0
	.cfi_startproc
	pushq	%rbp
	.cfi_def_cfa_offset 16
	.cfi_offset %rbp, -16
	movq	%rsp, %rbp
	.cfi_def_cfa_register %rbp
	movq	%rdi, %rax
Ltmp823:
	.loc	44 273 9 prologue_end
	movq	(%rsi), %rcx
	movq	%rcx, (%rdi)
	movq	8(%rsi), %rcx
	movq	%rcx, 8(%rdi)
	movq	16(%rsi), %rcx
	movq	%rcx, 16(%rdi)
	.loc	44 274 6
	popq	%rbp
	retq
Ltmp824:
Lfunc_end95:
	.cfi_endproc

	.globl	__ZN63_$LT$I$u20$as$u20$core..iter..traits..collect..IntoIterator$GT$9into_iter17h74406491126492baE
	.p2align	4, 0x90
__ZN63_$LT$I$u20$as$u20$core..iter..traits..collect..IntoIterator$GT$9into_iter17h74406491126492baE:
Lfunc_begin96:
	.loc	44 272 0
	.cfi_startproc
	pushq	%rbp
	.cfi_def_cfa_offset 16
	.cfi_offset %rbp, -16
	movq	%rsp, %rbp
	.cfi_def_cfa_register %rbp
	subq	$16, %rsp
	movq	%rsi, %rdx
	movq	%rdi, %rax
	movq	%rax, -16(%rbp)
	movq	%rdx, -8(%rbp)
Ltmp825:
	.loc	44 274 6 prologue_end
	addq	$16, %rsp
	popq	%rbp
	retq
Ltmp826:
Lfunc_end96:
	.cfi_endproc

	.globl	__ZN63_$LT$I$u20$as$u20$core..iter..traits..collect..IntoIterator$GT$9into_iter17hc4834b2aae2a828dE
	.p2align	4, 0x90
__ZN63_$LT$I$u20$as$u20$core..iter..traits..collect..IntoIterator$GT$9into_iter17hc4834b2aae2a828dE:
Lfunc_begin97:
	.loc	44 272 0
	.cfi_startproc
	pushq	%rbp
	.cfi_def_cfa_offset 16
	.cfi_offset %rbp, -16
	movq	%rsp, %rbp
	.cfi_def_cfa_register %rbp
	subq	$16, %rsp
	movq	%rsi, %rdx
	movq	%rdi, %rax
	movq	%rax, -16(%rbp)
	movq	%rdx, -8(%rbp)
Ltmp827:
	.loc	44 274 6 prologue_end
	addq	$16, %rsp
	popq	%rbp
	retq
Ltmp828:
Lfunc_end97:
	.cfi_endproc

	.globl	__ZN63_$LT$I$u20$as$u20$core..iter..traits..collect..IntoIterator$GT$9into_iter17hd1c8e532b9695965E
	.p2align	4, 0x90
__ZN63_$LT$I$u20$as$u20$core..iter..traits..collect..IntoIterator$GT$9into_iter17hd1c8e532b9695965E:
Lfunc_begin98:
	.loc	44 272 0
	.cfi_startproc
	pushq	%rbp
	.cfi_def_cfa_offset 16
	.cfi_offset %rbp, -16
	movq	%rsp, %rbp
	.cfi_def_cfa_register %rbp
	movq	%rdi, %rax
Ltmp829:
	.loc	44 273 9 prologue_end
	movq	(%rsi), %rcx
	movq	%rcx, (%rdi)
	movq	8(%rsi), %rcx
	movq	%rcx, 8(%rdi)
	movq	16(%rsi), %rcx
	movq	%rcx, 16(%rdi)
	.loc	44 274 6
	popq	%rbp
	retq
Ltmp830:
Lfunc_end98:
	.cfi_endproc

	.p2align	4, 0x90
__ZN63_$LT$alloc..alloc..Global$u20$as$u20$core..alloc..Allocator$GT$10deallocate17ha49b7fe964e6fc1cE:
Lfunc_begin99:
	.loc	42 246 0
	.cfi_startproc
	pushq	%rbp
	.cfi_def_cfa_offset 16
	.cfi_offset %rbp, -16
	movq	%rsp, %rbp
	.cfi_def_cfa_register %rbp
	subq	$112, %rsp
	movq	%rsi, -112(%rbp)
	movq	%rdx, -104(%rbp)
	movq	%rcx, -96(%rbp)
	movq	%rdi, -64(%rbp)
	movq	%rsi, -56(%rbp)
Ltmp831:
	.loc	42 247 12 prologue_end
	leaq	-104(%rbp), %rax
	movq	%rax, -48(%rbp)
	cmpq	$0, -104(%rbp)
	jne	LBB99_2
	.loc	42 247 9 is_stmt 0
	jmp	LBB99_3
LBB99_2:
	.loc	42 0 9
	movq	-112(%rbp), %rdi
	.loc	42 250 30 is_stmt 1
	movq	%rdi, -40(%rbp)
Ltmp832:
	.loc	7 326 9
	movq	%rdi, -32(%rbp)
Ltmp833:
	.loc	42 250 44
	movq	-104(%rbp), %rcx
	movq	-96(%rbp), %rax
	movq	%rcx, -88(%rbp)
	movq	%rax, -80(%rbp)
Ltmp834:
	.loc	42 113 34
	leaq	-88(%rbp), %rax
	movq	%rax, -24(%rbp)
Ltmp835:
	.loc	29 129 9
	movq	-88(%rbp), %rsi
Ltmp836:
	.loc	42 113 49
	leaq	-88(%rbp), %rax
	movq	%rax, -16(%rbp)
Ltmp837:
	.loc	29 140 9
	movq	-80(%rbp), %rax
	movq	%rax, -8(%rbp)
Ltmp838:
	.loc	30 97 9
	movq	%rax, -72(%rbp)
	movq	-72(%rbp), %rdx
Ltmp839:
	.loc	42 113 14
	callq	___rust_dealloc
Ltmp840:
LBB99_3:
	.loc	42 252 6
	addq	$112, %rsp
	popq	%rbp
	retq
Ltmp841:
Lfunc_end99:
	.cfi_endproc

	.p2align	4, 0x90
__ZN63_$LT$alloc..alloc..Global$u20$as$u20$core..alloc..Allocator$GT$15allocate_zeroed17h2fe4a8f1c814cedcE:
Lfunc_begin100:
	.loc	42 241 0
	.cfi_startproc
	pushq	%rbp
	.cfi_def_cfa_offset 16
	.cfi_offset %rbp, -16
	movq	%rsp, %rbp
	.cfi_def_cfa_register %rbp
	subq	$32, %rsp
	movq	%rdi, -24(%rbp)
	movq	%rsi, -16(%rbp)
	movq	%rdx, -8(%rbp)
	movl	$1, %ecx
Ltmp842:
	.loc	42 242 9 prologue_end
	callq	__ZN5alloc5alloc6Global10alloc_impl17h299e2783acd20743E
	.loc	42 243 6
	addq	$32, %rsp
	popq	%rbp
	retq
Ltmp843:
Lfunc_end100:
	.cfi_endproc

	.p2align	4, 0x90
__ZN63_$LT$alloc..alloc..Global$u20$as$u20$core..alloc..Allocator$GT$4grow17h63b32e2a836468f4E:
Lfunc_begin101:
	.loc	42 255 0
	.cfi_startproc
	pushq	%rbp
	.cfi_def_cfa_offset 16
	.cfi_offset %rbp, -16
	movq	%rsp, %rbp
	.cfi_def_cfa_register %rbp
	subq	$64, %rsp
	movq	%rdi, -48(%rbp)
	movq	%rsi, -40(%rbp)
	movq	%rdx, -32(%rbp)
	movq	%rcx, -24(%rbp)
	movq	%r8, -16(%rbp)
	movq	%r9, -8(%rbp)
Ltmp844:
	.loc	42 262 18 prologue_end
	movq	%rsp, %rax
	movl	$0, (%rax)
	callq	__ZN5alloc5alloc6Global9grow_impl17hd317e99a54b85b2bE
	.loc	42 263 6
	addq	$64, %rsp
	popq	%rbp
	retq
Ltmp845:
Lfunc_end101:
	.cfi_endproc

	.p2align	4, 0x90
__ZN63_$LT$alloc..alloc..Global$u20$as$u20$core..alloc..Allocator$GT$8allocate17hba77ccc21a85d43aE:
Lfunc_begin102:
	.loc	42 236 0
	.cfi_startproc
	pushq	%rbp
	.cfi_def_cfa_offset 16
	.cfi_offset %rbp, -16
	movq	%rsp, %rbp
	.cfi_def_cfa_register %rbp
	subq	$32, %rsp
	movq	%rdi, -24(%rbp)
	movq	%rsi, -16(%rbp)
	movq	%rdx, -8(%rbp)
	xorl	%ecx, %ecx
Ltmp846:
	.loc	42 237 9 prologue_end
	callq	__ZN5alloc5alloc6Global10alloc_impl17h299e2783acd20743E
	.loc	42 238 6
	addq	$32, %rsp
	popq	%rbp
	retq
Ltmp847:
Lfunc_end102:
	.cfi_endproc

	.globl	__ZN69_$LT$core..slice..iter..Iter$LT$T$GT$$u20$as$u20$core..fmt..Debug$GT$3fmt17hfc53ac2598ef5d6dE
	.p2align	4, 0x90
__ZN69_$LT$core..slice..iter..Iter$LT$T$GT$$u20$as$u20$core..fmt..Debug$GT$3fmt17hfc53ac2598ef5d6dE:
Lfunc_begin103:
	.loc	33 70 0
	.cfi_startproc
	pushq	%rbp
	.cfi_def_cfa_offset 16
	.cfi_offset %rbp, -16
	movq	%rsp, %rbp
	.cfi_def_cfa_register %rbp
	subq	$64, %rsp
	movq	%rdi, -64(%rbp)
	movq	%rdi, -16(%rbp)
	movq	%rsi, -8(%rbp)
Ltmp848:
	.loc	33 71 9 prologue_end
	leaq	L___unnamed_15(%rip), %rdx
	leaq	-56(%rbp), %rdi
	movl	$4, %ecx
	callq	__ZN4core3fmt9Formatter11debug_tuple17h4ded4cadc630b98fE
	movq	-64(%rbp), %rdi
	.loc	33 71 38 is_stmt 0
	callq	__ZN4core5slice4iter13Iter$LT$T$GT$8as_slice17hb6eed525f40ed676E
	movq	%rdx, -24(%rbp)
	movq	%rax, -32(%rbp)
	.loc	33 71 9
	leaq	-56(%rbp), %rdi
	leaq	-32(%rbp), %rsi
	leaq	l___unnamed_2(%rip), %rdx
	callq	__ZN4core3fmt8builders10DebugTuple5field17h61e3e4b369fada05E
	movq	%rax, %rdi
	callq	__ZN4core3fmt8builders10DebugTuple6finish17h9f18b8701228b16fE
	.loc	33 72 6 is_stmt 1
	andb	$1, %al
	movzbl	%al, %eax
	addq	$64, %rsp
	popq	%rbp
	retq
Ltmp849:
Lfunc_end103:
	.cfi_endproc

	.globl	__ZN70_$LT$alloc..vec..Vec$LT$T$C$A$GT$$u20$as$u20$core..ops..drop..Drop$GT$4drop17hb04ed5cfe73927b6E
	.p2align	4, 0x90
__ZN70_$LT$alloc..vec..Vec$LT$T$C$A$GT$$u20$as$u20$core..ops..drop..Drop$GT$4drop17hb04ed5cfe73927b6E:
Lfunc_begin104:
	.loc	37 3054 0
	.cfi_startproc
	pushq	%rbp
	.cfi_def_cfa_offset 16
	.cfi_offset %rbp, -16
	movq	%rsp, %rbp
	.cfi_def_cfa_register %rbp
	subq	$160, %rsp
	movq	%rdi, -120(%rbp)
Ltmp850:
	.loc	37 3059 62 prologue_end
	movq	%rdi, -112(%rbp)
Ltmp851:
	.loc	37 1280 19
	movq	%rdi, -104(%rbp)
Ltmp852:
	.loc	38 224 9
	movq	8(%rdi), %rcx
	movq	%rcx, -96(%rbp)
Ltmp853:
	.loc	8 104 9
	movq	%rcx, -88(%rbp)
Ltmp854:
	.loc	7 326 9
	movq	%rcx, -80(%rbp)
Ltmp855:
	.loc	37 1282 21
	movq	%rcx, -72(%rbp)
Ltmp856:
	.loc	20 52 36
	movq	%rcx, -160(%rbp)
	.loc	20 52 18 is_stmt 0
	movq	-160(%rbp), %rax
	movq	%rax, -64(%rbp)
Ltmp857:
	.loc	20 38 13 is_stmt 1
	movq	%rax, -56(%rbp)
Ltmp858:
	.loc	20 215 33
	movq	%rax, -48(%rbp)
	.loc	20 215 18 is_stmt 0
	movq	%rax, -40(%rbp)
Ltmp859:
	.loc	37 3059 81 is_stmt 1
	movq	16(%rdi), %rax
	movq	%rax, -32(%rbp)
Ltmp860:
	.loc	3 766 24
	movq	%rcx, -24(%rbp)
Ltmp861:
	.loc	20 60 9
	movq	%rcx, -16(%rbp)
Ltmp862:
	.loc	3 766 37
	movq	%rax, -8(%rbp)
Ltmp863:
	.loc	4 135 36
	movq	%rcx, -136(%rbp)
	movq	%rax, -128(%rbp)
	.loc	4 135 14 is_stmt 0
	movq	-136(%rbp), %rcx
	movq	-128(%rbp), %rax
	movq	%rcx, -152(%rbp)
	movq	%rax, -144(%rbp)
Ltmp864:
	.loc	37 3062 6 is_stmt 1
	addq	$160, %rsp
	popq	%rbp
	retq
Ltmp865:
Lfunc_end104:
	.cfi_endproc

	.globl	__ZN71_$LT$core..slice..iter..Iter$LT$T$GT$$u20$as$u20$core..clone..Clone$GT$5clone17h71113a439e1469fbE
	.p2align	4, 0x90
__ZN71_$LT$core..slice..iter..Iter$LT$T$GT$$u20$as$u20$core..clone..Clone$GT$5clone17h71113a439e1469fbE:
Lfunc_begin105:
	.loc	33 142 0
	.cfi_startproc
	pushq	%rbp
	.cfi_def_cfa_offset 16
	.cfi_offset %rbp, -16
	movq	%rsp, %rbp
	.cfi_def_cfa_register %rbp
	subq	$24, %rsp
	movq	%rdi, -8(%rbp)
Ltmp866:
	.loc	33 143 36 prologue_end
	movq	(%rdi), %rax
	.loc	33 143 21 is_stmt 0
	movq	8(%rdi), %rcx
	.loc	33 143 9
	movq	%rcx, -16(%rbp)
	movq	%rax, -24(%rbp)
	.loc	33 144 6 is_stmt 1
	movq	-24(%rbp), %rax
	movq	-16(%rbp), %rdx
	addq	$24, %rsp
	popq	%rbp
	retq
Ltmp867:
Lfunc_end105:
	.cfi_endproc

	.globl	__ZN72_$LT$alloc..vec..Vec$LT$T$C$A$GT$$u20$as$u20$core..ops..deref..Deref$GT$5deref17h7a5c131a8ce8beeeE
	.p2align	4, 0x90
__ZN72_$LT$alloc..vec..Vec$LT$T$C$A$GT$$u20$as$u20$core..ops..deref..Deref$GT$5deref17h7a5c131a8ce8beeeE:
Lfunc_begin106:
	.loc	37 2636 0
	.cfi_startproc
	pushq	%rbp
	.cfi_def_cfa_offset 16
	.cfi_offset %rbp, -16
	movq	%rsp, %rbp
	.cfi_def_cfa_register %rbp
	subq	$184, %rsp
	movq	%rdi, -144(%rbp)
Ltmp868:
	.loc	37 2637 40 prologue_end
	movq	%rdi, -136(%rbp)
Ltmp869:
	.loc	37 1243 19
	movq	%rdi, -128(%rbp)
Ltmp870:
	.loc	38 224 9
	movq	8(%rdi), %rcx
	movq	%rcx, -120(%rbp)
Ltmp871:
	.loc	8 104 9
	movq	%rcx, -112(%rbp)
Ltmp872:
	.loc	7 326 9
	movq	%rcx, -104(%rbp)
Ltmp873:
	.loc	37 1245 21
	movq	%rcx, -96(%rbp)
Ltmp874:
	.loc	20 52 36
	movq	%rcx, -184(%rbp)
	.loc	20 52 18 is_stmt 0
	movq	-184(%rbp), %rax
	movq	%rax, -88(%rbp)
Ltmp875:
	.loc	20 38 13 is_stmt 1
	movq	%rax, -80(%rbp)
Ltmp876:
	.loc	20 215 33
	movq	%rax, -72(%rbp)
	.loc	20 215 18 is_stmt 0
	movq	%rax, -64(%rbp)
Ltmp877:
	.loc	37 1247 9 is_stmt 1
	movq	%rcx, -56(%rbp)
Ltmp878:
	.loc	37 2637 55
	movq	16(%rdi), %rax
	movq	%rax, -48(%rbp)
Ltmp879:
	.loc	32 100 37
	movq	%rcx, -40(%rbp)
	.loc	32 100 43 is_stmt 0
	movq	%rax, -32(%rbp)
Ltmp880:
	.loc	3 734 20 is_stmt 1
	movq	%rcx, -24(%rbp)
Ltmp881:
	.loc	2 61 9
	movq	%rcx, -16(%rbp)
Ltmp882:
	.loc	3 734 33
	movq	%rax, -8(%rbp)
Ltmp883:
	.loc	4 118 36
	movq	%rcx, -160(%rbp)
	movq	%rax, -152(%rbp)
	.loc	4 118 14 is_stmt 0
	movq	-160(%rbp), %rcx
	movq	-152(%rbp), %rax
	movq	%rcx, -176(%rbp)
	movq	%rax, -168(%rbp)
	movq	-176(%rbp), %rax
	movq	-168(%rbp), %rdx
Ltmp884:
	.loc	37 2638 6 is_stmt 1
	addq	$184, %rsp
	popq	%rbp
	retq
Ltmp885:
Lfunc_end106:
	.cfi_endproc

	.globl	__ZN75_$LT$core..option..Option$LT$T$GT$$u20$as$u20$core..ops..try_trait..Try$GT$6branch17h223287977eb19b17E
	.p2align	4, 0x90
__ZN75_$LT$core..option..Option$LT$T$GT$$u20$as$u20$core..ops..try_trait..Try$GT$6branch17h223287977eb19b17E:
Lfunc_begin107:
	.loc	6 2406 0
	.cfi_startproc
	pushq	%rbp
	.cfi_def_cfa_offset 16
	.cfi_offset %rbp, -16
	movq	%rsp, %rbp
	.cfi_def_cfa_register %rbp
	subq	$24, %rsp
	movl	%edi, -24(%rbp)
	movl	%esi, -20(%rbp)
Ltmp886:
	.loc	6 2407 15 prologue_end
	movl	-24(%rbp), %eax
	.loc	6 2407 9 is_stmt 0
	cmpq	$0, %rax
	jne	LBB107_2
	.loc	6 2409 21 is_stmt 1
	movl	$1, -16(%rbp)
	.loc	6 2409 44 is_stmt 0
	jmp	LBB107_3
LBB107_2:
	.loc	6 2408 18 is_stmt 1
	movl	-20(%rbp), %eax
	movl	%eax, -4(%rbp)
Ltmp887:
	.loc	6 2408 24 is_stmt 0
	movl	%eax, -12(%rbp)
	movl	$0, -16(%rbp)
Ltmp888:
LBB107_3:
	.loc	6 2411 6 is_stmt 1
	movl	-16(%rbp), %eax
	movl	-12(%rbp), %edx
	addq	$24, %rsp
	popq	%rbp
	retq
Ltmp889:
Lfunc_end107:
	.cfi_endproc

	.globl	__ZN75_$LT$core..option..Option$LT$T$GT$$u20$as$u20$core..ops..try_trait..Try$GT$6branch17h53a3c787a0362764E
	.p2align	4, 0x90
__ZN75_$LT$core..option..Option$LT$T$GT$$u20$as$u20$core..ops..try_trait..Try$GT$6branch17h53a3c787a0362764E:
Lfunc_begin108:
	.loc	6 2406 0
	.cfi_startproc
	pushq	%rbp
	.cfi_def_cfa_offset 16
	.cfi_offset %rbp, -16
	movq	%rsp, %rbp
	.cfi_def_cfa_register %rbp
	subq	$24, %rsp
	movq	%rdi, -24(%rbp)
Ltmp890:
	.loc	6 2407 15 prologue_end
	movq	-24(%rbp), %rdx
	movl	$1, %eax
	xorl	%ecx, %ecx
	cmpq	$0, %rdx
	cmoveq	%rcx, %rax
	.loc	6 2407 9 is_stmt 0
	cmpq	$0, %rax
	jne	LBB108_2
	.loc	6 2409 21 is_stmt 1
	movq	$0, -16(%rbp)
	.loc	6 2409 44 is_stmt 0
	jmp	LBB108_3
LBB108_2:
	.loc	6 2408 18 is_stmt 1
	movq	-24(%rbp), %rax
	movq	%rax, -8(%rbp)
Ltmp891:
	.loc	6 2408 24 is_stmt 0
	movq	%rax, -16(%rbp)
Ltmp892:
LBB108_3:
	.loc	6 2411 6 is_stmt 1
	movq	-16(%rbp), %rax
	addq	$24, %rsp
	popq	%rbp
	retq
Ltmp893:
Lfunc_end108:
	.cfi_endproc

	.globl	__ZN75_$LT$usize$u20$as$u20$core..slice..index..SliceIndex$LT$$u5b$T$u5d$$GT$$GT$3get17h3039fbdc0d8969e1E
	.p2align	4, 0x90
__ZN75_$LT$usize$u20$as$u20$core..slice..index..SliceIndex$LT$$u5b$T$u5d$$GT$$GT$3get17h3039fbdc0d8969e1E:
Lfunc_begin109:
	.loc	1 217 0
	.cfi_startproc
	pushq	%rbp
	.cfi_def_cfa_offset 16
	.cfi_offset %rbp, -16
	movq	%rsp, %rbp
	.cfi_def_cfa_register %rbp
	subq	$136, %rsp
	movq	%rdi, -136(%rbp)
	movq	%rsi, -128(%rbp)
	movq	%rdx, -120(%rbp)
	movq	%rdi, -104(%rbp)
	movq	%rsi, -96(%rbp)
	movq	%rdx, -88(%rbp)
Ltmp894:
	.loc	1 219 12 prologue_end
	cmpq	%rdx, %rdi
	jb	LBB109_2
	.loc	1 219 87 is_stmt 0
	movq	$0, -112(%rbp)
	.loc	1 219 9
	jmp	LBB109_3
LBB109_2:
	.loc	1 0 9
	movq	-136(%rbp), %rcx
	movq	-128(%rbp), %rax
	movq	-120(%rbp), %rdx
	.loc	1 219 49
	movq	%rcx, -80(%rbp)
	.loc	1 219 68
	movq	%rax, -72(%rbp)
	movq	%rdx, -64(%rbp)
Ltmp895:
	.loc	1 240 13 is_stmt 1
	movq	%rax, -56(%rbp)
	movq	%rdx, -48(%rbp)
Ltmp896:
	.loc	2 1650 9
	movq	%rax, -40(%rbp)
Ltmp897:
	.loc	1 240 32
	movq	%rcx, -32(%rbp)
Ltmp898:
	.loc	2 932 18
	movq	%rax, -24(%rbp)
	.loc	2 932 30 is_stmt 0
	movq	%rcx, -16(%rbp)
Ltmp899:
	.loc	2 473 18 is_stmt 1
	addq	%rcx, %rax
	movq	%rax, -8(%rbp)
	movq	-8(%rbp), %rax
Ltmp900:
	.loc	1 219 42
	movq	%rax, -112(%rbp)
LBB109_3:
	.loc	1 220 6
	movq	-112(%rbp), %rax
	addq	$136, %rsp
	popq	%rbp
	retq
Ltmp901:
Lfunc_end109:
	.cfi_endproc

	.globl	__ZN77_$LT$alloc..raw_vec..RawVec$LT$T$C$A$GT$$u20$as$u20$core..ops..drop..Drop$GT$4drop17h098c0044af948dbbE
	.p2align	4, 0x90
__ZN77_$LT$alloc..raw_vec..RawVec$LT$T$C$A$GT$$u20$as$u20$core..ops..drop..Drop$GT$4drop17h098c0044af948dbbE:
Lfunc_begin110:
	.loc	38 477 0
	.cfi_startproc
	pushq	%rbp
	.cfi_def_cfa_offset 16
	.cfi_offset %rbp, -16
	movq	%rsp, %rbp
	.cfi_def_cfa_register %rbp
	subq	$64, %rsp
	movq	%rdi, %rsi
	movq	%rsi, -64(%rbp)
	movq	%rsi, -32(%rbp)
Ltmp902:
	.loc	38 478 38 prologue_end
	leaq	-56(%rbp), %rdi
	callq	__ZN5alloc7raw_vec19RawVec$LT$T$C$A$GT$14current_memory17h4268bc40db2186bdE
	.loc	38 478 16 is_stmt 0
	movl	$1, %eax
	xorl	%ecx, %ecx
	cmpq	$0, -40(%rbp)
	cmoveq	%rcx, %rax
	cmpq	$1, %rax
	jne	LBB110_2
	.loc	38 0 16
	movq	-64(%rbp), %rdi
	.loc	38 478 22
	movq	-56(%rbp), %rsi
	movq	%rsi, -24(%rbp)
	.loc	38 478 27
	movq	-48(%rbp), %rdx
	movq	-40(%rbp), %rcx
	movq	%rdx, -16(%rbp)
	movq	%rcx, -8(%rbp)
	.loc	38 479 22 is_stmt 1
	callq	__ZN63_$LT$alloc..alloc..Global$u20$as$u20$core..alloc..Allocator$GT$10deallocate17ha49b7fe964e6fc1cE
Ltmp903:
LBB110_2:
	.loc	38 481 6
	addq	$64, %rsp
	popq	%rbp
	retq
Ltmp904:
Lfunc_end110:
	.cfi_endproc

	.globl	__ZN79_$LT$core..result..Result$LT$T$C$E$GT$$u20$as$u20$core..ops..try_trait..Try$GT$6branch17ha2c5727ae39745c5E
	.p2align	4, 0x90
__ZN79_$LT$core..result..Result$LT$T$C$E$GT$$u20$as$u20$core..ops..try_trait..Try$GT$6branch17ha2c5727ae39745c5E:
Lfunc_begin111:
	.loc	11 2090 0
	.cfi_startproc
	pushq	%rbp
	.cfi_def_cfa_offset 16
	.cfi_offset %rbp, -16
	movq	%rsp, %rbp
	.cfi_def_cfa_register %rbp
	subq	$32, %rsp
	movb	%dil, %al
	andb	$1, %al
	movb	%al, -26(%rbp)
Ltmp905:
	.loc	11 2091 15 prologue_end
	movb	-26(%rbp), %al
	andb	$1, %al
	movzbl	%al, %eax
	.loc	11 2091 9 is_stmt 0
	cmpq	$0, %rax
	jne	LBB111_2
Ltmp906:
	.loc	11 2092 22 is_stmt 1
	movb	$0, -25(%rbp)
Ltmp907:
	.loc	11 2092 45 is_stmt 0
	jmp	LBB111_3
LBB111_2:
Ltmp908:
	.loc	11 2093 23 is_stmt 1
	movb	$1, -25(%rbp)
Ltmp909:
LBB111_3:
	.loc	11 2095 6
	movb	-25(%rbp), %al
	andb	$1, %al
	movzbl	%al, %eax
	addq	$32, %rsp
	popq	%rbp
	retq
Ltmp910:
Lfunc_end111:
	.cfi_endproc

	.globl	__ZN84_$LT$core..option..Option$LT$T$GT$$u20$as$u20$core..ops..try_trait..FromResidual$GT$13from_residual17hf26cba46352161a1E
	.p2align	4, 0x90
__ZN84_$LT$core..option..Option$LT$T$GT$$u20$as$u20$core..ops..try_trait..FromResidual$GT$13from_residual17hf26cba46352161a1E:
Lfunc_begin112:
	.loc	6 2418 0
	.cfi_startproc
	pushq	%rbp
	.cfi_def_cfa_offset 16
	.cfi_offset %rbp, -16
	movq	%rsp, %rbp
	.cfi_def_cfa_register %rbp
	subq	$16, %rsp
Ltmp911:
	.loc	6 2420 21 prologue_end
	movb	$0, -16(%rbp)
	.loc	6 2422 6
	movb	-16(%rbp), %al
	movb	-15(%rbp), %dl
	addq	$16, %rsp
	popq	%rbp
	retq
Ltmp912:
Lfunc_end112:
	.cfi_endproc

	.globl	__ZN91_$LT$core..slice..iter..Iter$LT$T$GT$$u20$as$u20$core..iter..traits..iterator..Iterator$GT$3any17ha9029a883195a4c3E
	.p2align	4, 0x90
__ZN91_$LT$core..slice..iter..Iter$LT$T$GT$$u20$as$u20$core..iter..traits..iterator..Iterator$GT$3any17ha9029a883195a4c3E:
Lfunc_begin113:
	.loc	34 226 0
	.cfi_startproc
	.cfi_personality 155, _rust_eh_personality
	.cfi_lsda 16, Lexception12
	pushq	%rbp
	.cfi_def_cfa_offset 16
	.cfi_offset %rbp, -16
	movq	%rsp, %rbp
	.cfi_def_cfa_register %rbp
	subq	$80, %rsp
	movq	%rdi, -64(%rbp)
	movq	%rdi, -32(%rbp)
LBB113_1:
Ltmp913:
	movq	-64(%rbp), %rdi
Ltmp918:
	.loc	34 231 37 prologue_end
	callq	__ZN91_$LT$core..slice..iter..Iter$LT$T$GT$$u20$as$u20$core..iter..traits..iterator..Iterator$GT$4next17h31666222c3d0f2eeE
Ltmp914:
	movq	%rax, -72(%rbp)
	jmp	LBB113_4
Ltmp919:
LBB113_2:
	.loc	34 226 13
	movq	-24(%rbp), %rdi
	callq	__Unwind_Resume
LBB113_3:
Ltmp917:
	.loc	34 0 13 is_stmt 0
	movq	%rax, %rcx
	movl	%edx, %eax
	movq	%rcx, -24(%rbp)
	movl	%eax, -16(%rbp)
	jmp	LBB113_2
LBB113_4:
	movq	-72(%rbp), %rax
Ltmp920:
	.loc	34 231 37 is_stmt 1
	movq	%rax, -48(%rbp)
	.loc	34 231 27 is_stmt 0
	movq	-48(%rbp), %rdx
	movl	$1, %eax
	xorl	%ecx, %ecx
	cmpq	$0, %rdx
	cmoveq	%rcx, %rax
	cmpq	$1, %rax
	jne	LBB113_6
	.loc	34 231 32
	movq	-48(%rbp), %rax
	movq	%rax, -8(%rbp)
	.loc	34 232 24 is_stmt 1
	movq	%rax, -40(%rbp)
	movq	-40(%rbp), %rsi
Ltmp915:
	leaq	-56(%rbp), %rdi
	callq	__ZN16percent_encoding13PercentDecode6if_any28_$u7b$$u7b$closure$u7d$$u7d$17hc166a2be2563153fE
Ltmp916:
	movb	%al, -73(%rbp)
	jmp	LBB113_8
Ltmp921:
LBB113_6:
	.loc	34 236 17
	movb	$0, -49(%rbp)
LBB113_7:
	.loc	34 237 14
	movb	-49(%rbp), %al
	andb	$1, %al
	movzbl	%al, %eax
	addq	$80, %rsp
	popq	%rbp
	retq
LBB113_8:
	.loc	34 0 14 is_stmt 0
	movb	-73(%rbp), %al
Ltmp922:
	.loc	34 232 24 is_stmt 1
	testb	$1, %al
	jne	LBB113_10
	jmp	LBB113_9
Ltmp923:
LBB113_9:
	.loc	34 231 17
	jmp	LBB113_1
LBB113_10:
Ltmp924:
	.loc	34 233 32
	movb	$1, -49(%rbp)
Ltmp925:
	.loc	34 237 13
	jmp	LBB113_7
Ltmp926:
Lfunc_end113:
	.cfi_endproc
	.section	__TEXT,__gcc_except_tab
	.p2align	2
GCC_except_table113:
Lexception12:
	.byte	255
	.byte	255
	.byte	1
	.uleb128 Lcst_end12-Lcst_begin12
Lcst_begin12:
	.uleb128 Ltmp913-Lfunc_begin113
	.uleb128 Ltmp914-Ltmp913
	.uleb128 Ltmp917-Lfunc_begin113
	.byte	0
	.uleb128 Ltmp914-Lfunc_begin113
	.uleb128 Ltmp915-Ltmp914
	.byte	0
	.byte	0
	.uleb128 Ltmp915-Lfunc_begin113
	.uleb128 Ltmp916-Ltmp915
	.uleb128 Ltmp917-Lfunc_begin113
	.byte	0
Lcst_end12:
	.p2align	2

	.section	__TEXT,__text,regular,pure_instructions
	.globl	__ZN91_$LT$core..slice..iter..Iter$LT$T$GT$$u20$as$u20$core..iter..traits..iterator..Iterator$GT$4next17h31666222c3d0f2eeE
	.p2align	4, 0x90
__ZN91_$LT$core..slice..iter..Iter$LT$T$GT$$u20$as$u20$core..iter..traits..iterator..Iterator$GT$4next17h31666222c3d0f2eeE:
Lfunc_begin114:
	.loc	34 124 0
	.cfi_startproc
	pushq	%rbp
	.cfi_def_cfa_offset 16
	.cfi_offset %rbp, -16
	movq	%rsp, %rbp
	.cfi_def_cfa_register %rbp
	subq	$304, %rsp
	movq	%rdi, -304(%rbp)
	movq	%rdi, -240(%rbp)
Ltmp927:
	.loc	34 132 29 prologue_end
	movq	8(%rdi), %rax
	movq	%rax, -224(%rbp)
Ltmp928:
	.loc	7 326 9
	movq	%rax, -216(%rbp)
Ltmp929:
	.loc	20 52 36
	movq	%rax, -280(%rbp)
	.loc	20 52 18 is_stmt 0
	movq	-280(%rbp), %rax
	movq	%rax, -208(%rbp)
Ltmp930:
	.loc	20 38 13 is_stmt 1
	movq	%rax, -200(%rbp)
Ltmp931:
	.loc	20 215 33
	movq	%rax, -192(%rbp)
	.loc	20 215 18 is_stmt 0
	movq	%rax, -184(%rbp)
Ltmp932:
	.loc	34 133 24 is_stmt 1
	movb	$1, %al
	testb	$1, %al
	jne	LBB114_2
LBB114_1:
	.loc	34 0 24 is_stmt 0
	movq	-304(%rbp), %rcx
	.loc	34 136 24 is_stmt 1
	movq	8(%rcx), %rax
	movq	%rax, -136(%rbp)
	cmpq	(%rcx), %rax
	je	LBB114_4
	jmp	LBB114_3
LBB114_2:
	.loc	34 0 24 is_stmt 0
	movq	-304(%rbp), %rax
	.loc	34 134 33 is_stmt 1
	movq	(%rax), %rax
	movq	%rax, -176(%rbp)
Ltmp933:
	.loc	2 53 36
	movq	%rax, -272(%rbp)
	.loc	2 53 18 is_stmt 0
	movq	-272(%rbp), %rax
	movq	%rax, -168(%rbp)
Ltmp934:
	.loc	2 39 13 is_stmt 1
	movq	%rax, -160(%rbp)
Ltmp935:
	.loc	2 209 33
	movq	%rax, -152(%rbp)
	.loc	2 209 18 is_stmt 0
	movq	%rax, -144(%rbp)
Ltmp936:
	.loc	34 133 21 is_stmt 1
	jmp	LBB114_1
LBB114_3:
	.loc	34 0 21 is_stmt 0
	movq	-304(%rbp), %rax
	.loc	34 139 30 is_stmt 1
	movq	%rax, -128(%rbp)
Ltmp937:
	.loc	34 76 20
	xorl	%eax, %eax
	testb	$1, %al
	jne	LBB114_6
	jmp	LBB114_7
Ltmp938:
LBB114_4:
	.loc	34 137 25
	movq	$0, -296(%rbp)
LBB114_5:
	.loc	34 142 14
	movq	-296(%rbp), %rax
	addq	$304, %rsp
	popq	%rbp
	retq
LBB114_6:
	.loc	34 0 14 is_stmt 0
	movq	-304(%rbp), %rax
Ltmp939:
	.loc	34 57 29 is_stmt 1
	movq	(%rax), %rcx
	movq	%rcx, -64(%rbp)
Ltmp940:
	.loc	2 1198 9
	movq	%rcx, -56(%rbp)
Ltmp941:
	.loc	2 61 9
	movq	%rcx, -48(%rbp)
Ltmp942:
	.loc	2 1180 9
	movq	%rcx, -40(%rbp)
Ltmp943:
	.loc	2 555 18
	addq	$-1, %rcx
	movq	%rcx, -32(%rbp)
	movq	-32(%rbp), %rcx
	movq	%rcx, -24(%rbp)
Ltmp944:
	.loc	2 100 29
	movq	%rcx, -16(%rbp)
Ltmp945:
	.loc	4 118 36
	movq	%rcx, -248(%rbp)
	.loc	4 118 14 is_stmt 0
	movq	-248(%rbp), %rcx
	movq	%rcx, -256(%rbp)
	movq	-256(%rbp), %rcx
Ltmp946:
	.loc	34 57 17 is_stmt 1
	movq	%rcx, (%rax)
	.loc	34 78 21
	movq	8(%rax), %rax
	movq	%rax, -8(%rbp)
	movq	%rax, -288(%rbp)
	.loc	34 76 17
	jmp	LBB114_8
LBB114_7:
	.loc	34 0 17 is_stmt 0
	movq	-304(%rbp), %rcx
	.loc	34 80 31 is_stmt 1
	movq	8(%rcx), %rax
	movq	%rax, -120(%rbp)
Ltmp947:
	.loc	7 326 9
	movq	%rax, -112(%rbp)
Ltmp948:
	.loc	34 83 64
	movq	8(%rcx), %rdx
	movq	%rdx, -104(%rbp)
Ltmp949:
	.loc	7 326 9
	movq	%rdx, -96(%rbp)
Ltmp950:
	.loc	20 1034 18
	movq	%rdx, -88(%rbp)
Ltmp951:
	.loc	20 487 18
	addq	$1, %rdx
	movq	%rdx, -80(%rbp)
	movq	-80(%rbp), %rdx
	movq	%rdx, -72(%rbp)
Ltmp952:
	.loc	7 201 13
	movq	%rdx, -264(%rbp)
Ltmp953:
	.loc	34 83 21
	movq	-264(%rbp), %rdx
	movq	%rdx, 8(%rcx)
	.loc	34 84 21
	movq	%rax, -288(%rbp)
Ltmp954:
LBB114_8:
	.loc	34 139 30
	movq	-288(%rbp), %rax
	.loc	34 139 25 is_stmt 0
	movq	%rax, -296(%rbp)
	.loc	34 136 21 is_stmt 1
	jmp	LBB114_5
Ltmp955:
Lfunc_end114:
	.cfi_endproc

	.globl	__ZN92_$LT$alloc..string..String$u20$as$u20$core..iter..traits..collect..Extend$LT$$RF$str$GT$$GT$6extend17h753fcb1bc3a870c3E
	.p2align	4, 0x90
__ZN92_$LT$alloc..string..String$u20$as$u20$core..iter..traits..collect..Extend$LT$$RF$str$GT$$GT$6extend17h753fcb1bc3a870c3E:
Lfunc_begin115:
	.loc	41 2121 0
	.cfi_startproc
	pushq	%rbp
	.cfi_def_cfa_offset 16
	.cfi_offset %rbp, -16
	movq	%rsp, %rbp
	.cfi_def_cfa_register %rbp
	subq	$80, %rsp
	movq	%rdi, -72(%rbp)
	movq	%rdi, -8(%rbp)
Ltmp956:
	.loc	41 2122 9 prologue_end
	movq	(%rsi), %rax
	movq	%rax, -40(%rbp)
	movq	8(%rsi), %rax
	movq	%rax, -32(%rbp)
	movq	16(%rsi), %rax
	movq	%rax, -24(%rbp)
	leaq	-64(%rbp), %rdi
	leaq	-40(%rbp), %rsi
Ltmp957:
	callq	__ZN63_$LT$I$u20$as$u20$core..iter..traits..collect..IntoIterator$GT$9into_iter17h3837433efa213673E
	movq	-72(%rbp), %rdi
	.loc	41 2122 35 is_stmt 0
	movq	%rdi, -16(%rbp)
	.loc	41 2122 9
	movq	-16(%rbp), %rsi
	leaq	-64(%rbp), %rdi
	callq	__ZN4core4iter6traits8iterator8Iterator8for_each17h9a9f12a479900ffcE
	.loc	41 2123 6 is_stmt 1
	addq	$80, %rsp
	popq	%rbp
	retq
Ltmp958:
Lfunc_end115:
	.cfi_endproc

	.globl	__ZN92_$LT$alloc..string..String$u20$as$u20$core..iter..traits..collect..Extend$LT$$RF$str$GT$$GT$6extend28_$u7b$$u7b$closure$u7d$$u7d$17h6737c0ca4df54b2cE
	.p2align	4, 0x90
__ZN92_$LT$alloc..string..String$u20$as$u20$core..iter..traits..collect..Extend$LT$$RF$str$GT$$GT$6extend28_$u7b$$u7b$closure$u7d$$u7d$17h6737c0ca4df54b2cE:
Lfunc_begin116:
	.loc	41 2122 0
	.cfi_startproc
	pushq	%rbp
	.cfi_def_cfa_offset 16
	.cfi_offset %rbp, -16
	movq	%rsp, %rbp
	.cfi_def_cfa_register %rbp
	subq	$80, %rsp
	movq	%rdi, -80(%rbp)
	movq	%rsi, -72(%rbp)
	movq	%rdx, -64(%rbp)
Ltmp959:
	.loc	41 2122 44 prologue_end
	movq	(%rdi), %rdi
	movq	%rdi, -56(%rbp)
	.loc	41 2122 58 is_stmt 0
	movq	%rsi, -48(%rbp)
	movq	%rdx, -40(%rbp)
Ltmp960:
	.loc	41 926 36 is_stmt 1
	movq	%rsi, -32(%rbp)
	movq	%rdx, -24(%rbp)
Ltmp961:
	.loc	22 327 18
	movq	%rsi, -16(%rbp)
	movq	%rdx, -8(%rbp)
	movq	-16(%rbp), %rsi
	movq	-8(%rbp), %rdx
Ltmp962:
	.loc	41 926 9
	callq	__ZN5alloc3vec16Vec$LT$T$C$A$GT$17extend_from_slice17haa8f2ee62292ceaaE
Ltmp963:
	.loc	41 2122 60
	addq	$80, %rsp
	popq	%rbp
	retq
Ltmp964:
Lfunc_end116:
	.cfi_endproc

	.globl	__ZN93_$LT$alloc..vec..Vec$LT$T$C$A$GT$$u20$as$u20$core..iter..traits..collect..Extend$LT$T$GT$$GT$6extend17h0e40c611d9f220cfE
	.p2align	4, 0x90
__ZN93_$LT$alloc..vec..Vec$LT$T$C$A$GT$$u20$as$u20$core..iter..traits..collect..Extend$LT$T$GT$$GT$6extend17h0e40c611d9f220cfE:
Lfunc_begin117:
	.loc	37 2826 0
	.cfi_startproc
	pushq	%rbp
	.cfi_def_cfa_offset 16
	.cfi_offset %rbp, -16
	movq	%rsp, %rbp
	.cfi_def_cfa_register %rbp
	subq	$48, %rsp
	movq	%rdx, -48(%rbp)
	movq	%rsi, %rax
	movq	-48(%rbp), %rsi
	movq	%rax, -40(%rbp)
	movq	%rdi, %rax
	movq	-40(%rbp), %rdi
	movq	%rax, -32(%rbp)
	movq	%rax, -24(%rbp)
	movq	%rdi, -16(%rbp)
	movq	%rsi, -8(%rbp)
Ltmp965:
	.loc	37 2827 65 prologue_end
	callq	__ZN63_$LT$I$u20$as$u20$core..iter..traits..collect..IntoIterator$GT$9into_iter17h74406491126492baE
	movq	-32(%rbp), %rdi
	movq	%rax, %rsi
	.loc	37 2827 9 is_stmt 0
	callq	__ZN97_$LT$alloc..vec..Vec$LT$T$C$A$GT$$u20$as$u20$alloc..vec..spec_extend..SpecExtend$LT$T$C$I$GT$$GT$11spec_extend17hb952d8ead8340036E
	.loc	37 2828 6 is_stmt 1
	addq	$48, %rsp
	popq	%rbp
	retq
Ltmp966:
Lfunc_end117:
	.cfi_endproc

	.globl	__ZN97_$LT$alloc..vec..Vec$LT$T$C$A$GT$$u20$as$u20$alloc..vec..spec_extend..SpecExtend$LT$T$C$I$GT$$GT$11spec_extend17hb952d8ead8340036E
	.p2align	4, 0x90
__ZN97_$LT$alloc..vec..Vec$LT$T$C$A$GT$$u20$as$u20$alloc..vec..spec_extend..SpecExtend$LT$T$C$I$GT$$GT$11spec_extend17hb952d8ead8340036E:
Lfunc_begin118:
	.loc	10 16 0
	.cfi_startproc
	pushq	%rbp
	.cfi_def_cfa_offset 16
	.cfi_offset %rbp, -16
	movq	%rsp, %rbp
	.cfi_def_cfa_register %rbp
	subq	$32, %rsp
	movq	%rdi, -24(%rbp)
	movq	%rsi, -16(%rbp)
	movq	%rdx, -8(%rbp)
Ltmp967:
	.loc	10 17 9 prologue_end
	callq	__ZN5alloc3vec16Vec$LT$T$C$A$GT$16extend_desugared17hb973a0d8d97310e9E
	.loc	10 18 6
	addq	$32, %rsp
	popq	%rbp
	retq
Ltmp968:
Lfunc_end118:
	.cfi_endproc

	.globl	__ZN97_$LT$core..ops..range..RangeFull$u20$as$u20$core..slice..index..SliceIndex$LT$$u5b$T$u5d$$GT$$GT$5index17h72fc98fcc13f5d57E
	.p2align	4, 0x90
__ZN97_$LT$core..ops..range..RangeFull$u20$as$u20$core..slice..index..SliceIndex$LT$$u5b$T$u5d$$GT$$GT$5index17h72fc98fcc13f5d57E:
Lfunc_begin119:
	.loc	1 537 0
	.cfi_startproc
	pushq	%rbp
	.cfi_def_cfa_offset 16
	.cfi_offset %rbp, -16
	movq	%rsp, %rbp
	.cfi_def_cfa_register %rbp
	subq	$24, %rsp
	movq	%rdx, %rcx
	movq	%rsi, %rdx
	movq	%rdi, %rax
	movq	%rax, -16(%rbp)
	movq	%rdx, -8(%rbp)
Ltmp969:
	.loc	1 539 6 prologue_end
	addq	$24, %rsp
	popq	%rbp
	retq
Ltmp970:
Lfunc_end119:
	.cfi_endproc

	.p2align	4, 0x90
__ZN16percent_encoding8AsciiSet8contains17h027787c7c307570cE:
Lfunc_begin120:
	.loc	43 78 0
	.cfi_startproc
	pushq	%rbp
	.cfi_def_cfa_offset 16
	.cfi_offset %rbp, -16
	movq	%rsp, %rbp
	.cfi_def_cfa_register %rbp
	subq	$64, %rsp
	movq	%rdi, -48(%rbp)
	movb	%sil, %al
	movb	%al, -33(%rbp)
	movq	%rdi, -24(%rbp)
	movb	%al, -9(%rbp)
Ltmp971:
	.loc	43 79 31 prologue_end
	movzbl	%al, %eax
	shrq	$5, %rax
	movq	%rax, -32(%rbp)
	.loc	43 79 21 is_stmt 0
	cmpq	$4, %rax
	setb	%al
	testb	$1, %al
	jne	LBB120_1
	jmp	LBB120_2
LBB120_1:
	.loc	43 0 21
	movb	-33(%rbp), %al
	movq	-48(%rbp), %rcx
	movq	-32(%rbp), %rdx
	.loc	43 79 21
	movl	(%rcx,%rdx,4), %ecx
	movl	%ecx, -56(%rbp)
	movl	%ecx, -8(%rbp)
Ltmp972:
	.loc	43 80 26 is_stmt 1
	movzbl	%al, %eax
	movl	%eax, %ecx
	.loc	43 80 25 is_stmt 0
	andq	$31, %rcx
	.loc	43 80 20
	movq	%rcx, %rax
	andq	$-32, %rax
	cmpq	$0, %rax
	setne	%al
	andl	$31, %ecx
	movl	$1, %edx
	shll	%cl, %edx
	movl	%edx, -52(%rbp)
	testb	$1, %al
	jne	LBB120_4
	jmp	LBB120_3
Ltmp973:
LBB120_2:
	.loc	43 0 20
	movq	-32(%rbp), %rdi
	.loc	43 79 21 is_stmt 1
	leaq	l___unnamed_16(%rip), %rdx
	movl	$4, %esi
	callq	__ZN4core9panicking18panic_bounds_check17hacb8a94866cda541E
LBB120_3:
	.loc	43 0 21 is_stmt 0
	movl	-52(%rbp), %ecx
	movl	-56(%rbp), %eax
Ltmp974:
	.loc	43 80 20 is_stmt 1
	movl	%ecx, -4(%rbp)
Ltmp975:
	.loc	43 81 9
	andl	%ecx, %eax
	cmpl	$0, %eax
	setne	%al
Ltmp976:
	.loc	43 82 6
	andb	$1, %al
	movzbl	%al, %eax
	addq	$64, %rsp
	popq	%rbp
	retq
LBB120_4:
Ltmp977:
	.loc	43 80 20
	leaq	_str.2(%rip), %rdi
	leaq	l___unnamed_17(%rip), %rdx
	movl	$35, %esi
	callq	__ZN4core9panicking5panic17hc1bc45270cf64b03E
Ltmp978:
Lfunc_end120:
	.cfi_endproc

	.p2align	4, 0x90
__ZN16percent_encoding8AsciiSet21should_percent_encode17h438858331b09dbcaE:
Lfunc_begin121:
	.loc	43 84 0
	.cfi_startproc
	pushq	%rbp
	.cfi_def_cfa_offset 16
	.cfi_offset %rbp, -16
	movq	%rsp, %rbp
	.cfi_def_cfa_register %rbp
	subq	$32, %rsp
	movq	%rdi, -24(%rbp)
	movb	%sil, %al
	movb	%al, -10(%rbp)
	movq	%rdi, -8(%rbp)
Ltmp979:
	.loc	43 85 10 prologue_end
	leaq	-10(%rbp), %rdi
	callq	__ZN4core3num20_$LT$impl$u20$u8$GT$8is_ascii17h9b640de70e479f25E
	.loc	43 85 9 is_stmt 0
	xorb	$-1, %al
	testb	$1, %al
	jne	LBB121_2
	.loc	43 0 9
	movq	-24(%rbp), %rdi
	.loc	43 85 29
	movzbl	-10(%rbp), %esi
	callq	__ZN16percent_encoding8AsciiSet8contains17h027787c7c307570cE
	.loc	43 85 9
	andb	$1, %al
	movb	%al, -9(%rbp)
	jmp	LBB121_3
LBB121_2:
	movb	$1, -9(%rbp)
LBB121_3:
	.loc	43 86 6 is_stmt 1
	movb	-9(%rbp), %al
	andb	$1, %al
	movzbl	%al, %eax
	addq	$32, %rsp
	popq	%rbp
	retq
Ltmp980:
Lfunc_end121:
	.cfi_endproc

	.globl	__ZN16percent_encoding8AsciiSet3add17haf4610c73868d19fE
	.p2align	4, 0x90
__ZN16percent_encoding8AsciiSet3add17haf4610c73868d19fE:
Lfunc_begin122:
	.loc	43 88 0
	.cfi_startproc
	pushq	%rbp
	.cfi_def_cfa_offset 16
	.cfi_offset %rbp, -16
	movq	%rsp, %rbp
	.cfi_def_cfa_register %rbp
	subq	$96, %rsp
	movq	%rdi, -80(%rbp)
	movb	%dl, %al
	movb	%al, -65(%rbp)
	movq	%rdi, -64(%rbp)
	movq	%rsi, -16(%rbp)
	movb	%al, -1(%rbp)
Ltmp981:
	.loc	43 89 24 prologue_end
	movq	(%rsi), %rcx
	movq	%rcx, -48(%rbp)
	movq	8(%rsi), %rcx
	movq	%rcx, -40(%rbp)
Ltmp982:
	.loc	43 90 55
	movzbl	%al, %eax
	movl	%eax, %ecx
	.loc	43 90 54 is_stmt 0
	andq	$31, %rcx
	.loc	43 90 49
	movq	%rcx, %rax
	andq	$-32, %rax
	cmpq	$0, %rax
	setne	%al
	andl	$31, %ecx
	movl	$1, %edx
	shll	%cl, %edx
	movl	%edx, -52(%rbp)
	testb	$1, %al
	jne	LBB122_2
	.loc	43 0 49
	movb	-65(%rbp), %al
	.loc	43 90 14
	movzbl	%al, %eax
	shrq	$5, %rax
	movq	%rax, -88(%rbp)
	.loc	43 90 9
	cmpq	$4, %rax
	setb	%al
	testb	$1, %al
	jne	LBB122_3
	jmp	LBB122_4
LBB122_2:
	.loc	43 90 49
	leaq	_str.2(%rip), %rdi
	leaq	l___unnamed_18(%rip), %rdx
	movl	$35, %esi
	callq	__ZN4core9panicking5panic17hc1bc45270cf64b03E
LBB122_3:
	.loc	43 0 49
	movq	-64(%rbp), %rax
	movq	-80(%rbp), %rcx
	movq	-88(%rbp), %rdx
	movl	-52(%rbp), %esi
	.loc	43 90 9
	orl	-48(%rbp,%rdx,4), %esi
	movl	%esi, -48(%rbp,%rdx,4)
	.loc	43 91 20 is_stmt 1
	movq	-48(%rbp), %rdx
	movq	%rdx, -32(%rbp)
	movq	-40(%rbp), %rdx
	movq	%rdx, -24(%rbp)
	.loc	43 91 9 is_stmt 0
	movq	-32(%rbp), %rdx
	movq	%rdx, (%rcx)
	movq	-24(%rbp), %rdx
	movq	%rdx, 8(%rcx)
Ltmp983:
	.loc	43 92 6 is_stmt 1
	addq	$96, %rsp
	popq	%rbp
	retq
LBB122_4:
	.loc	43 0 6 is_stmt 0
	movq	-88(%rbp), %rdi
Ltmp984:
	.loc	43 90 9 is_stmt 1
	leaq	l___unnamed_19(%rip), %rdx
	movl	$4, %esi
	callq	__ZN4core9panicking18panic_bounds_check17hacb8a94866cda541E
Ltmp985:
Lfunc_end122:
	.cfi_endproc

	.globl	__ZN16percent_encoding8AsciiSet6remove17h5306fff7d1e40692E
	.p2align	4, 0x90
__ZN16percent_encoding8AsciiSet6remove17h5306fff7d1e40692E:
Lfunc_begin123:
	.loc	43 94 0
	.cfi_startproc
	pushq	%rbp
	.cfi_def_cfa_offset 16
	.cfi_offset %rbp, -16
	movq	%rsp, %rbp
	.cfi_def_cfa_register %rbp
	subq	$96, %rsp
	movq	%rdi, -80(%rbp)
	movb	%dl, %al
	movb	%al, -65(%rbp)
	movq	%rdi, -64(%rbp)
	movq	%rsi, -16(%rbp)
	movb	%al, -1(%rbp)
Ltmp986:
	.loc	43 95 24 prologue_end
	movq	(%rsi), %rcx
	movq	%rcx, -48(%rbp)
	movq	8(%rsi), %rcx
	movq	%rcx, -40(%rbp)
Ltmp987:
	.loc	43 96 57
	movzbl	%al, %eax
	movl	%eax, %ecx
	.loc	43 96 56 is_stmt 0
	andq	$31, %rcx
	.loc	43 96 50
	movq	%rcx, %rax
	andq	$-32, %rax
	cmpq	$0, %rax
	setne	%al
	andl	$31, %ecx
	movl	$1, %edx
	shll	%cl, %edx
	movl	%edx, -52(%rbp)
	testb	$1, %al
	jne	LBB123_2
	.loc	43 0 50
	movb	-65(%rbp), %al
	movl	-52(%rbp), %ecx
	.loc	43 96 49
	xorl	$-1, %ecx
	movl	%ecx, -92(%rbp)
	.loc	43 96 14
	movzbl	%al, %eax
	shrq	$5, %rax
	movq	%rax, -88(%rbp)
	.loc	43 96 9
	cmpq	$4, %rax
	setb	%al
	testb	$1, %al
	jne	LBB123_3
	jmp	LBB123_4
LBB123_2:
	.loc	43 96 50
	leaq	_str.2(%rip), %rdi
	leaq	l___unnamed_20(%rip), %rdx
	movl	$35, %esi
	callq	__ZN4core9panicking5panic17hc1bc45270cf64b03E
LBB123_3:
	.loc	43 0 50
	movq	-64(%rbp), %rax
	movq	-80(%rbp), %rcx
	movq	-88(%rbp), %rdx
	movl	-92(%rbp), %esi
	.loc	43 96 9
	andl	-48(%rbp,%rdx,4), %esi
	movl	%esi, -48(%rbp,%rdx,4)
	.loc	43 97 20 is_stmt 1
	movq	-48(%rbp), %rdx
	movq	%rdx, -32(%rbp)
	movq	-40(%rbp), %rdx
	movq	%rdx, -24(%rbp)
	.loc	43 97 9 is_stmt 0
	movq	-32(%rbp), %rdx
	movq	%rdx, (%rcx)
	movq	-24(%rbp), %rdx
	movq	%rdx, 8(%rcx)
Ltmp988:
	.loc	43 98 6 is_stmt 1
	addq	$96, %rsp
	popq	%rbp
	retq
LBB123_4:
	.loc	43 0 6 is_stmt 0
	movq	-88(%rbp), %rdi
Ltmp989:
	.loc	43 96 9 is_stmt 1
	leaq	l___unnamed_21(%rip), %rdx
	movl	$4, %esi
	callq	__ZN4core9panicking18panic_bounds_check17hacb8a94866cda541E
Ltmp990:
Lfunc_end123:
	.cfi_endproc

	.globl	__ZN16percent_encoding19percent_encode_byte17h45ffa065ce18242aE
	.p2align	4, 0x90
__ZN16percent_encoding19percent_encode_byte17h45ffa065ce18242aE:
Lfunc_begin124:
	.loc	43 183 0
	.cfi_startproc
	pushq	%rbp
	.cfi_def_cfa_offset 16
	.cfi_offset %rbp, -16
	movq	%rsp, %rbp
	.cfi_def_cfa_register %rbp
	subq	$64, %rsp
	movb	%dil, %al
	movb	%al, -17(%rbp)
	movb	%al, -1(%rbp)
Ltmp991:
	.file	45 "/rustc/2c8cc343237b8f7d5a3c3703e3a87f2eb2c54a74/library/core/src/convert" "num.rs"
	.loc	45 54 17 prologue_end
	movzbl	%al, %eax
Ltmp992:
	.loc	43 184 17
	movl	$3, %ecx
	mulq	%rcx
	movq	%rax, -48(%rbp)
	seto	%al
	testb	$1, %al
	jne	LBB124_2
	.loc	43 0 17 is_stmt 0
	movq	-48(%rbp), %rax
	.loc	43 184 17
	movq	%rax, -16(%rbp)
Ltmp993:
	.loc	43 202 16 is_stmt 1
	addq	$3, %rax
	movq	%rax, -56(%rbp)
	setb	%al
	testb	$1, %al
	jne	LBB124_4
	jmp	LBB124_3
Ltmp994:
LBB124_2:
	.loc	43 184 17
	leaq	_str.3(%rip), %rdi
	leaq	l___unnamed_22(%rip), %rdx
	movl	$33, %esi
	callq	__ZN4core9panicking5panic17hc1bc45270cf64b03E
LBB124_3:
	.loc	43 0 17 is_stmt 0
	movq	-56(%rbp), %rax
	movq	-48(%rbp), %rcx
Ltmp995:
	.loc	43 202 9 is_stmt 1
	movq	%rcx, -40(%rbp)
	movq	%rax, -32(%rbp)
	.loc	43 185 6
	movq	-40(%rbp), %rdx
	movq	-32(%rbp), %rcx
	leaq	l___unnamed_23(%rip), %rdi
	leaq	l___unnamed_24(%rip), %r8
	movl	$768, %esi
	callq	__ZN4core3str6traits66_$LT$impl$u20$core..ops..index..Index$LT$I$GT$$u20$for$u20$str$GT$5index17h4f3c22bb3cafc430E
Ltmp996:
	.loc	43 203 2
	addq	$64, %rsp
	popq	%rbp
	retq
LBB124_4:
Ltmp997:
	.loc	43 202 16
	leaq	_str.0(%rip), %rdi
	leaq	l___unnamed_25(%rip), %rdx
	movl	$28, %esi
	callq	__ZN4core9panicking5panic17hc1bc45270cf64b03E
Ltmp998:
Lfunc_end124:
	.cfi_endproc

	.globl	__ZN90_$LT$percent_encoding..PercentEncode$u20$as$u20$core..iter..traits..iterator..Iterator$GT$4next17h5f729b47186a048eE
	.p2align	4, 0x90
__ZN90_$LT$percent_encoding..PercentEncode$u20$as$u20$core..iter..traits..iterator..Iterator$GT$4next17h5f729b47186a048eE:
Lfunc_begin125:
	.loc	43 256 0
	.cfi_startproc
	pushq	%rbp
	.cfi_def_cfa_offset 16
	.cfi_offset %rbp, -16
	movq	%rsp, %rbp
	.cfi_def_cfa_register %rbp
	subq	$336, %rsp
	movq	%rdi, -264(%rbp)
	movq	%rdi, -96(%rbp)
Ltmp999:
	.loc	43 257 49 prologue_end
	movq	(%rdi), %rsi
	movq	8(%rdi), %rdx
	leaq	-240(%rbp), %rdi
	callq	__ZN4core5slice29_$LT$impl$u20$$u5b$T$u5d$$GT$11split_first17h43a60c7175bc96fbE
	.loc	43 257 16 is_stmt 0
	movq	-240(%rbp), %rdx
	movl	$1, %eax
	xorl	%ecx, %ecx
	cmpq	$0, %rdx
	cmoveq	%rcx, %rax
	cmpq	$1, %rax
	jne	LBB125_2
	.loc	43 0 16
	movq	-264(%rbp), %rcx
	.loc	43 257 23
	movq	-240(%rbp), %rax
	movb	(%rax), %al
	movb	%al, -281(%rbp)
	movb	%al, -81(%rbp)
	.loc	43 257 35
	movq	-232(%rbp), %rsi
	movq	%rsi, -280(%rbp)
	movq	-224(%rbp), %rdx
	movq	%rdx, -272(%rbp)
	movq	%rsi, -80(%rbp)
	movq	%rdx, -72(%rbp)
	.loc	43 258 16 is_stmt 1
	movq	16(%rcx), %rdi
	movzbl	%al, %esi
	callq	__ZN16percent_encoding8AsciiSet21should_percent_encode17h438858331b09dbcaE
	testb	$1, %al
	jne	LBB125_5
	jmp	LBB125_4
Ltmp1000:
LBB125_2:
	.loc	43 277 13
	movq	$0, -256(%rbp)
LBB125_3:
	.loc	43 279 6
	movq	-256(%rbp), %rax
	movq	-248(%rbp), %rdx
	addq	$336, %rsp
	popq	%rbp
	retq
LBB125_4:
	.loc	43 0 6 is_stmt 0
	movq	-272(%rbp), %rsi
	movq	-280(%rbp), %rdi
Ltmp1001:
	.loc	43 264 35 is_stmt 1
	callq	__ZN4core5slice29_$LT$impl$u20$$u5b$T$u5d$$GT$4iter17h1373bfcc6c1ed715E
	movq	%rax, %rsi
	leaq	-192(%rbp), %rdi
	callq	__ZN4core4iter6traits8iterator8Iterator9enumerate17hd4c6f2bf2550ae79E
	leaq	-216(%rbp), %rdi
	leaq	-192(%rbp), %rsi
	callq	__ZN63_$LT$I$u20$as$u20$core..iter..traits..collect..IntoIterator$GT$9into_iter17hd1c8e532b9695965E
	movq	-216(%rbp), %rax
	movq	%rax, -168(%rbp)
	movq	-208(%rbp), %rax
	movq	%rax, -160(%rbp)
	movq	-200(%rbp), %rax
	movq	%rax, -152(%rbp)
Ltmp1002:
	.loc	43 264 17 is_stmt 0
	jmp	LBB125_6
Ltmp1003:
LBB125_5:
	.loc	43 0 17
	movb	-281(%rbp), %al
	movq	-264(%rbp), %rcx
	movq	-272(%rbp), %rdx
	movq	-280(%rbp), %rsi
	.loc	43 259 17 is_stmt 1
	movq	%rsi, (%rcx)
	movq	%rdx, 8(%rcx)
	.loc	43 260 22
	movzbl	%al, %edi
	callq	__ZN16percent_encoding19percent_encode_byte17h45ffa065ce18242aE
	.loc	43 260 17 is_stmt 0
	movq	%rax, -256(%rbp)
	movq	%rdx, -248(%rbp)
	.loc	43 258 13 is_stmt 1
	jmp	LBB125_3
LBB125_6:
	.loc	43 0 13 is_stmt 0
	leaq	-168(%rbp), %rdi
Ltmp1004:
	.loc	43 264 35 is_stmt 1
	callq	__ZN110_$LT$core..iter..adapters..enumerate..Enumerate$LT$I$GT$$u20$as$u20$core..iter..traits..iterator..Iterator$GT$4next17hf3e83e2c7850454bE
	movq	%rdx, -136(%rbp)
	movq	%rax, -144(%rbp)
	movq	-136(%rbp), %rdx
	movl	$1, %eax
	xorl	%ecx, %ecx
	cmpq	$0, %rdx
	cmoveq	%rcx, %rax
	cmpq	$0, %rax
	jne	LBB125_8
Ltmp1005:
	.loc	43 0 35 is_stmt 0
	movq	-264(%rbp), %rax
	.loc	43 272 39 is_stmt 1
	movq	(%rax), %rcx
	movq	%rcx, -304(%rbp)
	movq	8(%rax), %rax
	movq	%rax, -296(%rbp)
	movq	%rcx, -16(%rbp)
	movq	%rax, -8(%rbp)
Ltmp1006:
	.loc	43 273 31
	leaq	l___unnamed_6(%rip), %rdi
	leaq	l___unnamed_26(%rip), %rsi
	callq	__ZN4core5array85_$LT$impl$u20$core..ops..index..Index$LT$I$GT$$u20$for$u20$$u5b$T$u3b$$u20$N$u5d$$GT$5index17hb401778b1f09aa78E
	movq	-304(%rbp), %rdi
	movq	-296(%rbp), %rsi
	movq	%rax, %rcx
	movq	-264(%rbp), %rax
	.loc	43 273 17 is_stmt 0
	movq	%rcx, (%rax)
	movq	%rdx, 8(%rax)
	.loc	43 274 31 is_stmt 1
	callq	__ZN4core3str8converts19from_utf8_unchecked17hd7853bb7e23e58e3E
	.loc	43 274 17 is_stmt 0
	movq	%rax, -256(%rbp)
	movq	%rdx, -248(%rbp)
Ltmp1007:
	.loc	43 258 13 is_stmt 1
	jmp	LBB125_3
LBB125_8:
	.loc	43 0 13 is_stmt 0
	movq	-264(%rbp), %rcx
Ltmp1008:
	.loc	43 264 26 is_stmt 1
	movq	-136(%rbp), %rax
	movb	(%rax), %al
	movb	%al, -57(%rbp)
	.loc	43 264 22 is_stmt 0
	movq	-144(%rbp), %rdx
	movq	%rdx, -312(%rbp)
	movq	%rdx, -56(%rbp)
Ltmp1009:
	.loc	43 265 24 is_stmt 1
	movq	16(%rcx), %rdi
	movzbl	%al, %esi
	callq	__ZN16percent_encoding8AsciiSet21should_percent_encode17h438858331b09dbcaE
	testb	$1, %al
	jne	LBB125_9
	jmp	LBB125_6
LBB125_9:
	.loc	43 0 24 is_stmt 0
	movq	-312(%rbp), %rax
	movq	-264(%rbp), %rcx
	.loc	43 267 60 is_stmt 1
	movq	(%rcx), %rdx
	movq	%rdx, -336(%rbp)
	movq	8(%rcx), %rcx
	movq	%rcx, -328(%rbp)
	.loc	43 267 80 is_stmt 0
	addq	$1, %rax
	movq	%rax, -320(%rbp)
	setb	%al
	testb	$1, %al
	jne	LBB125_11
	.loc	43 0 80
	movq	-320(%rbp), %rcx
	movq	-328(%rbp), %rdx
	movq	-336(%rbp), %rsi
	.loc	43 267 60
	leaq	-128(%rbp), %rdi
	leaq	l___unnamed_27(%rip), %r8
	callq	__ZN4core5slice29_$LT$impl$u20$$u5b$T$u5d$$GT$8split_at17h5f55f17495745eb8E
	movq	-264(%rbp), %rax
	.loc	43 267 30
	movq	-128(%rbp), %rdi
	movq	-120(%rbp), %rsi
	movq	%rdi, -48(%rbp)
	movq	%rsi, -40(%rbp)
	.loc	43 267 47
	movq	-112(%rbp), %rdx
	movq	-104(%rbp), %rcx
	movq	%rdx, -32(%rbp)
	movq	%rcx, -24(%rbp)
Ltmp1010:
	.loc	43 268 25 is_stmt 1
	movq	%rdx, (%rax)
	movq	%rcx, 8(%rax)
	.loc	43 269 46
	callq	__ZN4core3str8converts19from_utf8_unchecked17hd7853bb7e23e58e3E
	.loc	43 269 32 is_stmt 0
	movq	%rax, -256(%rbp)
	movq	%rdx, -248(%rbp)
Ltmp1011:
	.loc	43 279 6 is_stmt 1
	jmp	LBB125_3
LBB125_11:
Ltmp1012:
	.loc	43 267 80
	leaq	_str.0(%rip), %rdi
	leaq	l___unnamed_28(%rip), %rdx
	movl	$28, %esi
	callq	__ZN4core9panicking5panic17hc1bc45270cf64b03E
Ltmp1013:
Lfunc_end125:
	.cfi_endproc

	.globl	__ZN90_$LT$percent_encoding..PercentEncode$u20$as$u20$core..iter..traits..iterator..Iterator$GT$9size_hint17h5240707aee54aac8E
	.p2align	4, 0x90
__ZN90_$LT$percent_encoding..PercentEncode$u20$as$u20$core..iter..traits..iterator..Iterator$GT$9size_hint17h5240707aee54aac8E:
Lfunc_begin126:
	.loc	43 281 0
	.cfi_startproc
	pushq	%rbp
	.cfi_def_cfa_offset 16
	.cfi_offset %rbp, -16
	movq	%rsp, %rbp
	.cfi_def_cfa_register %rbp
	subq	$64, %rsp
	movq	%rsi, -64(%rbp)
	movq	%rdi, -56(%rbp)
	movq	%rdi, -48(%rbp)
	movq	%rsi, -8(%rbp)
Ltmp1014:
	.loc	43 282 12 prologue_end
	movq	(%rsi), %rdi
	movq	8(%rsi), %rsi
	callq	__ZN4core5slice29_$LT$impl$u20$$u5b$T$u5d$$GT$8is_empty17h8aa58562f21d44fcE
	testb	$1, %al
	jne	LBB126_2
	.loc	43 0 12 is_stmt 0
	movq	-56(%rbp), %rax
	movq	-64(%rbp), %rcx
	.loc	43 285 22 is_stmt 1
	movq	8(%rcx), %rcx
	.loc	43 285 17 is_stmt 0
	movq	%rcx, -16(%rbp)
	movq	$1, -24(%rbp)
	.loc	43 285 13
	movq	$1, (%rax)
	movq	-24(%rbp), %rdx
	movq	-16(%rbp), %rcx
	movq	%rdx, 8(%rax)
	movq	%rcx, 16(%rax)
	.loc	43 282 9 is_stmt 1
	jmp	LBB126_3
LBB126_2:
	.loc	43 0 9 is_stmt 0
	movq	-56(%rbp), %rax
	.loc	43 283 17 is_stmt 1
	movq	$0, -32(%rbp)
	movq	$1, -40(%rbp)
	.loc	43 283 13 is_stmt 0
	movq	$0, (%rax)
	movq	-40(%rbp), %rdx
	movq	-32(%rbp), %rcx
	movq	%rdx, 8(%rax)
	movq	%rcx, 16(%rax)
LBB126_3:
	.loc	43 0 13
	movq	-48(%rbp), %rax
	.loc	43 287 6 is_stmt 1
	addq	$64, %rsp
	popq	%rbp
	retq
Ltmp1015:
Lfunc_end126:
	.cfi_endproc

	.globl	__ZN70_$LT$percent_encoding..PercentEncode$u20$as$u20$core..fmt..Display$GT$3fmt17h12d92039350a7984E
	.p2align	4, 0x90
__ZN70_$LT$percent_encoding..PercentEncode$u20$as$u20$core..fmt..Display$GT$3fmt17h12d92039350a7984E:
Lfunc_begin127:
	.loc	43 291 0
	.cfi_startproc
	pushq	%rbp
	.cfi_def_cfa_offset 16
	.cfi_offset %rbp, -16
	movq	%rsp, %rbp
	.cfi_def_cfa_register %rbp
	subq	$160, %rsp
	movq	%rsi, %rax
	movq	%rdi, %rsi
	movq	%rax, -160(%rbp)
	movq	%rsi, -48(%rbp)
	movq	%rax, -40(%rbp)
Ltmp1016:
	.loc	43 292 18 prologue_end
	leaq	-120(%rbp), %rdi
	callq	__ZN70_$LT$percent_encoding..PercentEncode$u20$as$u20$core..clone..Clone$GT$5clone17h925e66f9e3596095E
	leaq	-144(%rbp), %rdi
	leaq	-120(%rbp), %rsi
	callq	__ZN63_$LT$I$u20$as$u20$core..iter..traits..collect..IntoIterator$GT$9into_iter17h3837433efa213673E
	movq	-144(%rbp), %rax
	movq	%rax, -96(%rbp)
	movq	-136(%rbp), %rax
	movq	%rax, -88(%rbp)
	movq	-128(%rbp), %rax
	movq	%rax, -80(%rbp)
LBB127_1:
	.loc	43 0 18 is_stmt 0
	leaq	-96(%rbp), %rdi
Ltmp1017:
	.loc	43 292 18
	callq	__ZN90_$LT$percent_encoding..PercentEncode$u20$as$u20$core..iter..traits..iterator..Iterator$GT$4next17h5f729b47186a048eE
	movq	%rdx, -64(%rbp)
	movq	%rax, -72(%rbp)
	movq	-72(%rbp), %rdx
	movl	$1, %eax
	xorl	%ecx, %ecx
	cmpq	$0, %rdx
	cmoveq	%rcx, %rax
	cmpq	$0, %rax
	jne	LBB127_3
Ltmp1018:
	.loc	43 295 9 is_stmt 1
	movb	$0, -145(%rbp)
	.loc	43 296 6
	jmp	LBB127_5
LBB127_3:
	.loc	43 0 6 is_stmt 0
	movq	-160(%rbp), %rdi
Ltmp1019:
	.loc	43 292 13 is_stmt 1
	movq	-72(%rbp), %rsi
	movq	-64(%rbp), %rdx
	movq	%rsi, -16(%rbp)
	movq	%rdx, -8(%rbp)
Ltmp1020:
	.loc	43 293 13
	callq	__ZN4core3fmt9Formatter9write_str17hb029d9999327a35fE
	movzbl	%al, %edi
	andl	$1, %edi
	callq	__ZN79_$LT$core..result..Result$LT$T$C$E$GT$$u20$as$u20$core..ops..try_trait..Try$GT$6branch17ha2c5727ae39745c5E
	andb	$1, %al
	movb	%al, -49(%rbp)
	movb	-49(%rbp), %al
	andb	$1, %al
	movzbl	%al, %eax
	cmpq	$0, %rax
	je	LBB127_1
Ltmp1021:
	.loc	43 293 13 is_stmt 0
	leaq	l___unnamed_29(%rip), %rdi
	callq	__ZN153_$LT$core..result..Result$LT$T$C$F$GT$$u20$as$u20$core..ops..try_trait..FromResidual$LT$core..result..Result$LT$core..convert..Infallible$C$E$GT$$GT$$GT$13from_residual17had5055d00c1e151eE
	andb	$1, %al
	movb	%al, -145(%rbp)
Ltmp1022:
LBB127_5:
	.loc	43 296 6 is_stmt 1
	movb	-145(%rbp), %al
	andb	$1, %al
	movzbl	%al, %eax
	addq	$160, %rsp
	popq	%rbp
	retq
Ltmp1023:
Lfunc_end127:
	.cfi_endproc

	.globl	__ZN16percent_encoding118_$LT$impl$u20$core..convert..From$LT$percent_encoding..PercentEncode$GT$$u20$for$u20$alloc..borrow..Cow$LT$str$GT$$GT$4from17had7462c1ef540f39E
	.p2align	4, 0x90
__ZN16percent_encoding118_$LT$impl$u20$core..convert..From$LT$percent_encoding..PercentEncode$GT$$u20$for$u20$alloc..borrow..Cow$LT$str$GT$$GT$4from17had7462c1ef540f39E:
Lfunc_begin128:
	.loc	43 301 0
	.cfi_startproc
	.cfi_personality 155, _rust_eh_personality
	.cfi_lsda 16, Lexception13
	pushq	%rbp
	.cfi_def_cfa_offset 16
	.cfi_offset %rbp, -16
	movq	%rsp, %rbp
	.cfi_def_cfa_register %rbp
	subq	$224, %rsp
	movq	%rsi, -184(%rbp)
Ltmp1034:
	movq	%rdi, %rax
	movq	-184(%rbp), %rdi
	movq	%rax, -176(%rbp)
	movq	%rax, -168(%rbp)
Ltmp1035:
	.loc	43 302 15 prologue_end
	movb	$0, -49(%rbp)
	callq	__ZN90_$LT$percent_encoding..PercentEncode$u20$as$u20$core..iter..traits..iterator..Iterator$GT$4next17h5f729b47186a048eE
	movq	%rdx, -152(%rbp)
	movq	%rax, -160(%rbp)
	movq	-160(%rbp), %rdx
	movl	$1, %eax
	xorl	%ecx, %ecx
	cmpq	$0, %rdx
	cmoveq	%rcx, %rax
	.loc	43 302 9 is_stmt 0
	cmpq	$0, %rax
	jne	LBB128_2
Ltmp1036:
	.loc	43 0 9
	movq	-176(%rbp), %rdi
	.loc	43 303 21 is_stmt 1
	leaq	l___unnamed_6(%rip), %rsi
	xorl	%eax, %eax
	movl	%eax, %edx
	callq	__ZN50_$LT$T$u20$as$u20$core..convert..Into$LT$U$GT$$GT$4into17h83533c440f0f5146E
	jmp	LBB128_13
Ltmp1037:
LBB128_2:
	.loc	43 0 21 is_stmt 0
	movq	-184(%rbp), %rdi
	.loc	43 304 18 is_stmt 1
	movq	-160(%rbp), %rcx
	movq	%rcx, -200(%rbp)
	movq	-152(%rbp), %rax
	movq	%rax, -192(%rbp)
	movq	%rcx, -48(%rbp)
	movq	%rax, -40(%rbp)
Ltmp1038:
	.loc	43 304 34 is_stmt 0
	callq	__ZN90_$LT$percent_encoding..PercentEncode$u20$as$u20$core..iter..traits..iterator..Iterator$GT$4next17h5f729b47186a048eE
	movq	%rdx, -136(%rbp)
	movq	%rax, -144(%rbp)
	movq	-144(%rbp), %rdx
	movl	$1, %eax
	xorl	%ecx, %ecx
	cmpq	$0, %rdx
	cmoveq	%rcx, %rax
	.loc	43 304 28
	cmpq	$0, %rax
	jne	LBB128_4
Ltmp1039:
	.loc	43 0 28
	movq	-192(%rbp), %rdx
	movq	-200(%rbp), %rsi
	movq	-176(%rbp), %rdi
	.loc	43 305 25 is_stmt 1
	callq	__ZN50_$LT$T$u20$as$u20$core..convert..Into$LT$U$GT$$GT$4into17h83533c440f0f5146E
	jmp	LBB128_13
Ltmp1040:
LBB128_4:
	.loc	43 0 25 is_stmt 0
	movq	-192(%rbp), %rdx
	movq	-200(%rbp), %rsi
	.loc	43 306 22 is_stmt 1
	movq	-144(%rbp), %rcx
	movq	%rcx, -216(%rbp)
	movq	-136(%rbp), %rax
	movq	%rax, -208(%rbp)
	movq	%rcx, -32(%rbp)
	movq	%rax, -24(%rbp)
Ltmp1041:
	.loc	43 307 38
	movb	$1, -49(%rbp)
	leaq	-128(%rbp), %rdi
	movq	%rdi, -224(%rbp)
	callq	__ZN5alloc3str56_$LT$impl$u20$alloc..borrow..ToOwned$u20$for$u20$str$GT$8to_owned17ha866e405f31764bdE
	movq	-224(%rbp), %rdi
	movq	-216(%rbp), %rsi
	movq	-208(%rbp), %rdx
Ltmp1024:
Ltmp1042:
	.loc	43 308 21
	callq	__ZN5alloc6string6String8push_str17h26b7e4dc3df71b82E
Ltmp1025:
	jmp	LBB128_7
Ltmp1043:
LBB128_5:
	.loc	43 311 17
	testb	$1, -49(%rbp)
	jne	LBB128_11
	jmp	LBB128_10
Ltmp1044:
LBB128_6:
Ltmp1030:
	.loc	43 0 17 is_stmt 0
	movq	%rax, %rcx
	movl	%edx, %eax
	movq	%rcx, -16(%rbp)
	movl	%eax, -8(%rbp)
	jmp	LBB128_5
Ltmp1045:
LBB128_7:
	movq	-184(%rbp), %rcx
Ltmp1046:
	.loc	43 309 35 is_stmt 1
	movq	16(%rcx), %rax
	movq	%rax, -88(%rbp)
	movq	(%rcx), %rax
	movq	8(%rcx), %rcx
	movq	%rcx, -96(%rbp)
	movq	%rax, -104(%rbp)
Ltmp1026:
	leaq	-128(%rbp), %rdi
	leaq	-104(%rbp), %rsi
	.loc	43 309 21 is_stmt 0
	callq	__ZN92_$LT$alloc..string..String$u20$as$u20$core..iter..traits..collect..Extend$LT$$RF$str$GT$$GT$6extend17h753fcb1bc3a870c3E
Ltmp1027:
	jmp	LBB128_8
Ltmp1047:
LBB128_8:
	.loc	43 0 21
	movq	-176(%rbp), %rdi
	.loc	43 310 21 is_stmt 1
	movb	$0, -49(%rbp)
	movq	-112(%rbp), %rax
	movq	%rax, -64(%rbp)
	movq	-128(%rbp), %rax
	movq	-120(%rbp), %rcx
	movq	%rcx, -72(%rbp)
	movq	%rax, -80(%rbp)
Ltmp1028:
	leaq	-80(%rbp), %rsi
	callq	__ZN50_$LT$T$u20$as$u20$core..convert..Into$LT$U$GT$$GT$4into17h66957494f4841e4eE
Ltmp1029:
	jmp	LBB128_9
Ltmp1048:
LBB128_9:
	.loc	43 311 17
	movb	$0, -49(%rbp)
Ltmp1049:
	.loc	43 311 17 is_stmt 0
	jmp	LBB128_13
Ltmp1050:
LBB128_10:
	.loc	43 301 5 is_stmt 1
	movq	-16(%rbp), %rdi
	callq	__Unwind_Resume
Ltmp1051:
LBB128_11:
Ltmp1031:
	.loc	43 0 5 is_stmt 0
	leaq	-128(%rbp), %rdi
Ltmp1052:
	.loc	43 311 17 is_stmt 1
	callq	__ZN4core3ptr42drop_in_place$LT$alloc..string..String$GT$17h1b3e09bcaf33a849E
Ltmp1032:
	jmp	LBB128_10
Ltmp1053:
LBB128_12:
Ltmp1033:
	.loc	43 301 5
	callq	__ZN4core9panicking19panic_cannot_unwind17h1fbca7e1d7f56ae1E
Ltmp1054:
LBB128_13:
	.loc	43 0 5 is_stmt 0
	movq	-168(%rbp), %rax
	.loc	43 314 6 is_stmt 1
	addq	$224, %rsp
	popq	%rbp
	retq
Ltmp1055:
Lfunc_end128:
	.cfi_endproc
	.section	__TEXT,__gcc_except_tab
	.p2align	2
GCC_except_table128:
Lexception13:
	.byte	255
	.byte	255
	.byte	1
	.uleb128 Lcst_end13-Lcst_begin13
Lcst_begin13:
	.uleb128 Lfunc_begin128-Lfunc_begin128
	.uleb128 Ltmp1024-Lfunc_begin128
	.byte	0
	.byte	0
	.uleb128 Ltmp1024-Lfunc_begin128
	.uleb128 Ltmp1029-Ltmp1024
	.uleb128 Ltmp1030-Lfunc_begin128
	.byte	0
	.uleb128 Ltmp1029-Lfunc_begin128
	.uleb128 Ltmp1031-Ltmp1029
	.byte	0
	.byte	0
	.uleb128 Ltmp1031-Lfunc_begin128
	.uleb128 Ltmp1032-Ltmp1031
	.uleb128 Ltmp1033-Lfunc_begin128
	.byte	0
Lcst_end13:
	.p2align	2

	.section	__TEXT,__text,regular,pure_instructions
	.p2align	4, 0x90
__ZN16percent_encoding18after_percent_sign17h769f19b4adee1889E:
Lfunc_begin129:
	.loc	43 358 0
	.cfi_startproc
	pushq	%rbp
	.cfi_def_cfa_offset 16
	.cfi_offset %rbp, -16
	movq	%rsp, %rbp
	.cfi_def_cfa_register %rbp
	subq	$160, %rsp
	movq	%rdi, -136(%rbp)
	movq	%rdi, -72(%rbp)
Ltmp1056:
	.loc	43 359 27 prologue_end
	callq	__ZN71_$LT$core..slice..iter..Iter$LT$T$GT$$u20$as$u20$core..clone..Clone$GT$5clone17h71113a439e1469fbE
	movq	%rdx, -112(%rbp)
	movq	%rax, -120(%rbp)
Ltmp1057:
	.loc	43 360 25
	leaq	-120(%rbp), %rdi
	callq	__ZN91_$LT$core..slice..iter..Iter$LT$T$GT$$u20$as$u20$core..iter..traits..iterator..Iterator$GT$4next17h31666222c3d0f2eeE
	movq	%rax, %rdi
	callq	__ZN75_$LT$core..option..Option$LT$T$GT$$u20$as$u20$core..ops..try_trait..Try$GT$6branch17h53a3c787a0362764E
	movq	%rax, -96(%rbp)
	movq	-96(%rbp), %rdx
	xorl	%eax, %eax
	movl	$1, %ecx
	cmpq	$0, %rdx
	cmoveq	%rcx, %rax
	cmpq	$0, %rax
	jne	LBB129_2
	movq	-96(%rbp), %rax
	movq	%rax, -32(%rbp)
	.loc	43 360 13 is_stmt 0
	movzbl	(%rax), %edi
	callq	__ZN4core4char7convert64_$LT$impl$u20$core..convert..From$LT$u8$GT$$u20$for$u20$char$GT$4from17had2b00d696ae6214E
	movl	%eax, %edi
	movl	$16, %esi
	callq	__ZN4core4char7methods22_$LT$impl$u20$char$GT$8to_digit17h6fa393c418087d41E
	movl	%eax, %edi
	movl	%edx, %esi
	callq	__ZN75_$LT$core..option..Option$LT$T$GT$$u20$as$u20$core..ops..try_trait..Try$GT$6branch17h223287977eb19b17E
	movl	%edx, -100(%rbp)
	movl	%eax, -104(%rbp)
	movl	-104(%rbp), %eax
	cmpq	$0, %rax
	je	LBB129_4
	jmp	LBB129_5
LBB129_2:
Ltmp1058:
	.loc	43 360 25
	callq	__ZN84_$LT$core..option..Option$LT$T$GT$$u20$as$u20$core..ops..try_trait..FromResidual$GT$13from_residual17hf26cba46352161a1E
	movb	%dl, -127(%rbp)
	movb	%al, -128(%rbp)
Ltmp1059:
LBB129_3:
	.loc	43 364 2 is_stmt 1
	movb	-128(%rbp), %al
	movb	-127(%rbp), %dl
	addq	$160, %rsp
	popq	%rbp
	retq
LBB129_4:
Ltmp1060:
	.loc	43 360 13
	movl	-100(%rbp), %eax
	movl	%eax, -140(%rbp)
	movl	%eax, -24(%rbp)
Ltmp1061:
	.loc	43 360 13 is_stmt 0
	movl	%eax, -20(%rbp)
Ltmp1062:
	.loc	43 361 25 is_stmt 1
	leaq	-120(%rbp), %rdi
	callq	__ZN91_$LT$core..slice..iter..Iter$LT$T$GT$$u20$as$u20$core..iter..traits..iterator..Iterator$GT$4next17h31666222c3d0f2eeE
	movq	%rax, %rdi
	callq	__ZN75_$LT$core..option..Option$LT$T$GT$$u20$as$u20$core..ops..try_trait..Try$GT$6branch17h53a3c787a0362764E
	movq	%rax, -80(%rbp)
	movq	-80(%rbp), %rdx
	xorl	%eax, %eax
	movl	$1, %ecx
	cmpq	$0, %rdx
	cmoveq	%rcx, %rax
	cmpq	$0, %rax
	je	LBB129_6
	jmp	LBB129_7
Ltmp1063:
LBB129_5:
	.loc	43 360 13
	callq	__ZN84_$LT$core..option..Option$LT$T$GT$$u20$as$u20$core..ops..try_trait..FromResidual$GT$13from_residual17hf26cba46352161a1E
	movb	%dl, -127(%rbp)
	movb	%al, -128(%rbp)
	jmp	LBB129_3
Ltmp1064:
LBB129_6:
	.loc	43 361 25
	movq	-80(%rbp), %rax
	movq	%rax, -16(%rbp)
	.loc	43 361 13 is_stmt 0
	movzbl	(%rax), %edi
	callq	__ZN4core4char7convert64_$LT$impl$u20$core..convert..From$LT$u8$GT$$u20$for$u20$char$GT$4from17had2b00d696ae6214E
	movl	%eax, %edi
	movl	$16, %esi
	callq	__ZN4core4char7methods22_$LT$impl$u20$char$GT$8to_digit17h6fa393c418087d41E
	movl	%eax, %edi
	movl	%edx, %esi
	callq	__ZN75_$LT$core..option..Option$LT$T$GT$$u20$as$u20$core..ops..try_trait..Try$GT$6branch17h223287977eb19b17E
	movl	%edx, -84(%rbp)
	movl	%eax, -88(%rbp)
	movl	-88(%rbp), %eax
	cmpq	$0, %rax
	je	LBB129_8
	jmp	LBB129_9
LBB129_7:
Ltmp1065:
	.loc	43 361 25
	callq	__ZN84_$LT$core..option..Option$LT$T$GT$$u20$as$u20$core..ops..try_trait..FromResidual$GT$13from_residual17hf26cba46352161a1E
	movb	%dl, -127(%rbp)
	movb	%al, -128(%rbp)
	jmp	LBB129_3
Ltmp1066:
LBB129_8:
	.loc	43 0 25
	movl	-140(%rbp), %eax
	movq	-136(%rbp), %rcx
	.loc	43 361 13
	movl	-84(%rbp), %edx
	movl	%edx, -148(%rbp)
	movl	%edx, -8(%rbp)
Ltmp1067:
	.loc	43 361 13
	movl	%edx, -4(%rbp)
Ltmp1068:
	.loc	43 362 13 is_stmt 1
	movq	-120(%rbp), %rsi
	movq	-112(%rbp), %rdx
	.loc	43 362 5 is_stmt 0
	movq	%rsi, (%rcx)
	movq	%rdx, 8(%rcx)
	.loc	43 363 10 is_stmt 1
	movb	$16, %cl
	mulb	%cl
	movb	%al, -141(%rbp)
	seto	%al
	testb	$1, %al
	jne	LBB129_11
	jmp	LBB129_10
Ltmp1069:
LBB129_9:
	.loc	43 361 13
	callq	__ZN84_$LT$core..option..Option$LT$T$GT$$u20$as$u20$core..ops..try_trait..FromResidual$GT$13from_residual17hf26cba46352161a1E
	movb	%dl, -127(%rbp)
	movb	%al, -128(%rbp)
	jmp	LBB129_3
Ltmp1070:
LBB129_10:
	.loc	43 0 13 is_stmt 0
	movb	-141(%rbp), %al
	movl	-148(%rbp), %ecx
Ltmp1071:
	.loc	43 363 10 is_stmt 1
	addb	%cl, %al
	movb	%al, -149(%rbp)
	setb	%al
	testb	$1, %al
	jne	LBB129_13
	jmp	LBB129_12
LBB129_11:
	leaq	_str.3(%rip), %rdi
	leaq	l___unnamed_30(%rip), %rdx
	movl	$33, %esi
	callq	__ZN4core9panicking5panic17hc1bc45270cf64b03E
LBB129_12:
	.loc	43 0 10 is_stmt 0
	movb	-149(%rbp), %al
	.loc	43 363 5
	movb	%al, -127(%rbp)
	movb	$1, -128(%rbp)
Ltmp1072:
	.loc	43 364 2 is_stmt 1
	jmp	LBB129_3
LBB129_13:
Ltmp1073:
	.loc	43 363 10
	leaq	_str.0(%rip), %rdi
	leaq	l___unnamed_30(%rip), %rdx
	movl	$28, %esi
	callq	__ZN4core9panicking5panic17hc1bc45270cf64b03E
Ltmp1074:
Lfunc_end129:
	.cfi_endproc

	.globl	__ZN90_$LT$percent_encoding..PercentDecode$u20$as$u20$core..iter..traits..iterator..Iterator$GT$4next17ha7eebda17fe7ebfeE
	.p2align	4, 0x90
__ZN90_$LT$percent_encoding..PercentDecode$u20$as$u20$core..iter..traits..iterator..Iterator$GT$4next17ha7eebda17fe7ebfeE:
Lfunc_begin130:
	.loc	43 369 0
	.cfi_startproc
	pushq	%rbp
	.cfi_def_cfa_offset 16
	.cfi_offset %rbp, -16
	movq	%rsp, %rbp
	.cfi_def_cfa_register %rbp
	subq	$16, %rsp
	movq	%rdi, -16(%rbp)
Ltmp1075:
	.loc	43 370 9 prologue_end
	movq	-16(%rbp), %rdi
	callq	__ZN91_$LT$core..slice..iter..Iter$LT$T$GT$$u20$as$u20$core..iter..traits..iterator..Iterator$GT$4next17h31666222c3d0f2eeE
	movq	%rax, %rdi
	leaq	-16(%rbp), %rax
	.loc	43 370 31 is_stmt 0
	movq	%rax, -8(%rbp)
	.loc	43 370 9
	movq	-8(%rbp), %rsi
	callq	__ZN4core6option15Option$LT$T$GT$3map17he7544e344c371306E
	.loc	43 377 6 is_stmt 1
	andb	$1, %al
	addq	$16, %rsp
	popq	%rbp
	retq
Ltmp1076:
Lfunc_end130:
	.cfi_endproc

	.p2align	4, 0x90
__ZN90_$LT$percent_encoding..PercentDecode$u20$as$u20$core..iter..traits..iterator..Iterator$GT$4next28_$u7b$$u7b$closure$u7d$$u7d$17hacf666509b63782dE:
Lfunc_begin131:
	.loc	43 370 0
	.cfi_startproc
	pushq	%rbp
	.cfi_def_cfa_offset 16
	.cfi_offset %rbp, -16
	movq	%rsp, %rbp
	.cfi_def_cfa_register %rbp
	subq	$48, %rsp
	movq	%rdi, -32(%rbp)
	movq	%rsi, -16(%rbp)
Ltmp1077:
	.loc	43 370 33 prologue_end
	movb	(%rsi), %al
	movb	%al, -33(%rbp)
	movb	%al, -1(%rbp)
Ltmp1078:
	.loc	43 371 16
	cmpb	$37, %al
	jne	LBB131_2
	.loc	43 372 36
	movq	-32(%rbp), %rax
	movq	(%rax), %rdi
	.loc	43 372 17 is_stmt 0
	callq	__ZN16percent_encoding18after_percent_sign17h769f19b4adee1889E
	movb	%al, %cl
	movb	-33(%rbp), %al
	andb	$1, %cl
	movzbl	%cl, %edi
	movzbl	%dl, %esi
	movzbl	%al, %edx
	callq	__ZN4core6option15Option$LT$T$GT$9unwrap_or17h6db924f21f7de898E
	movb	%al, -17(%rbp)
	jmp	LBB131_3
LBB131_2:
	.loc	43 0 17
	movb	-33(%rbp), %al
	.loc	43 374 17 is_stmt 1
	movb	%al, -17(%rbp)
Ltmp1079:
LBB131_3:
	.loc	43 376 10
	movb	-17(%rbp), %al
	addq	$48, %rsp
	popq	%rbp
	retq
Ltmp1080:
Lfunc_end131:
	.cfi_endproc

	.globl	__ZN90_$LT$percent_encoding..PercentDecode$u20$as$u20$core..iter..traits..iterator..Iterator$GT$9size_hint17h18e7c596d5e430dcE
	.p2align	4, 0x90
__ZN90_$LT$percent_encoding..PercentDecode$u20$as$u20$core..iter..traits..iterator..Iterator$GT$9size_hint17h18e7c596d5e430dcE:
Lfunc_begin132:
	.loc	43 379 0
	.cfi_startproc
	pushq	%rbp
	.cfi_def_cfa_offset 16
	.cfi_offset %rbp, -16
	movq	%rsp, %rbp
	.cfi_def_cfa_register %rbp
	subq	$96, %rsp
	movq	%rsi, %rax
	movq	%rdi, -96(%rbp)
	movq	%rdi, -88(%rbp)
	movq	%rax, -48(%rbp)
	movq	%rax, -24(%rbp)
Ltmp1081:
	.loc	34 110 17 prologue_end
	movq	8(%rax), %rsi
	movq	%rsi, -16(%rbp)
Ltmp1082:
	.loc	34 110 17 is_stmt 0
	movq	(%rax), %rdi
	movq	%rsi, -8(%rbp)
	callq	__ZN4core3ptr9const_ptr33_$LT$impl$u20$$BP$const$u20$T$GT$7sub_ptr17he4351ea9308b09d0E
	movq	%rax, -32(%rbp)
Ltmp1083:
	.loc	34 111 14 is_stmt 1
	movq	-32(%rbp), %rax
	movq	%rax, -80(%rbp)
Ltmp1084:
	.loc	43 380 21
	movq	%rax, -40(%rbp)
Ltmp1085:
	.loc	43 381 10
	addq	$2, %rax
	movq	%rax, -72(%rbp)
	setb	%al
	testb	$1, %al
	jne	LBB132_2
	.loc	43 0 10 is_stmt 0
	movq	-96(%rbp), %rcx
	movq	-80(%rbp), %rsi
	movq	-72(%rbp), %rax
	.loc	43 381 10
	movl	$3, %edi
	xorl	%edx, %edx
	divq	%rdi
	movq	%rax, %rdx
	movq	-88(%rbp), %rax
	.loc	43 381 27
	movq	%rsi, -56(%rbp)
	movq	$1, -64(%rbp)
	.loc	43 381 9
	movq	%rdx, (%rcx)
	movq	-64(%rbp), %rsi
	movq	-56(%rbp), %rdx
	movq	%rsi, 8(%rcx)
	movq	%rdx, 16(%rcx)
Ltmp1086:
	.loc	43 382 6 is_stmt 1
	addq	$96, %rsp
	popq	%rbp
	retq
LBB132_2:
Ltmp1087:
	.loc	43 381 10
	leaq	_str.0(%rip), %rdi
	leaq	l___unnamed_31(%rip), %rdx
	movl	$28, %esi
	callq	__ZN4core9panicking5panic17hc1bc45270cf64b03E
Ltmp1088:
Lfunc_end132:
	.cfi_endproc

	.globl	__ZN16percent_encoding127_$LT$impl$u20$core..convert..From$LT$percent_encoding..PercentDecode$GT$$u20$for$u20$alloc..borrow..Cow$LT$$u5b$u8$u5d$$GT$$GT$4from17h91971bc813e19f8eE
	.p2align	4, 0x90
__ZN16percent_encoding127_$LT$impl$u20$core..convert..From$LT$percent_encoding..PercentDecode$GT$$u20$for$u20$alloc..borrow..Cow$LT$$u5b$u8$u5d$$GT$$GT$4from17h91971bc813e19f8eE:
Lfunc_begin133:
	.loc	43 387 0
	.cfi_startproc
	pushq	%rbp
	.cfi_def_cfa_offset 16
	.cfi_offset %rbp, -16
	movq	%rsp, %rbp
	.cfi_def_cfa_register %rbp
	subq	$112, %rsp
	movq	%rdi, -104(%rbp)
	movq	%rdi, -96(%rbp)
	movq	%rsi, -88(%rbp)
	movq	%rdx, -80(%rbp)
Ltmp1089:
	.loc	43 388 15 prologue_end
	leaq	-72(%rbp), %rdi
	leaq	-88(%rbp), %rsi
	callq	__ZN16percent_encoding13PercentDecode6if_any17hda151b09875915f3E
	movq	-64(%rbp), %rdx
	movl	$1, %eax
	xorl	%ecx, %ecx
	cmpq	$0, %rdx
	cmoveq	%rcx, %rax
	.loc	43 388 9 is_stmt 0
	cmpq	$0, %rax
	jne	LBB133_2
	.loc	43 390 35 is_stmt 1
	leaq	-88(%rbp), %rdi
	callq	__ZN4core5slice4iter13Iter$LT$T$GT$8as_slice17hb6eed525f40ed676E
	movq	%rax, %rcx
	movq	-104(%rbp), %rax
	.loc	43 390 21 is_stmt 0
	movq	%rcx, 8(%rax)
	movq	%rdx, 16(%rax)
	movq	$0, (%rax)
	.loc	43 390 56
	jmp	LBB133_3
LBB133_2:
	.loc	43 0 56
	movq	-104(%rbp), %rax
	.loc	43 389 18 is_stmt 1
	movq	-72(%rbp), %rcx
	movq	%rcx, -48(%rbp)
	movq	-64(%rbp), %rcx
	movq	%rcx, -40(%rbp)
	movq	-56(%rbp), %rcx
	movq	%rcx, -32(%rbp)
Ltmp1090:
	.loc	43 389 37 is_stmt 0
	movq	-48(%rbp), %rcx
	movq	%rcx, -24(%rbp)
	movq	-40(%rbp), %rcx
	movq	%rcx, -16(%rbp)
	movq	-32(%rbp), %rcx
	movq	%rcx, -8(%rbp)
	.loc	43 389 26
	movq	-24(%rbp), %rcx
	movq	%rcx, 8(%rax)
	movq	-16(%rbp), %rcx
	movq	%rcx, 16(%rax)
	movq	-8(%rbp), %rcx
	movq	%rcx, 24(%rax)
	movq	$1, (%rax)
Ltmp1091:
LBB133_3:
	.loc	43 0 26
	movq	-96(%rbp), %rax
	.loc	43 392 6 is_stmt 1
	addq	$112, %rsp
	popq	%rbp
	retq
Ltmp1092:
Lfunc_end133:
	.cfi_endproc

	.p2align	4, 0x90
__ZN16percent_encoding13PercentDecode6if_any17hda151b09875915f3E:
Lfunc_begin134:
	.loc	43 398 0
	.cfi_startproc
	.cfi_personality 155, _rust_eh_personality
	.cfi_lsda 16, Lexception14
	pushq	%rbp
	.cfi_def_cfa_offset 16
	.cfi_offset %rbp, -16
	movq	%rsp, %rbp
	.cfi_def_cfa_register %rbp
	subq	$256, %rsp
	movq	%rsi, -208(%rbp)
	movq	%rdi, %rax
	movq	-208(%rbp), %rdi
	movq	%rax, -200(%rbp)
	movq	%rax, -192(%rbp)
	movq	%rdi, -88(%rbp)
Ltmp1101:
	.loc	43 399 30 prologue_end
	callq	__ZN71_$LT$core..slice..iter..Iter$LT$T$GT$$u20$as$u20$core..clone..Clone$GT$5clone17h71113a439e1469fbE
	movq	%rdx, -176(%rbp)
	movq	%rax, -184(%rbp)
LBB134_1:
Ltmp1102:
	.loc	43 400 15
	leaq	-184(%rbp), %rdi
	callq	__ZN91_$LT$core..slice..iter..Iter$LT$T$GT$$u20$as$u20$core..iter..traits..iterator..Iterator$GT$3any17ha9029a883195a4c3E
	testb	$1, %al
	jne	LBB134_3
	.loc	43 0 15 is_stmt 0
	movq	-200(%rbp), %rax
	.loc	43 411 9 is_stmt 1
	movq	$0, 8(%rax)
Ltmp1103:
	.loc	43 412 6
	jmp	LBB134_15
LBB134_3:
	.loc	43 0 6 is_stmt 0
	leaq	-184(%rbp), %rdi
Ltmp1104:
	.loc	43 401 41 is_stmt 1
	callq	__ZN16percent_encoding18after_percent_sign17h769f19b4adee1889E
	movb	%dl, -167(%rbp)
	movb	%al, -168(%rbp)
	.loc	43 401 20 is_stmt 0
	movb	-168(%rbp), %al
	andb	$1, %al
	movzbl	%al, %eax
	cmpq	$1, %rax
	jne	LBB134_1
	.loc	43 0 20
	movq	-208(%rbp), %rdi
	.loc	43 401 25
	movb	-167(%rbp), %al
	movb	%al, -233(%rbp)
	movb	%al, -73(%rbp)
	.loc	43 402 37 is_stmt 1
	callq	__ZN4core5slice4iter13Iter$LT$T$GT$8as_slice17hb6eed525f40ed676E
	movq	%rax, -232(%rbp)
	movq	%rdx, -224(%rbp)
	movq	%rax, -72(%rbp)
	movq	%rdx, -64(%rbp)
	leaq	-184(%rbp), %rax
	movq	%rax, -24(%rbp)
Ltmp1105:
	.loc	34 110 17
	movq	-176(%rbp), %rsi
	movq	%rsi, -16(%rbp)
Ltmp1106:
	.loc	34 110 17 is_stmt 0
	movq	-184(%rbp), %rdi
	movq	%rsi, -8(%rbp)
	callq	__ZN4core3ptr9const_ptr33_$LT$impl$u20$$BP$const$u20$T$GT$7sub_ptr17he4351ea9308b09d0E
	movq	-224(%rbp), %rdx
	movq	%rax, -32(%rbp)
Ltmp1107:
	.loc	34 111 14 is_stmt 1
	movq	-32(%rbp), %rax
Ltmp1108:
	.loc	43 403 43
	movq	%rdx, %rcx
	subq	%rax, %rcx
	movq	%rcx, -216(%rbp)
	cmpq	%rax, %rdx
	setb	%al
	testb	$1, %al
	jne	LBB134_6
	.loc	43 0 43 is_stmt 0
	movq	-216(%rbp), %rax
	.loc	43 403 43
	movq	%rax, %rcx
	subq	$3, %rcx
	movq	%rcx, -248(%rbp)
	cmpq	$3, %rax
	setb	%al
	testb	$1, %al
	jne	LBB134_8
	jmp	LBB134_7
LBB134_6:
	leaq	_str.4(%rip), %rdi
	leaq	l___unnamed_32(%rip), %rdx
	movl	$33, %esi
	callq	__ZN4core9panicking5panic17hc1bc45270cf64b03E
LBB134_7:
	.loc	43 0 43
	movq	-224(%rbp), %rsi
	movq	-232(%rbp), %rdi
	movq	-248(%rbp), %rax
	.loc	43 403 43
	movq	%rax, -56(%rbp)
Ltmp1109:
	.loc	43 404 49 is_stmt 1
	movq	%rax, -136(%rbp)
	.loc	43 404 35 is_stmt 0
	movq	-136(%rbp), %rdx
	leaq	l___unnamed_33(%rip), %rcx
	callq	__ZN4core5slice5index74_$LT$impl$u20$core..ops..index..Index$LT$I$GT$$u20$for$u20$$u5b$T$u5d$$GT$5index17h665a5d2201fd1f84E
	movq	%rax, %rsi
	leaq	-160(%rbp), %rdi
	movq	%rdi, -256(%rbp)
	callq	__ZN5alloc5slice64_$LT$impl$u20$alloc..borrow..ToOwned$u20$for$u20$$u5b$T$u5d$$GT$8to_owned17h607b302c8a77fb8aE
	movb	-233(%rbp), %al
	movq	-256(%rbp), %rdi
Ltmp1093:
Ltmp1110:
	.loc	43 405 17 is_stmt 1
	movzbl	%al, %esi
	callq	__ZN5alloc3vec16Vec$LT$T$C$A$GT$4push17h5b26a73daf2eef37E
Ltmp1094:
	jmp	LBB134_11
Ltmp1111:
LBB134_8:
	.loc	43 403 43
	leaq	_str.4(%rip), %rdi
	leaq	l___unnamed_32(%rip), %rdx
	movl	$33, %esi
	callq	__ZN4core9panicking5panic17hc1bc45270cf64b03E
LBB134_9:
Ltmp1098:
	.loc	43 0 43 is_stmt 0
	leaq	-160(%rbp), %rdi
Ltmp1112:
	.loc	43 408 13 is_stmt 1
	callq	__ZN4core3ptr46drop_in_place$LT$alloc..vec..Vec$LT$u8$GT$$GT$17h83e90276065d94e4E
Ltmp1099:
	jmp	LBB134_14
LBB134_10:
Ltmp1097:
	.loc	43 0 13 is_stmt 0
	movq	%rax, %rcx
	movl	%edx, %eax
	movq	%rcx, -48(%rbp)
	movl	%eax, -40(%rbp)
	jmp	LBB134_9
LBB134_11:
Ltmp1113:
	.loc	43 406 55 is_stmt 1
	movq	-184(%rbp), %rcx
	movq	-176(%rbp), %rax
	.loc	43 406 32 is_stmt 0
	movq	%rcx, -128(%rbp)
	movq	%rax, -120(%rbp)
	.loc	43 406 17
	movq	-128(%rbp), %rsi
	movq	-120(%rbp), %rdx
Ltmp1095:
	leaq	-160(%rbp), %rdi
	callq	__ZN93_$LT$alloc..vec..Vec$LT$T$C$A$GT$$u20$as$u20$core..iter..traits..collect..Extend$LT$T$GT$$GT$6extend17h0e40c611d9f220cfE
Ltmp1096:
	jmp	LBB134_12
LBB134_12:
	.loc	43 0 17
	movq	-200(%rbp), %rax
	.loc	43 407 29 is_stmt 1
	movq	-160(%rbp), %rcx
	movq	%rcx, -112(%rbp)
	movq	-152(%rbp), %rcx
	movq	%rcx, -104(%rbp)
	movq	-144(%rbp), %rcx
	movq	%rcx, -96(%rbp)
	.loc	43 407 24 is_stmt 0
	movq	-112(%rbp), %rcx
	movq	%rcx, (%rax)
	movq	-104(%rbp), %rcx
	movq	%rcx, 8(%rax)
	movq	-96(%rbp), %rcx
	movq	%rcx, 16(%rax)
Ltmp1114:
	.loc	43 412 6 is_stmt 1
	jmp	LBB134_15
LBB134_13:
Ltmp1100:
	.loc	43 398 5
	callq	__ZN4core9panicking19panic_cannot_unwind17h1fbca7e1d7f56ae1E
LBB134_14:
	movq	-48(%rbp), %rdi
	callq	__Unwind_Resume
LBB134_15:
	.loc	43 0 5 is_stmt 0
	movq	-192(%rbp), %rax
	.loc	43 412 6 is_stmt 1
	addq	$256, %rsp
	popq	%rbp
	retq
Ltmp1115:
Lfunc_end134:
	.cfi_endproc
	.section	__TEXT,__gcc_except_tab
	.p2align	2
GCC_except_table134:
Lexception14:
	.byte	255
	.byte	255
	.byte	1
	.uleb128 Lcst_end14-Lcst_begin14
Lcst_begin14:
	.uleb128 Lfunc_begin134-Lfunc_begin134
	.uleb128 Ltmp1093-Lfunc_begin134
	.byte	0
	.byte	0
	.uleb128 Ltmp1093-Lfunc_begin134
	.uleb128 Ltmp1094-Ltmp1093
	.uleb128 Ltmp1097-Lfunc_begin134
	.byte	0
	.uleb128 Ltmp1094-Lfunc_begin134
	.uleb128 Ltmp1098-Ltmp1094
	.byte	0
	.byte	0
	.uleb128 Ltmp1098-Lfunc_begin134
	.uleb128 Ltmp1099-Ltmp1098
	.uleb128 Ltmp1100-Lfunc_begin134
	.byte	0
	.uleb128 Ltmp1095-Lfunc_begin134
	.uleb128 Ltmp1096-Ltmp1095
	.uleb128 Ltmp1097-Lfunc_begin134
	.byte	0
	.uleb128 Ltmp1096-Lfunc_begin134
	.uleb128 Lfunc_end134-Ltmp1096
	.byte	0
	.byte	0
Lcst_end14:
	.p2align	2

	.section	__TEXT,__text,regular,pure_instructions
	.p2align	4, 0x90
__ZN16percent_encoding13PercentDecode6if_any28_$u7b$$u7b$closure$u7d$$u7d$17hc166a2be2563153fE:
Lfunc_begin135:
	.loc	43 400 0
	.cfi_startproc
	pushq	%rbp
	.cfi_def_cfa_offset 16
	.cfi_offset %rbp, -16
	movq	%rsp, %rbp
	.cfi_def_cfa_register %rbp
	subq	$24, %rsp
	movq	%rdi, -24(%rbp)
	movq	%rsi, -16(%rbp)
Ltmp1116:
	.loc	43 400 32 prologue_end
	movb	(%rsi), %al
	movb	%al, -1(%rbp)
Ltmp1117:
	.loc	43 400 35 is_stmt 0
	cmpb	$37, %al
	sete	%al
Ltmp1118:
	.loc	43 400 44
	andb	$1, %al
	movzbl	%al, %eax
	addq	$24, %rsp
	popq	%rbp
	retq
Ltmp1119:
Lfunc_end135:
	.cfi_endproc

	.globl	__ZN16percent_encoding13PercentDecode11decode_utf817h3c3352f796fe09e3E
	.p2align	4, 0x90
__ZN16percent_encoding13PercentDecode11decode_utf817h3c3352f796fe09e3E:
Lfunc_begin136:
	.loc	43 418 0 is_stmt 1
	.cfi_startproc
	.cfi_personality 155, _rust_eh_personality
	.cfi_lsda 16, Lexception15
	pushq	%rbp
	.cfi_def_cfa_offset 16
	.cfi_offset %rbp, -16
	movq	%rsp, %rbp
	.cfi_def_cfa_register %rbp
	subq	$432, %rsp
	movq	%rdi, -424(%rbp)
	movq	%rdi, -416(%rbp)
	movq	%rsi, -408(%rbp)
	movq	%rdx, -400(%rbp)
Ltmp1126:
	.loc	43 419 15 prologue_end
	leaq	-408(%rbp), %rdi
	callq	__ZN70_$LT$percent_encoding..PercentDecode$u20$as$u20$core..clone..Clone$GT$5clone17h69f804ea1bcc27b2E
	movq	%rax, %rsi
	leaq	-392(%rbp), %rdi
	callq	__ZN50_$LT$T$u20$as$u20$core..convert..Into$LT$U$GT$$GT$4into17h16234ee799c76780E
	.loc	43 419 9 is_stmt 0
	cmpq	$0, -392(%rbp)
	jne	LBB136_2
	.loc	43 420 27 is_stmt 1
	movq	-384(%rbp), %rsi
	movq	-376(%rbp), %rdx
	movq	%rsi, -32(%rbp)
	movq	%rdx, -24(%rbp)
Ltmp1127:
	.loc	43 420 43 is_stmt 0
	leaq	-360(%rbp), %rdi
	callq	__ZN4core3str8converts9from_utf817h97544f31e939b049E
	.loc	43 420 37
	cmpq	$0, -360(%rbp)
	je	LBB136_11
	jmp	LBB136_12
Ltmp1128:
LBB136_2:
	.loc	43 424 24 is_stmt 1
	movq	-384(%rbp), %rax
	movq	%rax, -272(%rbp)
	movq	-376(%rbp), %rax
	movq	%rax, -264(%rbp)
	movq	-368(%rbp), %rax
	movq	%rax, -256(%rbp)
Ltmp1129:
	.loc	43 424 58 is_stmt 0
	movq	-272(%rbp), %rax
	movq	%rax, -208(%rbp)
	movq	-264(%rbp), %rax
	movq	%rax, -200(%rbp)
	movq	-256(%rbp), %rax
	movq	%rax, -192(%rbp)
	.loc	43 424 40
	leaq	-248(%rbp), %rdi
	leaq	-208(%rbp), %rsi
	callq	__ZN5alloc6string6String9from_utf817h0236dc997a4ba405E
	movl	$1, %eax
	xorl	%ecx, %ecx
	cmpb	$2, -240(%rbp)
	cmoveq	%rcx, %rax
	.loc	43 424 34
	cmpq	$0, %rax
	jne	LBB136_4
	.loc	43 425 20 is_stmt 1
	movq	-232(%rbp), %rax
	movq	%rax, -184(%rbp)
	movq	-224(%rbp), %rax
	movq	%rax, -176(%rbp)
	movq	-216(%rbp), %rax
	movq	%rax, -168(%rbp)
Ltmp1130:
	.loc	43 425 29 is_stmt 0
	movq	-184(%rbp), %rax
	movq	%rax, -128(%rbp)
	movq	-176(%rbp), %rax
	movq	%rax, -120(%rbp)
	movq	-168(%rbp), %rax
	movq	%rax, -112(%rbp)
	leaq	-160(%rbp), %rdi
	leaq	-128(%rbp), %rsi
	callq	__ZN50_$LT$T$u20$as$u20$core..convert..Into$LT$U$GT$$GT$4into17h66957494f4841e4eE
	movq	-424(%rbp), %rax
	.loc	43 425 26
	movq	-160(%rbp), %rcx
	movq	%rcx, (%rax)
	movq	-152(%rbp), %rcx
	movq	%rcx, 8(%rax)
	movq	-144(%rbp), %rcx
	movq	%rcx, 16(%rax)
	movq	-136(%rbp), %rcx
	movq	%rcx, 24(%rax)
Ltmp1131:
	.loc	43 425 37
	jmp	LBB136_10
LBB136_4:
	.loc	43 426 21 is_stmt 1
	movq	-216(%rbp), %rax
	movq	%rax, -72(%rbp)
	movq	-224(%rbp), %rax
	movq	%rax, -80(%rbp)
	movq	-232(%rbp), %rax
	movq	%rax, -88(%rbp)
	movq	-248(%rbp), %rax
	movq	-240(%rbp), %rcx
	movq	%rcx, -96(%rbp)
	movq	%rax, -104(%rbp)
Ltmp1120:
	leaq	-64(%rbp), %rdi
	leaq	-104(%rbp), %rsi
Ltmp1132:
	.loc	43 426 31 is_stmt 0
	callq	__ZN5alloc6string13FromUtf8Error10utf8_error17hc84bbbe90eb899daE
Ltmp1121:
	jmp	LBB136_7
Ltmp1133:
LBB136_5:
Ltmp1123:
	.loc	43 0 31
	leaq	-104(%rbp), %rdi
	.loc	43 426 45
	callq	__ZN4core3ptr49drop_in_place$LT$alloc..string..FromUtf8Error$GT$17h35c52bd62a0f808bE
Ltmp1124:
	jmp	LBB136_9
LBB136_6:
Ltmp1122:
	.loc	43 0 45
	movq	%rax, %rcx
	movl	%edx, %eax
	movq	%rcx, -48(%rbp)
	movl	%eax, -40(%rbp)
	jmp	LBB136_5
LBB136_7:
	movq	-424(%rbp), %rax
Ltmp1134:
	.loc	43 426 27
	movq	-64(%rbp), %rcx
	movq	%rcx, 8(%rax)
	movq	-56(%rbp), %rcx
	movq	%rcx, 16(%rax)
	movq	$2, (%rax)
Ltmp1135:
	.loc	43 426 45
	leaq	-104(%rbp), %rdi
	callq	__ZN4core3ptr49drop_in_place$LT$alloc..string..FromUtf8Error$GT$17h35c52bd62a0f808bE
	jmp	LBB136_10
Ltmp1136:
LBB136_8:
Ltmp1125:
	.loc	43 418 5 is_stmt 1
	callq	__ZN4core9panicking19panic_cannot_unwind17h1fbca7e1d7f56ae1E
LBB136_9:
	movq	-48(%rbp), %rdi
	callq	__Unwind_Resume
LBB136_10:
	.loc	43 0 5 is_stmt 0
	movq	-416(%rbp), %rax
	.loc	43 429 6 is_stmt 1
	addq	$432, %rsp
	popq	%rbp
	retq
LBB136_11:
Ltmp1137:
	.loc	43 421 20
	movq	-352(%rbp), %rsi
	movq	-344(%rbp), %rdx
	movq	%rsi, -16(%rbp)
	movq	%rdx, -8(%rbp)
Ltmp1138:
	.loc	43 421 29 is_stmt 0
	leaq	-336(%rbp), %rdi
	callq	__ZN50_$LT$T$u20$as$u20$core..convert..Into$LT$U$GT$$GT$4into17h83533c440f0f5146E
	movq	-424(%rbp), %rax
	.loc	43 421 26
	movq	-336(%rbp), %rcx
	movq	%rcx, (%rax)
	movq	-328(%rbp), %rcx
	movq	%rcx, 8(%rax)
	movq	-320(%rbp), %rcx
	movq	%rcx, 16(%rax)
	movq	-312(%rbp), %rcx
	movq	%rcx, 24(%rax)
Ltmp1139:
	.loc	43 421 37
	jmp	LBB136_10
LBB136_12:
	.loc	43 0 37
	movq	-424(%rbp), %rax
	.loc	43 422 21 is_stmt 1
	movq	-352(%rbp), %rcx
	movq	%rcx, -304(%rbp)
	movq	-344(%rbp), %rcx
	movq	%rcx, -296(%rbp)
Ltmp1140:
	.loc	43 422 31 is_stmt 0
	movq	-304(%rbp), %rcx
	movq	%rcx, -288(%rbp)
	movq	-296(%rbp), %rcx
	movq	%rcx, -280(%rbp)
	.loc	43 422 27
	movq	-288(%rbp), %rcx
	movq	%rcx, 8(%rax)
	movq	-280(%rbp), %rcx
	movq	%rcx, 16(%rax)
	movq	$2, (%rax)
Ltmp1141:
	.loc	43 422 32
	jmp	LBB136_10
Ltmp1142:
Lfunc_end136:
	.cfi_endproc
	.section	__TEXT,__gcc_except_tab
	.p2align	2
GCC_except_table136:
Lexception15:
	.byte	255
	.byte	255
	.byte	1
	.uleb128 Lcst_end15-Lcst_begin15
Lcst_begin15:
	.uleb128 Lfunc_begin136-Lfunc_begin136
	.uleb128 Ltmp1120-Lfunc_begin136
	.byte	0
	.byte	0
	.uleb128 Ltmp1120-Lfunc_begin136
	.uleb128 Ltmp1121-Ltmp1120
	.uleb128 Ltmp1122-Lfunc_begin136
	.byte	0
	.uleb128 Ltmp1123-Lfunc_begin136
	.uleb128 Ltmp1124-Ltmp1123
	.uleb128 Ltmp1125-Lfunc_begin136
	.byte	0
	.uleb128 Ltmp1124-Lfunc_begin136
	.uleb128 Lfunc_end136-Ltmp1124
	.byte	0
	.byte	0
Lcst_end15:
	.p2align	2

	.section	__TEXT,__text,regular,pure_instructions
	.globl	__ZN16percent_encoding13PercentDecode17decode_utf8_lossy17h5eba066e8ecc26d6E
	.p2align	4, 0x90
__ZN16percent_encoding13PercentDecode17decode_utf8_lossy17h5eba066e8ecc26d6E:
Lfunc_begin137:
	.loc	43 436 0 is_stmt 1
	.cfi_startproc
	pushq	%rbp
	.cfi_def_cfa_offset 16
	.cfi_offset %rbp, -16
	movq	%rsp, %rbp
	.cfi_def_cfa_register %rbp
	subq	$64, %rsp
	movq	%rdi, -64(%rbp)
	movq	%rdi, -56(%rbp)
	movq	%rsi, -48(%rbp)
	movq	%rdx, -40(%rbp)
Ltmp1143:
	.loc	43 437 27 prologue_end
	leaq	-48(%rbp), %rdi
	callq	__ZN70_$LT$percent_encoding..PercentDecode$u20$as$u20$core..clone..Clone$GT$5clone17h69f804ea1bcc27b2E
	movq	%rax, %rsi
	leaq	-32(%rbp), %rdi
	callq	__ZN50_$LT$T$u20$as$u20$core..convert..Into$LT$U$GT$$GT$4into17h16234ee799c76780E
	movq	-64(%rbp), %rdi
	.loc	43 437 9 is_stmt 0
	leaq	-32(%rbp), %rsi
	callq	__ZN16percent_encoding17decode_utf8_lossy17hc117899126f28071E
	movq	-56(%rbp), %rax
	.loc	43 438 6 is_stmt 1
	addq	$64, %rsp
	popq	%rbp
	retq
Ltmp1144:
Lfunc_end137:
	.cfi_endproc

	.p2align	4, 0x90
__ZN16percent_encoding17decode_utf8_lossy17hc117899126f28071E:
Lfunc_begin138:
	.loc	43 442 0
	.cfi_startproc
	.cfi_personality 155, _rust_eh_personality
	.cfi_lsda 16, Lexception16
	pushq	%rbp
	.cfi_def_cfa_offset 16
	.cfi_offset %rbp, -16
	movq	%rsp, %rbp
	.cfi_def_cfa_register %rbp
	subq	$352, %rsp
	movq	%rsi, -280(%rbp)
Ltmp1159:
	movq	%rdi, -272(%rbp)
	movq	%rdi, -264(%rbp)
Ltmp1160:
	.loc	43 444 11 prologue_end
	movb	$0, -97(%rbp)
	.loc	43 444 5 is_stmt 0
	cmpq	$0, (%rsi)
Ltmp1161:
	jne	LBB138_2
Ltmp1162:
	.loc	43 0 5
	movq	-272(%rbp), %rdi
	movq	-280(%rbp), %rax
	.loc	43 445 23 is_stmt 1
	movq	8(%rax), %rsi
	movq	16(%rax), %rdx
	movq	%rsi, -48(%rbp)
	movq	%rdx, -40(%rbp)
Ltmp1163:
	.loc	43 445 33 is_stmt 0
	callq	__ZN5alloc6string6String15from_utf8_lossy17haeafe2df5b8457e4E
	jmp	LBB138_21
Ltmp1164:
LBB138_2:
	.loc	43 0 33
	movq	-280(%rbp), %rcx
	.loc	43 446 20 is_stmt 1
	movb	$1, -97(%rbp)
	movq	24(%rcx), %rax
	movq	%rax, -240(%rbp)
	movq	8(%rcx), %rax
	movq	16(%rcx), %rcx
	movq	%rcx, -248(%rbp)
	movq	%rax, -256(%rbp)
Ltmp1145:
	leaq	-256(%rbp), %rdi
Ltmp1165:
	.loc	43 447 43
	callq	__ZN72_$LT$alloc..vec..Vec$LT$T$C$A$GT$$u20$as$u20$core..ops..deref..Deref$GT$5deref17h7a5c131a8ce8beeeE
Ltmp1146:
	movq	%rdx, -296(%rbp)
	movq	%rax, -288(%rbp)
	jmp	LBB138_5
Ltmp1166:
LBB138_3:
	.loc	43 466 9
	testb	$1, -97(%rbp)
	jne	LBB138_17
	jmp	LBB138_16
Ltmp1167:
LBB138_4:
Ltmp1155:
	.loc	43 0 9 is_stmt 0
	movq	%rax, %rcx
	movl	%edx, %eax
	movq	%rcx, -96(%rbp)
	movl	%eax, -88(%rbp)
	jmp	LBB138_3
Ltmp1168:
LBB138_5:
Ltmp1147:
	movq	-296(%rbp), %rdx
	movq	-288(%rbp), %rsi
	leaq	-232(%rbp), %rdi
Ltmp1169:
	.loc	43 447 19 is_stmt 1
	callq	__ZN5alloc6string6String15from_utf8_lossy17haeafe2df5b8457e4E
Ltmp1148:
	jmp	LBB138_6
Ltmp1170:
LBB138_6:
	.loc	43 447 13 is_stmt 0
	cmpq	$0, -232(%rbp)
	jne	LBB138_8
Ltmp1171:
	.loc	43 448 31 is_stmt 1
	movq	-224(%rbp), %rcx
	movq	-216(%rbp), %rax
	movq	%rcx, -80(%rbp)
	movq	%rax, -72(%rbp)
	movq	%rcx, -32(%rbp)
	movq	%rax, -24(%rbp)
Ltmp1172:
	.loc	22 327 18
	movq	%rcx, -16(%rbp)
	movq	%rax, -8(%rbp)
	movq	-16(%rbp), %rax
	movq	%rax, -312(%rbp)
	movq	-8(%rbp), %rax
	movq	%rax, -304(%rbp)
	.loc	22 328 6
	jmp	LBB138_10
Ltmp1173:
LBB138_8:
	.loc	22 0 6 is_stmt 0
	movq	-272(%rbp), %rax
	.loc	43 464 28 is_stmt 1
	movq	-224(%rbp), %rcx
	movq	%rcx, -152(%rbp)
	movq	-216(%rbp), %rcx
	movq	%rcx, -144(%rbp)
	movq	-208(%rbp), %rcx
	movq	%rcx, -136(%rbp)
Ltmp1174:
	.loc	43 464 45 is_stmt 0
	movq	-152(%rbp), %rcx
	movq	%rcx, -128(%rbp)
	movq	-144(%rbp), %rcx
	movq	%rcx, -120(%rbp)
	movq	-136(%rbp), %rcx
	movq	%rcx, -112(%rbp)
	.loc	43 464 34
	movq	-128(%rbp), %rcx
	movq	%rcx, 8(%rax)
	movq	-120(%rbp), %rcx
	movq	%rcx, 16(%rax)
	movq	-112(%rbp), %rcx
	movq	%rcx, 24(%rax)
	movq	$1, (%rax)
Ltmp1175:
LBB138_9:
	.loc	43 466 9 is_stmt 1
	testb	$1, -97(%rbp)
	jne	LBB138_20
	jmp	LBB138_19
Ltmp1176:
LBB138_10:
	.loc	43 0 9 is_stmt 0
	movq	-304(%rbp), %rax
	movq	-312(%rbp), %rcx
Ltmp1177:
	.loc	43 456 49 is_stmt 1
	movq	%rcx, %rdx
	movq	%rdx, -344(%rbp)
	movq	%rax, %rdx
	movq	%rdx, -336(%rbp)
	movq	%rcx, -64(%rbp)
	movq	%rax, -56(%rbp)
Ltmp1149:
	leaq	-256(%rbp), %rdi
Ltmp1178:
	.loc	43 457 48
	callq	__ZN72_$LT$alloc..vec..Vec$LT$T$C$A$GT$$u20$as$u20$core..ops..deref..Deref$GT$5deref17h7a5c131a8ce8beeeE
Ltmp1150:
	movq	%rdx, -328(%rbp)
	movq	%rax, -320(%rbp)
	jmp	LBB138_11
Ltmp1179:
LBB138_11:
	.loc	43 0 48 is_stmt 0
	movq	-336(%rbp), %rcx
	movq	-328(%rbp), %rdx
	movq	-344(%rbp), %rax
	movq	-320(%rbp), %rsi
	.loc	43 457 35
	cmpq	%rsi, %rax
	sete	%al
	cmpq	%rdx, %rcx
	sete	%cl
	andb	%cl, %al
	.loc	43 457 21
	xorb	$-1, %al
	testb	$1, %al
	jne	LBB138_13
Ltmp1180:
	.loc	43 462 69 is_stmt 1
	movb	$0, -97(%rbp)
	movq	-240(%rbp), %rax
	movq	%rax, -160(%rbp)
	movq	-256(%rbp), %rax
	movq	-248(%rbp), %rcx
	movq	%rcx, -168(%rbp)
	movq	%rax, -176(%rbp)
Ltmp1151:
	leaq	-200(%rbp), %rdi
	leaq	-176(%rbp), %rsi
	.loc	43 462 41 is_stmt 0
	callq	__ZN5alloc6string6String19from_utf8_unchecked17hbcaf48ea4a7b6313E
Ltmp1152:
	jmp	LBB138_15
Ltmp1181:
LBB138_13:
Ltmp1153:
	.loc	43 457 21 is_stmt 1
	leaq	l___unnamed_34(%rip), %rdi
	leaq	l___unnamed_35(%rip), %rdx
	movl	$52, %esi
	callq	__ZN4core9panicking5panic17hc1bc45270cf64b03E
Ltmp1154:
	jmp	LBB138_14
Ltmp1182:
LBB138_14:
	.loc	43 0 21 is_stmt 0
	ud2
Ltmp1183:
LBB138_15:
	movq	-272(%rbp), %rax
	.loc	43 462 21 is_stmt 1
	movq	-200(%rbp), %rcx
	movq	%rcx, 8(%rax)
	movq	-192(%rbp), %rcx
	movq	%rcx, 16(%rax)
	movq	-184(%rbp), %rcx
	movq	%rcx, 24(%rax)
	movq	$1, (%rax)
Ltmp1184:
	.loc	43 463 17
	jmp	LBB138_9
Ltmp1185:
LBB138_16:
	.loc	43 442 1
	movq	-96(%rbp), %rdi
	callq	__Unwind_Resume
Ltmp1186:
LBB138_17:
Ltmp1156:
	.loc	43 0 1 is_stmt 0
	leaq	-256(%rbp), %rdi
	.loc	43 466 9 is_stmt 1
	callq	__ZN4core3ptr46drop_in_place$LT$alloc..vec..Vec$LT$u8$GT$$GT$17h83e90276065d94e4E
Ltmp1157:
	jmp	LBB138_16
Ltmp1187:
LBB138_18:
Ltmp1158:
	.loc	43 442 1
	callq	__ZN4core9panicking19panic_cannot_unwind17h1fbca7e1d7f56ae1E
Ltmp1188:
LBB138_19:
	.loc	43 466 9
	movb	$0, -97(%rbp)
	jmp	LBB138_21
Ltmp1189:
LBB138_20:
	leaq	-256(%rbp), %rdi
	callq	__ZN4core3ptr46drop_in_place$LT$alloc..vec..Vec$LT$u8$GT$$GT$17h83e90276065d94e4E
	jmp	LBB138_19
Ltmp1190:
LBB138_21:
	.loc	43 0 9 is_stmt 0
	movq	-264(%rbp), %rax
	.loc	43 468 2 is_stmt 1
	addq	$352, %rsp
	popq	%rbp
	retq
Ltmp1191:
Lfunc_end138:
	.cfi_endproc
	.section	__TEXT,__gcc_except_tab
	.p2align	2
GCC_except_table138:
Lexception16:
	.byte	255
	.byte	255
	.byte	1
	.uleb128 Lcst_end16-Lcst_begin16
Lcst_begin16:
	.uleb128 Lfunc_begin138-Lfunc_begin138
	.uleb128 Ltmp1145-Lfunc_begin138
	.byte	0
	.byte	0
	.uleb128 Ltmp1145-Lfunc_begin138
	.uleb128 Ltmp1154-Ltmp1145
	.uleb128 Ltmp1155-Lfunc_begin138
	.byte	0
	.uleb128 Ltmp1154-Lfunc_begin138
	.uleb128 Ltmp1156-Ltmp1154
	.byte	0
	.byte	0
	.uleb128 Ltmp1156-Lfunc_begin138
	.uleb128 Ltmp1157-Ltmp1156
	.uleb128 Ltmp1158-Lfunc_begin138
	.byte	0
	.uleb128 Ltmp1157-Lfunc_begin138
	.uleb128 Lfunc_end138-Ltmp1157
	.byte	0
	.byte	0
Lcst_end16:
	.p2align	2

	.section	__TEXT,__text,regular,pure_instructions
	.p2align	4, 0x90
__ZN70_$LT$percent_encoding..PercentEncode$u20$as$u20$core..clone..Clone$GT$5clone17h925e66f9e3596095E:
Lfunc_begin139:
	.loc	43 247 0
	.cfi_startproc
	pushq	%rbp
	.cfi_def_cfa_offset 16
	.cfi_offset %rbp, -16
	movq	%rsp, %rbp
	.cfi_def_cfa_register %rbp
	subq	$24, %rsp
	movq	%rsi, %rcx
	movq	%rdi, %rax
	movq	%rcx, -24(%rbp)
	movq	%rcx, -8(%rbp)
Ltmp1192:
	.file	46 "/rustc/2c8cc343237b8f7d5a3c3703e3a87f2eb2c54a74/library/core/src" "clone.rs"
	.loc	46 237 13 prologue_end
	movq	(%rcx), %rsi
	movq	8(%rcx), %rdx
Ltmp1193:
	.loc	43 250 5
	movq	%rcx, %r8
	addq	$16, %r8
	movq	%r8, -16(%rbp)
Ltmp1194:
	.loc	46 237 13
	movq	16(%rcx), %rcx
Ltmp1195:
	.loc	43 247 10
	movq	%rsi, (%rdi)
	movq	%rdx, 8(%rdi)
	movq	%rcx, 16(%rdi)
	.loc	43 247 15 is_stmt 0
	addq	$24, %rsp
	popq	%rbp
	retq
Ltmp1196:
Lfunc_end139:
	.cfi_endproc

	.p2align	4, 0x90
__ZN70_$LT$percent_encoding..PercentDecode$u20$as$u20$core..clone..Clone$GT$5clone17h69f804ea1bcc27b2E:
Lfunc_begin140:
	.loc	43 353 0 is_stmt 1
	.cfi_startproc
	pushq	%rbp
	.cfi_def_cfa_offset 16
	.cfi_offset %rbp, -16
	movq	%rsp, %rbp
	.cfi_def_cfa_register %rbp
	subq	$32, %rsp
	movq	%rdi, -8(%rbp)
Ltmp1197:
	.loc	43 355 5 prologue_end
	callq	__ZN71_$LT$core..slice..iter..Iter$LT$T$GT$$u20$as$u20$core..clone..Clone$GT$5clone17h71113a439e1469fbE
	.loc	43 353 10
	movq	%rax, -24(%rbp)
	movq	%rdx, -16(%rbp)
	.loc	43 353 15 is_stmt 0
	movq	-24(%rbp), %rax
	movq	-16(%rbp), %rdx
	addq	$32, %rsp
	popq	%rbp
	retq
Ltmp1198:
Lfunc_end140:
	.cfi_endproc

	.globl	__ZN68_$LT$percent_encoding..PercentDecode$u20$as$u20$core..fmt..Debug$GT$3fmt17h51e345edbe50c5e7E
	.p2align	4, 0x90
__ZN68_$LT$percent_encoding..PercentDecode$u20$as$u20$core..fmt..Debug$GT$3fmt17h51e345edbe50c5e7E:
Lfunc_begin141:
	.loc	43 353 0 is_stmt 1
	.cfi_startproc
	pushq	%rbp
	.cfi_def_cfa_offset 16
	.cfi_offset %rbp, -16
	movq	%rsp, %rbp
	.cfi_def_cfa_register %rbp
	subq	$48, %rsp
	movq	%rsi, -32(%rbp)
	movq	%rdi, %rax
	movq	-32(%rbp), %rdi
	movq	%rax, -16(%rbp)
	movq	%rdi, -8(%rbp)
Ltmp1199:
	.loc	43 355 5 prologue_end
	movq	%rax, -24(%rbp)
	.loc	43 353 17
	leaq	l___unnamed_36(%rip), %rsi
	movl	$13, %edx
	leaq	l___unnamed_37(%rip), %rcx
	movl	$5, %r8d
	leaq	-24(%rbp), %r9
	leaq	l___unnamed_3(%rip), %rax
	movq	%rax, (%rsp)
	callq	__ZN4core3fmt9Formatter26debug_struct_field1_finish17ha7aba2fd90afbefeE
	.loc	43 353 22 is_stmt 0
	andb	$1, %al
	movzbl	%al, %eax
	addq	$48, %rsp
	popq	%rbp
	retq
Ltmp1200:
Lfunc_end141:
	.cfi_endproc

	.section	__TEXT,__const
l___unnamed_38:
	.ascii	"/rustc/2c8cc343237b8f7d5a3c3703e3a87f2eb2c54a74/library/core/src/iter/adapters/enumerate.rs"

	.section	__DATA,__const
	.p2align	3
l___unnamed_4:
	.quad	l___unnamed_38
	.asciz	"[\000\000\000\000\000\000\0000\000\000\000\t\000\000"

	.section	__TEXT,__const
	.p2align	4
_str.0:
	.ascii	"attempt to add with overflow"

	.section	__DATA,__const
	.p2align	3
l___unnamed_1:
	.quad	__ZN4core3ptr27drop_in_place$LT$$RF$u8$GT$17h40cc136f3c8f774cE
	.asciz	"\b\000\000\000\000\000\000\000\b\000\000\000\000\000\000"
	.quad	__ZN42_$LT$$RF$T$u20$as$u20$core..fmt..Debug$GT$3fmt17h7a2c8a1eeb759d43E

	.section	__TEXT,__const
l___unnamed_39:
	.ascii	"invalid args"

	.section	__DATA,__const
	.p2align	3
l___unnamed_5:
	.quad	l___unnamed_39
	.asciz	"\f\000\000\000\000\000\000"

	.section	__TEXT,__const
	.p2align	3
l___unnamed_6:
	.byte	0

l___unnamed_40:
	.ascii	"/rustc/2c8cc343237b8f7d5a3c3703e3a87f2eb2c54a74/library/core/src/fmt/mod.rs"

	.section	__DATA,__const
	.p2align	3
l___unnamed_7:
	.quad	l___unnamed_40
	.asciz	"K\000\000\000\000\000\000\000\221\001\000\000\r\000\000"

	.section	__TEXT,__const
l___unnamed_8:
	.ascii	"assertion failed: 0 < pointee_size && pointee_size <= isize::MAX as usize"

l___unnamed_41:
	.ascii	"/rustc/2c8cc343237b8f7d5a3c3703e3a87f2eb2c54a74/library/core/src/ptr/const_ptr.rs"

	.section	__DATA,__const
	.p2align	3
l___unnamed_9:
	.quad	l___unnamed_41
	.asciz	"Q\000\000\000\000\000\000\000&\003\000\000\t\000\000"

	.section	__TEXT,__const
l___unnamed_42:
	.ascii	"to_digit: radix is too high (maximum 36)"

	.section	__DATA,__const
	.p2align	3
l___unnamed_10:
	.quad	l___unnamed_42
	.asciz	"(\000\000\000\000\000\000"

	.section	__TEXT,__const
l___unnamed_43:
	.ascii	"/rustc/2c8cc343237b8f7d5a3c3703e3a87f2eb2c54a74/library/core/src/char/methods.rs"

	.section	__DATA,__const
	.p2align	3
l___unnamed_11:
	.quad	l___unnamed_43
	.asciz	"P\000\000\000\000\000\000\000]\001\000\000\r\000\000"

	.section	__TEXT,__const
l___unnamed_44:
	.ascii	"/rustc/2c8cc343237b8f7d5a3c3703e3a87f2eb2c54a74/library/core/src/alloc/layout.rs"

	.section	__DATA,__const
	.p2align	3
l___unnamed_12:
	.quad	l___unnamed_44
	.asciz	"P\000\000\000\000\000\000\000\304\001\000\000)\000\000"

	.section	__TEXT,__const
	.p2align	4
_str.1:
	.ascii	"attempt to divide by zero"

l___unnamed_13:
	.ascii	"assertion failed: mid <= self.len()"

l___unnamed_45:
	.ascii	"/rustc/2c8cc343237b8f7d5a3c3703e3a87f2eb2c54a74/library/alloc/src/raw_vec.rs"

	.section	__DATA,__const
	.p2align	3
l___unnamed_14:
	.quad	l___unnamed_45
	.asciz	"L\000\000\000\000\000\000\000\367\000\000\000;\000\000"

	.section	__TEXT,__literal4,4byte_literals
L___unnamed_15:
	.ascii	"Iter"

	.section	__DATA,__const
	.p2align	3
l___unnamed_2:
	.quad	__ZN4core3ptr37drop_in_place$LT$$RF$$u5b$u8$u5d$$GT$17ha372b6f873942ef7E
	.asciz	"\020\000\000\000\000\000\000\000\b\000\000\000\000\000\000"
	.quad	__ZN42_$LT$$RF$T$u20$as$u20$core..fmt..Debug$GT$3fmt17h531f7dce34f264d7E

	.section	__TEXT,__const
l___unnamed_46:
	.ascii	"/Users/natalie/.cargo/registry/src/github.com-1ecc6299db9ec823/percent-encoding-2.2.0/src/lib.rs"

	.section	__DATA,__const
	.p2align	3
l___unnamed_16:
	.quad	l___unnamed_46
	.asciz	"`\000\000\000\000\000\000\000O\000\000\000\025\000\000"

	.p2align	3
l___unnamed_17:
	.quad	l___unnamed_46
	.asciz	"`\000\000\000\000\000\000\000P\000\000\000\024\000\000"

	.section	__TEXT,__const
	.p2align	4
_str.2:
	.ascii	"attempt to shift left with overflow"

	.section	__DATA,__const
	.p2align	3
l___unnamed_18:
	.quad	l___unnamed_46
	.asciz	"`\000\000\000\000\000\000\000Z\000\000\0001\000\000"

	.p2align	3
l___unnamed_19:
	.quad	l___unnamed_46
	.asciz	"`\000\000\000\000\000\000\000Z\000\000\000\t\000\000"

	.p2align	3
l___unnamed_20:
	.quad	l___unnamed_46
	.asciz	"`\000\000\000\000\000\000\000`\000\000\0002\000\000"

	.p2align	3
l___unnamed_21:
	.quad	l___unnamed_46
	.asciz	"`\000\000\000\000\000\000\000`\000\000\000\t\000\000"

	.p2align	3
l___unnamed_22:
	.quad	l___unnamed_46
	.asciz	"`\000\000\000\000\000\000\000\270\000\000\000\021\000\000"

	.section	__TEXT,__const
	.p2align	4
_str.3:
	.ascii	"attempt to multiply with overflow"

l___unnamed_23:
	.ascii	"%00%01%02%03%04%05%06%07%08%09%0A%0B%0C%0D%0E%0F%10%11%12%13%14%15%16%17%18%19%1A%1B%1C%1D%1E%1F%20%21%22%23%24%25%26%27%28%29%2A%2B%2C%2D%2E%2F%30%31%32%33%34%35%36%37%38%39%3A%3B%3C%3D%3E%3F%40%41%42%43%44%45%46%47%48%49%4A%4B%4C%4D%4E%4F%50%51%52%53%54%55%56%57%58%59%5A%5B%5C%5D%5E%5F%60%61%62%63%64%65%66%67%68%69%6A%6B%6C%6D%6E%6F%70%71%72%73%74%75%76%77%78%79%7A%7B%7C%7D%7E%7F%80%81%82%83%84%85%86%87%88%89%8A%8B%8C%8D%8E%8F%90%91%92%93%94%95%96%97%98%99%9A%9B%9C%9D%9E%9F%A0%A1%A2%A3%A4%A5%A6%A7%A8%A9%AA%AB%AC%AD%AE%AF%B0%B1%B2%B3%B4%B5%B6%B7%B8%B9%BA%BB%BC%BD%BE%BF%C0%C1%C2%C3%C4%C5%C6%C7%C8%C9%CA%CB%CC%CD%CE%CF%D0%D1%D2%D3%D4%D5%D6%D7%D8%D9%DA%DB%DC%DD%DE%DF%E0%E1%E2%E3%E4%E5%E6%E7%E8%E9%EA%EB%EC%ED%EE%EF%F0%F1%F2%F3%F4%F5%F6%F7%F8%F9%FA%FB%FC%FD%FE%FF"

	.section	__DATA,__const
	.p2align	3
l___unnamed_25:
	.quad	l___unnamed_46
	.asciz	"`\000\000\000\000\000\000\000\312\000\000\000\020\000\000"

	.p2align	3
l___unnamed_24:
	.quad	l___unnamed_46
	.asciz	"`\000\000\000\000\000\000\000\271\000\000\000\006\000\000"

	.p2align	3
l___unnamed_28:
	.quad	l___unnamed_46
	.asciz	"`\000\000\000\000\000\000\000\013\001\000\000P\000\000"

	.p2align	3
l___unnamed_27:
	.quad	l___unnamed_46
	.asciz	"`\000\000\000\000\000\000\000\013\001\000\000G\000\000"

	.p2align	3
l___unnamed_26:
	.quad	l___unnamed_46
	.asciz	"`\000\000\000\000\000\000\000\021\001\000\000\037\000\000"

	.p2align	3
l___unnamed_29:
	.quad	l___unnamed_46
	.asciz	"`\000\000\000\000\000\000\000%\001\000\000\r\000\000"

	.p2align	3
l___unnamed_30:
	.quad	l___unnamed_46
	.asciz	"`\000\000\000\000\000\000\000k\001\000\000\n\000\000"

	.p2align	3
l___unnamed_31:
	.quad	l___unnamed_46
	.asciz	"`\000\000\000\000\000\000\000}\001\000\000\n\000\000"

	.p2align	3
l___unnamed_32:
	.quad	l___unnamed_46
	.asciz	"`\000\000\000\000\000\000\000\223\001\000\000+\000\000"

	.section	__TEXT,__const
	.p2align	4
_str.4:
	.ascii	"attempt to subtract with overflow"

	.section	__DATA,__const
	.p2align	3
l___unnamed_33:
	.quad	l___unnamed_46
	.asciz	"`\000\000\000\000\000\000\000\224\001\000\000#\000\000"

	.section	__TEXT,__const
l___unnamed_34:
	.ascii	"assertion failed: raw_utf8 == &*bytes as *const [u8]"

	.section	__DATA,__const
	.p2align	3
l___unnamed_35:
	.quad	l___unnamed_46
	.asciz	"`\000\000\000\000\000\000\000\311\001\000\000\025\000\000"

	.section	__TEXT,__const
l___unnamed_36:
	.ascii	"PercentDecode"

l___unnamed_37:
	.ascii	"bytes"

	.section	__DATA,__const
	.p2align	3
l___unnamed_3:
	.quad	__ZN4core3ptr58drop_in_place$LT$$RF$core..slice..iter..Iter$LT$u8$GT$$GT$17hc48ebd81f582a5d3E
	.asciz	"\b\000\000\000\000\000\000\000\b\000\000\000\000\000\000"
	.quad	__ZN42_$LT$$RF$T$u20$as$u20$core..fmt..Debug$GT$3fmt17hf2c8f2b14dc52f25E

	.section	__DATA,__const
Lsec_end0:
	.section	__TEXT,__text,regular,pure_instructions
Lsec_end1: