	.section	__TEXT,__text,regular,pure_instructions
	.macosx_version_min 10, 7
	.file	1 "/Users/natalie/.cargo/registry/src/github.com-1ecc6299db9ec823/proc-macro2-1.0.47" "src/detection.rs"
	.globl	__ZN103_$LT$alloc..vec..into_iter..IntoIter$LT$T$C$A$GT$$u20$as$u20$core..iter..traits..iterator..Iterator$GT$4next17h42391b13ccf7e79bE
	.p2align	4, 0x90
__ZN103_$LT$alloc..vec..into_iter..IntoIter$LT$T$C$A$GT$$u20$as$u20$core..iter..traits..iterator..Iterator$GT$4next17h42391b13ccf7e79bE:
Lfunc_begin0:
	.file	2 "/rustc/2c8cc343237b8f7d5a3c3703e3a87f2eb2c54a74/library/alloc/src/vec" "into_iter.rs"
	.loc	2 187 0
	.cfi_startproc
	pushq	%rbp
	.cfi_def_cfa_offset 16
	.cfi_offset %rbp, -16
	movq	%rsp, %rbp
	.cfi_def_cfa_register %rbp
	subq	$464, %rsp
	movq	%rsi, -464(%rbp)
	movq	%rdi, -456(%rbp)
	movq	%rdi, -448(%rbp)
	movq	%rsi, -144(%rbp)
Ltmp0:
	.loc	2 188 12 prologue_end
	movq	8(%rsi), %rax
	cmpq	16(%rsi), %rax
	je	LBB0_2
	.loc	2 190 19
	xorl	%eax, %eax
	testb	$1, %al
	jne	LBB0_5
	jmp	LBB0_4
LBB0_2:
	.loc	2 0 19 is_stmt 0
	movq	-456(%rbp), %rax
	.loc	2 189 13 is_stmt 1
	movl	$4, (%rax)
LBB0_3:
	.loc	2 0 13 is_stmt 0
	movq	-448(%rbp), %rax
	.loc	2 203 6 is_stmt 1
	addq	$464, %rsp
	popq	%rbp
	retq
LBB0_4:
	.loc	2 0 6 is_stmt 0
	movq	-464(%rbp), %rax
	.loc	2 198 23 is_stmt 1
	movq	8(%rax), %rsi
	movq	%rsi, -48(%rbp)
Ltmp1:
	.loc	2 199 33
	movq	8(%rax), %rcx
	movq	%rcx, -40(%rbp)
Ltmp2:
	.file	3 "/rustc/2c8cc343237b8f7d5a3c3703e3a87f2eb2c54a74/library/core/src/ptr" "const_ptr.rs"
	.loc	3 932 18
	movq	%rcx, -32(%rbp)
Ltmp3:
	.loc	3 473 18
	addq	$40, %rcx
	movq	%rcx, -24(%rbp)
	movq	-24(%rbp), %rcx
Ltmp4:
	.loc	2 199 13
	movq	%rcx, 8(%rax)
	.loc	2 201 37
	movq	%rsi, -16(%rbp)
Ltmp5:
	.file	4 "/rustc/2c8cc343237b8f7d5a3c3703e3a87f2eb2c54a74/library/core/src/ptr" "mod.rs"
	.loc	4 1157 34
	leaq	-264(%rbp), %rax
	movq	%rax, -8(%rbp)
	.loc	4 1157 9 is_stmt 0
	leaq	-264(%rbp), %rdi
	movl	$40, %edx
	callq	_memcpy
	.loc	4 1158 9 is_stmt 1
	leaq	-224(%rbp), %rdi
	leaq	-264(%rbp), %rsi
	movl	$40, %edx
	callq	_memcpy
Ltmp6:
	.file	5 "/rustc/2c8cc343237b8f7d5a3c3703e3a87f2eb2c54a74/library/core/src/mem" "maybe_uninit.rs"
	.loc	5 627 38
	leaq	-184(%rbp), %rdi
	leaq	-224(%rbp), %rsi
	movl	$40, %edx
	callq	_memcpy
Ltmp7:
	.file	6 "/rustc/2c8cc343237b8f7d5a3c3703e3a87f2eb2c54a74/library/core/src/mem" "manually_drop.rs"
	.loc	6 89 9
	leaq	-400(%rbp), %rdi
	leaq	-184(%rbp), %rsi
	movl	$40, %edx
	callq	_memcpy
	movq	-456(%rbp), %rdi
Ltmp8:
	.loc	2 201 13
	leaq	-400(%rbp), %rsi
	movl	$40, %edx
	callq	_memcpy
Ltmp9:
	.loc	2 190 16
	jmp	LBB0_6
LBB0_5:
	.loc	2 0 16 is_stmt 0
	movq	-464(%rbp), %rax
	.loc	2 193 24 is_stmt 1
	movq	16(%rax), %rcx
	movq	%rcx, -128(%rbp)
Ltmp10:
	.loc	3 1198 9
	movq	%rcx, -120(%rbp)
Ltmp11:
	.loc	3 61 9
	movq	%rcx, -112(%rbp)
Ltmp12:
	.loc	3 1180 9
	movq	%rcx, -104(%rbp)
Ltmp13:
	.loc	3 555 18
	addq	$-1, %rcx
	movq	%rcx, -96(%rbp)
	movq	-96(%rbp), %rcx
	movq	%rcx, -88(%rbp)
Ltmp14:
	.loc	3 100 29
	movq	%rcx, -80(%rbp)
Ltmp15:
	.file	7 "/rustc/2c8cc343237b8f7d5a3c3703e3a87f2eb2c54a74/library/core/src/ptr" "metadata.rs"
	.loc	7 118 36
	movq	%rcx, -352(%rbp)
	.loc	7 118 14 is_stmt 0
	movq	-352(%rbp), %rcx
	movq	%rcx, -360(%rbp)
	movq	-360(%rbp), %rcx
Ltmp16:
	.loc	2 193 13 is_stmt 1
	movq	%rcx, 16(%rax)
Ltmp17:
	.loc	5 399 13
	leaq	-344(%rbp), %rax
	movq	%rax, -72(%rbp)
Ltmp18:
	.loc	5 569 9
	leaq	-344(%rbp), %rax
	movq	%rax, -64(%rbp)
Ltmp19:
	.file	8 "/rustc/2c8cc343237b8f7d5a3c3703e3a87f2eb2c54a74/library/core/src/ptr" "mut_ptr.rs"
	.loc	8 1488 30
	leaq	-344(%rbp), %rax
	movq	%rax, -56(%rbp)
Ltmp20:
	.file	9 "/rustc/2c8cc343237b8f7d5a3c3703e3a87f2eb2c54a74/library/core/src" "intrinsics.rs"
	.loc	9 2529 9
	leaq	-344(%rbp), %rdi
	xorl	%esi, %esi
	movl	$40, %edx
	callq	_memset
Ltmp21:
	.loc	5 627 38
	leaq	-304(%rbp), %rdi
	leaq	-344(%rbp), %rsi
	movl	$40, %edx
	callq	_memcpy
Ltmp22:
	.loc	6 89 9
	leaq	-440(%rbp), %rdi
	leaq	-304(%rbp), %rsi
	movl	$40, %edx
	callq	_memcpy
	movq	-456(%rbp), %rdi
Ltmp23:
	.loc	2 196 13
	leaq	-440(%rbp), %rsi
	movl	$40, %edx
	callq	_memcpy
LBB0_6:
	.loc	2 188 9
	jmp	LBB0_3
Ltmp24:
Lfunc_end0:
	.cfi_endproc
	.file	10 "/rustc/2c8cc343237b8f7d5a3c3703e3a87f2eb2c54a74/library/core/src/mem" "mod.rs"

	.globl	__ZN103_$LT$alloc..vec..into_iter..IntoIter$LT$T$C$A$GT$$u20$as$u20$core..iter..traits..iterator..Iterator$GT$9size_hint17h330c553b3256bb16E
	.p2align	4, 0x90
__ZN103_$LT$alloc..vec..into_iter..IntoIter$LT$T$C$A$GT$$u20$as$u20$core..iter..traits..iterator..Iterator$GT$9size_hint17h330c553b3256bb16E:
Lfunc_begin1:
	.loc	2 206 0
	.cfi_startproc
	pushq	%rbp
	.cfi_def_cfa_offset 16
	.cfi_offset %rbp, -16
	movq	%rsp, %rbp
	.cfi_def_cfa_register %rbp
	subq	$128, %rsp
	movq	%rsi, -120(%rbp)
	movq	%rdi, -112(%rbp)
	movq	%rdi, -104(%rbp)
	movq	%rsi, -72(%rbp)
Ltmp25:
	.loc	2 207 24 prologue_end
	xorl	%eax, %eax
	testb	$1, %al
	jne	LBB1_2
	.loc	2 0 24 is_stmt 0
	movq	-120(%rbp), %rax
	.loc	2 210 22 is_stmt 1
	movq	16(%rax), %rdi
	.loc	2 210 39 is_stmt 0
	movq	8(%rax), %rsi
	.loc	2 210 22
	callq	__ZN4core3ptr9const_ptr33_$LT$impl$u20$$BP$const$u20$T$GT$7sub_ptr17hf4af18dc31359c66E
	movq	%rax, -96(%rbp)
	.loc	2 207 21 is_stmt 1
	jmp	LBB1_3
LBB1_2:
	.loc	2 0 21 is_stmt 0
	movq	-120(%rbp), %rcx
	.loc	2 208 13 is_stmt 1
	movq	16(%rcx), %rax
	movq	%rax, -64(%rbp)
Ltmp26:
	.loc	3 209 33
	movq	%rax, -56(%rbp)
	.loc	3 209 18 is_stmt 0
	movq	%rax, -48(%rbp)
	movq	-48(%rbp), %rax
	movq	%rax, -40(%rbp)
Ltmp27:
	.loc	2 208 42 is_stmt 1
	movq	8(%rcx), %rcx
	movq	%rcx, -32(%rbp)
Ltmp28:
	.loc	3 209 33
	movq	%rcx, -24(%rbp)
	.loc	3 209 18 is_stmt 0
	movq	%rcx, -16(%rbp)
	movq	-16(%rbp), %rcx
	movq	%rcx, -8(%rbp)
Ltmp29:
	.file	11 "/rustc/2c8cc343237b8f7d5a3c3703e3a87f2eb2c54a74/library/core/src/num" "uint_macros.rs"
	.loc	11 1203 13 is_stmt 1
	subq	%rcx, %rax
	movq	%rax, -96(%rbp)
Ltmp30:
LBB1_3:
	.loc	11 0 13 is_stmt 0
	movq	-104(%rbp), %rax
	movq	-112(%rbp), %rcx
Ltmp31:
	.loc	2 212 10 is_stmt 1
	movq	-96(%rbp), %rdx
	.loc	2 212 22 is_stmt 0
	movq	-96(%rbp), %rsi
	.loc	2 212 17
	movq	%rsi, -80(%rbp)
	movq	$1, -88(%rbp)
	.loc	2 212 9
	movq	%rdx, (%rcx)
	movq	-88(%rbp), %rsi
	movq	-80(%rbp), %rdx
	movq	%rsi, 8(%rcx)
	movq	%rdx, 16(%rcx)
Ltmp32:
	.loc	2 213 6 is_stmt 1
	addq	$128, %rsp
	popq	%rbp
	retq
Ltmp33:
Lfunc_end1:
	.cfi_endproc

	.globl	__ZN103_$LT$alloc..vec..into_iter..IntoIter$LT$T$C$A$GT$$u20$as$u20$core..iter..traits..iterator..Iterator$GT$9size_hint17h7a2a4508d246a596E
	.p2align	4, 0x90
__ZN103_$LT$alloc..vec..into_iter..IntoIter$LT$T$C$A$GT$$u20$as$u20$core..iter..traits..iterator..Iterator$GT$9size_hint17h7a2a4508d246a596E:
Lfunc_begin2:
	.loc	2 206 0
	.cfi_startproc
	pushq	%rbp
	.cfi_def_cfa_offset 16
	.cfi_offset %rbp, -16
	movq	%rsp, %rbp
	.cfi_def_cfa_register %rbp
	subq	$128, %rsp
	movq	%rsi, -120(%rbp)
	movq	%rdi, -112(%rbp)
	movq	%rdi, -104(%rbp)
	movq	%rsi, -72(%rbp)
Ltmp34:
	.loc	2 207 24 prologue_end
	xorl	%eax, %eax
	testb	$1, %al
	jne	LBB2_2
	.loc	2 0 24 is_stmt 0
	movq	-120(%rbp), %rax
	.loc	2 210 22 is_stmt 1
	movq	16(%rax), %rdi
	.loc	2 210 39 is_stmt 0
	movq	8(%rax), %rsi
	.loc	2 210 22
	callq	__ZN4core3ptr9const_ptr33_$LT$impl$u20$$BP$const$u20$T$GT$7sub_ptr17h6863d6e6185250e2E
	movq	%rax, -96(%rbp)
	.loc	2 207 21 is_stmt 1
	jmp	LBB2_3
LBB2_2:
	.loc	2 0 21 is_stmt 0
	movq	-120(%rbp), %rcx
	.loc	2 208 13 is_stmt 1
	movq	16(%rcx), %rax
	movq	%rax, -64(%rbp)
Ltmp35:
	.loc	3 209 33
	movq	%rax, -56(%rbp)
	.loc	3 209 18 is_stmt 0
	movq	%rax, -48(%rbp)
	movq	-48(%rbp), %rax
	movq	%rax, -40(%rbp)
Ltmp36:
	.loc	2 208 42 is_stmt 1
	movq	8(%rcx), %rcx
	movq	%rcx, -32(%rbp)
Ltmp37:
	.loc	3 209 33
	movq	%rcx, -24(%rbp)
	.loc	3 209 18 is_stmt 0
	movq	%rcx, -16(%rbp)
	movq	-16(%rbp), %rcx
	movq	%rcx, -8(%rbp)
Ltmp38:
	.loc	11 1203 13 is_stmt 1
	subq	%rcx, %rax
	movq	%rax, -96(%rbp)
Ltmp39:
LBB2_3:
	.loc	11 0 13 is_stmt 0
	movq	-104(%rbp), %rax
	movq	-112(%rbp), %rcx
Ltmp40:
	.loc	2 212 10 is_stmt 1
	movq	-96(%rbp), %rdx
	.loc	2 212 22 is_stmt 0
	movq	-96(%rbp), %rsi
	.loc	2 212 17
	movq	%rsi, -80(%rbp)
	movq	$1, -88(%rbp)
	.loc	2 212 9
	movq	%rdx, (%rcx)
	movq	-88(%rbp), %rsi
	movq	-80(%rbp), %rdx
	movq	%rsi, 8(%rcx)
	movq	%rdx, 16(%rcx)
Ltmp41:
	.loc	2 213 6 is_stmt 1
	addq	$128, %rsp
	popq	%rbp
	retq
Ltmp42:
Lfunc_end2:
	.cfi_endproc

	.globl	__ZN103_$LT$proc_macro..bridge..TokenTree$LT$TokenStream$C$Span$C$Symbol$GT$$u20$as$u20$core..clone..Clone$GT$5clone17h1a6a61c2a9059d6fE
	.p2align	4, 0x90
__ZN103_$LT$proc_macro..bridge..TokenTree$LT$TokenStream$C$Span$C$Symbol$GT$$u20$as$u20$core..clone..Clone$GT$5clone17h1a6a61c2a9059d6fE:
Lfunc_begin3:
	.file	12 "/rustc/2c8cc343237b8f7d5a3c3703e3a87f2eb2c54a74/library/proc_macro/src/bridge" "mod.rs"
	.loc	12 481 0
	.cfi_startproc
	pushq	%rbp
	.cfi_def_cfa_offset 16
	.cfi_offset %rbp, -16
	movq	%rsp, %rbp
	.cfi_def_cfa_register %rbp
	subq	$176, %rsp
	movq	%rsi, -160(%rbp)
	movq	%rdi, -152(%rbp)
	movq	%rdi, -144(%rbp)
	movq	%rsi, -64(%rbp)
Ltmp43:
	.loc	12 481 10 prologue_end
	movb	16(%rsi), %dl
	movb	%dl, %cl
	addb	$-3, %cl
	xorl	%eax, %eax
	subb	$4, %dl
	movzbl	%cl, %ecx
	cmovaeq	%rcx, %rax
	movq	%rax, -136(%rbp)
	.loc	12 0 10 is_stmt 0
	movq	-136(%rbp), %rax
	leaq	LJTI3_0(%rip), %rcx
	movslq	(%rcx,%rax,4), %rax
	addq	%rcx, %rax
	jmpq	*%rax
	.loc	12 481 10
	ud2
LBB3_2:
	.loc	12 0 10
	movq	-160(%rbp), %rsi
	.loc	12 483 11 is_stmt 1
	movq	%rsi, -8(%rbp)
Ltmp44:
	.loc	12 483 11 is_stmt 0
	leaq	-128(%rbp), %rdi
	callq	__ZN90_$LT$proc_macro..bridge..Group$LT$TokenStream$C$Span$GT$$u20$as$u20$core..clone..Clone$GT$5clone17ha459f74a30f0024dE
	movq	-152(%rbp), %rax
	.loc	12 481 10 is_stmt 1
	movq	-128(%rbp), %rcx
	movq	%rcx, (%rax)
	movq	-120(%rbp), %rcx
	movq	%rcx, 8(%rax)
	movl	-112(%rbp), %ecx
	movl	%ecx, 16(%rax)
Ltmp45:
	.loc	12 481 14 is_stmt 0
	jmp	LBB3_6
LBB3_3:
	.loc	12 0 14
	movq	-160(%rbp), %rdi
	.loc	12 484 11 is_stmt 1
	movq	%rdi, -40(%rbp)
Ltmp46:
	.loc	12 484 11 is_stmt 0
	movq	%rdi, -32(%rbp)
Ltmp47:
	.loc	12 455 5 is_stmt 1
	movq	%rdi, %rax
	addq	$4, %rax
	movq	%rax, -24(%rbp)
Ltmp48:
	.file	13 "/rustc/2c8cc343237b8f7d5a3c3703e3a87f2eb2c54a74/library/core/src" "clone.rs"
	.loc	13 189 25
	movb	4(%rdi), %al
	movb	%al, -162(%rbp)
Ltmp49:
	.loc	12 456 5
	movq	%rdi, %rax
	addq	$5, %rax
	movq	%rax, -16(%rbp)
Ltmp50:
	.loc	13 189 25
	movb	5(%rdi), %al
	movb	%al, -161(%rbp)
Ltmp51:
	.loc	12 457 5
	callq	__ZN71_$LT$proc_macro..bridge..client..Span$u20$as$u20$core..clone..Clone$GT$5clone17h9244e0f2068402ebE
	movb	-162(%rbp), %sil
	movb	-161(%rbp), %dl
	movl	%eax, %ecx
	movq	-152(%rbp), %rax
	.loc	12 453 10
	movb	%sil, -100(%rbp)
	andb	$1, %dl
	movb	%dl, -99(%rbp)
	movl	%ecx, -104(%rbp)
Ltmp52:
	.loc	12 481 10
	movq	-104(%rbp), %rcx
	movq	%rcx, (%rax)
	movb	$4, 16(%rax)
Ltmp53:
	.loc	12 481 14 is_stmt 0
	jmp	LBB3_6
LBB3_4:
	.loc	12 0 14
	movq	-160(%rbp), %rsi
	.loc	12 485 11 is_stmt 1
	movq	%rsi, -48(%rbp)
Ltmp54:
	.loc	12 485 11 is_stmt 0
	leaq	-96(%rbp), %rdi
	callq	__ZN85_$LT$proc_macro..bridge..Ident$LT$Span$C$Symbol$GT$$u20$as$u20$core..clone..Clone$GT$5clone17h0210515f87b70698E
	movq	-152(%rbp), %rax
	.loc	12 481 10 is_stmt 1
	movq	-96(%rbp), %rcx
	movq	%rcx, (%rax)
	movl	-88(%rbp), %ecx
	movl	%ecx, 8(%rax)
	movb	$5, 16(%rax)
Ltmp55:
	.loc	12 481 14 is_stmt 0
	jmp	LBB3_6
LBB3_5:
	.loc	12 0 14
	movq	-160(%rbp), %rsi
	.loc	12 486 13 is_stmt 1
	movq	%rsi, -56(%rbp)
Ltmp56:
	.loc	12 486 13 is_stmt 0
	leaq	-80(%rbp), %rdi
	callq	__ZN87_$LT$proc_macro..bridge..Literal$LT$Span$C$Symbol$GT$$u20$as$u20$core..clone..Clone$GT$5clone17h68de3b6524ab82ddE
	movq	-152(%rbp), %rax
	.loc	12 481 10 is_stmt 1
	movq	-80(%rbp), %rcx
	movq	%rcx, (%rax)
	movq	-72(%rbp), %rcx
	movq	%rcx, 8(%rax)
	movb	$6, 16(%rax)
Ltmp57:
LBB3_6:
	.loc	12 0 10 is_stmt 0
	movq	-144(%rbp), %rax
	.loc	12 481 15
	addq	$176, %rsp
	popq	%rbp
	retq
Ltmp58:
Lfunc_end3:
	.cfi_endproc
	.p2align	2, 0x90
	.data_region jt32
.set L3_0_set_2, LBB3_2-LJTI3_0
.set L3_0_set_3, LBB3_3-LJTI3_0
.set L3_0_set_4, LBB3_4-LJTI3_0
.set L3_0_set_5, LBB3_5-LJTI3_0
LJTI3_0:
	.long	L3_0_set_2
	.long	L3_0_set_3
	.long	L3_0_set_4
	.long	L3_0_set_5
	.end_data_region

	.globl	__ZN104_$LT$core..iter..adapters..copied..Copied$LT$I$GT$$u20$as$u20$core..iter..traits..iterator..Iterator$GT$4next17h4266052d101a11a1E
	.p2align	4, 0x90
__ZN104_$LT$core..iter..adapters..copied..Copied$LT$I$GT$$u20$as$u20$core..iter..traits..iterator..Iterator$GT$4next17h4266052d101a11a1E:
Lfunc_begin4:
	.file	14 "/rustc/2c8cc343237b8f7d5a3c3703e3a87f2eb2c54a74/library/core/src/iter/adapters" "copied.rs"
	.loc	14 46 0 is_stmt 1
	.cfi_startproc
	pushq	%rbp
	.cfi_def_cfa_offset 16
	.cfi_offset %rbp, -16
	movq	%rsp, %rbp
	.cfi_def_cfa_register %rbp
	subq	$16, %rsp
	movq	%rdi, -8(%rbp)
Ltmp59:
	.loc	14 47 9 prologue_end
	callq	__ZN91_$LT$core..slice..iter..Iter$LT$T$GT$$u20$as$u20$core..iter..traits..iterator..Iterator$GT$4next17h4147ebf21033d094E
	movq	%rax, %rdi
	callq	__ZN4core6option19Option$LT$$RF$T$GT$6copied17hb22f822030e3fae0E
	.loc	14 48 6
	andb	$1, %al
	addq	$16, %rsp
	popq	%rbp
	retq
Ltmp60:
Lfunc_end4:
	.cfi_endproc

	.globl	__ZN104_$LT$core..iter..adapters..copied..Copied$LT$I$GT$$u20$as$u20$core..iter..traits..iterator..Iterator$GT$8try_fold17heaa919bf8ebac820E
	.p2align	4, 0x90
__ZN104_$LT$core..iter..adapters..copied..Copied$LT$I$GT$$u20$as$u20$core..iter..traits..iterator..Iterator$GT$8try_fold17heaa919bf8ebac820E:
Lfunc_begin5:
	.loc	14 63 0
	.cfi_startproc
	.cfi_personality 155, _rust_eh_personality
	.cfi_lsda 16, Lexception0
	pushq	%rbp
	.cfi_def_cfa_offset 16
	.cfi_offset %rbp, -16
	movq	%rsp, %rbp
	.cfi_def_cfa_register %rbp
	subq	$64, %rsp
	movq	%rdi, -56(%rbp)
	movq	%rdi, -40(%rbp)
Ltmp66:
	.loc	14 69 26 prologue_end
	movb	$1, -41(%rbp)
Ltmp61:
	.loc	14 69 32 is_stmt 0
	callq	__ZN4core4iter8adapters6copied13copy_try_fold17h2240a5fc9c04880bE
Ltmp62:
	jmp	LBB5_3
LBB5_1:
	.loc	14 69 48
	testb	$1, -41(%rbp)
	jne	LBB5_6
	jmp	LBB5_5
LBB5_2:
Ltmp65:
	.loc	14 0 48
	movq	%rax, %rcx
	movl	%edx, %eax
	movq	%rcx, -16(%rbp)
	movl	%eax, -8(%rbp)
	jmp	LBB5_1
LBB5_3:
	movq	-56(%rbp), %rdi
	.loc	14 69 9
	movb	$0, -41(%rbp)
Ltmp63:
	callq	__ZN4core4iter6traits8iterator8Iterator8try_fold17hb18c89e955919c48E
Ltmp64:
	movb	%al, -57(%rbp)
	jmp	LBB5_4
LBB5_4:
	.loc	14 0 9
	movb	-57(%rbp), %al
	.loc	14 70 6 is_stmt 1
	andb	$1, %al
	movzbl	%al, %eax
	addq	$64, %rsp
	popq	%rbp
	retq
LBB5_5:
	.loc	14 63 5
	movq	-16(%rbp), %rdi
	callq	__Unwind_Resume
LBB5_6:
	.loc	14 69 48
	jmp	LBB5_5
Ltmp67:
Lfunc_end5:
	.cfi_endproc
	.section	__TEXT,__gcc_except_tab
	.p2align	2
GCC_except_table5:
Lexception0:
	.byte	255
	.byte	255
	.byte	1
	.uleb128 Lcst_end0-Lcst_begin0
Lcst_begin0:
	.uleb128 Ltmp61-Lfunc_begin5
	.uleb128 Ltmp64-Ltmp61
	.uleb128 Ltmp65-Lfunc_begin5
	.byte	0
	.uleb128 Ltmp64-Lfunc_begin5
	.uleb128 Lfunc_end5-Ltmp64
	.byte	0
	.byte	0
Lcst_end0:
	.p2align	2

	.section	__TEXT,__text,regular,pure_instructions
	.globl	__ZN104_$LT$core..ops..control_flow..ControlFlow$LT$B$C$C$GT$$u20$as$u20$core..ops..try_trait..FromResidual$GT$13from_residual17h86bfdc5349f149c3E
	.p2align	4, 0x90
__ZN104_$LT$core..ops..control_flow..ControlFlow$LT$B$C$C$GT$$u20$as$u20$core..ops..try_trait..FromResidual$GT$13from_residual17h86bfdc5349f149c3E:
Lfunc_begin6:
	.file	15 "/rustc/2c8cc343237b8f7d5a3c3703e3a87f2eb2c54a74/library/core/src/ops" "control_flow.rs"
	.loc	15 123 0
	.cfi_startproc
	pushq	%rbp
	.cfi_def_cfa_offset 16
	.cfi_offset %rbp, -16
	movq	%rsp, %rbp
	.cfi_def_cfa_register %rbp
	subq	$24, %rsp
Ltmp68:
	.loc	15 125 38 prologue_end
	movb	$1, -17(%rbp)
Ltmp69:
	.loc	15 127 6
	movb	-17(%rbp), %al
	andb	$1, %al
	movzbl	%al, %eax
	addq	$24, %rsp
	popq	%rbp
	retq
Ltmp70:
Lfunc_end6:
	.cfi_endproc

	.globl	__ZN104_$LT$core..ops..control_flow..ControlFlow$LT$B$C$C$GT$$u20$as$u20$core..ops..try_trait..FromResidual$GT$13from_residual17hac322cc0e114c962E
	.p2align	4, 0x90
__ZN104_$LT$core..ops..control_flow..ControlFlow$LT$B$C$C$GT$$u20$as$u20$core..ops..try_trait..FromResidual$GT$13from_residual17hac322cc0e114c962E:
Lfunc_begin7:
	.loc	15 123 0
	.cfi_startproc
	pushq	%rbp
	.cfi_def_cfa_offset 16
	.cfi_offset %rbp, -16
	movq	%rsp, %rbp
	.cfi_def_cfa_register %rbp
	subq	$32, %rsp
	movq	%rdi, -32(%rbp)
Ltmp71:
	.loc	15 125 32 prologue_end
	movq	-32(%rbp), %rax
	movq	%rax, -8(%rbp)
Ltmp72:
	.loc	15 125 38 is_stmt 0
	movq	%rax, -16(%rbp)
	movq	$1, -24(%rbp)
Ltmp73:
	.loc	15 127 6 is_stmt 1
	movq	-24(%rbp), %rax
	movq	-16(%rbp), %rdx
	addq	$32, %rsp
	popq	%rbp
	retq
Ltmp74:
Lfunc_end7:
	.cfi_endproc

	.globl	__ZN106_$LT$core..ops..range..Range$LT$usize$GT$$u20$as$u20$core..slice..index..SliceIndex$LT$$u5b$T$u5d$$GT$$GT$13get_unchecked17hc16cac96ea3f5b4cE
	.p2align	4, 0x90
__ZN106_$LT$core..ops..range..Range$LT$usize$GT$$u20$as$u20$core..slice..index..SliceIndex$LT$$u5b$T$u5d$$GT$$GT$13get_unchecked17hc16cac96ea3f5b4cE:
Lfunc_begin8:
	.file	16 "/rustc/2c8cc343237b8f7d5a3c3703e3a87f2eb2c54a74/library/core/src/slice" "index.rs"
	.loc	16 373 0
	.cfi_startproc
	pushq	%rbp
	.cfi_def_cfa_offset 16
	.cfi_offset %rbp, -16
	movq	%rsp, %rbp
	.cfi_def_cfa_register %rbp
	subq	$160, %rsp
	movq	%rdi, -128(%rbp)
	movq	%rsi, -120(%rbp)
	movq	%rdx, -112(%rbp)
	movq	%rcx, -104(%rbp)
Ltmp75:
	.loc	16 386 39 prologue_end
	movq	%rdx, -96(%rbp)
	movq	%rcx, -88(%rbp)
Ltmp76:
	.loc	3 1650 9
	movq	%rdx, -80(%rbp)
Ltmp77:
	.loc	16 386 58
	movq	%rdi, -72(%rbp)
Ltmp78:
	.loc	3 932 18
	movq	%rdx, -64(%rbp)
	.loc	3 932 30 is_stmt 0
	movq	%rdi, -56(%rbp)
Ltmp79:
	.loc	3 473 18 is_stmt 1
	addq	%rdi, %rdx
	movq	%rdx, -48(%rbp)
	movq	-48(%rbp), %rax
	movq	%rax, -40(%rbp)
Ltmp80:
	.loc	16 386 71
	subq	%rdi, %rsi
	movq	%rsi, -32(%rbp)
Ltmp81:
	.loc	4 734 20
	movq	%rax, -24(%rbp)
Ltmp82:
	.loc	3 61 9
	movq	%rax, -16(%rbp)
Ltmp83:
	.loc	4 734 33
	movq	%rsi, -8(%rbp)
Ltmp84:
	.loc	7 118 36
	movq	%rax, -144(%rbp)
	movq	%rsi, -136(%rbp)
	.loc	7 118 14 is_stmt 0
	movq	-144(%rbp), %rcx
	movq	-136(%rbp), %rax
	movq	%rcx, -160(%rbp)
	movq	%rax, -152(%rbp)
	movq	-160(%rbp), %rax
	movq	-152(%rbp), %rdx
Ltmp85:
	.loc	16 388 6 is_stmt 1
	addq	$160, %rsp
	popq	%rbp
	retq
Ltmp86:
Lfunc_end8:
	.cfi_endproc

	.globl	__ZN106_$LT$core..ops..range..Range$LT$usize$GT$$u20$as$u20$core..slice..index..SliceIndex$LT$$u5b$T$u5d$$GT$$GT$17get_unchecked_mut17h9f29c13ac2151a27E
	.p2align	4, 0x90
__ZN106_$LT$core..ops..range..Range$LT$usize$GT$$u20$as$u20$core..slice..index..SliceIndex$LT$$u5b$T$u5d$$GT$$GT$17get_unchecked_mut17h9f29c13ac2151a27E:
Lfunc_begin9:
	.loc	16 391 0
	.cfi_startproc
	pushq	%rbp
	.cfi_def_cfa_offset 16
	.cfi_offset %rbp, -16
	movq	%rsp, %rbp
	.cfi_def_cfa_register %rbp
	subq	$160, %rsp
	movq	%rdi, -128(%rbp)
	movq	%rsi, -120(%rbp)
	movq	%rdx, -112(%rbp)
	movq	%rcx, -104(%rbp)
Ltmp87:
	.loc	16 400 43 prologue_end
	movq	%rdx, -96(%rbp)
	movq	%rcx, -88(%rbp)
Ltmp88:
	.loc	8 2037 9
	movq	%rdx, -80(%rbp)
Ltmp89:
	.loc	16 400 66
	movq	%rdi, -72(%rbp)
Ltmp90:
	.loc	8 1034 18
	movq	%rdx, -64(%rbp)
	.loc	8 1034 30 is_stmt 0
	movq	%rdi, -56(%rbp)
Ltmp91:
	.loc	8 487 18 is_stmt 1
	addq	%rdi, %rdx
	movq	%rdx, -48(%rbp)
	movq	-48(%rbp), %rax
	movq	%rax, -40(%rbp)
Ltmp92:
	.loc	16 400 79
	subq	%rdi, %rsi
	movq	%rsi, -32(%rbp)
Ltmp93:
	.loc	4 766 24
	movq	%rax, -24(%rbp)
Ltmp94:
	.loc	8 60 9
	movq	%rax, -16(%rbp)
Ltmp95:
	.loc	4 766 37
	movq	%rsi, -8(%rbp)
Ltmp96:
	.loc	7 135 36
	movq	%rax, -144(%rbp)
	movq	%rsi, -136(%rbp)
	.loc	7 135 14 is_stmt 0
	movq	-144(%rbp), %rcx
	movq	-136(%rbp), %rax
	movq	%rcx, -160(%rbp)
	movq	%rax, -152(%rbp)
	movq	-160(%rbp), %rax
	movq	-152(%rbp), %rdx
Ltmp97:
	.loc	16 402 6 is_stmt 1
	addq	$160, %rsp
	popq	%rbp
	retq
Ltmp98:
Lfunc_end9:
	.cfi_endproc

	.globl	__ZN106_$LT$core..ops..range..Range$LT$usize$GT$$u20$as$u20$core..slice..index..SliceIndex$LT$$u5b$T$u5d$$GT$$GT$3get17h2681b7afa0df88c0E
	.p2align	4, 0x90
__ZN106_$LT$core..ops..range..Range$LT$usize$GT$$u20$as$u20$core..slice..index..SliceIndex$LT$$u5b$T$u5d$$GT$$GT$3get17h2681b7afa0df88c0E:
Lfunc_begin10:
	.loc	16 353 0
	.cfi_startproc
	pushq	%rbp
	.cfi_def_cfa_offset 16
	.cfi_offset %rbp, -16
	movq	%rsp, %rbp
	.cfi_def_cfa_register %rbp
	subq	$96, %rsp
	movq	%rdi, -88(%rbp)
	movq	%rsi, -80(%rbp)
	movq	%rdx, -72(%rbp)
	movq	%rcx, -64(%rbp)
	movq	%rdi, -32(%rbp)
	movq	%rsi, -24(%rbp)
	movq	%rdx, -16(%rbp)
	movq	%rcx, -8(%rbp)
Ltmp99:
	.loc	16 354 12 prologue_end
	cmpq	%rsi, %rdi
	ja	LBB10_2
	.loc	16 0 12 is_stmt 0
	movq	-80(%rbp), %rax
	movq	-64(%rbp), %rcx
	.loc	16 354 37
	cmpq	%rcx, %rax
	seta	%al
	.loc	16 354 12
	andb	$1, %al
	movb	%al, -33(%rbp)
	jmp	LBB10_3
LBB10_2:
	movb	$1, -33(%rbp)
LBB10_3:
	testb	$1, -33(%rbp)
	jne	LBB10_5
	.loc	16 0 12
	movq	-64(%rbp), %rcx
	movq	-72(%rbp), %rdx
	movq	-80(%rbp), %rsi
	movq	-88(%rbp), %rdi
	.loc	16 358 29 is_stmt 1
	callq	__ZN106_$LT$core..ops..range..Range$LT$usize$GT$$u20$as$u20$core..slice..index..SliceIndex$LT$$u5b$T$u5d$$GT$$GT$13get_unchecked17hc16cac96ea3f5b4cE
	.loc	16 358 22 is_stmt 0
	movq	%rax, -56(%rbp)
	movq	%rdx, -48(%rbp)
	.loc	16 354 9 is_stmt 1
	jmp	LBB10_6
LBB10_5:
	.loc	16 355 13
	movq	$0, -56(%rbp)
LBB10_6:
	.loc	16 360 6
	movq	-56(%rbp), %rax
	movq	-48(%rbp), %rdx
	addq	$96, %rsp
	popq	%rbp
	retq
Ltmp100:
Lfunc_end10:
	.cfi_endproc

	.globl	__ZN106_$LT$core..ops..range..Range$LT$usize$GT$$u20$as$u20$core..slice..index..SliceIndex$LT$$u5b$T$u5d$$GT$$GT$5index17h1813ee3f8b18d6bfE
	.p2align	4, 0x90
__ZN106_$LT$core..ops..range..Range$LT$usize$GT$$u20$as$u20$core..slice..index..SliceIndex$LT$$u5b$T$u5d$$GT$$GT$5index17h1813ee3f8b18d6bfE:
Lfunc_begin11:
	.loc	16 405 0
	.cfi_startproc
	pushq	%rbp
	.cfi_def_cfa_offset 16
	.cfi_offset %rbp, -16
	movq	%rsp, %rbp
	.cfi_def_cfa_register %rbp
	subq	$80, %rsp
	movq	%rdi, -72(%rbp)
	movq	%rsi, -64(%rbp)
	movq	%rdx, -56(%rbp)
	movq	%rcx, -48(%rbp)
	movq	%r8, -40(%rbp)
	movq	%rdi, -32(%rbp)
	movq	%rsi, -24(%rbp)
	movq	%rdx, -16(%rbp)
	movq	%rcx, -8(%rbp)
Ltmp101:
	.loc	16 406 12 prologue_end
	cmpq	%rsi, %rdi
	ja	LBB11_2
	.loc	16 0 12 is_stmt 0
	movq	-64(%rbp), %rax
	movq	-48(%rbp), %rcx
	.loc	16 408 19 is_stmt 1
	cmpq	%rcx, %rax
	ja	LBB11_4
	jmp	LBB11_3
LBB11_2:
	.loc	16 0 19 is_stmt 0
	movq	-40(%rbp), %rdx
	movq	-64(%rbp), %rsi
	movq	-72(%rbp), %rdi
	.loc	16 407 13 is_stmt 1
	callq	__ZN4core5slice5index22slice_index_order_fail17h0d8f800a07d5f26eE
LBB11_3:
	.loc	16 0 13 is_stmt 0
	movq	-48(%rbp), %rcx
	movq	-56(%rbp), %rdx
	movq	-64(%rbp), %rsi
	movq	-72(%rbp), %rdi
	.loc	16 412 20 is_stmt 1
	callq	__ZN106_$LT$core..ops..range..Range$LT$usize$GT$$u20$as$u20$core..slice..index..SliceIndex$LT$$u5b$T$u5d$$GT$$GT$13get_unchecked17hc16cac96ea3f5b4cE
	.loc	16 413 6
	addq	$80, %rsp
	popq	%rbp
	retq
LBB11_4:
	.loc	16 0 6 is_stmt 0
	movq	-40(%rbp), %rdx
	movq	-48(%rbp), %rsi
	movq	-64(%rbp), %rdi
	.loc	16 409 13 is_stmt 1
	callq	__ZN4core5slice5index24slice_end_index_len_fail17hc921cb2f1513645aE
Ltmp102:
Lfunc_end11:
	.cfi_endproc

	.globl	__ZN106_$LT$core..ops..range..Range$LT$usize$GT$$u20$as$u20$core..slice..index..SliceIndex$LT$$u5b$T$u5d$$GT$$GT$9index_mut17h432ac3364bb4edf1E
	.p2align	4, 0x90
__ZN106_$LT$core..ops..range..Range$LT$usize$GT$$u20$as$u20$core..slice..index..SliceIndex$LT$$u5b$T$u5d$$GT$$GT$9index_mut17h432ac3364bb4edf1E:
Lfunc_begin12:
	.loc	16 416 0
	.cfi_startproc
	pushq	%rbp
	.cfi_def_cfa_offset 16
	.cfi_offset %rbp, -16
	movq	%rsp, %rbp
	.cfi_def_cfa_register %rbp
	subq	$80, %rsp
	movq	%rdi, -72(%rbp)
	movq	%rsi, -64(%rbp)
	movq	%rdx, -56(%rbp)
	movq	%rcx, -48(%rbp)
	movq	%r8, -40(%rbp)
	movq	%rdi, -32(%rbp)
	movq	%rsi, -24(%rbp)
	movq	%rdx, -16(%rbp)
	movq	%rcx, -8(%rbp)
Ltmp103:
	.loc	16 417 12 prologue_end
	cmpq	%rsi, %rdi
	ja	LBB12_2
	.loc	16 0 12 is_stmt 0
	movq	-64(%rbp), %rax
	movq	-48(%rbp), %rcx
	.loc	16 419 19 is_stmt 1
	cmpq	%rcx, %rax
	ja	LBB12_4
	jmp	LBB12_3
LBB12_2:
	.loc	16 0 19 is_stmt 0
	movq	-40(%rbp), %rdx
	movq	-64(%rbp), %rsi
	movq	-72(%rbp), %rdi
	.loc	16 418 13 is_stmt 1
	callq	__ZN4core5slice5index22slice_index_order_fail17h0d8f800a07d5f26eE
LBB12_3:
	.loc	16 0 13 is_stmt 0
	movq	-48(%rbp), %rcx
	movq	-56(%rbp), %rdx
	movq	-64(%rbp), %rsi
	movq	-72(%rbp), %rdi
	.loc	16 423 24 is_stmt 1
	callq	__ZN106_$LT$core..ops..range..Range$LT$usize$GT$$u20$as$u20$core..slice..index..SliceIndex$LT$$u5b$T$u5d$$GT$$GT$17get_unchecked_mut17h9f29c13ac2151a27E
	.loc	16 424 6
	addq	$80, %rsp
	popq	%rbp
	retq
LBB12_4:
	.loc	16 0 6 is_stmt 0
	movq	-40(%rbp), %rdx
	movq	-48(%rbp), %rsi
	movq	-64(%rbp), %rdi
	.loc	16 420 13 is_stmt 1
	callq	__ZN4core5slice5index24slice_end_index_len_fail17hc921cb2f1513645aE
Ltmp104:
Lfunc_end12:
	.cfi_endproc

	.globl	__ZN108_$LT$core..iter..adapters..peekable..Peekable$LT$I$GT$$u20$as$u20$core..iter..traits..iterator..Iterator$GT$4next17h08db5d0d234dbfbaE
	.p2align	4, 0x90
__ZN108_$LT$core..iter..adapters..peekable..Peekable$LT$I$GT$$u20$as$u20$core..iter..traits..iterator..Iterator$GT$4next17h08db5d0d234dbfbaE:
Lfunc_begin13:
	.file	17 "/rustc/2c8cc343237b8f7d5a3c3703e3a87f2eb2c54a74/library/core/src/iter/adapters" "peekable.rs"
	.loc	17 36 0
	.cfi_startproc
	pushq	%rbp
	.cfi_def_cfa_offset 16
	.cfi_offset %rbp, -16
	movq	%rsp, %rbp
	.cfi_def_cfa_register %rbp
	subq	$48, %rsp
	movq	%rdi, -48(%rbp)
	movq	%rdi, -24(%rbp)
Ltmp105:
	.loc	17 37 15 prologue_end
	addq	$16, %rdi
	movq	%rdi, -16(%rbp)
Ltmp106:
	.file	18 "/rustc/2c8cc343237b8f7d5a3c3703e3a87f2eb2c54a74/library/core/src" "option.rs"
	.loc	18 1623 28
	movl	$1114113, -28(%rbp)
	.loc	18 1623 9 is_stmt 0
	movl	-28(%rbp), %esi
	callq	__ZN4core3mem7replace17h2f2b6f4ee914ef1aE
	movl	%eax, -32(%rbp)
Ltmp107:
	.loc	17 37 15 is_stmt 1
	movl	$1, %eax
	xorl	%ecx, %ecx
	cmpl	$1114113, -32(%rbp)
	cmoveq	%rcx, %rax
	.loc	17 37 9 is_stmt 0
	cmpq	$0, %rax
	jne	LBB13_2
	.loc	17 0 9
	movq	-48(%rbp), %rdi
	.loc	17 39 21 is_stmt 1
	callq	__ZN81_$LT$core..str..iter..Chars$u20$as$u20$core..iter..traits..iterator..Iterator$GT$4next17hb8336be1d209d009E
	movl	%eax, -36(%rbp)
	.loc	17 39 36 is_stmt 0
	jmp	LBB13_3
LBB13_2:
	.loc	17 38 18 is_stmt 1
	movl	-32(%rbp), %eax
	movl	%eax, -4(%rbp)
Ltmp108:
	.loc	17 38 24 is_stmt 0
	movl	%eax, -36(%rbp)
Ltmp109:
LBB13_3:
	.loc	17 41 6 is_stmt 1
	movl	-36(%rbp), %eax
	addq	$48, %rsp
	popq	%rbp
	retq
Ltmp110:
Lfunc_end13:
	.cfi_endproc

	.globl	__ZN108_$LT$core..iter..adapters..peekable..Peekable$LT$I$GT$$u20$as$u20$core..iter..traits..iterator..Iterator$GT$4next17h8edd8b1806841f4cE
	.p2align	4, 0x90
__ZN108_$LT$core..iter..adapters..peekable..Peekable$LT$I$GT$$u20$as$u20$core..iter..traits..iterator..Iterator$GT$4next17h8edd8b1806841f4cE:
Lfunc_begin14:
	.loc	17 36 0
	.cfi_startproc
	pushq	%rbp
	.cfi_def_cfa_offset 16
	.cfi_offset %rbp, -16
	movq	%rsp, %rbp
	.cfi_def_cfa_register %rbp
	subq	$96, %rsp
	movq	%rdi, -88(%rbp)
	movq	%rdi, -32(%rbp)
Ltmp111:
	.loc	17 37 15 prologue_end
	movq	%rdi, -24(%rbp)
Ltmp112:
	.loc	18 1623 28
	movl	$1114113, -40(%rbp)
	.loc	18 1623 9 is_stmt 0
	movq	-48(%rbp), %rsi
	movl	-40(%rbp), %edx
	callq	__ZN4core3mem7replace17h715a6aca8c7d144eE
	movl	%edx, -56(%rbp)
	movq	%rax, -64(%rbp)
Ltmp113:
	.loc	17 37 15 is_stmt 1
	movl	$1, %eax
	xorl	%ecx, %ecx
	cmpl	$1114113, -56(%rbp)
	cmoveq	%rcx, %rax
	.loc	17 37 9 is_stmt 0
	cmpq	$0, %rax
	jne	LBB14_2
	.loc	17 0 9
	movq	-88(%rbp), %rdi
	.loc	17 39 21 is_stmt 1
	addq	$16, %rdi
	callq	__ZN87_$LT$core..str..iter..CharIndices$u20$as$u20$core..iter..traits..iterator..Iterator$GT$4next17hde124ac28e2003eaE
	movl	%edx, -72(%rbp)
	movq	%rax, -80(%rbp)
	.loc	17 39 36 is_stmt 0
	jmp	LBB14_3
LBB14_2:
	.loc	17 38 18 is_stmt 1
	movq	-64(%rbp), %rcx
	movl	-56(%rbp), %eax
	movq	%rcx, -16(%rbp)
	movl	%eax, -8(%rbp)
Ltmp114:
	.loc	17 38 24 is_stmt 0
	movq	%rcx, -80(%rbp)
	movl	%eax, -72(%rbp)
Ltmp115:
LBB14_3:
	.loc	17 41 6 is_stmt 1
	movq	-80(%rbp), %rax
	movl	-72(%rbp), %edx
	addq	$96, %rsp
	popq	%rbp
	retq
Ltmp116:
Lfunc_end14:
	.cfi_endproc

	.globl	__ZN108_$LT$proc_macro..TokenStream$u20$as$u20$core..iter..traits..collect..Extend$LT$proc_macro..TokenTree$GT$$GT$6extend17h4ff455788affc160E
	.p2align	4, 0x90
__ZN108_$LT$proc_macro..TokenStream$u20$as$u20$core..iter..traits..collect..Extend$LT$proc_macro..TokenTree$GT$$GT$6extend17h4ff455788affc160E:
Lfunc_begin15:
	.file	19 "/rustc/2c8cc343237b8f7d5a3c3703e3a87f2eb2c54a74/library/proc_macro/src" "lib.rs"
	.loc	19 335 0
	.cfi_startproc
	.cfi_personality 155, _rust_eh_personality
	.cfi_lsda 16, Lexception1
	pushq	%rbp
	.cfi_def_cfa_offset 16
	.cfi_offset %rbp, -16
	movq	%rsp, %rbp
	.cfi_def_cfa_register %rbp
	subq	$256, %rsp
	movq	%rdi, -248(%rbp)
Ltmp132:
	movq	%rdi, -24(%rbp)
Ltmp133:
	.loc	19 336 20 prologue_end
	movq	32(%rsi), %rax
	movq	%rax, -160(%rbp)
	movq	24(%rsi), %rax
	movq	%rax, -168(%rbp)
	movq	16(%rsi), %rax
	movq	%rax, -176(%rbp)
	movq	(%rsi), %rax
	movq	8(%rsi), %rcx
	movq	%rcx, -184(%rbp)
	movq	%rax, -192(%rbp)
	leaq	-232(%rbp), %rdi
	movq	%rdi, -240(%rbp)
	leaq	-192(%rbp), %rsi
Ltmp134:
	callq	__ZN63_$LT$I$u20$as$u20$core..iter..traits..collect..IntoIterator$GT$9into_iter17h927d293eabc6e13fE
	movq	-240(%rbp), %rsi
	.loc	19 336 36 is_stmt 0
	movb	$1, -25(%rbp)
Ltmp117:
	leaq	-128(%rbp), %rdi
Ltmp135:
	.loc	19 337 50 is_stmt 1
	callq	__ZN96_$LT$alloc..vec..drain..Drain$LT$T$C$A$GT$$u20$as$u20$core..iter..traits..iterator..Iterator$GT$9size_hint17h9e6eb4ceb6f0507aE
Ltmp118:
	jmp	LBB15_3
Ltmp136:
LBB15_1:
	.loc	19 340 5
	testb	$1, -25(%rbp)
	jne	LBB15_12
	jmp	LBB15_11
Ltmp137:
LBB15_2:
Ltmp121:
	.loc	19 0 5 is_stmt 0
	movq	%rax, %rcx
	movl	%edx, %eax
	movq	%rcx, -16(%rbp)
	movl	%eax, -8(%rbp)
	jmp	LBB15_1
Ltmp138:
LBB15_3:
	.loc	19 337 50 is_stmt 1
	movq	-128(%rbp), %rsi
Ltmp119:
	leaq	-152(%rbp), %rdi
	.loc	19 337 27 is_stmt 0
	callq	__ZN10proc_macro17ConcatTreesHelper3new17hdbc78218fb764b1eE
Ltmp120:
	jmp	LBB15_4
Ltmp139:
LBB15_4:
	.loc	19 337 68
	movb	$1, -26(%rbp)
Ltmp140:
	.loc	19 338 9 is_stmt 1
	movb	$0, -25(%rbp)
	movq	-200(%rbp), %rax
	movq	%rax, -72(%rbp)
	movq	-208(%rbp), %rax
	movq	%rax, -80(%rbp)
	movq	-216(%rbp), %rax
	movq	%rax, -88(%rbp)
	movq	-232(%rbp), %rax
	movq	-224(%rbp), %rcx
	movq	%rcx, -96(%rbp)
	movq	%rax, -104(%rbp)
	leaq	-152(%rbp), %rax
	.loc	19 338 23 is_stmt 0
	movq	%rax, -64(%rbp)
	.loc	19 338 9
	movq	-64(%rbp), %rsi
Ltmp122:
	leaq	-104(%rbp), %rdi
	callq	__ZN4core4iter6traits8iterator8Iterator8for_each17hbbdc83ee64f7fdd6E
Ltmp123:
	jmp	LBB15_7
Ltmp141:
LBB15_5:
	.loc	19 340 5 is_stmt 1
	testb	$1, -26(%rbp)
	jne	LBB15_9
	jmp	LBB15_1
Ltmp142:
LBB15_6:
Ltmp126:
	.loc	19 0 5 is_stmt 0
	movq	%rax, %rcx
	movl	%edx, %eax
	movq	%rcx, -16(%rbp)
	movl	%eax, -8(%rbp)
	jmp	LBB15_5
Ltmp143:
LBB15_7:
	movq	-248(%rbp), %rsi
Ltmp144:
	.loc	19 339 9 is_stmt 1
	movb	$0, -26(%rbp)
	movq	-136(%rbp), %rax
	movq	%rax, -40(%rbp)
	movq	-152(%rbp), %rax
	movq	-144(%rbp), %rcx
	movq	%rcx, -48(%rbp)
	movq	%rax, -56(%rbp)
Ltmp124:
	leaq	-56(%rbp), %rdi
	callq	__ZN10proc_macro17ConcatTreesHelper9append_to17h17077c4b735e3962E
Ltmp125:
	jmp	LBB15_8
Ltmp145:
LBB15_8:
	.loc	19 340 6
	addq	$256, %rsp
	popq	%rbp
	retq
Ltmp146:
LBB15_9:
Ltmp127:
	.loc	19 0 6 is_stmt 0
	leaq	-152(%rbp), %rdi
Ltmp147:
	.loc	19 340 5
	callq	__ZN4core3ptr50drop_in_place$LT$proc_macro..ConcatTreesHelper$GT$17h7550cc99f1800c41E
Ltmp128:
	jmp	LBB15_1
Ltmp148:
LBB15_10:
Ltmp131:
	.loc	19 335 5 is_stmt 1
	callq	__ZN4core9panicking19panic_cannot_unwind17h1fbca7e1d7f56ae1E
Ltmp149:
LBB15_11:
	movq	-16(%rbp), %rdi
	callq	__Unwind_Resume
Ltmp150:
LBB15_12:
Ltmp129:
	.loc	19 0 5 is_stmt 0
	leaq	-232(%rbp), %rdi
	.loc	19 340 5 is_stmt 1
	callq	__ZN4core3ptr74drop_in_place$LT$alloc..vec..drain..Drain$LT$proc_macro..TokenTree$GT$$GT$17h6feca96c7804645bE
Ltmp130:
	jmp	LBB15_11
Ltmp151:
Lfunc_end15:
	.cfi_endproc
	.section	__TEXT,__gcc_except_tab
	.p2align	2
GCC_except_table15:
Lexception1:
	.byte	255
	.byte	255
	.byte	1
	.uleb128 Lcst_end1-Lcst_begin1
Lcst_begin1:
	.uleb128 Lfunc_begin15-Lfunc_begin15
	.uleb128 Ltmp117-Lfunc_begin15
	.byte	0
	.byte	0
	.uleb128 Ltmp117-Lfunc_begin15
	.uleb128 Ltmp120-Ltmp117
	.uleb128 Ltmp121-Lfunc_begin15
	.byte	0
	.uleb128 Ltmp122-Lfunc_begin15
	.uleb128 Ltmp125-Ltmp122
	.uleb128 Ltmp126-Lfunc_begin15
	.byte	0
	.uleb128 Ltmp127-Lfunc_begin15
	.uleb128 Ltmp128-Ltmp127
	.uleb128 Ltmp131-Lfunc_begin15
	.byte	0
	.uleb128 Ltmp128-Lfunc_begin15
	.uleb128 Ltmp129-Ltmp128
	.byte	0
	.byte	0
	.uleb128 Ltmp129-Lfunc_begin15
	.uleb128 Ltmp130-Ltmp129
	.uleb128 Ltmp131-Lfunc_begin15
	.byte	0
Lcst_end1:
	.p2align	2

	.section	__TEXT,__text,regular,pure_instructions
	.globl	__ZN108_$LT$proc_macro..TokenStream$u20$as$u20$core..iter..traits..collect..Extend$LT$proc_macro..TokenTree$GT$$GT$6extend28_$u7b$$u7b$closure$u7d$$u7d$17he3783181e3f5ae21E
	.p2align	4, 0x90
__ZN108_$LT$proc_macro..TokenStream$u20$as$u20$core..iter..traits..collect..Extend$LT$proc_macro..TokenTree$GT$$GT$6extend28_$u7b$$u7b$closure$u7d$$u7d$17he3783181e3f5ae21E:
Lfunc_begin16:
	.loc	19 338 0
	.cfi_startproc
	pushq	%rbp
	.cfi_def_cfa_offset 16
	.cfi_offset %rbp, -16
	movq	%rsp, %rbp
	.cfi_def_cfa_register %rbp
	subq	$32, %rsp
	movq	%rdi, -8(%rbp)
Ltmp152:
	.loc	19 338 30 prologue_end
	movq	(%rdi), %rdi
	.loc	19 338 43 is_stmt 0
	movq	(%rsi), %rax
	movq	%rax, -32(%rbp)
	movq	8(%rsi), %rax
	movq	%rax, -24(%rbp)
	movl	16(%rsi), %eax
	movl	%eax, -16(%rbp)
	.loc	19 338 30
	leaq	-32(%rbp), %rsi
Ltmp153:
	callq	__ZN10proc_macro17ConcatTreesHelper4push17h12aa257acf21482eE
	.loc	19 338 48
	addq	$32, %rsp
	popq	%rbp
	retq
Ltmp154:
Lfunc_end16:
	.cfi_endproc

	.globl	__ZN110_$LT$core..iter..adapters..enumerate..Enumerate$LT$I$GT$$u20$as$u20$core..iter..traits..iterator..Iterator$GT$4next17h0c7b73a82278c3f5E
	.p2align	4, 0x90
__ZN110_$LT$core..iter..adapters..enumerate..Enumerate$LT$I$GT$$u20$as$u20$core..iter..traits..iterator..Iterator$GT$4next17h0c7b73a82278c3f5E:
Lfunc_begin17:
	.file	20 "/rustc/2c8cc343237b8f7d5a3c3703e3a87f2eb2c54a74/library/core/src/iter/adapters" "enumerate.rs"
	.loc	20 45 0 is_stmt 1
	.cfi_startproc
	.cfi_personality 155, _rust_eh_personality
	.cfi_lsda 16, Lexception2
	pushq	%rbp
	.cfi_def_cfa_offset 16
	.cfi_offset %rbp, -16
	movq	%rsp, %rbp
	.cfi_def_cfa_register %rbp
	subq	$128, %rsp
	movq	%rsi, -104(%rbp)
	movq	%rdi, %rax
	movq	-104(%rbp), %rdi
	movq	%rax, -96(%rbp)
	movq	%rax, -88(%rbp)
	movq	%rdi, -48(%rbp)
Ltmp158:
	.loc	20 46 17 prologue_end
	callq	__ZN81_$LT$core..str..iter..Bytes$u20$as$u20$core..iter..traits..iterator..Iterator$GT$4next17h3467afcf1e339cb2E
	movb	%dl, -71(%rbp)
	movb	%al, -72(%rbp)
Ltmp159:
	.loc	18 2407 15
	movb	-72(%rbp), %al
	andb	$1, %al
	movzbl	%al, %eax
	.loc	18 2407 9 is_stmt 0
	cmpq	$0, %rax
	jne	LBB17_2
	.loc	18 2409 21 is_stmt 1
	movb	$1, -80(%rbp)
	.loc	18 2409 44 is_stmt 0
	jmp	LBB17_3
LBB17_2:
	.loc	18 2408 18 is_stmt 1
	movb	-71(%rbp), %al
	movb	%al, -27(%rbp)
Ltmp160:
	.loc	18 2408 24 is_stmt 0
	movb	%al, -79(%rbp)
	movb	$0, -80(%rbp)
Ltmp161:
LBB17_3:
	.loc	20 46 17 is_stmt 1
	movb	-80(%rbp), %al
	andb	$1, %al
	movzbl	%al, %eax
	cmpq	$0, %rax
	jne	LBB17_5
	.loc	20 0 17 is_stmt 0
	movq	-104(%rbp), %rax
	.loc	20 46 17
	movb	-79(%rbp), %cl
	movb	%cl, -121(%rbp)
	movb	%cl, -26(%rbp)
Ltmp162:
	.loc	20 46 17
	movb	%cl, -25(%rbp)
Ltmp163:
	.loc	20 47 17 is_stmt 1
	movq	16(%rax), %rcx
	movq	%rcx, -120(%rbp)
	movq	%rcx, -24(%rbp)
Ltmp164:
	.loc	20 48 9
	movq	16(%rax), %rax
	addq	$1, %rax
	movq	%rax, -112(%rbp)
	setb	%al
	testb	$1, %al
	jne	LBB17_8
	jmp	LBB17_7
Ltmp165:
LBB17_5:
	.loc	20 0 9 is_stmt 0
	movq	-96(%rbp), %rax
Ltmp166:
	.loc	18 2420 21 is_stmt 1
	movq	$0, (%rax)
Ltmp167:
LBB17_6:
	.loc	18 0 21 is_stmt 0
	movq	-88(%rbp), %rax
	.loc	20 50 6 is_stmt 1
	addq	$128, %rsp
	popq	%rbp
	retq
LBB17_7:
	.loc	20 0 6 is_stmt 0
	movq	-96(%rbp), %rax
	movb	-121(%rbp), %cl
	movq	-120(%rbp), %rdx
	movq	-104(%rbp), %rsi
	movq	-112(%rbp), %rdi
Ltmp168:
	.loc	20 48 9 is_stmt 1
	movq	%rdi, 16(%rsi)
	.loc	20 49 14
	movq	%rdx, -64(%rbp)
	movb	%cl, -56(%rbp)
	.loc	20 49 9 is_stmt 0
	movq	-64(%rbp), %rdx
	movb	-56(%rbp), %cl
	movq	%rdx, 8(%rax)
	movb	%cl, 16(%rax)
	movq	$1, (%rax)
Ltmp169:
	.loc	20 50 6 is_stmt 1
	jmp	LBB17_6
LBB17_8:
Ltmp155:
Ltmp170:
	.loc	20 48 9
	leaq	_str.0(%rip), %rdi
	leaq	l___unnamed_22(%rip), %rdx
	movl	$28, %esi
	callq	__ZN4core9panicking5panic17hc1bc45270cf64b03E
Ltmp156:
	jmp	LBB17_11
Ltmp171:
LBB17_9:
	.loc	20 45 5
	movq	-16(%rbp), %rdi
	callq	__Unwind_Resume
Ltmp172:
LBB17_10:
Ltmp157:
	.loc	20 0 5 is_stmt 0
	movq	%rax, %rcx
	movl	%edx, %eax
	movq	%rcx, -16(%rbp)
	movl	%eax, -8(%rbp)
	jmp	LBB17_9
LBB17_11:
	ud2
Lfunc_end17:
	.cfi_endproc
	.section	__TEXT,__gcc_except_tab
	.p2align	2
GCC_except_table17:
Lexception2:
	.byte	255
	.byte	255
	.byte	1
	.uleb128 Lcst_end2-Lcst_begin2
Lcst_begin2:
	.uleb128 Lfunc_begin17-Lfunc_begin17
	.uleb128 Ltmp155-Lfunc_begin17
	.byte	0
	.byte	0
	.uleb128 Ltmp155-Lfunc_begin17
	.uleb128 Ltmp156-Ltmp155
	.uleb128 Ltmp157-Lfunc_begin17
	.byte	0
	.uleb128 Ltmp156-Lfunc_begin17
	.uleb128 Lfunc_end17-Ltmp156
	.byte	0
	.byte	0
Lcst_end2:
	.p2align	2

	.section	__TEXT,__text,regular,pure_instructions
	.globl	__ZN110_$LT$core..iter..adapters..enumerate..Enumerate$LT$I$GT$$u20$as$u20$core..iter..traits..iterator..Iterator$GT$4next17h25b1c4aa9aa734daE
	.p2align	4, 0x90
__ZN110_$LT$core..iter..adapters..enumerate..Enumerate$LT$I$GT$$u20$as$u20$core..iter..traits..iterator..Iterator$GT$4next17h25b1c4aa9aa734daE:
Lfunc_begin18:
	.loc	20 45 0 is_stmt 1
	.cfi_startproc
	.cfi_personality 155, _rust_eh_personality
	.cfi_lsda 16, Lexception3
	pushq	%rbp
	.cfi_def_cfa_offset 16
	.cfi_offset %rbp, -16
	movq	%rsp, %rbp
	.cfi_def_cfa_register %rbp
	subq	$160, %rsp
	movq	%rdi, -128(%rbp)
	movq	%rdi, -72(%rbp)
Ltmp176:
	.loc	20 46 17 prologue_end
	callq	__ZN91_$LT$core..slice..iter..Iter$LT$T$GT$$u20$as$u20$core..iter..traits..iterator..Iterator$GT$4next17habca4949355cc10aE
	movq	%rax, -96(%rbp)
Ltmp177:
	.loc	18 2407 15
	movq	-96(%rbp), %rdx
	movl	$1, %eax
	xorl	%ecx, %ecx
	cmpq	$0, %rdx
	cmoveq	%rcx, %rax
	.loc	18 2407 9 is_stmt 0
	cmpq	$0, %rax
	jne	LBB18_2
	.loc	18 2409 21 is_stmt 1
	movq	$0, -104(%rbp)
	.loc	18 2409 44 is_stmt 0
	jmp	LBB18_3
LBB18_2:
	.loc	18 2408 18 is_stmt 1
	movq	-96(%rbp), %rax
	movq	%rax, -48(%rbp)
Ltmp178:
	.loc	18 2408 24 is_stmt 0
	movq	%rax, -104(%rbp)
Ltmp179:
LBB18_3:
	.loc	20 46 17 is_stmt 1
	movq	-104(%rbp), %rdx
	xorl	%eax, %eax
	movl	$1, %ecx
	cmpq	$0, %rdx
	cmoveq	%rcx, %rax
	cmpq	$0, %rax
	jne	LBB18_5
	.loc	20 0 17 is_stmt 0
	movq	-128(%rbp), %rax
	.loc	20 46 17
	movq	-104(%rbp), %rcx
	movq	%rcx, -152(%rbp)
	movq	%rcx, -40(%rbp)
Ltmp180:
	.loc	20 46 17
	movq	%rcx, -32(%rbp)
Ltmp181:
	.loc	20 47 17 is_stmt 1
	movq	16(%rax), %rcx
	movq	%rcx, -144(%rbp)
	movq	%rcx, -24(%rbp)
Ltmp182:
	.loc	20 48 9
	movq	16(%rax), %rax
	addq	$1, %rax
	movq	%rax, -136(%rbp)
	setb	%al
	testb	$1, %al
	jne	LBB18_8
	jmp	LBB18_7
Ltmp183:
LBB18_5:
	.loc	18 2420 21
	movq	$0, -112(%rbp)
Ltmp184:
LBB18_6:
	.loc	20 50 6
	movq	-120(%rbp), %rax
	movq	-112(%rbp), %rdx
	addq	$160, %rsp
	popq	%rbp
	retq
LBB18_7:
	.loc	20 0 6 is_stmt 0
	movq	-152(%rbp), %rax
	movq	-144(%rbp), %rcx
	movq	-128(%rbp), %rdx
	movq	-136(%rbp), %rsi
Ltmp185:
	.loc	20 48 9 is_stmt 1
	movq	%rsi, 16(%rdx)
	.loc	20 49 14
	movq	%rcx, -88(%rbp)
	movq	%rax, -80(%rbp)
	.loc	20 49 9 is_stmt 0
	movq	-88(%rbp), %rcx
	movq	-80(%rbp), %rax
	movq	%rcx, -120(%rbp)
	movq	%rax, -112(%rbp)
Ltmp186:
	.loc	20 50 6 is_stmt 1
	jmp	LBB18_6
LBB18_8:
Ltmp173:
Ltmp187:
	.loc	20 48 9
	leaq	_str.0(%rip), %rdi
	leaq	l___unnamed_22(%rip), %rdx
	movl	$28, %esi
	callq	__ZN4core9panicking5panic17hc1bc45270cf64b03E
Ltmp174:
	jmp	LBB18_11
Ltmp188:
LBB18_9:
	.loc	20 45 5
	movq	-16(%rbp), %rdi
	callq	__Unwind_Resume
Ltmp189:
LBB18_10:
Ltmp175:
	.loc	20 0 5 is_stmt 0
	movq	%rax, %rcx
	movl	%edx, %eax
	movq	%rcx, -16(%rbp)
	movl	%eax, -8(%rbp)
	jmp	LBB18_9
LBB18_11:
	ud2
Lfunc_end18:
	.cfi_endproc
	.section	__TEXT,__gcc_except_tab
	.p2align	2
GCC_except_table18:
Lexception3:
	.byte	255
	.byte	255
	.byte	1
	.uleb128 Lcst_end3-Lcst_begin3
Lcst_begin3:
	.uleb128 Lfunc_begin18-Lfunc_begin18
	.uleb128 Ltmp173-Lfunc_begin18
	.byte	0
	.byte	0
	.uleb128 Ltmp173-Lfunc_begin18
	.uleb128 Ltmp174-Ltmp173
	.uleb128 Ltmp175-Lfunc_begin18
	.byte	0
	.uleb128 Ltmp174-Lfunc_begin18
	.uleb128 Lfunc_end18-Ltmp174
	.byte	0
	.byte	0
Lcst_end3:
	.p2align	2

	.section	__TEXT,__text,regular,pure_instructions
	.globl	__ZN110_$LT$core..iter..adapters..enumerate..Enumerate$LT$I$GT$$u20$as$u20$core..iter..traits..iterator..Iterator$GT$4next17h47cbe9cec05f8be7E
	.p2align	4, 0x90
__ZN110_$LT$core..iter..adapters..enumerate..Enumerate$LT$I$GT$$u20$as$u20$core..iter..traits..iterator..Iterator$GT$4next17h47cbe9cec05f8be7E:
Lfunc_begin19:
	.loc	20 45 0 is_stmt 1
	.cfi_startproc
	.cfi_personality 155, _rust_eh_personality
	.cfi_lsda 16, Lexception4
	pushq	%rbp
	.cfi_def_cfa_offset 16
	.cfi_offset %rbp, -16
	movq	%rsp, %rbp
	.cfi_def_cfa_register %rbp
	subq	$160, %rsp
	movq	%rdi, -128(%rbp)
	movq	%rdi, -72(%rbp)
Ltmp193:
	.loc	20 46 17 prologue_end
	callq	__ZN91_$LT$core..slice..iter..Iter$LT$T$GT$$u20$as$u20$core..iter..traits..iterator..Iterator$GT$4next17h3d0c3f0ca166550aE
	movq	%rax, -96(%rbp)
Ltmp194:
	.loc	18 2407 15
	movq	-96(%rbp), %rdx
	movl	$1, %eax
	xorl	%ecx, %ecx
	cmpq	$0, %rdx
	cmoveq	%rcx, %rax
	.loc	18 2407 9 is_stmt 0
	cmpq	$0, %rax
	jne	LBB19_2
	.loc	18 2409 21 is_stmt 1
	movq	$0, -104(%rbp)
	.loc	18 2409 44 is_stmt 0
	jmp	LBB19_3
LBB19_2:
	.loc	18 2408 18 is_stmt 1
	movq	-96(%rbp), %rax
	movq	%rax, -48(%rbp)
Ltmp195:
	.loc	18 2408 24 is_stmt 0
	movq	%rax, -104(%rbp)
Ltmp196:
LBB19_3:
	.loc	20 46 17 is_stmt 1
	movq	-104(%rbp), %rdx
	xorl	%eax, %eax
	movl	$1, %ecx
	cmpq	$0, %rdx
	cmoveq	%rcx, %rax
	cmpq	$0, %rax
	jne	LBB19_5
	.loc	20 0 17 is_stmt 0
	movq	-128(%rbp), %rax
	.loc	20 46 17
	movq	-104(%rbp), %rcx
	movq	%rcx, -152(%rbp)
	movq	%rcx, -40(%rbp)
Ltmp197:
	.loc	20 46 17
	movq	%rcx, -32(%rbp)
Ltmp198:
	.loc	20 47 17 is_stmt 1
	movq	16(%rax), %rcx
	movq	%rcx, -144(%rbp)
	movq	%rcx, -24(%rbp)
Ltmp199:
	.loc	20 48 9
	movq	16(%rax), %rax
	addq	$1, %rax
	movq	%rax, -136(%rbp)
	setb	%al
	testb	$1, %al
	jne	LBB19_8
	jmp	LBB19_7
Ltmp200:
LBB19_5:
	.loc	18 2420 21
	movq	$0, -112(%rbp)
Ltmp201:
LBB19_6:
	.loc	20 50 6
	movq	-120(%rbp), %rax
	movq	-112(%rbp), %rdx
	addq	$160, %rsp
	popq	%rbp
	retq
LBB19_7:
	.loc	20 0 6 is_stmt 0
	movq	-152(%rbp), %rax
	movq	-144(%rbp), %rcx
	movq	-128(%rbp), %rdx
	movq	-136(%rbp), %rsi
Ltmp202:
	.loc	20 48 9 is_stmt 1
	movq	%rsi, 16(%rdx)
	.loc	20 49 14
	movq	%rcx, -88(%rbp)
	movq	%rax, -80(%rbp)
	.loc	20 49 9 is_stmt 0
	movq	-88(%rbp), %rcx
	movq	-80(%rbp), %rax
	movq	%rcx, -120(%rbp)
	movq	%rax, -112(%rbp)
Ltmp203:
	.loc	20 50 6 is_stmt 1
	jmp	LBB19_6
LBB19_8:
Ltmp190:
Ltmp204:
	.loc	20 48 9
	leaq	_str.0(%rip), %rdi
	leaq	l___unnamed_22(%rip), %rdx
	movl	$28, %esi
	callq	__ZN4core9panicking5panic17hc1bc45270cf64b03E
Ltmp191:
	jmp	LBB19_11
Ltmp205:
LBB19_9:
	.loc	20 45 5
	movq	-16(%rbp), %rdi
	callq	__Unwind_Resume
Ltmp206:
LBB19_10:
Ltmp192:
	.loc	20 0 5 is_stmt 0
	movq	%rax, %rcx
	movl	%edx, %eax
	movq	%rcx, -16(%rbp)
	movl	%eax, -8(%rbp)
	jmp	LBB19_9
LBB19_11:
	ud2
Lfunc_end19:
	.cfi_endproc
	.section	__TEXT,__gcc_except_tab
	.p2align	2
GCC_except_table19:
Lexception4:
	.byte	255
	.byte	255
	.byte	1
	.uleb128 Lcst_end4-Lcst_begin4
Lcst_begin4:
	.uleb128 Lfunc_begin19-Lfunc_begin19
	.uleb128 Ltmp190-Lfunc_begin19
	.byte	0
	.byte	0
	.uleb128 Ltmp190-Lfunc_begin19
	.uleb128 Ltmp191-Ltmp190
	.uleb128 Ltmp192-Lfunc_begin19
	.byte	0
	.uleb128 Ltmp191-Lfunc_begin19
	.uleb128 Lfunc_end19-Ltmp191
	.byte	0
	.byte	0
Lcst_end4:
	.p2align	2

	.section	__TEXT,__text,regular,pure_instructions
	.globl	__ZN110_$LT$core..iter..adapters..enumerate..Enumerate$LT$I$GT$$u20$as$u20$core..iter..traits..iterator..Iterator$GT$4next17h5cd4cee232e0c5f2E
	.p2align	4, 0x90
__ZN110_$LT$core..iter..adapters..enumerate..Enumerate$LT$I$GT$$u20$as$u20$core..iter..traits..iterator..Iterator$GT$4next17h5cd4cee232e0c5f2E:
Lfunc_begin20:
	.loc	20 45 0 is_stmt 1
	.cfi_startproc
	.cfi_personality 155, _rust_eh_personality
	.cfi_lsda 16, Lexception5
	pushq	%rbp
	.cfi_def_cfa_offset 16
	.cfi_offset %rbp, -16
	movq	%rsp, %rbp
	.cfi_def_cfa_register %rbp
	subq	$160, %rsp
	movq	%rdi, -128(%rbp)
	movq	%rdi, -72(%rbp)
Ltmp210:
	.loc	20 46 17 prologue_end
	callq	__ZN91_$LT$core..slice..iter..Iter$LT$T$GT$$u20$as$u20$core..iter..traits..iterator..Iterator$GT$4next17hb7e85587f28beba1E
	movq	%rax, -96(%rbp)
Ltmp211:
	.loc	18 2407 15
	movq	-96(%rbp), %rdx
	movl	$1, %eax
	xorl	%ecx, %ecx
	cmpq	$0, %rdx
	cmoveq	%rcx, %rax
	.loc	18 2407 9 is_stmt 0
	cmpq	$0, %rax
	jne	LBB20_2
	.loc	18 2409 21 is_stmt 1
	movq	$0, -104(%rbp)
	.loc	18 2409 44 is_stmt 0
	jmp	LBB20_3
LBB20_2:
	.loc	18 2408 18 is_stmt 1
	movq	-96(%rbp), %rax
	movq	%rax, -48(%rbp)
Ltmp212:
	.loc	18 2408 24 is_stmt 0
	movq	%rax, -104(%rbp)
Ltmp213:
LBB20_3:
	.loc	20 46 17 is_stmt 1
	movq	-104(%rbp), %rdx
	xorl	%eax, %eax
	movl	$1, %ecx
	cmpq	$0, %rdx
	cmoveq	%rcx, %rax
	cmpq	$0, %rax
	jne	LBB20_5
	.loc	20 0 17 is_stmt 0
	movq	-128(%rbp), %rax
	.loc	20 46 17
	movq	-104(%rbp), %rcx
	movq	%rcx, -152(%rbp)
	movq	%rcx, -40(%rbp)
Ltmp214:
	.loc	20 46 17
	movq	%rcx, -32(%rbp)
Ltmp215:
	.loc	20 47 17 is_stmt 1
	movq	16(%rax), %rcx
	movq	%rcx, -144(%rbp)
	movq	%rcx, -24(%rbp)
Ltmp216:
	.loc	20 48 9
	movq	16(%rax), %rax
	addq	$1, %rax
	movq	%rax, -136(%rbp)
	setb	%al
	testb	$1, %al
	jne	LBB20_8
	jmp	LBB20_7
Ltmp217:
LBB20_5:
	.loc	18 2420 21
	movq	$0, -112(%rbp)
Ltmp218:
LBB20_6:
	.loc	20 50 6
	movq	-120(%rbp), %rax
	movq	-112(%rbp), %rdx
	addq	$160, %rsp
	popq	%rbp
	retq
LBB20_7:
	.loc	20 0 6 is_stmt 0
	movq	-152(%rbp), %rax
	movq	-144(%rbp), %rcx
	movq	-128(%rbp), %rdx
	movq	-136(%rbp), %rsi
Ltmp219:
	.loc	20 48 9 is_stmt 1
	movq	%rsi, 16(%rdx)
	.loc	20 49 14
	movq	%rcx, -88(%rbp)
	movq	%rax, -80(%rbp)
	.loc	20 49 9 is_stmt 0
	movq	-88(%rbp), %rcx
	movq	-80(%rbp), %rax
	movq	%rcx, -120(%rbp)
	movq	%rax, -112(%rbp)
Ltmp220:
	.loc	20 50 6 is_stmt 1
	jmp	LBB20_6
LBB20_8:
Ltmp207:
Ltmp221:
	.loc	20 48 9
	leaq	_str.0(%rip), %rdi
	leaq	l___unnamed_22(%rip), %rdx
	movl	$28, %esi
	callq	__ZN4core9panicking5panic17hc1bc45270cf64b03E
Ltmp208:
	jmp	LBB20_11
Ltmp222:
LBB20_9:
	.loc	20 45 5
	movq	-16(%rbp), %rdi
	callq	__Unwind_Resume
Ltmp223:
LBB20_10:
Ltmp209:
	.loc	20 0 5 is_stmt 0
	movq	%rax, %rcx
	movl	%edx, %eax
	movq	%rcx, -16(%rbp)
	movl	%eax, -8(%rbp)
	jmp	LBB20_9
LBB20_11:
	ud2
Lfunc_end20:
	.cfi_endproc
	.section	__TEXT,__gcc_except_tab
	.p2align	2
GCC_except_table20:
Lexception5:
	.byte	255
	.byte	255
	.byte	1
	.uleb128 Lcst_end5-Lcst_begin5
Lcst_begin5:
	.uleb128 Lfunc_begin20-Lfunc_begin20
	.uleb128 Ltmp207-Lfunc_begin20
	.byte	0
	.byte	0
	.uleb128 Ltmp207-Lfunc_begin20
	.uleb128 Ltmp208-Ltmp207
	.uleb128 Ltmp209-Lfunc_begin20
	.byte	0
	.uleb128 Ltmp208-Lfunc_begin20
	.uleb128 Lfunc_end20-Ltmp208
	.byte	0
	.byte	0
Lcst_end5:
	.p2align	2

	.section	__TEXT,__text,regular,pure_instructions
	.globl	__ZN110_$LT$core..ops..range..RangeFrom$LT$usize$GT$$u20$as$u20$core..slice..index..SliceIndex$LT$$u5b$T$u5d$$GT$$GT$5index17h4516066a74008c6aE
	.p2align	4, 0x90
__ZN110_$LT$core..ops..range..RangeFrom$LT$usize$GT$$u20$as$u20$core..slice..index..SliceIndex$LT$$u5b$T$u5d$$GT$$GT$5index17h4516066a74008c6aE:
Lfunc_begin21:
	.loc	16 493 0 is_stmt 1
	.cfi_startproc
	pushq	%rbp
	.cfi_def_cfa_offset 16
	.cfi_offset %rbp, -16
	movq	%rsp, %rbp
	.cfi_def_cfa_register %rbp
	subq	$144, %rsp
	movq	%rdi, -144(%rbp)
	movq	%rsi, -136(%rbp)
	movq	%rdx, -128(%rbp)
	movq	%rcx, -120(%rbp)
	movq	%rdi, -80(%rbp)
	movq	%rsi, -72(%rbp)
	movq	%rdx, -64(%rbp)
Ltmp224:
	.loc	16 494 12 prologue_end
	cmpq	%rdx, %rdi
	ja	LBB21_2
	.loc	16 0 12 is_stmt 0
	movq	-128(%rbp), %rcx
	movq	-136(%rbp), %rdx
	movq	-144(%rbp), %rsi
	.loc	16 498 20 is_stmt 1
	movq	%rsi, -56(%rbp)
	.loc	16 498 39 is_stmt 0
	movq	%rdx, -48(%rbp)
	movq	%rcx, -40(%rbp)
Ltmp225:
	.loc	16 483 31 is_stmt 1
	movq	%rdx, -32(%rbp)
	movq	%rcx, -24(%rbp)
Ltmp226:
	.loc	3 1630 18
	movq	%rdx, -16(%rbp)
	movq	%rcx, -8(%rbp)
Ltmp227:
	.loc	7 98 14
	movq	%rdx, -96(%rbp)
	movq	%rcx, -88(%rbp)
	movq	-88(%rbp), %rax
Ltmp228:
	.loc	16 483 18
	movq	%rsi, -112(%rbp)
	movq	%rax, -104(%rbp)
	movq	-112(%rbp), %rdi
	movq	-104(%rbp), %rsi
	callq	__ZN106_$LT$core..ops..range..Range$LT$usize$GT$$u20$as$u20$core..slice..index..SliceIndex$LT$$u5b$T$u5d$$GT$$GT$13get_unchecked17hc16cac96ea3f5b4cE
Ltmp229:
	.loc	16 499 6
	addq	$144, %rsp
	popq	%rbp
	retq
LBB21_2:
	.loc	16 0 6 is_stmt 0
	movq	-120(%rbp), %rdx
	movq	-128(%rbp), %rsi
	movq	-144(%rbp), %rdi
	.loc	16 495 13 is_stmt 1
	callq	__ZN4core5slice5index26slice_start_index_len_fail17h9d301bb51ec3e351E
Ltmp230:
Lfunc_end21:
	.cfi_endproc

	.globl	__ZN111_$LT$core..iter..adapters..zip..Zip$LT$A$C$B$GT$$u20$as$u20$core..iter..adapters..zip..ZipImpl$LT$A$C$B$GT$$GT$3new17h1d27793b01817b25E
	.p2align	4, 0x90
__ZN111_$LT$core..iter..adapters..zip..Zip$LT$A$C$B$GT$$u20$as$u20$core..iter..adapters..zip..ZipImpl$LT$A$C$B$GT$$GT$3new17h1d27793b01817b25E:
Lfunc_begin22:
	.file	21 "/rustc/2c8cc343237b8f7d5a3c3703e3a87f2eb2c54a74/library/core/src/iter/adapters" "zip.rs"
	.loc	21 262 0
	.cfi_startproc
	.cfi_personality 155, _rust_eh_personality
	.cfi_lsda 16, Lexception6
	pushq	%rbp
	.cfi_def_cfa_offset 16
	.cfi_offset %rbp, -16
	movq	%rsp, %rbp
	.cfi_def_cfa_register %rbp
	subq	$144, %rsp
	movq	%rdi, -120(%rbp)
	movq	%rdi, -112(%rbp)
	movq	%rsi, -96(%rbp)
	movq	%rdx, -88(%rbp)
	movq	%rcx, -80(%rbp)
	movq	%r8, -72(%rbp)
Ltmp231:
	leaq	-96(%rbp), %rdi
Ltmp238:
	.loc	21 263 21 prologue_end
	callq	__ZN4core4iter8adapters3zip27TrustedRandomAccessNoCoerce4size17h53720b3b93329b89E
Ltmp232:
	movq	%rax, -104(%rbp)
	jmp	LBB22_3
LBB22_1:
	.loc	21 262 5
	movq	-64(%rbp), %rdi
	callq	__Unwind_Resume
LBB22_2:
Ltmp237:
	.loc	21 0 5 is_stmt 0
	movq	%rax, %rcx
	movl	%edx, %eax
	movq	%rcx, -64(%rbp)
	movl	%eax, -56(%rbp)
	jmp	LBB22_1
LBB22_3:
	movq	-104(%rbp), %rax
	.loc	21 263 21 is_stmt 1
	movq	%rax, -48(%rbp)
Ltmp239:
	.loc	21 264 28
	movq	%rax, -40(%rbp)
Ltmp233:
	leaq	-80(%rbp), %rdi
	.loc	21 264 35 is_stmt 0
	callq	__ZN4core4iter8adapters3zip27TrustedRandomAccessNoCoerce4size17h53720b3b93329b89E
Ltmp234:
	movq	%rax, -128(%rbp)
	jmp	LBB22_4
LBB22_4:
	.loc	21 0 35
	movq	-128(%rbp), %rsi
	movq	-104(%rbp), %rdi
	.loc	21 264 35
	movq	%rsi, -32(%rbp)
Ltmp240:
	.file	22 "/rustc/2c8cc343237b8f7d5a3c3703e3a87f2eb2c54a74/library/core/src" "cmp.rs"
	.loc	22 1185 5 is_stmt 1
	movq	%rdi, -24(%rbp)
	.loc	22 1185 12 is_stmt 0
	movq	%rsi, -16(%rbp)
Ltmp235:
Ltmp241:
	.loc	22 833 13 is_stmt 1
	callq	__ZN4core3cmp6min_by17h2e9b49e4095641a2E
Ltmp236:
	movq	%rax, -136(%rbp)
	jmp	LBB22_5
LBB22_5:
	.loc	22 0 13 is_stmt 0
	movq	-112(%rbp), %rax
	movq	-120(%rbp), %rcx
	movq	-104(%rbp), %rdx
	movq	-136(%rbp), %rsi
	.loc	22 833 13
	movq	%rsi, -8(%rbp)
Ltmp242:
	.loc	21 265 15 is_stmt 1
	movq	-96(%rbp), %r10
	movq	-88(%rbp), %r9
	.loc	21 265 18 is_stmt 0
	movq	-80(%rbp), %r8
	movq	-72(%rbp), %rdi
	.loc	21 265 9
	movq	%r10, (%rcx)
	movq	%r9, 8(%rcx)
	movq	%r8, 16(%rcx)
	movq	%rdi, 24(%rcx)
	movq	$0, 32(%rcx)
	movq	%rsi, 40(%rcx)
	movq	%rdx, 48(%rcx)
Ltmp243:
	.loc	21 266 6 is_stmt 1
	addq	$144, %rsp
	popq	%rbp
	retq
Ltmp244:
Lfunc_end22:
	.cfi_endproc
	.section	__TEXT,__gcc_except_tab
	.p2align	2
GCC_except_table22:
Lexception6:
	.byte	255
	.byte	255
	.byte	1
	.uleb128 Lcst_end6-Lcst_begin6
Lcst_begin6:
	.uleb128 Ltmp231-Lfunc_begin22
	.uleb128 Ltmp232-Ltmp231
	.uleb128 Ltmp237-Lfunc_begin22
	.byte	0
	.uleb128 Ltmp232-Lfunc_begin22
	.uleb128 Ltmp233-Ltmp232
	.byte	0
	.byte	0
	.uleb128 Ltmp233-Lfunc_begin22
	.uleb128 Ltmp236-Ltmp233
	.uleb128 Ltmp237-Lfunc_begin22
	.byte	0
Lcst_end6:
	.p2align	2

	.section	__TEXT,__text,regular,pure_instructions
	.globl	__ZN111_$LT$core..iter..adapters..zip..Zip$LT$A$C$B$GT$$u20$as$u20$core..iter..adapters..zip..ZipImpl$LT$A$C$B$GT$$GT$4next17hc0ba7efc0c8ccf91E
	.p2align	4, 0x90
__ZN111_$LT$core..iter..adapters..zip..Zip$LT$A$C$B$GT$$u20$as$u20$core..iter..adapters..zip..ZipImpl$LT$A$C$B$GT$$GT$4next17hc0ba7efc0c8ccf91E:
Lfunc_begin23:
	.loc	21 269 0
	.cfi_startproc
	.cfi_personality 155, _rust_eh_personality
	.cfi_lsda 16, Lexception7
	pushq	%rbp
	.cfi_def_cfa_offset 16
	.cfi_offset %rbp, -16
	movq	%rsp, %rbp
	.cfi_def_cfa_register %rbp
	subq	$112, %rsp
	movq	%rdi, -88(%rbp)
	movq	%rdi, -40(%rbp)
Ltmp248:
	.loc	21 270 12 prologue_end
	movq	32(%rdi), %rax
	cmpq	40(%rdi), %rax
	jb	LBB23_2
	.loc	21 279 19
	xorl	%eax, %eax
	testb	$1, %al
	jne	LBB23_8
	jmp	LBB23_7
LBB23_2:
	.loc	21 0 19 is_stmt 0
	movq	-88(%rbp), %rdi
	.loc	21 271 21 is_stmt 1
	movq	32(%rdi), %rsi
	movq	%rsi, -112(%rbp)
	movq	%rsi, -32(%rbp)
Ltmp249:
	.loc	21 274 13
	movq	32(%rdi), %rax
	incq	%rax
	movq	%rax, 32(%rdi)
	.loc	21 277 23
	callq	__ZN91_$LT$core..slice..iter..Iter$LT$T$GT$$u20$as$u20$core..iter..traits..iterator..Iterator$GT$24__iterator_get_unchecked17h1e3eb60928c92815E
	movq	-88(%rbp), %rdi
	movq	-112(%rbp), %rsi
	movq	%rax, -104(%rbp)
	.loc	21 277 59 is_stmt 0
	addq	$16, %rdi
Ltmp245:
	callq	__ZN91_$LT$core..slice..iter..Iter$LT$T$GT$$u20$as$u20$core..iter..traits..iterator..Iterator$GT$24__iterator_get_unchecked17h1e3eb60928c92815E
Ltmp246:
	movq	%rax, -96(%rbp)
	jmp	LBB23_5
Ltmp250:
LBB23_3:
	.loc	21 269 5 is_stmt 1
	movq	-24(%rbp), %rdi
	callq	__Unwind_Resume
LBB23_4:
Ltmp247:
	.loc	21 0 5 is_stmt 0
	movq	%rax, %rcx
	movl	%edx, %eax
	movq	%rcx, -24(%rbp)
	movl	%eax, -16(%rbp)
	jmp	LBB23_3
LBB23_5:
	movq	-96(%rbp), %rax
	movq	-104(%rbp), %rcx
Ltmp251:
	.loc	21 277 22 is_stmt 1
	movq	%rcx, -64(%rbp)
	movq	%rax, -56(%rbp)
	.loc	21 277 17 is_stmt 0
	movq	-64(%rbp), %rcx
	movq	-56(%rbp), %rax
	movq	%rcx, -80(%rbp)
	movq	%rax, -72(%rbp)
Ltmp252:
LBB23_6:
	.loc	21 293 6 is_stmt 1
	movq	-80(%rbp), %rax
	movq	-72(%rbp), %rdx
	addq	$112, %rsp
	popq	%rbp
	retq
LBB23_7:
	.loc	21 279 19
	movb	$0, -41(%rbp)
	jmp	LBB23_9
LBB23_8:
	.loc	21 0 19 is_stmt 0
	movq	-88(%rbp), %rcx
	.loc	21 279 46
	movq	32(%rcx), %rax
	cmpq	48(%rcx), %rax
	setb	%al
	.loc	21 279 19
	andb	$1, %al
	movb	%al, -41(%rbp)
LBB23_9:
	testb	$1, -41(%rbp)
	jne	LBB23_11
	.loc	21 291 13 is_stmt 1
	movq	$0, -80(%rbp)
	.loc	21 279 16
	jmp	LBB23_12
LBB23_11:
	.loc	21 0 16 is_stmt 0
	movq	-88(%rbp), %rdi
	.loc	21 280 21 is_stmt 1
	movq	32(%rdi), %rsi
	movq	%rsi, -8(%rbp)
Ltmp253:
	.loc	21 282 13
	movq	32(%rdi), %rax
	addq	$1, %rax
	movq	%rax, 32(%rdi)
	.loc	21 283 13
	movq	40(%rdi), %rax
	addq	$1, %rax
	movq	%rax, 40(%rdi)
	.loc	21 287 17
	callq	__ZN91_$LT$core..slice..iter..Iter$LT$T$GT$$u20$as$u20$core..iter..traits..iterator..Iterator$GT$24__iterator_get_unchecked17h1e3eb60928c92815E
	.loc	21 289 13
	movq	$0, -80(%rbp)
Ltmp254:
LBB23_12:
	.loc	21 270 9
	jmp	LBB23_6
Ltmp255:
Lfunc_end23:
	.cfi_endproc
	.section	__TEXT,__gcc_except_tab
	.p2align	2
GCC_except_table23:
Lexception7:
	.byte	255
	.byte	255
	.byte	1
	.uleb128 Lcst_end7-Lcst_begin7
Lcst_begin7:
	.uleb128 Lfunc_begin23-Lfunc_begin23
	.uleb128 Ltmp245-Lfunc_begin23
	.byte	0
	.byte	0
	.uleb128 Ltmp245-Lfunc_begin23
	.uleb128 Ltmp246-Ltmp245
	.uleb128 Ltmp247-Lfunc_begin23
	.byte	0
	.uleb128 Ltmp246-Lfunc_begin23
	.uleb128 Lfunc_end23-Ltmp246
	.byte	0
	.byte	0
Lcst_end7:
	.p2align	2

	.section	__TEXT,__text,regular,pure_instructions
	.p2align	4, 0x90
__ZN113_$LT$alloc..string..String$u20$as$u20$core..ops..index..Index$LT$core..ops..range..RangeFrom$LT$usize$GT$$GT$$GT$5index17h8750837bbad29756E:
Lfunc_begin24:
	.file	23 "/rustc/2c8cc343237b8f7d5a3c3703e3a87f2eb2c54a74/library/alloc/src" "string.rs"
	.loc	23 2379 0
	.cfi_startproc
	pushq	%rbp
	.cfi_def_cfa_offset 16
	.cfi_offset %rbp, -16
	movq	%rsp, %rbp
	.cfi_def_cfa_register %rbp
	subq	$112, %rsp
	movq	%rsi, -104(%rbp)
	movq	%rdx, -96(%rbp)
	movq	%rdi, -88(%rbp)
	movq	%rsi, -80(%rbp)
Ltmp256:
	.loc	23 2380 10 prologue_end
	movq	%rdi, -64(%rbp)
Ltmp257:
	.loc	23 2389 43
	callq	__ZN72_$LT$alloc..vec..Vec$LT$T$C$A$GT$$u20$as$u20$core..ops..deref..Deref$GT$5deref17h41eb01866a6f1696E
	movq	-104(%rbp), %rdi
	movq	-96(%rbp), %rcx
	movq	%rax, -56(%rbp)
	movq	%rdx, -48(%rbp)
Ltmp258:
	.file	24 "/rustc/2c8cc343237b8f7d5a3c3703e3a87f2eb2c54a74/library/core/src/str" "converts.rs"
	.loc	24 173 14
	movq	%rax, -40(%rbp)
	movq	%rdx, -32(%rbp)
	movq	-40(%rbp), %rsi
	movq	-32(%rbp), %rdx
Ltmp259:
	.loc	23 2380 10
	movq	%rsi, -24(%rbp)
	movq	%rdx, -16(%rbp)
	.loc	23 2380 19 is_stmt 0
	movq	%rdi, -8(%rbp)
Ltmp260:
	.file	25 "/rustc/2c8cc343237b8f7d5a3c3703e3a87f2eb2c54a74/library/core/src/str" "traits.rs"
	.loc	25 65 9 is_stmt 1
	callq	__ZN4core3str6traits112_$LT$impl$u20$core..slice..index..SliceIndex$LT$str$GT$$u20$for$u20$core..ops..range..RangeFrom$LT$usize$GT$$GT$5index17h39f5fd3fef7933baE
Ltmp261:
	.loc	23 2381 6
	addq	$112, %rsp
	popq	%rbp
	retq
Ltmp262:
Lfunc_end24:
	.cfi_endproc

	.globl	__ZN114_$LT$core..core_simd..masks..Mask$LT$T$C$16_usize$GT$$u20$as$u20$core..core_simd..masks..to_bitmask..ToBitMask$GT$10to_bitmask17h952789fa3af75a8bE
	.p2align	4, 0x90
__ZN114_$LT$core..core_simd..masks..Mask$LT$T$C$16_usize$GT$$u20$as$u20$core..core_simd..masks..to_bitmask..ToBitMask$GT$10to_bitmask17h952789fa3af75a8bE:
Lfunc_begin25:
	.file	26 "/rustc/2c8cc343237b8f7d5a3c3703e3a87f2eb2c54a74/library/core/src/../../portable-simd/crates/core_simd/src/masks" "to_bitmask.rs"
	.loc	26 51 0
	.cfi_startproc
	pushq	%rbp
	.cfi_def_cfa_offset 16
	.cfi_offset %rbp, -16
	movq	%rsp, %rbp
	.cfi_def_cfa_register %rbp
	subq	$32, %rsp
Ltmp263:
	.loc	26 52 17 prologue_end
	movaps	(%rdi), %xmm0
	movaps	%xmm0, -32(%rbp)
Ltmp264:
	.file	27 "/rustc/2c8cc343237b8f7d5a3c3703e3a87f2eb2c54a74/library/core/src/../../portable-simd/crates/core_simd/src/masks" "full_masks.rs"
	.loc	27 213 35
	pmovmskb	%xmm0, %eax
	movw	%ax, -2(%rbp)
	movw	-2(%rbp), %ax
Ltmp265:
	.loc	26 53 14
	addq	$32, %rsp
	popq	%rbp
	retq
Ltmp266:
Lfunc_end25:
	.cfi_endproc

	.globl	__ZN116_$LT$core..core_simd..vector..Simd$LT$T$C$_$GT$$u20$as$u20$core..convert..From$LT$$u5b$T$u3b$$u20$LANES$u5d$$GT$$GT$4from17h360d1a092b438c64E
	.p2align	4, 0x90
__ZN116_$LT$core..core_simd..vector..Simd$LT$T$C$_$GT$$u20$as$u20$core..convert..From$LT$$u5b$T$u3b$$u20$LANES$u5d$$GT$$GT$4from17h360d1a092b438c64E:
Lfunc_begin26:
	.file	28 "/rustc/2c8cc343237b8f7d5a3c3703e3a87f2eb2c54a74/library/core/src/../../portable-simd/crates/core_simd/src" "vector.rs"
	.loc	28 627 0
	.cfi_startproc
	pushq	%rbp
	.cfi_def_cfa_offset 16
	.cfi_offset %rbp, -16
	movq	%rsp, %rbp
	.cfi_def_cfa_register %rbp
	subq	$3, %rsp
	movb	%sil, %cl
	movq	%rdi, %rax
	movb	%cl, -2(%rbp)
	movb	-2(%rbp), %cl
	movb	%cl, -3(%rbp)
Ltmp267:
	.loc	28 628 14 prologue_end
	movb	-3(%rbp), %cl
	movb	%cl, -1(%rbp)
	.loc	28 628 9 is_stmt 0
	movb	-1(%rbp), %cl
	movb	%cl, (%rdi)
	.loc	28 629 6 is_stmt 1
	addq	$3, %rsp
	popq	%rbp
	retq
Ltmp268:
Lfunc_end26:
	.cfi_endproc

	.globl	__ZN119_$LT$core..ptr..non_null..NonNull$LT$T$GT$$u20$as$u20$core..convert..From$LT$core..ptr..unique..Unique$LT$T$GT$$GT$$GT$4from17h62eef6638e81345eE
	.p2align	4, 0x90
__ZN119_$LT$core..ptr..non_null..NonNull$LT$T$GT$$u20$as$u20$core..convert..From$LT$core..ptr..unique..Unique$LT$T$GT$$GT$$GT$4from17h62eef6638e81345eE:
Lfunc_begin27:
	.file	29 "/rustc/2c8cc343237b8f7d5a3c3703e3a87f2eb2c54a74/library/core/src/ptr" "non_null.rs"
	.loc	29 765 0
	.cfi_startproc
	pushq	%rbp
	.cfi_def_cfa_offset 16
	.cfi_offset %rbp, -16
	movq	%rsp, %rbp
	.cfi_def_cfa_register %rbp
	subq	$40, %rsp
	movq	%rdi, -32(%rbp)
Ltmp269:
	.loc	29 768 41 prologue_end
	movq	%rdi, -24(%rbp)
Ltmp270:
	.file	30 "/rustc/2c8cc343237b8f7d5a3c3703e3a87f2eb2c54a74/library/core/src/ptr" "unique.rs"
	.loc	30 104 9
	movq	%rdi, -16(%rbp)
Ltmp271:
	.loc	29 326 9
	movq	%rdi, -8(%rbp)
Ltmp272:
	.loc	29 201 13
	movq	%rdi, -40(%rbp)
Ltmp273:
	.loc	29 769 6
	movq	-40(%rbp), %rax
	addq	$40, %rsp
	popq	%rbp
	retq
Ltmp274:
Lfunc_end27:
	.cfi_endproc

	.p2align	4, 0x90
__ZN122_$LT$alloc..collections..TryReserveError$u20$as$u20$core..convert..From$LT$alloc..collections..TryReserveErrorKind$GT$$GT$4from17h0d7c81783596cb53E:
Lfunc_begin28:
	.file	31 "/rustc/2c8cc343237b8f7d5a3c3703e3a87f2eb2c54a74/library/alloc/src/collections" "mod.rs"
	.loc	31 116 0
	.cfi_startproc
	pushq	%rbp
	.cfi_def_cfa_offset 16
	.cfi_offset %rbp, -16
	movq	%rsp, %rbp
	.cfi_def_cfa_register %rbp
	subq	$32, %rsp
	movq	%rdi, -16(%rbp)
	movq	%rsi, -8(%rbp)
Ltmp275:
	.loc	31 117 9 prologue_end
	movq	%rdi, -32(%rbp)
	movq	%rsi, -24(%rbp)
	.loc	31 118 6
	movq	-32(%rbp), %rax
	movq	-24(%rbp), %rdx
	addq	$32, %rsp
	popq	%rbp
	retq
Ltmp276:
Lfunc_end28:
	.cfi_endproc

	.globl	__ZN125_$LT$$LT$T$u20$as$u20$alloc..slice..hack..ConvertVec$GT$..to_vec..DropGuard$LT$T$C$A$GT$$u20$as$u20$core..ops..drop..Drop$GT$4drop17h0226a6a00379be09E
	.p2align	4, 0x90
__ZN125_$LT$$LT$T$u20$as$u20$alloc..slice..hack..ConvertVec$GT$..to_vec..DropGuard$LT$T$C$A$GT$$u20$as$u20$core..ops..drop..Drop$GT$4drop17h0226a6a00379be09E:
Lfunc_begin29:
	.file	32 "/rustc/2c8cc343237b8f7d5a3c3703e3a87f2eb2c54a74/library/alloc/src" "slice.rs"
	.loc	32 131 0
	.cfi_startproc
	pushq	%rbp
	.cfi_def_cfa_offset 16
	.cfi_offset %rbp, -16
	movq	%rsp, %rbp
	.cfi_def_cfa_register %rbp
	subq	$24, %rsp
	movq	%rdi, -24(%rbp)
Ltmp277:
	.loc	32 135 25 prologue_end
	movq	8(%rdi), %rax
	movq	%rax, -16(%rbp)
	.loc	32 135 42 is_stmt 0
	movq	(%rdi), %rcx
	movq	%rcx, -8(%rbp)
Ltmp278:
	.file	33 "/rustc/2c8cc343237b8f7d5a3c3703e3a87f2eb2c54a74/library/alloc/src/vec" "mod.rs"
	.loc	33 1377 9 is_stmt 1
	movq	%rcx, 16(%rax)
Ltmp279:
	.loc	32 137 18
	addq	$24, %rsp
	popq	%rbp
	retq
Ltmp280:
Lfunc_end29:
	.cfi_endproc

	.globl	__ZN125_$LT$$LT$T$u20$as$u20$alloc..slice..hack..ConvertVec$GT$..to_vec..DropGuard$LT$T$C$A$GT$$u20$as$u20$core..ops..drop..Drop$GT$4drop17h3c74d118b8fa7f13E
	.p2align	4, 0x90
__ZN125_$LT$$LT$T$u20$as$u20$alloc..slice..hack..ConvertVec$GT$..to_vec..DropGuard$LT$T$C$A$GT$$u20$as$u20$core..ops..drop..Drop$GT$4drop17h3c74d118b8fa7f13E:
Lfunc_begin30:
	.loc	32 131 0
	.cfi_startproc
	pushq	%rbp
	.cfi_def_cfa_offset 16
	.cfi_offset %rbp, -16
	movq	%rsp, %rbp
	.cfi_def_cfa_register %rbp
	subq	$24, %rsp
	movq	%rdi, -24(%rbp)
Ltmp281:
	.loc	32 135 25 prologue_end
	movq	8(%rdi), %rax
	movq	%rax, -16(%rbp)
	.loc	32 135 42 is_stmt 0
	movq	(%rdi), %rcx
	movq	%rcx, -8(%rbp)
Ltmp282:
	.loc	33 1377 9 is_stmt 1
	movq	%rcx, 16(%rax)
Ltmp283:
	.loc	32 137 18
	addq	$24, %rsp
	popq	%rbp
	retq
Ltmp284:
Lfunc_end30:
	.cfi_endproc

	.globl	__ZN125_$LT$$LT$T$u20$as$u20$alloc..slice..hack..ConvertVec$GT$..to_vec..DropGuard$LT$T$C$A$GT$$u20$as$u20$core..ops..drop..Drop$GT$4drop17hc255d55681ff2b1bE
	.p2align	4, 0x90
__ZN125_$LT$$LT$T$u20$as$u20$alloc..slice..hack..ConvertVec$GT$..to_vec..DropGuard$LT$T$C$A$GT$$u20$as$u20$core..ops..drop..Drop$GT$4drop17hc255d55681ff2b1bE:
Lfunc_begin31:
	.loc	32 131 0
	.cfi_startproc
	pushq	%rbp
	.cfi_def_cfa_offset 16
	.cfi_offset %rbp, -16
	movq	%rsp, %rbp
	.cfi_def_cfa_register %rbp
	subq	$24, %rsp
	movq	%rdi, -24(%rbp)
Ltmp285:
	.loc	32 135 25 prologue_end
	movq	8(%rdi), %rax
	movq	%rax, -16(%rbp)
	.loc	32 135 42 is_stmt 0
	movq	(%rdi), %rcx
	movq	%rcx, -8(%rbp)
Ltmp286:
	.loc	33 1377 9 is_stmt 1
	movq	%rcx, 16(%rax)
Ltmp287:
	.loc	32 137 18
	addq	$24, %rsp
	popq	%rbp
	retq
Ltmp288:
Lfunc_end31:
	.cfi_endproc

	.globl	__ZN132_$LT$alloc..vec..Vec$LT$T$C$A$GT$$u20$as$u20$alloc..vec..spec_extend..SpecExtend$LT$$RF$T$C$core..slice..iter..Iter$LT$T$GT$$GT$$GT$11spec_extend17h979ff3514ac9b927E
	.p2align	4, 0x90
__ZN132_$LT$alloc..vec..Vec$LT$T$C$A$GT$$u20$as$u20$alloc..vec..spec_extend..SpecExtend$LT$$RF$T$C$core..slice..iter..Iter$LT$T$GT$$GT$$GT$11spec_extend17h979ff3514ac9b927E:
Lfunc_begin32:
	.file	34 "/rustc/2c8cc343237b8f7d5a3c3703e3a87f2eb2c54a74/library/alloc/src/vec" "spec_extend.rs"
	.loc	34 53 0
	.cfi_startproc
	pushq	%rbp
	.cfi_def_cfa_offset 16
	.cfi_offset %rbp, -16
	movq	%rsp, %rbp
	.cfi_def_cfa_register %rbp
	subq	$48, %rsp
	movq	%rdi, -48(%rbp)
	movq	%rsi, -40(%rbp)
	movq	%rdx, -32(%rbp)
	movq	%rdi, -24(%rbp)
Ltmp289:
	.loc	34 54 21 prologue_end
	leaq	-40(%rbp), %rdi
	callq	__ZN4core5slice4iter13Iter$LT$T$GT$8as_slice17h2ae95267ec131aedE
	movq	-48(%rbp), %rdi
	movq	%rax, %rsi
	movq	%rsi, -16(%rbp)
	movq	%rdx, -8(%rbp)
Ltmp290:
	.loc	34 55 18
	callq	__ZN5alloc3vec16Vec$LT$T$C$A$GT$15append_elements17h86e63b5dd0fdbcfaE
Ltmp291:
	.loc	34 56 6
	addq	$48, %rsp
	popq	%rbp
	retq
Ltmp292:
Lfunc_end32:
	.cfi_endproc

	.globl	__ZN150_$LT$$LT$alloc..vec..drain..Drain$LT$T$C$A$GT$$u20$as$u20$core..ops..drop..Drop$GT$..drop..DropGuard$LT$T$C$A$GT$$u20$as$u20$core..ops..drop..Drop$GT$4drop17h0d9037144de0a2beE
	.p2align	4, 0x90
__ZN150_$LT$$LT$alloc..vec..drain..Drain$LT$T$C$A$GT$$u20$as$u20$core..ops..drop..Drop$GT$..drop..DropGuard$LT$T$C$A$GT$$u20$as$u20$core..ops..drop..Drop$GT$4drop17h0d9037144de0a2beE:
Lfunc_begin33:
	.file	35 "/rustc/2c8cc343237b8f7d5a3c3703e3a87f2eb2c54a74/library/alloc/src/vec" "drain.rs"
	.loc	35 182 0
	.cfi_startproc
	pushq	%rbp
	.cfi_def_cfa_offset 16
	.cfi_offset %rbp, -16
	movq	%rsp, %rbp
	.cfi_def_cfa_register %rbp
	subq	$400, %rsp
	movq	%rdi, -368(%rbp)
	movq	%rdi, -344(%rbp)
Ltmp293:
	.loc	35 183 20 prologue_end
	movq	(%rdi), %rax
	cmpq	$0, 24(%rax)
	ja	LBB33_2
LBB33_1:
	.loc	35 197 14
	addq	$400, %rsp
	popq	%rbp
	retq
LBB33_2:
	.loc	35 0 14 is_stmt 0
	movq	-368(%rbp), %rax
	.loc	35 185 42 is_stmt 1
	movq	(%rax), %rcx
	movq	%rcx, %rdx
	addq	$32, %rdx
	movq	%rdx, -336(%rbp)
Ltmp294:
	.loc	29 427 24
	movq	32(%rcx), %rcx
	movq	%rcx, -392(%rbp)
	movq	%rcx, -328(%rbp)
	.loc	29 427 9 is_stmt 0
	movq	%rcx, -320(%rbp)
Ltmp295:
	.loc	35 187 37 is_stmt 1
	movq	%rcx, -312(%rbp)
Ltmp296:
	.loc	33 2062 9
	movq	16(%rcx), %rcx
	movq	%rcx, -384(%rbp)
	movq	%rcx, -304(%rbp)
Ltmp297:
	.loc	35 188 36
	movq	(%rax), %rax
	movq	16(%rax), %rax
	movq	%rax, -376(%rbp)
	movq	%rax, -296(%rbp)
Ltmp298:
	.loc	35 189 28
	cmpq	%rcx, %rax
	jne	LBB33_4
LBB33_3:
	.loc	35 0 28 is_stmt 0
	movq	-392(%rbp), %rax
	movq	-384(%rbp), %rcx
	movq	-368(%rbp), %rdx
	.loc	35 194 25 is_stmt 1
	movq	%rax, -16(%rbp)
	.loc	35 194 52 is_stmt 0
	movq	(%rdx), %rdx
	.loc	35 194 44
	addq	24(%rdx), %rcx
	movq	%rcx, -8(%rbp)
Ltmp299:
	.loc	33 1377 9 is_stmt 1
	movq	%rcx, 16(%rax)
Ltmp300:
	.loc	35 183 17
	jmp	LBB33_1
LBB33_4:
	.loc	35 0 17 is_stmt 0
	movq	-368(%rbp), %rax
	movq	-384(%rbp), %rdx
	movq	-392(%rbp), %rcx
	movq	-376(%rbp), %rdi
Ltmp301:
	.loc	35 190 39 is_stmt 1
	movq	%rcx, -288(%rbp)
Ltmp302:
	.loc	33 1243 19
	movq	%rcx, -280(%rbp)
Ltmp303:
	.file	36 "/rustc/2c8cc343237b8f7d5a3c3703e3a87f2eb2c54a74/library/alloc/src" "raw_vec.rs"
	.loc	36 224 9
	movq	8(%rcx), %rsi
	movq	%rsi, -400(%rbp)
	movq	%rsi, -272(%rbp)
Ltmp304:
	.loc	30 104 9
	movq	%rsi, -264(%rbp)
Ltmp305:
	.loc	29 326 9
	movq	%rsi, -256(%rbp)
Ltmp306:
	.loc	33 1245 21
	movq	%rsi, -248(%rbp)
Ltmp307:
	.loc	8 52 36
	movq	%rsi, -360(%rbp)
	.loc	8 52 18 is_stmt 0
	movq	-360(%rbp), %r8
	movq	%r8, -240(%rbp)
Ltmp308:
	.loc	8 38 13 is_stmt 1
	movq	%r8, -232(%rbp)
Ltmp309:
	.loc	8 215 33
	movq	%r8, -224(%rbp)
	.loc	8 215 18 is_stmt 0
	movq	%r8, -216(%rbp)
Ltmp310:
	.loc	33 1247 9 is_stmt 1
	movq	%rsi, -208(%rbp)
Ltmp311:
	.loc	35 190 63
	movq	%rdi, -200(%rbp)
Ltmp312:
	.loc	3 932 18
	movq	%rsi, -192(%rbp)
	.loc	3 932 30 is_stmt 0
	movq	%rdi, -184(%rbp)
Ltmp313:
	.loc	3 473 18 is_stmt 1
	imulq	$20, %rdi, %rdi
	addq	%rdi, %rsi
	movq	%rsi, -176(%rbp)
	movq	-176(%rbp), %rsi
	movq	%rsi, -168(%rbp)
Ltmp314:
	.loc	35 191 39
	movq	%rcx, -160(%rbp)
Ltmp315:
	.loc	33 1280 19
	movq	%rcx, -152(%rbp)
Ltmp316:
	.loc	36 224 9
	movq	8(%rcx), %rcx
	movq	%rcx, -144(%rbp)
Ltmp317:
	.loc	30 104 9
	movq	%rcx, -136(%rbp)
Ltmp318:
	.loc	29 326 9
	movq	%rcx, -128(%rbp)
Ltmp319:
	.loc	33 1282 21
	movq	%rcx, -120(%rbp)
Ltmp320:
	.loc	8 52 36
	movq	%rcx, -352(%rbp)
	.loc	8 52 18 is_stmt 0
	movq	-352(%rbp), %rdi
	movq	%rdi, -112(%rbp)
Ltmp321:
	.loc	8 38 13 is_stmt 1
	movq	%rdi, -104(%rbp)
Ltmp322:
	.loc	8 215 33
	movq	%rdi, -96(%rbp)
	.loc	8 215 18 is_stmt 0
	movq	%rdi, -88(%rbp)
Ltmp323:
	.loc	35 191 67 is_stmt 1
	movq	%rdx, -80(%rbp)
Ltmp324:
	.loc	8 1034 18
	movq	%rcx, -72(%rbp)
	.loc	8 1034 30 is_stmt 0
	movq	%rdx, -64(%rbp)
Ltmp325:
	.loc	8 487 18 is_stmt 1
	imulq	$20, %rdx, %rdx
	addq	%rdx, %rcx
	movq	%rcx, -56(%rbp)
	movq	-56(%rbp), %rdi
	movq	%rdi, -48(%rbp)
Ltmp326:
	.loc	35 192 39
	movq	%rsi, -40(%rbp)
	.loc	35 192 44 is_stmt 0
	movq	%rdi, -32(%rbp)
	.loc	35 192 49
	movq	(%rax), %rax
	movq	24(%rax), %rax
	movq	%rax, -24(%rbp)
Ltmp327:
	.loc	9 2458 9 is_stmt 1
	imulq	$20, %rax, %rdx
	callq	_memmove
Ltmp328:
	.loc	35 189 25
	jmp	LBB33_3
Ltmp329:
Lfunc_end33:
	.cfi_endproc

	.globl	__ZN153_$LT$core..result..Result$LT$T$C$F$GT$$u20$as$u20$core..ops..try_trait..FromResidual$LT$core..result..Result$LT$core..convert..Infallible$C$E$GT$$GT$$GT$13from_residual17h0f26d49613dd9bc2E
	.p2align	4, 0x90
__ZN153_$LT$core..result..Result$LT$T$C$F$GT$$u20$as$u20$core..ops..try_trait..FromResidual$LT$core..result..Result$LT$core..convert..Infallible$C$E$GT$$GT$$GT$13from_residual17h0f26d49613dd9bc2E:
Lfunc_begin34:
	.file	37 "/rustc/2c8cc343237b8f7d5a3c3703e3a87f2eb2c54a74/library/core/src" "result.rs"
	.loc	37 2105 0
	.cfi_startproc
	pushq	%rbp
	.cfi_def_cfa_offset 16
	.cfi_offset %rbp, -16
	movq	%rsp, %rbp
	.cfi_def_cfa_register %rbp
	subq	$16, %rsp
	movq	%rdi, %rax
Ltmp330:
	.loc	37 2107 23 prologue_end
	movb	$3, 40(%rdi)
Ltmp331:
	.loc	37 2109 6
	addq	$16, %rsp
	popq	%rbp
	retq
Ltmp332:
Lfunc_end34:
	.cfi_endproc

	.globl	__ZN153_$LT$core..result..Result$LT$T$C$F$GT$$u20$as$u20$core..ops..try_trait..FromResidual$LT$core..result..Result$LT$core..convert..Infallible$C$E$GT$$GT$$GT$13from_residual17h2f36a2c07f19c278E
	.p2align	4, 0x90
__ZN153_$LT$core..result..Result$LT$T$C$F$GT$$u20$as$u20$core..ops..try_trait..FromResidual$LT$core..result..Result$LT$core..convert..Infallible$C$E$GT$$GT$$GT$13from_residual17h2f36a2c07f19c278E:
Lfunc_begin35:
	.loc	37 2105 0
	.cfi_startproc
	pushq	%rbp
	.cfi_def_cfa_offset 16
	.cfi_offset %rbp, -16
	movq	%rsp, %rbp
	.cfi_def_cfa_register %rbp
	subq	$16, %rsp
	movq	%rdi, %rax
Ltmp333:
	.loc	37 2107 23 prologue_end
	movb	$2, 32(%rdi)
Ltmp334:
	.loc	37 2109 6
	addq	$16, %rsp
	popq	%rbp
	retq
Ltmp335:
Lfunc_end35:
	.cfi_endproc

	.globl	__ZN153_$LT$core..result..Result$LT$T$C$F$GT$$u20$as$u20$core..ops..try_trait..FromResidual$LT$core..result..Result$LT$core..convert..Infallible$C$E$GT$$GT$$GT$13from_residual17h39a1214b8788e857E
	.p2align	4, 0x90
__ZN153_$LT$core..result..Result$LT$T$C$F$GT$$u20$as$u20$core..ops..try_trait..FromResidual$LT$core..result..Result$LT$core..convert..Infallible$C$E$GT$$GT$$GT$13from_residual17h39a1214b8788e857E:
Lfunc_begin36:
	.loc	37 2105 0
	.cfi_startproc
	pushq	%rbp
	.cfi_def_cfa_offset 16
	.cfi_offset %rbp, -16
	movq	%rsp, %rbp
	.cfi_def_cfa_register %rbp
	subq	$24, %rsp
Ltmp336:
	.loc	37 2107 23 prologue_end
	movb	$1, -17(%rbp)
Ltmp337:
	.loc	37 2109 6
	movb	-17(%rbp), %al
	andb	$1, %al
	movzbl	%al, %eax
	addq	$24, %rsp
	popq	%rbp
	retq
Ltmp338:
Lfunc_end36:
	.cfi_endproc

	.globl	__ZN153_$LT$core..result..Result$LT$T$C$F$GT$$u20$as$u20$core..ops..try_trait..FromResidual$LT$core..result..Result$LT$core..convert..Infallible$C$E$GT$$GT$$GT$13from_residual17h504aa9541e6a6e51E
	.p2align	4, 0x90
__ZN153_$LT$core..result..Result$LT$T$C$F$GT$$u20$as$u20$core..ops..try_trait..FromResidual$LT$core..result..Result$LT$core..convert..Infallible$C$E$GT$$GT$$GT$13from_residual17h504aa9541e6a6e51E:
Lfunc_begin37:
	.loc	37 2105 0
	.cfi_startproc
	pushq	%rbp
	.cfi_def_cfa_offset 16
	.cfi_offset %rbp, -16
	movq	%rsp, %rbp
	.cfi_def_cfa_register %rbp
	subq	$3, %rsp
	movb	%sil, %cl
	movq	%rdi, %rax
	andb	$1, %cl
	movb	%cl, -3(%rbp)
Ltmp339:
	.loc	37 2107 17 prologue_end
	movb	-3(%rbp), %cl
	movb	%cl, %dl
	andb	$1, %dl
	movb	%dl, -2(%rbp)
	movb	%cl, %dl
	andb	$1, %dl
	movb	%dl, -1(%rbp)
Ltmp340:
	.loc	37 2107 23 is_stmt 0
	andb	$1, %cl
	movb	%cl, 1(%rdi)
	movb	$1, (%rdi)
Ltmp341:
	.loc	37 2109 6 is_stmt 1
	addq	$3, %rsp
	popq	%rbp
	retq
Ltmp342:
Lfunc_end37:
	.cfi_endproc

	.globl	__ZN153_$LT$core..result..Result$LT$T$C$F$GT$$u20$as$u20$core..ops..try_trait..FromResidual$LT$core..result..Result$LT$core..convert..Infallible$C$E$GT$$GT$$GT$13from_residual17h52e88060470a680bE
	.p2align	4, 0x90
__ZN153_$LT$core..result..Result$LT$T$C$F$GT$$u20$as$u20$core..ops..try_trait..FromResidual$LT$core..result..Result$LT$core..convert..Infallible$C$E$GT$$GT$$GT$13from_residual17h52e88060470a680bE:
Lfunc_begin38:
	.loc	37 2105 0
	.cfi_startproc
	pushq	%rbp
	.cfi_def_cfa_offset 16
	.cfi_offset %rbp, -16
	movq	%rsp, %rbp
	.cfi_def_cfa_register %rbp
	subq	$32, %rsp
	movq	%rdi, -32(%rbp)
	movq	%rdi, -24(%rbp)
Ltmp343:
	.loc	37 2107 27 prologue_end
	callq	__ZN105_$LT$proc_macro2..imp..LexError$u20$as$u20$core..convert..From$LT$proc_macro2..fallback..LexError$GT$$GT$4from17h3448eb0d7e74c9cbE
	movq	-32(%rbp), %rdi
	movb	%al, %cl
	movq	-24(%rbp), %rax
	.loc	37 2107 23 is_stmt 0
	andb	$1, %cl
	movb	%cl, 1(%rdi)
	movb	$1, (%rdi)
Ltmp344:
	.loc	37 2109 6 is_stmt 1
	addq	$32, %rsp
	popq	%rbp
	retq
Ltmp345:
Lfunc_end38:
	.cfi_endproc

	.globl	__ZN153_$LT$core..result..Result$LT$T$C$F$GT$$u20$as$u20$core..ops..try_trait..FromResidual$LT$core..result..Result$LT$core..convert..Infallible$C$E$GT$$GT$$GT$13from_residual17h582cf6248b8358ceE
	.p2align	4, 0x90
__ZN153_$LT$core..result..Result$LT$T$C$F$GT$$u20$as$u20$core..ops..try_trait..FromResidual$LT$core..result..Result$LT$core..convert..Infallible$C$E$GT$$GT$$GT$13from_residual17h582cf6248b8358ceE:
Lfunc_begin39:
	.loc	37 2105 0
	.cfi_startproc
	pushq	%rbp
	.cfi_def_cfa_offset 16
	.cfi_offset %rbp, -16
	movq	%rsp, %rbp
	.cfi_def_cfa_register %rbp
	subq	$16, %rsp
	movq	%rdi, %rax
Ltmp346:
	.loc	37 2107 23 prologue_end
	movq	$0, (%rdi)
Ltmp347:
	.loc	37 2109 6
	addq	$16, %rsp
	popq	%rbp
	retq
Ltmp348:
Lfunc_end39:
	.cfi_endproc

	.globl	__ZN153_$LT$core..result..Result$LT$T$C$F$GT$$u20$as$u20$core..ops..try_trait..FromResidual$LT$core..result..Result$LT$core..convert..Infallible$C$E$GT$$GT$$GT$13from_residual17h62e4e275fe6867c4E
	.p2align	4, 0x90
__ZN153_$LT$core..result..Result$LT$T$C$F$GT$$u20$as$u20$core..ops..try_trait..FromResidual$LT$core..result..Result$LT$core..convert..Infallible$C$E$GT$$GT$$GT$13from_residual17h62e4e275fe6867c4E:
Lfunc_begin40:
	.loc	37 2105 0
	.cfi_startproc
	pushq	%rbp
	.cfi_def_cfa_offset 16
	.cfi_offset %rbp, -16
	movq	%rsp, %rbp
	.cfi_def_cfa_register %rbp
	subq	$32, %rsp
Ltmp349:
	.loc	37 2107 23 prologue_end
	movq	$0, -32(%rbp)
Ltmp350:
	.loc	37 2109 6
	movq	-32(%rbp), %rax
	movq	-24(%rbp), %rdx
	addq	$32, %rsp
	popq	%rbp
	retq
Ltmp351:
Lfunc_end40:
	.cfi_endproc

	.globl	__ZN153_$LT$core..result..Result$LT$T$C$F$GT$$u20$as$u20$core..ops..try_trait..FromResidual$LT$core..result..Result$LT$core..convert..Infallible$C$E$GT$$GT$$GT$13from_residual17h6ccfc506c03e93a6E
	.p2align	4, 0x90
__ZN153_$LT$core..result..Result$LT$T$C$F$GT$$u20$as$u20$core..ops..try_trait..FromResidual$LT$core..result..Result$LT$core..convert..Infallible$C$E$GT$$GT$$GT$13from_residual17h6ccfc506c03e93a6E:
Lfunc_begin41:
	.loc	37 2105 0
	.cfi_startproc
	pushq	%rbp
	.cfi_def_cfa_offset 16
	.cfi_offset %rbp, -16
	movq	%rsp, %rbp
	.cfi_def_cfa_register %rbp
	subq	$3, %rsp
	movb	%sil, %cl
	movq	%rdi, %rax
	andb	$1, %cl
	movb	%cl, -3(%rbp)
Ltmp352:
	.loc	37 2107 17 prologue_end
	movb	-3(%rbp), %cl
	movb	%cl, %dl
	andb	$1, %dl
	movb	%dl, -2(%rbp)
	movb	%cl, %dl
	andb	$1, %dl
	movb	%dl, -1(%rbp)
Ltmp353:
	.loc	37 2107 23 is_stmt 0
	andb	$1, %cl
	movb	%cl, 1(%rdi)
	movb	$1, (%rdi)
Ltmp354:
	.loc	37 2109 6 is_stmt 1
	addq	$3, %rsp
	popq	%rbp
	retq
Ltmp355:
Lfunc_end41:
	.cfi_endproc

	.globl	__ZN153_$LT$core..result..Result$LT$T$C$F$GT$$u20$as$u20$core..ops..try_trait..FromResidual$LT$core..result..Result$LT$core..convert..Infallible$C$E$GT$$GT$$GT$13from_residual17h8f327070fe963474E
	.p2align	4, 0x90
__ZN153_$LT$core..result..Result$LT$T$C$F$GT$$u20$as$u20$core..ops..try_trait..FromResidual$LT$core..result..Result$LT$core..convert..Infallible$C$E$GT$$GT$$GT$13from_residual17h8f327070fe963474E:
Lfunc_begin42:
	.loc	37 2105 0
	.cfi_startproc
	pushq	%rbp
	.cfi_def_cfa_offset 16
	.cfi_offset %rbp, -16
	movq	%rsp, %rbp
	.cfi_def_cfa_register %rbp
	subq	$32, %rsp
Ltmp356:
	.loc	37 2107 23 prologue_end
	movq	$0, -32(%rbp)
Ltmp357:
	.loc	37 2109 6
	movq	-32(%rbp), %rax
	movq	-24(%rbp), %rdx
	addq	$32, %rsp
	popq	%rbp
	retq
Ltmp358:
Lfunc_end42:
	.cfi_endproc

	.globl	__ZN153_$LT$core..result..Result$LT$T$C$F$GT$$u20$as$u20$core..ops..try_trait..FromResidual$LT$core..result..Result$LT$core..convert..Infallible$C$E$GT$$GT$$GT$13from_residual17ha9089fc30ff2cd9dE
	.p2align	4, 0x90
__ZN153_$LT$core..result..Result$LT$T$C$F$GT$$u20$as$u20$core..ops..try_trait..FromResidual$LT$core..result..Result$LT$core..convert..Infallible$C$E$GT$$GT$$GT$13from_residual17ha9089fc30ff2cd9dE:
Lfunc_begin43:
	.loc	37 2105 0
	.cfi_startproc
	pushq	%rbp
	.cfi_def_cfa_offset 16
	.cfi_offset %rbp, -16
	movq	%rsp, %rbp
	.cfi_def_cfa_register %rbp
	subq	$16, %rsp
	movq	%rdi, %rax
Ltmp359:
	.loc	37 2107 23 prologue_end
	movl	$1114112, 20(%rdi)
Ltmp360:
	.loc	37 2109 6
	addq	$16, %rsp
	popq	%rbp
	retq
Ltmp361:
Lfunc_end43:
	.cfi_endproc

	.globl	__ZN153_$LT$core..result..Result$LT$T$C$F$GT$$u20$as$u20$core..ops..try_trait..FromResidual$LT$core..result..Result$LT$core..convert..Infallible$C$E$GT$$GT$$GT$13from_residual17hee43bf0e8cc84cc8E
	.p2align	4, 0x90
__ZN153_$LT$core..result..Result$LT$T$C$F$GT$$u20$as$u20$core..ops..try_trait..FromResidual$LT$core..result..Result$LT$core..convert..Infallible$C$E$GT$$GT$$GT$13from_residual17hee43bf0e8cc84cc8E:
Lfunc_begin44:
	.loc	37 2105 0
	.cfi_startproc
	pushq	%rbp
	.cfi_def_cfa_offset 16
	.cfi_offset %rbp, -16
	movq	%rsp, %rbp
	.cfi_def_cfa_register %rbp
	subq	$32, %rsp
	movq	%rdi, -32(%rbp)
	movq	%rdi, -24(%rbp)
Ltmp362:
	.loc	37 2107 27 prologue_end
	callq	__ZN105_$LT$proc_macro2..imp..LexError$u20$as$u20$core..convert..From$LT$proc_macro2..fallback..LexError$GT$$GT$4from17h3448eb0d7e74c9cbE
	movq	-32(%rbp), %rdi
	movb	%al, %cl
	movq	-24(%rbp), %rax
	.loc	37 2107 23 is_stmt 0
	andb	$1, %cl
	movb	%cl, 4(%rdi)
	movl	$2, (%rdi)
Ltmp363:
	.loc	37 2109 6 is_stmt 1
	addq	$32, %rsp
	popq	%rbp
	retq
Ltmp364:
Lfunc_end44:
	.cfi_endproc

	.globl	__ZN157_$LT$$LT$alloc..vec..into_iter..IntoIter$LT$T$C$A$GT$$u20$as$u20$core..ops..drop..Drop$GT$..drop..DropGuard$LT$T$C$A$GT$$u20$as$u20$core..ops..drop..Drop$GT$4drop17h4842e8830a665af6E
	.p2align	4, 0x90
__ZN157_$LT$$LT$alloc..vec..into_iter..IntoIter$LT$T$C$A$GT$$u20$as$u20$core..ops..drop..Drop$GT$..drop..DropGuard$LT$T$C$A$GT$$u20$as$u20$core..ops..drop..Drop$GT$4drop17h4842e8830a665af6E:
Lfunc_begin45:
	.loc	2 390 0
	.cfi_startproc
	.cfi_personality 155, _rust_eh_personality
	.cfi_lsda 16, Lexception8
	pushq	%rbp
	.cfi_def_cfa_offset 16
	.cfi_offset %rbp, -16
	movq	%rsp, %rbp
	.cfi_def_cfa_register %rbp
	subq	$160, %rsp
	movq	%rdi, -120(%rbp)
Ltmp368:
	.loc	2 393 52 prologue_end
	movq	(%rdi), %rax
	movq	%rax, -80(%rbp)
Ltmp369:
	.loc	6 113 28
	movq	%rax, -72(%rbp)
	leaq	-144(%rbp), %rax
Ltmp370:
	.loc	4 1157 34
	movq	%rax, -64(%rbp)
Ltmp371:
	.loc	2 395 55
	movq	(%rdi), %rax
	movq	24(%rax), %rcx
	movq	%rcx, -56(%rbp)
Ltmp372:
	.loc	29 326 9
	movq	%rcx, -48(%rbp)
Ltmp373:
	.loc	2 395 76
	movq	(%rdi), %rax
	movq	(%rax), %rax
	movq	%rax, -40(%rbp)
Ltmp374:
	.loc	36 216 52
	movq	%rcx, -32(%rbp)
Ltmp375:
	.loc	30 87 59
	movq	%rcx, -24(%rbp)
Ltmp376:
	.loc	29 201 13
	movq	%rcx, -128(%rbp)
Ltmp377:
	.loc	30 87 18
	movq	-128(%rbp), %rcx
	movq	%rcx, -136(%rbp)
Ltmp378:
	.loc	36 216 9
	movq	-136(%rbp), %rcx
	movq	%rcx, -152(%rbp)
	movq	%rax, -160(%rbp)
Ltmp365:
	leaq	-160(%rbp), %rdi
Ltmp379:
	.loc	2 395 94
	callq	__ZN4core3ptr199drop_in_place$LT$alloc..raw_vec..RawVec$LT$proc_macro..bridge..TokenTree$LT$proc_macro..bridge..client..TokenStream$C$proc_macro..bridge..client..Span$C$proc_macro..bridge..symbol..Symbol$GT$$GT$$GT$17hbfad6d987f2dfb33E
Ltmp366:
	jmp	LBB45_3
Ltmp380:
LBB45_1:
	.loc	2 396 17
	xorl	%eax, %eax
	testb	$1, %al
	jne	LBB45_5
	jmp	LBB45_4
LBB45_2:
Ltmp367:
	.loc	2 0 17 is_stmt 0
	movq	%rax, %rcx
	movl	%edx, %eax
	movq	%rcx, -16(%rbp)
	movl	%eax, -8(%rbp)
	jmp	LBB45_1
LBB45_3:
	.loc	2 397 14 is_stmt 1
	addq	$160, %rsp
	popq	%rbp
	retq
LBB45_4:
	.loc	2 390 13
	movq	-16(%rbp), %rdi
	callq	__Unwind_Resume
LBB45_5:
	.loc	2 396 17
	jmp	LBB45_4
Ltmp381:
Lfunc_end45:
	.cfi_endproc
	.section	__TEXT,__gcc_except_tab
	.p2align	2
GCC_except_table45:
Lexception8:
	.byte	255
	.byte	255
	.byte	1
	.uleb128 Lcst_end8-Lcst_begin8
Lcst_begin8:
	.uleb128 Ltmp365-Lfunc_begin45
	.uleb128 Ltmp366-Ltmp365
	.uleb128 Ltmp367-Lfunc_begin45
	.byte	0
	.uleb128 Ltmp366-Lfunc_begin45
	.uleb128 Lfunc_end45-Ltmp366
	.byte	0
	.byte	0
Lcst_end8:
	.p2align	2

	.section	__TEXT,__text,regular,pure_instructions
	.globl	__ZN157_$LT$$LT$alloc..vec..into_iter..IntoIter$LT$T$C$A$GT$$u20$as$u20$core..ops..drop..Drop$GT$..drop..DropGuard$LT$T$C$A$GT$$u20$as$u20$core..ops..drop..Drop$GT$4drop17hf93cc800995be5d5E
	.p2align	4, 0x90
__ZN157_$LT$$LT$alloc..vec..into_iter..IntoIter$LT$T$C$A$GT$$u20$as$u20$core..ops..drop..Drop$GT$..drop..DropGuard$LT$T$C$A$GT$$u20$as$u20$core..ops..drop..Drop$GT$4drop17hf93cc800995be5d5E:
Lfunc_begin46:
	.loc	2 390 0
	.cfi_startproc
	.cfi_personality 155, _rust_eh_personality
	.cfi_lsda 16, Lexception9
	pushq	%rbp
	.cfi_def_cfa_offset 16
	.cfi_offset %rbp, -16
	movq	%rsp, %rbp
	.cfi_def_cfa_register %rbp
	subq	$160, %rsp
	movq	%rdi, -120(%rbp)
Ltmp385:
	.loc	2 393 52 prologue_end
	movq	(%rdi), %rax
	movq	%rax, -80(%rbp)
Ltmp386:
	.loc	6 113 28
	movq	%rax, -72(%rbp)
	leaq	-144(%rbp), %rax
Ltmp387:
	.loc	4 1157 34
	movq	%rax, -64(%rbp)
Ltmp388:
	.loc	2 395 55
	movq	(%rdi), %rax
	movq	24(%rax), %rcx
	movq	%rcx, -56(%rbp)
Ltmp389:
	.loc	29 326 9
	movq	%rcx, -48(%rbp)
Ltmp390:
	.loc	2 395 76
	movq	(%rdi), %rax
	movq	(%rax), %rax
	movq	%rax, -40(%rbp)
Ltmp391:
	.loc	36 216 52
	movq	%rcx, -32(%rbp)
Ltmp392:
	.loc	30 87 59
	movq	%rcx, -24(%rbp)
Ltmp393:
	.loc	29 201 13
	movq	%rcx, -128(%rbp)
Ltmp394:
	.loc	30 87 18
	movq	-128(%rbp), %rcx
	movq	%rcx, -136(%rbp)
Ltmp395:
	.loc	36 216 9
	movq	-136(%rbp), %rcx
	movq	%rcx, -152(%rbp)
	movq	%rax, -160(%rbp)
Ltmp382:
	leaq	-160(%rbp), %rdi
Ltmp396:
	.loc	2 395 94
	callq	__ZN4core3ptr73drop_in_place$LT$alloc..raw_vec..RawVec$LT$proc_macro2..TokenTree$GT$$GT$17h90ca3d0f527898b4E
Ltmp383:
	jmp	LBB46_3
Ltmp397:
LBB46_1:
	.loc	2 396 17
	xorl	%eax, %eax
	testb	$1, %al
	jne	LBB46_5
	jmp	LBB46_4
LBB46_2:
Ltmp384:
	.loc	2 0 17 is_stmt 0
	movq	%rax, %rcx
	movl	%edx, %eax
	movq	%rcx, -16(%rbp)
	movl	%eax, -8(%rbp)
	jmp	LBB46_1
LBB46_3:
	.loc	2 397 14 is_stmt 1
	addq	$160, %rsp
	popq	%rbp
	retq
LBB46_4:
	.loc	2 390 13
	movq	-16(%rbp), %rdi
	callq	__Unwind_Resume
LBB46_5:
	.loc	2 396 17
	jmp	LBB46_4
Ltmp398:
Lfunc_end46:
	.cfi_endproc
	.section	__TEXT,__gcc_except_tab
	.p2align	2
GCC_except_table46:
Lexception9:
	.byte	255
	.byte	255
	.byte	1
	.uleb128 Lcst_end9-Lcst_begin9
Lcst_begin9:
	.uleb128 Ltmp382-Lfunc_begin46
	.uleb128 Ltmp383-Ltmp382
	.uleb128 Ltmp384-Lfunc_begin46
	.byte	0
	.uleb128 Ltmp383-Lfunc_begin46
	.uleb128 Lfunc_end46-Ltmp383
	.byte	0
	.byte	0
Lcst_end9:
	.p2align	2

	.section	__TEXT,__text,regular,pure_instructions
	.globl	__ZN36_$LT$T$u20$as$u20$core..any..Any$GT$7type_id17hc1e0cd6292e1490bE
	.p2align	4, 0x90
__ZN36_$LT$T$u20$as$u20$core..any..Any$GT$7type_id17hc1e0cd6292e1490bE:
Lfunc_begin47:
	.file	38 "/rustc/2c8cc343237b8f7d5a3c3703e3a87f2eb2c54a74/library/core/src" "any.rs"
	.loc	38 201 0
	.cfi_startproc
	pushq	%rbp
	.cfi_def_cfa_offset 16
	.cfi_offset %rbp, -16
	movq	%rsp, %rbp
	.cfi_def_cfa_register %rbp
	subq	$16, %rsp
	movq	%rdi, -8(%rbp)
Ltmp399:
	.loc	38 202 9 prologue_end
	callq	__ZN4core3any6TypeId2of17h942c9e89534e1f77E
	.loc	38 203 6
	addq	$16, %rsp
	popq	%rbp
	retq
Ltmp400:
Lfunc_end47:
	.cfi_endproc

	.globl	__ZN3std10sys_common9backtrace26__rust_end_short_backtrace17he6fa460b8a1b9da4E
	.p2align	4, 0x90
__ZN3std10sys_common9backtrace26__rust_end_short_backtrace17he6fa460b8a1b9da4E:
Lfunc_begin48:
	.file	39 "/rustc/2c8cc343237b8f7d5a3c3703e3a87f2eb2c54a74/library/std/src/sys_common" "backtrace.rs"
	.loc	39 133 0
	.cfi_startproc
	pushq	%rbp
	.cfi_def_cfa_offset 16
	.cfi_offset %rbp, -16
	movq	%rsp, %rbp
	.cfi_def_cfa_register %rbp
	subq	$64, %rsp
Ltmp401:
	.loc	39 137 18 prologue_end
	movq	(%rdi), %rax
	movq	%rax, -56(%rbp)
	movq	8(%rdi), %rax
	movq	%rax, -48(%rbp)
	movq	16(%rdi), %rax
	movq	%rax, -40(%rbp)
	leaq	-56(%rbp), %rdi
Ltmp402:
	callq	__ZN3std9panicking11begin_panic28_$u7b$$u7b$closure$u7d$$u7d$17h13f1976023b5c8acE
Ltmp403:
	.file	40 "/rustc/2c8cc343237b8f7d5a3c3703e3a87f2eb2c54a74/library/core/src" "hint.rs"
	.loc	40 295 5
	## InlineAsm Start
	## InlineAsm End
Ltmp404:
	.loc	39 143 2
	ud2
Ltmp405:
Lfunc_end48:
	.cfi_endproc

	.globl	__ZN3std4sync4once4Once9call_once17h525ca646d3d8ecbcE
	.p2align	4, 0x90
__ZN3std4sync4once4Once9call_once17h525ca646d3d8ecbcE:
Lfunc_begin49:
	.file	41 "/rustc/2c8cc343237b8f7d5a3c3703e3a87f2eb2c54a74/library/std/src/sync" "once.rs"
	.loc	41 133 0
	.cfi_startproc
	.cfi_personality 155, _rust_eh_personality
	.cfi_lsda 16, Lexception10
	pushq	%rbp
	.cfi_def_cfa_offset 16
	.cfi_offset %rbp, -16
	movq	%rsp, %rbp
	.cfi_def_cfa_register %rbp
	subq	$144, %rsp
	movq	%rdi, -128(%rbp)
	movq	%rsi, -120(%rbp)
	movq	%rdi, -80(%rbp)
Ltmp412:
	.loc	41 138 9 prologue_end
	movb	$1, -81(%rbp)
	.loc	41 138 12 is_stmt 0
	movq	%rdi, -64(%rbp)
Ltmp413:
	.file	42 "/rustc/2c8cc343237b8f7d5a3c3703e3a87f2eb2c54a74/library/std/src/sys_common/once" "queue.rs"
	.loc	42 121 9 is_stmt 1
	movq	%rdi, -56(%rbp)
Ltmp414:
	.file	43 "/rustc/2c8cc343237b8f7d5a3c3703e3a87f2eb2c54a74/library/core/src/sync" "atomic.rs"
	.loc	43 1191 30
	movq	%rdi, -48(%rbp)
Ltmp406:
	movl	$2, %esi
	.loc	43 1191 18 is_stmt 0
	callq	__ZN4core4sync6atomic11atomic_load17h8880a0d27f0a91c5E
Ltmp407:
	movq	%rax, -112(%rbp)
	jmp	LBB49_3
Ltmp415:
LBB49_1:
	.loc	41 144 5 is_stmt 1
	testb	$1, -81(%rbp)
	jne	LBB49_13
	jmp	LBB49_12
LBB49_2:
Ltmp408:
	.loc	41 0 5 is_stmt 0
	movq	%rax, %rcx
	movl	%edx, %eax
	movq	%rcx, -40(%rbp)
	movl	%eax, -32(%rbp)
	jmp	LBB49_1
LBB49_3:
	movq	-112(%rbp), %rax
Ltmp416:
	.loc	43 1191 18 is_stmt 1
	movq	%rax, -24(%rbp)
Ltmp417:
	.loc	8 215 33
	movq	%rax, -16(%rbp)
	.loc	8 215 18 is_stmt 0
	movq	%rax, -8(%rbp)
	movq	-8(%rbp), %rax
	movq	%rax, -136(%rbp)
Ltmp418:
	.loc	8 0 18
	movq	-136(%rbp), %rax
	.loc	42 121 9 is_stmt 1
	cmpq	$3, %rax
Ltmp419:
	.loc	41 138 12
	je	LBB49_6
	.loc	41 0 12 is_stmt 0
	movq	-120(%rbp), %r8
	movq	-128(%rbp), %rdi
	.loc	41 142 26 is_stmt 1
	movb	$0, -81(%rbp)
	.loc	41 142 21 is_stmt 0
	movb	$1, -97(%rbp)
	leaq	-97(%rbp), %rax
Ltmp420:
	.loc	41 143 37 is_stmt 1
	movq	%rax, -96(%rbp)
Ltmp409:
	.loc	41 143 9 is_stmt 0
	leaq	l___unnamed_1(%rip), %rcx
	xorl	%esi, %esi
	leaq	-96(%rbp), %rdx
	callq	__ZN3std10sys_common4once5queue4Once4call17had6073506788e952E
Ltmp410:
	jmp	LBB49_10
Ltmp421:
LBB49_6:
	.loc	41 144 5 is_stmt 1
	jmp	LBB49_7
LBB49_7:
	.loc	41 144 6 is_stmt 0
	addq	$144, %rsp
	popq	%rbp
	retq
LBB49_8:
	.loc	41 144 5
	jmp	LBB49_1
LBB49_9:
Ltmp411:
	.loc	41 0 5
	movq	%rax, %rcx
	movl	%edx, %eax
	movq	%rcx, -40(%rbp)
	movl	%eax, -32(%rbp)
	jmp	LBB49_8
LBB49_10:
	.loc	41 144 5
	jmp	LBB49_11
LBB49_11:
	jmp	LBB49_7
LBB49_12:
	.loc	41 133 5 is_stmt 1
	movq	-40(%rbp), %rdi
	callq	__Unwind_Resume
LBB49_13:
	.loc	41 144 5
	jmp	LBB49_12
Ltmp422:
Lfunc_end49:
	.cfi_endproc
	.section	__TEXT,__gcc_except_tab
	.p2align	2
GCC_except_table49:
Lexception10:
	.byte	255
	.byte	255
	.byte	1
	.uleb128 Lcst_end10-Lcst_begin10
Lcst_begin10:
	.uleb128 Ltmp406-Lfunc_begin49
	.uleb128 Ltmp407-Ltmp406
	.uleb128 Ltmp408-Lfunc_begin49
	.byte	0
	.uleb128 Ltmp409-Lfunc_begin49
	.uleb128 Ltmp410-Ltmp409
	.uleb128 Ltmp411-Lfunc_begin49
	.byte	0
	.uleb128 Ltmp410-Lfunc_begin49
	.uleb128 Lfunc_end49-Ltmp410
	.byte	0
	.byte	0
Lcst_end10:
	.p2align	2

	.section	__TEXT,__text,regular,pure_instructions
	.globl	__ZN3std4sync4once4Once9call_once28_$u7b$$u7b$closure$u7d$$u7d$17h5fa74266d2245f33E
	.p2align	4, 0x90
__ZN3std4sync4once4Once9call_once28_$u7b$$u7b$closure$u7d$$u7d$17h5fa74266d2245f33E:
Lfunc_begin50:
	.loc	41 143 0
	.cfi_startproc
	pushq	%rbp
	.cfi_def_cfa_offset 16
	.cfi_offset %rbp, -16
	movq	%rsp, %rbp
	.cfi_def_cfa_register %rbp
	subq	$48, %rsp
	movq	%rdi, -32(%rbp)
	movq	%rsi, -24(%rbp)
Ltmp423:
	.loc	41 143 41 prologue_end
	movq	(%rdi), %rdi
	movq	%rdi, -8(%rbp)
Ltmp424:
	.loc	18 1623 28
	movb	$0, -33(%rbp)
	.loc	18 1623 9 is_stmt 0
	movb	-33(%rbp), %al
	andb	$1, %al
	movzbl	%al, %esi
	callq	__ZN4core3mem7replace17h1d1141857a7725c5E
	andb	$1, %al
	movb	%al, -34(%rbp)
Ltmp425:
	.loc	18 821 15 is_stmt 1
	movb	-34(%rbp), %al
	andb	$1, %al
	movzbl	%al, %eax
	.loc	18 821 9 is_stmt 0
	cmpq	$0, %rax
	jne	LBB50_2
	.loc	18 823 21 is_stmt 1
	leaq	l___unnamed_23(%rip), %rdi
	leaq	l___unnamed_24(%rip), %rdx
	movl	$43, %esi
	callq	__ZN4core9panicking5panic17hc1bc45270cf64b03E
Ltmp426:
LBB50_2:
	.loc	41 143 41
	callq	__ZN4core3ops8function6FnOnce9call_once17ha6cb79f54b87fba2E
	.loc	41 143 60 is_stmt 0
	addq	$48, %rsp
	popq	%rbp
	retq
Ltmp427:
Lfunc_end50:
	.cfi_endproc

	.globl	__ZN3std5panic12catch_unwind17hfa4a3c841b2d73fbE
	.p2align	4, 0x90
__ZN3std5panic12catch_unwind17hfa4a3c841b2d73fbE:
Lfunc_begin51:
	.file	44 "/rustc/2c8cc343237b8f7d5a3c3703e3a87f2eb2c54a74/library/std/src" "panic.rs"
	.loc	44 139 0 is_stmt 1
	.cfi_startproc
	pushq	%rbp
	.cfi_def_cfa_offset 16
	.cfi_offset %rbp, -16
	movq	%rsp, %rbp
	.cfi_def_cfa_register %rbp
	subq	$16, %rsp
	movq	%rdi, %rax
	movq	%rax, -16(%rbp)
	movq	%rsi, -8(%rbp)
Ltmp428:
	.loc	44 140 14 prologue_end
	callq	__ZN3std9panicking3try17h074b71e32f1aa5f8E
	movq	-16(%rbp), %rax
	.loc	44 141 2
	addq	$16, %rsp
	popq	%rbp
	retq
Ltmp429:
Lfunc_end51:
	.cfi_endproc

	.globl	__ZN3std9panicking11begin_panic17h4facfa67f0a64c7cE
	.p2align	4, 0x90
__ZN3std9panicking11begin_panic17h4facfa67f0a64c7cE:
Lfunc_begin52:
	.file	45 "/rustc/2c8cc343237b8f7d5a3c3703e3a87f2eb2c54a74/library/std/src" "panicking.rs"
	.loc	45 601 0
	.cfi_startproc
	.cfi_personality 155, _rust_eh_personality
	.cfi_lsda 16, Lexception11
	pushq	%rbp
	.cfi_def_cfa_offset 16
	.cfi_offset %rbp, -16
	movq	%rsp, %rbp
	.cfi_def_cfa_register %rbp
	subq	$112, %rsp
	movq	%rdi, -104(%rbp)
	movq	%rsi, -96(%rbp)
	movq	%rdi, -48(%rbp)
	movq	%rsi, -40(%rbp)
Ltmp433:
	.loc	45 602 5 prologue_end
	movb	$1, -49(%rbp)
Ltmp434:
	.file	46 "/rustc/2c8cc343237b8f7d5a3c3703e3a87f2eb2c54a74/library/core/src/panic" "location.rs"
	.loc	46 88 9
	movq	%rdx, -32(%rbp)
	movq	-32(%rbp), %rax
	movq	%rax, -88(%rbp)
	movq	%rax, -24(%rbp)
Ltmp435:
	.loc	46 0 9 is_stmt 0
	movq	-88(%rbp), %rax
	movq	-96(%rbp), %rcx
	movq	-104(%rbp), %rdx
Ltmp436:
	.loc	45 607 69 is_stmt 1
	movb	$0, -49(%rbp)
	movq	%rdx, -80(%rbp)
	movq	%rcx, -72(%rbp)
	movq	%rax, -64(%rbp)
Ltmp430:
	leaq	-80(%rbp), %rdi
	.loc	45 607 12 is_stmt 0
	callq	__ZN3std10sys_common9backtrace26__rust_end_short_backtrace17he6fa460b8a1b9da4E
Ltmp431:
	jmp	LBB52_4
Ltmp437:
LBB52_2:
	.loc	45 642 1 is_stmt 1
	testb	$1, -49(%rbp)
	jne	LBB52_6
	jmp	LBB52_5
LBB52_3:
Ltmp432:
	.loc	45 0 1 is_stmt 0
	movq	%rax, %rcx
	movl	%edx, %eax
	movq	%rcx, -16(%rbp)
	movl	%eax, -8(%rbp)
	jmp	LBB52_2
LBB52_4:
	ud2
LBB52_5:
	.loc	45 601 1 is_stmt 1
	movq	-16(%rbp), %rdi
	callq	__Unwind_Resume
LBB52_6:
	.loc	45 642 1
	jmp	LBB52_5
Ltmp438:
Lfunc_end52:
	.cfi_endproc
	.section	__TEXT,__gcc_except_tab
	.p2align	2
GCC_except_table52:
Lexception11:
	.byte	255
	.byte	255
	.byte	1
	.uleb128 Lcst_end11-Lcst_begin11
Lcst_begin11:
	.uleb128 Ltmp430-Lfunc_begin52
	.uleb128 Ltmp431-Ltmp430
	.uleb128 Ltmp432-Lfunc_begin52
	.byte	0
	.uleb128 Ltmp431-Lfunc_begin52
	.uleb128 Lfunc_end52-Ltmp431
	.byte	0
	.byte	0
Lcst_end11:
	.p2align	2

	.section	__TEXT,__text,regular,pure_instructions
	.globl	__ZN3std9panicking11begin_panic21PanicPayload$LT$A$GT$3new17h196abf0b46451350E
	.p2align	4, 0x90
__ZN3std9panicking11begin_panic21PanicPayload$LT$A$GT$3new17h196abf0b46451350E:
Lfunc_begin53:
	.loc	45 616 0
	.cfi_startproc
	pushq	%rbp
	.cfi_def_cfa_offset 16
	.cfi_offset %rbp, -16
	movq	%rsp, %rbp
	.cfi_def_cfa_register %rbp
	subq	$48, %rsp
	movq	%rdi, -16(%rbp)
	movq	%rsi, -8(%rbp)
Ltmp439:
	.loc	45 617 35 prologue_end
	movq	%rdi, -32(%rbp)
	movq	%rsi, -24(%rbp)
	.loc	45 617 13 is_stmt 0
	movq	-32(%rbp), %rcx
	movq	-24(%rbp), %rax
	movq	%rcx, -48(%rbp)
	movq	%rax, -40(%rbp)
	.loc	45 618 10 is_stmt 1
	movq	-48(%rbp), %rax
	movq	-40(%rbp), %rdx
	addq	$48, %rsp
	popq	%rbp
	retq
Ltmp440:
Lfunc_end53:
	.cfi_endproc

	.globl	__ZN3std9panicking11begin_panic28_$u7b$$u7b$closure$u7d$$u7d$17h13f1976023b5c8acE
	.p2align	4, 0x90
__ZN3std9panicking11begin_panic28_$u7b$$u7b$closure$u7d$$u7d$17h13f1976023b5c8acE:
Lfunc_begin54:
	.loc	45 607 0
	.cfi_startproc
	.cfi_personality 155, _rust_eh_personality
	.cfi_lsda 16, Lexception12
	pushq	%rbp
	.cfi_def_cfa_offset 16
	.cfi_offset %rbp, -16
	movq	%rsp, %rbp
	.cfi_def_cfa_register %rbp
	subq	$48, %rsp
	movq	%rdi, %rax
	movq	%rax, -48(%rbp)
Ltmp444:
	.loc	45 608 53 prologue_end
	movq	(%rax), %rdi
	movq	8(%rax), %rsi
	.loc	45 608 35 is_stmt 0
	callq	__ZN3std9panicking11begin_panic21PanicPayload$LT$A$GT$3new17h196abf0b46451350E
	movq	-48(%rbp), %rdi
	movq	%rdx, -32(%rbp)
	movq	%rax, -40(%rbp)
	.loc	45 608 59
	movq	$0, -24(%rbp)
	.loc	45 608 65
	movq	16(%rdi), %rcx
	.loc	45 608 9
	movq	-24(%rbp), %rdx
Ltmp441:
	leaq	l___unnamed_2(%rip), %rsi
	leaq	-40(%rbp), %rdi
	movl	$1, %r8d
	callq	__ZN3std9panicking20rust_panic_with_hook17h479ead1480e59d8dE
Ltmp442:
	jmp	LBB54_3
Ltmp445:
LBB54_1:
	.loc	45 607 69 is_stmt 1
	movq	-16(%rbp), %rdi
	callq	__Unwind_Resume
Ltmp446:
LBB54_2:
Ltmp443:
	.loc	45 0 69 is_stmt 0
	movq	%rax, %rcx
	movl	%edx, %eax
	movq	%rcx, -16(%rbp)
	movl	%eax, -8(%rbp)
	jmp	LBB54_1
Ltmp447:
LBB54_3:
	ud2
Lfunc_end54:
	.cfi_endproc
	.section	__TEXT,__gcc_except_tab
	.p2align	2
GCC_except_table54:
Lexception12:
	.byte	255
	.byte	255
	.byte	1
	.uleb128 Lcst_end12-Lcst_begin12
Lcst_begin12:
	.uleb128 Lfunc_begin54-Lfunc_begin54
	.uleb128 Ltmp441-Lfunc_begin54
	.byte	0
	.byte	0
	.uleb128 Ltmp441-Lfunc_begin54
	.uleb128 Ltmp442-Ltmp441
	.uleb128 Ltmp443-Lfunc_begin54
	.byte	0
	.uleb128 Ltmp442-Lfunc_begin54
	.uleb128 Lfunc_end54-Ltmp442
	.byte	0
	.byte	0
Lcst_end12:
	.p2align	2

	.section	__TEXT,__text,regular,pure_instructions
	.globl	__ZN3std9panicking3try17h074b71e32f1aa5f8E
	.p2align	4, 0x90
__ZN3std9panicking3try17h074b71e32f1aa5f8E:
Lfunc_begin55:
	.loc	45 403 0 is_stmt 1
	.cfi_startproc
	pushq	%rbp
	.cfi_def_cfa_offset 16
	.cfi_offset %rbp, -16
	movq	%rsp, %rbp
	.cfi_def_cfa_register %rbp
	subq	$112, %rsp
	movq	%rdi, -104(%rbp)
	movq	%rdi, -96(%rbp)
	movq	%rsi, -48(%rbp)
Ltmp448:
	.loc	45 434 48 prologue_end
	movq	%rsi, -40(%rbp)
Ltmp449:
	.loc	6 71 9
	movq	%rsi, -72(%rbp)
Ltmp450:
	.loc	45 434 20
	movq	-72(%rbp), %rax
	movq	%rax, -88(%rbp)
Ltmp451:
	.loc	45 436 20
	leaq	-88(%rbp), %rax
	movq	%rax, -32(%rbp)
Ltmp452:
	.loc	45 447 19
	leaq	__ZN3std9panicking3try7do_call17hd075a8a84ef74a75E(%rip), %rdi
	leaq	-88(%rbp), %rsi
	leaq	__ZN3std9panicking3try8do_catch17h8c39269c1b77d4f4E(%rip), %rdx
	callq	___rust_try
	movl	%eax, -20(%rbp)
	cmpl	$0, -20(%rbp)
	jne	LBB55_2
	.loc	45 0 19 is_stmt 0
	movq	-104(%rbp), %rax
	.loc	45 448 41 is_stmt 1
	movq	-88(%rbp), %rcx
	movq	%rcx, -56(%rbp)
Ltmp453:
	.loc	6 89 9
	movq	-56(%rbp), %rcx
	movq	%rcx, -64(%rbp)
Ltmp454:
	.loc	45 448 13
	movq	-64(%rbp), %rcx
	movq	%rcx, 8(%rax)
	movq	$0, (%rax)
	.loc	45 447 16
	jmp	LBB55_3
LBB55_2:
	.loc	45 0 16 is_stmt 0
	movq	-104(%rbp), %rax
	.loc	45 450 42 is_stmt 1
	movq	-88(%rbp), %rdx
	movq	-80(%rbp), %rcx
	movq	%rdx, -16(%rbp)
	movq	%rcx, -8(%rbp)
	.loc	45 450 13 is_stmt 0
	movq	%rdx, (%rax)
	movq	%rcx, 8(%rax)
Ltmp455:
LBB55_3:
	.loc	45 0 13
	movq	-96(%rbp), %rax
	.loc	45 512 2 is_stmt 1
	addq	$112, %rsp
	popq	%rbp
	retq
Ltmp456:
Lfunc_end55:
	.cfi_endproc

	.globl	__ZN3std9panicking3try7do_call17hd075a8a84ef74a75E
	.p2align	4, 0x90
__ZN3std9panicking3try7do_call17hd075a8a84ef74a75E:
Lfunc_begin56:
	.loc	45 477 0
	.cfi_startproc
	pushq	%rbp
	.cfi_def_cfa_offset 16
	.cfi_offset %rbp, -16
	movq	%rsp, %rbp
	.cfi_def_cfa_register %rbp
	subq	$128, %rsp
	movq	%rdi, -120(%rbp)
	movq	%rdi, -80(%rbp)
Ltmp457:
	.loc	45 480 24 prologue_end
	movq	%rdi, -72(%rbp)
Ltmp458:
	.loc	45 481 24
	movq	%rdi, -64(%rbp)
Ltmp459:
	.loc	45 482 40
	movq	%rdi, -56(%rbp)
Ltmp460:
	.loc	6 113 28
	movq	%rdi, -48(%rbp)
Ltmp461:
	.loc	4 1157 34
	leaq	-96(%rbp), %rax
	movq	%rax, -40(%rbp)
	.loc	4 1157 9 is_stmt 0
	movq	(%rdi), %rax
	movq	%rax, -96(%rbp)
	.loc	4 1158 9 is_stmt 1
	movq	-96(%rbp), %rdi
	movq	%rdi, -32(%rbp)
Ltmp462:
	.loc	5 627 38
	movq	%rdi, -24(%rbp)
Ltmp463:
	.loc	6 89 9
	movq	%rdi, -16(%rbp)
Ltmp464:
	.loc	45 483 40
	callq	__ZN11proc_macro23imp16proc_macro_parse28_$u7b$$u7b$closure$u7d$$u7d$17h8eb5ade4c7cf3eb7E
	movq	-120(%rbp), %rdi
	movq	%rax, -8(%rbp)
	movq	-8(%rbp), %rax
	movq	%rax, -104(%rbp)
Ltmp465:
	.loc	6 71 24
	movq	-104(%rbp), %rax
	movq	%rax, -88(%rbp)
	.loc	6 71 9 is_stmt 0
	movq	-88(%rbp), %rax
	movq	%rax, -112(%rbp)
Ltmp466:
	.loc	45 483 13 is_stmt 1
	movq	-112(%rbp), %rax
	movq	%rax, (%rdi)
Ltmp467:
	.loc	45 485 6
	addq	$128, %rsp
	popq	%rbp
	retq
Ltmp468:
Lfunc_end56:
	.cfi_endproc

	.globl	__ZN3std9panicking3try8do_catch17h8c39269c1b77d4f4E
	.p2align	4, 0x90
__ZN3std9panicking3try8do_catch17h8c39269c1b77d4f4E:
Lfunc_begin57:
	.loc	45 499 0
	.cfi_startproc
	pushq	%rbp
	.cfi_def_cfa_offset 16
	.cfi_offset %rbp, -16
	movq	%rsp, %rbp
	.cfi_def_cfa_register %rbp
	subq	$96, %rsp
	movq	%rsi, -96(%rbp)
	movq	%rdi, %rax
	movq	-96(%rbp), %rdi
	movq	%rax, -88(%rbp)
	movq	%rax, -64(%rbp)
	movq	%rdi, -56(%rbp)
Ltmp469:
	.loc	45 506 24 prologue_end
	movq	%rax, -48(%rbp)
Ltmp470:
	.loc	45 507 24
	movq	%rax, -40(%rbp)
Ltmp471:
	.loc	45 508 23
	callq	__ZN3std9panicking3try7cleanup17h75e8c286968d572cE
	movq	-88(%rbp), %rdi
	movq	%rax, -32(%rbp)
	movq	%rdx, -24(%rbp)
Ltmp472:
	.loc	45 509 40
	movq	%rax, -16(%rbp)
	movq	%rdx, -8(%rbp)
Ltmp473:
	.loc	6 71 9
	movq	%rax, -80(%rbp)
	movq	%rdx, -72(%rbp)
Ltmp474:
	.loc	45 509 13
	movq	-80(%rbp), %rcx
	movq	-72(%rbp), %rax
	movq	%rcx, (%rdi)
	movq	%rax, 8(%rdi)
Ltmp475:
	.loc	45 511 6
	addq	$96, %rsp
	popq	%rbp
	retq
Ltmp476:
Lfunc_end57:
	.cfi_endproc

	.p2align	4, 0x90
__ZN41_$LT$bool$u20$as$u20$core..fmt..Debug$GT$3fmt17h66c114296fca28c9E:
Lfunc_begin58:
	.file	47 "/rustc/2c8cc343237b8f7d5a3c3703e3a87f2eb2c54a74/library/core/src/fmt" "mod.rs"
	.loc	47 2406 0
	.cfi_startproc
	pushq	%rbp
	.cfi_def_cfa_offset 16
	.cfi_offset %rbp, -16
	movq	%rsp, %rbp
	.cfi_def_cfa_register %rbp
	subq	$16, %rsp
	movq	%rdi, -16(%rbp)
	movq	%rsi, -8(%rbp)
Ltmp477:
	.loc	47 2407 9 prologue_end
	callq	__ZN43_$LT$bool$u20$as$u20$core..fmt..Display$GT$3fmt17hcd777b7f8f92eb67E
	.loc	47 2408 6
	andb	$1, %al
	movzbl	%al, %eax
	addq	$16, %rsp
	popq	%rbp
	retq
Ltmp478:
Lfunc_end58:
	.cfi_endproc

	.globl	__ZN42_$LT$$RF$T$u20$as$u20$core..fmt..Debug$GT$3fmt17h4588d447865e2630E
	.p2align	4, 0x90
__ZN42_$LT$$RF$T$u20$as$u20$core..fmt..Debug$GT$3fmt17h4588d447865e2630E:
Lfunc_begin59:
	.loc	47 2377 0
	.cfi_startproc
	pushq	%rbp
	.cfi_def_cfa_offset 16
	.cfi_offset %rbp, -16
	movq	%rsp, %rbp
	.cfi_def_cfa_register %rbp
	subq	$16, %rsp
	movq	%rdi, -16(%rbp)
	movq	%rsi, -8(%rbp)
Ltmp479:
	.loc	47 2377 71 prologue_end
	movq	(%rdi), %rdi
	.loc	47 2377 62 is_stmt 0
	callq	__ZN64_$LT$proc_macro2..fallback..Span$u20$as$u20$core..fmt..Debug$GT$3fmt17h4bd4cfc4268c4febE
	.loc	47 2377 84
	andb	$1, %al
	movzbl	%al, %eax
	addq	$16, %rsp
	popq	%rbp
	retq
Ltmp480:
Lfunc_end59:
	.cfi_endproc

	.globl	__ZN42_$LT$$RF$T$u20$as$u20$core..fmt..Debug$GT$3fmt17h53a963cfa33efa12E
	.p2align	4, 0x90
__ZN42_$LT$$RF$T$u20$as$u20$core..fmt..Debug$GT$3fmt17h53a963cfa33efa12E:
Lfunc_begin60:
	.loc	47 2377 0 is_stmt 1
	.cfi_startproc
	pushq	%rbp
	.cfi_def_cfa_offset 16
	.cfi_offset %rbp, -16
	movq	%rsp, %rbp
	.cfi_def_cfa_register %rbp
	subq	$16, %rsp
	movq	%rdi, -16(%rbp)
	movq	%rsi, -8(%rbp)
Ltmp481:
	.loc	47 2377 71 prologue_end
	movq	(%rdi), %rdi
	.loc	47 2377 62 is_stmt 0
	callq	__ZN66_$LT$core..option..Option$LT$T$GT$$u20$as$u20$core..fmt..Debug$GT$3fmt17h896d28900682714eE
	.loc	47 2377 84
	andb	$1, %al
	movzbl	%al, %eax
	addq	$16, %rsp
	popq	%rbp
	retq
Ltmp482:
Lfunc_end60:
	.cfi_endproc

	.globl	__ZN42_$LT$$RF$T$u20$as$u20$core..fmt..Debug$GT$3fmt17h65ba15591d383af3E
	.p2align	4, 0x90
__ZN42_$LT$$RF$T$u20$as$u20$core..fmt..Debug$GT$3fmt17h65ba15591d383af3E:
Lfunc_begin61:
	.loc	47 2377 0 is_stmt 1
	.cfi_startproc
	pushq	%rbp
	.cfi_def_cfa_offset 16
	.cfi_offset %rbp, -16
	movq	%rsp, %rbp
	.cfi_def_cfa_register %rbp
	subq	$16, %rsp
	movq	%rsi, %rdx
	movq	%rdi, %rax
	movq	%rax, -16(%rbp)
	movq	%rdx, -8(%rbp)
Ltmp483:
	.loc	47 2377 71 prologue_end
	movq	(%rax), %rdi
	movq	8(%rax), %rsi
	.loc	47 2377 62 is_stmt 0
	callq	__ZN40_$LT$str$u20$as$u20$core..fmt..Debug$GT$3fmt17h4564f13343f2ac60E
	.loc	47 2377 84
	andb	$1, %al
	movzbl	%al, %eax
	addq	$16, %rsp
	popq	%rbp
	retq
Ltmp484:
Lfunc_end61:
	.cfi_endproc

	.globl	__ZN42_$LT$$RF$T$u20$as$u20$core..fmt..Debug$GT$3fmt17hde058bbcf96079ddE
	.p2align	4, 0x90
__ZN42_$LT$$RF$T$u20$as$u20$core..fmt..Debug$GT$3fmt17hde058bbcf96079ddE:
Lfunc_begin62:
	.loc	47 2377 0 is_stmt 1
	.cfi_startproc
	pushq	%rbp
	.cfi_def_cfa_offset 16
	.cfi_offset %rbp, -16
	movq	%rsp, %rbp
	.cfi_def_cfa_register %rbp
	subq	$16, %rsp
	movq	%rdi, -16(%rbp)
	movq	%rsi, -8(%rbp)
Ltmp485:
	.loc	47 2377 71 prologue_end
	movq	(%rdi), %rdi
	.loc	47 2377 62 is_stmt 0
	callq	__ZN4core3fmt3num52_$LT$impl$u20$core..fmt..Debug$u20$for$u20$usize$GT$3fmt17hd872a8ceb18fe357E
	.loc	47 2377 84
	andb	$1, %al
	movzbl	%al, %eax
	addq	$16, %rsp
	popq	%rbp
	retq
Ltmp486:
Lfunc_end62:
	.cfi_endproc

	.globl	__ZN44_$LT$$RF$T$u20$as$u20$core..fmt..Display$GT$3fmt17h0eb8ac341f16ded4E
	.p2align	4, 0x90
__ZN44_$LT$$RF$T$u20$as$u20$core..fmt..Display$GT$3fmt17h0eb8ac341f16ded4E:
Lfunc_begin63:
	.loc	47 2377 0 is_stmt 1
	.cfi_startproc
	pushq	%rbp
	.cfi_def_cfa_offset 16
	.cfi_offset %rbp, -16
	movq	%rsp, %rbp
	.cfi_def_cfa_register %rbp
	subq	$16, %rsp
	movq	%rdi, -16(%rbp)
	movq	%rsi, -8(%rbp)
Ltmp487:
	.loc	47 2377 71 prologue_end
	movq	(%rdi), %rdi
	.loc	47 2377 62 is_stmt 0
	callq	__ZN67_$LT$proc_macro2..fallback..Ident$u20$as$u20$core..fmt..Display$GT$3fmt17hfca0eef648cdd43bE
	.loc	47 2377 84
	andb	$1, %al
	movzbl	%al, %eax
	addq	$16, %rsp
	popq	%rbp
	retq
Ltmp488:
Lfunc_end63:
	.cfi_endproc

	.globl	__ZN44_$LT$$RF$T$u20$as$u20$core..fmt..Display$GT$3fmt17h4be3f351d33690c0E
	.p2align	4, 0x90
__ZN44_$LT$$RF$T$u20$as$u20$core..fmt..Display$GT$3fmt17h4be3f351d33690c0E:
Lfunc_begin64:
	.loc	47 2377 0 is_stmt 1
	.cfi_startproc
	pushq	%rbp
	.cfi_def_cfa_offset 16
	.cfi_offset %rbp, -16
	movq	%rsp, %rbp
	.cfi_def_cfa_register %rbp
	subq	$16, %rsp
	movq	%rsi, %rdx
	movq	%rdi, %rax
	movq	%rax, -16(%rbp)
	movq	%rdx, -8(%rbp)
Ltmp489:
	.loc	47 2377 71 prologue_end
	movq	(%rax), %rdi
	movq	8(%rax), %rsi
	.loc	47 2377 62 is_stmt 0
	callq	__ZN42_$LT$str$u20$as$u20$core..fmt..Display$GT$3fmt17hd1cabce055ea2fbdE
	.loc	47 2377 84
	andb	$1, %al
	movzbl	%al, %eax
	addq	$16, %rsp
	popq	%rbp
	retq
Ltmp490:
Lfunc_end64:
	.cfi_endproc

	.globl	__ZN44_$LT$$RF$T$u20$as$u20$core..fmt..Display$GT$3fmt17hf2584593557ea89cE
	.p2align	4, 0x90
__ZN44_$LT$$RF$T$u20$as$u20$core..fmt..Display$GT$3fmt17hf2584593557ea89cE:
Lfunc_begin65:
	.loc	47 2377 0 is_stmt 1
	.cfi_startproc
	pushq	%rbp
	.cfi_def_cfa_offset 16
	.cfi_offset %rbp, -16
	movq	%rsp, %rbp
	.cfi_def_cfa_register %rbp
	subq	$16, %rsp
	movq	%rdi, -16(%rbp)
	movq	%rsi, -8(%rbp)
Ltmp491:
	.loc	47 2377 71 prologue_end
	movq	(%rdi), %rdi
	.loc	47 2377 62 is_stmt 0
	callq	__ZN57_$LT$proc_macro2..Ident$u20$as$u20$core..fmt..Display$GT$3fmt17hefbbf4d445f56eafE
	.loc	47 2377 84
	andb	$1, %al
	movzbl	%al, %eax
	addq	$16, %rsp
	popq	%rbp
	retq
Ltmp492:
Lfunc_end65:
	.cfi_endproc

	.globl	__ZN45_$LT$$RF$T$u20$as$u20$core..fmt..UpperHex$GT$3fmt17h439f7f316ac5d182E
	.p2align	4, 0x90
__ZN45_$LT$$RF$T$u20$as$u20$core..fmt..UpperHex$GT$3fmt17h439f7f316ac5d182E:
Lfunc_begin66:
	.loc	47 2377 0 is_stmt 1
	.cfi_startproc
	pushq	%rbp
	.cfi_def_cfa_offset 16
	.cfi_offset %rbp, -16
	movq	%rsp, %rbp
	.cfi_def_cfa_register %rbp
	subq	$16, %rsp
	movq	%rdi, -16(%rbp)
	movq	%rsi, -8(%rbp)
Ltmp493:
	.loc	47 2377 71 prologue_end
	movq	(%rdi), %rdi
	.loc	47 2377 62 is_stmt 0
	callq	__ZN4core3fmt3num52_$LT$impl$u20$core..fmt..UpperHex$u20$for$u20$u8$GT$3fmt17h0d44eda8e53b13dbE
	.loc	47 2377 84
	andb	$1, %al
	movzbl	%al, %eax
	addq	$16, %rsp
	popq	%rbp
	retq
Ltmp494:
Lfunc_end66:
	.cfi_endproc

	.globl	__ZN45_$LT$T$u20$as$u20$alloc..string..ToString$GT$9to_string17h192bef5faaf61749E
	.p2align	4, 0x90
__ZN45_$LT$T$u20$as$u20$alloc..string..ToString$GT$9to_string17h192bef5faaf61749E:
Lfunc_begin67:
	.loc	23 2532 0 is_stmt 1
	.cfi_startproc
	.cfi_personality 155, _rust_eh_personality
	.cfi_lsda 16, Lexception13
	pushq	%rbp
	.cfi_def_cfa_offset 16
	.cfi_offset %rbp, -16
	movq	%rsp, %rbp
	.cfi_def_cfa_register %rbp
	subq	$144, %rsp
	movq	%rsi, %rax
	movq	%rax, -136(%rbp)
	movq	%rdi, %rsi
	movq	%rsi, -128(%rbp)
Ltmp505:
	movq	%rsi, %rdi
	movq	%rdi, -120(%rbp)
	movq	%rax, -24(%rbp)
Ltmp506:
	.loc	33 425 20 prologue_end
	movq	L___unnamed_25(%rip), %rcx
	movq	L___unnamed_25+8(%rip), %rax
	.loc	33 425 9 is_stmt 0
	movq	%rcx, -48(%rbp)
	movq	%rax, -40(%rbp)
	movq	$0, -32(%rbp)
Ltmp507:
	.loc	23 456 9 is_stmt 1
	movq	-32(%rbp), %rax
	movq	%rax, 16(%rsi)
	movq	-48(%rbp), %rax
	movq	-40(%rbp), %rcx
	movq	%rcx, 8(%rsi)
	movq	%rax, (%rsi)
Ltmp508:
Ltmp495:
	.loc	23 2534 29
	leaq	l___unnamed_3(%rip), %rdx
	leaq	-112(%rbp), %rdi
	callq	__ZN4core3fmt9Formatter3new17h7f05d885df8ba719E
Ltmp509:
Ltmp496:
	jmp	LBB67_3
Ltmp510:
LBB67_1:
Ltmp502:
	.loc	23 0 29 is_stmt 0
	movq	-128(%rbp), %rdi
	.loc	23 2539 5 is_stmt 1
	callq	__ZN4core3ptr42drop_in_place$LT$alloc..string..String$GT$17h61119d261c692d35E
Ltmp503:
	jmp	LBB67_7
LBB67_2:
Ltmp501:
	.loc	23 0 5 is_stmt 0
	movq	%rax, %rcx
	movl	%edx, %eax
	movq	%rcx, -16(%rbp)
	movl	%eax, -8(%rbp)
	jmp	LBB67_1
LBB67_3:
Ltmp511:
Ltmp497:
	movq	-136(%rbp), %rdi
	leaq	-112(%rbp), %rsi
Ltmp512:
	.loc	23 2536 9 is_stmt 1
	callq	__ZN73_$LT$proc_macro2..fallback..TokenStream$u20$as$u20$core..fmt..Display$GT$3fmt17h493cbcbd0f5b5e3aE
Ltmp498:
	movb	%al, -137(%rbp)
	jmp	LBB67_4
Ltmp513:
LBB67_4:
Ltmp499:
	.loc	23 0 9 is_stmt 0
	movb	-137(%rbp), %al
	.loc	23 2536 9
	movzbl	%al, %edi
	andl	$1, %edi
	leaq	l___unnamed_26(%rip), %rsi
	leaq	l___unnamed_27(%rip), %rcx
	movl	$55, %edx
	callq	__ZN4core6result19Result$LT$T$C$E$GT$6expect17hfd8b16fe4ff89dc0E
Ltmp500:
	jmp	LBB67_5
Ltmp514:
LBB67_5:
	.loc	23 0 9
	movq	-120(%rbp), %rax
	.loc	23 2539 6 is_stmt 1
	addq	$144, %rsp
	popq	%rbp
	retq
LBB67_6:
Ltmp504:
	.loc	23 2532 5
	callq	__ZN4core9panicking19panic_cannot_unwind17h1fbca7e1d7f56ae1E
LBB67_7:
	movq	-16(%rbp), %rdi
	callq	__Unwind_Resume
Ltmp515:
Lfunc_end67:
	.cfi_endproc
	.section	__TEXT,__gcc_except_tab
	.p2align	2
GCC_except_table67:
Lexception13:
	.byte	255
	.byte	255
	.byte	1
	.uleb128 Lcst_end13-Lcst_begin13
Lcst_begin13:
	.uleb128 Ltmp495-Lfunc_begin67
	.uleb128 Ltmp496-Ltmp495
	.uleb128 Ltmp501-Lfunc_begin67
	.byte	0
	.uleb128 Ltmp502-Lfunc_begin67
	.uleb128 Ltmp503-Ltmp502
	.uleb128 Ltmp504-Lfunc_begin67
	.byte	0
	.uleb128 Ltmp497-Lfunc_begin67
	.uleb128 Ltmp500-Ltmp497
	.uleb128 Ltmp501-Lfunc_begin67
	.byte	0
	.uleb128 Ltmp500-Lfunc_begin67
	.uleb128 Lfunc_end67-Ltmp500
	.byte	0
	.byte	0
Lcst_end13:
	.p2align	2

	.section	__TEXT,__text,regular,pure_instructions
	.globl	__ZN45_$LT$T$u20$as$u20$alloc..string..ToString$GT$9to_string17h239b23c3fcbf8d06E
	.p2align	4, 0x90
__ZN45_$LT$T$u20$as$u20$alloc..string..ToString$GT$9to_string17h239b23c3fcbf8d06E:
Lfunc_begin68:
	.loc	23 2532 0
	.cfi_startproc
	.cfi_personality 155, _rust_eh_personality
	.cfi_lsda 16, Lexception14
	pushq	%rbp
	.cfi_def_cfa_offset 16
	.cfi_offset %rbp, -16
	movq	%rsp, %rbp
	.cfi_def_cfa_register %rbp
	subq	$144, %rsp
	movq	%rsi, %rax
	movq	%rax, -136(%rbp)
	movq	%rdi, %rsi
	movq	%rsi, -128(%rbp)
Ltmp526:
	movq	%rsi, %rdi
	movq	%rdi, -120(%rbp)
	movq	%rax, -24(%rbp)
Ltmp527:
	.loc	33 425 20 prologue_end
	movq	L___unnamed_25(%rip), %rcx
	movq	L___unnamed_25+8(%rip), %rax
	.loc	33 425 9 is_stmt 0
	movq	%rcx, -48(%rbp)
	movq	%rax, -40(%rbp)
	movq	$0, -32(%rbp)
Ltmp528:
	.loc	23 456 9 is_stmt 1
	movq	-32(%rbp), %rax
	movq	%rax, 16(%rsi)
	movq	-48(%rbp), %rax
	movq	-40(%rbp), %rcx
	movq	%rcx, 8(%rsi)
	movq	%rax, (%rsi)
Ltmp529:
Ltmp516:
	.loc	23 2534 29
	leaq	l___unnamed_3(%rip), %rdx
	leaq	-112(%rbp), %rdi
	callq	__ZN4core3fmt9Formatter3new17h7f05d885df8ba719E
Ltmp530:
Ltmp517:
	jmp	LBB68_3
Ltmp531:
LBB68_1:
Ltmp523:
	.loc	23 0 29 is_stmt 0
	movq	-128(%rbp), %rdi
	.loc	23 2539 5 is_stmt 1
	callq	__ZN4core3ptr42drop_in_place$LT$alloc..string..String$GT$17h61119d261c692d35E
Ltmp524:
	jmp	LBB68_7
LBB68_2:
Ltmp522:
	.loc	23 0 5 is_stmt 0
	movq	%rax, %rcx
	movl	%edx, %eax
	movq	%rcx, -16(%rbp)
	movl	%eax, -8(%rbp)
	jmp	LBB68_1
LBB68_3:
Ltmp532:
Ltmp518:
	movq	-136(%rbp), %rdi
	leaq	-112(%rbp), %rsi
Ltmp533:
	.loc	23 2536 9 is_stmt 1
	callq	__ZN4core3fmt3num3imp52_$LT$impl$u20$core..fmt..Display$u20$for$u20$u64$GT$3fmt17hc0b393b21668e9bfE
Ltmp519:
	movb	%al, -137(%rbp)
	jmp	LBB68_4
Ltmp534:
LBB68_4:
Ltmp520:
	.loc	23 0 9 is_stmt 0
	movb	-137(%rbp), %al
	.loc	23 2536 9
	movzbl	%al, %edi
	andl	$1, %edi
	leaq	l___unnamed_26(%rip), %rsi
	leaq	l___unnamed_27(%rip), %rcx
	movl	$55, %edx
	callq	__ZN4core6result19Result$LT$T$C$E$GT$6expect17hfd8b16fe4ff89dc0E
Ltmp521:
	jmp	LBB68_5
Ltmp535:
LBB68_5:
	.loc	23 0 9
	movq	-120(%rbp), %rax
	.loc	23 2539 6 is_stmt 1
	addq	$144, %rsp
	popq	%rbp
	retq
LBB68_6:
Ltmp525:
	.loc	23 2532 5
	callq	__ZN4core9panicking19panic_cannot_unwind17h1fbca7e1d7f56ae1E
LBB68_7:
	movq	-16(%rbp), %rdi
	callq	__Unwind_Resume
Ltmp536:
Lfunc_end68:
	.cfi_endproc
	.section	__TEXT,__gcc_except_tab
	.p2align	2
GCC_except_table68:
Lexception14:
	.byte	255
	.byte	255
	.byte	1
	.uleb128 Lcst_end14-Lcst_begin14
Lcst_begin14:
	.uleb128 Ltmp516-Lfunc_begin68
	.uleb128 Ltmp517-Ltmp516
	.uleb128 Ltmp522-Lfunc_begin68
	.byte	0
	.uleb128 Ltmp523-Lfunc_begin68
	.uleb128 Ltmp524-Ltmp523
	.uleb128 Ltmp525-Lfunc_begin68
	.byte	0
	.uleb128 Ltmp518-Lfunc_begin68
	.uleb128 Ltmp521-Ltmp518
	.uleb128 Ltmp522-Lfunc_begin68
	.byte	0
	.uleb128 Ltmp521-Lfunc_begin68
	.uleb128 Lfunc_end68-Ltmp521
	.byte	0
	.byte	0
Lcst_end14:
	.p2align	2

	.section	__TEXT,__text,regular,pure_instructions
	.globl	__ZN45_$LT$T$u20$as$u20$alloc..string..ToString$GT$9to_string17h36469624b14095aaE
	.p2align	4, 0x90
__ZN45_$LT$T$u20$as$u20$alloc..string..ToString$GT$9to_string17h36469624b14095aaE:
Lfunc_begin69:
	.loc	23 2532 0
	.cfi_startproc
	.cfi_personality 155, _rust_eh_personality
	.cfi_lsda 16, Lexception15
	pushq	%rbp
	.cfi_def_cfa_offset 16
	.cfi_offset %rbp, -16
	movq	%rsp, %rbp
	.cfi_def_cfa_register %rbp
	subq	$144, %rsp
	movq	%rsi, %rax
	movq	%rax, -136(%rbp)
	movq	%rdi, %rsi
	movq	%rsi, -128(%rbp)
Ltmp547:
	movq	%rsi, %rdi
	movq	%rdi, -120(%rbp)
	movq	%rax, -24(%rbp)
Ltmp548:
	.loc	33 425 20 prologue_end
	movq	L___unnamed_25(%rip), %rcx
	movq	L___unnamed_25+8(%rip), %rax
	.loc	33 425 9 is_stmt 0
	movq	%rcx, -48(%rbp)
	movq	%rax, -40(%rbp)
	movq	$0, -32(%rbp)
Ltmp549:
	.loc	23 456 9 is_stmt 1
	movq	-32(%rbp), %rax
	movq	%rax, 16(%rsi)
	movq	-48(%rbp), %rax
	movq	-40(%rbp), %rcx
	movq	%rcx, 8(%rsi)
	movq	%rax, (%rsi)
Ltmp550:
Ltmp537:
	.loc	23 2534 29
	leaq	l___unnamed_3(%rip), %rdx
	leaq	-112(%rbp), %rdi
	callq	__ZN4core3fmt9Formatter3new17h7f05d885df8ba719E
Ltmp551:
Ltmp538:
	jmp	LBB69_3
Ltmp552:
LBB69_1:
Ltmp544:
	.loc	23 0 29 is_stmt 0
	movq	-128(%rbp), %rdi
	.loc	23 2539 5 is_stmt 1
	callq	__ZN4core3ptr42drop_in_place$LT$alloc..string..String$GT$17h61119d261c692d35E
Ltmp545:
	jmp	LBB69_7
LBB69_2:
Ltmp543:
	.loc	23 0 5 is_stmt 0
	movq	%rax, %rcx
	movl	%edx, %eax
	movq	%rcx, -16(%rbp)
	movl	%eax, -8(%rbp)
	jmp	LBB69_1
LBB69_3:
Ltmp553:
Ltmp539:
	movq	-136(%rbp), %rdi
	leaq	-112(%rbp), %rsi
Ltmp554:
	.loc	23 2536 9 is_stmt 1
	callq	__ZN4core3fmt3num3imp52_$LT$impl$u20$core..fmt..Display$u20$for$u20$i32$GT$3fmt17hd51e25ed68474bbaE
Ltmp540:
	movb	%al, -137(%rbp)
	jmp	LBB69_4
Ltmp555:
LBB69_4:
Ltmp541:
	.loc	23 0 9 is_stmt 0
	movb	-137(%rbp), %al
	.loc	23 2536 9
	movzbl	%al, %edi
	andl	$1, %edi
	leaq	l___unnamed_26(%rip), %rsi
	leaq	l___unnamed_27(%rip), %rcx
	movl	$55, %edx
	callq	__ZN4core6result19Result$LT$T$C$E$GT$6expect17hfd8b16fe4ff89dc0E
Ltmp542:
	jmp	LBB69_5
Ltmp556:
LBB69_5:
	.loc	23 0 9
	movq	-120(%rbp), %rax
	.loc	23 2539 6 is_stmt 1
	addq	$144, %rsp
	popq	%rbp
	retq
LBB69_6:
Ltmp546:
	.loc	23 2532 5
	callq	__ZN4core9panicking19panic_cannot_unwind17h1fbca7e1d7f56ae1E
LBB69_7:
	movq	-16(%rbp), %rdi
	callq	__Unwind_Resume
Ltmp557:
Lfunc_end69:
	.cfi_endproc
	.section	__TEXT,__gcc_except_tab
	.p2align	2
GCC_except_table69:
Lexception15:
	.byte	255
	.byte	255
	.byte	1
	.uleb128 Lcst_end15-Lcst_begin15
Lcst_begin15:
	.uleb128 Ltmp537-Lfunc_begin69
	.uleb128 Ltmp538-Ltmp537
	.uleb128 Ltmp543-Lfunc_begin69
	.byte	0
	.uleb128 Ltmp544-Lfunc_begin69
	.uleb128 Ltmp545-Ltmp544
	.uleb128 Ltmp546-Lfunc_begin69
	.byte	0
	.uleb128 Ltmp539-Lfunc_begin69
	.uleb128 Ltmp542-Ltmp539
	.uleb128 Ltmp543-Lfunc_begin69
	.byte	0
	.uleb128 Ltmp542-Lfunc_begin69
	.uleb128 Lfunc_end69-Ltmp542
	.byte	0
	.byte	0
Lcst_end15:
	.p2align	2

	.section	__TEXT,__text,regular,pure_instructions
	.globl	__ZN45_$LT$T$u20$as$u20$alloc..string..ToString$GT$9to_string17h49d3a96a656201faE
	.p2align	4, 0x90
__ZN45_$LT$T$u20$as$u20$alloc..string..ToString$GT$9to_string17h49d3a96a656201faE:
Lfunc_begin70:
	.loc	23 2532 0
	.cfi_startproc
	.cfi_personality 155, _rust_eh_personality
	.cfi_lsda 16, Lexception16
	pushq	%rbp
	.cfi_def_cfa_offset 16
	.cfi_offset %rbp, -16
	movq	%rsp, %rbp
	.cfi_def_cfa_register %rbp
	subq	$144, %rsp
	movq	%rsi, %rax
	movq	%rax, -136(%rbp)
	movq	%rdi, %rsi
	movq	%rsi, -128(%rbp)
Ltmp568:
	movq	%rsi, %rdi
	movq	%rdi, -120(%rbp)
	movq	%rax, -24(%rbp)
Ltmp569:
	.loc	33 425 20 prologue_end
	movq	L___unnamed_25(%rip), %rcx
	movq	L___unnamed_25+8(%rip), %rax
	.loc	33 425 9 is_stmt 0
	movq	%rcx, -48(%rbp)
	movq	%rax, -40(%rbp)
	movq	$0, -32(%rbp)
Ltmp570:
	.loc	23 456 9 is_stmt 1
	movq	-32(%rbp), %rax
	movq	%rax, 16(%rsi)
	movq	-48(%rbp), %rax
	movq	-40(%rbp), %rcx
	movq	%rcx, 8(%rsi)
	movq	%rax, (%rsi)
Ltmp571:
Ltmp558:
	.loc	23 2534 29
	leaq	l___unnamed_3(%rip), %rdx
	leaq	-112(%rbp), %rdi
	callq	__ZN4core3fmt9Formatter3new17h7f05d885df8ba719E
Ltmp572:
Ltmp559:
	jmp	LBB70_3
Ltmp573:
LBB70_1:
Ltmp565:
	.loc	23 0 29 is_stmt 0
	movq	-128(%rbp), %rdi
	.loc	23 2539 5 is_stmt 1
	callq	__ZN4core3ptr42drop_in_place$LT$alloc..string..String$GT$17h61119d261c692d35E
Ltmp566:
	jmp	LBB70_7
LBB70_2:
Ltmp564:
	.loc	23 0 5 is_stmt 0
	movq	%rax, %rcx
	movl	%edx, %eax
	movq	%rcx, -16(%rbp)
	movl	%eax, -8(%rbp)
	jmp	LBB70_1
LBB70_3:
Ltmp574:
Ltmp560:
	movq	-136(%rbp), %rdi
	leaq	-112(%rbp), %rsi
Ltmp575:
	.loc	23 2536 9 is_stmt 1
	callq	__ZN57_$LT$proc_macro2..Ident$u20$as$u20$core..fmt..Display$GT$3fmt17hefbbf4d445f56eafE
Ltmp561:
	movb	%al, -137(%rbp)
	jmp	LBB70_4
Ltmp576:
LBB70_4:
Ltmp562:
	.loc	23 0 9 is_stmt 0
	movb	-137(%rbp), %al
	.loc	23 2536 9
	movzbl	%al, %edi
	andl	$1, %edi
	leaq	l___unnamed_26(%rip), %rsi
	leaq	l___unnamed_27(%rip), %rcx
	movl	$55, %edx
	callq	__ZN4core6result19Result$LT$T$C$E$GT$6expect17hfd8b16fe4ff89dc0E
Ltmp563:
	jmp	LBB70_5
Ltmp577:
LBB70_5:
	.loc	23 0 9
	movq	-120(%rbp), %rax
	.loc	23 2539 6 is_stmt 1
	addq	$144, %rsp
	popq	%rbp
	retq
LBB70_6:
Ltmp567:
	.loc	23 2532 5
	callq	__ZN4core9panicking19panic_cannot_unwind17h1fbca7e1d7f56ae1E
LBB70_7:
	movq	-16(%rbp), %rdi
	callq	__Unwind_Resume
Ltmp578:
Lfunc_end70:
	.cfi_endproc
	.section	__TEXT,__gcc_except_tab
	.p2align	2
GCC_except_table70:
Lexception16:
	.byte	255
	.byte	255
	.byte	1
	.uleb128 Lcst_end16-Lcst_begin16
Lcst_begin16:
	.uleb128 Ltmp558-Lfunc_begin70
	.uleb128 Ltmp559-Ltmp558
	.uleb128 Ltmp564-Lfunc_begin70
	.byte	0
	.uleb128 Ltmp565-Lfunc_begin70
	.uleb128 Ltmp566-Ltmp565
	.uleb128 Ltmp567-Lfunc_begin70
	.byte	0
	.uleb128 Ltmp560-Lfunc_begin70
	.uleb128 Ltmp563-Ltmp560
	.uleb128 Ltmp564-Lfunc_begin70
	.byte	0
	.uleb128 Ltmp563-Lfunc_begin70
	.uleb128 Lfunc_end70-Ltmp563
	.byte	0
	.byte	0
Lcst_end16:
	.p2align	2

	.section	__TEXT,__text,regular,pure_instructions
	.globl	__ZN45_$LT$T$u20$as$u20$alloc..string..ToString$GT$9to_string17h566dc137787b625bE
	.p2align	4, 0x90
__ZN45_$LT$T$u20$as$u20$alloc..string..ToString$GT$9to_string17h566dc137787b625bE:
Lfunc_begin71:
	.loc	23 2532 0
	.cfi_startproc
	.cfi_personality 155, _rust_eh_personality
	.cfi_lsda 16, Lexception17
	pushq	%rbp
	.cfi_def_cfa_offset 16
	.cfi_offset %rbp, -16
	movq	%rsp, %rbp
	.cfi_def_cfa_register %rbp
	subq	$144, %rsp
	movq	%rsi, %rax
	movq	%rax, -136(%rbp)
	movq	%rdi, %rsi
	movq	%rsi, -128(%rbp)
Ltmp589:
	movq	%rsi, %rdi
	movq	%rdi, -120(%rbp)
	movq	%rax, -24(%rbp)
Ltmp590:
	.loc	33 425 20 prologue_end
	movq	L___unnamed_25(%rip), %rcx
	movq	L___unnamed_25+8(%rip), %rax
	.loc	33 425 9 is_stmt 0
	movq	%rcx, -48(%rbp)
	movq	%rax, -40(%rbp)
	movq	$0, -32(%rbp)
Ltmp591:
	.loc	23 456 9 is_stmt 1
	movq	-32(%rbp), %rax
	movq	%rax, 16(%rsi)
	movq	-48(%rbp), %rax
	movq	-40(%rbp), %rcx
	movq	%rcx, 8(%rsi)
	movq	%rax, (%rsi)
Ltmp592:
Ltmp579:
	.loc	23 2534 29
	leaq	l___unnamed_3(%rip), %rdx
	leaq	-112(%rbp), %rdi
	callq	__ZN4core3fmt9Formatter3new17h7f05d885df8ba719E
Ltmp593:
Ltmp580:
	jmp	LBB71_3
Ltmp594:
LBB71_1:
Ltmp586:
	.loc	23 0 29 is_stmt 0
	movq	-128(%rbp), %rdi
	.loc	23 2539 5 is_stmt 1
	callq	__ZN4core3ptr42drop_in_place$LT$alloc..string..String$GT$17h61119d261c692d35E
Ltmp587:
	jmp	LBB71_7
LBB71_2:
Ltmp585:
	.loc	23 0 5 is_stmt 0
	movq	%rax, %rcx
	movl	%edx, %eax
	movq	%rcx, -16(%rbp)
	movl	%eax, -8(%rbp)
	jmp	LBB71_1
LBB71_3:
Ltmp595:
Ltmp581:
	movq	-136(%rbp), %rdi
	leaq	-112(%rbp), %rsi
Ltmp596:
	.loc	23 2536 9 is_stmt 1
	callq	__ZN4core3fmt3num3imp54_$LT$impl$u20$core..fmt..Display$u20$for$u20$usize$GT$3fmt17ha5c925fcd7ed33faE
Ltmp582:
	movb	%al, -137(%rbp)
	jmp	LBB71_4
Ltmp597:
LBB71_4:
Ltmp583:
	.loc	23 0 9 is_stmt 0
	movb	-137(%rbp), %al
	.loc	23 2536 9
	movzbl	%al, %edi
	andl	$1, %edi
	leaq	l___unnamed_26(%rip), %rsi
	leaq	l___unnamed_27(%rip), %rcx
	movl	$55, %edx
	callq	__ZN4core6result19Result$LT$T$C$E$GT$6expect17hfd8b16fe4ff89dc0E
Ltmp584:
	jmp	LBB71_5
Ltmp598:
LBB71_5:
	.loc	23 0 9
	movq	-120(%rbp), %rax
	.loc	23 2539 6 is_stmt 1
	addq	$144, %rsp
	popq	%rbp
	retq
LBB71_6:
Ltmp588:
	.loc	23 2532 5
	callq	__ZN4core9panicking19panic_cannot_unwind17h1fbca7e1d7f56ae1E
LBB71_7:
	movq	-16(%rbp), %rdi
	callq	__Unwind_Resume
Ltmp599:
Lfunc_end71:
	.cfi_endproc
	.section	__TEXT,__gcc_except_tab
	.p2align	2
GCC_except_table71:
Lexception17:
	.byte	255
	.byte	255
	.byte	1
	.uleb128 Lcst_end17-Lcst_begin17
Lcst_begin17:
	.uleb128 Ltmp579-Lfunc_begin71
	.uleb128 Ltmp580-Ltmp579
	.uleb128 Ltmp585-Lfunc_begin71
	.byte	0
	.uleb128 Ltmp586-Lfunc_begin71
	.uleb128 Ltmp587-Ltmp586
	.uleb128 Ltmp588-Lfunc_begin71
	.byte	0
	.uleb128 Ltmp581-Lfunc_begin71
	.uleb128 Ltmp584-Ltmp581
	.uleb128 Ltmp585-Lfunc_begin71
	.byte	0
	.uleb128 Ltmp584-Lfunc_begin71
	.uleb128 Lfunc_end71-Ltmp584
	.byte	0
	.byte	0
Lcst_end17:
	.p2align	2

	.section	__TEXT,__text,regular,pure_instructions
	.globl	__ZN45_$LT$T$u20$as$u20$alloc..string..ToString$GT$9to_string17h6f7156157cd6cdf8E
	.p2align	4, 0x90
__ZN45_$LT$T$u20$as$u20$alloc..string..ToString$GT$9to_string17h6f7156157cd6cdf8E:
Lfunc_begin72:
	.loc	23 2532 0
	.cfi_startproc
	.cfi_personality 155, _rust_eh_personality
	.cfi_lsda 16, Lexception18
	pushq	%rbp
	.cfi_def_cfa_offset 16
	.cfi_offset %rbp, -16
	movq	%rsp, %rbp
	.cfi_def_cfa_register %rbp
	subq	$144, %rsp
	movq	%rsi, %rax
	movq	%rax, -136(%rbp)
	movq	%rdi, %rsi
	movq	%rsi, -128(%rbp)
Ltmp610:
	movq	%rsi, %rdi
	movq	%rdi, -120(%rbp)
	movq	%rax, -24(%rbp)
Ltmp611:
	.loc	33 425 20 prologue_end
	movq	L___unnamed_25(%rip), %rcx
	movq	L___unnamed_25+8(%rip), %rax
	.loc	33 425 9 is_stmt 0
	movq	%rcx, -48(%rbp)
	movq	%rax, -40(%rbp)
	movq	$0, -32(%rbp)
Ltmp612:
	.loc	23 456 9 is_stmt 1
	movq	-32(%rbp), %rax
	movq	%rax, 16(%rsi)
	movq	-48(%rbp), %rax
	movq	-40(%rbp), %rcx
	movq	%rcx, 8(%rsi)
	movq	%rax, (%rsi)
Ltmp613:
Ltmp600:
	.loc	23 2534 29
	leaq	l___unnamed_3(%rip), %rdx
	leaq	-112(%rbp), %rdi
	callq	__ZN4core3fmt9Formatter3new17h7f05d885df8ba719E
Ltmp614:
Ltmp601:
	jmp	LBB72_3
Ltmp615:
LBB72_1:
Ltmp607:
	.loc	23 0 29 is_stmt 0
	movq	-128(%rbp), %rdi
	.loc	23 2539 5 is_stmt 1
	callq	__ZN4core3ptr42drop_in_place$LT$alloc..string..String$GT$17h61119d261c692d35E
Ltmp608:
	jmp	LBB72_7
LBB72_2:
Ltmp606:
	.loc	23 0 5 is_stmt 0
	movq	%rax, %rcx
	movl	%edx, %eax
	movq	%rcx, -16(%rbp)
	movl	%eax, -8(%rbp)
	jmp	LBB72_1
LBB72_3:
Ltmp616:
Ltmp602:
	movq	-136(%rbp), %rdi
	leaq	-112(%rbp), %rsi
Ltmp617:
	.loc	23 2536 9 is_stmt 1
	callq	__ZN4core3fmt3num53_$LT$impl$u20$core..fmt..Display$u20$for$u20$i128$GT$3fmt17hcb1385213c474154E
Ltmp603:
	movb	%al, -137(%rbp)
	jmp	LBB72_4
Ltmp618:
LBB72_4:
Ltmp604:
	.loc	23 0 9 is_stmt 0
	movb	-137(%rbp), %al
	.loc	23 2536 9
	movzbl	%al, %edi
	andl	$1, %edi
	leaq	l___unnamed_26(%rip), %rsi
	leaq	l___unnamed_27(%rip), %rcx
	movl	$55, %edx
	callq	__ZN4core6result19Result$LT$T$C$E$GT$6expect17hfd8b16fe4ff89dc0E
Ltmp605:
	jmp	LBB72_5
Ltmp619:
LBB72_5:
	.loc	23 0 9
	movq	-120(%rbp), %rax
	.loc	23 2539 6 is_stmt 1
	addq	$144, %rsp
	popq	%rbp
	retq
LBB72_6:
Ltmp609:
	.loc	23 2532 5
	callq	__ZN4core9panicking19panic_cannot_unwind17h1fbca7e1d7f56ae1E
LBB72_7:
	movq	-16(%rbp), %rdi
	callq	__Unwind_Resume
Ltmp620:
Lfunc_end72:
	.cfi_endproc
	.section	__TEXT,__gcc_except_tab
	.p2align	2
GCC_except_table72:
Lexception18:
	.byte	255
	.byte	255
	.byte	1
	.uleb128 Lcst_end18-Lcst_begin18
Lcst_begin18:
	.uleb128 Ltmp600-Lfunc_begin72
	.uleb128 Ltmp601-Ltmp600
	.uleb128 Ltmp606-Lfunc_begin72
	.byte	0
	.uleb128 Ltmp607-Lfunc_begin72
	.uleb128 Ltmp608-Ltmp607
	.uleb128 Ltmp609-Lfunc_begin72
	.byte	0
	.uleb128 Ltmp602-Lfunc_begin72
	.uleb128 Ltmp605-Ltmp602
	.uleb128 Ltmp606-Lfunc_begin72
	.byte	0
	.uleb128 Ltmp605-Lfunc_begin72
	.uleb128 Lfunc_end72-Ltmp605
	.byte	0
	.byte	0
Lcst_end18:
	.p2align	2

	.section	__TEXT,__text,regular,pure_instructions
	.globl	__ZN45_$LT$T$u20$as$u20$alloc..string..ToString$GT$9to_string17h82ba9b395957f270E
	.p2align	4, 0x90
__ZN45_$LT$T$u20$as$u20$alloc..string..ToString$GT$9to_string17h82ba9b395957f270E:
Lfunc_begin73:
	.loc	23 2532 0
	.cfi_startproc
	.cfi_personality 155, _rust_eh_personality
	.cfi_lsda 16, Lexception19
	pushq	%rbp
	.cfi_def_cfa_offset 16
	.cfi_offset %rbp, -16
	movq	%rsp, %rbp
	.cfi_def_cfa_register %rbp
	subq	$144, %rsp
	movq	%rsi, %rax
	movq	%rax, -136(%rbp)
	movq	%rdi, %rsi
	movq	%rsi, -128(%rbp)
Ltmp631:
	movq	%rsi, %rdi
	movq	%rdi, -120(%rbp)
	movq	%rax, -24(%rbp)
Ltmp632:
	.loc	33 425 20 prologue_end
	movq	L___unnamed_25(%rip), %rcx
	movq	L___unnamed_25+8(%rip), %rax
	.loc	33 425 9 is_stmt 0
	movq	%rcx, -48(%rbp)
	movq	%rax, -40(%rbp)
	movq	$0, -32(%rbp)
Ltmp633:
	.loc	23 456 9 is_stmt 1
	movq	-32(%rbp), %rax
	movq	%rax, 16(%rsi)
	movq	-48(%rbp), %rax
	movq	-40(%rbp), %rcx
	movq	%rcx, 8(%rsi)
	movq	%rax, (%rsi)
Ltmp634:
Ltmp621:
	.loc	23 2534 29
	leaq	l___unnamed_3(%rip), %rdx
	leaq	-112(%rbp), %rdi
	callq	__ZN4core3fmt9Formatter3new17h7f05d885df8ba719E
Ltmp635:
Ltmp622:
	jmp	LBB73_3
Ltmp636:
LBB73_1:
Ltmp628:
	.loc	23 0 29 is_stmt 0
	movq	-128(%rbp), %rdi
	.loc	23 2539 5 is_stmt 1
	callq	__ZN4core3ptr42drop_in_place$LT$alloc..string..String$GT$17h61119d261c692d35E
Ltmp629:
	jmp	LBB73_7
LBB73_2:
Ltmp627:
	.loc	23 0 5 is_stmt 0
	movq	%rax, %rcx
	movl	%edx, %eax
	movq	%rcx, -16(%rbp)
	movl	%eax, -8(%rbp)
	jmp	LBB73_1
LBB73_3:
Ltmp637:
Ltmp623:
	movq	-136(%rbp), %rdi
	leaq	-112(%rbp), %rsi
Ltmp638:
	.loc	23 2536 9 is_stmt 1
	callq	__ZN4core3fmt5float52_$LT$impl$u20$core..fmt..Display$u20$for$u20$f32$GT$3fmt17h9a60df429edb12f4E
Ltmp624:
	movb	%al, -137(%rbp)
	jmp	LBB73_4
Ltmp639:
LBB73_4:
Ltmp625:
	.loc	23 0 9 is_stmt 0
	movb	-137(%rbp), %al
	.loc	23 2536 9
	movzbl	%al, %edi
	andl	$1, %edi
	leaq	l___unnamed_26(%rip), %rsi
	leaq	l___unnamed_27(%rip), %rcx
	movl	$55, %edx
	callq	__ZN4core6result19Result$LT$T$C$E$GT$6expect17hfd8b16fe4ff89dc0E
Ltmp626:
	jmp	LBB73_5
Ltmp640:
LBB73_5:
	.loc	23 0 9
	movq	-120(%rbp), %rax
	.loc	23 2539 6 is_stmt 1
	addq	$144, %rsp
	popq	%rbp
	retq
LBB73_6:
Ltmp630:
	.loc	23 2532 5
	callq	__ZN4core9panicking19panic_cannot_unwind17h1fbca7e1d7f56ae1E
LBB73_7:
	movq	-16(%rbp), %rdi
	callq	__Unwind_Resume
Ltmp641:
Lfunc_end73:
	.cfi_endproc
	.section	__TEXT,__gcc_except_tab
	.p2align	2
GCC_except_table73:
Lexception19:
	.byte	255
	.byte	255
	.byte	1
	.uleb128 Lcst_end19-Lcst_begin19
Lcst_begin19:
	.uleb128 Ltmp621-Lfunc_begin73
	.uleb128 Ltmp622-Ltmp621
	.uleb128 Ltmp627-Lfunc_begin73
	.byte	0
	.uleb128 Ltmp628-Lfunc_begin73
	.uleb128 Ltmp629-Ltmp628
	.uleb128 Ltmp630-Lfunc_begin73
	.byte	0
	.uleb128 Ltmp623-Lfunc_begin73
	.uleb128 Ltmp626-Ltmp623
	.uleb128 Ltmp627-Lfunc_begin73
	.byte	0
	.uleb128 Ltmp626-Lfunc_begin73
	.uleb128 Lfunc_end73-Ltmp626
	.byte	0
	.byte	0
Lcst_end19:
	.p2align	2

	.section	__TEXT,__text,regular,pure_instructions
	.globl	__ZN45_$LT$T$u20$as$u20$alloc..string..ToString$GT$9to_string17h8ae67f49b36f862bE
	.p2align	4, 0x90
__ZN45_$LT$T$u20$as$u20$alloc..string..ToString$GT$9to_string17h8ae67f49b36f862bE:
Lfunc_begin74:
	.loc	23 2532 0
	.cfi_startproc
	.cfi_personality 155, _rust_eh_personality
	.cfi_lsda 16, Lexception20
	pushq	%rbp
	.cfi_def_cfa_offset 16
	.cfi_offset %rbp, -16
	movq	%rsp, %rbp
	.cfi_def_cfa_register %rbp
	subq	$144, %rsp
	movq	%rsi, %rax
	movq	%rax, -136(%rbp)
	movq	%rdi, %rsi
	movq	%rsi, -128(%rbp)
Ltmp652:
	movq	%rsi, %rdi
	movq	%rdi, -120(%rbp)
	movq	%rax, -24(%rbp)
Ltmp653:
	.loc	33 425 20 prologue_end
	movq	L___unnamed_25(%rip), %rcx
	movq	L___unnamed_25+8(%rip), %rax
	.loc	33 425 9 is_stmt 0
	movq	%rcx, -48(%rbp)
	movq	%rax, -40(%rbp)
	movq	$0, -32(%rbp)
Ltmp654:
	.loc	23 456 9 is_stmt 1
	movq	-32(%rbp), %rax
	movq	%rax, 16(%rsi)
	movq	-48(%rbp), %rax
	movq	-40(%rbp), %rcx
	movq	%rcx, 8(%rsi)
	movq	%rax, (%rsi)
Ltmp655:
Ltmp642:
	.loc	23 2534 29
	leaq	l___unnamed_3(%rip), %rdx
	leaq	-112(%rbp), %rdi
	callq	__ZN4core3fmt9Formatter3new17h7f05d885df8ba719E
Ltmp656:
Ltmp643:
	jmp	LBB74_3
Ltmp657:
LBB74_1:
Ltmp649:
	.loc	23 0 29 is_stmt 0
	movq	-128(%rbp), %rdi
	.loc	23 2539 5 is_stmt 1
	callq	__ZN4core3ptr42drop_in_place$LT$alloc..string..String$GT$17h61119d261c692d35E
Ltmp650:
	jmp	LBB74_7
LBB74_2:
Ltmp648:
	.loc	23 0 5 is_stmt 0
	movq	%rax, %rcx
	movl	%edx, %eax
	movq	%rcx, -16(%rbp)
	movl	%eax, -8(%rbp)
	jmp	LBB74_1
LBB74_3:
Ltmp658:
Ltmp644:
	movq	-136(%rbp), %rdi
	leaq	-112(%rbp), %rsi
Ltmp659:
	.loc	23 2536 9 is_stmt 1
	callq	__ZN4core3fmt3num3imp52_$LT$impl$u20$core..fmt..Display$u20$for$u20$i64$GT$3fmt17h02bd744edfb73c37E
Ltmp645:
	movb	%al, -137(%rbp)
	jmp	LBB74_4
Ltmp660:
LBB74_4:
Ltmp646:
	.loc	23 0 9 is_stmt 0
	movb	-137(%rbp), %al
	.loc	23 2536 9
	movzbl	%al, %edi
	andl	$1, %edi
	leaq	l___unnamed_26(%rip), %rsi
	leaq	l___unnamed_27(%rip), %rcx
	movl	$55, %edx
	callq	__ZN4core6result19Result$LT$T$C$E$GT$6expect17hfd8b16fe4ff89dc0E
Ltmp647:
	jmp	LBB74_5
Ltmp661:
LBB74_5:
	.loc	23 0 9
	movq	-120(%rbp), %rax
	.loc	23 2539 6 is_stmt 1
	addq	$144, %rsp
	popq	%rbp
	retq
LBB74_6:
Ltmp651:
	.loc	23 2532 5
	callq	__ZN4core9panicking19panic_cannot_unwind17h1fbca7e1d7f56ae1E
LBB74_7:
	movq	-16(%rbp), %rdi
	callq	__Unwind_Resume
Ltmp662:
Lfunc_end74:
	.cfi_endproc
	.section	__TEXT,__gcc_except_tab
	.p2align	2
GCC_except_table74:
Lexception20:
	.byte	255
	.byte	255
	.byte	1
	.uleb128 Lcst_end20-Lcst_begin20
Lcst_begin20:
	.uleb128 Ltmp642-Lfunc_begin74
	.uleb128 Ltmp643-Ltmp642
	.uleb128 Ltmp648-Lfunc_begin74
	.byte	0
	.uleb128 Ltmp649-Lfunc_begin74
	.uleb128 Ltmp650-Ltmp649
	.uleb128 Ltmp651-Lfunc_begin74
	.byte	0
	.uleb128 Ltmp644-Lfunc_begin74
	.uleb128 Ltmp647-Ltmp644
	.uleb128 Ltmp648-Lfunc_begin74
	.byte	0
	.uleb128 Ltmp647-Lfunc_begin74
	.uleb128 Lfunc_end74-Ltmp647
	.byte	0
	.byte	0
Lcst_end20:
	.p2align	2

	.section	__TEXT,__text,regular,pure_instructions
	.globl	__ZN45_$LT$T$u20$as$u20$alloc..string..ToString$GT$9to_string17ha217d4526922fce7E
	.p2align	4, 0x90
__ZN45_$LT$T$u20$as$u20$alloc..string..ToString$GT$9to_string17ha217d4526922fce7E:
Lfunc_begin75:
	.loc	23 2532 0
	.cfi_startproc
	.cfi_personality 155, _rust_eh_personality
	.cfi_lsda 16, Lexception21
	pushq	%rbp
	.cfi_def_cfa_offset 16
	.cfi_offset %rbp, -16
	movq	%rsp, %rbp
	.cfi_def_cfa_register %rbp
	subq	$144, %rsp
	movq	%rsi, %rax
	movq	%rax, -136(%rbp)
	movq	%rdi, %rsi
	movq	%rsi, -128(%rbp)
Ltmp673:
	movq	%rsi, %rdi
	movq	%rdi, -120(%rbp)
	movq	%rax, -24(%rbp)
Ltmp674:
	.loc	33 425 20 prologue_end
	movq	L___unnamed_25(%rip), %rcx
	movq	L___unnamed_25+8(%rip), %rax
	.loc	33 425 9 is_stmt 0
	movq	%rcx, -48(%rbp)
	movq	%rax, -40(%rbp)
	movq	$0, -32(%rbp)
Ltmp675:
	.loc	23 456 9 is_stmt 1
	movq	-32(%rbp), %rax
	movq	%rax, 16(%rsi)
	movq	-48(%rbp), %rax
	movq	-40(%rbp), %rcx
	movq	%rcx, 8(%rsi)
	movq	%rax, (%rsi)
Ltmp676:
Ltmp663:
	.loc	23 2534 29
	leaq	l___unnamed_3(%rip), %rdx
	leaq	-112(%rbp), %rdi
	callq	__ZN4core3fmt9Formatter3new17h7f05d885df8ba719E
Ltmp677:
Ltmp664:
	jmp	LBB75_3
Ltmp678:
LBB75_1:
Ltmp670:
	.loc	23 0 29 is_stmt 0
	movq	-128(%rbp), %rdi
	.loc	23 2539 5 is_stmt 1
	callq	__ZN4core3ptr42drop_in_place$LT$alloc..string..String$GT$17h61119d261c692d35E
Ltmp671:
	jmp	LBB75_7
LBB75_2:
Ltmp669:
	.loc	23 0 5 is_stmt 0
	movq	%rax, %rcx
	movl	%edx, %eax
	movq	%rcx, -16(%rbp)
	movl	%eax, -8(%rbp)
	jmp	LBB75_1
LBB75_3:
Ltmp679:
Ltmp665:
	movq	-136(%rbp), %rdi
	leaq	-112(%rbp), %rsi
Ltmp680:
	.loc	23 2536 9 is_stmt 1
	callq	__ZN4core3fmt5float52_$LT$impl$u20$core..fmt..Display$u20$for$u20$f64$GT$3fmt17hf5b5b3a71761a451E
Ltmp666:
	movb	%al, -137(%rbp)
	jmp	LBB75_4
Ltmp681:
LBB75_4:
Ltmp667:
	.loc	23 0 9 is_stmt 0
	movb	-137(%rbp), %al
	.loc	23 2536 9
	movzbl	%al, %edi
	andl	$1, %edi
	leaq	l___unnamed_26(%rip), %rsi
	leaq	l___unnamed_27(%rip), %rcx
	movl	$55, %edx
	callq	__ZN4core6result19Result$LT$T$C$E$GT$6expect17hfd8b16fe4ff89dc0E
Ltmp668:
	jmp	LBB75_5
Ltmp682:
LBB75_5:
	.loc	23 0 9
	movq	-120(%rbp), %rax
	.loc	23 2539 6 is_stmt 1
	addq	$144, %rsp
	popq	%rbp
	retq
LBB75_6:
Ltmp672:
	.loc	23 2532 5
	callq	__ZN4core9panicking19panic_cannot_unwind17h1fbca7e1d7f56ae1E
LBB75_7:
	movq	-16(%rbp), %rdi
	callq	__Unwind_Resume
Ltmp683:
Lfunc_end75:
	.cfi_endproc
	.section	__TEXT,__gcc_except_tab
	.p2align	2
GCC_except_table75:
Lexception21:
	.byte	255
	.byte	255
	.byte	1
	.uleb128 Lcst_end21-Lcst_begin21
Lcst_begin21:
	.uleb128 Ltmp663-Lfunc_begin75
	.uleb128 Ltmp664-Ltmp663
	.uleb128 Ltmp669-Lfunc_begin75
	.byte	0
	.uleb128 Ltmp670-Lfunc_begin75
	.uleb128 Ltmp671-Ltmp670
	.uleb128 Ltmp672-Lfunc_begin75
	.byte	0
	.uleb128 Ltmp665-Lfunc_begin75
	.uleb128 Ltmp668-Ltmp665
	.uleb128 Ltmp669-Lfunc_begin75
	.byte	0
	.uleb128 Ltmp668-Lfunc_begin75
	.uleb128 Lfunc_end75-Ltmp668
	.byte	0
	.byte	0
Lcst_end21:
	.p2align	2

	.section	__TEXT,__text,regular,pure_instructions
	.globl	__ZN45_$LT$T$u20$as$u20$alloc..string..ToString$GT$9to_string17hbb0fa936dea103b2E
	.p2align	4, 0x90
__ZN45_$LT$T$u20$as$u20$alloc..string..ToString$GT$9to_string17hbb0fa936dea103b2E:
Lfunc_begin76:
	.loc	23 2532 0
	.cfi_startproc
	.cfi_personality 155, _rust_eh_personality
	.cfi_lsda 16, Lexception22
	pushq	%rbp
	.cfi_def_cfa_offset 16
	.cfi_offset %rbp, -16
	movq	%rsp, %rbp
	.cfi_def_cfa_register %rbp
	subq	$144, %rsp
	movq	%rsi, %rax
	movq	%rax, -136(%rbp)
	movq	%rdi, %rsi
	movq	%rsi, -128(%rbp)
Ltmp694:
	movq	%rsi, %rdi
	movq	%rdi, -120(%rbp)
	movq	%rax, -24(%rbp)
Ltmp695:
	.loc	33 425 20 prologue_end
	movq	L___unnamed_25(%rip), %rcx
	movq	L___unnamed_25+8(%rip), %rax
	.loc	33 425 9 is_stmt 0
	movq	%rcx, -48(%rbp)
	movq	%rax, -40(%rbp)
	movq	$0, -32(%rbp)
Ltmp696:
	.loc	23 456 9 is_stmt 1
	movq	-32(%rbp), %rax
	movq	%rax, 16(%rsi)
	movq	-48(%rbp), %rax
	movq	-40(%rbp), %rcx
	movq	%rcx, 8(%rsi)
	movq	%rax, (%rsi)
Ltmp697:
Ltmp684:
	.loc	23 2534 29
	leaq	l___unnamed_3(%rip), %rdx
	leaq	-112(%rbp), %rdi
	callq	__ZN4core3fmt9Formatter3new17h7f05d885df8ba719E
Ltmp698:
Ltmp685:
	jmp	LBB76_3
Ltmp699:
LBB76_1:
Ltmp691:
	.loc	23 0 29 is_stmt 0
	movq	-128(%rbp), %rdi
	.loc	23 2539 5 is_stmt 1
	callq	__ZN4core3ptr42drop_in_place$LT$alloc..string..String$GT$17h61119d261c692d35E
Ltmp692:
	jmp	LBB76_7
LBB76_2:
Ltmp690:
	.loc	23 0 5 is_stmt 0
	movq	%rax, %rcx
	movl	%edx, %eax
	movq	%rcx, -16(%rbp)
	movl	%eax, -8(%rbp)
	jmp	LBB76_1
LBB76_3:
Ltmp700:
Ltmp686:
	movq	-136(%rbp), %rdi
	leaq	-112(%rbp), %rsi
Ltmp701:
	.loc	23 2536 9 is_stmt 1
	callq	__ZN4core3fmt3num3imp52_$LT$impl$u20$core..fmt..Display$u20$for$u20$u16$GT$3fmt17h7d8f7431eaeff3c6E
Ltmp687:
	movb	%al, -137(%rbp)
	jmp	LBB76_4
Ltmp702:
LBB76_4:
Ltmp688:
	.loc	23 0 9 is_stmt 0
	movb	-137(%rbp), %al
	.loc	23 2536 9
	movzbl	%al, %edi
	andl	$1, %edi
	leaq	l___unnamed_26(%rip), %rsi
	leaq	l___unnamed_27(%rip), %rcx
	movl	$55, %edx
	callq	__ZN4core6result19Result$LT$T$C$E$GT$6expect17hfd8b16fe4ff89dc0E
Ltmp689:
	jmp	LBB76_5
Ltmp703:
LBB76_5:
	.loc	23 0 9
	movq	-120(%rbp), %rax
	.loc	23 2539 6 is_stmt 1
	addq	$144, %rsp
	popq	%rbp
	retq
LBB76_6:
Ltmp693:
	.loc	23 2532 5
	callq	__ZN4core9panicking19panic_cannot_unwind17h1fbca7e1d7f56ae1E
LBB76_7:
	movq	-16(%rbp), %rdi
	callq	__Unwind_Resume
Ltmp704:
Lfunc_end76:
	.cfi_endproc
	.section	__TEXT,__gcc_except_tab
	.p2align	2
GCC_except_table76:
Lexception22:
	.byte	255
	.byte	255
	.byte	1
	.uleb128 Lcst_end22-Lcst_begin22
Lcst_begin22:
	.uleb128 Ltmp684-Lfunc_begin76
	.uleb128 Ltmp685-Ltmp684
	.uleb128 Ltmp690-Lfunc_begin76
	.byte	0
	.uleb128 Ltmp691-Lfunc_begin76
	.uleb128 Ltmp692-Ltmp691
	.uleb128 Ltmp693-Lfunc_begin76
	.byte	0
	.uleb128 Ltmp686-Lfunc_begin76
	.uleb128 Ltmp689-Ltmp686
	.uleb128 Ltmp690-Lfunc_begin76
	.byte	0
	.uleb128 Ltmp689-Lfunc_begin76
	.uleb128 Lfunc_end76-Ltmp689
	.byte	0
	.byte	0
Lcst_end22:
	.p2align	2

	.section	__TEXT,__text,regular,pure_instructions
	.globl	__ZN45_$LT$T$u20$as$u20$alloc..string..ToString$GT$9to_string17hbd18bf93c72f6df5E
	.p2align	4, 0x90
__ZN45_$LT$T$u20$as$u20$alloc..string..ToString$GT$9to_string17hbd18bf93c72f6df5E:
Lfunc_begin77:
	.loc	23 2532 0
	.cfi_startproc
	.cfi_personality 155, _rust_eh_personality
	.cfi_lsda 16, Lexception23
	pushq	%rbp
	.cfi_def_cfa_offset 16
	.cfi_offset %rbp, -16
	movq	%rsp, %rbp
	.cfi_def_cfa_register %rbp
	subq	$144, %rsp
	movq	%rsi, %rax
	movq	%rax, -136(%rbp)
	movq	%rdi, %rsi
	movq	%rsi, -128(%rbp)
Ltmp715:
	movq	%rsi, %rdi
	movq	%rdi, -120(%rbp)
	movq	%rax, -24(%rbp)
Ltmp716:
	.loc	33 425 20 prologue_end
	movq	L___unnamed_25(%rip), %rcx
	movq	L___unnamed_25+8(%rip), %rax
	.loc	33 425 9 is_stmt 0
	movq	%rcx, -48(%rbp)
	movq	%rax, -40(%rbp)
	movq	$0, -32(%rbp)
Ltmp717:
	.loc	23 456 9 is_stmt 1
	movq	-32(%rbp), %rax
	movq	%rax, 16(%rsi)
	movq	-48(%rbp), %rax
	movq	-40(%rbp), %rcx
	movq	%rcx, 8(%rsi)
	movq	%rax, (%rsi)
Ltmp718:
Ltmp705:
	.loc	23 2534 29
	leaq	l___unnamed_3(%rip), %rdx
	leaq	-112(%rbp), %rdi
	callq	__ZN4core3fmt9Formatter3new17h7f05d885df8ba719E
Ltmp719:
Ltmp706:
	jmp	LBB77_3
Ltmp720:
LBB77_1:
Ltmp712:
	.loc	23 0 29 is_stmt 0
	movq	-128(%rbp), %rdi
	.loc	23 2539 5 is_stmt 1
	callq	__ZN4core3ptr42drop_in_place$LT$alloc..string..String$GT$17h61119d261c692d35E
Ltmp713:
	jmp	LBB77_7
LBB77_2:
Ltmp711:
	.loc	23 0 5 is_stmt 0
	movq	%rax, %rcx
	movl	%edx, %eax
	movq	%rcx, -16(%rbp)
	movl	%eax, -8(%rbp)
	jmp	LBB77_1
LBB77_3:
Ltmp721:
Ltmp707:
	movq	-136(%rbp), %rdi
	leaq	-112(%rbp), %rsi
Ltmp722:
	.loc	23 2536 9 is_stmt 1
	callq	__ZN4core3fmt3num3imp54_$LT$impl$u20$core..fmt..Display$u20$for$u20$isize$GT$3fmt17h52f1ff2aaed0cbadE
Ltmp708:
	movb	%al, -137(%rbp)
	jmp	LBB77_4
Ltmp723:
LBB77_4:
Ltmp709:
	.loc	23 0 9 is_stmt 0
	movb	-137(%rbp), %al
	.loc	23 2536 9
	movzbl	%al, %edi
	andl	$1, %edi
	leaq	l___unnamed_26(%rip), %rsi
	leaq	l___unnamed_27(%rip), %rcx
	movl	$55, %edx
	callq	__ZN4core6result19Result$LT$T$C$E$GT$6expect17hfd8b16fe4ff89dc0E
Ltmp710:
	jmp	LBB77_5
Ltmp724:
LBB77_5:
	.loc	23 0 9
	movq	-120(%rbp), %rax
	.loc	23 2539 6 is_stmt 1
	addq	$144, %rsp
	popq	%rbp
	retq
LBB77_6:
Ltmp714:
	.loc	23 2532 5
	callq	__ZN4core9panicking19panic_cannot_unwind17h1fbca7e1d7f56ae1E
LBB77_7:
	movq	-16(%rbp), %rdi
	callq	__Unwind_Resume
Ltmp725:
Lfunc_end77:
	.cfi_endproc
	.section	__TEXT,__gcc_except_tab
	.p2align	2
GCC_except_table77:
Lexception23:
	.byte	255
	.byte	255
	.byte	1
	.uleb128 Lcst_end23-Lcst_begin23
Lcst_begin23:
	.uleb128 Ltmp705-Lfunc_begin77
	.uleb128 Ltmp706-Ltmp705
	.uleb128 Ltmp711-Lfunc_begin77
	.byte	0
	.uleb128 Ltmp712-Lfunc_begin77
	.uleb128 Ltmp713-Ltmp712
	.uleb128 Ltmp714-Lfunc_begin77
	.byte	0
	.uleb128 Ltmp707-Lfunc_begin77
	.uleb128 Ltmp710-Ltmp707
	.uleb128 Ltmp711-Lfunc_begin77
	.byte	0
	.uleb128 Ltmp710-Lfunc_begin77
	.uleb128 Lfunc_end77-Ltmp710
	.byte	0
	.byte	0
Lcst_end23:
	.p2align	2

	.section	__TEXT,__text,regular,pure_instructions
	.globl	__ZN45_$LT$T$u20$as$u20$alloc..string..ToString$GT$9to_string17hc59d2d990de190e3E
	.p2align	4, 0x90
__ZN45_$LT$T$u20$as$u20$alloc..string..ToString$GT$9to_string17hc59d2d990de190e3E:
Lfunc_begin78:
	.loc	23 2532 0
	.cfi_startproc
	.cfi_personality 155, _rust_eh_personality
	.cfi_lsda 16, Lexception24
	pushq	%rbp
	.cfi_def_cfa_offset 16
	.cfi_offset %rbp, -16
	movq	%rsp, %rbp
	.cfi_def_cfa_register %rbp
	subq	$144, %rsp
	movq	%rsi, %rax
	movq	%rax, -136(%rbp)
	movq	%rdi, %rsi
	movq	%rsi, -128(%rbp)
Ltmp736:
	movq	%rsi, %rdi
	movq	%rdi, -120(%rbp)
	movq	%rax, -24(%rbp)
Ltmp737:
	.loc	33 425 20 prologue_end
	movq	L___unnamed_25(%rip), %rcx
	movq	L___unnamed_25+8(%rip), %rax
	.loc	33 425 9 is_stmt 0
	movq	%rcx, -48(%rbp)
	movq	%rax, -40(%rbp)
	movq	$0, -32(%rbp)
Ltmp738:
	.loc	23 456 9 is_stmt 1
	movq	-32(%rbp), %rax
	movq	%rax, 16(%rsi)
	movq	-48(%rbp), %rax
	movq	-40(%rbp), %rcx
	movq	%rcx, 8(%rsi)
	movq	%rax, (%rsi)
Ltmp739:
Ltmp726:
	.loc	23 2534 29
	leaq	l___unnamed_3(%rip), %rdx
	leaq	-112(%rbp), %rdi
	callq	__ZN4core3fmt9Formatter3new17h7f05d885df8ba719E
Ltmp740:
Ltmp727:
	jmp	LBB78_3
Ltmp741:
LBB78_1:
Ltmp733:
	.loc	23 0 29 is_stmt 0
	movq	-128(%rbp), %rdi
	.loc	23 2539 5 is_stmt 1
	callq	__ZN4core3ptr42drop_in_place$LT$alloc..string..String$GT$17h61119d261c692d35E
Ltmp734:
	jmp	LBB78_7
LBB78_2:
Ltmp732:
	.loc	23 0 5 is_stmt 0
	movq	%rax, %rcx
	movl	%edx, %eax
	movq	%rcx, -16(%rbp)
	movl	%eax, -8(%rbp)
	jmp	LBB78_1
LBB78_3:
Ltmp742:
Ltmp728:
	movq	-136(%rbp), %rdi
	leaq	-112(%rbp), %rsi
Ltmp743:
	.loc	23 2536 9 is_stmt 1
	callq	__ZN4core3fmt3num3imp52_$LT$impl$u20$core..fmt..Display$u20$for$u20$i16$GT$3fmt17h05eba0a46e9c38a2E
Ltmp729:
	movb	%al, -137(%rbp)
	jmp	LBB78_4
Ltmp744:
LBB78_4:
Ltmp730:
	.loc	23 0 9 is_stmt 0
	movb	-137(%rbp), %al
	.loc	23 2536 9
	movzbl	%al, %edi
	andl	$1, %edi
	leaq	l___unnamed_26(%rip), %rsi
	leaq	l___unnamed_27(%rip), %rcx
	movl	$55, %edx
	callq	__ZN4core6result19Result$LT$T$C$E$GT$6expect17hfd8b16fe4ff89dc0E
Ltmp731:
	jmp	LBB78_5
Ltmp745:
LBB78_5:
	.loc	23 0 9
	movq	-120(%rbp), %rax
	.loc	23 2539 6 is_stmt 1
	addq	$144, %rsp
	popq	%rbp
	retq
LBB78_6:
Ltmp735:
	.loc	23 2532 5
	callq	__ZN4core9panicking19panic_cannot_unwind17h1fbca7e1d7f56ae1E
LBB78_7:
	movq	-16(%rbp), %rdi
	callq	__Unwind_Resume
Ltmp746:
Lfunc_end78:
	.cfi_endproc
	.section	__TEXT,__gcc_except_tab
	.p2align	2
GCC_except_table78:
Lexception24:
	.byte	255
	.byte	255
	.byte	1
	.uleb128 Lcst_end24-Lcst_begin24
Lcst_begin24:
	.uleb128 Ltmp726-Lfunc_begin78
	.uleb128 Ltmp727-Ltmp726
	.uleb128 Ltmp732-Lfunc_begin78
	.byte	0
	.uleb128 Ltmp733-Lfunc_begin78
	.uleb128 Ltmp734-Ltmp733
	.uleb128 Ltmp735-Lfunc_begin78
	.byte	0
	.uleb128 Ltmp728-Lfunc_begin78
	.uleb128 Ltmp731-Ltmp728
	.uleb128 Ltmp732-Lfunc_begin78
	.byte	0
	.uleb128 Ltmp731-Lfunc_begin78
	.uleb128 Lfunc_end78-Ltmp731
	.byte	0
	.byte	0
Lcst_end24:
	.p2align	2

	.section	__TEXT,__text,regular,pure_instructions
	.globl	__ZN45_$LT$T$u20$as$u20$alloc..string..ToString$GT$9to_string17hc79350781f11fe50E
	.p2align	4, 0x90
__ZN45_$LT$T$u20$as$u20$alloc..string..ToString$GT$9to_string17hc79350781f11fe50E:
Lfunc_begin79:
	.loc	23 2532 0
	.cfi_startproc
	.cfi_personality 155, _rust_eh_personality
	.cfi_lsda 16, Lexception25
	pushq	%rbp
	.cfi_def_cfa_offset 16
	.cfi_offset %rbp, -16
	movq	%rsp, %rbp
	.cfi_def_cfa_register %rbp
	subq	$144, %rsp
	movq	%rsi, %rax
	movq	%rax, -136(%rbp)
	movq	%rdi, %rsi
	movq	%rsi, -128(%rbp)
Ltmp757:
	movq	%rsi, %rdi
	movq	%rdi, -120(%rbp)
	movq	%rax, -24(%rbp)
Ltmp758:
	.loc	33 425 20 prologue_end
	movq	L___unnamed_25(%rip), %rcx
	movq	L___unnamed_25+8(%rip), %rax
	.loc	33 425 9 is_stmt 0
	movq	%rcx, -48(%rbp)
	movq	%rax, -40(%rbp)
	movq	$0, -32(%rbp)
Ltmp759:
	.loc	23 456 9 is_stmt 1
	movq	-32(%rbp), %rax
	movq	%rax, 16(%rsi)
	movq	-48(%rbp), %rax
	movq	-40(%rbp), %rcx
	movq	%rcx, 8(%rsi)
	movq	%rax, (%rsi)
Ltmp760:
Ltmp747:
	.loc	23 2534 29
	leaq	l___unnamed_3(%rip), %rdx
	leaq	-112(%rbp), %rdi
	callq	__ZN4core3fmt9Formatter3new17h7f05d885df8ba719E
Ltmp761:
Ltmp748:
	jmp	LBB79_3
Ltmp762:
LBB79_1:
Ltmp754:
	.loc	23 0 29 is_stmt 0
	movq	-128(%rbp), %rdi
	.loc	23 2539 5 is_stmt 1
	callq	__ZN4core3ptr42drop_in_place$LT$alloc..string..String$GT$17h61119d261c692d35E
Ltmp755:
	jmp	LBB79_7
LBB79_2:
Ltmp753:
	.loc	23 0 5 is_stmt 0
	movq	%rax, %rcx
	movl	%edx, %eax
	movq	%rcx, -16(%rbp)
	movl	%eax, -8(%rbp)
	jmp	LBB79_1
LBB79_3:
Ltmp763:
Ltmp749:
	movq	-136(%rbp), %rdi
	leaq	-112(%rbp), %rsi
Ltmp764:
	.loc	23 2536 9 is_stmt 1
	callq	__ZN4core3fmt3num53_$LT$impl$u20$core..fmt..Display$u20$for$u20$u128$GT$3fmt17h98260811f598099bE
Ltmp750:
	movb	%al, -137(%rbp)
	jmp	LBB79_4
Ltmp765:
LBB79_4:
Ltmp751:
	.loc	23 0 9 is_stmt 0
	movb	-137(%rbp), %al
	.loc	23 2536 9
	movzbl	%al, %edi
	andl	$1, %edi
	leaq	l___unnamed_26(%rip), %rsi
	leaq	l___unnamed_27(%rip), %rcx
	movl	$55, %edx
	callq	__ZN4core6result19Result$LT$T$C$E$GT$6expect17hfd8b16fe4ff89dc0E
Ltmp752:
	jmp	LBB79_5
Ltmp766:
LBB79_5:
	.loc	23 0 9
	movq	-120(%rbp), %rax
	.loc	23 2539 6 is_stmt 1
	addq	$144, %rsp
	popq	%rbp
	retq
LBB79_6:
Ltmp756:
	.loc	23 2532 5
	callq	__ZN4core9panicking19panic_cannot_unwind17h1fbca7e1d7f56ae1E
LBB79_7:
	movq	-16(%rbp), %rdi
	callq	__Unwind_Resume
Ltmp767:
Lfunc_end79:
	.cfi_endproc
	.section	__TEXT,__gcc_except_tab
	.p2align	2
GCC_except_table79:
Lexception25:
	.byte	255
	.byte	255
	.byte	1
	.uleb128 Lcst_end25-Lcst_begin25
Lcst_begin25:
	.uleb128 Ltmp747-Lfunc_begin79
	.uleb128 Ltmp748-Ltmp747
	.uleb128 Ltmp753-Lfunc_begin79
	.byte	0
	.uleb128 Ltmp754-Lfunc_begin79
	.uleb128 Ltmp755-Ltmp754
	.uleb128 Ltmp756-Lfunc_begin79
	.byte	0
	.uleb128 Ltmp749-Lfunc_begin79
	.uleb128 Ltmp752-Ltmp749
	.uleb128 Ltmp753-Lfunc_begin79
	.byte	0
	.uleb128 Ltmp752-Lfunc_begin79
	.uleb128 Lfunc_end79-Ltmp752
	.byte	0
	.byte	0
Lcst_end25:
	.p2align	2

	.section	__TEXT,__text,regular,pure_instructions
	.globl	__ZN45_$LT$T$u20$as$u20$alloc..string..ToString$GT$9to_string17hd394b87dff7d6035E
	.p2align	4, 0x90
__ZN45_$LT$T$u20$as$u20$alloc..string..ToString$GT$9to_string17hd394b87dff7d6035E:
Lfunc_begin80:
	.loc	23 2532 0
	.cfi_startproc
	.cfi_personality 155, _rust_eh_personality
	.cfi_lsda 16, Lexception26
	pushq	%rbp
	.cfi_def_cfa_offset 16
	.cfi_offset %rbp, -16
	movq	%rsp, %rbp
	.cfi_def_cfa_register %rbp
	subq	$144, %rsp
	movq	%rsi, %rax
	movq	%rax, -136(%rbp)
	movq	%rdi, %rsi
	movq	%rsi, -128(%rbp)
Ltmp778:
	movq	%rsi, %rdi
	movq	%rdi, -120(%rbp)
	movq	%rax, -24(%rbp)
Ltmp779:
	.loc	33 425 20 prologue_end
	movq	L___unnamed_25(%rip), %rcx
	movq	L___unnamed_25+8(%rip), %rax
	.loc	33 425 9 is_stmt 0
	movq	%rcx, -48(%rbp)
	movq	%rax, -40(%rbp)
	movq	$0, -32(%rbp)
Ltmp780:
	.loc	23 456 9 is_stmt 1
	movq	-32(%rbp), %rax
	movq	%rax, 16(%rsi)
	movq	-48(%rbp), %rax
	movq	-40(%rbp), %rcx
	movq	%rcx, 8(%rsi)
	movq	%rax, (%rsi)
Ltmp781:
Ltmp768:
	.loc	23 2534 29
	leaq	l___unnamed_3(%rip), %rdx
	leaq	-112(%rbp), %rdi
	callq	__ZN4core3fmt9Formatter3new17h7f05d885df8ba719E
Ltmp782:
Ltmp769:
	jmp	LBB80_3
Ltmp783:
LBB80_1:
Ltmp775:
	.loc	23 0 29 is_stmt 0
	movq	-128(%rbp), %rdi
	.loc	23 2539 5 is_stmt 1
	callq	__ZN4core3ptr42drop_in_place$LT$alloc..string..String$GT$17h61119d261c692d35E
Ltmp776:
	jmp	LBB80_7
LBB80_2:
Ltmp774:
	.loc	23 0 5 is_stmt 0
	movq	%rax, %rcx
	movl	%edx, %eax
	movq	%rcx, -16(%rbp)
	movl	%eax, -8(%rbp)
	jmp	LBB80_1
LBB80_3:
Ltmp784:
Ltmp770:
	movq	-136(%rbp), %rdi
	leaq	-112(%rbp), %rsi
Ltmp785:
	.loc	23 2536 9 is_stmt 1
	callq	__ZN4core3fmt3num3imp52_$LT$impl$u20$core..fmt..Display$u20$for$u20$u32$GT$3fmt17h081c917b2ee7d4e9E
Ltmp771:
	movb	%al, -137(%rbp)
	jmp	LBB80_4
Ltmp786:
LBB80_4:
Ltmp772:
	.loc	23 0 9 is_stmt 0
	movb	-137(%rbp), %al
	.loc	23 2536 9
	movzbl	%al, %edi
	andl	$1, %edi
	leaq	l___unnamed_26(%rip), %rsi
	leaq	l___unnamed_27(%rip), %rcx
	movl	$55, %edx
	callq	__ZN4core6result19Result$LT$T$C$E$GT$6expect17hfd8b16fe4ff89dc0E
Ltmp773:
	jmp	LBB80_5
Ltmp787:
LBB80_5:
	.loc	23 0 9
	movq	-120(%rbp), %rax
	.loc	23 2539 6 is_stmt 1
	addq	$144, %rsp
	popq	%rbp
	retq
LBB80_6:
Ltmp777:
	.loc	23 2532 5
	callq	__ZN4core9panicking19panic_cannot_unwind17h1fbca7e1d7f56ae1E
LBB80_7:
	movq	-16(%rbp), %rdi
	callq	__Unwind_Resume
Ltmp788:
Lfunc_end80:
	.cfi_endproc
	.section	__TEXT,__gcc_except_tab
	.p2align	2
GCC_except_table80:
Lexception26:
	.byte	255
	.byte	255
	.byte	1
	.uleb128 Lcst_end26-Lcst_begin26
Lcst_begin26:
	.uleb128 Ltmp768-Lfunc_begin80
	.uleb128 Ltmp769-Ltmp768
	.uleb128 Ltmp774-Lfunc_begin80
	.byte	0
	.uleb128 Ltmp775-Lfunc_begin80
	.uleb128 Ltmp776-Ltmp775
	.uleb128 Ltmp777-Lfunc_begin80
	.byte	0
	.uleb128 Ltmp770-Lfunc_begin80
	.uleb128 Ltmp773-Ltmp770
	.uleb128 Ltmp774-Lfunc_begin80
	.byte	0
	.uleb128 Ltmp773-Lfunc_begin80
	.uleb128 Lfunc_end80-Ltmp773
	.byte	0
	.byte	0
Lcst_end26:
	.p2align	2

	.section	__TEXT,__text,regular,pure_instructions
	.p2align	4, 0x90
__ZN46_$LT$i8$u20$as$u20$alloc..string..ToString$GT$9to_string17h5911c0c065224902E:
Lfunc_begin81:
	.loc	23 2584 0
	.cfi_startproc
	.cfi_personality 155, _rust_eh_personality
	.cfi_lsda 16, Lexception27
	pushq	%rbp
	.cfi_def_cfa_offset 16
	.cfi_offset %rbp, -16
	movq	%rsp, %rbp
	.cfi_def_cfa_register %rbp
	subq	$128, %rsp
	movq	%rsi, -96(%rbp)
	movq	%rdi, -104(%rbp)
	movq	%rdi, -112(%rbp)
Ltmp801:
	movq	%rsi, -48(%rbp)
Ltmp802:
	.loc	36 131 37 prologue_end
	movb	$0, -50(%rbp)
	.loc	36 131 9 is_stmt 0
	movb	-50(%rbp), %al
	movl	$4, %edi
	andb	$1, %al
	movzbl	%al, %esi
	callq	__ZN5alloc7raw_vec19RawVec$LT$T$C$A$GT$11allocate_in17h0f2ad67c6359994cE
	movq	-104(%rbp), %rdi
	movq	-96(%rbp), %rsi
Ltmp803:
	.loc	33 676 9 is_stmt 1
	movq	%rax, -80(%rbp)
	movq	%rdx, -72(%rbp)
	movq	$0, -64(%rbp)
Ltmp804:
	.loc	23 501 9
	movq	-80(%rbp), %rax
	movq	%rax, (%rdi)
	movq	-72(%rbp), %rax
	movq	%rax, 8(%rdi)
	movq	-64(%rbp), %rax
	movq	%rax, 16(%rdi)
Ltmp805:
	.loc	23 2586 12
	movb	(%rsi), %al
	movb	%al, -25(%rbp)
Ltmp806:
	.file	48 "/rustc/2c8cc343237b8f7d5a3c3703e3a87f2eb2c54a74/library/core/src/num" "int_macros.rs"
	.loc	48 2617 50
	cmpb	$0, %al
Ltmp807:
	.loc	23 2586 12
	jl	LBB81_2
Ltmp808:
LBB81_1:
	.loc	23 0 12 is_stmt 0
	movq	-96(%rbp), %rax
	.loc	23 2589 21 is_stmt 1
	movb	(%rax), %al
	movb	%al, -113(%rbp)
	movb	%al, -5(%rbp)
Ltmp809:
	.loc	48 1452 14
	movb	%al, -4(%rbp)
Ltmp810:
	.loc	48 1426 17
	movb	%al, -3(%rbp)
Ltmp811:
	.loc	48 2617 50
	cmpb	$0, %al
Ltmp812:
	.loc	48 1426 17
	jl	LBB81_7
	jmp	LBB81_6
Ltmp813:
LBB81_2:
Ltmp789:
	.loc	48 0 17 is_stmt 0
	movq	-104(%rbp), %rdi
	movl	$45, %esi
	.loc	23 2587 13 is_stmt 1
	callq	__ZN5alloc6string6String4push17hae2db1b8b84d9f42E
Ltmp790:
	jmp	LBB81_5
Ltmp814:
LBB81_3:
Ltmp798:
	.loc	23 0 13 is_stmt 0
	movq	-104(%rbp), %rdi
	.loc	23 2600 5 is_stmt 1
	callq	__ZN4core3ptr42drop_in_place$LT$alloc..string..String$GT$17h61119d261c692d35E
Ltmp799:
	jmp	LBB81_17
LBB81_4:
Ltmp797:
	.loc	23 0 5 is_stmt 0
	movq	%rax, %rcx
	movl	%edx, %eax
	movq	%rcx, -24(%rbp)
	movl	%eax, -16(%rbp)
	jmp	LBB81_3
LBB81_5:
Ltmp815:
	.loc	23 2586 9 is_stmt 1
	jmp	LBB81_1
Ltmp816:
LBB81_6:
	.loc	23 0 9 is_stmt 0
	movb	-113(%rbp), %al
Ltmp817:
	.loc	48 1429 18 is_stmt 1
	movb	%al, -49(%rbp)
	.loc	48 1426 14
	jmp	LBB81_8
Ltmp818:
LBB81_7:
	.loc	48 0 14 is_stmt 0
	movb	-113(%rbp), %cl
	.loc	48 1427 18 is_stmt 1
	movb	%cl, -2(%rbp)
Ltmp819:
	.loc	48 1339 40
	movb	%cl, -1(%rbp)
Ltmp820:
	.loc	48 1164 13
	xorl	%eax, %eax
	subb	%cl, %al
	movb	%al, -49(%rbp)
Ltmp821:
LBB81_8:
	.loc	48 1452 14
	movb	-49(%rbp), %al
	movb	%al, -81(%rbp)
Ltmp822:
	.loc	23 2590 12
	cmpb	$10, -81(%rbp)
	jae	LBB81_10
Ltmp823:
LBB81_9:
	.loc	23 0 12 is_stmt 0
	movq	-104(%rbp), %rdi
	.loc	23 2598 26 is_stmt 1
	movb	-81(%rbp), %al
	.loc	23 2598 18 is_stmt 0
	addb	$48, %al
	movzbl	%al, %esi
Ltmp795:
	.loc	23 2598 9
	callq	__ZN5alloc6string6String4push17hae2db1b8b84d9f42E
Ltmp796:
	jmp	LBB81_15
Ltmp824:
LBB81_10:
	.loc	23 2591 16 is_stmt 1
	cmpb	$100, -81(%rbp)
	jae	LBB81_12
Ltmp825:
LBB81_11:
	.loc	23 0 16 is_stmt 0
	movq	-104(%rbp), %rdi
	.loc	23 2595 30 is_stmt 1
	movzbl	-81(%rbp), %eax
	imull	$205, %eax, %eax
	shrl	$11, %eax
	.loc	23 2595 22 is_stmt 0
	addb	$48, %al
	movzbl	%al, %esi
Ltmp793:
	.loc	23 2595 13
	callq	__ZN5alloc6string6String4push17hae2db1b8b84d9f42E
Ltmp794:
	jmp	LBB81_14
Ltmp826:
LBB81_12:
Ltmp791:
	.loc	23 0 13
	movq	-104(%rbp), %rdi
	movl	$49, %esi
	.loc	23 2592 17 is_stmt 1
	callq	__ZN5alloc6string6String4push17hae2db1b8b84d9f42E
Ltmp792:
	jmp	LBB81_13
Ltmp827:
LBB81_13:
	.loc	23 2593 17
	movb	-81(%rbp), %al
	subb	$100, %al
	movb	%al, -81(%rbp)
	.loc	23 2591 13
	jmp	LBB81_11
Ltmp828:
LBB81_14:
	.loc	23 2596 13
	movb	$10, %cl
	movzbw	-81(%rbp), %ax
	divb	%cl
	shrw	$8, %ax
	movb	%al, -81(%rbp)
	.loc	23 2590 9
	jmp	LBB81_9
Ltmp829:
LBB81_15:
	.loc	23 0 9 is_stmt 0
	movq	-112(%rbp), %rax
	.loc	23 2600 6 is_stmt 1
	addq	$128, %rsp
	popq	%rbp
	retq
LBB81_16:
Ltmp800:
	.loc	23 2584 5
	callq	__ZN4core9panicking19panic_cannot_unwind17h1fbca7e1d7f56ae1E
LBB81_17:
	movq	-24(%rbp), %rdi
	callq	__Unwind_Resume
Ltmp830:
Lfunc_end81:
	.cfi_endproc
	.section	__TEXT,__gcc_except_tab
	.p2align	2
GCC_except_table81:
Lexception27:
	.byte	255
	.byte	255
	.byte	1
	.uleb128 Lcst_end27-Lcst_begin27
Lcst_begin27:
	.uleb128 Lfunc_begin81-Lfunc_begin81
	.uleb128 Ltmp789-Lfunc_begin81
	.byte	0
	.byte	0
	.uleb128 Ltmp789-Lfunc_begin81
	.uleb128 Ltmp790-Ltmp789
	.uleb128 Ltmp797-Lfunc_begin81
	.byte	0
	.uleb128 Ltmp798-Lfunc_begin81
	.uleb128 Ltmp799-Ltmp798
	.uleb128 Ltmp800-Lfunc_begin81
	.byte	0
	.uleb128 Ltmp795-Lfunc_begin81
	.uleb128 Ltmp792-Ltmp795
	.uleb128 Ltmp797-Lfunc_begin81
	.byte	0
	.uleb128 Ltmp792-Lfunc_begin81
	.uleb128 Lfunc_end81-Ltmp792
	.byte	0
	.byte	0
Lcst_end27:
	.p2align	2

	.section	__TEXT,__text,regular,pure_instructions
	.p2align	4, 0x90
__ZN46_$LT$u8$u20$as$u20$alloc..string..ToString$GT$9to_string17h0ae34764177cdb1eE:
Lfunc_begin82:
	.loc	23 2564 0
	.cfi_startproc
	.cfi_personality 155, _rust_eh_personality
	.cfi_lsda 16, Lexception28
	pushq	%rbp
	.cfi_def_cfa_offset 16
	.cfi_offset %rbp, -16
	movq	%rsp, %rbp
	.cfi_def_cfa_register %rbp
	subq	$112, %rsp
	movq	%rsi, -88(%rbp)
	movq	%rdi, -96(%rbp)
	movq	%rdi, -104(%rbp)
Ltmp841:
	movq	%rsi, -40(%rbp)
Ltmp842:
	.loc	36 131 37 prologue_end
	movb	$0, -41(%rbp)
	.loc	36 131 9 is_stmt 0
	movb	-41(%rbp), %al
	movl	$3, %edi
	andb	$1, %al
	movzbl	%al, %esi
	callq	__ZN5alloc7raw_vec19RawVec$LT$T$C$A$GT$11allocate_in17h0f2ad67c6359994cE
	movq	-96(%rbp), %rdi
	movq	-88(%rbp), %rsi
Ltmp843:
	.loc	33 676 9 is_stmt 1
	movq	%rax, -72(%rbp)
	movq	%rdx, -64(%rbp)
	movq	$0, -56(%rbp)
Ltmp844:
	.loc	23 501 9
	movq	-72(%rbp), %rax
	movq	%rax, (%rdi)
	movq	-64(%rbp), %rax
	movq	%rax, 8(%rdi)
	movq	-56(%rbp), %rax
	movq	%rax, 16(%rdi)
Ltmp845:
	.loc	23 2566 21
	movb	(%rsi), %al
	movb	%al, -73(%rbp)
Ltmp846:
	.loc	23 2567 12
	cmpb	$10, -73(%rbp)
	jae	LBB82_2
Ltmp847:
LBB82_1:
	.loc	23 0 12 is_stmt 0
	movq	-96(%rbp), %rdi
	.loc	23 2575 26 is_stmt 1
	movb	-73(%rbp), %al
	.loc	23 2575 18 is_stmt 0
	addb	$48, %al
	movzbl	%al, %esi
Ltmp835:
	.loc	23 2575 9
	callq	__ZN5alloc6string6String4push17hae2db1b8b84d9f42E
Ltmp836:
	jmp	LBB82_9
Ltmp848:
LBB82_2:
	.loc	23 2568 16 is_stmt 1
	cmpb	$100, -73(%rbp)
	jae	LBB82_4
Ltmp849:
LBB82_3:
	.loc	23 0 16 is_stmt 0
	movq	-96(%rbp), %rdi
	.loc	23 2572 30 is_stmt 1
	movzbl	-73(%rbp), %eax
	imull	$205, %eax, %eax
	shrl	$11, %eax
	.loc	23 2572 22 is_stmt 0
	addb	$48, %al
	movzbl	%al, %esi
Ltmp833:
	.loc	23 2572 13
	callq	__ZN5alloc6string6String4push17hae2db1b8b84d9f42E
Ltmp834:
	jmp	LBB82_8
Ltmp850:
LBB82_4:
	.loc	23 0 13
	movq	-96(%rbp), %rdi
	.loc	23 2569 34 is_stmt 1
	movzbl	-73(%rbp), %ecx
	movl	%ecx, %eax
	leal	(%rax,%rax,4), %edx
	movl	%edx, %ecx
	leal	(%rax,%rcx,8), %eax
	movzwl	%ax, %eax
	shrl	$12, %eax
	.loc	23 2569 26 is_stmt 0
	orb	$48, %al
	movzbl	%al, %esi
Ltmp831:
	.loc	23 2569 17
	callq	__ZN5alloc6string6String4push17hae2db1b8b84d9f42E
Ltmp832:
	jmp	LBB82_7
Ltmp851:
LBB82_5:
Ltmp838:
	.loc	23 0 17
	movq	-96(%rbp), %rdi
	.loc	23 2577 5 is_stmt 1
	callq	__ZN4core3ptr42drop_in_place$LT$alloc..string..String$GT$17h61119d261c692d35E
Ltmp839:
	jmp	LBB82_11
LBB82_6:
Ltmp837:
	.loc	23 0 5 is_stmt 0
	movq	%rax, %rcx
	movl	%edx, %eax
	movq	%rcx, -16(%rbp)
	movl	%eax, -8(%rbp)
	jmp	LBB82_5
LBB82_7:
Ltmp852:
	.loc	23 2570 17 is_stmt 1
	movb	$100, %cl
	movzbw	-73(%rbp), %ax
	divb	%cl
	shrw	$8, %ax
	movb	%al, -73(%rbp)
	.loc	23 2568 13
	jmp	LBB82_3
Ltmp853:
LBB82_8:
	.loc	23 2573 13
	movb	$10, %cl
	movzbw	-73(%rbp), %ax
	divb	%cl
	shrw	$8, %ax
	movb	%al, -73(%rbp)
	.loc	23 2567 9
	jmp	LBB82_1
Ltmp854:
LBB82_9:
	.loc	23 0 9 is_stmt 0
	movq	-104(%rbp), %rax
	.loc	23 2577 6 is_stmt 1
	addq	$112, %rsp
	popq	%rbp
	retq
LBB82_10:
Ltmp840:
	.loc	23 2564 5
	callq	__ZN4core9panicking19panic_cannot_unwind17h1fbca7e1d7f56ae1E
LBB82_11:
	movq	-16(%rbp), %rdi
	callq	__Unwind_Resume
Ltmp855:
Lfunc_end82:
	.cfi_endproc
	.section	__TEXT,__gcc_except_tab
	.p2align	2
GCC_except_table82:
Lexception28:
	.byte	255
	.byte	255
	.byte	1
	.uleb128 Lcst_end28-Lcst_begin28
Lcst_begin28:
	.uleb128 Lfunc_begin82-Lfunc_begin82
	.uleb128 Ltmp835-Lfunc_begin82
	.byte	0
	.byte	0
	.uleb128 Ltmp835-Lfunc_begin82
	.uleb128 Ltmp832-Ltmp835
	.uleb128 Ltmp837-Lfunc_begin82
	.byte	0
	.uleb128 Ltmp838-Lfunc_begin82
	.uleb128 Ltmp839-Ltmp838
	.uleb128 Ltmp840-Lfunc_begin82
	.byte	0
	.uleb128 Ltmp839-Lfunc_begin82
	.uleb128 Lfunc_end82-Ltmp839
	.byte	0
	.byte	0
Lcst_end28:
	.p2align	2

	.section	__TEXT,__text,regular,pure_instructions
	.p2align	4, 0x90
__ZN47_$LT$str$u20$as$u20$alloc..string..ToString$GT$9to_string17h7d99368d045b693dE:
Lfunc_begin83:
	.loc	23 2607 0
	.cfi_startproc
	pushq	%rbp
	.cfi_def_cfa_offset 16
	.cfi_offset %rbp, -16
	movq	%rsp, %rbp
	.cfi_def_cfa_register %rbp
	subq	$144, %rsp
	movq	%rdi, -144(%rbp)
	movq	%rdi, -136(%rbp)
	movq	%rsi, -80(%rbp)
	movq	%rdx, -72(%rbp)
Ltmp856:
	.loc	23 2608 22 prologue_end
	movq	%rsi, -64(%rbp)
	movq	%rdx, -56(%rbp)
Ltmp857:
	.loc	23 2662 9
	movq	%rsi, -48(%rbp)
	movq	%rdx, -40(%rbp)
Ltmp858:
	.file	49 "/rustc/2c8cc343237b8f7d5a3c3703e3a87f2eb2c54a74/library/alloc/src" "str.rs"
	.loc	49 209 46
	movq	%rsi, -32(%rbp)
	movq	%rdx, -24(%rbp)
Ltmp859:
	.file	50 "/rustc/2c8cc343237b8f7d5a3c3703e3a87f2eb2c54a74/library/core/src/str" "mod.rs"
	.loc	50 327 18
	movq	%rsi, -16(%rbp)
	movq	%rdx, -8(%rbp)
	movq	-16(%rbp), %rsi
	movq	-8(%rbp), %rdx
Ltmp860:
	.loc	49 209 46
	leaq	-128(%rbp), %rdi
	callq	__ZN5alloc5slice64_$LT$impl$u20$alloc..borrow..ToOwned$u20$for$u20$$u5b$T$u5d$$GT$8to_owned17h4ed92211b69bc83fE
	movq	-144(%rbp), %rdi
	movq	-136(%rbp), %rax
Ltmp861:
	.loc	23 846 23
	movq	-128(%rbp), %rcx
	movq	%rcx, -104(%rbp)
	movq	-120(%rbp), %rcx
	movq	%rcx, -96(%rbp)
	movq	-112(%rbp), %rcx
	movq	%rcx, -88(%rbp)
	.loc	23 846 9 is_stmt 0
	movq	-104(%rbp), %rcx
	movq	%rcx, (%rdi)
	movq	-96(%rbp), %rcx
	movq	%rcx, 8(%rdi)
	movq	-88(%rbp), %rcx
	movq	%rcx, 16(%rdi)
Ltmp862:
	.loc	23 2609 6 is_stmt 1
	addq	$144, %rsp
	popq	%rbp
	retq
Ltmp863:
Lfunc_end83:
	.cfi_endproc

	.globl	__ZN49_$LT$F$u20$as$u20$core..str..pattern..Pattern$GT$12is_prefix_of17h9c668dda1fca5851E
	.p2align	4, 0x90
__ZN49_$LT$F$u20$as$u20$core..str..pattern..Pattern$GT$12is_prefix_of17h9c668dda1fca5851E:
Lfunc_begin84:
	.file	51 "/rustc/2c8cc343237b8f7d5a3c3703e3a87f2eb2c54a74/library/core/src/str" "pattern.rs"
	.loc	51 715 0
	.cfi_startproc
	pushq	%rbp
	.cfi_def_cfa_offset 16
	.cfi_offset %rbp, -16
	movq	%rsp, %rbp
	.cfi_def_cfa_register %rbp
	subq	$32, %rsp
	movq	%rdi, -16(%rbp)
	movq	%rsi, -8(%rbp)
Ltmp864:
	.loc	51 716 13 prologue_end
	callq	__ZN4core3str7pattern7Pattern12is_prefix_of17h11831142fc42f8adE
	.loc	51 717 10
	andb	$1, %al
	movzbl	%al, %eax
	addq	$32, %rsp
	popq	%rbp
	retq
Ltmp865:
Lfunc_end84:
	.cfi_endproc

	.p2align	4, 0x90
__ZN49_$LT$u8$u20$as$u20$core..slice..cmp..SliceOrd$GT$7compare17hf5ab68a09fdc7c48E:
Lfunc_begin85:
	.file	52 "/rustc/2c8cc343237b8f7d5a3c3703e3a87f2eb2c54a74/library/core/src/slice" "cmp.rs"
	.loc	52 190 0
	.cfi_startproc
	pushq	%rbp
	.cfi_def_cfa_offset 16
	.cfi_offset %rbp, -16
	movq	%rsp, %rbp
	.cfi_def_cfa_register %rbp
	subq	$144, %rsp
	movq	%rdi, -144(%rbp)
	movq	%rsi, -136(%rbp)
	movq	%rdx, -128(%rbp)
	movq	%rcx, -120(%rbp)
	movq	%rdi, -80(%rbp)
	movq	%rsi, -72(%rbp)
	movq	%rdx, -64(%rbp)
	movq	%rcx, -56(%rbp)
Ltmp866:
	.loc	52 192 20 prologue_end
	movq	%rsi, %rax
	subq	%rcx, %rax
	movq	%rax, -112(%rbp)
	movq	%rax, -48(%rbp)
Ltmp867:
	.loc	52 194 22
	cmpq	%rcx, %rsi
	jb	LBB85_2
	.loc	52 0 22 is_stmt 0
	movq	-120(%rbp), %rax
	.loc	52 194 69
	movq	%rax, -96(%rbp)
	.loc	52 194 19
	jmp	LBB85_3
LBB85_2:
	.loc	52 0 19
	movq	-136(%rbp), %rax
	.loc	52 194 49
	movq	%rax, -96(%rbp)
LBB85_3:
	.loc	52 0 49
	movq	-128(%rbp), %rsi
	movq	-144(%rbp), %rdi
	movq	-120(%rbp), %rax
	movq	-136(%rbp), %rcx
Ltmp868:
	.loc	52 198 41 is_stmt 1
	movq	%rdi, -40(%rbp)
	movq	%rcx, -32(%rbp)
	.loc	52 198 56 is_stmt 0
	movq	%rsi, -24(%rbp)
	movq	%rax, -16(%rbp)
	.loc	52 198 72
	movq	-96(%rbp), %rdx
	.loc	52 198 34
	callq	_memcmp
	cltq
	movq	%rax, -88(%rbp)
Ltmp869:
	.loc	52 199 12 is_stmt 1
	cmpq	$0, -88(%rbp)
	jne	LBB85_5
	.loc	52 0 12 is_stmt 0
	movq	-112(%rbp), %rax
	.loc	52 200 13 is_stmt 1
	movq	%rax, -88(%rbp)
	.loc	52 199 9
	jmp	LBB85_6
LBB85_5:
	jmp	LBB85_6
LBB85_6:
	.loc	52 202 9
	leaq	-88(%rbp), %rax
	movq	%rax, -8(%rbp)
Ltmp870:
	.loc	22 1457 24
	cmpq	$0, -88(%rbp)
	jl	LBB85_8
	.loc	22 1458 29
	cmpq	$0, -88(%rbp)
	je	LBB85_11
	jmp	LBB85_10
LBB85_8:
	.loc	22 1457 41
	movb	$-1, -97(%rbp)
Ltmp871:
LBB85_9:
	.loc	52 203 6
	movb	-97(%rbp), %al
	addq	$144, %rsp
	popq	%rbp
	retq
LBB85_10:
Ltmp872:
	.loc	22 1459 28
	movb	$1, -97(%rbp)
	.loc	22 1458 26
	jmp	LBB85_12
LBB85_11:
	.loc	22 1458 47 is_stmt 0
	movb	$0, -97(%rbp)
LBB85_12:
	.loc	22 1457 21 is_stmt 1
	jmp	LBB85_9
Ltmp873:
Lfunc_end85:
	.cfi_endproc

	.p2align	4, 0x90
__ZN49_$LT$usize$u20$as$u20$core..iter..range..Step$GT$17forward_unchecked17ha61e9e36beb0442aE:
Lfunc_begin86:
	.file	53 "/rustc/2c8cc343237b8f7d5a3c3703e3a87f2eb2c54a74/library/core/src/iter" "range.rs"
	.loc	53 189 0
	.cfi_startproc
	pushq	%rbp
	.cfi_def_cfa_offset 16
	.cfi_offset %rbp, -16
	movq	%rsp, %rbp
	.cfi_def_cfa_register %rbp
	subq	$40, %rsp
	movq	%rdi, -40(%rbp)
	movq	%rsi, -32(%rbp)
Ltmp874:
	.loc	53 191 22 prologue_end
	movq	%rdi, -24(%rbp)
	.loc	53 191 42 is_stmt 0
	movq	%rsi, -16(%rbp)
Ltmp875:
	.loc	11 470 22 is_stmt 1
	addq	%rsi, %rdi
	movq	%rdi, -8(%rbp)
	movq	-8(%rbp), %rax
Ltmp876:
	.loc	53 192 10
	addq	$40, %rsp
	popq	%rbp
	retq
Ltmp877:
Lfunc_end86:
	.cfi_endproc

	.p2align	4, 0x90
__ZN49_$LT$usize$u20$as$u20$core..iter..range..Step$GT$18backward_unchecked17h6c242e025f212138E:
Lfunc_begin87:
	.loc	53 195 0
	.cfi_startproc
	pushq	%rbp
	.cfi_def_cfa_offset 16
	.cfi_offset %rbp, -16
	movq	%rsp, %rbp
	.cfi_def_cfa_register %rbp
	subq	$40, %rsp
	movq	%rdi, -40(%rbp)
	movq	%rsi, -32(%rbp)
Ltmp878:
	.loc	53 197 22 prologue_end
	movq	%rdi, -24(%rbp)
	.loc	53 197 42 is_stmt 0
	movq	%rsi, -16(%rbp)
Ltmp879:
	.loc	11 539 22 is_stmt 1
	subq	%rsi, %rdi
	movq	%rdi, -8(%rbp)
	movq	-8(%rbp), %rax
Ltmp880:
	.loc	53 198 10
	addq	$40, %rsp
	popq	%rbp
	retq
Ltmp881:
Lfunc_end87:
	.cfi_endproc

	.globl	__ZN4core3any6TypeId2of17h942c9e89534e1f77E
	.p2align	4, 0x90
__ZN4core3any6TypeId2of17h942c9e89534e1f77E:
Lfunc_begin88:
	.loc	38 691 0
	.cfi_startproc
	pushq	%rbp
	.cfi_def_cfa_offset 16
	.cfi_offset %rbp, -16
	movq	%rsp, %rbp
	.cfi_def_cfa_register %rbp
	subq	$16, %rsp
Ltmp882:
	.loc	38 692 21 prologue_end
	movabsq	$-8527728395957036344, %rax
	movq	%rax, -8(%rbp)
	movq	-8(%rbp), %rax
	.loc	38 692 9 is_stmt 0
	movq	%rax, -16(%rbp)
	.loc	38 693 6 is_stmt 1
	movq	-16(%rbp), %rax
	addq	$16, %rsp
	popq	%rbp
	retq
Ltmp883:
Lfunc_end88:
	.cfi_endproc

	.p2align	4, 0x90
__ZN4core3cmp5impls50_$LT$impl$u20$core..cmp..Ord$u20$for$u20$usize$GT$3cmp17h68ce95e0b2ea56efE:
Lfunc_begin89:
	.loc	22 1454 0
	.cfi_startproc
	pushq	%rbp
	.cfi_def_cfa_offset 16
	.cfi_offset %rbp, -16
	movq	%rsp, %rbp
	.cfi_def_cfa_register %rbp
	subq	$40, %rsp
	movq	%rdi, -40(%rbp)
	movq	%rsi, -32(%rbp)
	movq	%rdi, -16(%rbp)
	movq	%rsi, -8(%rbp)
Ltmp884:
	.loc	22 1457 24 prologue_end
	movq	(%rdi), %rax
	cmpq	(%rsi), %rax
	jb	LBB89_2
	.loc	22 0 24 is_stmt 0
	movq	-32(%rbp), %rcx
	movq	-40(%rbp), %rax
	.loc	22 1458 29 is_stmt 1
	movq	(%rax), %rax
	cmpq	(%rcx), %rax
	je	LBB89_5
	jmp	LBB89_4
LBB89_2:
	.loc	22 1457 41
	movb	$-1, -17(%rbp)
LBB89_3:
	.loc	22 1460 18
	movb	-17(%rbp), %al
	addq	$40, %rsp
	popq	%rbp
	retq
LBB89_4:
	.loc	22 1459 28
	movb	$1, -17(%rbp)
	.loc	22 1458 26
	jmp	LBB89_6
LBB89_5:
	.loc	22 1458 47 is_stmt 0
	movb	$0, -17(%rbp)
LBB89_6:
	.loc	22 1457 21 is_stmt 1
	jmp	LBB89_3
Ltmp885:
Lfunc_end89:
	.cfi_endproc

	.p2align	4, 0x90
__ZN4core3cmp5impls56_$LT$impl$u20$core..cmp..PartialEq$u20$for$u20$usize$GT$2eq17hccf9dcda925518ccE:
Lfunc_begin90:
	.loc	22 1352 0
	.cfi_startproc
	pushq	%rbp
	.cfi_def_cfa_offset 16
	.cfi_offset %rbp, -16
	movq	%rsp, %rbp
	.cfi_def_cfa_register %rbp
	subq	$16, %rsp
	movq	%rdi, -16(%rbp)
	movq	%rsi, -8(%rbp)
Ltmp886:
	.loc	22 1352 52 prologue_end
	movq	(%rdi), %rax
	cmpq	(%rsi), %rax
	sete	%al
	.loc	22 1352 73 is_stmt 0
	andb	$1, %al
	movzbl	%al, %eax
	addq	$16, %rsp
	popq	%rbp
	retq
Ltmp887:
Lfunc_end90:
	.cfi_endproc

	.p2align	4, 0x90
__ZN4core3cmp5impls57_$LT$impl$u20$core..cmp..PartialOrd$u20$for$u20$usize$GT$2lt17h9a31d7887963cbf6E:
Lfunc_begin91:
	.loc	22 1441 0 is_stmt 1
	.cfi_startproc
	pushq	%rbp
	.cfi_def_cfa_offset 16
	.cfi_offset %rbp, -16
	movq	%rsp, %rbp
	.cfi_def_cfa_register %rbp
	subq	$16, %rsp
	movq	%rdi, -16(%rbp)
	movq	%rsi, -8(%rbp)
Ltmp888:
	.loc	22 1441 52 prologue_end
	movq	(%rdi), %rax
	cmpq	(%rsi), %rax
	setb	%al
	.loc	22 1441 72 is_stmt 0
	andb	$1, %al
	movzbl	%al, %eax
	addq	$16, %rsp
	popq	%rbp
	retq
Ltmp889:
Lfunc_end91:
	.cfi_endproc

	.p2align	4, 0x90
__ZN4core3cmp5impls59_$LT$impl$u20$core..cmp..PartialEq$u20$for$u20$$LP$$RP$$GT$2eq17h6a889a9e75c1dc50E:
Lfunc_begin92:
	.loc	22 1363 0 is_stmt 1
	.cfi_startproc
	pushq	%rbp
	.cfi_def_cfa_offset 16
	.cfi_offset %rbp, -16
	movq	%rsp, %rbp
	.cfi_def_cfa_register %rbp
	subq	$16, %rsp
	movq	%rdi, -16(%rbp)
	movq	%rsi, -8(%rbp)
Ltmp890:
	.loc	22 1365 10 prologue_end
	movb	$1, %al
	andb	$1, %al
	movzbl	%al, %eax
	addq	$16, %rsp
	popq	%rbp
	retq
Ltmp891:
Lfunc_end92:
	.cfi_endproc

	.globl	__ZN4core3cmp5impls69_$LT$impl$u20$core..cmp..PartialEq$LT$$RF$B$GT$$u20$for$u20$$RF$A$GT$2eq17h0bcc28aebfd300c3E
	.p2align	4, 0x90
__ZN4core3cmp5impls69_$LT$impl$u20$core..cmp..PartialEq$LT$$RF$B$GT$$u20$for$u20$$RF$A$GT$2eq17h0bcc28aebfd300c3E:
Lfunc_begin93:
	.loc	22 1530 0
	.cfi_startproc
	pushq	%rbp
	.cfi_def_cfa_offset 16
	.cfi_offset %rbp, -16
	movq	%rsp, %rbp
	.cfi_def_cfa_register %rbp
	subq	$16, %rsp
	movq	%rdi, -16(%rbp)
	movq	%rsi, -8(%rbp)
Ltmp892:
	.loc	22 1531 27 prologue_end
	movq	(%rdi), %rdi
	.loc	22 1531 34 is_stmt 0
	movq	(%rsi), %rsi
	.loc	22 1531 13
	callq	__ZN69_$LT$proc_macro2..fallback..Ident$u20$as$u20$core..cmp..PartialEq$GT$2eq17had1db0faa7a0d74bE
	.loc	22 1532 10 is_stmt 1
	andb	$1, %al
	movzbl	%al, %eax
	addq	$16, %rsp
	popq	%rbp
	retq
Ltmp893:
Lfunc_end93:
	.cfi_endproc

	.globl	__ZN4core3cmp6max_by17h82abe0b80cac40a2E
	.p2align	4, 0x90
__ZN4core3cmp6max_by17h82abe0b80cac40a2E:
Lfunc_begin94:
	.loc	22 1295 0
	.cfi_startproc
	.cfi_personality 155, _rust_eh_personality
	.cfi_lsda 16, Lexception29
	pushq	%rbp
	.cfi_def_cfa_offset 16
	.cfi_offset %rbp, -16
	movq	%rsp, %rbp
	.cfi_def_cfa_register %rbp
	subq	$96, %rsp
	movq	%rdi, -80(%rbp)
	movq	%rsi, -72(%rbp)
Ltmp897:
	.loc	22 1300 11 prologue_end
	movb	$1, -25(%rbp)
	movb	$1, -26(%rbp)
	leaq	-80(%rbp), %rax
	movq	%rax, -48(%rbp)
	leaq	-72(%rbp), %rax
	movq	%rax, -40(%rbp)
	movq	-48(%rbp), %rdi
	movq	-40(%rbp), %rsi
Ltmp894:
	callq	__ZN4core3ops8function6FnOnce9call_once17h94fba0836103f616E
Ltmp895:
	movb	%al, -81(%rbp)
	jmp	LBB94_3
LBB94_1:
	.loc	22 1304 1
	jmp	LBB94_4
LBB94_2:
Ltmp896:
	.loc	22 0 1 is_stmt 0
	movq	%rax, %rcx
	movl	%edx, %eax
	movq	%rcx, -16(%rbp)
	movl	%eax, -8(%rbp)
	jmp	LBB94_1
LBB94_3:
	movb	-81(%rbp), %al
	.loc	22 1300 11 is_stmt 1
	movb	%al, -49(%rbp)
	movb	-49(%rbp), %al
	.loc	22 1300 5 is_stmt 0
	incb	%al
	subb	$2, %al
	jb	LBB94_6
	jmp	LBB94_15
LBB94_15:
	jmp	LBB94_7
LBB94_4:
	.loc	22 1304 1 is_stmt 1
	testb	$1, -25(%rbp)
	jne	LBB94_12
	jmp	LBB94_11
	.loc	22 1300 11
	ud2
LBB94_6:
	.loc	22 1301 45
	movb	$0, -26(%rbp)
	movq	-72(%rbp), %rax
	movq	%rax, -64(%rbp)
	jmp	LBB94_8
LBB94_7:
	.loc	22 1302 30
	movb	$0, -25(%rbp)
	movq	-80(%rbp), %rax
	movq	%rax, -64(%rbp)
LBB94_8:
	.loc	22 1304 1
	testb	$1, -26(%rbp)
	jne	LBB94_10
LBB94_9:
	testb	$1, -25(%rbp)
	jne	LBB94_14
	jmp	LBB94_13
LBB94_10:
	jmp	LBB94_9
LBB94_11:
	.loc	22 1295 1
	movq	-16(%rbp), %rdi
	callq	__Unwind_Resume
LBB94_12:
	.loc	22 1304 1
	jmp	LBB94_11
LBB94_13:
	.loc	22 1304 2 is_stmt 0
	movq	-64(%rbp), %rax
	addq	$96, %rsp
	popq	%rbp
	retq
LBB94_14:
	.loc	22 1304 1
	jmp	LBB94_13
Ltmp898:
Lfunc_end94:
	.cfi_endproc
	.section	__TEXT,__gcc_except_tab
	.p2align	2
GCC_except_table94:
Lexception29:
	.byte	255
	.byte	255
	.byte	1
	.uleb128 Lcst_end29-Lcst_begin29
Lcst_begin29:
	.uleb128 Ltmp894-Lfunc_begin94
	.uleb128 Ltmp895-Ltmp894
	.uleb128 Ltmp896-Lfunc_begin94
	.byte	0
	.uleb128 Ltmp895-Lfunc_begin94
	.uleb128 Lfunc_end94-Ltmp895
	.byte	0
	.byte	0
Lcst_end29:
	.p2align	2

	.section	__TEXT,__text,regular,pure_instructions
	.globl	__ZN4core3cmp6min_by17h2e9b49e4095641a2E
	.p2align	4, 0x90
__ZN4core3cmp6min_by17h2e9b49e4095641a2E:
Lfunc_begin95:
	.loc	22 1204 0 is_stmt 1
	.cfi_startproc
	.cfi_personality 155, _rust_eh_personality
	.cfi_lsda 16, Lexception30
	pushq	%rbp
	.cfi_def_cfa_offset 16
	.cfi_offset %rbp, -16
	movq	%rsp, %rbp
	.cfi_def_cfa_register %rbp
	subq	$96, %rsp
	movq	%rdi, -80(%rbp)
	movq	%rsi, -72(%rbp)
Ltmp902:
	.loc	22 1209 11 prologue_end
	movb	$1, -25(%rbp)
	movb	$1, -26(%rbp)
	leaq	-80(%rbp), %rax
	movq	%rax, -48(%rbp)
	leaq	-72(%rbp), %rax
	movq	%rax, -40(%rbp)
	movq	-48(%rbp), %rdi
	movq	-40(%rbp), %rsi
Ltmp899:
	callq	__ZN4core3ops8function6FnOnce9call_once17h94fba0836103f616E
Ltmp900:
	movb	%al, -81(%rbp)
	jmp	LBB95_3
LBB95_1:
	.loc	22 1213 1
	jmp	LBB95_4
LBB95_2:
Ltmp901:
	.loc	22 0 1 is_stmt 0
	movq	%rax, %rcx
	movl	%edx, %eax
	movq	%rcx, -16(%rbp)
	movl	%eax, -8(%rbp)
	jmp	LBB95_1
LBB95_3:
	movb	-81(%rbp), %al
	.loc	22 1209 11 is_stmt 1
	movb	%al, -49(%rbp)
	movb	-49(%rbp), %al
	.loc	22 1209 5 is_stmt 0
	incb	%al
	subb	$2, %al
	jb	LBB95_6
	jmp	LBB95_15
LBB95_15:
	jmp	LBB95_7
LBB95_4:
	.loc	22 1213 1 is_stmt 1
	testb	$1, -25(%rbp)
	jne	LBB95_12
	jmp	LBB95_11
	.loc	22 1209 11
	ud2
LBB95_6:
	.loc	22 1210 45
	movb	$0, -25(%rbp)
	movq	-80(%rbp), %rax
	movq	%rax, -64(%rbp)
	jmp	LBB95_8
LBB95_7:
	.loc	22 1211 30
	movb	$0, -26(%rbp)
	movq	-72(%rbp), %rax
	movq	%rax, -64(%rbp)
LBB95_8:
	.loc	22 1213 1
	testb	$1, -26(%rbp)
	jne	LBB95_10
LBB95_9:
	testb	$1, -25(%rbp)
	jne	LBB95_14
	jmp	LBB95_13
LBB95_10:
	jmp	LBB95_9
LBB95_11:
	.loc	22 1204 1
	movq	-16(%rbp), %rdi
	callq	__Unwind_Resume
LBB95_12:
	.loc	22 1213 1
	jmp	LBB95_11
LBB95_13:
	.loc	22 1213 2 is_stmt 0
	movq	-64(%rbp), %rax
	addq	$96, %rsp
	popq	%rbp
	retq
LBB95_14:
	.loc	22 1213 1
	jmp	LBB95_13
Ltmp903:
Lfunc_end95:
	.cfi_endproc
	.section	__TEXT,__gcc_except_tab
	.p2align	2
GCC_except_table95:
Lexception30:
	.byte	255
	.byte	255
	.byte	1
	.uleb128 Lcst_end30-Lcst_begin30
Lcst_begin30:
	.uleb128 Ltmp899-Lfunc_begin95
	.uleb128 Ltmp900-Ltmp899
	.uleb128 Ltmp901-Lfunc_begin95
	.byte	0
	.uleb128 Ltmp900-Lfunc_begin95
	.uleb128 Lfunc_end95-Ltmp900
	.byte	0
	.byte	0
Lcst_end30:
	.p2align	2

	.section	__TEXT,__text,regular,pure_instructions
	.globl	__ZN4core3cmp9PartialEq2ne17h837684af8edfe6cfE
	.p2align	4, 0x90
__ZN4core3cmp9PartialEq2ne17h837684af8edfe6cfE:
Lfunc_begin96:
	.loc	22 227 0 is_stmt 1
	.cfi_startproc
	pushq	%rbp
	.cfi_def_cfa_offset 16
	.cfi_offset %rbp, -16
	movq	%rsp, %rbp
	.cfi_def_cfa_register %rbp
	subq	$16, %rsp
	movq	%rdi, -16(%rbp)
	movq	%rsi, -8(%rbp)
Ltmp904:
	.loc	22 228 10 prologue_end
	callq	__ZN63_$LT$proc_macro2..Delimiter$u20$as$u20$core..cmp..PartialEq$GT$2eq17hd9ba511b8f35d9bfE
	.loc	22 228 9 is_stmt 0
	xorb	$-1, %al
	.loc	22 229 6 is_stmt 1
	andb	$1, %al
	movzbl	%al, %eax
	addq	$16, %rsp
	popq	%rbp
	retq
Ltmp905:
Lfunc_end96:
	.cfi_endproc

	.section	__TEXT,__literal4,4byte_literals
	.p2align	2
LCPI97_0:
	.long	0x7f800000
	.section	__TEXT,__text,regular,pure_instructions
	.p2align	4, 0x90
__ZN4core3f3221_$LT$impl$u20$f32$GT$9is_finite17hb49afb9435aaa9d8E:
Lfunc_begin97:
	.file	54 "/rustc/2c8cc343237b8f7d5a3c3703e3a87f2eb2c54a74/library/core/src/num" "f32.rs"
	.loc	54 485 0
	.cfi_startproc
	pushq	%rbp
	.cfi_def_cfa_offset 16
	.cfi_offset %rbp, -16
	movq	%rsp, %rbp
	.cfi_def_cfa_register %rbp
	subq	$16, %rsp
	movss	%xmm0, -16(%rbp)
Ltmp906:
	.loc	54 488 9 prologue_end
	movss	%xmm0, -12(%rbp)
Ltmp907:
	.loc	54 438 45
	movd	%xmm0, %eax
	movl	%eax, -8(%rbp)
	movl	-8(%rbp), %eax
	andl	$2147483647, %eax
	.loc	54 438 18 is_stmt 0
	movd	%eax, %xmm0
	movss	%xmm0, -4(%rbp)
Ltmp908:
	.loc	54 488 9 is_stmt 1
	movss	LCPI97_0(%rip), %xmm0
	ucomiss	-4(%rbp), %xmm0
	seta	%al
	.loc	54 489 6
	andb	$1, %al
	movzbl	%al, %eax
	addq	$16, %rsp
	popq	%rbp
	retq
Ltmp909:
Lfunc_end97:
	.cfi_endproc

	.section	__TEXT,__literal8,8byte_literals
	.p2align	3
LCPI98_0:
	.quad	0x7ff0000000000000
	.section	__TEXT,__text,regular,pure_instructions
	.p2align	4, 0x90
__ZN4core3f6421_$LT$impl$u20$f64$GT$9is_finite17h6dd5daf357cc6dc2E:
Lfunc_begin98:
	.file	55 "/rustc/2c8cc343237b8f7d5a3c3703e3a87f2eb2c54a74/library/core/src/num" "f64.rs"
	.loc	55 486 0
	.cfi_startproc
	pushq	%rbp
	.cfi_def_cfa_offset 16
	.cfi_offset %rbp, -16
	movq	%rsp, %rbp
	.cfi_def_cfa_register %rbp
	subq	$32, %rsp
	movsd	%xmm0, -32(%rbp)
Ltmp910:
	.loc	55 489 9 prologue_end
	movsd	%xmm0, -24(%rbp)
Ltmp911:
	.loc	55 438 40
	movq	%xmm0, %rax
	movq	%rax, -16(%rbp)
	movabsq	$9223372036854775807, %rax
	andq	-16(%rbp), %rax
	.loc	55 438 13 is_stmt 0
	movq	%rax, %xmm0
	movsd	%xmm0, -8(%rbp)
Ltmp912:
	.loc	55 489 9 is_stmt 1
	movsd	LCPI98_0(%rip), %xmm0
	ucomisd	-8(%rbp), %xmm0
	seta	%al
	.loc	55 490 6
	andb	$1, %al
	movzbl	%al, %eax
	addq	$32, %rsp
	popq	%rbp
	retq
Ltmp913:
Lfunc_end98:
	.cfi_endproc

	.globl	__ZN4core3fmt10ArgumentV111new_display17h087b5ac2d511c97bE
	.p2align	4, 0x90
__ZN4core3fmt10ArgumentV111new_display17h087b5ac2d511c97bE:
Lfunc_begin99:
	.loc	47 327 0
	.cfi_startproc
	pushq	%rbp
	.cfi_def_cfa_offset 16
	.cfi_offset %rbp, -16
	movq	%rsp, %rbp
	.cfi_def_cfa_register %rbp
	subq	$56, %rsp
	movq	%rdi, -40(%rbp)
Ltmp914:
	.loc	47 328 23 prologue_end
	movq	%rdi, -32(%rbp)
	.loc	47 328 26 is_stmt 0
	movq	__ZN4core3fmt3num3imp51_$LT$impl$u20$core..fmt..Display$u20$for$u20$u8$GT$3fmt17he2a0798a745fb926E@GOTPCREL(%rip), %rax
	movq	%rax, -24(%rbp)
Ltmp915:
	.loc	47 347 42 is_stmt 1
	movq	%rax, -16(%rbp)
	movq	-16(%rbp), %rax
	.loc	47 347 68 is_stmt 0
	movq	%rdi, -8(%rbp)
	movq	-8(%rbp), %rcx
	.loc	47 347 18
	movq	%rcx, -56(%rbp)
	movq	%rax, -48(%rbp)
Ltmp916:
	.loc	47 329 10 is_stmt 1
	movq	-56(%rbp), %rax
	movq	-48(%rbp), %rdx
	addq	$56, %rsp
	popq	%rbp
	retq
Ltmp917:
Lfunc_end99:
	.cfi_endproc

	.globl	__ZN4core3fmt10ArgumentV111new_display17h0ccdb3c5b8bdeb41E
	.p2align	4, 0x90
__ZN4core3fmt10ArgumentV111new_display17h0ccdb3c5b8bdeb41E:
Lfunc_begin100:
	.loc	47 327 0
	.cfi_startproc
	pushq	%rbp
	.cfi_def_cfa_offset 16
	.cfi_offset %rbp, -16
	movq	%rsp, %rbp
	.cfi_def_cfa_register %rbp
	subq	$56, %rsp
	movq	%rdi, -40(%rbp)
Ltmp918:
	.loc	47 328 23 prologue_end
	movq	%rdi, -32(%rbp)
	.loc	47 328 26 is_stmt 0
	movq	__ZN4core3fmt3num53_$LT$impl$u20$core..fmt..Display$u20$for$u20$i128$GT$3fmt17hcb1385213c474154E@GOTPCREL(%rip), %rax
	movq	%rax, -24(%rbp)
Ltmp919:
	.loc	47 347 42 is_stmt 1
	movq	%rax, -16(%rbp)
	movq	-16(%rbp), %rax
	.loc	47 347 68 is_stmt 0
	movq	%rdi, -8(%rbp)
	movq	-8(%rbp), %rcx
	.loc	47 347 18
	movq	%rcx, -56(%rbp)
	movq	%rax, -48(%rbp)
Ltmp920:
	.loc	47 329 10 is_stmt 1
	movq	-56(%rbp), %rax
	movq	-48(%rbp), %rdx
	addq	$56, %rsp
	popq	%rbp
	retq
Ltmp921:
Lfunc_end100:
	.cfi_endproc

	.globl	__ZN4core3fmt10ArgumentV111new_display17h1c5f790742a42e93E
	.p2align	4, 0x90
__ZN4core3fmt10ArgumentV111new_display17h1c5f790742a42e93E:
Lfunc_begin101:
	.loc	47 327 0
	.cfi_startproc
	pushq	%rbp
	.cfi_def_cfa_offset 16
	.cfi_offset %rbp, -16
	movq	%rsp, %rbp
	.cfi_def_cfa_register %rbp
	subq	$56, %rsp
	movq	%rdi, -40(%rbp)
Ltmp922:
	.loc	47 328 23 prologue_end
	movq	%rdi, -32(%rbp)
	.loc	47 328 26 is_stmt 0
	movq	__ZN4core3fmt3num3imp52_$LT$impl$u20$core..fmt..Display$u20$for$u20$i16$GT$3fmt17h05eba0a46e9c38a2E@GOTPCREL(%rip), %rax
	movq	%rax, -24(%rbp)
Ltmp923:
	.loc	47 347 42 is_stmt 1
	movq	%rax, -16(%rbp)
	movq	-16(%rbp), %rax
	.loc	47 347 68 is_stmt 0
	movq	%rdi, -8(%rbp)
	movq	-8(%rbp), %rcx
	.loc	47 347 18
	movq	%rcx, -56(%rbp)
	movq	%rax, -48(%rbp)
Ltmp924:
	.loc	47 329 10 is_stmt 1
	movq	-56(%rbp), %rax
	movq	-48(%rbp), %rdx
	addq	$56, %rsp
	popq	%rbp
	retq
Ltmp925:
Lfunc_end101:
	.cfi_endproc

	.globl	__ZN4core3fmt10ArgumentV111new_display17h201d0339eb51d746E
	.p2align	4, 0x90
__ZN4core3fmt10ArgumentV111new_display17h201d0339eb51d746E:
Lfunc_begin102:
	.loc	47 327 0
	.cfi_startproc
	pushq	%rbp
	.cfi_def_cfa_offset 16
	.cfi_offset %rbp, -16
	movq	%rsp, %rbp
	.cfi_def_cfa_register %rbp
	subq	$56, %rsp
	movq	%rdi, -40(%rbp)
Ltmp926:
	.loc	47 328 23 prologue_end
	movq	%rdi, -32(%rbp)
	.loc	47 328 26 is_stmt 0
	movq	__ZN4core3fmt3num3imp54_$LT$impl$u20$core..fmt..Display$u20$for$u20$usize$GT$3fmt17ha5c925fcd7ed33faE@GOTPCREL(%rip), %rax
	movq	%rax, -24(%rbp)
Ltmp927:
	.loc	47 347 42 is_stmt 1
	movq	%rax, -16(%rbp)
	movq	-16(%rbp), %rax
	.loc	47 347 68 is_stmt 0
	movq	%rdi, -8(%rbp)
	movq	-8(%rbp), %rcx
	.loc	47 347 18
	movq	%rcx, -56(%rbp)
	movq	%rax, -48(%rbp)
Ltmp928:
	.loc	47 329 10 is_stmt 1
	movq	-56(%rbp), %rax
	movq	-48(%rbp), %rdx
	addq	$56, %rsp
	popq	%rbp
	retq
Ltmp929:
Lfunc_end102:
	.cfi_endproc

	.globl	__ZN4core3fmt10ArgumentV111new_display17h293110b73bbb9348E
	.p2align	4, 0x90
__ZN4core3fmt10ArgumentV111new_display17h293110b73bbb9348E:
Lfunc_begin103:
	.loc	47 327 0
	.cfi_startproc
	pushq	%rbp
	.cfi_def_cfa_offset 16
	.cfi_offset %rbp, -16
	movq	%rsp, %rbp
	.cfi_def_cfa_register %rbp
	subq	$56, %rsp
	movq	%rdi, -40(%rbp)
Ltmp930:
	.loc	47 328 23 prologue_end
	movq	%rdi, -32(%rbp)
	.loc	47 328 26 is_stmt 0
	leaq	__ZN44_$LT$$RF$T$u20$as$u20$core..fmt..Display$GT$3fmt17h4be3f351d33690c0E(%rip), %rax
	movq	%rax, -24(%rbp)
Ltmp931:
	.loc	47 347 42 is_stmt 1
	movq	%rax, -16(%rbp)
	movq	-16(%rbp), %rax
	.loc	47 347 68 is_stmt 0
	movq	%rdi, -8(%rbp)
	movq	-8(%rbp), %rcx
	.loc	47 347 18
	movq	%rcx, -56(%rbp)
	movq	%rax, -48(%rbp)
Ltmp932:
	.loc	47 329 10 is_stmt 1
	movq	-56(%rbp), %rax
	movq	-48(%rbp), %rdx
	addq	$56, %rsp
	popq	%rbp
	retq
Ltmp933:
Lfunc_end103:
	.cfi_endproc

	.globl	__ZN4core3fmt10ArgumentV111new_display17h2c11977abe163e05E
	.p2align	4, 0x90
__ZN4core3fmt10ArgumentV111new_display17h2c11977abe163e05E:
Lfunc_begin104:
	.loc	47 327 0
	.cfi_startproc
	pushq	%rbp
	.cfi_def_cfa_offset 16
	.cfi_offset %rbp, -16
	movq	%rsp, %rbp
	.cfi_def_cfa_register %rbp
	subq	$56, %rsp
	movq	%rdi, -40(%rbp)
Ltmp934:
	.loc	47 328 23 prologue_end
	movq	%rdi, -32(%rbp)
	.loc	47 328 26 is_stmt 0
	leaq	__ZN60_$LT$alloc..string..String$u20$as$u20$core..fmt..Display$GT$3fmt17ha49437ca2bb9b94aE(%rip), %rax
	movq	%rax, -24(%rbp)
Ltmp935:
	.loc	47 347 42 is_stmt 1
	movq	%rax, -16(%rbp)
	movq	-16(%rbp), %rax
	.loc	47 347 68 is_stmt 0
	movq	%rdi, -8(%rbp)
	movq	-8(%rbp), %rcx
	.loc	47 347 18
	movq	%rcx, -56(%rbp)
	movq	%rax, -48(%rbp)
Ltmp936:
	.loc	47 329 10 is_stmt 1
	movq	-56(%rbp), %rax
	movq	-48(%rbp), %rdx
	addq	$56, %rsp
	popq	%rbp
	retq
Ltmp937:
Lfunc_end104:
	.cfi_endproc

	.globl	__ZN4core3fmt10ArgumentV111new_display17h31d2445af9b1c83bE
	.p2align	4, 0x90
__ZN4core3fmt10ArgumentV111new_display17h31d2445af9b1c83bE:
Lfunc_begin105:
	.loc	47 327 0
	.cfi_startproc
	pushq	%rbp
	.cfi_def_cfa_offset 16
	.cfi_offset %rbp, -16
	movq	%rsp, %rbp
	.cfi_def_cfa_register %rbp
	subq	$56, %rsp
	movq	%rdi, -40(%rbp)
Ltmp938:
	.loc	47 328 23 prologue_end
	movq	%rdi, -32(%rbp)
	.loc	47 328 26 is_stmt 0
	movq	__ZN4core3fmt3num3imp52_$LT$impl$u20$core..fmt..Display$u20$for$u20$i32$GT$3fmt17hd51e25ed68474bbaE@GOTPCREL(%rip), %rax
	movq	%rax, -24(%rbp)
Ltmp939:
	.loc	47 347 42 is_stmt 1
	movq	%rax, -16(%rbp)
	movq	-16(%rbp), %rax
	.loc	47 347 68 is_stmt 0
	movq	%rdi, -8(%rbp)
	movq	-8(%rbp), %rcx
	.loc	47 347 18
	movq	%rcx, -56(%rbp)
	movq	%rax, -48(%rbp)
Ltmp940:
	.loc	47 329 10 is_stmt 1
	movq	-56(%rbp), %rax
	movq	-48(%rbp), %rdx
	addq	$56, %rsp
	popq	%rbp
	retq
Ltmp941:
Lfunc_end105:
	.cfi_endproc

	.globl	__ZN4core3fmt10ArgumentV111new_display17h340bddffcefaab8bE
	.p2align	4, 0x90
__ZN4core3fmt10ArgumentV111new_display17h340bddffcefaab8bE:
Lfunc_begin106:
	.loc	47 327 0
	.cfi_startproc
	pushq	%rbp
	.cfi_def_cfa_offset 16
	.cfi_offset %rbp, -16
	movq	%rsp, %rbp
	.cfi_def_cfa_register %rbp
	subq	$56, %rsp
	movq	%rdi, -40(%rbp)
Ltmp942:
	.loc	47 328 23 prologue_end
	movq	%rdi, -32(%rbp)
	.loc	47 328 26 is_stmt 0
	movq	__ZN4core3fmt3num3imp54_$LT$impl$u20$core..fmt..Display$u20$for$u20$isize$GT$3fmt17h52f1ff2aaed0cbadE@GOTPCREL(%rip), %rax
	movq	%rax, -24(%rbp)
Ltmp943:
	.loc	47 347 42 is_stmt 1
	movq	%rax, -16(%rbp)
	movq	-16(%rbp), %rax
	.loc	47 347 68 is_stmt 0
	movq	%rdi, -8(%rbp)
	movq	-8(%rbp), %rcx
	.loc	47 347 18
	movq	%rcx, -56(%rbp)
	movq	%rax, -48(%rbp)
Ltmp944:
	.loc	47 329 10 is_stmt 1
	movq	-56(%rbp), %rax
	movq	-48(%rbp), %rdx
	addq	$56, %rsp
	popq	%rbp
	retq
Ltmp945:
Lfunc_end106:
	.cfi_endproc

	.globl	__ZN4core3fmt10ArgumentV111new_display17h3aa9d1188a81c309E
	.p2align	4, 0x90
__ZN4core3fmt10ArgumentV111new_display17h3aa9d1188a81c309E:
Lfunc_begin107:
	.loc	47 327 0
	.cfi_startproc
	pushq	%rbp
	.cfi_def_cfa_offset 16
	.cfi_offset %rbp, -16
	movq	%rsp, %rbp
	.cfi_def_cfa_register %rbp
	subq	$56, %rsp
	movq	%rdi, -40(%rbp)
Ltmp946:
	.loc	47 328 23 prologue_end
	movq	%rdi, -32(%rbp)
	.loc	47 328 26 is_stmt 0
	movq	__ZN4core3fmt3num3imp52_$LT$impl$u20$core..fmt..Display$u20$for$u20$u32$GT$3fmt17h081c917b2ee7d4e9E@GOTPCREL(%rip), %rax
	movq	%rax, -24(%rbp)
Ltmp947:
	.loc	47 347 42 is_stmt 1
	movq	%rax, -16(%rbp)
	movq	-16(%rbp), %rax
	.loc	47 347 68 is_stmt 0
	movq	%rdi, -8(%rbp)
	movq	-8(%rbp), %rcx
	.loc	47 347 18
	movq	%rcx, -56(%rbp)
	movq	%rax, -48(%rbp)
Ltmp948:
	.loc	47 329 10 is_stmt 1
	movq	-56(%rbp), %rax
	movq	-48(%rbp), %rdx
	addq	$56, %rsp
	popq	%rbp
	retq
Ltmp949:
Lfunc_end107:
	.cfi_endproc

	.globl	__ZN4core3fmt10ArgumentV111new_display17h537456c5beed0e8eE
	.p2align	4, 0x90
__ZN4core3fmt10ArgumentV111new_display17h537456c5beed0e8eE:
Lfunc_begin108:
	.loc	47 327 0
	.cfi_startproc
	pushq	%rbp
	.cfi_def_cfa_offset 16
	.cfi_offset %rbp, -16
	movq	%rsp, %rbp
	.cfi_def_cfa_register %rbp
	subq	$56, %rsp
	movq	%rdi, -40(%rbp)
Ltmp950:
	.loc	47 328 23 prologue_end
	movq	%rdi, -32(%rbp)
	.loc	47 328 26 is_stmt 0
	movq	__ZN4core3fmt5float52_$LT$impl$u20$core..fmt..Display$u20$for$u20$f32$GT$3fmt17h9a60df429edb12f4E@GOTPCREL(%rip), %rax
	movq	%rax, -24(%rbp)
Ltmp951:
	.loc	47 347 42 is_stmt 1
	movq	%rax, -16(%rbp)
	movq	-16(%rbp), %rax
	.loc	47 347 68 is_stmt 0
	movq	%rdi, -8(%rbp)
	movq	-8(%rbp), %rcx
	.loc	47 347 18
	movq	%rcx, -56(%rbp)
	movq	%rax, -48(%rbp)
Ltmp952:
	.loc	47 329 10 is_stmt 1
	movq	-56(%rbp), %rax
	movq	-48(%rbp), %rdx
	addq	$56, %rsp
	popq	%rbp
	retq
Ltmp953:
Lfunc_end108:
	.cfi_endproc

	.globl	__ZN4core3fmt10ArgumentV111new_display17h62867838ab476ddcE
	.p2align	4, 0x90
__ZN4core3fmt10ArgumentV111new_display17h62867838ab476ddcE:
Lfunc_begin109:
	.loc	47 327 0
	.cfi_startproc
	pushq	%rbp
	.cfi_def_cfa_offset 16
	.cfi_offset %rbp, -16
	movq	%rsp, %rbp
	.cfi_def_cfa_register %rbp
	subq	$56, %rsp
	movq	%rdi, -40(%rbp)
Ltmp954:
	.loc	47 328 23 prologue_end
	movq	%rdi, -32(%rbp)
	.loc	47 328 26 is_stmt 0
	movq	__ZN4core3fmt3num3imp52_$LT$impl$u20$core..fmt..Display$u20$for$u20$u64$GT$3fmt17hc0b393b21668e9bfE@GOTPCREL(%rip), %rax
	movq	%rax, -24(%rbp)
Ltmp955:
	.loc	47 347 42 is_stmt 1
	movq	%rax, -16(%rbp)
	movq	-16(%rbp), %rax
	.loc	47 347 68 is_stmt 0
	movq	%rdi, -8(%rbp)
	movq	-8(%rbp), %rcx
	.loc	47 347 18
	movq	%rcx, -56(%rbp)
	movq	%rax, -48(%rbp)
Ltmp956:
	.loc	47 329 10 is_stmt 1
	movq	-56(%rbp), %rax
	movq	-48(%rbp), %rdx
	addq	$56, %rsp
	popq	%rbp
	retq
Ltmp957:
Lfunc_end109:
	.cfi_endproc

	.globl	__ZN4core3fmt10ArgumentV111new_display17h66df87c6546b70a8E
	.p2align	4, 0x90
__ZN4core3fmt10ArgumentV111new_display17h66df87c6546b70a8E:
Lfunc_begin110:
	.loc	47 327 0
	.cfi_startproc
	pushq	%rbp
	.cfi_def_cfa_offset 16
	.cfi_offset %rbp, -16
	movq	%rsp, %rbp
	.cfi_def_cfa_register %rbp
	subq	$56, %rsp
	movq	%rdi, -40(%rbp)
Ltmp958:
	.loc	47 328 23 prologue_end
	movq	%rdi, -32(%rbp)
	.loc	47 328 26 is_stmt 0
	movq	__ZN4core3fmt3num53_$LT$impl$u20$core..fmt..Display$u20$for$u20$u128$GT$3fmt17h98260811f598099bE@GOTPCREL(%rip), %rax
	movq	%rax, -24(%rbp)
Ltmp959:
	.loc	47 347 42 is_stmt 1
	movq	%rax, -16(%rbp)
	movq	-16(%rbp), %rax
	.loc	47 347 68 is_stmt 0
	movq	%rdi, -8(%rbp)
	movq	-8(%rbp), %rcx
	.loc	47 347 18
	movq	%rcx, -56(%rbp)
	movq	%rax, -48(%rbp)
Ltmp960:
	.loc	47 329 10 is_stmt 1
	movq	-56(%rbp), %rax
	movq	-48(%rbp), %rdx
	addq	$56, %rsp
	popq	%rbp
	retq
Ltmp961:
Lfunc_end110:
	.cfi_endproc

	.globl	__ZN4core3fmt10ArgumentV111new_display17h6ffcdfde0dc7c9cdE
	.p2align	4, 0x90
__ZN4core3fmt10ArgumentV111new_display17h6ffcdfde0dc7c9cdE:
Lfunc_begin111:
	.loc	47 327 0
	.cfi_startproc
	pushq	%rbp
	.cfi_def_cfa_offset 16
	.cfi_offset %rbp, -16
	movq	%rsp, %rbp
	.cfi_def_cfa_register %rbp
	subq	$56, %rsp
	movq	%rdi, -40(%rbp)
Ltmp962:
	.loc	47 328 23 prologue_end
	movq	%rdi, -32(%rbp)
	.loc	47 328 26 is_stmt 0
	movq	__ZN4core3fmt3num3imp52_$LT$impl$u20$core..fmt..Display$u20$for$u20$u16$GT$3fmt17h7d8f7431eaeff3c6E@GOTPCREL(%rip), %rax
	movq	%rax, -24(%rbp)
Ltmp963:
	.loc	47 347 42 is_stmt 1
	movq	%rax, -16(%rbp)
	movq	-16(%rbp), %rax
	.loc	47 347 68 is_stmt 0
	movq	%rdi, -8(%rbp)
	movq	-8(%rbp), %rcx
	.loc	47 347 18
	movq	%rcx, -56(%rbp)
	movq	%rax, -48(%rbp)
Ltmp964:
	.loc	47 329 10 is_stmt 1
	movq	-56(%rbp), %rax
	movq	-48(%rbp), %rdx
	addq	$56, %rsp
	popq	%rbp
	retq
Ltmp965:
Lfunc_end111:
	.cfi_endproc

	.globl	__ZN4core3fmt10ArgumentV111new_display17h7ad351c7b1527a00E
	.p2align	4, 0x90
__ZN4core3fmt10ArgumentV111new_display17h7ad351c7b1527a00E:
Lfunc_begin112:
	.loc	47 327 0
	.cfi_startproc
	pushq	%rbp
	.cfi_def_cfa_offset 16
	.cfi_offset %rbp, -16
	movq	%rsp, %rbp
	.cfi_def_cfa_register %rbp
	subq	$56, %rsp
	movq	%rdi, -40(%rbp)
Ltmp966:
	.loc	47 328 23 prologue_end
	movq	%rdi, -32(%rbp)
	.loc	47 328 26 is_stmt 0
	movq	__ZN4core3fmt5float52_$LT$impl$u20$core..fmt..Display$u20$for$u20$f64$GT$3fmt17hf5b5b3a71761a451E@GOTPCREL(%rip), %rax
	movq	%rax, -24(%rbp)
Ltmp967:
	.loc	47 347 42 is_stmt 1
	movq	%rax, -16(%rbp)
	movq	-16(%rbp), %rax
	.loc	47 347 68 is_stmt 0
	movq	%rdi, -8(%rbp)
	movq	-8(%rbp), %rcx
	.loc	47 347 18
	movq	%rcx, -56(%rbp)
	movq	%rax, -48(%rbp)
Ltmp968:
	.loc	47 329 10 is_stmt 1
	movq	-56(%rbp), %rax
	movq	-48(%rbp), %rdx
	addq	$56, %rsp
	popq	%rbp
	retq
Ltmp969:
Lfunc_end112:
	.cfi_endproc

	.globl	__ZN4core3fmt10ArgumentV111new_display17h7ddfd4f512065576E
	.p2align	4, 0x90
__ZN4core3fmt10ArgumentV111new_display17h7ddfd4f512065576E:
Lfunc_begin113:
	.loc	47 327 0
	.cfi_startproc
	pushq	%rbp
	.cfi_def_cfa_offset 16
	.cfi_offset %rbp, -16
	movq	%rsp, %rbp
	.cfi_def_cfa_register %rbp
	subq	$56, %rsp
	movq	%rdi, -40(%rbp)
Ltmp970:
	.loc	47 328 23 prologue_end
	movq	%rdi, -32(%rbp)
	.loc	47 328 26 is_stmt 0
	leaq	__ZN44_$LT$$RF$T$u20$as$u20$core..fmt..Display$GT$3fmt17hf2584593557ea89cE(%rip), %rax
	movq	%rax, -24(%rbp)
Ltmp971:
	.loc	47 347 42 is_stmt 1
	movq	%rax, -16(%rbp)
	movq	-16(%rbp), %rax
	.loc	47 347 68 is_stmt 0
	movq	%rdi, -8(%rbp)
	movq	-8(%rbp), %rcx
	.loc	47 347 18
	movq	%rcx, -56(%rbp)
	movq	%rax, -48(%rbp)
Ltmp972:
	.loc	47 329 10 is_stmt 1
	movq	-56(%rbp), %rax
	movq	-48(%rbp), %rdx
	addq	$56, %rsp
	popq	%rbp
	retq
Ltmp973:
Lfunc_end113:
	.cfi_endproc

	.globl	__ZN4core3fmt10ArgumentV111new_display17h7f9fc2435f0450acE
	.p2align	4, 0x90
__ZN4core3fmt10ArgumentV111new_display17h7f9fc2435f0450acE:
Lfunc_begin114:
	.loc	47 327 0
	.cfi_startproc
	pushq	%rbp
	.cfi_def_cfa_offset 16
	.cfi_offset %rbp, -16
	movq	%rsp, %rbp
	.cfi_def_cfa_register %rbp
	subq	$56, %rsp
	movq	%rdi, -40(%rbp)
Ltmp974:
	.loc	47 328 23 prologue_end
	movq	%rdi, -32(%rbp)
	.loc	47 328 26 is_stmt 0
	leaq	__ZN44_$LT$$RF$T$u20$as$u20$core..fmt..Display$GT$3fmt17h0eb8ac341f16ded4E(%rip), %rax
	movq	%rax, -24(%rbp)
Ltmp975:
	.loc	47 347 42 is_stmt 1
	movq	%rax, -16(%rbp)
	movq	-16(%rbp), %rax
	.loc	47 347 68 is_stmt 0
	movq	%rdi, -8(%rbp)
	movq	-8(%rbp), %rcx
	.loc	47 347 18
	movq	%rcx, -56(%rbp)
	movq	%rax, -48(%rbp)
Ltmp976:
	.loc	47 329 10 is_stmt 1
	movq	-56(%rbp), %rax
	movq	-48(%rbp), %rdx
	addq	$56, %rsp
	popq	%rbp
	retq
Ltmp977:
Lfunc_end114:
	.cfi_endproc

	.globl	__ZN4core3fmt10ArgumentV111new_display17h8ec461f7d595f4aeE
	.p2align	4, 0x90
__ZN4core3fmt10ArgumentV111new_display17h8ec461f7d595f4aeE:
Lfunc_begin115:
	.loc	47 327 0
	.cfi_startproc
	pushq	%rbp
	.cfi_def_cfa_offset 16
	.cfi_offset %rbp, -16
	movq	%rsp, %rbp
	.cfi_def_cfa_register %rbp
	subq	$56, %rsp
	movq	%rdi, -40(%rbp)
Ltmp978:
	.loc	47 328 23 prologue_end
	movq	%rdi, -32(%rbp)
	.loc	47 328 26 is_stmt 0
	movq	__ZN4core3fmt3num3imp52_$LT$impl$u20$core..fmt..Display$u20$for$u20$i64$GT$3fmt17h02bd744edfb73c37E@GOTPCREL(%rip), %rax
	movq	%rax, -24(%rbp)
Ltmp979:
	.loc	47 347 42 is_stmt 1
	movq	%rax, -16(%rbp)
	movq	-16(%rbp), %rax
	.loc	47 347 68 is_stmt 0
	movq	%rdi, -8(%rbp)
	movq	-8(%rbp), %rcx
	.loc	47 347 18
	movq	%rcx, -56(%rbp)
	movq	%rax, -48(%rbp)
Ltmp980:
	.loc	47 329 10 is_stmt 1
	movq	-56(%rbp), %rax
	movq	-48(%rbp), %rdx
	addq	$56, %rsp
	popq	%rbp
	retq
Ltmp981:
Lfunc_end115:
	.cfi_endproc

	.globl	__ZN4core3fmt10ArgumentV111new_display17hccd20399826bea2cE
	.p2align	4, 0x90
__ZN4core3fmt10ArgumentV111new_display17hccd20399826bea2cE:
Lfunc_begin116:
	.loc	47 327 0
	.cfi_startproc
	pushq	%rbp
	.cfi_def_cfa_offset 16
	.cfi_offset %rbp, -16
	movq	%rsp, %rbp
	.cfi_def_cfa_register %rbp
	subq	$56, %rsp
	movq	%rdi, -40(%rbp)
Ltmp982:
	.loc	47 328 23 prologue_end
	movq	%rdi, -32(%rbp)
	.loc	47 328 26 is_stmt 0
	movq	__ZN4core3fmt3num3imp51_$LT$impl$u20$core..fmt..Display$u20$for$u20$i8$GT$3fmt17h8dbce8f0c9dd3b70E@GOTPCREL(%rip), %rax
	movq	%rax, -24(%rbp)
Ltmp983:
	.loc	47 347 42 is_stmt 1
	movq	%rax, -16(%rbp)
	movq	-16(%rbp), %rax
	.loc	47 347 68 is_stmt 0
	movq	%rdi, -8(%rbp)
	movq	-8(%rbp), %rcx
	.loc	47 347 18
	movq	%rcx, -56(%rbp)
	movq	%rax, -48(%rbp)
Ltmp984:
	.loc	47 329 10 is_stmt 1
	movq	-56(%rbp), %rax
	movq	-48(%rbp), %rdx
	addq	$56, %rsp
	popq	%rbp
	retq
Ltmp985:
Lfunc_end116:
	.cfi_endproc

	.globl	__ZN4core3fmt10ArgumentV113new_upper_hex17hb24df25359042996E
	.p2align	4, 0x90
__ZN4core3fmt10ArgumentV113new_upper_hex17hb24df25359042996E:
Lfunc_begin117:
	.loc	47 327 0
	.cfi_startproc
	pushq	%rbp
	.cfi_def_cfa_offset 16
	.cfi_offset %rbp, -16
	movq	%rsp, %rbp
	.cfi_def_cfa_register %rbp
	subq	$56, %rsp
	movq	%rdi, -40(%rbp)
Ltmp986:
	.loc	47 328 23 prologue_end
	movq	%rdi, -32(%rbp)
	.loc	47 328 26 is_stmt 0
	leaq	__ZN45_$LT$$RF$T$u20$as$u20$core..fmt..UpperHex$GT$3fmt17h439f7f316ac5d182E(%rip), %rax
	movq	%rax, -24(%rbp)
Ltmp987:
	.loc	47 347 42 is_stmt 1
	movq	%rax, -16(%rbp)
	movq	-16(%rbp), %rax
	.loc	47 347 68 is_stmt 0
	movq	%rdi, -8(%rbp)
	movq	-8(%rbp), %rcx
	.loc	47 347 18
	movq	%rcx, -56(%rbp)
	movq	%rax, -48(%rbp)
Ltmp988:
	.loc	47 329 10 is_stmt 1
	movq	-56(%rbp), %rax
	movq	-48(%rbp), %rdx
	addq	$56, %rsp
	popq	%rbp
	retq
Ltmp989:
Lfunc_end117:
	.cfi_endproc

	.globl	__ZN4core3fmt10ArgumentV19new_debug17hb8f0941bc61921e5E
	.p2align	4, 0x90
__ZN4core3fmt10ArgumentV19new_debug17hb8f0941bc61921e5E:
Lfunc_begin118:
	.loc	47 327 0
	.cfi_startproc
	pushq	%rbp
	.cfi_def_cfa_offset 16
	.cfi_offset %rbp, -16
	movq	%rsp, %rbp
	.cfi_def_cfa_register %rbp
	subq	$56, %rsp
	movq	%rdi, -40(%rbp)
Ltmp990:
	.loc	47 328 23 prologue_end
	movq	%rdi, -32(%rbp)
	.loc	47 328 26 is_stmt 0
	leaq	__ZN42_$LT$$RF$T$u20$as$u20$core..fmt..Debug$GT$3fmt17h65ba15591d383af3E(%rip), %rax
	movq	%rax, -24(%rbp)
Ltmp991:
	.loc	47 347 42 is_stmt 1
	movq	%rax, -16(%rbp)
	movq	-16(%rbp), %rax
	.loc	47 347 68 is_stmt 0
	movq	%rdi, -8(%rbp)
	movq	-8(%rbp), %rcx
	.loc	47 347 18
	movq	%rcx, -56(%rbp)
	movq	%rax, -48(%rbp)
Ltmp992:
	.loc	47 329 10 is_stmt 1
	movq	-56(%rbp), %rax
	movq	-48(%rbp), %rdx
	addq	$56, %rsp
	popq	%rbp
	retq
Ltmp993:
Lfunc_end118:
	.cfi_endproc

	.p2align	4, 0x90
__ZN4core3fmt3num52_$LT$impl$u20$core..fmt..Debug$u20$for$u20$usize$GT$3fmt17hd872a8ceb18fe357E:
Lfunc_begin119:
	.file	56 "/rustc/2c8cc343237b8f7d5a3c3703e3a87f2eb2c54a74/library/core/src/fmt" "num.rs"
	.loc	56 185 0
	.cfi_startproc
	pushq	%rbp
	.cfi_def_cfa_offset 16
	.cfi_offset %rbp, -16
	movq	%rsp, %rbp
	.cfi_def_cfa_register %rbp
	subq	$48, %rsp
	movq	%rsi, -48(%rbp)
	movq	%rdi, %rax
	movq	-48(%rbp), %rdi
	movq	%rax, -40(%rbp)
	movq	%rdi, -32(%rbp)
	movq	%rax, -16(%rbp)
	movq	%rdi, -8(%rbp)
Ltmp994:
	.loc	56 186 20 prologue_end
	callq	__ZN4core3fmt9Formatter15debug_lower_hex17h0921e6b9188d914eE
	testb	$1, %al
	jne	LBB119_2
	.loc	56 0 20 is_stmt 0
	movq	-32(%rbp), %rdi
	.loc	56 188 27 is_stmt 1
	callq	__ZN4core3fmt9Formatter15debug_upper_hex17h8ce487049a6cccf8E
	testb	$1, %al
	jne	LBB119_5
	jmp	LBB119_4
LBB119_2:
	.loc	56 0 27 is_stmt 0
	movq	-32(%rbp), %rsi
	movq	-40(%rbp), %rdi
	.loc	56 187 21 is_stmt 1
	callq	__ZN4core3fmt3num55_$LT$impl$u20$core..fmt..LowerHex$u20$for$u20$usize$GT$3fmt17h84f349805fe63f8dE
	andb	$1, %al
	movb	%al, -17(%rbp)
LBB119_3:
	.loc	56 193 14
	movb	-17(%rbp), %al
	andb	$1, %al
	movzbl	%al, %eax
	addq	$48, %rsp
	popq	%rbp
	retq
LBB119_4:
	.loc	56 0 14 is_stmt 0
	movq	-32(%rbp), %rsi
	movq	-40(%rbp), %rdi
	.loc	56 191 21 is_stmt 1
	callq	__ZN4core3fmt3num3imp54_$LT$impl$u20$core..fmt..Display$u20$for$u20$usize$GT$3fmt17ha5c925fcd7ed33faE
	andb	$1, %al
	movb	%al, -17(%rbp)
	.loc	56 188 24
	jmp	LBB119_6
LBB119_5:
	.loc	56 0 24 is_stmt 0
	movq	-32(%rbp), %rsi
	movq	-40(%rbp), %rdi
	.loc	56 189 21 is_stmt 1
	callq	__ZN4core3fmt3num55_$LT$impl$u20$core..fmt..UpperHex$u20$for$u20$usize$GT$3fmt17h49aa717311edc293E
	andb	$1, %al
	movb	%al, -17(%rbp)
LBB119_6:
	.loc	56 186 17
	jmp	LBB119_3
Ltmp995:
Lfunc_end119:
	.cfi_endproc

	.globl	__ZN4core3fmt5Write9write_fmt17hd975343dfd692f0bE
	.p2align	4, 0x90
__ZN4core3fmt5Write9write_fmt17hd975343dfd692f0bE:
Lfunc_begin120:
	.loc	47 196 0
	.cfi_startproc
	pushq	%rbp
	.cfi_def_cfa_offset 16
	.cfi_offset %rbp, -16
	movq	%rsp, %rbp
	.cfi_def_cfa_register %rbp
	subq	$64, %rsp
	movq	%rdi, -56(%rbp)
Ltmp996:
	.loc	47 197 26 prologue_end
	leaq	-48(%rbp), %rdi
	movl	$48, %edx
	callq	_memcpy
Ltmp997:
	.loc	47 197 9 is_stmt 0
	leaq	-56(%rbp), %rdi
	leaq	l___unnamed_4(%rip), %rsi
	leaq	-48(%rbp), %rdx
	callq	__ZN4core3fmt5write17hfa389e524187f2c6E
	.loc	47 198 6 is_stmt 1
	andb	$1, %al
	movzbl	%al, %eax
	addq	$64, %rsp
	popq	%rbp
	retq
Ltmp998:
Lfunc_end120:
	.cfi_endproc

	.globl	__ZN4core3fmt8builders9DebugList7entries17ha5590ddf35076383E
	.p2align	4, 0x90
__ZN4core3fmt8builders9DebugList7entries17ha5590ddf35076383E:
Lfunc_begin121:
	.file	57 "/rustc/2c8cc343237b8f7d5a3c3703e3a87f2eb2c54a74/library/core/src/fmt" "builders.rs"
	.loc	57 627 0
	.cfi_startproc
	.cfi_personality 155, _rust_eh_personality
	.cfi_lsda 16, Lexception31
	pushq	%rbp
	.cfi_def_cfa_offset 16
	.cfi_offset %rbp, -16
	movq	%rsp, %rbp
	.cfi_def_cfa_register %rbp
	subq	$240, %rsp
	movq	%rdi, -232(%rbp)
	movq	%rdi, -24(%rbp)
Ltmp1012:
	.loc	57 632 22 prologue_end
	leaq	-184(%rbp), %rdi
	movl	$40, %edx
	callq	_memcpy
Ltmp1013:
	leaq	-224(%rbp), %rdi
	leaq	-184(%rbp), %rsi
	callq	__ZN63_$LT$I$u20$as$u20$core..iter..traits..collect..IntoIterator$GT$9into_iter17hc9962d70cc6f8fe5E
	leaq	-144(%rbp), %rdi
	leaq	-224(%rbp), %rsi
	movl	$40, %edx
	callq	_memcpy
Ltmp1014:
LBB121_1:
Ltmp999:
	.loc	57 0 22 is_stmt 0
	leaq	-104(%rbp), %rdi
	leaq	-144(%rbp), %rsi
Ltmp1015:
	.loc	57 632 22
	callq	__ZN94_$LT$proc_macro2..token_stream..IntoIter$u20$as$u20$core..iter..traits..iterator..Iterator$GT$4next17ha7d7184a272ea5c9E
Ltmp1000:
	jmp	LBB121_4
Ltmp1016:
LBB121_2:
Ltmp1009:
	.loc	57 0 22
	leaq	-144(%rbp), %rdi
	.loc	57 632 9
	callq	__ZN4core3ptr56drop_in_place$LT$proc_macro2..token_stream..IntoIter$GT$17h671ab9d82e552e5dE
Ltmp1010:
	jmp	LBB121_12
Ltmp1017:
LBB121_3:
Ltmp1008:
	.loc	57 0 9
	movq	%rax, %rcx
	movl	%edx, %eax
	movq	%rcx, -16(%rbp)
	movl	%eax, -8(%rbp)
	jmp	LBB121_2
Ltmp1018:
LBB121_4:
	.loc	57 632 22
	movl	$1, %eax
	xorl	%ecx, %ecx
	cmpl	$4, -104(%rbp)
	cmoveq	%rcx, %rax
	cmpq	$0, %rax
	jne	LBB121_6
Ltmp1019:
	.loc	57 632 9
	leaq	-144(%rbp), %rdi
	callq	__ZN4core3ptr56drop_in_place$LT$proc_macro2..token_stream..IntoIter$GT$17h671ab9d82e552e5dE
	movq	-232(%rbp), %rax
	.loc	57 636 6 is_stmt 1
	addq	$240, %rsp
	popq	%rbp
	retq
Ltmp1020:
LBB121_6:
	.loc	57 0 6 is_stmt 0
	movq	-232(%rbp), %rdi
Ltmp1021:
	.loc	57 632 13 is_stmt 1
	movq	-72(%rbp), %rax
	movq	%rax, -32(%rbp)
	movq	-80(%rbp), %rax
	movq	%rax, -40(%rbp)
	movq	-88(%rbp), %rax
	movq	%rax, -48(%rbp)
	movq	-104(%rbp), %rax
	movq	-96(%rbp), %rcx
	movq	%rcx, -56(%rbp)
	movq	%rax, -64(%rbp)
Ltmp1001:
Ltmp1022:
	.loc	57 633 13
	leaq	l___unnamed_5(%rip), %rdx
	leaq	-64(%rbp), %rsi
	callq	__ZN4core3fmt8builders9DebugList5entry17h90e9fab3d6cede22E
Ltmp1002:
	jmp	LBB121_9
Ltmp1023:
LBB121_7:
Ltmp1004:
	.loc	57 0 13 is_stmt 0
	leaq	-64(%rbp), %rdi
	.loc	57 634 9 is_stmt 1
	callq	__ZN4core3ptr43drop_in_place$LT$proc_macro2..TokenTree$GT$17h4cc64953ccd281d1E
Ltmp1005:
	jmp	LBB121_2
Ltmp1024:
LBB121_8:
Ltmp1003:
	.loc	57 0 9 is_stmt 0
	movq	%rax, %rcx
	movl	%edx, %eax
	movq	%rcx, -16(%rbp)
	movl	%eax, -8(%rbp)
	jmp	LBB121_7
Ltmp1025:
LBB121_9:
Ltmp1006:
	leaq	-64(%rbp), %rdi
	.loc	57 634 9
	callq	__ZN4core3ptr43drop_in_place$LT$proc_macro2..TokenTree$GT$17h4cc64953ccd281d1E
Ltmp1007:
	jmp	LBB121_11
Ltmp1026:
LBB121_10:
Ltmp1011:
	.loc	57 627 5 is_stmt 1
	callq	__ZN4core9panicking19panic_cannot_unwind17h1fbca7e1d7f56ae1E
Ltmp1027:
LBB121_11:
	.loc	57 632 9
	jmp	LBB121_1
Ltmp1028:
LBB121_12:
	.loc	57 627 5
	movq	-16(%rbp), %rdi
	callq	__Unwind_Resume
Ltmp1029:
Lfunc_end121:
	.cfi_endproc
	.section	__TEXT,__gcc_except_tab
	.p2align	2
GCC_except_table121:
Lexception31:
	.byte	255
	.byte	255
	.byte	1
	.uleb128 Lcst_end31-Lcst_begin31
Lcst_begin31:
	.uleb128 Lfunc_begin121-Lfunc_begin121
	.uleb128 Ltmp999-Lfunc_begin121
	.byte	0
	.byte	0
	.uleb128 Ltmp999-Lfunc_begin121
	.uleb128 Ltmp1000-Ltmp999
	.uleb128 Ltmp1008-Lfunc_begin121
	.byte	0
	.uleb128 Ltmp1009-Lfunc_begin121
	.uleb128 Ltmp1010-Ltmp1009
	.uleb128 Ltmp1011-Lfunc_begin121
	.byte	0
	.uleb128 Ltmp1010-Lfunc_begin121
	.uleb128 Ltmp1001-Ltmp1010
	.byte	0
	.byte	0
	.uleb128 Ltmp1001-Lfunc_begin121
	.uleb128 Ltmp1002-Ltmp1001
	.uleb128 Ltmp1003-Lfunc_begin121
	.byte	0
	.uleb128 Ltmp1004-Lfunc_begin121
	.uleb128 Ltmp1005-Ltmp1004
	.uleb128 Ltmp1011-Lfunc_begin121
	.byte	0
	.uleb128 Ltmp1006-Lfunc_begin121
	.uleb128 Ltmp1007-Ltmp1006
	.uleb128 Ltmp1008-Lfunc_begin121
	.byte	0
	.uleb128 Ltmp1007-Lfunc_begin121
	.uleb128 Lfunc_end121-Ltmp1007
	.byte	0
	.byte	0
Lcst_end31:
	.p2align	2

	.section	__TEXT,__text,regular,pure_instructions
	.globl	__ZN4core3fmt8builders9DebugList7entries17hf4cb5da5bd22f3c0E
	.p2align	4, 0x90
__ZN4core3fmt8builders9DebugList7entries17hf4cb5da5bd22f3c0E:
Lfunc_begin122:
	.loc	57 627 0
	.cfi_startproc
	.cfi_personality 155, _rust_eh_personality
	.cfi_lsda 16, Lexception32
	pushq	%rbp
	.cfi_def_cfa_offset 16
	.cfi_offset %rbp, -16
	movq	%rsp, %rbp
	.cfi_def_cfa_register %rbp
	subq	$192, %rsp
	movq	%rdi, -184(%rbp)
	movq	%rdi, -32(%rbp)
	movq	%rsi, -24(%rbp)
Ltmp1043:
	.loc	57 632 22 prologue_end
	leaq	-176(%rbp), %rdi
	callq	__ZN96_$LT$proc_macro2..fallback..TokenStream$u20$as$u20$core..iter..traits..collect..IntoIterator$GT$9into_iter17hd7d4c9a26be6ad94E
	movq	-176(%rbp), %rax
	movq	%rax, -144(%rbp)
	movq	-168(%rbp), %rax
	movq	%rax, -136(%rbp)
	movq	-160(%rbp), %rax
	movq	%rax, -128(%rbp)
	movq	-152(%rbp), %rax
	movq	%rax, -120(%rbp)
LBB122_1:
Ltmp1030:
	.loc	57 0 22 is_stmt 0
	leaq	-112(%rbp), %rdi
	leaq	-144(%rbp), %rsi
Ltmp1044:
	.loc	57 632 22
	callq	__ZN101_$LT$proc_macro2..rcvec..RcVecIntoIter$LT$T$GT$$u20$as$u20$core..iter..traits..iterator..Iterator$GT$4next17hccf3e3b50502f0f1E
Ltmp1031:
	jmp	LBB122_4
Ltmp1045:
LBB122_2:
Ltmp1040:
	.loc	57 0 22
	leaq	-144(%rbp), %rdi
	.loc	57 632 9
	callq	__ZN4core3ptr84drop_in_place$LT$proc_macro2..rcvec..RcVecIntoIter$LT$proc_macro2..TokenTree$GT$$GT$17h80d8808ab6cc6e27E
Ltmp1041:
	jmp	LBB122_12
LBB122_3:
Ltmp1039:
	.loc	57 0 9
	movq	%rax, %rcx
	movl	%edx, %eax
	movq	%rcx, -16(%rbp)
	movl	%eax, -8(%rbp)
	jmp	LBB122_2
LBB122_4:
Ltmp1046:
	.loc	57 632 22
	movl	$1, %eax
	xorl	%ecx, %ecx
	cmpl	$4, -112(%rbp)
	cmoveq	%rcx, %rax
	cmpq	$0, %rax
	jne	LBB122_6
Ltmp1047:
	.loc	57 632 9
	leaq	-144(%rbp), %rdi
	callq	__ZN4core3ptr84drop_in_place$LT$proc_macro2..rcvec..RcVecIntoIter$LT$proc_macro2..TokenTree$GT$$GT$17h80d8808ab6cc6e27E
	movq	-184(%rbp), %rax
	.loc	57 636 6 is_stmt 1
	addq	$192, %rsp
	popq	%rbp
	retq
LBB122_6:
	.loc	57 0 6 is_stmt 0
	movq	-184(%rbp), %rdi
Ltmp1048:
	.loc	57 632 13 is_stmt 1
	movq	-80(%rbp), %rax
	movq	%rax, -40(%rbp)
	movq	-88(%rbp), %rax
	movq	%rax, -48(%rbp)
	movq	-96(%rbp), %rax
	movq	%rax, -56(%rbp)
	movq	-112(%rbp), %rax
	movq	-104(%rbp), %rcx
	movq	%rcx, -64(%rbp)
	movq	%rax, -72(%rbp)
Ltmp1032:
Ltmp1049:
	.loc	57 633 13
	leaq	l___unnamed_5(%rip), %rdx
	leaq	-72(%rbp), %rsi
	callq	__ZN4core3fmt8builders9DebugList5entry17h90e9fab3d6cede22E
Ltmp1033:
	jmp	LBB122_9
Ltmp1050:
LBB122_7:
Ltmp1035:
	.loc	57 0 13 is_stmt 0
	leaq	-72(%rbp), %rdi
	.loc	57 634 9 is_stmt 1
	callq	__ZN4core3ptr43drop_in_place$LT$proc_macro2..TokenTree$GT$17h4cc64953ccd281d1E
Ltmp1036:
	jmp	LBB122_2
LBB122_8:
Ltmp1034:
	.loc	57 0 9 is_stmt 0
	movq	%rax, %rcx
	movl	%edx, %eax
	movq	%rcx, -16(%rbp)
	movl	%eax, -8(%rbp)
	jmp	LBB122_7
LBB122_9:
Ltmp1037:
	leaq	-72(%rbp), %rdi
	.loc	57 634 9
	callq	__ZN4core3ptr43drop_in_place$LT$proc_macro2..TokenTree$GT$17h4cc64953ccd281d1E
Ltmp1038:
	jmp	LBB122_11
Ltmp1051:
LBB122_10:
Ltmp1042:
	.loc	57 627 5 is_stmt 1
	callq	__ZN4core9panicking19panic_cannot_unwind17h1fbca7e1d7f56ae1E
LBB122_11:
Ltmp1052:
	.loc	57 632 9
	jmp	LBB122_1
Ltmp1053:
LBB122_12:
	.loc	57 627 5
	movq	-16(%rbp), %rdi
	callq	__Unwind_Resume
Ltmp1054:
Lfunc_end122:
	.cfi_endproc
	.section	__TEXT,__gcc_except_tab
	.p2align	2
GCC_except_table122:
Lexception32:
	.byte	255
	.byte	255
	.byte	1
	.uleb128 Lcst_end32-Lcst_begin32
Lcst_begin32:
	.uleb128 Lfunc_begin122-Lfunc_begin122
	.uleb128 Ltmp1030-Lfunc_begin122
	.byte	0
	.byte	0
	.uleb128 Ltmp1030-Lfunc_begin122
	.uleb128 Ltmp1031-Ltmp1030
	.uleb128 Ltmp1039-Lfunc_begin122
	.byte	0
	.uleb128 Ltmp1040-Lfunc_begin122
	.uleb128 Ltmp1041-Ltmp1040
	.uleb128 Ltmp1042-Lfunc_begin122
	.byte	0
	.uleb128 Ltmp1041-Lfunc_begin122
	.uleb128 Ltmp1032-Ltmp1041
	.byte	0
	.byte	0
	.uleb128 Ltmp1032-Lfunc_begin122
	.uleb128 Ltmp1033-Ltmp1032
	.uleb128 Ltmp1034-Lfunc_begin122
	.byte	0
	.uleb128 Ltmp1035-Lfunc_begin122
	.uleb128 Ltmp1036-Ltmp1035
	.uleb128 Ltmp1042-Lfunc_begin122
	.byte	0
	.uleb128 Ltmp1037-Lfunc_begin122
	.uleb128 Ltmp1038-Ltmp1037
	.uleb128 Ltmp1039-Lfunc_begin122
	.byte	0
	.uleb128 Ltmp1038-Lfunc_begin122
	.uleb128 Lfunc_end122-Ltmp1038
	.byte	0
	.byte	0
Lcst_end32:
	.p2align	2

	.section	__TEXT,__text,regular,pure_instructions
	.p2align	4, 0x90
__ZN4core3fmt9Arguments16new_v1_formatted17h5c4eaee840a76604E:
Lfunc_begin123:
	.loc	47 419 0
	.cfi_startproc
	pushq	%rbp
	.cfi_def_cfa_offset 16
	.cfi_offset %rbp, -16
	movq	%rsp, %rbp
	.cfi_def_cfa_register %rbp
	subq	$72, %rsp
	movq	%r9, %r10
	movq	%rdi, %rax
	movq	16(%rbp), %r9
	movq	%rsi, -56(%rbp)
	movq	%rdx, -48(%rbp)
	movq	%rcx, -40(%rbp)
	movq	%r8, -32(%rbp)
	movq	%r10, -24(%rbp)
	movq	%r9, -16(%rbp)
Ltmp1055:
	.loc	47 425 34 prologue_end
	movq	%r10, -72(%rbp)
	movq	%r9, -64(%rbp)
	.loc	47 425 9 is_stmt 0
	movq	%rsi, 16(%rdi)
	movq	%rdx, 24(%rdi)
	movq	-72(%rbp), %rsi
	movq	-64(%rbp), %rdx
	movq	%rsi, (%rdi)
	movq	%rdx, 8(%rdi)
	movq	%rcx, 32(%rdi)
	movq	%r8, 40(%rdi)
	.loc	47 426 6 is_stmt 1
	addq	$72, %rsp
	popq	%rbp
	retq
Ltmp1056:
Lfunc_end123:
	.cfi_endproc

	.p2align	4, 0x90
__ZN4core3fmt9Arguments6as_str17h5c60356bac388f79E:
Lfunc_begin124:
	.loc	47 521 0
	.cfi_startproc
	pushq	%rbp
	.cfi_def_cfa_offset 16
	.cfi_offset %rbp, -16
	movq	%rsp, %rbp
	.cfi_def_cfa_register %rbp
	subq	$64, %rsp
	movq	%rdi, -16(%rbp)
Ltmp1057:
	.loc	47 522 16 prologue_end
	movq	16(%rdi), %rsi
	movq	24(%rdi), %rdx
	.loc	47 522 29 is_stmt 0
	movq	32(%rdi), %rcx
	movq	40(%rdi), %rax
	.loc	47 522 15
	movq	%rsi, -48(%rbp)
	movq	%rdx, -40(%rbp)
	movq	%rcx, -32(%rbp)
	movq	%rax, -24(%rbp)
	.loc	47 523 14 is_stmt 1
	cmpq	$0, -40(%rbp)
	je	LBB124_2
	.loc	47 524 14
	cmpq	$1, -40(%rbp)
	je	LBB124_6
	jmp	LBB124_3
LBB124_2:
	.loc	47 523 18
	cmpq	$0, -24(%rbp)
	je	LBB124_4
LBB124_3:
	.loc	47 525 18
	movq	$0, -64(%rbp)
	jmp	LBB124_5
LBB124_4:
	.loc	47 523 25
	leaq	l___unnamed_28(%rip), %rax
	movq	%rax, -64(%rbp)
	movq	$0, -56(%rbp)
LBB124_5:
	.loc	47 527 6
	movq	-64(%rbp), %rax
	movq	-56(%rbp), %rdx
	addq	$64, %rsp
	popq	%rbp
	retq
LBB124_6:
	.loc	47 524 19
	cmpq	$0, -24(%rbp)
	jne	LBB124_3
	.loc	47 524 15 is_stmt 0
	movq	-48(%rbp), %rax
	movq	%rax, -8(%rbp)
Ltmp1058:
	.loc	47 524 31
	movq	(%rax), %rcx
	movq	8(%rax), %rax
	.loc	47 524 26
	movq	%rcx, -64(%rbp)
	movq	%rax, -56(%rbp)
Ltmp1059:
	.loc	47 524 32
	jmp	LBB124_5
Ltmp1060:
Lfunc_end124:
	.cfi_endproc

	.p2align	4, 0x90
__ZN4core3fmt9Arguments6new_v117h703d6c2f2dbd3ae1E:
Lfunc_begin125:
	.loc	47 399 0 is_stmt 1
	.cfi_startproc
	pushq	%rbp
	.cfi_def_cfa_offset 16
	.cfi_offset %rbp, -16
	movq	%rsp, %rbp
	.cfi_def_cfa_register %rbp
	subq	$160, %rsp
	movq	%r8, -152(%rbp)
	movq	%rcx, -144(%rbp)
	movq	%rdx, -136(%rbp)
	movq	%rsi, -128(%rbp)
	movq	%rdi, -120(%rbp)
	movq	%rdi, -112(%rbp)
	movq	%rsi, -32(%rbp)
	movq	%rdx, -24(%rbp)
	movq	%rcx, -16(%rbp)
	movq	%r8, -8(%rbp)
Ltmp1061:
	.loc	47 400 12 prologue_end
	cmpq	%r8, %rdx
	jb	LBB125_2
	.loc	47 0 12 is_stmt 0
	movq	-136(%rbp), %rax
	movq	-152(%rbp), %rcx
	.loc	47 400 56
	addq	$1, %rcx
	.loc	47 400 41
	cmpq	%rcx, %rax
	seta	%al
	.loc	47 400 12
	andb	$1, %al
	movb	%al, -97(%rbp)
	jmp	LBB125_3
LBB125_2:
	movb	$1, -97(%rbp)
LBB125_3:
	testb	$1, -97(%rbp)
	jne	LBB125_5
	.loc	47 0 12
	movq	-112(%rbp), %rax
	movq	-120(%rbp), %rcx
	movq	-152(%rbp), %rdx
	movq	-144(%rbp), %rsi
	movq	-136(%rbp), %rdi
	movq	-128(%rbp), %r8
	.loc	47 403 34 is_stmt 1
	movq	$0, -48(%rbp)
	.loc	47 403 9 is_stmt 0
	movq	%r8, 16(%rcx)
	movq	%rdi, 24(%rcx)
	movq	-48(%rbp), %r8
	movq	-40(%rbp), %rdi
	movq	%r8, (%rcx)
	movq	%rdi, 8(%rcx)
	movq	%rsi, 32(%rcx)
	movq	%rdx, 40(%rcx)
	.loc	47 404 6 is_stmt 1
	addq	$160, %rsp
	popq	%rbp
	retq
LBB125_5:
	.loc	47 401 13
	leaq	l___unnamed_29(%rip), %rsi
	leaq	l___unnamed_28(%rip), %rcx
	xorl	%eax, %eax
	movl	%eax, %r8d
	leaq	-96(%rbp), %rdi
	movq	%rdi, -160(%rbp)
	movl	$1, %edx
	callq	__ZN4core3fmt9Arguments6new_v117h703d6c2f2dbd3ae1E
	movq	-160(%rbp), %rdi
	leaq	l___unnamed_30(%rip), %rsi
	callq	__ZN4core9panicking9panic_fmt17h9b5d807e24bcaaedE
Ltmp1062:
Lfunc_end125:
	.cfi_endproc

	.globl	__ZN4core3mem7replace17h1d1141857a7725c5E
	.p2align	4, 0x90
__ZN4core3mem7replace17h1d1141857a7725c5E:
Lfunc_begin126:
	.loc	10 905 0
	.cfi_startproc
	pushq	%rbp
	.cfi_def_cfa_offset 16
	.cfi_offset %rbp, -16
	movq	%rsp, %rbp
	.cfi_def_cfa_register %rbp
	subq	$88, %rsp
	movq	%rdi, -88(%rbp)
	movb	%sil, %al
	movb	%al, -76(%rbp)
	movq	%rdi, -72(%rbp)
	andb	$1, %al
	movb	%al, -57(%rbp)
Ltmp1063:
	.loc	10 910 32 prologue_end
	movq	%rdi, -56(%rbp)
Ltmp1064:
	.loc	4 1157 34
	leaq	-73(%rbp), %rax
	movq	%rax, -48(%rbp)
	.loc	4 1157 9 is_stmt 0
	movb	(%rdi), %al
	movb	%al, -73(%rbp)
	.loc	4 1158 9 is_stmt 1
	movb	-73(%rbp), %al
	movb	%al, -75(%rbp)
	movb	%al, -33(%rbp)
	.loc	4 0 9 is_stmt 0
	movb	-75(%rbp), %al
	movq	-88(%rbp), %rcx
	movb	-76(%rbp), %dl
Ltmp1065:
	.loc	5 627 38 is_stmt 1
	movb	%al, %sil
	andb	$1, %sil
	movb	%sil, -10(%rbp)
Ltmp1066:
	.loc	6 89 9
	movb	%al, %sil
	andb	$1, %sil
	movb	%sil, -9(%rbp)
Ltmp1067:
	.loc	10 911 20
	movq	%rcx, -8(%rbp)
	.loc	10 911 26 is_stmt 0
	andb	$1, %dl
	movb	%dl, -74(%rbp)
Ltmp1068:
	.loc	4 1354 9 is_stmt 1
	movb	-74(%rbp), %dl
	movb	%dl, (%rcx)
Ltmp1069:
	.loc	10 914 2
	andb	$1, %al
	movzbl	%al, %eax
	addq	$88, %rsp
	popq	%rbp
	retq
Ltmp1070:
Lfunc_end126:
	.cfi_endproc

	.globl	__ZN4core3mem7replace17h2f2b6f4ee914ef1aE
	.p2align	4, 0x90
__ZN4core3mem7replace17h2f2b6f4ee914ef1aE:
Lfunc_begin127:
	.loc	10 905 0
	.cfi_startproc
	pushq	%rbp
	.cfi_def_cfa_offset 16
	.cfi_offset %rbp, -16
	movq	%rsp, %rbp
	.cfi_def_cfa_register %rbp
	subq	$96, %rsp
	movq	%rdi, -96(%rbp)
	movl	%esi, -88(%rbp)
	movq	%rdi, -72(%rbp)
	movl	%esi, -60(%rbp)
Ltmp1071:
	.loc	10 910 32 prologue_end
	movq	%rdi, -56(%rbp)
Ltmp1072:
	.loc	4 1157 34
	leaq	-76(%rbp), %rax
	movq	%rax, -48(%rbp)
	.loc	4 1157 9 is_stmt 0
	movl	(%rdi), %eax
	movl	%eax, -76(%rbp)
	.loc	4 1158 9 is_stmt 1
	movl	-76(%rbp), %eax
	movl	%eax, -84(%rbp)
	movl	%eax, -36(%rbp)
	.loc	4 0 9 is_stmt 0
	movl	-84(%rbp), %eax
	movq	-96(%rbp), %rcx
	movl	-88(%rbp), %edx
Ltmp1073:
	.loc	5 627 38 is_stmt 1
	movl	%eax, -16(%rbp)
Ltmp1074:
	.loc	6 89 9
	movl	%eax, -12(%rbp)
Ltmp1075:
	.loc	10 911 20
	movq	%rcx, -8(%rbp)
	.loc	10 911 26 is_stmt 0
	movl	%edx, -80(%rbp)
Ltmp1076:
	.loc	4 1354 9 is_stmt 1
	movl	-80(%rbp), %edx
	movl	%edx, (%rcx)
Ltmp1077:
	.loc	10 914 2
	addq	$96, %rsp
	popq	%rbp
	retq
Ltmp1078:
Lfunc_end127:
	.cfi_endproc

	.globl	__ZN4core3mem7replace17h4eeabc83ad73388dE
	.p2align	4, 0x90
__ZN4core3mem7replace17h4eeabc83ad73388dE:
Lfunc_begin128:
	.loc	10 905 0
	.cfi_startproc
	pushq	%rbp
	.cfi_def_cfa_offset 16
	.cfi_offset %rbp, -16
	movq	%rsp, %rbp
	.cfi_def_cfa_register %rbp
	subq	$184, %rsp
	movq	%rdi, -184(%rbp)
	movq	%rsi, -176(%rbp)
	movq	%rdx, -168(%rbp)
	movq	%rdi, -112(%rbp)
	movq	%rsi, -104(%rbp)
	movq	%rdx, -96(%rbp)
Ltmp1079:
	.loc	10 910 32 prologue_end
	movq	%rdi, -88(%rbp)
Ltmp1080:
	.loc	4 1157 34
	leaq	-128(%rbp), %rax
	movq	%rax, -80(%rbp)
	.loc	4 1157 9 is_stmt 0
	movq	(%rdi), %rax
	movq	%rax, -128(%rbp)
	movq	8(%rdi), %rax
	movq	%rax, -120(%rbp)
	.loc	4 1158 9 is_stmt 1
	movq	-128(%rbp), %rcx
	movq	%rcx, -160(%rbp)
	movq	-120(%rbp), %rax
	movq	%rax, -152(%rbp)
	movq	%rcx, -72(%rbp)
	movq	%rax, -64(%rbp)
	.loc	4 0 9 is_stmt 0
	movq	-152(%rbp), %rdx
	movq	-160(%rbp), %rax
	movq	-184(%rbp), %rcx
	movq	-168(%rbp), %rsi
	movq	-176(%rbp), %rdi
Ltmp1081:
	.loc	5 627 38 is_stmt 1
	movq	%rax, -40(%rbp)
	movq	%rdx, -32(%rbp)
Ltmp1082:
	.loc	6 89 9
	movq	%rax, -24(%rbp)
	movq	%rdx, -16(%rbp)
Ltmp1083:
	.loc	10 911 20
	movq	%rcx, -8(%rbp)
	.loc	10 911 26 is_stmt 0
	movq	%rdi, -144(%rbp)
	movq	%rsi, -136(%rbp)
Ltmp1084:
	.loc	4 1354 9 is_stmt 1
	movq	-144(%rbp), %rsi
	movq	-136(%rbp), %rdi
	movq	%rdi, 8(%rcx)
	movq	%rsi, (%rcx)
Ltmp1085:
	.loc	10 914 2
	addq	$184, %rsp
	popq	%rbp
	retq
Ltmp1086:
Lfunc_end128:
	.cfi_endproc

	.globl	__ZN4core3mem7replace17h5b7f23c7a0739101E
	.p2align	4, 0x90
__ZN4core3mem7replace17h5b7f23c7a0739101E:
Lfunc_begin129:
	.loc	10 905 0
	.cfi_startproc
	pushq	%rbp
	.cfi_def_cfa_offset 16
	.cfi_offset %rbp, -16
	movq	%rsp, %rbp
	.cfi_def_cfa_register %rbp
	subq	$176, %rsp
	movq	%rdx, -176(%rbp)
Ltmp1087:
	movq	%rsi, -168(%rbp)
	movq	%rdi, -160(%rbp)
	movq	%rdi, -152(%rbp)
	movq	%rsi, -48(%rbp)
Ltmp1088:
	.loc	10 910 32 prologue_end
	movq	%rsi, -40(%rbp)
Ltmp1089:
	.loc	4 1157 34
	leaq	-120(%rbp), %rax
	movq	%rax, -32(%rbp)
	.loc	4 1157 9 is_stmt 0
	movq	(%rsi), %rax
	movq	%rax, -120(%rbp)
	movq	8(%rsi), %rax
	movq	%rax, -112(%rbp)
	movq	16(%rsi), %rax
	movq	%rax, -104(%rbp)
	.loc	4 1158 9 is_stmt 1
	movq	-120(%rbp), %rax
	movq	%rax, -96(%rbp)
	movq	-112(%rbp), %rax
	movq	%rax, -88(%rbp)
	movq	-104(%rbp), %rax
	movq	%rax, -80(%rbp)
Ltmp1090:
	.loc	4 0 9 is_stmt 0
	movq	-152(%rbp), %rax
	movq	-168(%rbp), %rcx
	movq	-176(%rbp), %rdx
	movq	-160(%rbp), %rsi
Ltmp1091:
	.loc	5 627 38 is_stmt 1
	movq	-96(%rbp), %rdi
	movq	%rdi, -72(%rbp)
	movq	-88(%rbp), %rdi
	movq	%rdi, -64(%rbp)
	movq	-80(%rbp), %rdi
	movq	%rdi, -56(%rbp)
Ltmp1092:
	.loc	6 89 9
	movq	-72(%rbp), %rdi
	movq	%rdi, (%rsi)
	movq	-64(%rbp), %rdi
	movq	%rdi, 8(%rsi)
	movq	-56(%rbp), %rdi
	movq	%rdi, 16(%rsi)
Ltmp1093:
	.loc	10 911 20
	movq	%rcx, -8(%rbp)
	.loc	10 911 26 is_stmt 0
	movq	(%rdx), %rsi
	movq	%rsi, -144(%rbp)
	movq	8(%rdx), %rsi
	movq	%rsi, -136(%rbp)
	movq	16(%rdx), %rdx
	movq	%rdx, -128(%rbp)
Ltmp1094:
	.loc	4 1354 9 is_stmt 1
	movq	-144(%rbp), %rdx
	movq	%rdx, (%rcx)
	movq	-136(%rbp), %rdx
	movq	%rdx, 8(%rcx)
	movq	-128(%rbp), %rdx
	movq	%rdx, 16(%rcx)
Ltmp1095:
	.loc	10 914 2
	addq	$176, %rsp
	popq	%rbp
	retq
Ltmp1096:
Lfunc_end129:
	.cfi_endproc

	.globl	__ZN4core3mem7replace17h715a6aca8c7d144eE
	.p2align	4, 0x90
__ZN4core3mem7replace17h715a6aca8c7d144eE:
Lfunc_begin130:
	.loc	10 905 0
	.cfi_startproc
	pushq	%rbp
	.cfi_def_cfa_offset 16
	.cfi_offset %rbp, -16
	movq	%rsp, %rbp
	.cfi_def_cfa_register %rbp
	subq	$184, %rsp
	movq	%rdi, -184(%rbp)
	movq	%rsi, -176(%rbp)
	movl	%edx, -164(%rbp)
	movq	%rdi, -112(%rbp)
	movq	%rsi, -104(%rbp)
	movl	%edx, -96(%rbp)
Ltmp1097:
	.loc	10 910 32 prologue_end
	movq	%rdi, -88(%rbp)
Ltmp1098:
	.loc	4 1157 34
	leaq	-128(%rbp), %rax
	movq	%rax, -80(%rbp)
	.loc	4 1157 9 is_stmt 0
	movq	(%rdi), %rax
	movq	%rax, -128(%rbp)
	movq	8(%rdi), %rax
	movq	%rax, -120(%rbp)
	.loc	4 1158 9 is_stmt 1
	movq	-128(%rbp), %rcx
	movq	%rcx, -160(%rbp)
	movl	-120(%rbp), %eax
	movl	%eax, -148(%rbp)
	movq	%rcx, -72(%rbp)
	movl	%eax, -64(%rbp)
	.loc	4 0 9 is_stmt 0
	movl	-148(%rbp), %edx
	movq	-160(%rbp), %rax
	movq	-184(%rbp), %rcx
	movl	-164(%rbp), %esi
	movq	-176(%rbp), %rdi
Ltmp1099:
	.loc	5 627 38 is_stmt 1
	movq	%rax, -40(%rbp)
	movl	%edx, -32(%rbp)
Ltmp1100:
	.loc	6 89 9
	movq	%rax, -24(%rbp)
	movl	%edx, -16(%rbp)
Ltmp1101:
	.loc	10 911 20
	movq	%rcx, -8(%rbp)
	.loc	10 911 26 is_stmt 0
	movq	%rdi, -144(%rbp)
	movl	%esi, -136(%rbp)
Ltmp1102:
	.loc	4 1354 9 is_stmt 1
	movq	-144(%rbp), %rsi
	movq	-136(%rbp), %rdi
	movq	%rdi, 8(%rcx)
	movq	%rsi, (%rcx)
Ltmp1103:
	.loc	10 914 2
	addq	$184, %rsp
	popq	%rbp
	retq
Ltmp1104:
Lfunc_end130:
	.cfi_endproc

	.globl	__ZN4core3mem7replace17h8c5dd777a0683f6cE
	.p2align	4, 0x90
__ZN4core3mem7replace17h8c5dd777a0683f6cE:
Lfunc_begin131:
	.loc	10 905 0
	.cfi_startproc
	pushq	%rbp
	.cfi_def_cfa_offset 16
	.cfi_offset %rbp, -16
	movq	%rsp, %rbp
	.cfi_def_cfa_register %rbp
	subq	$184, %rsp
	movq	%rdi, -184(%rbp)
	movq	%rsi, -176(%rbp)
	movq	%rdx, -168(%rbp)
	movq	%rdi, -112(%rbp)
	movq	%rsi, -104(%rbp)
	movq	%rdx, -96(%rbp)
Ltmp1105:
	.loc	10 910 32 prologue_end
	movq	%rdi, -88(%rbp)
Ltmp1106:
	.loc	4 1157 34
	leaq	-128(%rbp), %rax
	movq	%rax, -80(%rbp)
	.loc	4 1157 9 is_stmt 0
	movq	(%rdi), %rax
	movq	%rax, -128(%rbp)
	movq	8(%rdi), %rax
	movq	%rax, -120(%rbp)
	.loc	4 1158 9 is_stmt 1
	movq	-128(%rbp), %rcx
	movq	%rcx, -160(%rbp)
	movq	-120(%rbp), %rax
	movq	%rax, -152(%rbp)
	movq	%rcx, -72(%rbp)
	movq	%rax, -64(%rbp)
	.loc	4 0 9 is_stmt 0
	movq	-152(%rbp), %rdx
	movq	-160(%rbp), %rax
	movq	-184(%rbp), %rcx
	movq	-168(%rbp), %rsi
	movq	-176(%rbp), %rdi
Ltmp1107:
	.loc	5 627 38 is_stmt 1
	movq	%rax, -40(%rbp)
	movq	%rdx, -32(%rbp)
Ltmp1108:
	.loc	6 89 9
	movq	%rax, -24(%rbp)
	movq	%rdx, -16(%rbp)
Ltmp1109:
	.loc	10 911 20
	movq	%rcx, -8(%rbp)
	.loc	10 911 26 is_stmt 0
	movq	%rdi, -144(%rbp)
	movq	%rsi, -136(%rbp)
Ltmp1110:
	.loc	4 1354 9 is_stmt 1
	movq	-144(%rbp), %rsi
	movq	-136(%rbp), %rdi
	movq	%rdi, 8(%rcx)
	movq	%rsi, (%rcx)
Ltmp1111:
	.loc	10 914 2
	addq	$184, %rsp
	popq	%rbp
	retq
Ltmp1112:
Lfunc_end131:
	.cfi_endproc

	.globl	__ZN4core3mem7replace17ha0398c3d3520ff14E
	.p2align	4, 0x90
__ZN4core3mem7replace17ha0398c3d3520ff14E:
Lfunc_begin132:
	.loc	10 905 0
	.cfi_startproc
	pushq	%rbp
	.cfi_def_cfa_offset 16
	.cfi_offset %rbp, -16
	movq	%rsp, %rbp
	.cfi_def_cfa_register %rbp
	subq	$120, %rsp
	movq	%rdi, -120(%rbp)
	movq	%rsi, -112(%rbp)
	movq	%rdi, -80(%rbp)
	movq	%rsi, -72(%rbp)
Ltmp1113:
	.loc	10 910 32 prologue_end
	movq	%rdi, -64(%rbp)
Ltmp1114:
	.loc	4 1157 34
	leaq	-88(%rbp), %rax
	movq	%rax, -56(%rbp)
	.loc	4 1157 9 is_stmt 0
	movq	(%rdi), %rax
	movq	%rax, -88(%rbp)
	.loc	4 1158 9 is_stmt 1
	movq	-88(%rbp), %rax
	movq	%rax, -104(%rbp)
	movq	%rax, -48(%rbp)
	.loc	4 0 9 is_stmt 0
	movq	-104(%rbp), %rax
	movq	-120(%rbp), %rcx
	movq	-112(%rbp), %rdx
Ltmp1115:
	.loc	5 627 38 is_stmt 1
	movq	%rax, -24(%rbp)
Ltmp1116:
	.loc	6 89 9
	movq	%rax, -16(%rbp)
Ltmp1117:
	.loc	10 911 20
	movq	%rcx, -8(%rbp)
	.loc	10 911 26 is_stmt 0
	movq	%rdx, -96(%rbp)
Ltmp1118:
	.loc	4 1354 9 is_stmt 1
	movq	-96(%rbp), %rdx
	movq	%rdx, (%rcx)
Ltmp1119:
	.loc	10 914 2
	addq	$120, %rsp
	popq	%rbp
	retq
Ltmp1120:
Lfunc_end132:
	.cfi_endproc

	.p2align	4, 0x90
__ZN4core3num23_$LT$impl$u20$usize$GT$11checked_add17hcb88f413679f8a1dE:
Lfunc_begin133:
	.loc	11 442 0
	.cfi_startproc
	pushq	%rbp
	.cfi_def_cfa_offset 16
	.cfi_offset %rbp, -16
	movq	%rsp, %rbp
	.cfi_def_cfa_register %rbp
	subq	$120, %rsp
	movq	%rdi, -80(%rbp)
	movq	%rsi, -72(%rbp)
Ltmp1121:
	.loc	11 443 26 prologue_end
	movq	%rdi, -64(%rbp)
	.loc	11 443 47 is_stmt 0
	movq	%rsi, -56(%rbp)
Ltmp1122:
	.loc	11 1479 26 is_stmt 1
	addq	%rsi, %rdi
	setb	%al
	andb	$1, %al
	movq	%rdi, -48(%rbp)
	movb	%al, -40(%rbp)
	movq	-48(%rbp), %rcx
	movb	-40(%rbp), %al
	.loc	11 1479 18 is_stmt 0
	movq	%rcx, -32(%rbp)
	.loc	11 1479 21
	movb	%al, %dl
	andb	$1, %dl
	movb	%dl, -17(%rbp)
Ltmp1123:
	.loc	11 1480 13 is_stmt 1
	movq	%rcx, -96(%rbp)
	andb	$1, %al
	movb	%al, -88(%rbp)
Ltmp1124:
	.loc	11 443 18
	movq	-96(%rbp), %rax
	movq	%rax, -120(%rbp)
	movq	%rax, -16(%rbp)
	.loc	11 443 21 is_stmt 0
	movb	-88(%rbp), %al
	movb	%al, %cl
	andb	$1, %cl
	movb	%cl, -2(%rbp)
Ltmp1125:
	.loc	11 444 16 is_stmt 1
	andb	$1, %al
	movb	%al, -1(%rbp)
	testb	$1, -1(%rbp)
	jne	LBB133_2
	.loc	11 0 16 is_stmt 0
	movq	-120(%rbp), %rax
	.loc	11 444 42
	movq	%rax, -104(%rbp)
	movq	$1, -112(%rbp)
	.loc	11 444 13
	jmp	LBB133_3
LBB133_2:
	.loc	11 444 30
	movq	$0, -112(%rbp)
Ltmp1126:
LBB133_3:
	.loc	11 445 10 is_stmt 1
	movq	-112(%rbp), %rax
	movq	-104(%rbp), %rdx
	addq	$120, %rsp
	popq	%rbp
	retq
Ltmp1127:
Lfunc_end133:
	.cfi_endproc

	.p2align	4, 0x90
__ZN4core3ops8function6FnOnce40call_once$u7b$$u7b$vtable.shim$u7d$$u7d$17hd62d435010700123E:
Lfunc_begin134:
	.file	58 "/rustc/2c8cc343237b8f7d5a3c3703e3a87f2eb2c54a74/library/core/src/ops" "function.rs"
	.loc	58 250 0
	.cfi_startproc
	pushq	%rbp
	.cfi_def_cfa_offset 16
	.cfi_offset %rbp, -16
	movq	%rsp, %rbp
	.cfi_def_cfa_register %rbp
	subq	$16, %rsp
	movq	%rsi, -16(%rbp)
	movq	%rdi, -8(%rbp)
Ltmp1128:
	.loc	58 250 5 prologue_end
	movq	(%rdi), %rdi
	movq	-16(%rbp), %rsi
	callq	__ZN4core3ops8function6FnOnce9call_once17ha48b52d472a3715aE
	addq	$16, %rsp
	popq	%rbp
	retq
Ltmp1129:
Lfunc_end134:
	.cfi_endproc

	.p2align	4, 0x90
__ZN4core3ops8function6FnOnce9call_once17h3b16e3e232f56f7eE:
Lfunc_begin135:
	.loc	58 250 0
	.cfi_startproc
	pushq	%rbp
	.cfi_def_cfa_offset 16
	.cfi_offset %rbp, -16
	movq	%rsp, %rbp
	.cfi_def_cfa_register %rbp
	subq	$48, %rsp
	movq	%rdi, %rax
	movq	%rax, -48(%rbp)
	movq	(%rsi), %rax
	movq	%rax, -40(%rbp)
	movq	8(%rsi), %rax
	movq	%rax, -32(%rbp)
	movq	16(%rsi), %rax
	movq	%rax, -24(%rbp)
	movq	24(%rsi), %rax
	movq	%rax, -16(%rbp)
Ltmp1130:
	.loc	58 250 5 prologue_end
	leaq	-40(%rbp), %rsi
	callq	__ZN11proc_macro27Literal4_new17h5f31b508674bc02fE
	movq	-48(%rbp), %rax
	addq	$48, %rsp
	popq	%rbp
	retq
Ltmp1131:
Lfunc_end135:
	.cfi_endproc

	.p2align	4, 0x90
__ZN4core3ops8function6FnOnce9call_once17h678c4553bb400a34E:
Lfunc_begin136:
	.loc	58 250 0
	.cfi_startproc
	pushq	%rbp
	.cfi_def_cfa_offset 16
	.cfi_offset %rbp, -16
	movq	%rsp, %rbp
	.cfi_def_cfa_register %rbp
	subq	$16, %rsp
Ltmp1132:
	.loc	58 250 5 prologue_end
	callq	__ZN11proc_macro23imp8LexError8Compiler17hab62ba7b970e9a70E
	andb	$1, %al
	movzbl	%al, %eax
	addq	$16, %rsp
	popq	%rbp
	retq
Ltmp1133:
Lfunc_end136:
	.cfi_endproc

	.p2align	4, 0x90
__ZN4core3ops8function6FnOnce9call_once17h6a38c55ccb0b763fE:
Lfunc_begin137:
	.loc	58 250 0
	.cfi_startproc
	pushq	%rbp
	.cfi_def_cfa_offset 16
	.cfi_offset %rbp, -16
	movq	%rsp, %rbp
	.cfi_def_cfa_register %rbp
	subq	$16, %rsp
	movl	%edi, -12(%rbp)
Ltmp1134:
	.loc	58 250 5 prologue_end
	movl	-12(%rbp), %edi
	callq	__ZN11proc_macro24Span4_new17hb184d9405e9fba8cE
	addq	$16, %rsp
	popq	%rbp
	retq
Ltmp1135:
Lfunc_end137:
	.cfi_endproc

	.p2align	4, 0x90
__ZN4core3ops8function6FnOnce9call_once17h6b1f15693d81dfb6E:
Lfunc_begin138:
	.loc	58 250 0
	.cfi_startproc
	pushq	%rbp
	.cfi_def_cfa_offset 16
	.cfi_offset %rbp, -16
	movq	%rsp, %rbp
	.cfi_def_cfa_register %rbp
	subq	$32, %rsp
	movq	%rdi, %rax
	movq	%rax, -32(%rbp)
	movq	(%rsi), %rax
	movq	%rax, -24(%rbp)
	movq	8(%rsi), %rax
	movq	%rax, -16(%rbp)
Ltmp1136:
	.loc	58 250 5 prologue_end
	leaq	-24(%rbp), %rsi
	callq	__ZN11proc_macro23imp7Literal8Compiler17h75821edd3a0219dbE
	movq	-32(%rbp), %rax
	addq	$32, %rsp
	popq	%rbp
	retq
Ltmp1137:
Lfunc_end138:
	.cfi_endproc

	.p2align	4, 0x90
__ZN4core3ops8function6FnOnce9call_once17h94fba0836103f616E:
Lfunc_begin139:
	.loc	58 250 0
	.cfi_startproc
	pushq	%rbp
	.cfi_def_cfa_offset 16
	.cfi_offset %rbp, -16
	movq	%rsp, %rbp
	.cfi_def_cfa_register %rbp
	subq	$32, %rsp
	movq	%rdi, -24(%rbp)
	movq	%rsi, -16(%rbp)
Ltmp1138:
	.loc	58 250 5 prologue_end
	movq	-24(%rbp), %rdi
	movq	-16(%rbp), %rsi
	callq	__ZN4core3cmp5impls50_$LT$impl$u20$core..cmp..Ord$u20$for$u20$usize$GT$3cmp17h68ce95e0b2ea56efE
	addq	$32, %rsp
	popq	%rbp
	retq
Ltmp1139:
Lfunc_end139:
	.cfi_endproc

	.p2align	4, 0x90
__ZN4core3ops8function6FnOnce9call_once17ha48b52d472a3715aE:
Lfunc_begin140:
	.loc	58 250 0
	.cfi_startproc
	.cfi_personality 155, _rust_eh_personality
	.cfi_lsda 16, Lexception33
	pushq	%rbp
	.cfi_def_cfa_offset 16
	.cfi_offset %rbp, -16
	movq	%rsp, %rbp
	.cfi_def_cfa_register %rbp
	subq	$32, %rsp
	movq	%rdi, -32(%rbp)
	movq	%rsi, -24(%rbp)
Ltmp1143:
	.loc	58 250 5 prologue_end
	movq	-24(%rbp), %rsi
Ltmp1140:
	leaq	-32(%rbp), %rdi
	callq	__ZN3std4sync4once4Once9call_once28_$u7b$$u7b$closure$u7d$$u7d$17h5fa74266d2245f33E
Ltmp1141:
	jmp	LBB140_3
LBB140_1:
	movq	-16(%rbp), %rdi
	callq	__Unwind_Resume
LBB140_2:
Ltmp1142:
	.loc	58 0 5 is_stmt 0
	movq	%rax, %rcx
	movl	%edx, %eax
	movq	%rcx, -16(%rbp)
	movl	%eax, -8(%rbp)
	jmp	LBB140_1
LBB140_3:
	.loc	58 250 5
	addq	$32, %rsp
	popq	%rbp
	retq
Ltmp1144:
Lfunc_end140:
	.cfi_endproc
	.section	__TEXT,__gcc_except_tab
	.p2align	2
GCC_except_table140:
Lexception33:
	.byte	255
	.byte	255
	.byte	1
	.uleb128 Lcst_end33-Lcst_begin33
Lcst_begin33:
	.uleb128 Ltmp1140-Lfunc_begin140
	.uleb128 Ltmp1141-Ltmp1140
	.uleb128 Ltmp1142-Lfunc_begin140
	.byte	0
	.uleb128 Ltmp1141-Lfunc_begin140
	.uleb128 Lfunc_end140-Ltmp1141
	.byte	0
	.byte	0
Lcst_end33:
	.p2align	2

	.section	__TEXT,__text,regular,pure_instructions
	.p2align	4, 0x90
__ZN4core3ops8function6FnOnce9call_once17ha6cb79f54b87fba2E:
Lfunc_begin141:
	.loc	58 250 0 is_stmt 1
	.cfi_startproc
	pushq	%rbp
	.cfi_def_cfa_offset 16
	.cfi_offset %rbp, -16
	movq	%rsp, %rbp
	.cfi_def_cfa_register %rbp
	subq	$16, %rsp
Ltmp1145:
	.loc	58 250 5 prologue_end
	callq	__ZN11proc_macro29detection10initialize17h2fd1c729eb563451E
	addq	$16, %rsp
	popq	%rbp
	retq
Ltmp1146:
Lfunc_end141:
	.cfi_endproc

	.p2align	4, 0x90
__ZN4core3ops8function6FnOnce9call_once17he8a1214663abf830E:
Lfunc_begin142:
	.loc	58 250 0
	.cfi_startproc
	pushq	%rbp
	.cfi_def_cfa_offset 16
	.cfi_offset %rbp, -16
	movq	%rsp, %rbp
	.cfi_def_cfa_register %rbp
	subq	$32, %rsp
	movq	%rdi, %rax
	movq	%rax, -32(%rbp)
	movq	%rsi, -24(%rbp)
	movq	%rdx, -16(%rbp)
Ltmp1147:
	.loc	58 250 5 prologue_end
	movq	-24(%rbp), %rsi
	movq	-16(%rbp), %rdx
	callq	__ZN5alloc3str56_$LT$impl$u20$alloc..borrow..ToOwned$u20$for$u20$str$GT$8to_owned17ha725d97af2fa1a26E
	movq	-32(%rbp), %rax
	addq	$32, %rsp
	popq	%rbp
	retq
Ltmp1148:
Lfunc_end142:
	.cfi_endproc

	.globl	__ZN4core3ptr105drop_in_place$LT$$u5b$$LP$proc_macro2..Delimiter$C$proc_macro2..fallback..TokenStreamBuilder$RP$$u5d$$GT$17h2d560b5bb9813e67E
	.p2align	4, 0x90
__ZN4core3ptr105drop_in_place$LT$$u5b$$LP$proc_macro2..Delimiter$C$proc_macro2..fallback..TokenStreamBuilder$RP$$u5d$$GT$17h2d560b5bb9813e67E:
Lfunc_begin143:
	.loc	4 490 0
	.cfi_startproc
	.cfi_personality 155, _rust_eh_personality
	.cfi_lsda 16, Lexception34
	pushq	%rbp
	.cfi_def_cfa_offset 16
	.cfi_offset %rbp, -16
	movq	%rsp, %rbp
	.cfi_def_cfa_register %rbp
	subq	$80, %rsp
	movq	%rdi, -64(%rbp)
	movq	%rsi, -56(%rbp)
	movq	%rdi, -32(%rbp)
	movq	%rsi, -24(%rbp)
Ltmp1160:
	.loc	4 490 1 prologue_end
	xorl	%eax, %eax
	testb	$1, %al
	jne	LBB143_1
	jmp	LBB143_2
LBB143_1:
	movq	$0, -48(%rbp)
	jmp	LBB143_11
LBB143_2:
	.loc	4 0 1 is_stmt 0
	movq	-56(%rbp), %rax
	movq	-64(%rbp), %rcx
	.loc	4 490 1
	movq	%rcx, -40(%rbp)
	shlq	$5, %rax
	addq	-40(%rbp), %rax
	movq	%rax, -72(%rbp)
LBB143_3:
	.loc	4 0 1
	movq	-72(%rbp), %rax
	.loc	4 490 1
	cmpq	%rax, -40(%rbp)
	je	LBB143_5
	movq	-40(%rbp), %rdi
	movq	%rdi, %rax
	addq	$32, %rax
	movq	%rax, -40(%rbp)
Ltmp1149:
	callq	__ZN4core3ptr95drop_in_place$LT$$LP$proc_macro2..Delimiter$C$proc_macro2..fallback..TokenStreamBuilder$RP$$GT$17h7ef2a93f2ed2fb7cE
Ltmp1150:
	jmp	LBB143_3
LBB143_5:
	addq	$80, %rsp
	popq	%rbp
	retq
LBB143_6:
	.loc	4 0 1
	movq	-72(%rbp), %rax
	.loc	4 490 1
	cmpq	%rax, -40(%rbp)
	je	LBB143_9
	jmp	LBB143_8
LBB143_7:
Ltmp1151:
	.loc	4 0 1
	movq	%rax, %rcx
	movl	%edx, %eax
	movq	%rcx, -16(%rbp)
	movl	%eax, -8(%rbp)
	jmp	LBB143_6
LBB143_8:
	.loc	4 490 1
	movq	-40(%rbp), %rdi
	movq	%rdi, %rax
	addq	$32, %rax
	movq	%rax, -40(%rbp)
Ltmp1152:
	callq	__ZN4core3ptr95drop_in_place$LT$$LP$proc_macro2..Delimiter$C$proc_macro2..fallback..TokenStreamBuilder$RP$$GT$17h7ef2a93f2ed2fb7cE
Ltmp1153:
	jmp	LBB143_6
LBB143_9:
	movq	-16(%rbp), %rdi
	callq	__Unwind_Resume
LBB143_10:
Ltmp1159:
	callq	__ZN4core9panicking19panic_cannot_unwind17h1fbca7e1d7f56ae1E
LBB143_11:
	.loc	4 0 1
	movq	-56(%rbp), %rax
	.loc	4 490 1
	cmpq	%rax, -48(%rbp)
	je	LBB143_5
	.loc	4 0 1
	movq	-64(%rbp), %rdi
	.loc	4 490 1
	movq	-48(%rbp), %rax
	movq	%rax, %rcx
	shlq	$5, %rcx
	addq	%rcx, %rdi
	incq	%rax
	movq	%rax, -48(%rbp)
Ltmp1154:
	callq	__ZN4core3ptr95drop_in_place$LT$$LP$proc_macro2..Delimiter$C$proc_macro2..fallback..TokenStreamBuilder$RP$$GT$17h7ef2a93f2ed2fb7cE
Ltmp1155:
	jmp	LBB143_11
LBB143_13:
	.loc	4 0 1
	movq	-56(%rbp), %rax
	.loc	4 490 1
	cmpq	%rax, -48(%rbp)
	je	LBB143_9
	jmp	LBB143_15
LBB143_14:
Ltmp1156:
	.loc	4 0 1
	movq	%rax, %rcx
	movl	%edx, %eax
	movq	%rcx, -16(%rbp)
	movl	%eax, -8(%rbp)
	jmp	LBB143_13
LBB143_15:
	movq	-64(%rbp), %rdi
	.loc	4 490 1
	movq	-48(%rbp), %rax
	movq	%rax, %rcx
	shlq	$5, %rcx
	addq	%rcx, %rdi
	incq	%rax
	movq	%rax, -48(%rbp)
Ltmp1157:
	callq	__ZN4core3ptr95drop_in_place$LT$$LP$proc_macro2..Delimiter$C$proc_macro2..fallback..TokenStreamBuilder$RP$$GT$17h7ef2a93f2ed2fb7cE
Ltmp1158:
	jmp	LBB143_13
Ltmp1161:
Lfunc_end143:
	.cfi_endproc
	.section	__TEXT,__gcc_except_tab
	.p2align	2
GCC_except_table143:
Lexception34:
	.byte	255
	.byte	255
	.byte	1
	.uleb128 Lcst_end34-Lcst_begin34
Lcst_begin34:
	.uleb128 Ltmp1149-Lfunc_begin143
	.uleb128 Ltmp1150-Ltmp1149
	.uleb128 Ltmp1151-Lfunc_begin143
	.byte	0
	.uleb128 Ltmp1152-Lfunc_begin143
	.uleb128 Ltmp1153-Ltmp1152
	.uleb128 Ltmp1159-Lfunc_begin143
	.byte	0
	.uleb128 Ltmp1153-Lfunc_begin143
	.uleb128 Ltmp1154-Ltmp1153
	.byte	0
	.byte	0
	.uleb128 Ltmp1154-Lfunc_begin143
	.uleb128 Ltmp1155-Ltmp1154
	.uleb128 Ltmp1156-Lfunc_begin143
	.byte	0
	.uleb128 Ltmp1157-Lfunc_begin143
	.uleb128 Ltmp1158-Ltmp1157
	.uleb128 Ltmp1159-Lfunc_begin143
	.byte	0
Lcst_end34:
	.p2align	2

	.section	__TEXT,__text,regular,pure_instructions
	.globl	__ZN4core3ptr118drop_in_place$LT$alloc..vec..Vec$LT$$LP$proc_macro2..Delimiter$C$proc_macro2..fallback..TokenStreamBuilder$RP$$GT$$GT$17h7a55f6ba72d50015E
	.p2align	4, 0x90
__ZN4core3ptr118drop_in_place$LT$alloc..vec..Vec$LT$$LP$proc_macro2..Delimiter$C$proc_macro2..fallback..TokenStreamBuilder$RP$$GT$$GT$17h7a55f6ba72d50015E:
Lfunc_begin144:
	.loc	4 490 0 is_stmt 1
	.cfi_startproc
	.cfi_personality 155, _rust_eh_personality
	.cfi_lsda 16, Lexception35
	pushq	%rbp
	.cfi_def_cfa_offset 16
	.cfi_offset %rbp, -16
	movq	%rsp, %rbp
	.cfi_def_cfa_register %rbp
	subq	$32, %rsp
	movq	%rdi, -32(%rbp)
	movq	%rdi, -24(%rbp)
Ltmp1162:
Ltmp1168:
	.loc	4 490 1 prologue_end
	callq	__ZN70_$LT$alloc..vec..Vec$LT$T$C$A$GT$$u20$as$u20$core..ops..drop..Drop$GT$4drop17h63bcef4726edd3f9E
Ltmp1163:
	jmp	LBB144_3
LBB144_1:
Ltmp1165:
	.loc	4 0 1 is_stmt 0
	movq	-32(%rbp), %rdi
	.loc	4 490 1
	callq	__ZN4core3ptr125drop_in_place$LT$alloc..raw_vec..RawVec$LT$$LP$proc_macro2..Delimiter$C$proc_macro2..fallback..TokenStreamBuilder$RP$$GT$$GT$17h7deeee2d0d6543d6E
Ltmp1166:
	jmp	LBB144_5
LBB144_2:
Ltmp1164:
	.loc	4 0 1
	movq	%rax, %rcx
	movl	%edx, %eax
	movq	%rcx, -16(%rbp)
	movl	%eax, -8(%rbp)
	jmp	LBB144_1
LBB144_3:
	movq	-32(%rbp), %rdi
	.loc	4 490 1
	callq	__ZN4core3ptr125drop_in_place$LT$alloc..raw_vec..RawVec$LT$$LP$proc_macro2..Delimiter$C$proc_macro2..fallback..TokenStreamBuilder$RP$$GT$$GT$17h7deeee2d0d6543d6E
	addq	$32, %rsp
	popq	%rbp
	retq
LBB144_4:
Ltmp1167:
	callq	__ZN4core9panicking19panic_cannot_unwind17h1fbca7e1d7f56ae1E
LBB144_5:
	movq	-16(%rbp), %rdi
	callq	__Unwind_Resume
Ltmp1169:
Lfunc_end144:
	.cfi_endproc
	.section	__TEXT,__gcc_except_tab
	.p2align	2
GCC_except_table144:
Lexception35:
	.byte	255
	.byte	255
	.byte	1
	.uleb128 Lcst_end35-Lcst_begin35
Lcst_begin35:
	.uleb128 Ltmp1162-Lfunc_begin144
	.uleb128 Ltmp1163-Ltmp1162
	.uleb128 Ltmp1164-Lfunc_begin144
	.byte	0
	.uleb128 Ltmp1165-Lfunc_begin144
	.uleb128 Ltmp1166-Ltmp1165
	.uleb128 Ltmp1167-Lfunc_begin144
	.byte	0
	.uleb128 Ltmp1166-Lfunc_begin144
	.uleb128 Lfunc_end144-Ltmp1166
	.byte	0
	.byte	0
Lcst_end35:
	.p2align	2

	.section	__TEXT,__text,regular,pure_instructions
	.p2align	4, 0x90
__ZN4core3ptr124drop_in_place$LT$std..sync..once..Once..call_once$LT$proc_macro2..detection..initialize$GT$..$u7b$$u7b$closure$u7d$$u7d$$GT$17h5ddefcdb3a6538efE:
Lfunc_begin145:
	.loc	4 490 0 is_stmt 1
	.cfi_startproc
	pushq	%rbp
	.cfi_def_cfa_offset 16
	.cfi_offset %rbp, -16
	movq	%rsp, %rbp
	.cfi_def_cfa_register %rbp
	pushq	%rax
	movq	%rdi, -8(%rbp)
Ltmp1170:
	.loc	4 490 1 prologue_end
	addq	$8, %rsp
	popq	%rbp
	retq
Ltmp1171:
Lfunc_end145:
	.cfi_endproc

	.globl	__ZN4core3ptr125drop_in_place$LT$alloc..raw_vec..RawVec$LT$$LP$proc_macro2..Delimiter$C$proc_macro2..fallback..TokenStreamBuilder$RP$$GT$$GT$17h7deeee2d0d6543d6E
	.p2align	4, 0x90
__ZN4core3ptr125drop_in_place$LT$alloc..raw_vec..RawVec$LT$$LP$proc_macro2..Delimiter$C$proc_macro2..fallback..TokenStreamBuilder$RP$$GT$$GT$17h7deeee2d0d6543d6E:
Lfunc_begin146:
	.loc	4 490 0
	.cfi_startproc
	pushq	%rbp
	.cfi_def_cfa_offset 16
	.cfi_offset %rbp, -16
	movq	%rsp, %rbp
	.cfi_def_cfa_register %rbp
	subq	$16, %rsp
	movq	%rdi, -8(%rbp)
Ltmp1172:
	.loc	4 490 1 prologue_end
	callq	__ZN77_$LT$alloc..raw_vec..RawVec$LT$T$C$A$GT$$u20$as$u20$core..ops..drop..Drop$GT$4drop17h982d93d62774c846E
	addq	$16, %rsp
	popq	%rbp
	retq
Ltmp1173:
Lfunc_end146:
	.cfi_endproc

	.globl	__ZN4core3ptr128drop_in_place$LT$proc_macro..bridge..Group$LT$proc_macro..bridge..client..TokenStream$C$proc_macro..bridge..client..Span$GT$$GT$17h18b43ff1e52c7aeeE
	.p2align	4, 0x90
__ZN4core3ptr128drop_in_place$LT$proc_macro..bridge..Group$LT$proc_macro..bridge..client..TokenStream$C$proc_macro..bridge..client..Span$GT$$GT$17h18b43ff1e52c7aeeE:
Lfunc_begin147:
	.loc	4 490 0
	.cfi_startproc
	pushq	%rbp
	.cfi_def_cfa_offset 16
	.cfi_offset %rbp, -16
	movq	%rsp, %rbp
	.cfi_def_cfa_register %rbp
	subq	$16, %rsp
	movq	%rdi, -8(%rbp)
Ltmp1174:
	.loc	4 490 1 prologue_end
	callq	__ZN4core3ptr88drop_in_place$LT$core..option..Option$LT$proc_macro..bridge..client..TokenStream$GT$$GT$17h98f2569e265a1dbeE
	addq	$16, %rsp
	popq	%rbp
	retq
Ltmp1175:
Lfunc_end147:
	.cfi_endproc

	.globl	__ZN4core3ptr143drop_in_place$LT$$LT$T$u20$as$u20$alloc..slice..hack..ConvertVec$GT$..to_vec..DropGuard$LT$proc_macro..TokenTree$C$alloc..alloc..Global$GT$$GT$17h72d571dceccf9eb0E
	.p2align	4, 0x90
__ZN4core3ptr143drop_in_place$LT$$LT$T$u20$as$u20$alloc..slice..hack..ConvertVec$GT$..to_vec..DropGuard$LT$proc_macro..TokenTree$C$alloc..alloc..Global$GT$$GT$17h72d571dceccf9eb0E:
Lfunc_begin148:
	.loc	4 490 0
	.cfi_startproc
	pushq	%rbp
	.cfi_def_cfa_offset 16
	.cfi_offset %rbp, -16
	movq	%rsp, %rbp
	.cfi_def_cfa_register %rbp
	subq	$16, %rsp
	movq	%rdi, -8(%rbp)
Ltmp1176:
	.loc	4 490 1 prologue_end
	callq	__ZN125_$LT$$LT$T$u20$as$u20$alloc..slice..hack..ConvertVec$GT$..to_vec..DropGuard$LT$T$C$A$GT$$u20$as$u20$core..ops..drop..Drop$GT$4drop17h3c74d118b8fa7f13E
	addq	$16, %rsp
	popq	%rbp
	retq
Ltmp1177:
Lfunc_end148:
	.cfi_endproc

	.globl	__ZN4core3ptr144drop_in_place$LT$$LT$T$u20$as$u20$alloc..slice..hack..ConvertVec$GT$..to_vec..DropGuard$LT$proc_macro2..TokenTree$C$alloc..alloc..Global$GT$$GT$17ha82edb9086239bfcE
	.p2align	4, 0x90
__ZN4core3ptr144drop_in_place$LT$$LT$T$u20$as$u20$alloc..slice..hack..ConvertVec$GT$..to_vec..DropGuard$LT$proc_macro2..TokenTree$C$alloc..alloc..Global$GT$$GT$17ha82edb9086239bfcE:
Lfunc_begin149:
	.loc	4 490 0
	.cfi_startproc
	pushq	%rbp
	.cfi_def_cfa_offset 16
	.cfi_offset %rbp, -16
	movq	%rsp, %rbp
	.cfi_def_cfa_register %rbp
	subq	$16, %rsp
	movq	%rdi, -8(%rbp)
Ltmp1178:
	.loc	4 490 1 prologue_end
	callq	__ZN125_$LT$$LT$T$u20$as$u20$alloc..slice..hack..ConvertVec$GT$..to_vec..DropGuard$LT$T$C$A$GT$$u20$as$u20$core..ops..drop..Drop$GT$4drop17hc255d55681ff2b1bE
	addq	$16, %rsp
	popq	%rbp
	retq
Ltmp1179:
Lfunc_end149:
	.cfi_endproc

	.globl	__ZN4core3ptr168drop_in_place$LT$$LT$alloc..vec..drain..Drain$LT$T$C$A$GT$$u20$as$u20$core..ops..drop..Drop$GT$..drop..DropGuard$LT$proc_macro..TokenTree$C$alloc..alloc..Global$GT$$GT$17hdd79a6f63feeb311E
	.p2align	4, 0x90
__ZN4core3ptr168drop_in_place$LT$$LT$alloc..vec..drain..Drain$LT$T$C$A$GT$$u20$as$u20$core..ops..drop..Drop$GT$..drop..DropGuard$LT$proc_macro..TokenTree$C$alloc..alloc..Global$GT$$GT$17hdd79a6f63feeb311E:
Lfunc_begin150:
	.loc	4 490 0
	.cfi_startproc
	pushq	%rbp
	.cfi_def_cfa_offset 16
	.cfi_offset %rbp, -16
	movq	%rsp, %rbp
	.cfi_def_cfa_register %rbp
	subq	$16, %rsp
	movq	%rdi, -8(%rbp)
Ltmp1180:
	.loc	4 490 1 prologue_end
	callq	__ZN150_$LT$$LT$alloc..vec..drain..Drain$LT$T$C$A$GT$$u20$as$u20$core..ops..drop..Drop$GT$..drop..DropGuard$LT$T$C$A$GT$$u20$as$u20$core..ops..drop..Drop$GT$4drop17h0d9037144de0a2beE
	addq	$16, %rsp
	popq	%rbp
	retq
Ltmp1181:
Lfunc_end150:
	.cfi_endproc

	.globl	__ZN4core3ptr169drop_in_place$LT$proc_macro..bridge..TokenTree$LT$proc_macro..bridge..client..TokenStream$C$proc_macro..bridge..client..Span$C$proc_macro..bridge..symbol..Symbol$GT$$GT$17hfb9ece4751477116E
	.p2align	4, 0x90
__ZN4core3ptr169drop_in_place$LT$proc_macro..bridge..TokenTree$LT$proc_macro..bridge..client..TokenStream$C$proc_macro..bridge..client..Span$C$proc_macro..bridge..symbol..Symbol$GT$$GT$17hfb9ece4751477116E:
Lfunc_begin151:
	.loc	4 490 0
	.cfi_startproc
	pushq	%rbp
	.cfi_def_cfa_offset 16
	.cfi_offset %rbp, -16
	movq	%rsp, %rbp
	.cfi_def_cfa_register %rbp
	subq	$32, %rsp
	movq	%rdi, -24(%rbp)
	movq	%rdi, -8(%rbp)
Ltmp1182:
	.loc	4 490 1 prologue_end
	movb	16(%rdi), %dl
	movb	%dl, %cl
	addb	$-3, %cl
	xorl	%eax, %eax
	subb	$4, %dl
	movzbl	%cl, %ecx
	cmovaeq	%rcx, %rax
	movq	%rax, -16(%rbp)
	testq	%rax, %rax
	je	LBB151_2
	jmp	LBB151_3
LBB151_3:
	.loc	4 0 1 is_stmt 0
	movq	-16(%rbp), %rax
	.loc	4 490 1
	decq	%rax
	subq	$1, %rax
	ja	LBB151_1
	jmp	LBB151_1
LBB151_1:
	addq	$32, %rsp
	popq	%rbp
	retq
LBB151_2:
	.loc	4 0 1
	movq	-24(%rbp), %rdi
	.loc	4 490 1
	callq	__ZN4core3ptr128drop_in_place$LT$proc_macro..bridge..Group$LT$proc_macro..bridge..client..TokenStream$C$proc_macro..bridge..client..Span$GT$$GT$17h18b43ff1e52c7aeeE
	jmp	LBB151_1
Ltmp1183:
Lfunc_end151:
	.cfi_endproc

	.globl	__ZN4core3ptr176drop_in_place$LT$$LT$alloc..vec..into_iter..IntoIter$LT$T$C$A$GT$$u20$as$u20$core..ops..drop..Drop$GT$..drop..DropGuard$LT$proc_macro2..TokenTree$C$alloc..alloc..Global$GT$$GT$17hc037edc86d4a25b7E
	.p2align	4, 0x90
__ZN4core3ptr176drop_in_place$LT$$LT$alloc..vec..into_iter..IntoIter$LT$T$C$A$GT$$u20$as$u20$core..ops..drop..Drop$GT$..drop..DropGuard$LT$proc_macro2..TokenTree$C$alloc..alloc..Global$GT$$GT$17hc037edc86d4a25b7E:
Lfunc_begin152:
	.loc	4 490 0 is_stmt 1
	.cfi_startproc
	pushq	%rbp
	.cfi_def_cfa_offset 16
	.cfi_offset %rbp, -16
	movq	%rsp, %rbp
	.cfi_def_cfa_register %rbp
	subq	$16, %rsp
	movq	%rdi, -8(%rbp)
Ltmp1184:
	.loc	4 490 1 prologue_end
	callq	__ZN157_$LT$$LT$alloc..vec..into_iter..IntoIter$LT$T$C$A$GT$$u20$as$u20$core..ops..drop..Drop$GT$..drop..DropGuard$LT$T$C$A$GT$$u20$as$u20$core..ops..drop..Drop$GT$4drop17hf93cc800995be5d5E
	addq	$16, %rsp
	popq	%rbp
	retq
Ltmp1185:
Lfunc_end152:
	.cfi_endproc

	.globl	__ZN4core3ptr179drop_in_place$LT$$u5b$proc_macro..bridge..TokenTree$LT$proc_macro..bridge..client..TokenStream$C$proc_macro..bridge..client..Span$C$proc_macro..bridge..symbol..Symbol$GT$$u5d$$GT$17h6130e4f3a9b2a08eE
	.p2align	4, 0x90
__ZN4core3ptr179drop_in_place$LT$$u5b$proc_macro..bridge..TokenTree$LT$proc_macro..bridge..client..TokenStream$C$proc_macro..bridge..client..Span$C$proc_macro..bridge..symbol..Symbol$GT$$u5d$$GT$17h6130e4f3a9b2a08eE:
Lfunc_begin153:
	.loc	4 490 0
	.cfi_startproc
	.cfi_personality 155, _rust_eh_personality
	.cfi_lsda 16, Lexception36
	pushq	%rbp
	.cfi_def_cfa_offset 16
	.cfi_offset %rbp, -16
	movq	%rsp, %rbp
	.cfi_def_cfa_register %rbp
	subq	$80, %rsp
	movq	%rdi, -64(%rbp)
	movq	%rsi, -56(%rbp)
	movq	%rdi, -32(%rbp)
	movq	%rsi, -24(%rbp)
Ltmp1197:
	.loc	4 490 1 prologue_end
	xorl	%eax, %eax
	testb	$1, %al
	jne	LBB153_1
	jmp	LBB153_2
LBB153_1:
	movq	$0, -48(%rbp)
	jmp	LBB153_11
LBB153_2:
	.loc	4 0 1 is_stmt 0
	movq	-56(%rbp), %rax
	movq	-64(%rbp), %rcx
	.loc	4 490 1
	movq	%rcx, -40(%rbp)
	imulq	$20, %rax, %rax
	addq	-40(%rbp), %rax
	movq	%rax, -72(%rbp)
LBB153_3:
	.loc	4 0 1
	movq	-72(%rbp), %rax
	.loc	4 490 1
	cmpq	%rax, -40(%rbp)
	je	LBB153_5
	movq	-40(%rbp), %rdi
	movq	%rdi, %rax
	addq	$20, %rax
	movq	%rax, -40(%rbp)
Ltmp1186:
	callq	__ZN4core3ptr169drop_in_place$LT$proc_macro..bridge..TokenTree$LT$proc_macro..bridge..client..TokenStream$C$proc_macro..bridge..client..Span$C$proc_macro..bridge..symbol..Symbol$GT$$GT$17hfb9ece4751477116E
Ltmp1187:
	jmp	LBB153_3
LBB153_5:
	addq	$80, %rsp
	popq	%rbp
	retq
LBB153_6:
	.loc	4 0 1
	movq	-72(%rbp), %rax
	.loc	4 490 1
	cmpq	%rax, -40(%rbp)
	je	LBB153_9
	jmp	LBB153_8
LBB153_7:
Ltmp1188:
	.loc	4 0 1
	movq	%rax, %rcx
	movl	%edx, %eax
	movq	%rcx, -16(%rbp)
	movl	%eax, -8(%rbp)
	jmp	LBB153_6
LBB153_8:
	.loc	4 490 1
	movq	-40(%rbp), %rdi
	movq	%rdi, %rax
	addq	$20, %rax
	movq	%rax, -40(%rbp)
Ltmp1189:
	callq	__ZN4core3ptr169drop_in_place$LT$proc_macro..bridge..TokenTree$LT$proc_macro..bridge..client..TokenStream$C$proc_macro..bridge..client..Span$C$proc_macro..bridge..symbol..Symbol$GT$$GT$17hfb9ece4751477116E
Ltmp1190:
	jmp	LBB153_6
LBB153_9:
	movq	-16(%rbp), %rdi
	callq	__Unwind_Resume
LBB153_10:
Ltmp1196:
	callq	__ZN4core9panicking19panic_cannot_unwind17h1fbca7e1d7f56ae1E
LBB153_11:
	.loc	4 0 1
	movq	-56(%rbp), %rax
	.loc	4 490 1
	cmpq	%rax, -48(%rbp)
	je	LBB153_5
	.loc	4 0 1
	movq	-64(%rbp), %rcx
	.loc	4 490 1
	movq	-48(%rbp), %rax
	leaq	(%rax,%rax,4), %rdx
	leaq	(%rcx,%rdx,4), %rdi
	incq	%rax
	movq	%rax, -48(%rbp)
Ltmp1191:
	callq	__ZN4core3ptr169drop_in_place$LT$proc_macro..bridge..TokenTree$LT$proc_macro..bridge..client..TokenStream$C$proc_macro..bridge..client..Span$C$proc_macro..bridge..symbol..Symbol$GT$$GT$17hfb9ece4751477116E
Ltmp1192:
	jmp	LBB153_11
LBB153_13:
	.loc	4 0 1
	movq	-56(%rbp), %rax
	.loc	4 490 1
	cmpq	%rax, -48(%rbp)
	je	LBB153_9
	jmp	LBB153_15
LBB153_14:
Ltmp1193:
	.loc	4 0 1
	movq	%rax, %rcx
	movl	%edx, %eax
	movq	%rcx, -16(%rbp)
	movl	%eax, -8(%rbp)
	jmp	LBB153_13
LBB153_15:
	movq	-64(%rbp), %rcx
	.loc	4 490 1
	movq	-48(%rbp), %rax
	leaq	(%rax,%rax,4), %rdx
	leaq	(%rcx,%rdx,4), %rdi
	incq	%rax
	movq	%rax, -48(%rbp)
Ltmp1194:
	callq	__ZN4core3ptr169drop_in_place$LT$proc_macro..bridge..TokenTree$LT$proc_macro..bridge..client..TokenStream$C$proc_macro..bridge..client..Span$C$proc_macro..bridge..symbol..Symbol$GT$$GT$17hfb9ece4751477116E
Ltmp1195:
	jmp	LBB153_13
Ltmp1198:
Lfunc_end153:
	.cfi_endproc
	.section	__TEXT,__gcc_except_tab
	.p2align	2
GCC_except_table153:
Lexception36:
	.byte	255
	.byte	255
	.byte	1
	.uleb128 Lcst_end36-Lcst_begin36
Lcst_begin36:
	.uleb128 Ltmp1186-Lfunc_begin153
	.uleb128 Ltmp1187-Ltmp1186
	.uleb128 Ltmp1188-Lfunc_begin153
	.byte	0
	.uleb128 Ltmp1189-Lfunc_begin153
	.uleb128 Ltmp1190-Ltmp1189
	.uleb128 Ltmp1196-Lfunc_begin153
	.byte	0
	.uleb128 Ltmp1190-Lfunc_begin153
	.uleb128 Ltmp1191-Ltmp1190
	.byte	0
	.byte	0
	.uleb128 Ltmp1191-Lfunc_begin153
	.uleb128 Ltmp1192-Ltmp1191
	.uleb128 Ltmp1193-Lfunc_begin153
	.byte	0
	.uleb128 Ltmp1194-Lfunc_begin153
	.uleb128 Ltmp1195-Ltmp1194
	.uleb128 Ltmp1196-Lfunc_begin153
	.byte	0
Lcst_end36:
	.p2align	2

	.section	__TEXT,__text,regular,pure_instructions
	.globl	__ZN4core3ptr192drop_in_place$LT$alloc..vec..Vec$LT$proc_macro..bridge..TokenTree$LT$proc_macro..bridge..client..TokenStream$C$proc_macro..bridge..client..Span$C$proc_macro..bridge..symbol..Symbol$GT$$GT$$GT$17haec57bd339bf22b5E
	.p2align	4, 0x90
__ZN4core3ptr192drop_in_place$LT$alloc..vec..Vec$LT$proc_macro..bridge..TokenTree$LT$proc_macro..bridge..client..TokenStream$C$proc_macro..bridge..client..Span$C$proc_macro..bridge..symbol..Symbol$GT$$GT$$GT$17haec57bd339bf22b5E:
Lfunc_begin154:
	.loc	4 490 0 is_stmt 1
	.cfi_startproc
	.cfi_personality 155, _rust_eh_personality
	.cfi_lsda 16, Lexception37
	pushq	%rbp
	.cfi_def_cfa_offset 16
	.cfi_offset %rbp, -16
	movq	%rsp, %rbp
	.cfi_def_cfa_register %rbp
	subq	$32, %rsp
	movq	%rdi, -32(%rbp)
	movq	%rdi, -24(%rbp)
Ltmp1199:
Ltmp1205:
	.loc	4 490 1 prologue_end
	callq	__ZN70_$LT$alloc..vec..Vec$LT$T$C$A$GT$$u20$as$u20$core..ops..drop..Drop$GT$4drop17h69112dd5c3c54b4cE
Ltmp1200:
	jmp	LBB154_3
LBB154_1:
Ltmp1202:
	.loc	4 0 1 is_stmt 0
	movq	-32(%rbp), %rdi
	.loc	4 490 1
	callq	__ZN4core3ptr199drop_in_place$LT$alloc..raw_vec..RawVec$LT$proc_macro..bridge..TokenTree$LT$proc_macro..bridge..client..TokenStream$C$proc_macro..bridge..client..Span$C$proc_macro..bridge..symbol..Symbol$GT$$GT$$GT$17hbfad6d987f2dfb33E
Ltmp1203:
	jmp	LBB154_5
LBB154_2:
Ltmp1201:
	.loc	4 0 1
	movq	%rax, %rcx
	movl	%edx, %eax
	movq	%rcx, -16(%rbp)
	movl	%eax, -8(%rbp)
	jmp	LBB154_1
LBB154_3:
	movq	-32(%rbp), %rdi
	.loc	4 490 1
	callq	__ZN4core3ptr199drop_in_place$LT$alloc..raw_vec..RawVec$LT$proc_macro..bridge..TokenTree$LT$proc_macro..bridge..client..TokenStream$C$proc_macro..bridge..client..Span$C$proc_macro..bridge..symbol..Symbol$GT$$GT$$GT$17hbfad6d987f2dfb33E
	addq	$32, %rsp
	popq	%rbp
	retq
LBB154_4:
Ltmp1204:
	callq	__ZN4core9panicking19panic_cannot_unwind17h1fbca7e1d7f56ae1E
LBB154_5:
	movq	-16(%rbp), %rdi
	callq	__Unwind_Resume
Ltmp1206:
Lfunc_end154:
	.cfi_endproc
	.section	__TEXT,__gcc_except_tab
	.p2align	2
GCC_except_table154:
Lexception37:
	.byte	255
	.byte	255
	.byte	1
	.uleb128 Lcst_end37-Lcst_begin37
Lcst_begin37:
	.uleb128 Ltmp1199-Lfunc_begin154
	.uleb128 Ltmp1200-Ltmp1199
	.uleb128 Ltmp1201-Lfunc_begin154
	.byte	0
	.uleb128 Ltmp1202-Lfunc_begin154
	.uleb128 Ltmp1203-Ltmp1202
	.uleb128 Ltmp1204-Lfunc_begin154
	.byte	0
	.uleb128 Ltmp1203-Lfunc_begin154
	.uleb128 Lfunc_end154-Ltmp1203
	.byte	0
	.byte	0
Lcst_end37:
	.p2align	2

	.section	__TEXT,__text,regular,pure_instructions
	.globl	__ZN4core3ptr199drop_in_place$LT$alloc..raw_vec..RawVec$LT$proc_macro..bridge..TokenTree$LT$proc_macro..bridge..client..TokenStream$C$proc_macro..bridge..client..Span$C$proc_macro..bridge..symbol..Symbol$GT$$GT$$GT$17hbfad6d987f2dfb33E
	.p2align	4, 0x90
__ZN4core3ptr199drop_in_place$LT$alloc..raw_vec..RawVec$LT$proc_macro..bridge..TokenTree$LT$proc_macro..bridge..client..TokenStream$C$proc_macro..bridge..client..Span$C$proc_macro..bridge..symbol..Symbol$GT$$GT$$GT$17hbfad6d987f2dfb33E:
Lfunc_begin155:
	.loc	4 490 0 is_stmt 1
	.cfi_startproc
	pushq	%rbp
	.cfi_def_cfa_offset 16
	.cfi_offset %rbp, -16
	movq	%rsp, %rbp
	.cfi_def_cfa_register %rbp
	subq	$16, %rsp
	movq	%rdi, -8(%rbp)
Ltmp1207:
	.loc	4 490 1 prologue_end
	callq	__ZN77_$LT$alloc..raw_vec..RawVec$LT$T$C$A$GT$$u20$as$u20$core..ops..drop..Drop$GT$4drop17hfd7da4e7491f8156E
	addq	$16, %rsp
	popq	%rbp
	retq
Ltmp1208:
Lfunc_end155:
	.cfi_endproc

	.globl	__ZN4core3ptr208drop_in_place$LT$alloc..vec..into_iter..IntoIter$LT$proc_macro..bridge..TokenTree$LT$proc_macro..bridge..client..TokenStream$C$proc_macro..bridge..client..Span$C$proc_macro..bridge..symbol..Symbol$GT$$GT$$GT$17hb83d8a2c1207418bE
	.p2align	4, 0x90
__ZN4core3ptr208drop_in_place$LT$alloc..vec..into_iter..IntoIter$LT$proc_macro..bridge..TokenTree$LT$proc_macro..bridge..client..TokenStream$C$proc_macro..bridge..client..Span$C$proc_macro..bridge..symbol..Symbol$GT$$GT$$GT$17hb83d8a2c1207418bE:
Lfunc_begin156:
	.loc	4 490 0
	.cfi_startproc
	pushq	%rbp
	.cfi_def_cfa_offset 16
	.cfi_offset %rbp, -16
	movq	%rsp, %rbp
	.cfi_def_cfa_register %rbp
	subq	$16, %rsp
	movq	%rdi, -8(%rbp)
Ltmp1209:
	.loc	4 490 1 prologue_end
	callq	__ZN86_$LT$alloc..vec..into_iter..IntoIter$LT$T$C$A$GT$$u20$as$u20$core..ops..drop..Drop$GT$4drop17h839195777b320a6bE
	addq	$16, %rsp
	popq	%rbp
	retq
Ltmp1210:
Lfunc_end156:
	.cfi_endproc

	.p2align	4, 0x90
__ZN4core3ptr25drop_in_place$LT$bool$GT$17hf3456a31e9664bcfE:
Lfunc_begin157:
	.loc	4 490 0
	.cfi_startproc
	pushq	%rbp
	.cfi_def_cfa_offset 16
	.cfi_offset %rbp, -16
	movq	%rsp, %rbp
	.cfi_def_cfa_register %rbp
	pushq	%rax
	movq	%rdi, -8(%rbp)
Ltmp1211:
	.loc	4 490 1 prologue_end
	addq	$8, %rsp
	popq	%rbp
	retq
Ltmp1212:
Lfunc_end157:
	.cfi_endproc

	.p2align	4, 0x90
__ZN4core3ptr25drop_in_place$LT$char$GT$17h091dc677e855420eE:
Lfunc_begin158:
	.loc	4 490 0
	.cfi_startproc
	pushq	%rbp
	.cfi_def_cfa_offset 16
	.cfi_offset %rbp, -16
	movq	%rsp, %rbp
	.cfi_def_cfa_register %rbp
	pushq	%rax
	movq	%rdi, -8(%rbp)
Ltmp1213:
	.loc	4 490 1 prologue_end
	addq	$8, %rsp
	popq	%rbp
	retq
Ltmp1214:
Lfunc_end158:
	.cfi_endproc

	.globl	__ZN4core3ptr270drop_in_place$LT$$LT$T$u20$as$u20$alloc..slice..hack..ConvertVec$GT$..to_vec..DropGuard$LT$proc_macro..bridge..TokenTree$LT$proc_macro..bridge..client..TokenStream$C$proc_macro..bridge..client..Span$C$proc_macro..bridge..symbol..Symbol$GT$$C$alloc..alloc..Global$GT$$GT$17h1ea86fb7167d4462E
	.p2align	4, 0x90
__ZN4core3ptr270drop_in_place$LT$$LT$T$u20$as$u20$alloc..slice..hack..ConvertVec$GT$..to_vec..DropGuard$LT$proc_macro..bridge..TokenTree$LT$proc_macro..bridge..client..TokenStream$C$proc_macro..bridge..client..Span$C$proc_macro..bridge..symbol..Symbol$GT$$C$alloc..alloc..Global$GT$$GT$17h1ea86fb7167d4462E:
Lfunc_begin159:
	.loc	4 490 0
	.cfi_startproc
	pushq	%rbp
	.cfi_def_cfa_offset 16
	.cfi_offset %rbp, -16
	movq	%rsp, %rbp
	.cfi_def_cfa_register %rbp
	subq	$16, %rsp
	movq	%rdi, -8(%rbp)
Ltmp1215:
	.loc	4 490 1 prologue_end
	callq	__ZN125_$LT$$LT$T$u20$as$u20$alloc..slice..hack..ConvertVec$GT$..to_vec..DropGuard$LT$T$C$A$GT$$u20$as$u20$core..ops..drop..Drop$GT$4drop17h0226a6a00379be09E
	addq	$16, %rsp
	popq	%rbp
	retq
Ltmp1216:
Lfunc_end159:
	.cfi_endproc

	.p2align	4, 0x90
__ZN4core3ptr28drop_in_place$LT$$RF$str$GT$17h055d66f09fa0ac89E:
Lfunc_begin160:
	.loc	4 490 0
	.cfi_startproc
	pushq	%rbp
	.cfi_def_cfa_offset 16
	.cfi_offset %rbp, -16
	movq	%rsp, %rbp
	.cfi_def_cfa_register %rbp
	pushq	%rax
	movq	%rdi, -8(%rbp)
Ltmp1217:
	.loc	4 490 1 prologue_end
	addq	$8, %rsp
	popq	%rbp
	retq
Ltmp1218:
Lfunc_end160:
	.cfi_endproc

	.globl	__ZN4core3ptr302drop_in_place$LT$$LT$alloc..vec..into_iter..IntoIter$LT$T$C$A$GT$$u20$as$u20$core..ops..drop..Drop$GT$..drop..DropGuard$LT$proc_macro..bridge..TokenTree$LT$proc_macro..bridge..client..TokenStream$C$proc_macro..bridge..client..Span$C$proc_macro..bridge..symbol..Symbol$GT$$C$alloc..alloc..Global$GT$$GT$17hd185db1c8173e5dbE
	.p2align	4, 0x90
__ZN4core3ptr302drop_in_place$LT$$LT$alloc..vec..into_iter..IntoIter$LT$T$C$A$GT$$u20$as$u20$core..ops..drop..Drop$GT$..drop..DropGuard$LT$proc_macro..bridge..TokenTree$LT$proc_macro..bridge..client..TokenStream$C$proc_macro..bridge..client..Span$C$proc_macro..bridge..symbol..Symbol$GT$$C$alloc..alloc..Global$GT$$GT$17hd185db1c8173e5dbE:
Lfunc_begin161:
	.loc	4 490 0
	.cfi_startproc
	pushq	%rbp
	.cfi_def_cfa_offset 16
	.cfi_offset %rbp, -16
	movq	%rsp, %rbp
	.cfi_def_cfa_register %rbp
	subq	$16, %rsp
	movq	%rdi, -8(%rbp)
Ltmp1219:
	.loc	4 490 1 prologue_end
	callq	__ZN157_$LT$$LT$alloc..vec..into_iter..IntoIter$LT$T$C$A$GT$$u20$as$u20$core..ops..drop..Drop$GT$..drop..DropGuard$LT$T$C$A$GT$$u20$as$u20$core..ops..drop..Drop$GT$4drop17h4842e8830a665af6E
	addq	$16, %rsp
	popq	%rbp
	retq
Ltmp1220:
Lfunc_end161:
	.cfi_endproc

	.p2align	4, 0x90
__ZN4core3ptr30drop_in_place$LT$$RF$usize$GT$17hfd7c1d9289d0b0ccE:
Lfunc_begin162:
	.loc	4 490 0
	.cfi_startproc
	pushq	%rbp
	.cfi_def_cfa_offset 16
	.cfi_offset %rbp, -16
	movq	%rsp, %rbp
	.cfi_def_cfa_register %rbp
	pushq	%rax
	movq	%rdi, -8(%rbp)
Ltmp1221:
	.loc	4 490 1 prologue_end
	addq	$8, %rsp
	popq	%rbp
	retq
Ltmp1222:
Lfunc_end162:
	.cfi_endproc

	.p2align	4, 0x90
__ZN4core3ptr37drop_in_place$LT$core..fmt..Error$GT$17he9f0b33132a482d6E:
Lfunc_begin163:
	.loc	4 490 0
	.cfi_startproc
	pushq	%rbp
	.cfi_def_cfa_offset 16
	.cfi_offset %rbp, -16
	movq	%rsp, %rbp
	.cfi_def_cfa_register %rbp
	pushq	%rax
	movq	%rdi, -8(%rbp)
Ltmp1223:
	.loc	4 490 1 prologue_end
	addq	$8, %rsp
	popq	%rbp
	retq
Ltmp1224:
Lfunc_end163:
	.cfi_endproc

	.p2align	4, 0x90
__ZN4core3ptr37drop_in_place$LT$proc_macro..Span$GT$17h0773d4c95d00c2eeE:
Lfunc_begin164:
	.loc	4 490 0
	.cfi_startproc
	pushq	%rbp
	.cfi_def_cfa_offset 16
	.cfi_offset %rbp, -16
	movq	%rsp, %rbp
	.cfi_def_cfa_register %rbp
	pushq	%rax
	movq	%rdi, -8(%rbp)
Ltmp1225:
	.loc	4 490 1 prologue_end
	addq	$8, %rsp
	popq	%rbp
	retq
Ltmp1226:
Lfunc_end164:
	.cfi_endproc

	.globl	__ZN4core3ptr38drop_in_place$LT$proc_macro..Group$GT$17h2830988c118a48ddE
	.p2align	4, 0x90
__ZN4core3ptr38drop_in_place$LT$proc_macro..Group$GT$17h2830988c118a48ddE:
Lfunc_begin165:
	.loc	4 490 0
	.cfi_startproc
	pushq	%rbp
	.cfi_def_cfa_offset 16
	.cfi_offset %rbp, -16
	movq	%rsp, %rbp
	.cfi_def_cfa_register %rbp
	subq	$16, %rsp
	movq	%rdi, -8(%rbp)
Ltmp1227:
	.loc	4 490 1 prologue_end
	callq	__ZN4core3ptr128drop_in_place$LT$proc_macro..bridge..Group$LT$proc_macro..bridge..client..TokenStream$C$proc_macro..bridge..client..Span$GT$$GT$17h18b43ff1e52c7aeeE
	addq	$16, %rsp
	popq	%rbp
	retq
Ltmp1228:
Lfunc_end165:
	.cfi_endproc

	.globl	__ZN4core3ptr39drop_in_place$LT$proc_macro2..Group$GT$17h8c4866e99b3ee90dE
	.p2align	4, 0x90
__ZN4core3ptr39drop_in_place$LT$proc_macro2..Group$GT$17h8c4866e99b3ee90dE:
Lfunc_begin166:
	.loc	4 490 0
	.cfi_startproc
	pushq	%rbp
	.cfi_def_cfa_offset 16
	.cfi_offset %rbp, -16
	movq	%rsp, %rbp
	.cfi_def_cfa_register %rbp
	subq	$16, %rsp
	movq	%rdi, -8(%rbp)
Ltmp1229:
	.loc	4 490 1 prologue_end
	callq	__ZN4core3ptr44drop_in_place$LT$proc_macro2..imp..Group$GT$17hcff10bd1cda8639dE
	addq	$16, %rsp
	popq	%rbp
	retq
Ltmp1230:
Lfunc_end166:
	.cfi_endproc

	.globl	__ZN4core3ptr39drop_in_place$LT$proc_macro2..Ident$GT$17hd50000fad0c4b388E
	.p2align	4, 0x90
__ZN4core3ptr39drop_in_place$LT$proc_macro2..Ident$GT$17hd50000fad0c4b388E:
Lfunc_begin167:
	.loc	4 490 0
	.cfi_startproc
	pushq	%rbp
	.cfi_def_cfa_offset 16
	.cfi_offset %rbp, -16
	movq	%rsp, %rbp
	.cfi_def_cfa_register %rbp
	subq	$16, %rsp
	movq	%rdi, -8(%rbp)
Ltmp1231:
	.loc	4 490 1 prologue_end
	callq	__ZN4core3ptr44drop_in_place$LT$proc_macro2..imp..Ident$GT$17h528e7b39d9f963fbE
	addq	$16, %rsp
	popq	%rbp
	retq
Ltmp1232:
Lfunc_end167:
	.cfi_endproc

	.globl	__ZN4core3ptr39drop_in_place$LT$std..path..PathBuf$GT$17h0d509e5e8fa30c15E
	.p2align	4, 0x90
__ZN4core3ptr39drop_in_place$LT$std..path..PathBuf$GT$17h0d509e5e8fa30c15E:
Lfunc_begin168:
	.loc	4 490 0
	.cfi_startproc
	pushq	%rbp
	.cfi_def_cfa_offset 16
	.cfi_offset %rbp, -16
	movq	%rsp, %rbp
	.cfi_def_cfa_register %rbp
	subq	$16, %rsp
	movq	%rdi, -8(%rbp)
Ltmp1233:
	.loc	4 490 1 prologue_end
	callq	__ZN4core3ptr47drop_in_place$LT$std..ffi..os_str..OsString$GT$17hb52220c9ca22ceecE
	addq	$16, %rsp
	popq	%rbp
	retq
Ltmp1234:
Lfunc_end168:
	.cfi_endproc

	.p2align	4, 0x90
__ZN4core3ptr41drop_in_place$LT$core..fmt..Arguments$GT$17h189d7d579dc874f9E:
Lfunc_begin169:
	.loc	4 490 0
	.cfi_startproc
	pushq	%rbp
	.cfi_def_cfa_offset 16
	.cfi_offset %rbp, -16
	movq	%rsp, %rbp
	.cfi_def_cfa_register %rbp
	pushq	%rax
	movq	%rdi, -8(%rbp)
Ltmp1235:
	.loc	4 490 1 prologue_end
	addq	$8, %rsp
	popq	%rbp
	retq
Ltmp1236:
Lfunc_end169:
	.cfi_endproc

	.p2align	4, 0x90
__ZN4core3ptr41drop_in_place$LT$proc_macro..LexError$GT$17ha985ad714b382980E:
Lfunc_begin170:
	.loc	4 490 0
	.cfi_startproc
	pushq	%rbp
	.cfi_def_cfa_offset 16
	.cfi_offset %rbp, -16
	movq	%rsp, %rbp
	.cfi_def_cfa_register %rbp
	pushq	%rax
	movq	%rdi, -8(%rbp)
Ltmp1237:
	.loc	4 490 1 prologue_end
	addq	$8, %rsp
	popq	%rbp
	retq
Ltmp1238:
Lfunc_end170:
	.cfi_endproc

	.globl	__ZN4core3ptr41drop_in_place$LT$proc_macro2..Literal$GT$17h6a27869176d7395bE
	.p2align	4, 0x90
__ZN4core3ptr41drop_in_place$LT$proc_macro2..Literal$GT$17h6a27869176d7395bE:
Lfunc_begin171:
	.loc	4 490 0
	.cfi_startproc
	pushq	%rbp
	.cfi_def_cfa_offset 16
	.cfi_offset %rbp, -16
	movq	%rsp, %rbp
	.cfi_def_cfa_register %rbp
	subq	$16, %rsp
	movq	%rdi, -8(%rbp)
Ltmp1239:
	.loc	4 490 1 prologue_end
	callq	__ZN4core3ptr46drop_in_place$LT$proc_macro2..imp..Literal$GT$17h936e1af6e64c7453E
	addq	$16, %rsp
	popq	%rbp
	retq
Ltmp1240:
Lfunc_end171:
	.cfi_endproc

	.p2align	4, 0x90
__ZN4core3ptr41drop_in_place$LT$proc_macro2..Spacing$GT$17hd4673653f35dfd27E:
Lfunc_begin172:
	.loc	4 490 0
	.cfi_startproc
	pushq	%rbp
	.cfi_def_cfa_offset 16
	.cfi_offset %rbp, -16
	movq	%rsp, %rbp
	.cfi_def_cfa_register %rbp
	pushq	%rax
	movq	%rdi, -8(%rbp)
Ltmp1241:
	.loc	4 490 1 prologue_end
	addq	$8, %rsp
	popq	%rbp
	retq
Ltmp1242:
Lfunc_end172:
	.cfi_endproc

	.globl	__ZN4core3ptr42drop_in_place$LT$alloc..string..String$GT$17h61119d261c692d35E
	.p2align	4, 0x90
__ZN4core3ptr42drop_in_place$LT$alloc..string..String$GT$17h61119d261c692d35E:
Lfunc_begin173:
	.loc	4 490 0
	.cfi_startproc
	pushq	%rbp
	.cfi_def_cfa_offset 16
	.cfi_offset %rbp, -16
	movq	%rsp, %rbp
	.cfi_def_cfa_register %rbp
	subq	$16, %rsp
	movq	%rdi, -8(%rbp)
Ltmp1243:
	.loc	4 490 1 prologue_end
	callq	__ZN4core3ptr46drop_in_place$LT$alloc..vec..Vec$LT$u8$GT$$GT$17h9f60f7d685bc24dfE
	addq	$16, %rsp
	popq	%rbp
	retq
Ltmp1244:
Lfunc_end173:
	.cfi_endproc

	.globl	__ZN4core3ptr42drop_in_place$LT$proc_macro..TokenTree$GT$17h06b7e85d63d4c585E
	.p2align	4, 0x90
__ZN4core3ptr42drop_in_place$LT$proc_macro..TokenTree$GT$17h06b7e85d63d4c585E:
Lfunc_begin174:
	.loc	4 490 0
	.cfi_startproc
	pushq	%rbp
	.cfi_def_cfa_offset 16
	.cfi_offset %rbp, -16
	movq	%rsp, %rbp
	.cfi_def_cfa_register %rbp
	subq	$32, %rsp
