	.section	__TEXT,__text,regular,pure_instructions
	.macosx_version_min 10, 7
	.p2align	4, 0x90
__ZN100_$LT$alloc..string..String$u20$as$u20$core..ops..index..Index$LT$core..ops..range..RangeFull$GT$$GT$5index17h4aaa6e4a350d0d26E:
Lfunc_begin0:
	.file	1 "/rustc/2c8cc343237b8f7d5a3c3703e3a87f2eb2c54a74/library/alloc/src" "string.rs"
	.loc	1 2388 0
	.cfi_startproc
	pushq	%rbp
	.cfi_def_cfa_offset 16
	.cfi_offset %rbp, -16
	movq	%rsp, %rbp
	.cfi_def_cfa_register %rbp
	subq	$48, %rsp
	movq	%rdi, -48(%rbp)
Ltmp0:
	.loc	1 2389 43 prologue_end
	callq	__ZN72_$LT$alloc..vec..Vec$LT$T$C$A$GT$$u20$as$u20$core..ops..deref..Deref$GT$5deref17h41eb01866a6f1696E
	movq	%rax, -32(%rbp)
	movq	%rdx, -24(%rbp)
Ltmp1:
	.file	2 "/rustc/2c8cc343237b8f7d5a3c3703e3a87f2eb2c54a74/library/core/src/str" "converts.rs"
	.loc	2 173 14
	movq	%rax, -16(%rbp)
	movq	%rdx, -8(%rbp)
	movq	-16(%rbp), %rax
	movq	-8(%rbp), %rdx
Ltmp2:
	.loc	1 2390 6
	addq	$48, %rsp
	popq	%rbp
	retq
Ltmp3:
Lfunc_end0:
	.cfi_endproc

	.globl	__ZN102_$LT$core..iter..adapters..map..Map$LT$I$C$F$GT$$u20$as$u20$core..iter..traits..iterator..Iterator$GT$4fold17h0403437a74312892E
	.p2align	4, 0x90
__ZN102_$LT$core..iter..adapters..map..Map$LT$I$C$F$GT$$u20$as$u20$core..iter..traits..iterator..Iterator$GT$4fold17h0403437a74312892E:
Lfunc_begin1:
	.file	3 "/rustc/2c8cc343237b8f7d5a3c3703e3a87f2eb2c54a74/library/core/src/iter/adapters" "map.rs"
	.loc	3 120 0
	.cfi_startproc
	.cfi_personality 155, _rust_eh_personality
	.cfi_lsda 16, Lexception0
	pushq	%rbp
	.cfi_def_cfa_offset 16
	.cfi_offset %rbp, -16
	movq	%rsp, %rbp
	.cfi_def_cfa_register %rbp
	subq	$96, %rsp
	movq	%rsi, -24(%rbp)
Ltmp12:
	.loc	3 124 9 prologue_end
	movb	$1, -33(%rbp)
	movq	40(%rdi), %rax
	movq	%rax, -48(%rbp)
	movq	32(%rdi), %rax
	movq	%rax, -56(%rbp)
	movq	24(%rdi), %rax
	movq	%rax, -64(%rbp)
	movq	8(%rdi), %rax
	movq	16(%rdi), %rcx
	movq	%rcx, -72(%rbp)
	movq	%rax, -80(%rbp)
	.loc	3 124 24 is_stmt 0
	movb	$1, -34(%rbp)
	.loc	3 124 39
	movq	(%rdi), %rdi
Ltmp13:
Ltmp4:
	.loc	3 124 30
	callq	__ZN4core4iter8adapters3map8map_fold17h2256c9590c99c013E
Ltmp5:
	movq	%rdx, -96(%rbp)
	movq	%rax, -88(%rbp)
	jmp	LBB1_3
Ltmp14:
LBB1_1:
	.loc	3 124 49
	testb	$1, -34(%rbp)
	jne	LBB1_6
	jmp	LBB1_5
Ltmp15:
LBB1_2:
Ltmp8:
	.loc	3 0 49
	movq	%rax, %rcx
	movl	%edx, %eax
	movq	%rcx, -16(%rbp)
	movl	%eax, -8(%rbp)
	jmp	LBB1_1
Ltmp16:
LBB1_3:
	movq	-96(%rbp), %rdx
	movq	-88(%rbp), %rsi
	.loc	3 124 9
	movb	$0, -33(%rbp)
	movb	$0, -34(%rbp)
Ltmp6:
	leaq	-80(%rbp), %rdi
	callq	__ZN4core4iter6traits8iterator8Iterator4fold17haa988f9813e137feE
Ltmp7:
	jmp	LBB1_4
Ltmp17:
LBB1_4:
	.loc	3 125 6 is_stmt 1
	addq	$96, %rsp
	popq	%rbp
	retq
Ltmp18:
LBB1_5:
	.loc	3 124 49
	testb	$1, -33(%rbp)
	jne	LBB1_8
	jmp	LBB1_7
Ltmp19:
LBB1_6:
	jmp	LBB1_5
Ltmp20:
LBB1_7:
	.loc	3 120 5
	movq	-16(%rbp), %rdi
	callq	__Unwind_Resume
Ltmp21:
LBB1_8:
Ltmp9:
	.loc	3 0 5 is_stmt 0
	leaq	-80(%rbp), %rdi
	.loc	3 124 49 is_stmt 1
	callq	__ZN4core3ptr56drop_in_place$LT$proc_macro2..token_stream..IntoIter$GT$17h671ab9d82e552e5dE
Ltmp10:
	jmp	LBB1_7
Ltmp22:
LBB1_9:
Ltmp11:
	.loc	3 120 5
	callq	__ZN4core9panicking19panic_cannot_unwind17h1fbca7e1d7f56ae1E
Ltmp23:
Lfunc_end1:
	.cfi_endproc
	.section	__TEXT,__gcc_except_tab
	.p2align	2
GCC_except_table1:
Lexception0:
	.byte	255
	.byte	255
	.byte	1
	.uleb128 Lcst_end0-Lcst_begin0
Lcst_begin0:
	.uleb128 Ltmp4-Lfunc_begin1
	.uleb128 Ltmp7-Ltmp4
	.uleb128 Ltmp8-Lfunc_begin1
	.byte	0
	.uleb128 Ltmp7-Lfunc_begin1
	.uleb128 Ltmp9-Ltmp7
	.byte	0
	.byte	0
	.uleb128 Ltmp9-Lfunc_begin1
	.uleb128 Ltmp10-Ltmp9
	.uleb128 Ltmp11-Lfunc_begin1
	.byte	0
Lcst_end0:
	.p2align	2

	.section	__TEXT,__text,regular,pure_instructions
	.globl	__ZN102_$LT$core..iter..adapters..map..Map$LT$I$C$F$GT$$u20$as$u20$core..iter..traits..iterator..Iterator$GT$4fold17h253e656888f23e34E
	.p2align	4, 0x90
__ZN102_$LT$core..iter..adapters..map..Map$LT$I$C$F$GT$$u20$as$u20$core..iter..traits..iterator..Iterator$GT$4fold17h253e656888f23e34E:
Lfunc_begin2:
	.loc	3 120 0
	.cfi_startproc
	.cfi_personality 155, _rust_eh_personality
	.cfi_lsda 16, Lexception1
	pushq	%rbp
	.cfi_def_cfa_offset 16
	.cfi_offset %rbp, -16
	movq	%rsp, %rbp
	.cfi_def_cfa_register %rbp
	subq	$96, %rsp
	movq	%rsi, -24(%rbp)
Ltmp32:
	.loc	3 124 9 prologue_end
	movb	$1, -33(%rbp)
	movq	40(%rdi), %rax
	movq	%rax, -48(%rbp)
	movq	32(%rdi), %rax
	movq	%rax, -56(%rbp)
	movq	24(%rdi), %rax
	movq	%rax, -64(%rbp)
	movq	8(%rdi), %rax
	movq	16(%rdi), %rcx
	movq	%rcx, -72(%rbp)
	movq	%rax, -80(%rbp)
	.loc	3 124 24 is_stmt 0
	movb	$1, -34(%rbp)
	.loc	3 124 39
	movq	(%rdi), %rdi
Ltmp33:
Ltmp24:
	.loc	3 124 30
	callq	__ZN4core4iter8adapters3map8map_fold17hca1df6af2d3a3d94E
Ltmp25:
	movq	%rdx, -96(%rbp)
	movq	%rax, -88(%rbp)
	jmp	LBB2_3
Ltmp34:
LBB2_1:
	.loc	3 124 49
	testb	$1, -34(%rbp)
	jne	LBB2_6
	jmp	LBB2_5
Ltmp35:
LBB2_2:
Ltmp28:
	.loc	3 0 49
	movq	%rax, %rcx
	movl	%edx, %eax
	movq	%rcx, -16(%rbp)
	movl	%eax, -8(%rbp)
	jmp	LBB2_1
Ltmp36:
LBB2_3:
	movq	-96(%rbp), %rdx
	movq	-88(%rbp), %rsi
	.loc	3 124 9
	movb	$0, -33(%rbp)
	movb	$0, -34(%rbp)
Ltmp26:
	leaq	-80(%rbp), %rdi
	callq	__ZN4core4iter6traits8iterator8Iterator4fold17h8be35cd647dea879E
Ltmp27:
	jmp	LBB2_4
Ltmp37:
LBB2_4:
	.loc	3 125 6 is_stmt 1
	addq	$96, %rsp
	popq	%rbp
	retq
Ltmp38:
LBB2_5:
	.loc	3 124 49
	testb	$1, -33(%rbp)
	jne	LBB2_8
	jmp	LBB2_7
Ltmp39:
LBB2_6:
	jmp	LBB2_5
Ltmp40:
LBB2_7:
	.loc	3 120 5
	movq	-16(%rbp), %rdi
	callq	__Unwind_Resume
Ltmp41:
LBB2_8:
Ltmp29:
	.loc	3 0 5 is_stmt 0
	leaq	-80(%rbp), %rdi
	.loc	3 124 49 is_stmt 1
	callq	__ZN4core3ptr56drop_in_place$LT$proc_macro2..token_stream..IntoIter$GT$17h671ab9d82e552e5dE
Ltmp30:
	jmp	LBB2_7
Ltmp42:
LBB2_9:
Ltmp31:
	.loc	3 120 5
	callq	__ZN4core9panicking19panic_cannot_unwind17h1fbca7e1d7f56ae1E
Ltmp43:
Lfunc_end2:
	.cfi_endproc
	.section	__TEXT,__gcc_except_tab
	.p2align	2
GCC_except_table2:
Lexception1:
	.byte	255
	.byte	255
	.byte	1
	.uleb128 Lcst_end1-Lcst_begin1
Lcst_begin1:
	.uleb128 Ltmp24-Lfunc_begin2
	.uleb128 Ltmp27-Ltmp24
	.uleb128 Ltmp28-Lfunc_begin2
	.byte	0
	.uleb128 Ltmp27-Lfunc_begin2
	.uleb128 Ltmp29-Ltmp27
	.byte	0
	.byte	0
	.uleb128 Ltmp29-Lfunc_begin2
	.uleb128 Ltmp30-Ltmp29
	.uleb128 Ltmp31-Lfunc_begin2
	.byte	0
Lcst_end1:
	.p2align	2

	.section	__TEXT,__text,regular,pure_instructions
	.globl	__ZN102_$LT$core..iter..adapters..map..Map$LT$I$C$F$GT$$u20$as$u20$core..iter..traits..iterator..Iterator$GT$4fold17h5cbb7474a4416564E
	.p2align	4, 0x90
__ZN102_$LT$core..iter..adapters..map..Map$LT$I$C$F$GT$$u20$as$u20$core..iter..traits..iterator..Iterator$GT$4fold17h5cbb7474a4416564E:
Lfunc_begin3:
	.loc	3 120 0
	.cfi_startproc
	.cfi_personality 155, _rust_eh_personality
	.cfi_lsda 16, Lexception2
	pushq	%rbp
	.cfi_def_cfa_offset 16
	.cfi_offset %rbp, -16
	movq	%rsp, %rbp
	.cfi_def_cfa_register %rbp
	subq	$96, %rsp
	movq	%rsi, -96(%rbp)
	movq	%rdi, %rcx
	movq	-96(%rbp), %rdi
Ltmp52:
	movq	%rdi, -24(%rbp)
Ltmp53:
	.loc	3 124 9 prologue_end
	movb	$1, -33(%rbp)
	movq	32(%rcx), %rax
	movq	%rax, -48(%rbp)
	movq	24(%rcx), %rax
	movq	%rax, -56(%rbp)
	movq	16(%rcx), %rax
	movq	%rax, -64(%rbp)
	movq	(%rcx), %rax
	movq	8(%rcx), %rcx
Ltmp54:
	movq	%rcx, -72(%rbp)
	movq	%rax, -80(%rbp)
	.loc	3 124 24 is_stmt 0
	movb	$1, -34(%rbp)
Ltmp44:
	.loc	3 124 30
	callq	__ZN4core4iter8adapters3map8map_fold17hd42ae17de52ded94E
Ltmp45:
	movq	%rax, -88(%rbp)
	jmp	LBB3_3
LBB3_1:
	.loc	3 124 49
	testb	$1, -34(%rbp)
	jne	LBB3_6
	jmp	LBB3_5
LBB3_2:
Ltmp48:
	.loc	3 0 49
	movq	%rax, %rcx
	movl	%edx, %eax
	movq	%rcx, -16(%rbp)
	movl	%eax, -8(%rbp)
	jmp	LBB3_1
LBB3_3:
	movq	-88(%rbp), %rsi
	.loc	3 124 9
	movb	$0, -33(%rbp)
	movb	$0, -34(%rbp)
Ltmp46:
	leaq	-80(%rbp), %rdi
	callq	__ZN4core4iter6traits8iterator8Iterator4fold17hfaf88cfa2002715bE
Ltmp47:
	jmp	LBB3_4
LBB3_4:
	.loc	3 125 6 is_stmt 1
	addq	$96, %rsp
	popq	%rbp
	retq
LBB3_5:
	.loc	3 124 49
	testb	$1, -33(%rbp)
	jne	LBB3_8
	jmp	LBB3_7
LBB3_6:
	jmp	LBB3_5
LBB3_7:
	.loc	3 120 5
	movq	-16(%rbp), %rdi
	callq	__Unwind_Resume
LBB3_8:
Ltmp49:
	.loc	3 0 5 is_stmt 0
	leaq	-80(%rbp), %rdi
	.loc	3 124 49 is_stmt 1
	callq	__ZN4core3ptr84drop_in_place$LT$core..iter..sources..once..Once$LT$proc_macro2..TokenStream$GT$$GT$17h9dd1c3b059c709f8E
Ltmp50:
	jmp	LBB3_7
LBB3_9:
Ltmp51:
	.loc	3 120 5
	callq	__ZN4core9panicking19panic_cannot_unwind17h1fbca7e1d7f56ae1E
Ltmp55:
Lfunc_end3:
	.cfi_endproc
	.section	__TEXT,__gcc_except_tab
	.p2align	2
GCC_except_table3:
Lexception2:
	.byte	255
	.byte	255
	.byte	1
	.uleb128 Lcst_end2-Lcst_begin2
Lcst_begin2:
	.uleb128 Ltmp44-Lfunc_begin3
	.uleb128 Ltmp47-Ltmp44
	.uleb128 Ltmp48-Lfunc_begin3
	.byte	0
	.uleb128 Ltmp47-Lfunc_begin3
	.uleb128 Ltmp49-Ltmp47
	.byte	0
	.byte	0
	.uleb128 Ltmp49-Lfunc_begin3
	.uleb128 Ltmp50-Ltmp49
	.uleb128 Ltmp51-Lfunc_begin3
	.byte	0
Lcst_end2:
	.p2align	2

	.section	__TEXT,__text,regular,pure_instructions
	.globl	__ZN102_$LT$core..iter..adapters..map..Map$LT$I$C$F$GT$$u20$as$u20$core..iter..traits..iterator..Iterator$GT$4fold17h65a463da038d4e6cE
	.p2align	4, 0x90
__ZN102_$LT$core..iter..adapters..map..Map$LT$I$C$F$GT$$u20$as$u20$core..iter..traits..iterator..Iterator$GT$4fold17h65a463da038d4e6cE:
Lfunc_begin4:
	.loc	3 120 0
	.cfi_startproc
	.cfi_personality 155, _rust_eh_personality
	.cfi_lsda 16, Lexception3
	pushq	%rbp
	.cfi_def_cfa_offset 16
	.cfi_offset %rbp, -16
	movq	%rsp, %rbp
	.cfi_def_cfa_register %rbp
	subq	$96, %rsp
	movl	%esi, -88(%rbp)
	movl	%edx, -84(%rbp)
	movl	%esi, -32(%rbp)
	movl	%edx, -28(%rbp)
Ltmp64:
	.loc	3 124 9 prologue_end
	movb	$1, -33(%rbp)
	movq	32(%rdi), %rax
	movq	%rax, -48(%rbp)
	movq	24(%rdi), %rax
	movq	%rax, -56(%rbp)
	movq	16(%rdi), %rax
	movq	%rax, -64(%rbp)
	movq	(%rdi), %rax
	movq	8(%rdi), %rcx
	movq	%rcx, -72(%rbp)
	movq	%rax, -80(%rbp)
	.loc	3 124 24 is_stmt 0
	movb	$1, -34(%rbp)
Ltmp56:
	.loc	3 124 30
	callq	__ZN4core4iter8adapters3map8map_fold17hc7121d3119c3d3f0E
Ltmp65:
Ltmp57:
	jmp	LBB4_3
Ltmp66:
LBB4_1:
	.loc	3 124 49
	testb	$1, -34(%rbp)
	jne	LBB4_6
	jmp	LBB4_5
Ltmp67:
LBB4_2:
Ltmp60:
	.loc	3 0 49
	movq	%rax, %rcx
	movl	%edx, %eax
	movq	%rcx, -16(%rbp)
	movl	%eax, -8(%rbp)
	jmp	LBB4_1
Ltmp68:
LBB4_3:
	movl	-84(%rbp), %edx
	movl	-88(%rbp), %esi
	.loc	3 124 9
	movb	$0, -33(%rbp)
	movb	$0, -34(%rbp)
Ltmp58:
	leaq	-80(%rbp), %rdi
	callq	__ZN4core4iter6traits8iterator8Iterator4fold17he4289d091b4e0da1E
Ltmp59:
	movl	%edx, -96(%rbp)
	movl	%eax, -92(%rbp)
	jmp	LBB4_4
Ltmp69:
LBB4_4:
	.loc	3 0 9
	movl	-96(%rbp), %edx
	movl	-92(%rbp), %eax
	.loc	3 125 6 is_stmt 1
	addq	$96, %rsp
	popq	%rbp
	retq
Ltmp70:
LBB4_5:
	.loc	3 124 49
	testb	$1, -33(%rbp)
	jne	LBB4_8
	jmp	LBB4_7
Ltmp71:
LBB4_6:
	jmp	LBB4_5
Ltmp72:
LBB4_7:
	.loc	3 120 5
	movq	-16(%rbp), %rdi
	callq	__Unwind_Resume
Ltmp73:
LBB4_8:
Ltmp61:
	.loc	3 0 5 is_stmt 0
	leaq	-80(%rbp), %rdi
	.loc	3 124 49 is_stmt 1
	callq	__ZN4core3ptr56drop_in_place$LT$proc_macro2..token_stream..IntoIter$GT$17h671ab9d82e552e5dE
Ltmp62:
	jmp	LBB4_7
Ltmp74:
LBB4_9:
Ltmp63:
	.loc	3 120 5
	callq	__ZN4core9panicking19panic_cannot_unwind17h1fbca7e1d7f56ae1E
Ltmp75:
Lfunc_end4:
	.cfi_endproc
	.section	__TEXT,__gcc_except_tab
	.p2align	2
GCC_except_table4:
Lexception3:
	.byte	255
	.byte	255
	.byte	1
	.uleb128 Lcst_end3-Lcst_begin3
Lcst_begin3:
	.uleb128 Ltmp56-Lfunc_begin4
	.uleb128 Ltmp59-Ltmp56
	.uleb128 Ltmp60-Lfunc_begin4
	.byte	0
	.uleb128 Ltmp59-Lfunc_begin4
	.uleb128 Ltmp61-Ltmp59
	.byte	0
	.byte	0
	.uleb128 Ltmp61-Lfunc_begin4
	.uleb128 Ltmp62-Ltmp61
	.uleb128 Ltmp63-Lfunc_begin4
	.byte	0
Lcst_end3:
	.p2align	2

	.section	__TEXT,__text,regular,pure_instructions
	.globl	__ZN102_$LT$core..iter..adapters..map..Map$LT$I$C$F$GT$$u20$as$u20$core..iter..traits..iterator..Iterator$GT$4fold17h66446e1b1435ebf8E
	.p2align	4, 0x90
__ZN102_$LT$core..iter..adapters..map..Map$LT$I$C$F$GT$$u20$as$u20$core..iter..traits..iterator..Iterator$GT$4fold17h66446e1b1435ebf8E:
Lfunc_begin5:
	.loc	3 120 0
	.cfi_startproc
	.cfi_personality 155, _rust_eh_personality
	.cfi_lsda 16, Lexception4
	pushq	%rbp
	.cfi_def_cfa_offset 16
	.cfi_offset %rbp, -16
	movq	%rsp, %rbp
	.cfi_def_cfa_register %rbp
	subq	$96, %rsp
	movq	%rsi, -24(%rbp)
Ltmp84:
	.loc	3 124 9 prologue_end
	movb	$1, -33(%rbp)
	movq	40(%rdi), %rax
	movq	%rax, -48(%rbp)
	movq	32(%rdi), %rax
	movq	%rax, -56(%rbp)
	movq	24(%rdi), %rax
	movq	%rax, -64(%rbp)
	movq	8(%rdi), %rax
	movq	16(%rdi), %rcx
	movq	%rcx, -72(%rbp)
	movq	%rax, -80(%rbp)
	.loc	3 124 24 is_stmt 0
	movb	$1, -34(%rbp)
	.loc	3 124 39
	movq	(%rdi), %rdi
Ltmp85:
Ltmp76:
	.loc	3 124 30
	callq	__ZN4core4iter8adapters3map8map_fold17hd7162c9469e19265E
Ltmp77:
	movq	%rdx, -96(%rbp)
	movq	%rax, -88(%rbp)
	jmp	LBB5_3
Ltmp86:
LBB5_1:
	.loc	3 124 49
	testb	$1, -34(%rbp)
	jne	LBB5_6
	jmp	LBB5_5
Ltmp87:
LBB5_2:
Ltmp80:
	.loc	3 0 49
	movq	%rax, %rcx
	movl	%edx, %eax
	movq	%rcx, -16(%rbp)
	movl	%eax, -8(%rbp)
	jmp	LBB5_1
Ltmp88:
LBB5_3:
	movq	-96(%rbp), %rdx
	movq	-88(%rbp), %rsi
	.loc	3 124 9
	movb	$0, -33(%rbp)
	movb	$0, -34(%rbp)
Ltmp78:
	leaq	-80(%rbp), %rdi
	callq	__ZN4core4iter6traits8iterator8Iterator4fold17hc8c29f25613d6019E
Ltmp79:
	jmp	LBB5_4
Ltmp89:
LBB5_4:
	.loc	3 125 6 is_stmt 1
	addq	$96, %rsp
	popq	%rbp
	retq
Ltmp90:
LBB5_5:
	.loc	3 124 49
	testb	$1, -33(%rbp)
	jne	LBB5_8
	jmp	LBB5_7
Ltmp91:
LBB5_6:
	jmp	LBB5_5
Ltmp92:
LBB5_7:
	.loc	3 120 5
	movq	-16(%rbp), %rdi
	callq	__Unwind_Resume
Ltmp93:
LBB5_8:
Ltmp81:
	.loc	3 0 5 is_stmt 0
	leaq	-80(%rbp), %rdi
	.loc	3 124 49 is_stmt 1
	callq	__ZN4core3ptr56drop_in_place$LT$proc_macro2..token_stream..IntoIter$GT$17h671ab9d82e552e5dE
Ltmp82:
	jmp	LBB5_7
Ltmp94:
LBB5_9:
Ltmp83:
	.loc	3 120 5
	callq	__ZN4core9panicking19panic_cannot_unwind17h1fbca7e1d7f56ae1E
Ltmp95:
Lfunc_end5:
	.cfi_endproc
	.section	__TEXT,__gcc_except_tab
	.p2align	2
GCC_except_table5:
Lexception4:
	.byte	255
	.byte	255
	.byte	1
	.uleb128 Lcst_end4-Lcst_begin4
Lcst_begin4:
	.uleb128 Ltmp76-Lfunc_begin5
	.uleb128 Ltmp79-Ltmp76
	.uleb128 Ltmp80-Lfunc_begin5
	.byte	0
	.uleb128 Ltmp79-Lfunc_begin5
	.uleb128 Ltmp81-Ltmp79
	.byte	0
	.byte	0
	.uleb128 Ltmp81-Lfunc_begin5
	.uleb128 Ltmp82-Ltmp81
	.uleb128 Ltmp83-Lfunc_begin5
	.byte	0
Lcst_end4:
	.p2align	2

	.section	__TEXT,__text,regular,pure_instructions
	.globl	__ZN102_$LT$core..iter..adapters..map..Map$LT$I$C$F$GT$$u20$as$u20$core..iter..traits..iterator..Iterator$GT$4fold17hb26f7ddd06db0e21E
	.p2align	4, 0x90
__ZN102_$LT$core..iter..adapters..map..Map$LT$I$C$F$GT$$u20$as$u20$core..iter..traits..iterator..Iterator$GT$4fold17hb26f7ddd06db0e21E:
Lfunc_begin6:
	.loc	3 120 0
	.cfi_startproc
	.cfi_personality 155, _rust_eh_personality
	.cfi_lsda 16, Lexception5
	pushq	%rbp
	.cfi_def_cfa_offset 16
	.cfi_offset %rbp, -16
	movq	%rsp, %rbp
	.cfi_def_cfa_register %rbp
	subq	$96, %rsp
	movq	%rsi, -96(%rbp)
	movq	%rdi, %rcx
	movq	-96(%rbp), %rdi
Ltmp104:
	movq	%rdi, -24(%rbp)
Ltmp105:
	.loc	3 124 9 prologue_end
	movb	$1, -33(%rbp)
	movq	32(%rcx), %rax
	movq	%rax, -48(%rbp)
	movq	24(%rcx), %rax
	movq	%rax, -56(%rbp)
	movq	16(%rcx), %rax
	movq	%rax, -64(%rbp)
	movq	(%rcx), %rax
	movq	8(%rcx), %rcx
Ltmp106:
	movq	%rcx, -72(%rbp)
	movq	%rax, -80(%rbp)
	.loc	3 124 24 is_stmt 0
	movb	$1, -34(%rbp)
Ltmp96:
	.loc	3 124 30
	callq	__ZN4core4iter8adapters3map8map_fold17h17e61b29875e1780E
Ltmp97:
	movq	%rax, -88(%rbp)
	jmp	LBB6_3
LBB6_1:
	.loc	3 124 49
	testb	$1, -34(%rbp)
	jne	LBB6_6
	jmp	LBB6_5
LBB6_2:
Ltmp100:
	.loc	3 0 49
	movq	%rax, %rcx
	movl	%edx, %eax
	movq	%rcx, -16(%rbp)
	movl	%eax, -8(%rbp)
	jmp	LBB6_1
LBB6_3:
	movq	-88(%rbp), %rsi
	.loc	3 124 9
	movb	$0, -33(%rbp)
	movb	$0, -34(%rbp)
Ltmp98:
	leaq	-80(%rbp), %rdi
	callq	__ZN102_$LT$core..iter..adapters..map..Map$LT$I$C$F$GT$$u20$as$u20$core..iter..traits..iterator..Iterator$GT$4fold17h5cbb7474a4416564E
Ltmp99:
	jmp	LBB6_4
LBB6_4:
	.loc	3 125 6 is_stmt 1
	addq	$96, %rsp
	popq	%rbp
	retq
LBB6_5:
	.loc	3 124 49
	testb	$1, -33(%rbp)
	jne	LBB6_8
	jmp	LBB6_7
LBB6_6:
	jmp	LBB6_5
LBB6_7:
	.loc	3 120 5
	movq	-16(%rbp), %rdi
	callq	__Unwind_Resume
LBB6_8:
Ltmp101:
	.loc	3 0 5 is_stmt 0
	leaq	-80(%rbp), %rdi
	.loc	3 124 49 is_stmt 1
	callq	__ZN4core3ptr344drop_in_place$LT$core..iter..adapters..map..Map$LT$core..iter..sources..once..Once$LT$proc_macro2..TokenStream$GT$$C$$LT$proc_macro2..TokenStream$u20$as$u20$core..iter..traits..collect..Extend$LT$proc_macro2..TokenStream$GT$$GT$..extend$LT$core..iter..sources..once..Once$LT$proc_macro2..TokenStream$GT$$GT$..$u7b$$u7b$closure$u7d$$u7d$$GT$$GT$17h74c0836341825557E
Ltmp102:
	jmp	LBB6_7
LBB6_9:
Ltmp103:
	.loc	3 120 5
	callq	__ZN4core9panicking19panic_cannot_unwind17h1fbca7e1d7f56ae1E
Ltmp107:
Lfunc_end6:
	.cfi_endproc
	.section	__TEXT,__gcc_except_tab
	.p2align	2
GCC_except_table6:
Lexception5:
	.byte	255
	.byte	255
	.byte	1
	.uleb128 Lcst_end5-Lcst_begin5
Lcst_begin5:
	.uleb128 Ltmp96-Lfunc_begin6
	.uleb128 Ltmp99-Ltmp96
	.uleb128 Ltmp100-Lfunc_begin6
	.byte	0
	.uleb128 Ltmp99-Lfunc_begin6
	.uleb128 Ltmp101-Ltmp99
	.byte	0
	.byte	0
	.uleb128 Ltmp101-Lfunc_begin6
	.uleb128 Ltmp102-Ltmp101
	.uleb128 Ltmp103-Lfunc_begin6
	.byte	0
Lcst_end5:
	.p2align	2

	.section	__TEXT,__text,regular,pure_instructions
	.globl	__ZN102_$LT$core..iter..adapters..map..Map$LT$I$C$F$GT$$u20$as$u20$core..iter..traits..iterator..Iterator$GT$4fold17hef2aaf66a60dbe42E
	.p2align	4, 0x90
__ZN102_$LT$core..iter..adapters..map..Map$LT$I$C$F$GT$$u20$as$u20$core..iter..traits..iterator..Iterator$GT$4fold17hef2aaf66a60dbe42E:
Lfunc_begin7:
	.loc	3 120 0
	.cfi_startproc
	.cfi_personality 155, _rust_eh_personality
	.cfi_lsda 16, Lexception6
	pushq	%rbp
	.cfi_def_cfa_offset 16
	.cfi_offset %rbp, -16
	movq	%rsp, %rbp
	.cfi_def_cfa_register %rbp
	subq	$112, %rsp
	movq	%rsi, -104(%rbp)
	movq	%rdi, %rcx
	movq	-104(%rbp), %rdi
Ltmp116:
	movq	%rdi, -24(%rbp)
Ltmp117:
	.loc	3 124 9 prologue_end
	movb	$1, -33(%rbp)
	movq	40(%rcx), %rax
	movq	%rax, -48(%rbp)
	movq	32(%rcx), %rax
	movq	%rax, -56(%rbp)
	movq	24(%rcx), %rax
	movq	%rax, -64(%rbp)
	movq	16(%rcx), %rax
	movq	%rax, -72(%rbp)
	movq	(%rcx), %rax
	movq	8(%rcx), %rcx
Ltmp118:
	movq	%rcx, -80(%rbp)
	movq	%rax, -88(%rbp)
	.loc	3 124 24 is_stmt 0
	movb	$1, -34(%rbp)
Ltmp108:
	.loc	3 124 30
	callq	__ZN4core4iter8adapters3map8map_fold17hc1b3352b30c3b6ddE
Ltmp109:
	movq	%rax, -96(%rbp)
	jmp	LBB7_3
LBB7_1:
	.loc	3 124 49
	testb	$1, -34(%rbp)
	jne	LBB7_6
	jmp	LBB7_5
LBB7_2:
Ltmp112:
	.loc	3 0 49
	movq	%rax, %rcx
	movl	%edx, %eax
	movq	%rcx, -16(%rbp)
	movl	%eax, -8(%rbp)
	jmp	LBB7_1
LBB7_3:
	movq	-96(%rbp), %rsi
	.loc	3 124 9
	movb	$0, -33(%rbp)
	movb	$0, -34(%rbp)
Ltmp110:
	leaq	-88(%rbp), %rdi
	callq	__ZN102_$LT$core..iter..adapters..map..Map$LT$I$C$F$GT$$u20$as$u20$core..iter..traits..iterator..Iterator$GT$4fold17h253e656888f23e34E
Ltmp111:
	jmp	LBB7_4
LBB7_4:
	.loc	3 125 6 is_stmt 1
	addq	$112, %rsp
	popq	%rbp
	retq
LBB7_5:
	.loc	3 124 49
	testb	$1, -33(%rbp)
	jne	LBB7_8
	jmp	LBB7_7
LBB7_6:
	jmp	LBB7_5
LBB7_7:
	.loc	3 120 5
	movq	-16(%rbp), %rdi
	callq	__Unwind_Resume
LBB7_8:
Ltmp113:
	.loc	3 0 5 is_stmt 0
	leaq	-88(%rbp), %rdi
	.loc	3 124 49 is_stmt 1
	callq	__ZN4core3ptr161drop_in_place$LT$core..iter..adapters..map..Map$LT$proc_macro2..token_stream..IntoIter$C$quote..__private..respan_token_tree..$u7b$$u7b$closure$u7d$$u7d$$GT$$GT$17h3ab324330759af7aE
Ltmp114:
	jmp	LBB7_7
LBB7_9:
Ltmp115:
	.loc	3 120 5
	callq	__ZN4core9panicking19panic_cannot_unwind17h1fbca7e1d7f56ae1E
Ltmp119:
Lfunc_end7:
	.cfi_endproc
	.section	__TEXT,__gcc_except_tab
	.p2align	2
GCC_except_table7:
Lexception6:
	.byte	255
	.byte	255
	.byte	1
	.uleb128 Lcst_end6-Lcst_begin6
Lcst_begin6:
	.uleb128 Ltmp108-Lfunc_begin7
	.uleb128 Ltmp111-Ltmp108
	.uleb128 Ltmp112-Lfunc_begin7
	.byte	0
	.uleb128 Ltmp111-Lfunc_begin7
	.uleb128 Ltmp113-Ltmp111
	.byte	0
	.byte	0
	.uleb128 Ltmp113-Lfunc_begin7
	.uleb128 Ltmp114-Ltmp113
	.uleb128 Ltmp115-Lfunc_begin7
	.byte	0
Lcst_end6:
	.p2align	2

	.section	__TEXT,__text,regular,pure_instructions
	.globl	__ZN102_$LT$core..iter..adapters..map..Map$LT$I$C$F$GT$$u20$as$u20$core..iter..traits..iterator..Iterator$GT$4next17h1d9e3675bb608550E
	.p2align	4, 0x90
__ZN102_$LT$core..iter..adapters..map..Map$LT$I$C$F$GT$$u20$as$u20$core..iter..traits..iterator..Iterator$GT$4next17h1d9e3675bb608550E:
Lfunc_begin8:
	.loc	3 102 0
	.cfi_startproc
	pushq	%rbp
	.cfi_def_cfa_offset 16
	.cfi_offset %rbp, -16
	movq	%rsp, %rbp
	.cfi_def_cfa_register %rbp
	subq	$64, %rsp
	movq	%rdi, %rsi
	movq	%rsi, -56(%rbp)
	movq	%rsi, -8(%rbp)
Ltmp120:
	.loc	3 103 9 prologue_end
	leaq	-48(%rbp), %rdi
	callq	__ZN102_$LT$core..iter..adapters..map..Map$LT$I$C$F$GT$$u20$as$u20$core..iter..traits..iterator..Iterator$GT$4next17h47227c107eadefb2E
	movq	-56(%rbp), %rsi
	leaq	-48(%rbp), %rdi
	callq	__ZN4core6option15Option$LT$T$GT$3map17h7d610136eb910062E
	.loc	3 104 6
	addq	$64, %rsp
	popq	%rbp
	retq
Ltmp121:
Lfunc_end8:
	.cfi_endproc

	.globl	__ZN102_$LT$core..iter..adapters..map..Map$LT$I$C$F$GT$$u20$as$u20$core..iter..traits..iterator..Iterator$GT$4next17h47227c107eadefb2E
	.p2align	4, 0x90
__ZN102_$LT$core..iter..adapters..map..Map$LT$I$C$F$GT$$u20$as$u20$core..iter..traits..iterator..Iterator$GT$4next17h47227c107eadefb2E:
Lfunc_begin9:
	.loc	3 102 0
	.cfi_startproc
	pushq	%rbp
	.cfi_def_cfa_offset 16
	.cfi_offset %rbp, -16
	movq	%rsp, %rbp
	.cfi_def_cfa_register %rbp
	subq	$80, %rsp
	movq	%rsi, -64(%rbp)
	movq	%rdi, -72(%rbp)
	movq	%rdi, -56(%rbp)
	movq	%rsi, -8(%rbp)
Ltmp122:
	.loc	3 103 9 prologue_end
	leaq	-48(%rbp), %rdi
	callq	__ZN99_$LT$core..iter..sources..once..Once$LT$T$GT$$u20$as$u20$core..iter..traits..iterator..Iterator$GT$4next17hbdab4477d278ea8cE
	movq	-72(%rbp), %rdi
	movq	-64(%rbp), %rdx
	leaq	-48(%rbp), %rsi
	callq	__ZN4core6option15Option$LT$T$GT$3map17h77036ad4c7fbd280E
	movq	-56(%rbp), %rax
	.loc	3 104 6
	addq	$80, %rsp
	popq	%rbp
	retq
Ltmp123:
Lfunc_end9:
	.cfi_endproc

	.globl	__ZN102_$LT$core..iter..adapters..map..Map$LT$I$C$F$GT$$u20$as$u20$core..iter..traits..iterator..Iterator$GT$4next17h708871ae0aa2b153E
	.p2align	4, 0x90
__ZN102_$LT$core..iter..adapters..map..Map$LT$I$C$F$GT$$u20$as$u20$core..iter..traits..iterator..Iterator$GT$4next17h708871ae0aa2b153E:
Lfunc_begin10:
	.loc	3 102 0
	.cfi_startproc
	pushq	%rbp
	.cfi_def_cfa_offset 16
	.cfi_offset %rbp, -16
	movq	%rsp, %rbp
	.cfi_def_cfa_register %rbp
	subq	$80, %rsp
	movq	%rsi, -64(%rbp)
	movq	%rdi, -72(%rbp)
	movq	%rdi, -56(%rbp)
	movq	%rsi, -8(%rbp)
Ltmp124:
	.loc	3 103 9 prologue_end
	addq	$8, %rsi
	leaq	-48(%rbp), %rdi
	callq	__ZN94_$LT$proc_macro2..token_stream..IntoIter$u20$as$u20$core..iter..traits..iterator..Iterator$GT$4next17ha7d7184a272ea5c9E
	movq	-72(%rbp), %rdi
	movq	-64(%rbp), %rdx
	leaq	-48(%rbp), %rsi
	callq	__ZN4core6option15Option$LT$T$GT$3map17h807ded2790065f2fE
	movq	-56(%rbp), %rax
	.loc	3 104 6
	addq	$80, %rsp
	popq	%rbp
	retq
Ltmp125:
Lfunc_end10:
	.cfi_endproc

	.globl	__ZN102_$LT$core..iter..adapters..map..Map$LT$I$C$F$GT$$u20$as$u20$core..iter..traits..iterator..Iterator$GT$4next17hcbe0e772127b93b0E
	.p2align	4, 0x90
__ZN102_$LT$core..iter..adapters..map..Map$LT$I$C$F$GT$$u20$as$u20$core..iter..traits..iterator..Iterator$GT$4next17hcbe0e772127b93b0E:
Lfunc_begin11:
	.loc	3 102 0
	.cfi_startproc
	pushq	%rbp
	.cfi_def_cfa_offset 16
	.cfi_offset %rbp, -16
	movq	%rsp, %rbp
	.cfi_def_cfa_register %rbp
	subq	$64, %rsp
	movq	%rdi, %rsi
	movq	%rsi, -56(%rbp)
	movq	%rsi, -8(%rbp)
	leaq	-48(%rbp), %rdi
	movq	%rdi, -64(%rbp)
Ltmp126:
	.loc	3 103 9 prologue_end
	callq	__ZN94_$LT$proc_macro2..token_stream..IntoIter$u20$as$u20$core..iter..traits..iterator..Iterator$GT$4next17ha7d7184a272ea5c9E
	movq	-64(%rbp), %rdi
	movq	-56(%rbp), %rsi
	callq	__ZN4core6option15Option$LT$T$GT$3map17h38aacb96ef4c05b8E
	.loc	3 104 6
	addq	$64, %rsp
	popq	%rbp
	retq
Ltmp127:
Lfunc_end11:
	.cfi_endproc

	.globl	__ZN102_$LT$core..iter..adapters..map..Map$LT$I$C$F$GT$$u20$as$u20$core..iter..traits..iterator..Iterator$GT$9size_hint17h04eebfa06568e7efE
	.p2align	4, 0x90
__ZN102_$LT$core..iter..adapters..map..Map$LT$I$C$F$GT$$u20$as$u20$core..iter..traits..iterator..Iterator$GT$9size_hint17h04eebfa06568e7efE:
Lfunc_begin12:
	.loc	3 107 0
	.cfi_startproc
	pushq	%rbp
	.cfi_def_cfa_offset 16
	.cfi_offset %rbp, -16
	movq	%rsp, %rbp
	.cfi_def_cfa_register %rbp
	subq	$16, %rsp
	movq	%rdi, %rax
	movq	%rax, -16(%rbp)
	movq	%rsi, -8(%rbp)
Ltmp128:
	.loc	3 108 9 prologue_end
	callq	__ZN102_$LT$core..iter..adapters..map..Map$LT$I$C$F$GT$$u20$as$u20$core..iter..traits..iterator..Iterator$GT$9size_hint17h61e51986da81fde7E
	movq	-16(%rbp), %rax
	.loc	3 109 6
	addq	$16, %rsp
	popq	%rbp
	retq
Ltmp129:
Lfunc_end12:
	.cfi_endproc

	.globl	__ZN102_$LT$core..iter..adapters..map..Map$LT$I$C$F$GT$$u20$as$u20$core..iter..traits..iterator..Iterator$GT$9size_hint17h61e51986da81fde7E
	.p2align	4, 0x90
__ZN102_$LT$core..iter..adapters..map..Map$LT$I$C$F$GT$$u20$as$u20$core..iter..traits..iterator..Iterator$GT$9size_hint17h61e51986da81fde7E:
Lfunc_begin13:
	.loc	3 107 0
	.cfi_startproc
	pushq	%rbp
	.cfi_def_cfa_offset 16
	.cfi_offset %rbp, -16
	movq	%rsp, %rbp
	.cfi_def_cfa_register %rbp
	subq	$16, %rsp
	movq	%rdi, %rax
	movq	%rax, -16(%rbp)
	movq	%rsi, -8(%rbp)
Ltmp130:
	.loc	3 108 9 prologue_end
	callq	__ZN99_$LT$core..iter..sources..once..Once$LT$T$GT$$u20$as$u20$core..iter..traits..iterator..Iterator$GT$9size_hint17h294b07129c61d429E
	movq	-16(%rbp), %rax
	.loc	3 109 6
	addq	$16, %rsp
	popq	%rbp
	retq
Ltmp131:
Lfunc_end13:
	.cfi_endproc

	.globl	__ZN102_$LT$core..iter..adapters..map..Map$LT$I$C$F$GT$$u20$as$u20$core..iter..traits..iterator..Iterator$GT$9size_hint17h6c5419263dfc9018E
	.p2align	4, 0x90
__ZN102_$LT$core..iter..adapters..map..Map$LT$I$C$F$GT$$u20$as$u20$core..iter..traits..iterator..Iterator$GT$9size_hint17h6c5419263dfc9018E:
Lfunc_begin14:
	.loc	3 107 0
	.cfi_startproc
	pushq	%rbp
	.cfi_def_cfa_offset 16
	.cfi_offset %rbp, -16
	movq	%rsp, %rbp
	.cfi_def_cfa_register %rbp
	subq	$16, %rsp
	movq	%rdi, %rax
	movq	%rax, -16(%rbp)
	movq	%rsi, -8(%rbp)
Ltmp132:
	.loc	3 108 9 prologue_end
	callq	__ZN102_$LT$core..iter..adapters..map..Map$LT$I$C$F$GT$$u20$as$u20$core..iter..traits..iterator..Iterator$GT$9size_hint17he5b4ac30676ad50bE
	movq	-16(%rbp), %rax
	.loc	3 109 6
	addq	$16, %rsp
	popq	%rbp
	retq
Ltmp133:
Lfunc_end14:
	.cfi_endproc

	.globl	__ZN102_$LT$core..iter..adapters..map..Map$LT$I$C$F$GT$$u20$as$u20$core..iter..traits..iterator..Iterator$GT$9size_hint17h80113c00a9701d04E
	.p2align	4, 0x90
__ZN102_$LT$core..iter..adapters..map..Map$LT$I$C$F$GT$$u20$as$u20$core..iter..traits..iterator..Iterator$GT$9size_hint17h80113c00a9701d04E:
Lfunc_begin15:
	.loc	3 107 0
	.cfi_startproc
	pushq	%rbp
	.cfi_def_cfa_offset 16
	.cfi_offset %rbp, -16
	movq	%rsp, %rbp
	.cfi_def_cfa_register %rbp
	subq	$16, %rsp
	movq	%rdi, %rax
	movq	%rax, -16(%rbp)
	movq	%rsi, -8(%rbp)
Ltmp134:
	.loc	3 108 9 prologue_end
	callq	__ZN102_$LT$core..iter..adapters..map..Map$LT$I$C$F$GT$$u20$as$u20$core..iter..traits..iterator..Iterator$GT$9size_hint17h61e51986da81fde7E
	movq	-16(%rbp), %rax
	.loc	3 109 6
	addq	$16, %rsp
	popq	%rbp
	retq
Ltmp135:
Lfunc_end15:
	.cfi_endproc

	.globl	__ZN102_$LT$core..iter..adapters..map..Map$LT$I$C$F$GT$$u20$as$u20$core..iter..traits..iterator..Iterator$GT$9size_hint17he5b4ac30676ad50bE
	.p2align	4, 0x90
__ZN102_$LT$core..iter..adapters..map..Map$LT$I$C$F$GT$$u20$as$u20$core..iter..traits..iterator..Iterator$GT$9size_hint17he5b4ac30676ad50bE:
Lfunc_begin16:
	.loc	3 107 0
	.cfi_startproc
	pushq	%rbp
	.cfi_def_cfa_offset 16
	.cfi_offset %rbp, -16
	movq	%rsp, %rbp
	.cfi_def_cfa_register %rbp
	subq	$16, %rsp
	movq	%rdi, %rax
	movq	%rax, -16(%rbp)
	movq	%rsi, -8(%rbp)
Ltmp136:
	.loc	3 108 9 prologue_end
	addq	$8, %rsi
	callq	__ZN94_$LT$proc_macro2..token_stream..IntoIter$u20$as$u20$core..iter..traits..iterator..Iterator$GT$9size_hint17h35b1ddb6b7412a59E
	movq	-16(%rbp), %rax
	.loc	3 109 6
	addq	$16, %rsp
	popq	%rbp
	retq
Ltmp137:
Lfunc_end16:
	.cfi_endproc

	.globl	__ZN106_$LT$core..iter..adapters..flatten..Flatten$LT$I$GT$$u20$as$u20$core..iter..traits..iterator..Iterator$GT$4next17hb13a574fb1f717aeE
	.p2align	4, 0x90
__ZN106_$LT$core..iter..adapters..flatten..Flatten$LT$I$GT$$u20$as$u20$core..iter..traits..iterator..Iterator$GT$4next17hb13a574fb1f717aeE:
Lfunc_begin17:
	.file	4 "/rustc/2c8cc343237b8f7d5a3c3703e3a87f2eb2c54a74/library/core/src/iter/adapters" "flatten.rs"
	.loc	4 211 0
	.cfi_startproc
	pushq	%rbp
	.cfi_def_cfa_offset 16
	.cfi_offset %rbp, -16
	movq	%rsp, %rbp
	.cfi_def_cfa_register %rbp
	subq	$16, %rsp
	movq	%rdi, %rax
	movq	%rax, -16(%rbp)
	movq	%rsi, -8(%rbp)
Ltmp138:
	.loc	4 212 9 prologue_end
	callq	__ZN116_$LT$core..iter..adapters..flatten..FlattenCompat$LT$I$C$U$GT$$u20$as$u20$core..iter..traits..iterator..Iterator$GT$4next17h0293a4058ec36117E
	movq	-16(%rbp), %rax
	.loc	4 213 6
	addq	$16, %rsp
	popq	%rbp
	retq
Ltmp139:
Lfunc_end17:
	.cfi_endproc

	.globl	__ZN106_$LT$core..iter..adapters..flatten..Flatten$LT$I$GT$$u20$as$u20$core..iter..traits..iterator..Iterator$GT$9size_hint17h189c9200657ffbbeE
	.p2align	4, 0x90
__ZN106_$LT$core..iter..adapters..flatten..Flatten$LT$I$GT$$u20$as$u20$core..iter..traits..iterator..Iterator$GT$9size_hint17h189c9200657ffbbeE:
Lfunc_begin18:
	.loc	4 216 0
	.cfi_startproc
	pushq	%rbp
	.cfi_def_cfa_offset 16
	.cfi_offset %rbp, -16
	movq	%rsp, %rbp
	.cfi_def_cfa_register %rbp
	subq	$16, %rsp
	movq	%rdi, %rax
	movq	%rax, -16(%rbp)
	movq	%rsi, -8(%rbp)
Ltmp140:
	.loc	4 217 9 prologue_end
	callq	__ZN116_$LT$core..iter..adapters..flatten..FlattenCompat$LT$I$C$U$GT$$u20$as$u20$core..iter..traits..iterator..Iterator$GT$9size_hint17h568b16e3bf32a1d0E
	movq	-16(%rbp), %rax
	.loc	4 218 6
	addq	$16, %rsp
	popq	%rbp
	retq
Ltmp141:
Lfunc_end18:
	.cfi_endproc

	.globl	__ZN107_$LT$core..iter..adapters..fuse..Fuse$LT$I$GT$$u20$as$u20$core..iter..adapters..fuse..FuseImpl$LT$I$GT$$GT$4next17h6d2cdefd193b1aeeE
	.p2align	4, 0x90
__ZN107_$LT$core..iter..adapters..fuse..Fuse$LT$I$GT$$u20$as$u20$core..iter..adapters..fuse..FuseImpl$LT$I$GT$$GT$4next17h6d2cdefd193b1aeeE:
Lfunc_begin19:
	.file	5 "/rustc/2c8cc343237b8f7d5a3c3703e3a87f2eb2c54a74/library/core/src/iter/adapters" "fuse.rs"
	.loc	5 336 0
	.cfi_startproc
	pushq	%rbp
	.cfi_def_cfa_offset 16
	.cfi_offset %rbp, -16
	movq	%rsp, %rbp
	.cfi_def_cfa_register %rbp
	subq	$96, %rsp
	movq	%rdi, -88(%rbp)
	movq	%rdi, -56(%rbp)
Ltmp142:
	.loc	5 337 9 prologue_end
	movq	%rdi, -32(%rbp)
Ltmp143:
	.file	6 "/rustc/2c8cc343237b8f7d5a3c3703e3a87f2eb2c54a74/library/core/src" "option.rs"
	.loc	6 697 15
	movl	$1, %eax
	xorl	%ecx, %ecx
	cmpq	$2, (%rdi)
	cmoveq	%rcx, %rax
	.loc	6 697 9 is_stmt 0
	cmpq	$0, %rax
	jne	LBB19_2
	.loc	6 699 21 is_stmt 1
	movq	$0, -64(%rbp)
	jmp	LBB19_3
LBB19_2:
	.loc	6 0 21 is_stmt 0
	movq	-88(%rbp), %rax
	.loc	6 698 18 is_stmt 1
	movq	%rax, -24(%rbp)
Ltmp144:
	.loc	6 698 32 is_stmt 0
	movq	%rax, -64(%rbp)
Ltmp145:
LBB19_3:
	.loc	6 2407 15 is_stmt 1
	movq	-64(%rbp), %rdx
	movl	$1, %eax
	xorl	%ecx, %ecx
	cmpq	$0, %rdx
	cmoveq	%rcx, %rax
	.loc	6 2407 9 is_stmt 0
	cmpq	$0, %rax
	jne	LBB19_5
	.loc	6 2409 21 is_stmt 1
	movq	$0, -72(%rbp)
	.loc	6 2409 44 is_stmt 0
	jmp	LBB19_6
LBB19_5:
	.loc	6 2408 18 is_stmt 1
	movq	-64(%rbp), %rax
	movq	%rax, -16(%rbp)
Ltmp146:
	.loc	6 2408 24 is_stmt 0
	movq	%rax, -72(%rbp)
Ltmp147:
LBB19_6:
	.loc	5 337 9 is_stmt 1
	movq	-72(%rbp), %rdx
	xorl	%eax, %eax
	movl	$1, %ecx
	cmpq	$0, %rdx
	cmoveq	%rcx, %rax
	cmpq	$0, %rax
	jne	LBB19_8
	movq	-72(%rbp), %rdi
	movq	%rdi, -8(%rbp)
	callq	__ZN102_$LT$core..iter..adapters..map..Map$LT$I$C$F$GT$$u20$as$u20$core..iter..traits..iterator..Iterator$GT$4next17h1d9e3675bb608550E
	movq	%rax, -80(%rbp)
	.loc	5 338 6
	jmp	LBB19_9
LBB19_8:
Ltmp148:
	.loc	6 2420 21
	movq	$0, -80(%rbp)
Ltmp149:
LBB19_9:
	.loc	5 338 6
	movq	-80(%rbp), %rax
	addq	$96, %rsp
	popq	%rbp
	retq
Ltmp150:
Lfunc_end19:
	.cfi_endproc

	.globl	__ZN110_$LT$proc_macro..TokenStream$u20$as$u20$core..iter..traits..collect..Extend$LT$proc_macro..TokenStream$GT$$GT$6extend17hea6ada1abc22bea7E
	.p2align	4, 0x90
__ZN110_$LT$proc_macro..TokenStream$u20$as$u20$core..iter..traits..collect..Extend$LT$proc_macro..TokenStream$GT$$GT$6extend17hea6ada1abc22bea7E:
Lfunc_begin20:
	.file	7 "/rustc/2c8cc343237b8f7d5a3c3703e3a87f2eb2c54a74/library/proc_macro/src" "lib.rs"
	.loc	7 345 0
	.cfi_startproc
	.cfi_personality 155, _rust_eh_personality
	.cfi_lsda 16, Lexception7
	pushq	%rbp
	.cfi_def_cfa_offset 16
	.cfi_offset %rbp, -16
	movq	%rsp, %rbp
	.cfi_def_cfa_register %rbp
	subq	$256, %rsp
	movq	%rdi, -248(%rbp)
Ltmp166:
	movq	%rdi, -24(%rbp)
Ltmp167:
	.loc	7 346 20 prologue_end
	movq	32(%rsi), %rax
	movq	%rax, -160(%rbp)
	movq	24(%rsi), %rax
	movq	%rax, -168(%rbp)
	movq	16(%rsi), %rax
	movq	%rax, -176(%rbp)
	movq	(%rsi), %rax
	movq	8(%rsi), %rcx
	movq	%rcx, -184(%rbp)
	movq	%rax, -192(%rbp)
	leaq	-232(%rbp), %rdi
	movq	%rdi, -240(%rbp)
	leaq	-192(%rbp), %rsi
Ltmp168:
	callq	__ZN63_$LT$I$u20$as$u20$core..iter..traits..collect..IntoIterator$GT$9into_iter17h3e749c0c7fea0863E
	movq	-240(%rbp), %rsi
	.loc	7 346 38 is_stmt 0
	movb	$1, -25(%rbp)
Ltmp151:
	leaq	-128(%rbp), %rdi
Ltmp169:
	.loc	7 347 52 is_stmt 1
	callq	__ZN102_$LT$core..iter..adapters..map..Map$LT$I$C$F$GT$$u20$as$u20$core..iter..traits..iterator..Iterator$GT$9size_hint17h80113c00a9701d04E
Ltmp152:
	jmp	LBB20_3
Ltmp170:
LBB20_1:
	.loc	7 350 5
	testb	$1, -25(%rbp)
	jne	LBB20_12
	jmp	LBB20_11
Ltmp171:
LBB20_2:
Ltmp155:
	.loc	7 0 5 is_stmt 0
	movq	%rax, %rcx
	movl	%edx, %eax
	movq	%rcx, -16(%rbp)
	movl	%eax, -8(%rbp)
	jmp	LBB20_1
Ltmp172:
LBB20_3:
	.loc	7 347 52 is_stmt 1
	movq	-128(%rbp), %rsi
Ltmp153:
	leaq	-152(%rbp), %rdi
	.loc	7 347 27 is_stmt 0
	callq	__ZN10proc_macro19ConcatStreamsHelper3new17h08aaca07578d9f49E
Ltmp154:
	jmp	LBB20_4
Ltmp173:
LBB20_4:
	.loc	7 347 70
	movb	$1, -26(%rbp)
Ltmp174:
	.loc	7 348 9 is_stmt 1
	movb	$0, -25(%rbp)
	movq	-200(%rbp), %rax
	movq	%rax, -72(%rbp)
	movq	-208(%rbp), %rax
	movq	%rax, -80(%rbp)
	movq	-216(%rbp), %rax
	movq	%rax, -88(%rbp)
	movq	-232(%rbp), %rax
	movq	-224(%rbp), %rcx
	movq	%rcx, -96(%rbp)
	movq	%rax, -104(%rbp)
	leaq	-152(%rbp), %rax
	.loc	7 348 23 is_stmt 0
	movq	%rax, -64(%rbp)
	.loc	7 348 9
	movq	-64(%rbp), %rsi
Ltmp156:
	leaq	-104(%rbp), %rdi
	callq	__ZN4core4iter6traits8iterator8Iterator8for_each17h72c221f517b128faE
Ltmp157:
	jmp	LBB20_7
Ltmp175:
LBB20_5:
	.loc	7 350 5 is_stmt 1
	testb	$1, -26(%rbp)
	jne	LBB20_9
	jmp	LBB20_1
Ltmp176:
LBB20_6:
Ltmp160:
	.loc	7 0 5 is_stmt 0
	movq	%rax, %rcx
	movl	%edx, %eax
	movq	%rcx, -16(%rbp)
	movl	%eax, -8(%rbp)
	jmp	LBB20_5
Ltmp177:
LBB20_7:
	movq	-248(%rbp), %rsi
Ltmp178:
	.loc	7 349 9 is_stmt 1
	movb	$0, -26(%rbp)
	movq	-136(%rbp), %rax
	movq	%rax, -40(%rbp)
	movq	-152(%rbp), %rax
	movq	-144(%rbp), %rcx
	movq	%rcx, -48(%rbp)
	movq	%rax, -56(%rbp)
Ltmp158:
	leaq	-56(%rbp), %rdi
	callq	__ZN10proc_macro19ConcatStreamsHelper9append_to17h4c0659455bd809acE
Ltmp159:
	jmp	LBB20_8
Ltmp179:
LBB20_8:
	.loc	7 350 6
	addq	$256, %rsp
	popq	%rbp
	retq
Ltmp180:
LBB20_9:
Ltmp161:
	.loc	7 0 6 is_stmt 0
	leaq	-152(%rbp), %rdi
Ltmp181:
	.loc	7 350 5
	callq	__ZN4core3ptr52drop_in_place$LT$proc_macro..ConcatStreamsHelper$GT$17hc1b6b212edd8d51aE
Ltmp162:
	jmp	LBB20_1
Ltmp182:
LBB20_10:
Ltmp165:
	.loc	7 345 5 is_stmt 1
	callq	__ZN4core9panicking19panic_cannot_unwind17h1fbca7e1d7f56ae1E
Ltmp183:
LBB20_11:
	movq	-16(%rbp), %rdi
	callq	__Unwind_Resume
Ltmp184:
LBB20_12:
Ltmp163:
	.loc	7 0 5 is_stmt 0
	leaq	-232(%rbp), %rdi
	.loc	7 350 5 is_stmt 1
	callq	__ZN4core3ptr430drop_in_place$LT$core..iter..adapters..map..Map$LT$core..iter..adapters..map..Map$LT$core..iter..sources..once..Once$LT$proc_macro2..TokenStream$GT$$C$$LT$proc_macro2..TokenStream$u20$as$u20$core..iter..traits..collect..Extend$LT$proc_macro2..TokenStream$GT$$GT$..extend$LT$core..iter..sources..once..Once$LT$proc_macro2..TokenStream$GT$$GT$..$u7b$$u7b$closure$u7d$$u7d$$GT$$C$proc_macro2..imp..TokenStream..unwrap_nightly$GT$$GT$17ha339318388eebf1fE
Ltmp164:
	jmp	LBB20_11
Ltmp185:
Lfunc_end20:
	.cfi_endproc
	.section	__TEXT,__gcc_except_tab
	.p2align	2
GCC_except_table20:
Lexception7:
	.byte	255
	.byte	255
	.byte	1
	.uleb128 Lcst_end7-Lcst_begin7
Lcst_begin7:
	.uleb128 Lfunc_begin20-Lfunc_begin20
	.uleb128 Ltmp151-Lfunc_begin20
	.byte	0
	.byte	0
	.uleb128 Ltmp151-Lfunc_begin20
	.uleb128 Ltmp154-Ltmp151
	.uleb128 Ltmp155-Lfunc_begin20
	.byte	0
	.uleb128 Ltmp156-Lfunc_begin20
	.uleb128 Ltmp159-Ltmp156
	.uleb128 Ltmp160-Lfunc_begin20
	.byte	0
	.uleb128 Ltmp161-Lfunc_begin20
	.uleb128 Ltmp162-Ltmp161
	.uleb128 Ltmp165-Lfunc_begin20
	.byte	0
	.uleb128 Ltmp162-Lfunc_begin20
	.uleb128 Ltmp163-Ltmp162
	.byte	0
	.byte	0
	.uleb128 Ltmp163-Lfunc_begin20
	.uleb128 Ltmp164-Ltmp163
	.uleb128 Ltmp165-Lfunc_begin20
	.byte	0
Lcst_end7:
	.p2align	2

	.section	__TEXT,__text,regular,pure_instructions
	.globl	__ZN110_$LT$proc_macro..TokenStream$u20$as$u20$core..iter..traits..collect..Extend$LT$proc_macro..TokenStream$GT$$GT$6extend28_$u7b$$u7b$closure$u7d$$u7d$17h04a148b5800c291eE
	.p2align	4, 0x90
__ZN110_$LT$proc_macro..TokenStream$u20$as$u20$core..iter..traits..collect..Extend$LT$proc_macro..TokenStream$GT$$GT$6extend28_$u7b$$u7b$closure$u7d$$u7d$17h04a148b5800c291eE:
Lfunc_begin21:
	.loc	7 348 0
	.cfi_startproc
	pushq	%rbp
	.cfi_def_cfa_offset 16
	.cfi_offset %rbp, -16
	movq	%rsp, %rbp
	.cfi_def_cfa_register %rbp
	subq	$16, %rsp
	movq	%rdi, -16(%rbp)
	movl	%esi, -4(%rbp)
Ltmp186:
	.loc	7 348 32 prologue_end
	movq	(%rdi), %rdi
	callq	__ZN10proc_macro19ConcatStreamsHelper4push17hc81ca266ab03a452E
	.loc	7 348 52 is_stmt 0
	addq	$16, %rsp
	popq	%rbp
	retq
Ltmp187:
Lfunc_end21:
	.cfi_endproc

	.globl	__ZN110_$LT$proc_macro2..TokenStream$u20$as$u20$core..iter..traits..collect..Extend$LT$proc_macro2..TokenTree$GT$$GT$6extend17h0bfeb323dc890d4cE
	.p2align	4, 0x90
__ZN110_$LT$proc_macro2..TokenStream$u20$as$u20$core..iter..traits..collect..Extend$LT$proc_macro2..TokenTree$GT$$GT$6extend17h0bfeb323dc890d4cE:
Lfunc_begin22:
	.file	8 "/Users/natalie/.cargo/registry/src/github.com-1ecc6299db9ec823/proc-macro2-1.0.47/src" "lib.rs"
	.loc	8 247 0 is_stmt 1
	.cfi_startproc
	pushq	%rbp
	.cfi_def_cfa_offset 16
	.cfi_offset %rbp, -16
	movq	%rsp, %rbp
	.cfi_def_cfa_register %rbp
	subq	$32, %rsp
	movq	%rdi, -8(%rbp)
Ltmp188:
	.loc	8 248 27 prologue_end
	movq	(%rsi), %rax
	movq	%rax, -32(%rbp)
	movq	8(%rsi), %rax
	movq	%rax, -24(%rbp)
	movq	16(%rsi), %rax
	movq	%rax, -16(%rbp)
	.loc	8 248 9 is_stmt 0
	leaq	-32(%rbp), %rsi
Ltmp189:
	callq	__ZN115_$LT$proc_macro2..imp..TokenStream$u20$as$u20$core..iter..traits..collect..Extend$LT$proc_macro2..TokenTree$GT$$GT$6extend17h31c5e35ff3273f47E
	.loc	8 249 6 is_stmt 1
	addq	$32, %rsp
	popq	%rbp
	retq
Ltmp190:
Lfunc_end22:
	.cfi_endproc

	.globl	__ZN110_$LT$proc_macro2..TokenStream$u20$as$u20$core..iter..traits..collect..Extend$LT$proc_macro2..TokenTree$GT$$GT$6extend17h49185bca08856b0aE
	.p2align	4, 0x90
__ZN110_$LT$proc_macro2..TokenStream$u20$as$u20$core..iter..traits..collect..Extend$LT$proc_macro2..TokenTree$GT$$GT$6extend17h49185bca08856b0aE:
Lfunc_begin23:
	.loc	8 247 0
	.cfi_startproc
	pushq	%rbp
	.cfi_def_cfa_offset 16
	.cfi_offset %rbp, -16
	movq	%rsp, %rbp
	.cfi_def_cfa_register %rbp
	subq	$32, %rsp
	movq	%rdi, -8(%rbp)
Ltmp191:
	.loc	8 248 27 prologue_end
	movq	(%rsi), %rax
	movq	%rax, -32(%rbp)
	movq	8(%rsi), %rax
	movq	%rax, -24(%rbp)
	movq	16(%rsi), %rax
	movq	%rax, -16(%rbp)
	.loc	8 248 9 is_stmt 0
	leaq	-32(%rbp), %rsi
Ltmp192:
	callq	__ZN115_$LT$proc_macro2..imp..TokenStream$u20$as$u20$core..iter..traits..collect..Extend$LT$proc_macro2..TokenTree$GT$$GT$6extend17hb821051960470592E
	.loc	8 249 6 is_stmt 1
	addq	$32, %rsp
	popq	%rbp
	retq
Ltmp193:
Lfunc_end23:
	.cfi_endproc

	.globl	__ZN110_$LT$proc_macro2..TokenStream$u20$as$u20$core..iter..traits..collect..Extend$LT$proc_macro2..TokenTree$GT$$GT$6extend17h9afe5da640bdba09E
	.p2align	4, 0x90
__ZN110_$LT$proc_macro2..TokenStream$u20$as$u20$core..iter..traits..collect..Extend$LT$proc_macro2..TokenTree$GT$$GT$6extend17h9afe5da640bdba09E:
Lfunc_begin24:
	.loc	8 247 0
	.cfi_startproc
	pushq	%rbp
	.cfi_def_cfa_offset 16
	.cfi_offset %rbp, -16
	movq	%rsp, %rbp
	.cfi_def_cfa_register %rbp
	subq	$64, %rsp
	movq	%rdi, -64(%rbp)
	movq	%rdi, -8(%rbp)
Ltmp194:
	.loc	8 248 27 prologue_end
	leaq	-56(%rbp), %rdi
	movl	$48, %edx
	callq	_memcpy
Ltmp195:
	.loc	8 0 27 is_stmt 0
	movq	-64(%rbp), %rdi
	.loc	8 248 9
	leaq	-56(%rbp), %rsi
	callq	__ZN115_$LT$proc_macro2..imp..TokenStream$u20$as$u20$core..iter..traits..collect..Extend$LT$proc_macro2..TokenTree$GT$$GT$6extend17h35f93381330e7002E
	.loc	8 249 6 is_stmt 1
	addq	$64, %rsp
	popq	%rbp
	retq
Ltmp196:
Lfunc_end24:
	.cfi_endproc

	.globl	__ZN110_$LT$proc_macro2..TokenStream$u20$as$u20$core..iter..traits..collect..Extend$LT$proc_macro2..TokenTree$GT$$GT$6extend17hf0dddcc34604af9aE
	.p2align	4, 0x90
__ZN110_$LT$proc_macro2..TokenStream$u20$as$u20$core..iter..traits..collect..Extend$LT$proc_macro2..TokenTree$GT$$GT$6extend17hf0dddcc34604af9aE:
Lfunc_begin25:
	.loc	8 247 0
	.cfi_startproc
	pushq	%rbp
	.cfi_def_cfa_offset 16
	.cfi_offset %rbp, -16
	movq	%rsp, %rbp
	.cfi_def_cfa_register %rbp
	subq	$64, %rsp
	movq	%rdi, -56(%rbp)
	movq	%rdi, -8(%rbp)
Ltmp197:
	.loc	8 248 27 prologue_end
	leaq	-48(%rbp), %rdi
	movl	$40, %edx
	callq	_memcpy
Ltmp198:
	.loc	8 0 27 is_stmt 0
	movq	-56(%rbp), %rdi
	.loc	8 248 9
	leaq	-48(%rbp), %rsi
	callq	__ZN115_$LT$proc_macro2..imp..TokenStream$u20$as$u20$core..iter..traits..collect..Extend$LT$proc_macro2..TokenTree$GT$$GT$6extend17hbd0e002aa32a7920E
	.loc	8 249 6 is_stmt 1
	addq	$64, %rsp
	popq	%rbp
	retq
Ltmp199:
Lfunc_end25:
	.cfi_endproc

	.globl	__ZN112_$LT$proc_macro2..TokenStream$u20$as$u20$core..iter..traits..collect..Extend$LT$proc_macro2..TokenStream$GT$$GT$6extend17h3ab428f52bc55647E
	.p2align	4, 0x90
__ZN112_$LT$proc_macro2..TokenStream$u20$as$u20$core..iter..traits..collect..Extend$LT$proc_macro2..TokenStream$GT$$GT$6extend17h3ab428f52bc55647E:
Lfunc_begin26:
	.loc	8 253 0
	.cfi_startproc
	pushq	%rbp
	.cfi_def_cfa_offset 16
	.cfi_offset %rbp, -16
	movq	%rsp, %rbp
	.cfi_def_cfa_register %rbp
	subq	$144, %rsp
	movq	%rdi, -136(%rbp)
	movq	%rdi, -8(%rbp)
Ltmp200:
	.loc	8 255 21 prologue_end
	leaq	-48(%rbp), %rdi
	movl	$40, %edx
	callq	_memcpy
Ltmp201:
	leaq	-88(%rbp), %rdi
	leaq	-48(%rbp), %rsi
	callq	__ZN63_$LT$I$u20$as$u20$core..iter..traits..collect..IntoIterator$GT$9into_iter17h7ce8e9ec5fab0709E
	leaq	-128(%rbp), %rdi
	leaq	-88(%rbp), %rsi
	callq	__ZN4core4iter6traits8iterator8Iterator3map17h4c85842870f01ec2E
	movq	-136(%rbp), %rdi
	.loc	8 254 9
	leaq	-128(%rbp), %rsi
	callq	__ZN122_$LT$proc_macro2..imp..TokenStream$u20$as$u20$core..iter..traits..collect..Extend$LT$proc_macro2..imp..TokenStream$GT$$GT$6extend17h67f6ad1837b043cfE
	.loc	8 256 6
	addq	$144, %rsp
	popq	%rbp
	retq
Ltmp202:
Lfunc_end26:
	.cfi_endproc

	.globl	__ZN112_$LT$proc_macro2..TokenStream$u20$as$u20$core..iter..traits..collect..Extend$LT$proc_macro2..TokenStream$GT$$GT$6extend28_$u7b$$u7b$closure$u7d$$u7d$17h1cb83fa5e0d853f2E
	.p2align	4, 0x90
__ZN112_$LT$proc_macro2..TokenStream$u20$as$u20$core..iter..traits..collect..Extend$LT$proc_macro2..TokenStream$GT$$GT$6extend28_$u7b$$u7b$closure$u7d$$u7d$17h1cb83fa5e0d853f2E:
Lfunc_begin27:
	.loc	8 255 0
	.cfi_startproc
	pushq	%rbp
	.cfi_def_cfa_offset 16
	.cfi_offset %rbp, -16
	movq	%rsp, %rbp
	.cfi_def_cfa_register %rbp
	pushq	%rax
	movq	%rdi, %rax
	movq	%rsi, -8(%rbp)
Ltmp203:
	.loc	8 255 54 prologue_end
	movq	(%rdx), %rcx
	movq	%rcx, (%rdi)
	movq	8(%rdx), %rcx
	movq	%rcx, 8(%rdi)
	movq	16(%rdx), %rcx
	movq	%rcx, 16(%rdi)
	movq	24(%rdx), %rcx
	movq	%rcx, 24(%rdi)
	.loc	8 255 66 is_stmt 0
	addq	$8, %rsp
	popq	%rbp
	retq
Ltmp204:
Lfunc_end27:
	.cfi_endproc

	.p2align	4, 0x90
__ZN113_$LT$alloc..string..String$u20$as$u20$core..ops..index..Index$LT$core..ops..range..RangeFrom$LT$usize$GT$$GT$$GT$5index17h288524553c689752E:
Lfunc_begin28:
	.loc	1 2379 0 is_stmt 1
	.cfi_startproc
	pushq	%rbp
	.cfi_def_cfa_offset 16
	.cfi_offset %rbp, -16
	movq	%rsp, %rbp
	.cfi_def_cfa_register %rbp
	subq	$112, %rsp
	movq	%rsi, -104(%rbp)
	movq	%rdx, -96(%rbp)
	movq	%rdi, -88(%rbp)
	movq	%rsi, -80(%rbp)
Ltmp205:
	.loc	1 2380 10 prologue_end
	movq	%rdi, -64(%rbp)
Ltmp206:
	.loc	1 2389 43
	callq	__ZN72_$LT$alloc..vec..Vec$LT$T$C$A$GT$$u20$as$u20$core..ops..deref..Deref$GT$5deref17h41eb01866a6f1696E
	movq	-104(%rbp), %rdi
	movq	-96(%rbp), %rcx
	movq	%rax, -56(%rbp)
	movq	%rdx, -48(%rbp)
Ltmp207:
	.loc	2 173 14
	movq	%rax, -40(%rbp)
	movq	%rdx, -32(%rbp)
	movq	-40(%rbp), %rsi
	movq	-32(%rbp), %rdx
Ltmp208:
	.loc	1 2380 10
	movq	%rsi, -24(%rbp)
	movq	%rdx, -16(%rbp)
	.loc	1 2380 19 is_stmt 0
	movq	%rdi, -8(%rbp)
Ltmp209:
	.file	9 "/rustc/2c8cc343237b8f7d5a3c3703e3a87f2eb2c54a74/library/core/src/str" "traits.rs"
	.loc	9 65 9 is_stmt 1
	callq	__ZN4core3str6traits112_$LT$impl$u20$core..slice..index..SliceIndex$LT$str$GT$$u20$for$u20$core..ops..range..RangeFrom$LT$usize$GT$$GT$5index17h5d318a12a795e08dE
Ltmp210:
	.loc	1 2381 6
	addq	$112, %rsp
	popq	%rbp
	retq
Ltmp211:
Lfunc_end28:
	.cfi_endproc

	.globl	__ZN114_$LT$proc_macro..TokenStream$u20$as$u20$core..iter..traits..collect..FromIterator$LT$proc_macro..TokenTree$GT$$GT$9from_iter17hb62597a6451f8f8dE
	.p2align	4, 0x90
__ZN114_$LT$proc_macro..TokenStream$u20$as$u20$core..iter..traits..collect..FromIterator$LT$proc_macro..TokenTree$GT$$GT$9from_iter17hb62597a6451f8f8dE:
Lfunc_begin29:
	.loc	7 313 0
	.cfi_startproc
	.cfi_personality 155, _rust_eh_personality
	.cfi_lsda 16, Lexception8
	pushq	%rbp
	.cfi_def_cfa_offset 16
	.cfi_offset %rbp, -16
	movq	%rsp, %rbp
	.cfi_def_cfa_register %rbp
	subq	$272, %rsp
Ltmp227:
	.loc	7 314 20 prologue_end
	movq	40(%rdi), %rax
	movq	%rax, -160(%rbp)
	movq	32(%rdi), %rax
	movq	%rax, -168(%rbp)
	movq	24(%rdi), %rax
	movq	%rax, -176(%rbp)
	movq	16(%rdi), %rax
	movq	%rax, -184(%rbp)
	movq	(%rdi), %rax
	movq	8(%rdi), %rcx
	movq	%rcx, -192(%rbp)
	movq	%rax, -200(%rbp)
	leaq	-248(%rbp), %rdi
Ltmp228:
	.loc	7 0 20 is_stmt 0
	movq	%rdi, -256(%rbp)
	leaq	-200(%rbp), %rsi
	.loc	7 314 20
	callq	__ZN63_$LT$I$u20$as$u20$core..iter..traits..collect..IntoIterator$GT$9into_iter17h12c405a36bb4ec91E
	movq	-256(%rbp), %rsi
	.loc	7 314 36
	movb	$1, -17(%rbp)
Ltmp212:
	leaq	-128(%rbp), %rdi
Ltmp229:
	.loc	7 315 50 is_stmt 1
	callq	__ZN102_$LT$core..iter..adapters..map..Map$LT$I$C$F$GT$$u20$as$u20$core..iter..traits..iterator..Iterator$GT$9size_hint17h6c5419263dfc9018E
Ltmp213:
	jmp	LBB29_3
Ltmp230:
LBB29_1:
	.loc	7 318 5
	testb	$1, -17(%rbp)
	jne	LBB29_12
	jmp	LBB29_11
Ltmp231:
LBB29_2:
Ltmp216:
	.loc	7 0 5 is_stmt 0
	movq	%rax, %rcx
	movl	%edx, %eax
	movq	%rcx, -16(%rbp)
	movl	%eax, -8(%rbp)
	jmp	LBB29_1
Ltmp232:
LBB29_3:
	.loc	7 315 50 is_stmt 1
	movq	-128(%rbp), %rsi
Ltmp214:
	leaq	-152(%rbp), %rdi
	.loc	7 315 27 is_stmt 0
	callq	__ZN10proc_macro17ConcatTreesHelper3new17hdbc78218fb764b1eE
Ltmp215:
	jmp	LBB29_4
Ltmp233:
LBB29_4:
	.loc	7 315 68
	movb	$1, -18(%rbp)
Ltmp234:
	.loc	7 316 9 is_stmt 1
	movb	$0, -17(%rbp)
	movq	-208(%rbp), %rax
	movq	%rax, -64(%rbp)
	movq	-216(%rbp), %rax
	movq	%rax, -72(%rbp)
	movq	-224(%rbp), %rax
	movq	%rax, -80(%rbp)
	movq	-232(%rbp), %rax
	movq	%rax, -88(%rbp)
	movq	-248(%rbp), %rax
	movq	-240(%rbp), %rcx
	movq	%rcx, -96(%rbp)
	movq	%rax, -104(%rbp)
	leaq	-152(%rbp), %rax
	.loc	7 316 23 is_stmt 0
	movq	%rax, -56(%rbp)
	.loc	7 316 9
	movq	-56(%rbp), %rsi
Ltmp217:
	leaq	-104(%rbp), %rdi
	callq	__ZN4core4iter6traits8iterator8Iterator8for_each17h451dbf2a77466ed0E
Ltmp218:
	jmp	LBB29_7
Ltmp235:
LBB29_5:
	.loc	7 318 5 is_stmt 1
	testb	$1, -18(%rbp)
	jne	LBB29_9
	jmp	LBB29_1
Ltmp236:
LBB29_6:
Ltmp221:
	.loc	7 0 5 is_stmt 0
	movq	%rax, %rcx
	movl	%edx, %eax
	movq	%rcx, -16(%rbp)
	movl	%eax, -8(%rbp)
	jmp	LBB29_5
Ltmp237:
LBB29_7:
	.loc	7 317 9 is_stmt 1
	movb	$0, -18(%rbp)
	movq	-136(%rbp), %rax
	movq	%rax, -32(%rbp)
	movq	-152(%rbp), %rax
	movq	-144(%rbp), %rcx
	movq	%rcx, -40(%rbp)
	movq	%rax, -48(%rbp)
Ltmp219:
	leaq	-48(%rbp), %rdi
	callq	__ZN10proc_macro17ConcatTreesHelper5build17heaa735826e8f43deE
Ltmp220:
	movl	%eax, -260(%rbp)
	jmp	LBB29_8
Ltmp238:
LBB29_8:
	.loc	7 0 9 is_stmt 0
	movl	-260(%rbp), %eax
	.loc	7 318 6 is_stmt 1
	addq	$272, %rsp
	popq	%rbp
	retq
Ltmp239:
LBB29_9:
Ltmp222:
	.loc	7 0 6 is_stmt 0
	leaq	-152(%rbp), %rdi
Ltmp240:
	.loc	7 318 5
	callq	__ZN4core3ptr50drop_in_place$LT$proc_macro..ConcatTreesHelper$GT$17h7550cc99f1800c41E
Ltmp223:
	jmp	LBB29_1
Ltmp241:
LBB29_10:
Ltmp226:
	.loc	7 313 5 is_stmt 1
	callq	__ZN4core9panicking19panic_cannot_unwind17h1fbca7e1d7f56ae1E
Ltmp242:
LBB29_11:
	movq	-16(%rbp), %rdi
	callq	__Unwind_Resume
Ltmp243:
LBB29_12:
Ltmp224:
	.loc	7 0 5 is_stmt 0
	leaq	-248(%rbp), %rdi
	.loc	7 318 5 is_stmt 1
	callq	__ZN4core3ptr239drop_in_place$LT$core..iter..adapters..map..Map$LT$core..iter..adapters..map..Map$LT$proc_macro2..token_stream..IntoIter$C$quote..__private..respan_token_tree..$u7b$$u7b$closure$u7d$$u7d$$GT$$C$proc_macro2..imp..into_compiler_token$GT$$GT$17h98a1702cc3a9433eE
Ltmp225:
	jmp	LBB29_11
Ltmp244:
Lfunc_end29:
	.cfi_endproc
	.section	__TEXT,__gcc_except_tab
	.p2align	2
GCC_except_table29:
Lexception8:
	.byte	255
	.byte	255
	.byte	1
	.uleb128 Lcst_end8-Lcst_begin8
Lcst_begin8:
	.uleb128 Lfunc_begin29-Lfunc_begin29
	.uleb128 Ltmp212-Lfunc_begin29
	.byte	0
	.byte	0
	.uleb128 Ltmp212-Lfunc_begin29
	.uleb128 Ltmp215-Ltmp212
	.uleb128 Ltmp216-Lfunc_begin29
	.byte	0
	.uleb128 Ltmp217-Lfunc_begin29
	.uleb128 Ltmp220-Ltmp217
	.uleb128 Ltmp221-Lfunc_begin29
	.byte	0
	.uleb128 Ltmp222-Lfunc_begin29
	.uleb128 Ltmp223-Ltmp222
	.uleb128 Ltmp226-Lfunc_begin29
	.byte	0
	.uleb128 Ltmp223-Lfunc_begin29
	.uleb128 Ltmp224-Ltmp223
	.byte	0
	.byte	0
	.uleb128 Ltmp224-Lfunc_begin29
	.uleb128 Ltmp225-Ltmp224
	.uleb128 Ltmp226-Lfunc_begin29
	.byte	0
Lcst_end8:
	.p2align	2

	.section	__TEXT,__text,regular,pure_instructions
	.globl	__ZN114_$LT$proc_macro..TokenStream$u20$as$u20$core..iter..traits..collect..FromIterator$LT$proc_macro..TokenTree$GT$$GT$9from_iter28_$u7b$$u7b$closure$u7d$$u7d$17h10bdaf65728b902bE
	.p2align	4, 0x90
__ZN114_$LT$proc_macro..TokenStream$u20$as$u20$core..iter..traits..collect..FromIterator$LT$proc_macro..TokenTree$GT$$GT$9from_iter28_$u7b$$u7b$closure$u7d$$u7d$17h10bdaf65728b902bE:
Lfunc_begin30:
	.loc	7 316 0
	.cfi_startproc
	pushq	%rbp
	.cfi_def_cfa_offset 16
	.cfi_offset %rbp, -16
	movq	%rsp, %rbp
	.cfi_def_cfa_register %rbp
	subq	$32, %rsp
	movq	%rdi, -8(%rbp)
Ltmp245:
	.loc	7 316 30 prologue_end
	movq	(%rdi), %rdi
	.loc	7 316 43 is_stmt 0
	movq	(%rsi), %rax
	movq	%rax, -32(%rbp)
	movq	8(%rsi), %rax
	movq	%rax, -24(%rbp)
	movl	16(%rsi), %eax
	movl	%eax, -16(%rbp)
	.loc	7 316 30
	leaq	-32(%rbp), %rsi
Ltmp246:
	callq	__ZN10proc_macro17ConcatTreesHelper4push17h12aa257acf21482eE
	.loc	7 316 48
	addq	$32, %rsp
	popq	%rbp
	retq
Ltmp247:
Lfunc_end30:
	.cfi_endproc

	.globl	__ZN115_$LT$proc_macro2..imp..TokenStream$u20$as$u20$core..iter..traits..collect..Extend$LT$proc_macro2..TokenTree$GT$$GT$6extend17h31c5e35ff3273f47E
	.p2align	4, 0x90
__ZN115_$LT$proc_macro2..imp..TokenStream$u20$as$u20$core..iter..traits..collect..Extend$LT$proc_macro2..TokenTree$GT$$GT$6extend17h31c5e35ff3273f47E:
Lfunc_begin31:
	.file	10 "/Users/natalie/.cargo/registry/src/github.com-1ecc6299db9ec823/proc-macro2-1.0.47/src" "wrapper.rs"
	.loc	10 217 0 is_stmt 1
	.cfi_startproc
	.cfi_personality 155, _rust_eh_personality
	.cfi_lsda 16, Lexception9
	pushq	%rbp
	.cfi_def_cfa_offset 16
	.cfi_offset %rbp, -16
	movq	%rsp, %rbp
	.cfi_def_cfa_register %rbp
	subq	$304, %rsp
	movq	%rdi, -296(%rbp)
	movq	%rsi, -288(%rbp)
Ltmp255:
	movq	%rdi, -40(%rbp)
Ltmp256:
	.loc	10 218 15 prologue_end
	movq	8(%rdi), %rdx
	xorl	%eax, %eax
	movl	$1, %ecx
	cmpq	$0, %rdx
	cmoveq	%rcx, %rax
	.loc	10 218 9 is_stmt 0
	cmpq	$0, %rax
Ltmp257:
	jne	LBB31_2
Ltmp258:
	.loc	10 0 9
	movq	-288(%rbp), %rax
	movq	-296(%rbp), %rcx
	.loc	10 219 35 is_stmt 1
	movq	%rcx, -24(%rbp)
Ltmp259:
	.loc	10 221 30
	movq	(%rax), %rcx
	movq	%rcx, -256(%rbp)
	movq	8(%rax), %rcx
	movq	%rcx, -248(%rbp)
	movq	16(%rax), %rax
	movq	%rax, -240(%rbp)
	leaq	-280(%rbp), %rdi
	leaq	-256(%rbp), %rsi
	callq	__ZN63_$LT$I$u20$as$u20$core..iter..traits..collect..IntoIterator$GT$9into_iter17h57ad02c47c2ff96dE
	movq	-280(%rbp), %rax
	movq	%rax, -232(%rbp)
	movq	-272(%rbp), %rax
	movq	%rax, -224(%rbp)
	movq	-264(%rbp), %rax
	movq	%rax, -216(%rbp)
Ltmp260:
	.loc	10 221 17 is_stmt 0
	jmp	LBB31_4
Ltmp261:
LBB31_2:
	.loc	10 0 17
	movq	-296(%rbp), %rdi
	movq	-288(%rbp), %rax
	.loc	10 225 35 is_stmt 1
	movq	%rdi, -32(%rbp)
Ltmp262:
	.loc	10 225 54 is_stmt 0
	movq	(%rax), %rcx
	movq	%rcx, -64(%rbp)
	movq	8(%rax), %rcx
	movq	%rcx, -56(%rbp)
	movq	16(%rax), %rax
	movq	%rax, -48(%rbp)
	.loc	10 225 43
	leaq	-64(%rbp), %rsi
	callq	__ZN120_$LT$proc_macro2..fallback..TokenStream$u20$as$u20$core..iter..traits..collect..Extend$LT$proc_macro2..TokenTree$GT$$GT$6extend17hb71b6d35dc745c7eE
Ltmp263:
LBB31_3:
	.loc	10 227 6 is_stmt 1
	addq	$304, %rsp
	popq	%rbp
	retq
Ltmp264:
LBB31_4:
Ltmp248:
	.loc	10 0 6 is_stmt 0
	leaq	-208(%rbp), %rdi
	leaq	-232(%rbp), %rsi
Ltmp265:
	.loc	10 221 30 is_stmt 1
	callq	__ZN100_$LT$quote..__private..push_lifetime..Lifetime$u20$as$u20$core..iter..traits..iterator..Iterator$GT$4next17h692d6fbf4462bd8cE
Ltmp249:
	jmp	LBB31_7
Ltmp266:
LBB31_5:
	.loc	10 217 5
	movq	-16(%rbp), %rdi
	callq	__Unwind_Resume
Ltmp267:
LBB31_6:
Ltmp254:
	.loc	10 0 5 is_stmt 0
	movq	%rax, %rcx
	movl	%edx, %eax
	movq	%rcx, -16(%rbp)
	movl	%eax, -8(%rbp)
	jmp	LBB31_5
Ltmp268:
LBB31_7:
	.loc	10 221 30 is_stmt 1
	movl	$1, %eax
	xorl	%ecx, %ecx
	cmpl	$4, -208(%rbp)
	cmoveq	%rcx, %rax
	cmpq	$0, %rax
	jne	LBB31_9
Ltmp269:
	.loc	10 221 17 is_stmt 0
	jmp	LBB31_3
Ltmp270:
LBB31_9:
	.loc	10 221 21
	movq	-176(%rbp), %rax
	movq	%rax, -136(%rbp)
	movq	-184(%rbp), %rax
	movq	%rax, -144(%rbp)
	movq	-192(%rbp), %rax
	movq	%rax, -152(%rbp)
	movq	-208(%rbp), %rax
	movq	-200(%rbp), %rcx
	movq	%rcx, -160(%rbp)
	movq	%rax, -168(%rbp)
Ltmp271:
	.loc	10 222 56 is_stmt 1
	movq	-136(%rbp), %rax
	movq	%rax, -72(%rbp)
	movq	-144(%rbp), %rax
	movq	%rax, -80(%rbp)
	movq	-152(%rbp), %rax
	movq	%rax, -88(%rbp)
	movq	-168(%rbp), %rax
	movq	-160(%rbp), %rcx
	movq	%rcx, -96(%rbp)
	movq	%rax, -104(%rbp)
Ltmp250:
	leaq	-128(%rbp), %rdi
	leaq	-104(%rbp), %rsi
	.loc	10 222 36 is_stmt 0
	callq	__ZN11proc_macro23imp19into_compiler_token17he4ce1b22e54eea56E
Ltmp251:
	jmp	LBB31_10
Ltmp272:
LBB31_10:
Ltmp252:
	.loc	10 0 36
	movq	-296(%rbp), %rdi
	leaq	-128(%rbp), %rsi
	.loc	10 222 21
	callq	__ZN5alloc3vec16Vec$LT$T$C$A$GT$4push17h3e5f5d28694a33d8E
Ltmp253:
	jmp	LBB31_11
Ltmp273:
LBB31_11:
	jmp	LBB31_4
Ltmp274:
Lfunc_end31:
	.cfi_endproc
	.section	__TEXT,__gcc_except_tab
	.p2align	2
GCC_except_table31:
Lexception9:
	.byte	255
	.byte	255
	.byte	1
	.uleb128 Lcst_end9-Lcst_begin9
Lcst_begin9:
	.uleb128 Lfunc_begin31-Lfunc_begin31
	.uleb128 Ltmp248-Lfunc_begin31
	.byte	0
	.byte	0
	.uleb128 Ltmp248-Lfunc_begin31
	.uleb128 Ltmp249-Ltmp248
	.uleb128 Ltmp254-Lfunc_begin31
	.byte	0
	.uleb128 Ltmp249-Lfunc_begin31
	.uleb128 Ltmp250-Ltmp249
	.byte	0
	.byte	0
	.uleb128 Ltmp250-Lfunc_begin31
	.uleb128 Ltmp253-Ltmp250
	.uleb128 Ltmp254-Lfunc_begin31
	.byte	0
Lcst_end9:
	.p2align	2

	.section	__TEXT,__text,regular,pure_instructions
	.globl	__ZN115_$LT$proc_macro2..imp..TokenStream$u20$as$u20$core..iter..traits..collect..Extend$LT$proc_macro2..TokenTree$GT$$GT$6extend17h35f93381330e7002E
	.p2align	4, 0x90
__ZN115_$LT$proc_macro2..imp..TokenStream$u20$as$u20$core..iter..traits..collect..Extend$LT$proc_macro2..TokenTree$GT$$GT$6extend17h35f93381330e7002E:
Lfunc_begin32:
	.loc	10 217 0 is_stmt 1
	.cfi_startproc
	.cfi_personality 155, _rust_eh_personality
	.cfi_lsda 16, Lexception10
	pushq	%rbp
	.cfi_def_cfa_offset 16
	.cfi_offset %rbp, -16
	movq	%rsp, %rbp
	.cfi_def_cfa_register %rbp
	subq	$400, %rsp
	movq	%rdi, -392(%rbp)
	movq	%rsi, -384(%rbp)
Ltmp285:
	movq	%rdi, -40(%rbp)
Ltmp286:
	.loc	10 218 15 prologue_end
	movq	8(%rdi), %rdx
	xorl	%eax, %eax
	movl	$1, %ecx
	cmpq	$0, %rdx
	cmoveq	%rcx, %rax
	.loc	10 218 9 is_stmt 0
	cmpq	$0, %rax
Ltmp287:
	jne	LBB32_2
Ltmp288:
	.loc	10 0 9
	movq	-384(%rbp), %rsi
	movq	-392(%rbp), %rax
	.loc	10 219 35 is_stmt 1
	movq	%rax, -24(%rbp)
Ltmp289:
	.loc	10 221 30
	leaq	-328(%rbp), %rdi
	movl	$48, %edx
	callq	_memcpy
	leaq	-376(%rbp), %rdi
	leaq	-328(%rbp), %rsi
	callq	__ZN63_$LT$I$u20$as$u20$core..iter..traits..collect..IntoIterator$GT$9into_iter17h3aa032388789cdf0E
	leaq	-280(%rbp), %rdi
	leaq	-376(%rbp), %rsi
	movl	$48, %edx
	callq	_memcpy
Ltmp290:
	.loc	10 221 17 is_stmt 0
	jmp	LBB32_4
Ltmp291:
LBB32_2:
	.loc	10 0 17
	movq	-392(%rbp), %rax
	movq	-384(%rbp), %rsi
	.loc	10 225 35 is_stmt 1
	movq	%rax, -32(%rbp)
Ltmp292:
	.loc	10 225 54 is_stmt 0
	leaq	-88(%rbp), %rdi
	movl	$48, %edx
	callq	_memcpy
	movq	-392(%rbp), %rdi
	.loc	10 225 43
	leaq	-88(%rbp), %rsi
	callq	__ZN120_$LT$proc_macro2..fallback..TokenStream$u20$as$u20$core..iter..traits..collect..Extend$LT$proc_macro2..TokenTree$GT$$GT$6extend17hbd62a27f22fe12d3E
Ltmp293:
LBB32_3:
	.loc	10 227 6 is_stmt 1
	addq	$400, %rsp
	popq	%rbp
	retq
Ltmp294:
LBB32_4:
Ltmp275:
	.loc	10 0 6 is_stmt 0
	leaq	-232(%rbp), %rdi
	leaq	-280(%rbp), %rsi
Ltmp295:
	.loc	10 221 30 is_stmt 1
	callq	__ZN102_$LT$core..iter..adapters..map..Map$LT$I$C$F$GT$$u20$as$u20$core..iter..traits..iterator..Iterator$GT$4next17h708871ae0aa2b153E
Ltmp276:
	jmp	LBB32_7
Ltmp296:
LBB32_5:
Ltmp282:
	.loc	10 0 30 is_stmt 0
	leaq	-280(%rbp), %rdi
	.loc	10 221 17
	callq	__ZN4core3ptr157drop_in_place$LT$core..iter..adapters..map..Map$LT$proc_macro2..token_stream..IntoIter$C$quote..__private..parse_spanned..$u7b$$u7b$closure$u7d$$u7d$$GT$$GT$17h31675f20fe9bb12dE
Ltmp283:
	jmp	LBB32_13
Ltmp297:
LBB32_6:
Ltmp281:
	.loc	10 0 17
	movq	%rax, %rcx
	movl	%edx, %eax
	movq	%rcx, -16(%rbp)
	movl	%eax, -8(%rbp)
	jmp	LBB32_5
Ltmp298:
LBB32_7:
	.loc	10 221 30
	movl	$1, %eax
	xorl	%ecx, %ecx
	cmpl	$4, -232(%rbp)
	cmoveq	%rcx, %rax
	cmpq	$0, %rax
	jne	LBB32_9
Ltmp299:
	.loc	10 221 17
	leaq	-280(%rbp), %rdi
	callq	__ZN4core3ptr157drop_in_place$LT$core..iter..adapters..map..Map$LT$proc_macro2..token_stream..IntoIter$C$quote..__private..parse_spanned..$u7b$$u7b$closure$u7d$$u7d$$GT$$GT$17h31675f20fe9bb12dE
	jmp	LBB32_3
Ltmp300:
LBB32_9:
	.loc	10 221 21
	movq	-200(%rbp), %rax
	movq	%rax, -160(%rbp)
	movq	-208(%rbp), %rax
	movq	%rax, -168(%rbp)
	movq	-216(%rbp), %rax
	movq	%rax, -176(%rbp)
	movq	-232(%rbp), %rax
	movq	-224(%rbp), %rcx
	movq	%rcx, -184(%rbp)
	movq	%rax, -192(%rbp)
Ltmp301:
	.loc	10 222 56 is_stmt 1
	movq	-160(%rbp), %rax
	movq	%rax, -96(%rbp)
	movq	-168(%rbp), %rax
	movq	%rax, -104(%rbp)
	movq	-176(%rbp), %rax
	movq	%rax, -112(%rbp)
	movq	-192(%rbp), %rax
	movq	-184(%rbp), %rcx
	movq	%rcx, -120(%rbp)
	movq	%rax, -128(%rbp)
Ltmp277:
	leaq	-152(%rbp), %rdi
	leaq	-128(%rbp), %rsi
	.loc	10 222 36 is_stmt 0
	callq	__ZN11proc_macro23imp19into_compiler_token17he4ce1b22e54eea56E
Ltmp278:
	jmp	LBB32_10
Ltmp302:
LBB32_10:
Ltmp279:
	.loc	10 0 36
	movq	-392(%rbp), %rdi
	leaq	-152(%rbp), %rsi
	.loc	10 222 21
	callq	__ZN5alloc3vec16Vec$LT$T$C$A$GT$4push17h3e5f5d28694a33d8E
Ltmp280:
	jmp	LBB32_11
Ltmp303:
LBB32_11:
	jmp	LBB32_4
Ltmp304:
LBB32_12:
Ltmp284:
	.loc	10 217 5 is_stmt 1
	callq	__ZN4core9panicking19panic_cannot_unwind17h1fbca7e1d7f56ae1E
Ltmp305:
LBB32_13:
	movq	-16(%rbp), %rdi
	callq	__Unwind_Resume
Ltmp306:
Lfunc_end32:
	.cfi_endproc
	.section	__TEXT,__gcc_except_tab
	.p2align	2
GCC_except_table32:
Lexception10:
	.byte	255
	.byte	255
	.byte	1
	.uleb128 Lcst_end10-Lcst_begin10
Lcst_begin10:
	.uleb128 Lfunc_begin32-Lfunc_begin32
	.uleb128 Ltmp275-Lfunc_begin32
	.byte	0
	.byte	0
	.uleb128 Ltmp275-Lfunc_begin32
	.uleb128 Ltmp276-Ltmp275
	.uleb128 Ltmp281-Lfunc_begin32
	.byte	0
	.uleb128 Ltmp282-Lfunc_begin32
	.uleb128 Ltmp283-Ltmp282
	.uleb128 Ltmp284-Lfunc_begin32
	.byte	0
	.uleb128 Ltmp283-Lfunc_begin32
	.uleb128 Ltmp277-Ltmp283
	.byte	0
	.byte	0
	.uleb128 Ltmp277-Lfunc_begin32
	.uleb128 Ltmp280-Ltmp277
	.uleb128 Ltmp281-Lfunc_begin32
	.byte	0
	.uleb128 Ltmp280-Lfunc_begin32
	.uleb128 Lfunc_end32-Ltmp280
	.byte	0
	.byte	0
Lcst_end10:
	.p2align	2

	.section	__TEXT,__text,regular,pure_instructions
	.globl	__ZN115_$LT$proc_macro2..imp..TokenStream$u20$as$u20$core..iter..traits..collect..Extend$LT$proc_macro2..TokenTree$GT$$GT$6extend17hb821051960470592E
	.p2align	4, 0x90
__ZN115_$LT$proc_macro2..imp..TokenStream$u20$as$u20$core..iter..traits..collect..Extend$LT$proc_macro2..TokenTree$GT$$GT$6extend17hb821051960470592E:
Lfunc_begin33:
	.loc	10 217 0
	.cfi_startproc
	.cfi_personality 155, _rust_eh_personality
	.cfi_lsda 16, Lexception11
	pushq	%rbp
	.cfi_def_cfa_offset 16
	.cfi_offset %rbp, -16
	movq	%rsp, %rbp
	.cfi_def_cfa_register %rbp
	subq	$304, %rsp
	movq	%rdi, -296(%rbp)
	movq	%rsi, -288(%rbp)
Ltmp314:
	movq	%rdi, -40(%rbp)
Ltmp315:
	.loc	10 218 15 prologue_end
	movq	8(%rdi), %rdx
	xorl	%eax, %eax
	movl	$1, %ecx
	cmpq	$0, %rdx
	cmoveq	%rcx, %rax
	.loc	10 218 9 is_stmt 0
	cmpq	$0, %rax
Ltmp316:
	jne	LBB33_2
Ltmp317:
	.loc	10 0 9
	movq	-288(%rbp), %rax
	movq	-296(%rbp), %rcx
	.loc	10 219 35 is_stmt 1
	movq	%rcx, -24(%rbp)
Ltmp318:
	.loc	10 221 30
	movq	(%rax), %rcx
	movq	%rcx, -256(%rbp)
	movq	8(%rax), %rcx
	movq	%rcx, -248(%rbp)
	movq	16(%rax), %rax
	movq	%rax, -240(%rbp)
	leaq	-280(%rbp), %rdi
	leaq	-256(%rbp), %rsi
	callq	__ZN63_$LT$I$u20$as$u20$core..iter..traits..collect..IntoIterator$GT$9into_iter17hf9a84bd523309809E
	movq	-280(%rbp), %rax
	movq	%rax, -232(%rbp)
	movq	-272(%rbp), %rax
	movq	%rax, -224(%rbp)
	movq	-264(%rbp), %rax
	movq	%rax, -216(%rbp)
Ltmp319:
	.loc	10 221 17 is_stmt 0
	jmp	LBB33_4
Ltmp320:
LBB33_2:
	.loc	10 0 17
	movq	-296(%rbp), %rdi
	movq	-288(%rbp), %rax
	.loc	10 225 35 is_stmt 1
	movq	%rdi, -32(%rbp)
Ltmp321:
	.loc	10 225 54 is_stmt 0
	movq	(%rax), %rcx
	movq	%rcx, -64(%rbp)
	movq	8(%rax), %rcx
	movq	%rcx, -56(%rbp)
	movq	16(%rax), %rax
	movq	%rax, -48(%rbp)
	.loc	10 225 43
	leaq	-64(%rbp), %rsi
	callq	__ZN120_$LT$proc_macro2..fallback..TokenStream$u20$as$u20$core..iter..traits..collect..Extend$LT$proc_macro2..TokenTree$GT$$GT$6extend17h76df46bb71d2a284E
Ltmp322:
LBB33_3:
	.loc	10 227 6 is_stmt 1
	addq	$304, %rsp
	popq	%rbp
	retq
Ltmp323:
LBB33_4:
Ltmp307:
	.loc	10 0 6 is_stmt 0
	leaq	-208(%rbp), %rdi
	leaq	-232(%rbp), %rsi
Ltmp324:
	.loc	10 221 30 is_stmt 1
	callq	__ZN108_$LT$quote..__private..push_lifetime_spanned..Lifetime$u20$as$u20$core..iter..traits..iterator..Iterator$GT$4next17hbb4972bd07150083E
Ltmp308:
	jmp	LBB33_7
Ltmp325:
LBB33_5:
	.loc	10 217 5
	movq	-16(%rbp), %rdi
	callq	__Unwind_Resume
Ltmp326:
LBB33_6:
Ltmp313:
	.loc	10 0 5 is_stmt 0
	movq	%rax, %rcx
	movl	%edx, %eax
	movq	%rcx, -16(%rbp)
	movl	%eax, -8(%rbp)
	jmp	LBB33_5
Ltmp327:
LBB33_7:
	.loc	10 221 30 is_stmt 1
	movl	$1, %eax
	xorl	%ecx, %ecx
	cmpl	$4, -208(%rbp)
	cmoveq	%rcx, %rax
	cmpq	$0, %rax
	jne	LBB33_9
Ltmp328:
	.loc	10 221 17 is_stmt 0
	jmp	LBB33_3
Ltmp329:
LBB33_9:
	.loc	10 221 21
	movq	-176(%rbp), %rax
	movq	%rax, -136(%rbp)
	movq	-184(%rbp), %rax
	movq	%rax, -144(%rbp)
	movq	-192(%rbp), %rax
	movq	%rax, -152(%rbp)
	movq	-208(%rbp), %rax
	movq	-200(%rbp), %rcx
	movq	%rcx, -160(%rbp)
	movq	%rax, -168(%rbp)
Ltmp330:
	.loc	10 222 56 is_stmt 1
	movq	-136(%rbp), %rax
	movq	%rax, -72(%rbp)
	movq	-144(%rbp), %rax
	movq	%rax, -80(%rbp)
	movq	-152(%rbp), %rax
	movq	%rax, -88(%rbp)
	movq	-168(%rbp), %rax
	movq	-160(%rbp), %rcx
	movq	%rcx, -96(%rbp)
	movq	%rax, -104(%rbp)
Ltmp309:
	leaq	-128(%rbp), %rdi
	leaq	-104(%rbp), %rsi
	.loc	10 222 36 is_stmt 0
	callq	__ZN11proc_macro23imp19into_compiler_token17he4ce1b22e54eea56E
Ltmp310:
	jmp	LBB33_10
Ltmp331:
LBB33_10:
Ltmp311:
	.loc	10 0 36
	movq	-296(%rbp), %rdi
	leaq	-128(%rbp), %rsi
	.loc	10 222 21
	callq	__ZN5alloc3vec16Vec$LT$T$C$A$GT$4push17h3e5f5d28694a33d8E
Ltmp312:
	jmp	LBB33_11
Ltmp332:
LBB33_11:
	jmp	LBB33_4
Ltmp333:
Lfunc_end33:
	.cfi_endproc
	.section	__TEXT,__gcc_except_tab
	.p2align	2
GCC_except_table33:
Lexception11:
	.byte	255
	.byte	255
	.byte	1
	.uleb128 Lcst_end11-Lcst_begin11
Lcst_begin11:
	.uleb128 Lfunc_begin33-Lfunc_begin33
	.uleb128 Ltmp307-Lfunc_begin33
	.byte	0
	.byte	0
	.uleb128 Ltmp307-Lfunc_begin33
	.uleb128 Ltmp308-Ltmp307
	.uleb128 Ltmp313-Lfunc_begin33
	.byte	0
	.uleb128 Ltmp308-Lfunc_begin33
	.uleb128 Ltmp309-Ltmp308
	.byte	0
	.byte	0
	.uleb128 Ltmp309-Lfunc_begin33
	.uleb128 Ltmp312-Ltmp309
	.uleb128 Ltmp313-Lfunc_begin33
	.byte	0
Lcst_end11:
	.p2align	2

	.section	__TEXT,__text,regular,pure_instructions
	.globl	__ZN115_$LT$proc_macro2..imp..TokenStream$u20$as$u20$core..iter..traits..collect..Extend$LT$proc_macro2..TokenTree$GT$$GT$6extend17hbd0e002aa32a7920E
	.p2align	4, 0x90
__ZN115_$LT$proc_macro2..imp..TokenStream$u20$as$u20$core..iter..traits..collect..Extend$LT$proc_macro2..TokenTree$GT$$GT$6extend17hbd0e002aa32a7920E:
Lfunc_begin34:
	.loc	10 217 0 is_stmt 1
	.cfi_startproc
	.cfi_personality 155, _rust_eh_personality
	.cfi_lsda 16, Lexception12
	pushq	%rbp
	.cfi_def_cfa_offset 16
	.cfi_offset %rbp, -16
	movq	%rsp, %rbp
	.cfi_def_cfa_register %rbp
	subq	$368, %rsp
	movq	%rdi, -360(%rbp)
	movq	%rsi, -352(%rbp)
Ltmp344:
	movq	%rdi, -40(%rbp)
Ltmp345:
	.loc	10 218 15 prologue_end
	movq	8(%rdi), %rdx
	xorl	%eax, %eax
	movl	$1, %ecx
	cmpq	$0, %rdx
	cmoveq	%rcx, %rax
	.loc	10 218 9 is_stmt 0
	cmpq	$0, %rax
Ltmp346:
	jne	LBB34_2
Ltmp347:
	.loc	10 0 9
	movq	-352(%rbp), %rsi
	movq	-360(%rbp), %rax
	.loc	10 219 35 is_stmt 1
	movq	%rax, -24(%rbp)
Ltmp348:
	.loc	10 221 30
	leaq	-304(%rbp), %rdi
	movl	$40, %edx
	callq	_memcpy
	leaq	-344(%rbp), %rdi
	leaq	-304(%rbp), %rsi
	callq	__ZN63_$LT$I$u20$as$u20$core..iter..traits..collect..IntoIterator$GT$9into_iter17hd2ce499f1d4c035dE
	leaq	-264(%rbp), %rdi
	leaq	-344(%rbp), %rsi
	movl	$40, %edx
	callq	_memcpy
Ltmp349:
	.loc	10 221 17 is_stmt 0
	jmp	LBB34_4
Ltmp350:
LBB34_2:
	.loc	10 0 17
	movq	-360(%rbp), %rax
	movq	-352(%rbp), %rsi
	.loc	10 225 35 is_stmt 1
	movq	%rax, -32(%rbp)
Ltmp351:
	.loc	10 225 54 is_stmt 0
	leaq	-80(%rbp), %rdi
	movl	$40, %edx
	callq	_memcpy
	movq	-360(%rbp), %rdi
	.loc	10 225 43
	leaq	-80(%rbp), %rsi
	callq	__ZN120_$LT$proc_macro2..fallback..TokenStream$u20$as$u20$core..iter..traits..collect..Extend$LT$proc_macro2..TokenTree$GT$$GT$6extend17h62234c4204e76097E
Ltmp352:
LBB34_3:
	.loc	10 227 6 is_stmt 1
	addq	$368, %rsp
	popq	%rbp
	retq
Ltmp353:
LBB34_4:
Ltmp334:
	.loc	10 0 6 is_stmt 0
	leaq	-224(%rbp), %rdi
	leaq	-264(%rbp), %rsi
Ltmp354:
	.loc	10 221 30 is_stmt 1
	callq	__ZN99_$LT$core..iter..sources..once..Once$LT$T$GT$$u20$as$u20$core..iter..traits..iterator..Iterator$GT$4next17hf7963f7b43a24482E
Ltmp335:
	jmp	LBB34_7
Ltmp355:
LBB34_5:
Ltmp341:
	.loc	10 0 30 is_stmt 0
	leaq	-264(%rbp), %rdi
	.loc	10 221 17
	callq	__ZN4core3ptr82drop_in_place$LT$core..iter..sources..once..Once$LT$proc_macro2..TokenTree$GT$$GT$17h16a48431dbb4e5eaE
Ltmp342:
	jmp	LBB34_13
Ltmp356:
LBB34_6:
Ltmp340:
	.loc	10 0 17
	movq	%rax, %rcx
	movl	%edx, %eax
	movq	%rcx, -16(%rbp)
	movl	%eax, -8(%rbp)
	jmp	LBB34_5
Ltmp357:
LBB34_7:
	.loc	10 221 30
	movl	$1, %eax
	xorl	%ecx, %ecx
	cmpl	$4, -224(%rbp)
	cmoveq	%rcx, %rax
	cmpq	$0, %rax
	jne	LBB34_9
Ltmp358:
	.loc	10 221 17
	leaq	-264(%rbp), %rdi
	callq	__ZN4core3ptr82drop_in_place$LT$core..iter..sources..once..Once$LT$proc_macro2..TokenTree$GT$$GT$17h16a48431dbb4e5eaE
	jmp	LBB34_3
Ltmp359:
LBB34_9:
	.loc	10 221 21
	movq	-192(%rbp), %rax
	movq	%rax, -152(%rbp)
	movq	-200(%rbp), %rax
	movq	%rax, -160(%rbp)
	movq	-208(%rbp), %rax
	movq	%rax, -168(%rbp)
	movq	-224(%rbp), %rax
	movq	-216(%rbp), %rcx
	movq	%rcx, -176(%rbp)
	movq	%rax, -184(%rbp)
Ltmp360:
	.loc	10 222 56 is_stmt 1
	movq	-152(%rbp), %rax
	movq	%rax, -88(%rbp)
	movq	-160(%rbp), %rax
	movq	%rax, -96(%rbp)
	movq	-168(%rbp), %rax
	movq	%rax, -104(%rbp)
	movq	-184(%rbp), %rax
	movq	-176(%rbp), %rcx
	movq	%rcx, -112(%rbp)
	movq	%rax, -120(%rbp)
Ltmp336:
	leaq	-144(%rbp), %rdi
	leaq	-120(%rbp), %rsi
	.loc	10 222 36 is_stmt 0
	callq	__ZN11proc_macro23imp19into_compiler_token17he4ce1b22e54eea56E
Ltmp337:
	jmp	LBB34_10
Ltmp361:
LBB34_10:
Ltmp338:
	.loc	10 0 36
	movq	-360(%rbp), %rdi
	leaq	-144(%rbp), %rsi
	.loc	10 222 21
	callq	__ZN5alloc3vec16Vec$LT$T$C$A$GT$4push17h3e5f5d28694a33d8E
Ltmp339:
	jmp	LBB34_11
Ltmp362:
LBB34_11:
	jmp	LBB34_4
Ltmp363:
LBB34_12:
Ltmp343:
	.loc	10 217 5 is_stmt 1
	callq	__ZN4core9panicking19panic_cannot_unwind17h1fbca7e1d7f56ae1E
Ltmp364:
LBB34_13:
	movq	-16(%rbp), %rdi
	callq	__Unwind_Resume
Ltmp365:
Lfunc_end34:
	.cfi_endproc
	.section	__TEXT,__gcc_except_tab
	.p2align	2
GCC_except_table34:
Lexception12:
	.byte	255
	.byte	255
	.byte	1
	.uleb128 Lcst_end12-Lcst_begin12
Lcst_begin12:
	.uleb128 Lfunc_begin34-Lfunc_begin34
	.uleb128 Ltmp334-Lfunc_begin34
	.byte	0
	.byte	0
	.uleb128 Ltmp334-Lfunc_begin34
	.uleb128 Ltmp335-Ltmp334
	.uleb128 Ltmp340-Lfunc_begin34
	.byte	0
	.uleb128 Ltmp341-Lfunc_begin34
	.uleb128 Ltmp342-Ltmp341
	.uleb128 Ltmp343-Lfunc_begin34
	.byte	0
	.uleb128 Ltmp342-Lfunc_begin34
	.uleb128 Ltmp336-Ltmp342
	.byte	0
	.byte	0
	.uleb128 Ltmp336-Lfunc_begin34
	.uleb128 Ltmp339-Ltmp336
	.uleb128 Ltmp340-Lfunc_begin34
	.byte	0
	.uleb128 Ltmp339-Lfunc_begin34
	.uleb128 Lfunc_end34-Ltmp339
	.byte	0
	.byte	0
Lcst_end12:
	.p2align	2

	.section	__TEXT,__text,regular,pure_instructions
	.globl	__ZN116_$LT$core..iter..adapters..flatten..FlattenCompat$LT$I$C$U$GT$$u20$as$u20$core..iter..traits..iterator..Iterator$GT$4next17h0293a4058ec36117E
	.p2align	4, 0x90
__ZN116_$LT$core..iter..adapters..flatten..FlattenCompat$LT$I$C$U$GT$$u20$as$u20$core..iter..traits..iterator..Iterator$GT$4next17h0293a4058ec36117E:
Lfunc_begin35:
	.loc	4 469 0
	.cfi_startproc
	.cfi_personality 155, _rust_eh_personality
	.cfi_lsda 16, Lexception13
	pushq	%rbp
	.cfi_def_cfa_offset 16
	.cfi_offset %rbp, -16
	movq	%rsp, %rbp
	.cfi_def_cfa_register %rbp
	subq	$224, %rsp
	movq	%rsi, -216(%rbp)
	movq	%rdi, -208(%rbp)
	movq	%rdi, -200(%rbp)
	movq	%rsi, -40(%rbp)
LBB35_1:
	movq	-216(%rbp), %rsi
Ltmp369:
	.loc	4 471 36 prologue_end
	leaq	-192(%rbp), %rdi
	callq	__ZN4core4iter8adapters7flatten17and_then_or_clear17h37fcd05e54c36d39E
	.loc	4 471 20 is_stmt 0
	movl	$1, %eax
	xorl	%ecx, %ecx
	cmpl	$4, -192(%rbp)
	cmoveq	%rcx, %rax
	cmpq	$1, %rax
	jne	LBB35_3
	leaq	-152(%rbp), %rdi
	leaq	-192(%rbp), %rsi
	movl	$40, %edx
	callq	_memcpy
	movq	-208(%rbp), %rdi
	.loc	4 472 24 is_stmt 1
	leaq	-152(%rbp), %rsi
	movl	$40, %edx
	callq	_memcpy
Ltmp370:
	.file	11 "/Users/natalie/.cargo/registry/src/github.com-1ecc6299db9ec823/quote-1.0.21" "src/lib.rs"
	.loc	11 1 1
	jmp	LBB35_9
LBB35_3:
	.loc	4 473 13
	leaq	-192(%rbp), %rdi
	callq	__ZN4core3ptr71drop_in_place$LT$core..option..Option$LT$proc_macro2..TokenTree$GT$$GT$17h6244b51dcc638303E
	movq	-216(%rbp), %rdi
	.loc	4 474 19
	addq	$64, %rdi
	movq	%rdi, -32(%rbp)
Ltmp371:
	.loc	5 43 9
	callq	__ZN107_$LT$core..iter..adapters..fuse..Fuse$LT$I$GT$$u20$as$u20$core..iter..adapters..fuse..FuseImpl$LT$I$GT$$GT$4next17h6d2cdefd193b1aeeE
	movq	%rax, -112(%rbp)
Ltmp372:
	.loc	4 474 19
	movq	-112(%rbp), %rdx
	movl	$1, %eax
	xorl	%ecx, %ecx
	cmpq	$0, %rdx
	cmoveq	%rcx, %rax
	.loc	4 474 13 is_stmt 0
	cmpq	$0, %rax
	jne	LBB35_5
	.loc	4 0 13
	movq	-208(%rbp), %rdi
	movq	-216(%rbp), %rsi
	.loc	4 475 50 is_stmt 1
	addq	$32, %rsi
	.loc	4 475 32 is_stmt 0
	callq	__ZN4core4iter8adapters7flatten17and_then_or_clear17h37fcd05e54c36d39E
	.loc	11 1 1 is_stmt 1
	jmp	LBB35_9
LBB35_5:
	.loc	4 476 22
	movq	-112(%rbp), %rsi
	movq	%rsi, -24(%rbp)
	leaq	-72(%rbp), %rdi
Ltmp373:
	.loc	4 476 54 is_stmt 0
	callq	__ZN96_$LT$proc_macro2..fallback..TokenStream$u20$as$u20$core..iter..traits..collect..IntoIterator$GT$9into_iter17hd7d4c9a26be6ad94E
	movq	-216(%rbp), %rdi
	.loc	4 476 49
	movq	-48(%rbp), %rax
	movq	%rax, -80(%rbp)
	movq	-56(%rbp), %rax
	movq	%rax, -88(%rbp)
	movq	-72(%rbp), %rax
	movq	-64(%rbp), %rcx
	movq	%rcx, -96(%rbp)
	movq	%rax, -104(%rbp)
Ltmp366:
	.loc	4 476 32
	callq	__ZN4core3ptr112drop_in_place$LT$core..option..Option$LT$proc_macro2..rcvec..RcVecIntoIter$LT$proc_macro2..TokenTree$GT$$GT$$GT$17h76a342d942a9bb65E
Ltmp367:
	jmp	LBB35_8
LBB35_6:
	.loc	4 0 32
	movq	-216(%rbp), %rax
	.loc	4 476 32
	movq	-80(%rbp), %rcx
	movq	%rcx, 24(%rax)
	movq	-88(%rbp), %rcx
	movq	%rcx, 16(%rax)
	movq	-104(%rbp), %rcx
	movq	-96(%rbp), %rdx
	movq	%rdx, 8(%rax)
	movq	%rcx, (%rax)
Ltmp374:
	.loc	4 469 5 is_stmt 1
	movq	-16(%rbp), %rdi
	callq	__Unwind_Resume
LBB35_7:
Ltmp368:
	.loc	4 0 5 is_stmt 0
	movq	%rax, %rcx
	movl	%edx, %eax
	movq	%rcx, -16(%rbp)
	movl	%eax, -8(%rbp)
	jmp	LBB35_6
LBB35_8:
	movq	-216(%rbp), %rax
Ltmp375:
	.loc	4 476 32 is_stmt 1
	movq	-104(%rbp), %rcx
	movq	%rcx, (%rax)
	movq	-96(%rbp), %rcx
	movq	%rcx, 8(%rax)
	movq	-88(%rbp), %rcx
	movq	%rcx, 16(%rax)
	movq	-80(%rbp), %rcx
	movq	%rcx, 24(%rax)
Ltmp376:
	.loc	4 470 9
	jmp	LBB35_1
LBB35_9:
	.loc	4 0 9 is_stmt 0
	movq	-200(%rbp), %rax
	.loc	4 479 6 is_stmt 1
	addq	$224, %rsp
	popq	%rbp
	retq
Ltmp377:
Lfunc_end35:
	.cfi_endproc
	.section	__TEXT,__gcc_except_tab
	.p2align	2
GCC_except_table35:
Lexception13:
	.byte	255
	.byte	255
	.byte	1
	.uleb128 Lcst_end13-Lcst_begin13
Lcst_begin13:
	.uleb128 Lfunc_begin35-Lfunc_begin35
	.uleb128 Ltmp366-Lfunc_begin35
	.byte	0
	.byte	0
	.uleb128 Ltmp366-Lfunc_begin35
	.uleb128 Ltmp367-Ltmp366
	.uleb128 Ltmp368-Lfunc_begin35
	.byte	0
	.uleb128 Ltmp367-Lfunc_begin35
	.uleb128 Lfunc_end35-Ltmp367
	.byte	0
	.byte	0
Lcst_end13:
	.p2align	2

	.section	__TEXT,__text,regular,pure_instructions
	.globl	__ZN116_$LT$core..iter..adapters..flatten..FlattenCompat$LT$I$C$U$GT$$u20$as$u20$core..iter..traits..iterator..Iterator$GT$9size_hint17h568b16e3bf32a1d0E
	.p2align	4, 0x90
__ZN116_$LT$core..iter..adapters..flatten..FlattenCompat$LT$I$C$U$GT$$u20$as$u20$core..iter..traits..iterator..Iterator$GT$9size_hint17h568b16e3bf32a1d0E:
Lfunc_begin36:
	.loc	4 482 0
	.cfi_startproc
	pushq	%rbp
	.cfi_def_cfa_offset 16
	.cfi_offset %rbp, -16
	movq	%rsp, %rbp
	.cfi_def_cfa_register %rbp
	subq	$1136, %rsp
	movq	%rsi, -1016(%rbp)
	movq	%rdi, -1008(%rbp)
	movq	%rdi, -1000(%rbp)
	movq	%rsi, -448(%rbp)
Ltmp378:
	.loc	4 483 26 prologue_end
	movq	%rsi, -344(%rbp)
Ltmp379:
	.loc	6 675 15
	movq	24(%rsi), %rdx
	movl	$1, %eax
	xorl	%ecx, %ecx
	cmpq	$0, %rdx
	cmoveq	%rcx, %rax
	.loc	6 675 9 is_stmt 0
	cmpq	$0, %rax
	jne	LBB36_2
	.loc	6 677 21 is_stmt 1
	movq	$0, -968(%rbp)
	jmp	LBB36_3
LBB36_2:
	.loc	6 0 21 is_stmt 0
	movq	-1016(%rbp), %rax
	.loc	6 676 18 is_stmt 1
	movq	%rax, -336(%rbp)
Ltmp380:
	.loc	6 676 28 is_stmt 0
	movq	%rax, -968(%rbp)
Ltmp381:
LBB36_3:
	.loc	4 483 61 is_stmt 1
	movq	$0, -928(%rbp)
	movq	$1, -936(%rbp)
	.loc	4 483 57 is_stmt 0
	movq	$0, -960(%rbp)
	movq	-936(%rbp), %rcx
	movq	-928(%rbp), %rax
	movq	%rcx, -952(%rbp)
	movq	%rax, -944(%rbp)
	.loc	4 483 26
	movq	-968(%rbp), %rsi
	leaq	-992(%rbp), %rdi
	leaq	-960(%rbp), %rdx
	callq	__ZN4core6option15Option$LT$T$GT$6map_or17h33d16214b0b0f46dE
	movq	-1016(%rbp), %rax
	.loc	4 483 14
	movq	-992(%rbp), %rcx
	movq	%rcx, -1048(%rbp)
	movq	%rcx, -328(%rbp)
	.loc	4 483 19
	movq	-984(%rbp), %rdx
	movq	%rdx, -1040(%rbp)
	movq	-976(%rbp), %rcx
	movq	%rcx, -1032(%rbp)
	movq	%rdx, -320(%rbp)
	movq	%rcx, -312(%rbp)
Ltmp382:
	.loc	4 484 26 is_stmt 1
	movq	%rax, %rcx
	addq	$32, %rcx
	movq	%rcx, -1024(%rbp)
	movq	%rcx, -304(%rbp)
Ltmp383:
	.loc	6 675 15
	movq	56(%rax), %rdx
	movl	$1, %eax
	xorl	%ecx, %ecx
	cmpq	$0, %rdx
	cmoveq	%rcx, %rax
	.loc	6 675 9 is_stmt 0
	cmpq	$0, %rax
	jne	LBB36_5
	.loc	6 677 21 is_stmt 1
	movq	$0, -896(%rbp)
	jmp	LBB36_6
LBB36_5:
	.loc	6 0 21 is_stmt 0
	movq	-1024(%rbp), %rax
	.loc	6 676 18 is_stmt 1
	movq	%rax, -296(%rbp)
Ltmp384:
	.loc	6 676 28 is_stmt 0
	movq	%rax, -896(%rbp)
Ltmp385:
LBB36_6:
	.loc	4 484 60 is_stmt 1
	movq	$0, -856(%rbp)
	movq	$1, -864(%rbp)
	.loc	4 484 56 is_stmt 0
	movq	$0, -888(%rbp)
	movq	-864(%rbp), %rcx
	movq	-856(%rbp), %rax
	movq	%rcx, -880(%rbp)
	movq	%rax, -872(%rbp)
	.loc	4 484 26
	movq	-896(%rbp), %rsi
	leaq	-920(%rbp), %rdi
	leaq	-888(%rbp), %rdx
	callq	__ZN4core6option15Option$LT$T$GT$6map_or17h33d16214b0b0f46dE
	movq	-1048(%rbp), %rax
	.loc	4 484 14
	movq	-920(%rbp), %rcx
	movq	%rcx, -288(%rbp)
	.loc	4 484 19
	movq	-912(%rbp), %rsi
	movq	%rsi, -1072(%rbp)
	movq	-904(%rbp), %rdx
	movq	%rdx, -1064(%rbp)
	movq	%rsi, -280(%rbp)
	movq	%rdx, -272(%rbp)
Ltmp386:
	.loc	4 485 18 is_stmt 1
	movq	%rax, -264(%rbp)
	.loc	4 485 37 is_stmt 0
	movq	%rcx, -256(%rbp)
Ltmp387:
	.file	12 "/rustc/2c8cc343237b8f7d5a3c3703e3a87f2eb2c54a74/library/core/src/num" "uint_macros.rs"
	.loc	12 1022 13 is_stmt 1
	addq	%rcx, %rax
	movq	$-1, %rcx
	cmovbq	%rcx, %rax
	movq	%rax, -248(%rbp)
	movq	-248(%rbp), %rax
	movq	%rax, -1056(%rbp)
	movq	%rax, -240(%rbp)
Ltmp388:
	.loc	4 487 35
	callq	__ZN74_$LT$T$u20$as$u20$core..iter..adapters..flatten..ConstSizeIntoIterator$GT$4size17h299db412a5ea8382E
	movq	%rdx, -840(%rbp)
	movq	%rax, -848(%rbp)
	.loc	4 487 16 is_stmt 0
	cmpq	$1, -848(%rbp)
	jne	LBB36_8
	.loc	4 0 16
	movq	-1016(%rbp), %rdx
	.loc	4 487 21
	movq	-840(%rbp), %rax
	movq	%rax, -1088(%rbp)
	movq	%rax, -200(%rbp)
	.loc	4 488 34 is_stmt 1
	movq	%rdx, %rax
	addq	$64, %rax
	movq	%rax, -1080(%rbp)
	movq	%rax, -192(%rbp)
Ltmp389:
	.loc	5 69 15
	movl	$1, %eax
	xorl	%ecx, %ecx
	cmpq	$2, 64(%rdx)
	cmoveq	%rcx, %rax
	.loc	5 69 9 is_stmt 0
	cmpq	$0, %rax
	je	LBB36_20
	jmp	LBB36_21
Ltmp390:
LBB36_8:
	.loc	5 0 9
	movq	-1016(%rbp), %rdx
	.loc	4 497 16 is_stmt 1
	movq	%rdx, %rax
	addq	$64, %rax
	movq	%rax, -1096(%rbp)
	movq	%rax, -232(%rbp)
Ltmp391:
	.loc	5 69 15
	movl	$1, %eax
	xorl	%ecx, %ecx
	cmpq	$2, 64(%rdx)
	cmoveq	%rcx, %rax
	.loc	5 69 9 is_stmt 0
	cmpq	$0, %rax
	jne	LBB36_10
	.loc	5 71 25 is_stmt 1
	movq	$0, -456(%rbp)
	movq	$1, -464(%rbp)
	.loc	5 71 21 is_stmt 0
	movq	$0, -536(%rbp)
	movq	-464(%rbp), %rcx
	movq	-456(%rbp), %rax
	movq	%rcx, -528(%rbp)
	movq	%rax, -520(%rbp)
	.loc	5 71 32
	jmp	LBB36_11
LBB36_10:
	.loc	5 0 32
	movq	-1096(%rbp), %rsi
	.loc	5 70 18 is_stmt 1
	movq	%rsi, -224(%rbp)
Ltmp392:
	.loc	5 70 31 is_stmt 0
	leaq	-536(%rbp), %rdi
	callq	__ZN102_$LT$core..iter..adapters..map..Map$LT$I$C$F$GT$$u20$as$u20$core..iter..traits..iterator..Iterator$GT$9size_hint17h04eebfa06568e7efE
Ltmp393:
LBB36_11:
	.loc	5 0 31
	movq	-1064(%rbp), %rax
	movq	-1072(%rbp), %rcx
	movq	-1032(%rbp), %rdx
	movq	-1040(%rbp), %rsi
	.loc	4 497 15 is_stmt 1
	movq	-536(%rbp), %rdi
	movq	%rdi, -576(%rbp)
	movq	-528(%rbp), %rdi
	movq	%rdi, -568(%rbp)
	movq	-520(%rbp), %rdi
	movq	%rdi, -560(%rbp)
	movq	%rsi, -592(%rbp)
	movq	%rdx, -584(%rbp)
	movq	%rcx, -552(%rbp)
	movq	%rax, -544(%rbp)
	.loc	4 497 9 is_stmt 0
	cmpq	$0, -576(%rbp)
	jne	LBB36_13
	cmpq	$1, -568(%rbp)
	je	LBB36_14
LBB36_13:
	.loc	4 0 9
	movq	-1008(%rbp), %rax
	movq	-1056(%rbp), %rcx
	.loc	4 499 23 is_stmt 1
	movq	$0, -512(%rbp)
	.loc	4 499 18 is_stmt 0
	movq	%rcx, (%rax)
	movq	-512(%rbp), %rdx
	movq	-504(%rbp), %rcx
	movq	%rdx, 8(%rax)
	movq	%rcx, 16(%rax)
	.loc	4 499 27
	jmp	LBB36_18
LBB36_14:
	.loc	4 497 9 is_stmt 1
	cmpq	$1, -592(%rbp)
	jne	LBB36_13
	cmpq	$1, -552(%rbp)
	jne	LBB36_13
	cmpq	$0, -560(%rbp)
	jne	LBB36_13
	.loc	4 498 33
	movq	-584(%rbp), %rdi
	movq	%rdi, -216(%rbp)
	.loc	4 498 42 is_stmt 0
	movq	-544(%rbp), %rsi
	movq	%rsi, -208(%rbp)
Ltmp394:
	.loc	4 498 54
	callq	__ZN4core3num23_$LT$impl$u20$usize$GT$11checked_add17hd8dcca747615a58fE
	movq	-1056(%rbp), %rsi
	movq	%rax, %rcx
	movq	-1008(%rbp), %rax
	.loc	4 498 49
	movq	%rsi, (%rax)
	movq	%rcx, 8(%rax)
	movq	%rdx, 16(%rax)
Ltmp395:
LBB36_18:
	.loc	4 501 6 is_stmt 1
	jmp	LBB36_19
LBB36_19:
	.loc	4 0 6 is_stmt 0
	movq	-1000(%rbp), %rax
	.loc	4 501 6
	addq	$1136, %rsp
	popq	%rbp
	retq
LBB36_20:
Ltmp396:
	.loc	5 71 25 is_stmt 1
	movq	$0, -488(%rbp)
	movq	$1, -496(%rbp)
	.loc	5 71 21 is_stmt 0
	movq	$0, -832(%rbp)
	movq	-496(%rbp), %rcx
	movq	-488(%rbp), %rax
	movq	%rcx, -824(%rbp)
	movq	%rax, -816(%rbp)
	.loc	5 71 32
	jmp	LBB36_22
LBB36_21:
	.loc	5 0 32
	movq	-1080(%rbp), %rsi
	.loc	5 70 18 is_stmt 1
	movq	%rsi, -184(%rbp)
Ltmp397:
	.loc	5 70 31 is_stmt 0
	leaq	-832(%rbp), %rdi
	callq	__ZN102_$LT$core..iter..adapters..map..Map$LT$I$C$F$GT$$u20$as$u20$core..iter..traits..iterator..Iterator$GT$9size_hint17h04eebfa06568e7efE
Ltmp398:
LBB36_22:
	.loc	5 0 31
	movq	-1088(%rbp), %rsi
	.loc	4 488 18 is_stmt 1
	movq	-832(%rbp), %rdi
	movq	%rdi, -176(%rbp)
	.loc	4 488 25 is_stmt 0
	movq	-824(%rbp), %rcx
	movq	%rcx, -1112(%rbp)
	movq	-816(%rbp), %rax
	movq	%rax, -1104(%rbp)
	movq	%rcx, -168(%rbp)
	movq	%rax, -160(%rbp)
Ltmp399:
	.loc	4 490 25 is_stmt 1
	movq	%rdi, -152(%rbp)
	.loc	4 490 46 is_stmt 0
	movq	%rsi, -144(%rbp)
Ltmp400:
	.loc	12 1090 19 is_stmt 1
	callq	__ZN4core3num23_$LT$impl$u20$usize$GT$11checked_mul17h6053bdc9b079c27dE
	movq	%rdx, -472(%rbp)
	movq	%rax, -480(%rbp)
	.loc	12 1090 13 is_stmt 0
	cmpq	$0, -480(%rbp)
	jne	LBB36_24
	.loc	12 1092 25 is_stmt 1
	movq	$-1, -808(%rbp)
	jmp	LBB36_25
LBB36_24:
	.loc	12 1091 22
	movq	-472(%rbp), %rax
	movq	%rax, -136(%rbp)
Ltmp401:
	.loc	12 1091 28 is_stmt 0
	movq	%rax, -808(%rbp)
Ltmp402:
LBB36_25:
	.loc	12 0 28
	movq	-1032(%rbp), %rax
	movq	-1040(%rbp), %rcx
	movq	-1056(%rbp), %rsi
	.loc	4 490 73 is_stmt 1
	movq	%rsi, -128(%rbp)
Ltmp403:
	.loc	12 1022 40
	movq	-808(%rbp), %rdx
	.loc	12 1022 13 is_stmt 0
	addq	%rsi, %rdx
	movq	$-1, %rsi
	cmovbq	%rsi, %rdx
	movq	%rdx, -120(%rbp)
	movq	-120(%rbp), %rdx
	movq	%rdx, -1120(%rbp)
	movq	%rdx, -112(%rbp)
Ltmp404:
	.loc	4 492 23 is_stmt 1
	movq	%rcx, -704(%rbp)
	movq	%rax, -696(%rbp)
Ltmp405:
	.loc	6 2407 9
	cmpq	$0, -704(%rbp)
	jne	LBB36_27
	.loc	6 2409 21
	movq	$1, -720(%rbp)
	.loc	6 2409 44 is_stmt 0
	jmp	LBB36_28
LBB36_27:
	.loc	6 2408 18 is_stmt 1
	movq	-696(%rbp), %rax
	movq	%rax, -104(%rbp)
Ltmp406:
	.loc	6 2408 24 is_stmt 0
	movq	%rax, -712(%rbp)
	movq	$0, -720(%rbp)
Ltmp407:
LBB36_28:
	.loc	4 492 23 is_stmt 1
	cmpq	$0, -720(%rbp)
	jne	LBB36_30
	.loc	4 0 23 is_stmt 0
	movq	-1064(%rbp), %rax
	movq	-1072(%rbp), %rcx
	.loc	4 492 23
	movq	-712(%rbp), %rdx
	movq	%rdx, -1128(%rbp)
	movq	%rdx, -96(%rbp)
	.loc	4 492 40
	movq	%rcx, -672(%rbp)
	movq	%rax, -664(%rbp)
Ltmp408:
	.loc	6 2407 9 is_stmt 1
	cmpq	$0, -672(%rbp)
	je	LBB36_32
	jmp	LBB36_33
Ltmp409:
LBB36_30:
	.loc	6 2420 21
	movq	$0, -800(%rbp)
Ltmp410:
LBB36_31:
	.loc	11 1 1
	jmp	LBB36_37
LBB36_32:
Ltmp411:
	.loc	6 2409 21
	movq	$1, -688(%rbp)
	.loc	6 2409 44 is_stmt 0
	jmp	LBB36_34
LBB36_33:
	.loc	6 2408 18 is_stmt 1
	movq	-664(%rbp), %rax
	movq	%rax, -88(%rbp)
Ltmp412:
	.loc	6 2408 24 is_stmt 0
	movq	%rax, -680(%rbp)
	movq	$0, -688(%rbp)
Ltmp413:
LBB36_34:
	.loc	4 492 40 is_stmt 1
	cmpq	$0, -688(%rbp)
	jne	LBB36_36
	.loc	4 0 40 is_stmt 0
	movq	-1128(%rbp), %rdi
	.loc	4 492 40
	movq	-680(%rbp), %rsi
	movq	%rsi, -80(%rbp)
	.loc	4 492 23
	callq	__ZN4core3num23_$LT$impl$u20$usize$GT$11checked_add17hd8dcca747615a58fE
	movq	%rdx, -728(%rbp)
	movq	%rax, -736(%rbp)
Ltmp414:
	.loc	6 2407 9 is_stmt 1
	cmpq	$0, -736(%rbp)
	je	LBB36_38
	jmp	LBB36_39
Ltmp415:
LBB36_36:
	.loc	6 2420 21
	movq	$0, -800(%rbp)
Ltmp416:
	.loc	11 1 1
	jmp	LBB36_31
LBB36_37:
	jmp	LBB36_54
LBB36_38:
Ltmp417:
	.loc	6 2409 21
	movq	$1, -752(%rbp)
	.loc	6 2409 44 is_stmt 0
	jmp	LBB36_40
LBB36_39:
	.loc	6 2408 18 is_stmt 1
	movq	-728(%rbp), %rax
	movq	%rax, -72(%rbp)
Ltmp418:
	.loc	6 2408 24 is_stmt 0
	movq	%rax, -744(%rbp)
	movq	$0, -752(%rbp)
Ltmp419:
LBB36_40:
	.loc	4 492 23 is_stmt 1
	cmpq	$0, -752(%rbp)
	jne	LBB36_42
	.loc	4 0 23 is_stmt 0
	movq	-1104(%rbp), %rax
	movq	-1112(%rbp), %rcx
	.loc	4 492 23
	movq	-744(%rbp), %rdx
	movq	%rdx, -1136(%rbp)
	movq	%rdx, -64(%rbp)
	.loc	4 492 82
	movq	%rcx, -608(%rbp)
	movq	%rax, -600(%rbp)
Ltmp420:
	.loc	6 2407 9 is_stmt 1
	cmpq	$0, -608(%rbp)
	je	LBB36_43
	jmp	LBB36_44
Ltmp421:
LBB36_42:
	.loc	6 2420 21
	movq	$0, -800(%rbp)
Ltmp422:
	.loc	11 1 1
	jmp	LBB36_37
LBB36_43:
Ltmp423:
	.loc	6 2409 21
	movq	$1, -624(%rbp)
	.loc	6 2409 44 is_stmt 0
	jmp	LBB36_45
LBB36_44:
	.loc	6 2408 18 is_stmt 1
	movq	-600(%rbp), %rax
	movq	%rax, -56(%rbp)
Ltmp424:
	.loc	6 2408 24 is_stmt 0
	movq	%rax, -616(%rbp)
	movq	$0, -624(%rbp)
Ltmp425:
LBB36_45:
	.loc	4 492 82 is_stmt 1
	cmpq	$0, -624(%rbp)
	jne	LBB36_47
	.loc	4 0 82 is_stmt 0
	movq	-1088(%rbp), %rdi
	.loc	4 492 82
	movq	-616(%rbp), %rsi
	movq	%rsi, -48(%rbp)
	.loc	4 492 59
	callq	__ZN4core3num23_$LT$impl$u20$usize$GT$11checked_mul17h6053bdc9b079c27dE
	movq	%rdx, -632(%rbp)
	movq	%rax, -640(%rbp)
Ltmp426:
	.loc	6 2407 9 is_stmt 1
	cmpq	$0, -640(%rbp)
	je	LBB36_49
	jmp	LBB36_50
Ltmp427:
LBB36_47:
	.loc	6 2420 21
	movq	$0, -800(%rbp)
Ltmp428:
LBB36_48:
	.loc	11 1 1
	jmp	LBB36_37
LBB36_49:
Ltmp429:
	.loc	6 2409 21
	movq	$1, -656(%rbp)
	.loc	6 2409 44 is_stmt 0
	jmp	LBB36_51
LBB36_50:
	.loc	6 2408 18 is_stmt 1
	movq	-632(%rbp), %rax
	movq	%rax, -40(%rbp)
Ltmp430:
	.loc	6 2408 24 is_stmt 0
	movq	%rax, -648(%rbp)
	movq	$0, -656(%rbp)
Ltmp431:
LBB36_51:
	.loc	4 492 59 is_stmt 1
	cmpq	$0, -656(%rbp)
	jne	LBB36_53
	.loc	4 0 59 is_stmt 0
	movq	-1136(%rbp), %rdi
	.loc	4 492 59
	movq	-648(%rbp), %rsi
	movq	%rsi, -32(%rbp)
	.loc	4 492 23
	callq	__ZN4core3num23_$LT$impl$u20$usize$GT$11checked_add17hd8dcca747615a58fE
	movq	%rdx, -760(%rbp)
	movq	%rax, -768(%rbp)
Ltmp432:
	.loc	6 2407 9 is_stmt 1
	cmpq	$0, -768(%rbp)
	je	LBB36_55
	jmp	LBB36_56
Ltmp433:
LBB36_53:
	.loc	6 2420 21
	movq	$0, -800(%rbp)
Ltmp434:
	.loc	11 1 1
	jmp	LBB36_48
LBB36_54:
	.loc	4 492 21
	jmp	LBB36_60
LBB36_55:
Ltmp435:
	.loc	6 2409 21
	movq	$1, -784(%rbp)
	.loc	6 2409 44 is_stmt 0
	jmp	LBB36_57
LBB36_56:
	.loc	6 2408 18 is_stmt 1
	movq	-760(%rbp), %rax
	movq	%rax, -24(%rbp)
Ltmp436:
	.loc	6 2408 24 is_stmt 0
	movq	%rax, -776(%rbp)
	movq	$0, -784(%rbp)
Ltmp437:
LBB36_57:
	.loc	4 492 23 is_stmt 1
	cmpq	$0, -784(%rbp)
	jne	LBB36_59
	movq	-776(%rbp), %rax
	movq	%rax, -16(%rbp)
Ltmp438:
	.loc	4 492 23 is_stmt 0
	movq	%rax, -8(%rbp)
Ltmp439:
	.loc	6 2402 9 is_stmt 1
	movq	%rax, -792(%rbp)
	movq	$1, -800(%rbp)
Ltmp440:
	.loc	4 492 21
	jmp	LBB36_60
LBB36_59:
Ltmp441:
	.loc	6 2420 21
	movq	$0, -800(%rbp)
Ltmp442:
	.loc	11 1 1
	jmp	LBB36_54
LBB36_60:
	.loc	11 0 1 is_stmt 0
	movq	-1008(%rbp), %rax
	movq	-1120(%rbp), %rsi
Ltmp443:
	.loc	4 494 28 is_stmt 1
	movq	-800(%rbp), %rdx
	movq	-792(%rbp), %rcx
	.loc	4 494 20 is_stmt 0
	movq	%rsi, (%rax)
	movq	%rdx, 8(%rax)
	movq	%rcx, 16(%rax)
Ltmp444:
	.loc	4 501 6 is_stmt 1
	jmp	LBB36_19
Ltmp445:
Lfunc_end36:
	.cfi_endproc

	.globl	__ZN116_$LT$proc_macro2..TokenStream$u20$as$u20$core..iter..traits..collect..FromIterator$LT$proc_macro2..TokenTree$GT$$GT$9from_iter17h137e32af60e08be2E
	.p2align	4, 0x90
__ZN116_$LT$proc_macro2..TokenStream$u20$as$u20$core..iter..traits..collect..FromIterator$LT$proc_macro2..TokenTree$GT$$GT$9from_iter17h137e32af60e08be2E:
Lfunc_begin37:
	.loc	8 261 0
	.cfi_startproc
	pushq	%rbp
	.cfi_def_cfa_offset 16
	.cfi_offset %rbp, -16
	movq	%rsp, %rbp
	.cfi_def_cfa_register %rbp
	subq	$144, %rsp
	movq	%rdi, -144(%rbp)
	movq	%rdi, -136(%rbp)
Ltmp446:
	.loc	8 262 27 prologue_end
	leaq	-48(%rbp), %rdi
	movl	$48, %edx
	callq	_memcpy
Ltmp447:
	leaq	-96(%rbp), %rdi
	leaq	-48(%rbp), %rsi
	callq	__ZN63_$LT$I$u20$as$u20$core..iter..traits..collect..IntoIterator$GT$9into_iter17hb1f7523394b8b84aE
	leaq	-128(%rbp), %rdi
	leaq	-96(%rbp), %rsi
	callq	__ZN4core4iter6traits8iterator8Iterator7collect17he2c39c493d3e9319E
	movq	-144(%rbp), %rdi
	.loc	8 262 9 is_stmt 0
	leaq	-128(%rbp), %rsi
	callq	__ZN11proc_macro211TokenStream4_new17h2c7be4a2b89000d1E
	movq	-136(%rbp), %rax
	.loc	8 263 6 is_stmt 1
	addq	$144, %rsp
	popq	%rbp
	retq
Ltmp448:
Lfunc_end37:
	.cfi_endproc

	.globl	__ZN11proc_macro25rcvec14RcVec$LT$T$GT$8make_mut17h10872b5e21b31db7E
	.p2align	4, 0x90
__ZN11proc_macro25rcvec14RcVec$LT$T$GT$8make_mut17h10872b5e21b31db7E:
Lfunc_begin38:
	.file	13 "/Users/natalie/.cargo/registry/src/github.com-1ecc6299db9ec823/proc-macro2-1.0.47/src" "rcvec.rs"
	.loc	13 36 0
	.cfi_startproc
	pushq	%rbp
	.cfi_def_cfa_offset 16
	.cfi_offset %rbp, -16
	movq	%rsp, %rbp
	.cfi_def_cfa_register %rbp
	subq	$16, %rsp
	movq	%rdi, -8(%rbp)
Ltmp449:
	.loc	13 41 20 prologue_end
	callq	__ZN5alloc2rc11Rc$LT$T$GT$8make_mut17h509c72723cf69c00E
	.loc	13 40 9
	movq	%rax, -16(%rbp)
	.loc	13 43 6
	movq	-16(%rbp), %rax
	addq	$16, %rsp
	popq	%rbp
	retq
Ltmp450:
Lfunc_end38:
	.cfi_endproc

	.globl	__ZN11proc_macro25rcvec17RcVecMut$LT$T$GT$6as_mut17h7b454e3508dc7015E
	.p2align	4, 0x90
__ZN11proc_macro25rcvec17RcVecMut$LT$T$GT$6as_mut17h7b454e3508dc7015E:
Lfunc_begin39:
	.loc	13 108 0
	.cfi_startproc
	pushq	%rbp
	.cfi_def_cfa_offset 16
	.cfi_offset %rbp, -16
	movq	%rsp, %rbp
	.cfi_def_cfa_register %rbp
	subq	$16, %rsp
	movq	%rdi, -8(%rbp)
Ltmp451:
	.loc	13 109 27 prologue_end
	movq	(%rdi), %rax
	.loc	13 109 9 is_stmt 0
	movq	%rax, -16(%rbp)
	.loc	13 110 6 is_stmt 1
	movq	-16(%rbp), %rax
	addq	$16, %rsp
	popq	%rbp
	retq
Ltmp452:
Lfunc_end39:
	.cfi_endproc

	.globl	__ZN11proc_macro25rcvec17RcVecMut$LT$T$GT$6extend17hca94272f487c5f48E
	.p2align	4, 0x90
__ZN11proc_macro25rcvec17RcVecMut$LT$T$GT$6extend17hca94272f487c5f48E:
Lfunc_begin40:
	.loc	13 100 0
	.cfi_startproc
	pushq	%rbp
	.cfi_def_cfa_offset 16
	.cfi_offset %rbp, -16
	movq	%rsp, %rbp
	.cfi_def_cfa_register %rbp
	subq	$128, %rsp
	movq	%rdi, -8(%rbp)
Ltmp453:
	.loc	13 101 9 prologue_end
	movq	(%rdi), %rax
	movq	%rax, -120(%rbp)
	.loc	13 101 27 is_stmt 0
	leaq	-112(%rbp), %rdi
	movl	$104, %edx
	callq	_memcpy
Ltmp454:
	.loc	13 0 27
	movq	-120(%rbp), %rdi
	.loc	13 101 9
	leaq	-112(%rbp), %rsi
	callq	__ZN93_$LT$alloc..vec..Vec$LT$T$C$A$GT$$u20$as$u20$core..iter..traits..collect..Extend$LT$T$GT$$GT$6extend17hf19b5f9ee16a936fE
	.loc	13 102 6 is_stmt 1
	addq	$128, %rsp
	popq	%rbp
	retq
Ltmp455:
Lfunc_end40:
	.cfi_endproc

	.globl	__ZN120_$LT$proc_macro2..fallback..TokenStream$u20$as$u20$core..iter..traits..collect..Extend$LT$proc_macro2..TokenTree$GT$$GT$6extend17h62234c4204e76097E
	.p2align	4, 0x90
__ZN120_$LT$proc_macro2..fallback..TokenStream$u20$as$u20$core..iter..traits..collect..Extend$LT$proc_macro2..TokenTree$GT$$GT$6extend17h62234c4204e76097E:
Lfunc_begin41:
	.file	14 "/Users/natalie/.cargo/registry/src/github.com-1ecc6299db9ec823/proc-macro2-1.0.47/src" "fallback.rs"
	.loc	14 284 0
	.cfi_startproc
	.cfi_personality 155, _rust_eh_personality
	.cfi_lsda 16, Lexception14
	pushq	%rbp
	.cfi_def_cfa_offset 16
	.cfi_offset %rbp, -16
	movq	%rsp, %rbp
	.cfi_def_cfa_register %rbp
	subq	$144, %rsp
	movq	%rsi, -144(%rbp)
Ltmp466:
	movq	%rdi, -24(%rbp)
Ltmp467:
	.loc	14 285 13 prologue_end
	movb	$0, -25(%rbp)
	movb	$1, -25(%rbp)
Ltmp456:
	.loc	14 285 23 is_stmt 0
	callq	__ZN11proc_macro25rcvec14RcVec$LT$T$GT$8make_mut17h10872b5e21b31db7E
Ltmp468:
Ltmp457:
	.loc	14 0 23
	movq	%rax, -136(%rbp)
Ltmp469:
	.loc	14 285 23
	jmp	LBB41_3
Ltmp470:
LBB41_1:
	.loc	14 289 5 is_stmt 1
	testb	$1, -25(%rbp)
	jne	LBB41_7
	jmp	LBB41_6
Ltmp471:
LBB41_2:
Ltmp462:
	.loc	14 0 5 is_stmt 0
	movq	%rax, %rcx
	movl	%edx, %eax
	movq	%rcx, -16(%rbp)
	movl	%eax, -8(%rbp)
	jmp	LBB41_1
Ltmp472:
LBB41_3:
	movq	-144(%rbp), %rcx
	movq	-136(%rbp), %rax
	.loc	14 285 23 is_stmt 1
	movq	%rax, -128(%rbp)
Ltmp473:
	.loc	14 286 9
	movb	$0, -25(%rbp)
	movq	32(%rcx), %rax
	movq	%rax, -48(%rbp)
	movq	24(%rcx), %rax
	movq	%rax, -56(%rbp)
	movq	16(%rcx), %rax
	movq	%rax, -64(%rbp)
	movq	(%rcx), %rax
	movq	8(%rcx), %rcx
	movq	%rcx, -72(%rbp)
	movq	%rax, -80(%rbp)
Ltmp458:
	leaq	-120(%rbp), %rdi
	leaq	-80(%rbp), %rsi
	callq	__ZN63_$LT$I$u20$as$u20$core..iter..traits..collect..IntoIterator$GT$9into_iter17hd2ce499f1d4c035dE
Ltmp459:
	jmp	LBB41_4
Ltmp474:
LBB41_4:
	.loc	14 0 9 is_stmt 0
	leaq	-128(%rbp), %rax
	.loc	14 288 23 is_stmt 1
	movq	%rax, -40(%rbp)
	.loc	14 286 9
	movq	-40(%rbp), %rsi
Ltmp460:
	leaq	-120(%rbp), %rdi
	callq	__ZN4core4iter6traits8iterator8Iterator8for_each17hdf70da6b0985536bE
Ltmp461:
	jmp	LBB41_5
Ltmp475:
LBB41_5:
	.loc	14 289 6
	addq	$144, %rsp
	popq	%rbp
	retq
Ltmp476:
LBB41_6:
	.loc	14 284 5
	movq	-16(%rbp), %rdi
	callq	__Unwind_Resume
Ltmp477:
LBB41_7:
Ltmp463:
	.loc	14 0 5 is_stmt 0
	movq	-144(%rbp), %rdi
	.loc	14 289 5 is_stmt 1
	callq	__ZN4core3ptr82drop_in_place$LT$core..iter..sources..once..Once$LT$proc_macro2..TokenTree$GT$$GT$17h16a48431dbb4e5eaE
Ltmp464:
	jmp	LBB41_6
Ltmp478:
LBB41_8:
Ltmp465:
	.loc	14 284 5
	callq	__ZN4core9panicking19panic_cannot_unwind17h1fbca7e1d7f56ae1E
Ltmp479:
Lfunc_end41:
	.cfi_endproc
	.section	__TEXT,__gcc_except_tab
	.p2align	2
GCC_except_table41:
Lexception14:
	.byte	255
	.byte	255
	.byte	1
	.uleb128 Lcst_end14-Lcst_begin14
Lcst_begin14:
	.uleb128 Ltmp456-Lfunc_begin41
	.uleb128 Ltmp461-Ltmp456
	.uleb128 Ltmp462-Lfunc_begin41
	.byte	0
	.uleb128 Ltmp461-Lfunc_begin41
	.uleb128 Ltmp463-Ltmp461
	.byte	0
	.byte	0
	.uleb128 Ltmp463-Lfunc_begin41
	.uleb128 Ltmp464-Ltmp463
	.uleb128 Ltmp465-Lfunc_begin41
	.byte	0
Lcst_end14:
	.p2align	2

	.section	__TEXT,__text,regular,pure_instructions
	.globl	__ZN120_$LT$proc_macro2..fallback..TokenStream$u20$as$u20$core..iter..traits..collect..Extend$LT$proc_macro2..TokenTree$GT$$GT$6extend17h76df46bb71d2a284E
	.p2align	4, 0x90
__ZN120_$LT$proc_macro2..fallback..TokenStream$u20$as$u20$core..iter..traits..collect..Extend$LT$proc_macro2..TokenTree$GT$$GT$6extend17h76df46bb71d2a284E:
Lfunc_begin42:
	.loc	14 284 0
	.cfi_startproc
	.cfi_personality 155, _rust_eh_personality
	.cfi_lsda 16, Lexception15
	pushq	%rbp
	.cfi_def_cfa_offset 16
	.cfi_offset %rbp, -16
	movq	%rsp, %rbp
	.cfi_def_cfa_register %rbp
	subq	$112, %rsp
	movq	%rsi, -112(%rbp)
Ltmp487:
	movq	%rdi, -24(%rbp)
Ltmp488:
	.loc	14 285 13 prologue_end
	movb	$0, -25(%rbp)
	movb	$1, -25(%rbp)
Ltmp480:
	.loc	14 285 23 is_stmt 0
	callq	__ZN11proc_macro25rcvec14RcVec$LT$T$GT$8make_mut17h10872b5e21b31db7E
Ltmp489:
Ltmp481:
	.loc	14 0 23
	movq	%rax, -104(%rbp)
Ltmp490:
	.loc	14 285 23
	jmp	LBB42_3
Ltmp491:
LBB42_1:
	.loc	14 289 5 is_stmt 1
	testb	$1, -25(%rbp)
	jne	LBB42_7
	jmp	LBB42_6
Ltmp492:
LBB42_2:
Ltmp486:
	.loc	14 0 5 is_stmt 0
	movq	%rax, %rcx
	movl	%edx, %eax
	movq	%rcx, -16(%rbp)
	movl	%eax, -8(%rbp)
	jmp	LBB42_1
Ltmp493:
LBB42_3:
	movq	-112(%rbp), %rcx
	movq	-104(%rbp), %rax
	.loc	14 285 23 is_stmt 1
	movq	%rax, -96(%rbp)
Ltmp494:
	.loc	14 286 9
	movb	$0, -25(%rbp)
	movq	16(%rcx), %rax
	movq	%rax, -48(%rbp)
	movq	(%rcx), %rax
	movq	8(%rcx), %rcx
	movq	%rcx, -56(%rbp)
	movq	%rax, -64(%rbp)
Ltmp482:
	leaq	-88(%rbp), %rdi
	leaq	-64(%rbp), %rsi
	callq	__ZN63_$LT$I$u20$as$u20$core..iter..traits..collect..IntoIterator$GT$9into_iter17hf9a84bd523309809E
Ltmp483:
	jmp	LBB42_4
Ltmp495:
LBB42_4:
	.loc	14 0 9 is_stmt 0
	leaq	-96(%rbp), %rax
	.loc	14 288 23 is_stmt 1
	movq	%rax, -40(%rbp)
	.loc	14 286 9
	movq	-40(%rbp), %rsi
Ltmp484:
	leaq	-88(%rbp), %rdi
	callq	__ZN4core4iter6traits8iterator8Iterator8for_each17hc8e57b5f65904db4E
Ltmp485:
	jmp	LBB42_5
Ltmp496:
LBB42_5:
	.loc	14 289 6
	addq	$112, %rsp
	popq	%rbp
	retq
Ltmp497:
LBB42_6:
	.loc	14 284 5
	movq	-16(%rbp), %rdi
	callq	__Unwind_Resume
Ltmp498:
LBB42_7:
	.loc	14 289 5
	jmp	LBB42_6
Ltmp499:
Lfunc_end42:
	.cfi_endproc
	.section	__TEXT,__gcc_except_tab
	.p2align	2
GCC_except_table42:
Lexception15:
	.byte	255
	.byte	255
	.byte	1
	.uleb128 Lcst_end15-Lcst_begin15
Lcst_begin15:
	.uleb128 Ltmp480-Lfunc_begin42
	.uleb128 Ltmp485-Ltmp480
	.uleb128 Ltmp486-Lfunc_begin42
	.byte	0
	.uleb128 Ltmp485-Lfunc_begin42
	.uleb128 Lfunc_end42-Ltmp485
	.byte	0
	.byte	0
Lcst_end15:
	.p2align	2

	.section	__TEXT,__text,regular,pure_instructions
	.globl	__ZN120_$LT$proc_macro2..fallback..TokenStream$u20$as$u20$core..iter..traits..collect..Extend$LT$proc_macro2..TokenTree$GT$$GT$6extend17hb71b6d35dc745c7eE
	.p2align	4, 0x90
__ZN120_$LT$proc_macro2..fallback..TokenStream$u20$as$u20$core..iter..traits..collect..Extend$LT$proc_macro2..TokenTree$GT$$GT$6extend17hb71b6d35dc745c7eE:
Lfunc_begin43:
	.loc	14 284 0
	.cfi_startproc
	.cfi_personality 155, _rust_eh_personality
	.cfi_lsda 16, Lexception16
	pushq	%rbp
	.cfi_def_cfa_offset 16
	.cfi_offset %rbp, -16
	movq	%rsp, %rbp
	.cfi_def_cfa_register %rbp
	subq	$112, %rsp
	movq	%rsi, -112(%rbp)
Ltmp507:
	movq	%rdi, -24(%rbp)
Ltmp508:
	.loc	14 285 13 prologue_end
	movb	$0, -25(%rbp)
	movb	$1, -25(%rbp)
Ltmp500:
	.loc	14 285 23 is_stmt 0
	callq	__ZN11proc_macro25rcvec14RcVec$LT$T$GT$8make_mut17h10872b5e21b31db7E
Ltmp509:
Ltmp501:
	.loc	14 0 23
	movq	%rax, -104(%rbp)
Ltmp510:
	.loc	14 285 23
	jmp	LBB43_3
Ltmp511:
LBB43_1:
	.loc	14 289 5 is_stmt 1
	testb	$1, -25(%rbp)
	jne	LBB43_7
	jmp	LBB43_6
Ltmp512:
LBB43_2:
Ltmp506:
	.loc	14 0 5 is_stmt 0
	movq	%rax, %rcx
	movl	%edx, %eax
	movq	%rcx, -16(%rbp)
	movl	%eax, -8(%rbp)
	jmp	LBB43_1
Ltmp513:
LBB43_3:
	movq	-112(%rbp), %rcx
	movq	-104(%rbp), %rax
	.loc	14 285 23 is_stmt 1
	movq	%rax, -96(%rbp)
Ltmp514:
	.loc	14 286 9
	movb	$0, -25(%rbp)
	movq	16(%rcx), %rax
	movq	%rax, -48(%rbp)
	movq	(%rcx), %rax
	movq	8(%rcx), %rcx
	movq	%rcx, -56(%rbp)
	movq	%rax, -64(%rbp)
Ltmp502:
	leaq	-88(%rbp), %rdi
	leaq	-64(%rbp), %rsi
	callq	__ZN63_$LT$I$u20$as$u20$core..iter..traits..collect..IntoIterator$GT$9into_iter17h57ad02c47c2ff96dE
Ltmp503:
	jmp	LBB43_4
Ltmp515:
LBB43_4:
	.loc	14 0 9 is_stmt 0
	leaq	-96(%rbp), %rax
	.loc	14 288 23 is_stmt 1
	movq	%rax, -40(%rbp)
	.loc	14 286 9
	movq	-40(%rbp), %rsi
Ltmp504:
	leaq	-88(%rbp), %rdi
	callq	__ZN4core4iter6traits8iterator8Iterator8for_each17hcd5e5eb9615b2e34E
Ltmp505:
	jmp	LBB43_5
Ltmp516:
LBB43_5:
	.loc	14 289 6
	addq	$112, %rsp
	popq	%rbp
	retq
Ltmp517:
LBB43_6:
	.loc	14 284 5
	movq	-16(%rbp), %rdi
	callq	__Unwind_Resume
Ltmp518:
LBB43_7:
	.loc	14 289 5
	jmp	LBB43_6
Ltmp519:
Lfunc_end43:
	.cfi_endproc
	.section	__TEXT,__gcc_except_tab
	.p2align	2
GCC_except_table43:
Lexception16:
	.byte	255
	.byte	255
	.byte	1
	.uleb128 Lcst_end16-Lcst_begin16
Lcst_begin16:
	.uleb128 Ltmp500-Lfunc_begin43
	.uleb128 Ltmp505-Ltmp500
	.uleb128 Ltmp506-Lfunc_begin43
	.byte	0
	.uleb128 Ltmp505-Lfunc_begin43
	.uleb128 Lfunc_end43-Ltmp505
	.byte	0
	.byte	0
Lcst_end16:
	.p2align	2

	.section	__TEXT,__text,regular,pure_instructions
	.globl	__ZN120_$LT$proc_macro2..fallback..TokenStream$u20$as$u20$core..iter..traits..collect..Extend$LT$proc_macro2..TokenTree$GT$$GT$6extend17hbd62a27f22fe12d3E
	.p2align	4, 0x90
__ZN120_$LT$proc_macro2..fallback..TokenStream$u20$as$u20$core..iter..traits..collect..Extend$LT$proc_macro2..TokenTree$GT$$GT$6extend17hbd62a27f22fe12d3E:
Lfunc_begin44:
	.loc	14 284 0
	.cfi_startproc
	.cfi_personality 155, _rust_eh_personality
	.cfi_lsda 16, Lexception17
	pushq	%rbp
	.cfi_def_cfa_offset 16
	.cfi_offset %rbp, -16
	movq	%rsp, %rbp
	.cfi_def_cfa_register %rbp
	subq	$160, %rsp
	movq	%rsi, -160(%rbp)
Ltmp530:
	movq	%rdi, -24(%rbp)
Ltmp531:
	.loc	14 285 13 prologue_end
	movb	$0, -25(%rbp)
	movb	$1, -25(%rbp)
Ltmp520:
	.loc	14 285 23 is_stmt 0
	callq	__ZN11proc_macro25rcvec14RcVec$LT$T$GT$8make_mut17h10872b5e21b31db7E
Ltmp532:
Ltmp521:
	.loc	14 0 23
	movq	%rax, -152(%rbp)
Ltmp533:
	.loc	14 285 23
	jmp	LBB44_3
Ltmp534:
LBB44_1:
	.loc	14 289 5 is_stmt 1
	testb	$1, -25(%rbp)
	jne	LBB44_7
	jmp	LBB44_6
Ltmp535:
LBB44_2:
Ltmp526:
	.loc	14 0 5 is_stmt 0
	movq	%rax, %rcx
	movl	%edx, %eax
	movq	%rcx, -16(%rbp)
	movl	%eax, -8(%rbp)
	jmp	LBB44_1
Ltmp536:
LBB44_3:
	movq	-160(%rbp), %rcx
	movq	-152(%rbp), %rax
	.loc	14 285 23 is_stmt 1
	movq	%rax, -144(%rbp)
Ltmp537:
	.loc	14 286 9
	movb	$0, -25(%rbp)
	movq	40(%rcx), %rax
	movq	%rax, -48(%rbp)
	movq	32(%rcx), %rax
	movq	%rax, -56(%rbp)
	movq	24(%rcx), %rax
	movq	%rax, -64(%rbp)
	movq	16(%rcx), %rax
	movq	%rax, -72(%rbp)
	movq	(%rcx), %rax
	movq	8(%rcx), %rcx
	movq	%rcx, -80(%rbp)
	movq	%rax, -88(%rbp)
Ltmp522:
	leaq	-136(%rbp), %rdi
	leaq	-88(%rbp), %rsi
	callq	__ZN63_$LT$I$u20$as$u20$core..iter..traits..collect..IntoIterator$GT$9into_iter17h3aa032388789cdf0E
Ltmp523:
	jmp	LBB44_4
Ltmp538:
LBB44_4:
	.loc	14 0 9 is_stmt 0
	leaq	-144(%rbp), %rax
	.loc	14 288 23 is_stmt 1
	movq	%rax, -40(%rbp)
	.loc	14 286 9
	movq	-40(%rbp), %rsi
Ltmp524:
	leaq	-136(%rbp), %rdi
	callq	__ZN4core4iter6traits8iterator8Iterator8for_each17h8e1aa969973589abE
Ltmp525:
	jmp	LBB44_5
Ltmp539:
LBB44_5:
	.loc	14 289 6
	addq	$160, %rsp
	popq	%rbp
	retq
Ltmp540:
LBB44_6:
	.loc	14 284 5
	movq	-16(%rbp), %rdi
	callq	__Unwind_Resume
Ltmp541:
LBB44_7:
Ltmp527:
	.loc	14 0 5 is_stmt 0
	movq	-160(%rbp), %rdi
	.loc	14 289 5 is_stmt 1
	callq	__ZN4core3ptr157drop_in_place$LT$core..iter..adapters..map..Map$LT$proc_macro2..token_stream..IntoIter$C$quote..__private..parse_spanned..$u7b$$u7b$closure$u7d$$u7d$$GT$$GT$17h31675f20fe9bb12dE
Ltmp528:
	jmp	LBB44_6
Ltmp542:
LBB44_8:
Ltmp529:
	.loc	14 284 5
	callq	__ZN4core9panicking19panic_cannot_unwind17h1fbca7e1d7f56ae1E
Ltmp543:
Lfunc_end44:
	.cfi_endproc
	.section	__TEXT,__gcc_except_tab
	.p2align	2
GCC_except_table44:
Lexception17:
	.byte	255
	.byte	255
	.byte	1
	.uleb128 Lcst_end17-Lcst_begin17
Lcst_begin17:
	.uleb128 Ltmp520-Lfunc_begin44
	.uleb128 Ltmp525-Ltmp520
	.uleb128 Ltmp526-Lfunc_begin44
	.byte	0
	.uleb128 Ltmp525-Lfunc_begin44
	.uleb128 Ltmp527-Ltmp525
	.byte	0
	.byte	0
	.uleb128 Ltmp527-Lfunc_begin44
	.uleb128 Ltmp528-Ltmp527
	.uleb128 Ltmp529-Lfunc_begin44
	.byte	0
Lcst_end17:
	.p2align	2

	.section	__TEXT,__text,regular,pure_instructions
	.globl	__ZN120_$LT$proc_macro2..fallback..TokenStream$u20$as$u20$core..iter..traits..collect..Extend$LT$proc_macro2..TokenTree$GT$$GT$6extend17hf609f7a1871abe67E
	.p2align	4, 0x90
__ZN120_$LT$proc_macro2..fallback..TokenStream$u20$as$u20$core..iter..traits..collect..Extend$LT$proc_macro2..TokenTree$GT$$GT$6extend17hf609f7a1871abe67E:
Lfunc_begin45:
	.loc	14 284 0
	.cfi_startproc
	.cfi_personality 155, _rust_eh_personality
	.cfi_lsda 16, Lexception18
	pushq	%rbp
	.cfi_def_cfa_offset 16
	.cfi_offset %rbp, -16
	movq	%rsp, %rbp
	.cfi_def_cfa_register %rbp
	subq	$160, %rsp
	movq	%rsi, -160(%rbp)
Ltmp554:
	movq	%rdi, -24(%rbp)
Ltmp555:
	.loc	14 285 13 prologue_end
	movb	$0, -25(%rbp)
	movb	$1, -25(%rbp)
Ltmp544:
	.loc	14 285 23 is_stmt 0
	callq	__ZN11proc_macro25rcvec14RcVec$LT$T$GT$8make_mut17h10872b5e21b31db7E
Ltmp556:
Ltmp545:
	.loc	14 0 23
	movq	%rax, -152(%rbp)
Ltmp557:
	.loc	14 285 23
	jmp	LBB45_3
Ltmp558:
LBB45_1:
	.loc	14 289 5 is_stmt 1
	testb	$1, -25(%rbp)
	jne	LBB45_7
	jmp	LBB45_6
Ltmp559:
LBB45_2:
Ltmp550:
	.loc	14 0 5 is_stmt 0
	movq	%rax, %rcx
	movl	%edx, %eax
	movq	%rcx, -16(%rbp)
	movl	%eax, -8(%rbp)
	jmp	LBB45_1
Ltmp560:
LBB45_3:
	movq	-160(%rbp), %rcx
	movq	-152(%rbp), %rax
	.loc	14 285 23 is_stmt 1
	movq	%rax, -144(%rbp)
Ltmp561:
	.loc	14 286 9
	movb	$0, -25(%rbp)
	movq	40(%rcx), %rax
	movq	%rax, -48(%rbp)
	movq	32(%rcx), %rax
	movq	%rax, -56(%rbp)
	movq	24(%rcx), %rax
	movq	%rax, -64(%rbp)
	movq	16(%rcx), %rax
	movq	%rax, -72(%rbp)
	movq	(%rcx), %rax
	movq	8(%rcx), %rcx
	movq	%rcx, -80(%rbp)
	movq	%rax, -88(%rbp)
Ltmp546:
	leaq	-136(%rbp), %rdi
	leaq	-88(%rbp), %rsi
	callq	__ZN63_$LT$I$u20$as$u20$core..iter..traits..collect..IntoIterator$GT$9into_iter17hb1f7523394b8b84aE
Ltmp547:
	jmp	LBB45_4
Ltmp562:
LBB45_4:
	.loc	14 0 9 is_stmt 0
	leaq	-144(%rbp), %rax
	.loc	14 288 23 is_stmt 1
	movq	%rax, -40(%rbp)
	.loc	14 286 9
	movq	-40(%rbp), %rsi
Ltmp548:
	leaq	-136(%rbp), %rdi
	callq	__ZN4core4iter6traits8iterator8Iterator8for_each17h750f2ae19fe98a53E
Ltmp549:
	jmp	LBB45_5
Ltmp563:
LBB45_5:
	.loc	14 289 6
	addq	$160, %rsp
	popq	%rbp
	retq
Ltmp564:
LBB45_6:
	.loc	14 284 5
	movq	-16(%rbp), %rdi
	callq	__Unwind_Resume
Ltmp565:
LBB45_7:
Ltmp551:
	.loc	14 0 5 is_stmt 0
	movq	-160(%rbp), %rdi
	.loc	14 289 5 is_stmt 1
	callq	__ZN4core3ptr161drop_in_place$LT$core..iter..adapters..map..Map$LT$proc_macro2..token_stream..IntoIter$C$quote..__private..respan_token_tree..$u7b$$u7b$closure$u7d$$u7d$$GT$$GT$17h3ab324330759af7aE
Ltmp552:
	jmp	LBB45_6
Ltmp566:
LBB45_8:
Ltmp553:
	.loc	14 284 5
	callq	__ZN4core9panicking19panic_cannot_unwind17h1fbca7e1d7f56ae1E
Ltmp567:
Lfunc_end45:
	.cfi_endproc
	.section	__TEXT,__gcc_except_tab
	.p2align	2
GCC_except_table45:
Lexception18:
	.byte	255
	.byte	255
	.byte	1
	.uleb128 Lcst_end18-Lcst_begin18
Lcst_begin18:
	.uleb128 Ltmp544-Lfunc_begin45
	.uleb128 Ltmp549-Ltmp544
	.uleb128 Ltmp550-Lfunc_begin45
	.byte	0
	.uleb128 Ltmp549-Lfunc_begin45
	.uleb128 Ltmp551-Ltmp549
	.byte	0
	.byte	0
	.uleb128 Ltmp551-Lfunc_begin45
	.uleb128 Ltmp552-Ltmp551
	.uleb128 Ltmp553-Lfunc_begin45
	.byte	0
Lcst_end18:
	.p2align	2

	.section	__TEXT,__text,regular,pure_instructions
	.globl	__ZN120_$LT$proc_macro2..fallback..TokenStream$u20$as$u20$core..iter..traits..collect..Extend$LT$proc_macro2..TokenTree$GT$$GT$6extend28_$u7b$$u7b$closure$u7d$$u7d$17h204b2d25fd77a4d5E
	.p2align	4, 0x90
__ZN120_$LT$proc_macro2..fallback..TokenStream$u20$as$u20$core..iter..traits..collect..Extend$LT$proc_macro2..TokenTree$GT$$GT$6extend28_$u7b$$u7b$closure$u7d$$u7d$17h204b2d25fd77a4d5E:
Lfunc_begin46:
	.loc	14 288 0
	.cfi_startproc
	.cfi_personality 155, _rust_eh_personality
	.cfi_lsda 16, Lexception19
	pushq	%rbp
	.cfi_def_cfa_offset 16
	.cfi_offset %rbp, -16
	movq	%rsp, %rbp
	.cfi_def_cfa_register %rbp
	subq	$96, %rsp
	movq	%rsi, -88(%rbp)
Ltmp576:
	movq	%rdi, -24(%rbp)
Ltmp577:
	.loc	14 288 58 prologue_end
	movb	$0, -25(%rbp)
	movb	$1, -25(%rbp)
	movq	(%rdi), %rdi
Ltmp568:
	callq	__ZN11proc_macro25rcvec17RcVecMut$LT$T$GT$6as_mut17h7b454e3508dc7015E
Ltmp578:
Ltmp569:
	.loc	14 0 58 is_stmt 0
	movq	%rax, -80(%rbp)
Ltmp579:
	.loc	14 288 58
	jmp	LBB46_3
Ltmp580:
LBB46_1:
	.loc	14 288 77
	testb	$1, -25(%rbp)
	jne	LBB46_6
	jmp	LBB46_5
Ltmp581:
LBB46_2:
Ltmp572:
	.loc	14 0 77
	movq	%rax, %rcx
	movl	%edx, %eax
	movq	%rcx, -16(%rbp)
	movl	%eax, -8(%rbp)
	jmp	LBB46_1
Ltmp582:
LBB46_3:
	movq	-80(%rbp), %rdi
	movq	-88(%rbp), %rcx
	.loc	14 288 72
	movb	$0, -25(%rbp)
	movq	32(%rcx), %rax
	movq	%rax, -40(%rbp)
	movq	24(%rcx), %rax
	movq	%rax, -48(%rbp)
	movq	16(%rcx), %rax
	movq	%rax, -56(%rbp)
	movq	(%rcx), %rax
	movq	8(%rcx), %rcx
	movq	%rcx, -64(%rbp)
	movq	%rax, -72(%rbp)
Ltmp570:
	leaq	-72(%rbp), %rsi
	.loc	14 288 31
	callq	__ZN11proc_macro28fallback26push_token_from_proc_macro17h445af948f19ebfe2E
Ltmp571:
	jmp	LBB46_4
Ltmp583:
LBB46_4:
	.loc	14 288 78
	addq	$96, %rsp
	popq	%rbp
	retq
Ltmp584:
LBB46_5:
	.loc	14 288 23
	movq	-16(%rbp), %rdi
	callq	__Unwind_Resume
Ltmp585:
LBB46_6:
Ltmp573:
	.loc	14 0 23
	movq	-88(%rbp), %rdi
	.loc	14 288 77
	callq	__ZN4core3ptr43drop_in_place$LT$proc_macro2..TokenTree$GT$17h4cc64953ccd281d1E
Ltmp574:
	jmp	LBB46_5
Ltmp586:
LBB46_7:
Ltmp575:
	.loc	14 288 23
	callq	__ZN4core9panicking19panic_cannot_unwind17h1fbca7e1d7f56ae1E
Ltmp587:
Lfunc_end46:
	.cfi_endproc
	.section	__TEXT,__gcc_except_tab
	.p2align	2
GCC_except_table46:
Lexception19:
	.byte	255
	.byte	255
	.byte	1
	.uleb128 Lcst_end19-Lcst_begin19
Lcst_begin19:
	.uleb128 Ltmp568-Lfunc_begin46
	.uleb128 Ltmp571-Ltmp568
	.uleb128 Ltmp572-Lfunc_begin46
	.byte	0
	.uleb128 Ltmp571-Lfunc_begin46
	.uleb128 Ltmp573-Ltmp571
	.byte	0
	.byte	0
	.uleb128 Ltmp573-Lfunc_begin46
	.uleb128 Ltmp574-Ltmp573
	.uleb128 Ltmp575-Lfunc_begin46
	.byte	0
Lcst_end19:
	.p2align	2

	.section	__TEXT,__text,regular,pure_instructions
	.globl	__ZN120_$LT$proc_macro2..fallback..TokenStream$u20$as$u20$core..iter..traits..collect..Extend$LT$proc_macro2..TokenTree$GT$$GT$6extend28_$u7b$$u7b$closure$u7d$$u7d$17h43d0ada84ba6c846E
	.p2align	4, 0x90
__ZN120_$LT$proc_macro2..fallback..TokenStream$u20$as$u20$core..iter..traits..collect..Extend$LT$proc_macro2..TokenTree$GT$$GT$6extend28_$u7b$$u7b$closure$u7d$$u7d$17h43d0ada84ba6c846E:
Lfunc_begin47:
	.loc	14 288 0 is_stmt 1
	.cfi_startproc
	.cfi_personality 155, _rust_eh_personality
	.cfi_lsda 16, Lexception20
	pushq	%rbp
	.cfi_def_cfa_offset 16
	.cfi_offset %rbp, -16
	movq	%rsp, %rbp
	.cfi_def_cfa_register %rbp
	subq	$96, %rsp
	movq	%rsi, -88(%rbp)
Ltmp596:
	movq	%rdi, -24(%rbp)
Ltmp597:
	.loc	14 288 58 prologue_end
	movb	$0, -25(%rbp)
	movb	$1, -25(%rbp)
	movq	(%rdi), %rdi
Ltmp588:
	callq	__ZN11proc_macro25rcvec17RcVecMut$LT$T$GT$6as_mut17h7b454e3508dc7015E
Ltmp598:
Ltmp589:
	.loc	14 0 58 is_stmt 0
	movq	%rax, -80(%rbp)
Ltmp599:
	.loc	14 288 58
	jmp	LBB47_3
Ltmp600:
LBB47_1:
	.loc	14 288 77
	testb	$1, -25(%rbp)
	jne	LBB47_6
	jmp	LBB47_5
Ltmp601:
LBB47_2:
Ltmp592:
	.loc	14 0 77
	movq	%rax, %rcx
	movl	%edx, %eax
	movq	%rcx, -16(%rbp)
	movl	%eax, -8(%rbp)
	jmp	LBB47_1
Ltmp602:
LBB47_3:
	movq	-80(%rbp), %rdi
	movq	-88(%rbp), %rcx
	.loc	14 288 72
	movb	$0, -25(%rbp)
	movq	32(%rcx), %rax
	movq	%rax, -40(%rbp)
	movq	24(%rcx), %rax
	movq	%rax, -48(%rbp)
	movq	16(%rcx), %rax
	movq	%rax, -56(%rbp)
	movq	(%rcx), %rax
	movq	8(%rcx), %rcx
	movq	%rcx, -64(%rbp)
	movq	%rax, -72(%rbp)
Ltmp590:
	leaq	-72(%rbp), %rsi
	.loc	14 288 31
	callq	__ZN11proc_macro28fallback26push_token_from_proc_macro17h445af948f19ebfe2E
Ltmp591:
	jmp	LBB47_4
Ltmp603:
LBB47_4:
	.loc	14 288 78
	addq	$96, %rsp
	popq	%rbp
	retq
Ltmp604:
LBB47_5:
	.loc	14 288 23
	movq	-16(%rbp), %rdi
	callq	__Unwind_Resume
Ltmp605:
LBB47_6:
Ltmp593:
	.loc	14 0 23
	movq	-88(%rbp), %rdi
	.loc	14 288 77
	callq	__ZN4core3ptr43drop_in_place$LT$proc_macro2..TokenTree$GT$17h4cc64953ccd281d1E
Ltmp594:
	jmp	LBB47_5
Ltmp606:
LBB47_7:
Ltmp595:
	.loc	14 288 23
	callq	__ZN4core9panicking19panic_cannot_unwind17h1fbca7e1d7f56ae1E
Ltmp607:
Lfunc_end47:
	.cfi_endproc
	.section	__TEXT,__gcc_except_tab
	.p2align	2
GCC_except_table47:
Lexception20:
	.byte	255
	.byte	255
	.byte	1
	.uleb128 Lcst_end20-Lcst_begin20
Lcst_begin20:
	.uleb128 Ltmp588-Lfunc_begin47
	.uleb128 Ltmp591-Ltmp588
	.uleb128 Ltmp592-Lfunc_begin47
	.byte	0
	.uleb128 Ltmp591-Lfunc_begin47
	.uleb128 Ltmp593-Ltmp591
	.byte	0
	.byte	0
	.uleb128 Ltmp593-Lfunc_begin47
	.uleb128 Ltmp594-Ltmp593
	.uleb128 Ltmp595-Lfunc_begin47
	.byte	0
Lcst_end20:
	.p2align	2

	.section	__TEXT,__text,regular,pure_instructions
	.globl	__ZN120_$LT$proc_macro2..fallback..TokenStream$u20$as$u20$core..iter..traits..collect..Extend$LT$proc_macro2..TokenTree$GT$$GT$6extend28_$u7b$$u7b$closure$u7d$$u7d$17h5a1320d623a7f63aE
	.p2align	4, 0x90
__ZN120_$LT$proc_macro2..fallback..TokenStream$u20$as$u20$core..iter..traits..collect..Extend$LT$proc_macro2..TokenTree$GT$$GT$6extend28_$u7b$$u7b$closure$u7d$$u7d$17h5a1320d623a7f63aE:
Lfunc_begin48:
	.loc	14 288 0 is_stmt 1
	.cfi_startproc
	.cfi_personality 155, _rust_eh_personality
	.cfi_lsda 16, Lexception21
	pushq	%rbp
	.cfi_def_cfa_offset 16
	.cfi_offset %rbp, -16
	movq	%rsp, %rbp
	.cfi_def_cfa_register %rbp
	subq	$96, %rsp
	movq	%rsi, -88(%rbp)
Ltmp616:
	movq	%rdi, -24(%rbp)
Ltmp617:
	.loc	14 288 58 prologue_end
	movb	$0, -25(%rbp)
	movb	$1, -25(%rbp)
	movq	(%rdi), %rdi
Ltmp608:
	callq	__ZN11proc_macro25rcvec17RcVecMut$LT$T$GT$6as_mut17h7b454e3508dc7015E
Ltmp618:
Ltmp609:
	.loc	14 0 58 is_stmt 0
	movq	%rax, -80(%rbp)
Ltmp619:
	.loc	14 288 58
	jmp	LBB48_3
Ltmp620:
LBB48_1:
	.loc	14 288 77
	testb	$1, -25(%rbp)
	jne	LBB48_6
	jmp	LBB48_5
Ltmp621:
LBB48_2:
Ltmp612:
	.loc	14 0 77
	movq	%rax, %rcx
	movl	%edx, %eax
	movq	%rcx, -16(%rbp)
	movl	%eax, -8(%rbp)
	jmp	LBB48_1
Ltmp622:
LBB48_3:
	movq	-80(%rbp), %rdi
	movq	-88(%rbp), %rcx
	.loc	14 288 72
	movb	$0, -25(%rbp)
	movq	32(%rcx), %rax
	movq	%rax, -40(%rbp)
	movq	24(%rcx), %rax
	movq	%rax, -48(%rbp)
	movq	16(%rcx), %rax
	movq	%rax, -56(%rbp)
	movq	(%rcx), %rax
	movq	8(%rcx), %rcx
	movq	%rcx, -64(%rbp)
	movq	%rax, -72(%rbp)
Ltmp610:
	leaq	-72(%rbp), %rsi
	.loc	14 288 31
	callq	__ZN11proc_macro28fallback26push_token_from_proc_macro17h445af948f19ebfe2E
Ltmp611:
	jmp	LBB48_4
Ltmp623:
LBB48_4:
	.loc	14 288 78
	addq	$96, %rsp
	popq	%rbp
	retq
Ltmp624:
LBB48_5:
	.loc	14 288 23
	movq	-16(%rbp), %rdi
	callq	__Unwind_Resume
Ltmp625:
LBB48_6:
Ltmp613:
	.loc	14 0 23
	movq	-88(%rbp), %rdi
	.loc	14 288 77
	callq	__ZN4core3ptr43drop_in_place$LT$proc_macro2..TokenTree$GT$17h4cc64953ccd281d1E
Ltmp614:
	jmp	LBB48_5
Ltmp626:
LBB48_7:
Ltmp615:
	.loc	14 288 23
	callq	__ZN4core9panicking19panic_cannot_unwind17h1fbca7e1d7f56ae1E
Ltmp627:
Lfunc_end48:
	.cfi_endproc
	.section	__TEXT,__gcc_except_tab
	.p2align	2
GCC_except_table48:
Lexception21:
	.byte	255
	.byte	255
	.byte	1
	.uleb128 Lcst_end21-Lcst_begin21
Lcst_begin21:
	.uleb128 Ltmp608-Lfunc_begin48
	.uleb128 Ltmp611-Ltmp608
	.uleb128 Ltmp612-Lfunc_begin48
	.byte	0
	.uleb128 Ltmp611-Lfunc_begin48
	.uleb128 Ltmp613-Ltmp611
	.byte	0
	.byte	0
	.uleb128 Ltmp613-Lfunc_begin48
	.uleb128 Ltmp614-Ltmp613
	.uleb128 Ltmp615-Lfunc_begin48
	.byte	0
Lcst_end21:
	.p2align	2

	.section	__TEXT,__text,regular,pure_instructions
	.globl	__ZN120_$LT$proc_macro2..fallback..TokenStream$u20$as$u20$core..iter..traits..collect..Extend$LT$proc_macro2..TokenTree$GT$$GT$6extend28_$u7b$$u7b$closure$u7d$$u7d$17h81ec92dd9141b15eE
	.p2align	4, 0x90
__ZN120_$LT$proc_macro2..fallback..TokenStream$u20$as$u20$core..iter..traits..collect..Extend$LT$proc_macro2..TokenTree$GT$$GT$6extend28_$u7b$$u7b$closure$u7d$$u7d$17h81ec92dd9141b15eE:
Lfunc_begin49:
	.loc	14 288 0 is_stmt 1
	.cfi_startproc
	.cfi_personality 155, _rust_eh_personality
	.cfi_lsda 16, Lexception22
	pushq	%rbp
	.cfi_def_cfa_offset 16
	.cfi_offset %rbp, -16
	movq	%rsp, %rbp
	.cfi_def_cfa_register %rbp
	subq	$96, %rsp
	movq	%rsi, -88(%rbp)
Ltmp636:
	movq	%rdi, -24(%rbp)
Ltmp637:
	.loc	14 288 58 prologue_end
	movb	$0, -25(%rbp)
	movb	$1, -25(%rbp)
	movq	(%rdi), %rdi
Ltmp628:
	callq	__ZN11proc_macro25rcvec17RcVecMut$LT$T$GT$6as_mut17h7b454e3508dc7015E
Ltmp638:
Ltmp629:
	.loc	14 0 58 is_stmt 0
	movq	%rax, -80(%rbp)
Ltmp639:
	.loc	14 288 58
	jmp	LBB49_3
Ltmp640:
LBB49_1:
	.loc	14 288 77
	testb	$1, -25(%rbp)
	jne	LBB49_6
	jmp	LBB49_5
Ltmp641:
LBB49_2:
Ltmp632:
	.loc	14 0 77
	movq	%rax, %rcx
	movl	%edx, %eax
	movq	%rcx, -16(%rbp)
	movl	%eax, -8(%rbp)
	jmp	LBB49_1
Ltmp642:
LBB49_3:
	movq	-80(%rbp), %rdi
	movq	-88(%rbp), %rcx
	.loc	14 288 72
	movb	$0, -25(%rbp)
	movq	32(%rcx), %rax
	movq	%rax, -40(%rbp)
	movq	24(%rcx), %rax
	movq	%rax, -48(%rbp)
	movq	16(%rcx), %rax
	movq	%rax, -56(%rbp)
	movq	(%rcx), %rax
	movq	8(%rcx), %rcx
	movq	%rcx, -64(%rbp)
	movq	%rax, -72(%rbp)
Ltmp630:
	leaq	-72(%rbp), %rsi
	.loc	14 288 31
	callq	__ZN11proc_macro28fallback26push_token_from_proc_macro17h445af948f19ebfe2E
Ltmp631:
	jmp	LBB49_4
Ltmp643:
LBB49_4:
	.loc	14 288 78
	addq	$96, %rsp
	popq	%rbp
	retq
Ltmp644:
LBB49_5:
	.loc	14 288 23
	movq	-16(%rbp), %rdi
	callq	__Unwind_Resume
Ltmp645:
LBB49_6:
Ltmp633:
	.loc	14 0 23
	movq	-88(%rbp), %rdi
	.loc	14 288 77
	callq	__ZN4core3ptr43drop_in_place$LT$proc_macro2..TokenTree$GT$17h4cc64953ccd281d1E
Ltmp634:
	jmp	LBB49_5
Ltmp646:
LBB49_7:
Ltmp635:
	.loc	14 288 23
	callq	__ZN4core9panicking19panic_cannot_unwind17h1fbca7e1d7f56ae1E
Ltmp647:
Lfunc_end49:
	.cfi_endproc
	.section	__TEXT,__gcc_except_tab
	.p2align	2
GCC_except_table49:
Lexception22:
	.byte	255
	.byte	255
	.byte	1
	.uleb128 Lcst_end22-Lcst_begin22
Lcst_begin22:
	.uleb128 Ltmp628-Lfunc_begin49
	.uleb128 Ltmp631-Ltmp628
	.uleb128 Ltmp632-Lfunc_begin49
	.byte	0
	.uleb128 Ltmp631-Lfunc_begin49
	.uleb128 Ltmp633-Ltmp631
	.byte	0
	.byte	0
	.uleb128 Ltmp633-Lfunc_begin49
	.uleb128 Ltmp634-Ltmp633
	.uleb128 Ltmp635-Lfunc_begin49
	.byte	0
Lcst_end22:
	.p2align	2

	.section	__TEXT,__text,regular,pure_instructions
	.globl	__ZN120_$LT$proc_macro2..fallback..TokenStream$u20$as$u20$core..iter..traits..collect..Extend$LT$proc_macro2..TokenTree$GT$$GT$6extend28_$u7b$$u7b$closure$u7d$$u7d$17h913e53b8b42c7539E
	.p2align	4, 0x90
__ZN120_$LT$proc_macro2..fallback..TokenStream$u20$as$u20$core..iter..traits..collect..Extend$LT$proc_macro2..TokenTree$GT$$GT$6extend28_$u7b$$u7b$closure$u7d$$u7d$17h913e53b8b42c7539E:
Lfunc_begin50:
	.loc	14 288 0 is_stmt 1
	.cfi_startproc
	.cfi_personality 155, _rust_eh_personality
	.cfi_lsda 16, Lexception23
	pushq	%rbp
	.cfi_def_cfa_offset 16
	.cfi_offset %rbp, -16
	movq	%rsp, %rbp
	.cfi_def_cfa_register %rbp
	subq	$96, %rsp
	movq	%rsi, -88(%rbp)
Ltmp656:
	movq	%rdi, -24(%rbp)
Ltmp657:
	.loc	14 288 58 prologue_end
	movb	$0, -25(%rbp)
	movb	$1, -25(%rbp)
	movq	(%rdi), %rdi
Ltmp648:
	callq	__ZN11proc_macro25rcvec17RcVecMut$LT$T$GT$6as_mut17h7b454e3508dc7015E
Ltmp658:
Ltmp649:
	.loc	14 0 58 is_stmt 0
	movq	%rax, -80(%rbp)
Ltmp659:
	.loc	14 288 58
	jmp	LBB50_3
Ltmp660:
LBB50_1:
	.loc	14 288 77
	testb	$1, -25(%rbp)
	jne	LBB50_6
	jmp	LBB50_5
Ltmp661:
LBB50_2:
Ltmp652:
	.loc	14 0 77
	movq	%rax, %rcx
	movl	%edx, %eax
	movq	%rcx, -16(%rbp)
	movl	%eax, -8(%rbp)
	jmp	LBB50_1
Ltmp662:
LBB50_3:
	movq	-80(%rbp), %rdi
	movq	-88(%rbp), %rcx
	.loc	14 288 72
	movb	$0, -25(%rbp)
	movq	32(%rcx), %rax
	movq	%rax, -40(%rbp)
	movq	24(%rcx), %rax
	movq	%rax, -48(%rbp)
	movq	16(%rcx), %rax
	movq	%rax, -56(%rbp)
	movq	(%rcx), %rax
	movq	8(%rcx), %rcx
	movq	%rcx, -64(%rbp)
	movq	%rax, -72(%rbp)
Ltmp650:
	leaq	-72(%rbp), %rsi
	.loc	14 288 31
	callq	__ZN11proc_macro28fallback26push_token_from_proc_macro17h445af948f19ebfe2E
Ltmp651:
	jmp	LBB50_4
Ltmp663:
LBB50_4:
	.loc	14 288 78
	addq	$96, %rsp
	popq	%rbp
	retq
Ltmp664:
LBB50_5:
	.loc	14 288 23
	movq	-16(%rbp), %rdi
	callq	__Unwind_Resume
Ltmp665:
LBB50_6:
Ltmp653:
	.loc	14 0 23
	movq	-88(%rbp), %rdi
	.loc	14 288 77
	callq	__ZN4core3ptr43drop_in_place$LT$proc_macro2..TokenTree$GT$17h4cc64953ccd281d1E
Ltmp654:
	jmp	LBB50_5
Ltmp666:
LBB50_7:
Ltmp655:
	.loc	14 288 23
	callq	__ZN4core9panicking19panic_cannot_unwind17h1fbca7e1d7f56ae1E
Ltmp667:
Lfunc_end50:
	.cfi_endproc
	.section	__TEXT,__gcc_except_tab
	.p2align	2
GCC_except_table50:
Lexception23:
	.byte	255
	.byte	255
	.byte	1
	.uleb128 Lcst_end23-Lcst_begin23
Lcst_begin23:
	.uleb128 Ltmp648-Lfunc_begin50
	.uleb128 Ltmp651-Ltmp648
	.uleb128 Ltmp652-Lfunc_begin50
	.byte	0
	.uleb128 Ltmp651-Lfunc_begin50
	.uleb128 Ltmp653-Ltmp651
	.byte	0
	.byte	0
	.uleb128 Ltmp653-Lfunc_begin50
	.uleb128 Ltmp654-Ltmp653
	.uleb128 Ltmp655-Lfunc_begin50
	.byte	0
Lcst_end23:
	.p2align	2

	.section	__TEXT,__text,regular,pure_instructions
	.globl	__ZN121_$LT$proc_macro2..imp..TokenStream$u20$as$u20$core..iter..traits..collect..FromIterator$LT$proc_macro2..TokenTree$GT$$GT$9from_iter17h56217f4282a78e49E
	.p2align	4, 0x90
__ZN121_$LT$proc_macro2..imp..TokenStream$u20$as$u20$core..iter..traits..collect..FromIterator$LT$proc_macro2..TokenTree$GT$$GT$9from_iter17h56217f4282a78e49E:
Lfunc_begin51:
	.loc	10 181 0 is_stmt 1
	.cfi_startproc
	.cfi_personality 155, _rust_eh_personality
	.cfi_lsda 16, Lexception24
	pushq	%rbp
	.cfi_def_cfa_offset 16
	.cfi_offset %rbp, -16
	movq	%rsp, %rbp
	.cfi_def_cfa_register %rbp
	subq	$352, %rsp
	movq	%rsi, -328(%rbp)
Ltmp686:
	movq	%rdi, -320(%rbp)
	movq	%rdi, -312(%rbp)
Ltmp687:
	.loc	10 182 12 prologue_end
	movb	$0, -17(%rbp)
	movb	$1, -17(%rbp)
Ltmp668:
	callq	__ZN11proc_macro29detection17inside_proc_macro17h11ba3e9f73fd089cE
Ltmp688:
Ltmp669:
	.loc	10 0 12 is_stmt 0
	movb	%al, -297(%rbp)
Ltmp689:
	.loc	10 182 12
	jmp	LBB51_3
Ltmp690:
LBB51_1:
	.loc	10 189 5 is_stmt 1
	testb	$1, -17(%rbp)
	jne	LBB51_14
	jmp	LBB51_13
Ltmp691:
LBB51_2:
Ltmp682:
	.loc	10 0 5 is_stmt 0
	movq	%rax, %rcx
	movl	%edx, %eax
	movq	%rcx, -16(%rbp)
	movl	%eax, -8(%rbp)
	jmp	LBB51_1
Ltmp692:
LBB51_3:
	movb	-297(%rbp), %al
	.loc	10 182 12 is_stmt 1
	testb	$1, %al
	jne	LBB51_5
	jmp	LBB51_4
Ltmp693:
LBB51_4:
	.loc	10 0 12 is_stmt 0
	movq	-328(%rbp), %rcx
	.loc	10 187 35 is_stmt 1
	movb	$0, -17(%rbp)
	movq	40(%rcx), %rax
	movq	%rax, -32(%rbp)
	movq	32(%rcx), %rax
	movq	%rax, -40(%rbp)
	movq	24(%rcx), %rax
	movq	%rax, -48(%rbp)
	movq	16(%rcx), %rax
	movq	%rax, -56(%rbp)
	movq	(%rcx), %rax
	movq	8(%rcx), %rcx
	movq	%rcx, -64(%rbp)
	movq	%rax, -72(%rbp)
Ltmp670:
	leaq	-120(%rbp), %rdi
	leaq	-72(%rbp), %rsi
	callq	__ZN63_$LT$I$u20$as$u20$core..iter..traits..collect..IntoIterator$GT$9into_iter17hb1f7523394b8b84aE
Ltmp671:
	jmp	LBB51_11
Ltmp694:
LBB51_5:
	.loc	10 0 35 is_stmt 0
	movq	-328(%rbp), %rcx
	.loc	10 184 17 is_stmt 1
	movb	$0, -17(%rbp)
	movq	40(%rcx), %rax
	movq	%rax, -128(%rbp)
	movq	32(%rcx), %rax
	movq	%rax, -136(%rbp)
	movq	24(%rcx), %rax
	movq	%rax, -144(%rbp)
	movq	16(%rcx), %rax
	movq	%rax, -152(%rbp)
	movq	(%rcx), %rax
	movq	8(%rcx), %rcx
	movq	%rcx, -160(%rbp)
	movq	%rax, -168(%rbp)
Ltmp674:
	leaq	-216(%rbp), %rdi
	leaq	-168(%rbp), %rsi
	callq	__ZN63_$LT$I$u20$as$u20$core..iter..traits..collect..IntoIterator$GT$9into_iter17hb1f7523394b8b84aE
Ltmp675:
	jmp	LBB51_6
Ltmp695:
LBB51_6:
Ltmp676:
	.loc	10 0 17 is_stmt 0
	leaq	-264(%rbp), %rdi
	leaq	-216(%rbp), %rsi
	.loc	10 184 17
	callq	__ZN4core4iter6traits8iterator8Iterator3map17h74184084624a7aadE
Ltmp677:
	jmp	LBB51_7
Ltmp696:
LBB51_7:
Ltmp678:
	.loc	10 0 17
	leaq	-264(%rbp), %rdi
	.loc	10 184 17
	callq	__ZN4core4iter6traits8iterator8Iterator7collect17h18c9bba48a24987bE
Ltmp679:
	movl	%eax, -332(%rbp)
	jmp	LBB51_8
Ltmp697:
LBB51_8:
Ltmp680:
	.loc	10 0 17
	movl	-332(%rbp), %esi
	leaq	-296(%rbp), %rdi
	.loc	10 183 35 is_stmt 1
	callq	__ZN11proc_macro23imp19DeferredTokenStream3new17h0df5bc2d814b2bd0E
Ltmp681:
	jmp	LBB51_9
Ltmp698:
LBB51_9:
	.loc	10 0 35 is_stmt 0
	movq	-320(%rbp), %rax
	.loc	10 183 13
	movq	-296(%rbp), %rcx
	movq	%rcx, (%rax)
	movq	-288(%rbp), %rcx
	movq	%rcx, 8(%rax)
	movq	-280(%rbp), %rcx
	movq	%rcx, 16(%rax)
	movq	-272(%rbp), %rcx
	movq	%rcx, 24(%rax)
Ltmp699:
LBB51_10:
	.loc	10 0 13
	movq	-312(%rbp), %rax
	.loc	10 189 6 is_stmt 1
	addq	$352, %rsp
	popq	%rbp
	retq
Ltmp700:
LBB51_11:
Ltmp672:
	.loc	10 0 6 is_stmt 0
	leaq	-120(%rbp), %rdi
	.loc	10 187 35 is_stmt 1
	callq	__ZN4core4iter6traits8iterator8Iterator7collect17h7ea904b6f46f8d67E
Ltmp673:
	movq	%rax, -344(%rbp)
	jmp	LBB51_12
Ltmp701:
LBB51_12:
	.loc	10 0 35 is_stmt 0
	movq	-320(%rbp), %rax
	movq	-344(%rbp), %rcx
	.loc	10 187 13
	movq	%rcx, (%rax)
	movq	$0, 8(%rax)
	.loc	10 182 9 is_stmt 1
	jmp	LBB51_10
Ltmp702:
LBB51_13:
	.loc	10 181 5
	movq	-16(%rbp), %rdi
	callq	__Unwind_Resume
Ltmp703:
LBB51_14:
Ltmp683:
	.loc	10 0 5 is_stmt 0
	movq	-328(%rbp), %rdi
	.loc	10 189 5 is_stmt 1
	callq	__ZN4core3ptr161drop_in_place$LT$core..iter..adapters..map..Map$LT$proc_macro2..token_stream..IntoIter$C$quote..__private..respan_token_tree..$u7b$$u7b$closure$u7d$$u7d$$GT$$GT$17h3ab324330759af7aE
Ltmp684:
	jmp	LBB51_13
Ltmp704:
LBB51_15:
Ltmp685:
	.loc	10 181 5
	callq	__ZN4core9panicking19panic_cannot_unwind17h1fbca7e1d7f56ae1E
Ltmp705:
Lfunc_end51:
	.cfi_endproc
	.section	__TEXT,__gcc_except_tab
	.p2align	2
GCC_except_table51:
Lexception24:
	.byte	255
	.byte	255
	.byte	1
	.uleb128 Lcst_end24-Lcst_begin24
Lcst_begin24:
	.uleb128 Ltmp668-Lfunc_begin51
	.uleb128 Ltmp673-Ltmp668
	.uleb128 Ltmp682-Lfunc_begin51
	.byte	0
	.uleb128 Ltmp673-Lfunc_begin51
	.uleb128 Ltmp683-Ltmp673
	.byte	0
	.byte	0
	.uleb128 Ltmp683-Lfunc_begin51
	.uleb128 Ltmp684-Ltmp683
	.uleb128 Ltmp685-Lfunc_begin51
	.byte	0
Lcst_end24:
	.p2align	2

	.section	__TEXT,__text,regular,pure_instructions
	.globl	__ZN122_$LT$proc_macro2..imp..TokenStream$u20$as$u20$core..iter..traits..collect..Extend$LT$proc_macro2..imp..TokenStream$GT$$GT$6extend17h67f6ad1837b043cfE
	.p2align	4, 0x90
__ZN122_$LT$proc_macro2..imp..TokenStream$u20$as$u20$core..iter..traits..collect..Extend$LT$proc_macro2..imp..TokenStream$GT$$GT$6extend17h67f6ad1837b043cfE:
Lfunc_begin52:
	.loc	10 231 0
	.cfi_startproc
	.cfi_personality 155, _rust_eh_personality
	.cfi_lsda 16, Lexception25
	pushq	%rbp
	.cfi_def_cfa_offset 16
	.cfi_offset %rbp, -16
	movq	%rsp, %rbp
	.cfi_def_cfa_register %rbp
	subq	$320, %rsp
	movq	%rdi, -304(%rbp)
	movq	%rsi, -296(%rbp)
Ltmp724:
	movq	%rdi, -40(%rbp)
Ltmp725:
	.loc	10 232 15 prologue_end
	movb	$0, -41(%rbp)
	movb	$1, -41(%rbp)
	movq	8(%rdi), %rdx
	xorl	%eax, %eax
	movl	$1, %ecx
	cmpq	$0, %rdx
	cmoveq	%rcx, %rax
	.loc	10 232 9 is_stmt 0
	cmpq	$0, %rax
Ltmp726:
	jne	LBB52_2
Ltmp727:
	.loc	10 0 9
	movq	-304(%rbp), %rdi
	.loc	10 233 35 is_stmt 1
	movq	%rdi, -8(%rbp)
Ltmp712:
Ltmp728:
	.loc	10 234 17
	callq	__ZN11proc_macro23imp19DeferredTokenStream12evaluate_now17h1e95bb040d4d7419E
Ltmp713:
	jmp	LBB52_9
Ltmp729:
LBB52_2:
	.loc	10 0 17 is_stmt 0
	movq	-296(%rbp), %rcx
	movq	-304(%rbp), %rax
	.loc	10 238 35 is_stmt 1
	movq	%rax, -32(%rbp)
Ltmp730:
	.loc	10 239 28
	movb	$0, -41(%rbp)
	movq	32(%rcx), %rax
	movq	%rax, -56(%rbp)
	movq	24(%rcx), %rax
	movq	%rax, -64(%rbp)
	movq	16(%rcx), %rax
	movq	%rax, -72(%rbp)
	movq	(%rcx), %rax
	movq	8(%rcx), %rcx
	movq	%rcx, -80(%rbp)
	movq	%rax, -88(%rbp)
Ltmp706:
	leaq	-128(%rbp), %rdi
	leaq	-88(%rbp), %rsi
	callq	__ZN63_$LT$I$u20$as$u20$core..iter..traits..collect..IntoIterator$GT$9into_iter17h62ed5f4ef9e567c2E
Ltmp707:
	jmp	LBB52_5
Ltmp731:
LBB52_3:
	.loc	10 242 5
	testb	$1, -41(%rbp)
	jne	LBB52_14
	jmp	LBB52_13
Ltmp732:
LBB52_4:
Ltmp720:
	.loc	10 0 5 is_stmt 0
	movq	%rax, %rcx
	movl	%edx, %eax
	movq	%rcx, -24(%rbp)
	movl	%eax, -16(%rbp)
	jmp	LBB52_3
Ltmp733:
LBB52_5:
Ltmp708:
	leaq	-168(%rbp), %rdi
	leaq	-128(%rbp), %rsi
Ltmp734:
	.loc	10 239 28 is_stmt 1
	callq	__ZN4core4iter6traits8iterator8Iterator3map17h32d90c6421072965E
Ltmp709:
	jmp	LBB52_6
Ltmp735:
LBB52_6:
Ltmp710:
	.loc	10 0 28 is_stmt 0
	movq	-304(%rbp), %rdi
	leaq	-168(%rbp), %rsi
	.loc	10 239 17
	callq	__ZN132_$LT$proc_macro2..fallback..TokenStream$u20$as$u20$core..iter..traits..collect..Extend$LT$proc_macro2..fallback..TokenStream$GT$$GT$6extend17hdf4ed02e5d9ae6c0E
Ltmp711:
	jmp	LBB52_7
Ltmp736:
LBB52_7:
	jmp	LBB52_8
Ltmp737:
LBB52_8:
	.loc	10 242 6 is_stmt 1
	addq	$320, %rsp
	popq	%rbp
	retq
Ltmp738:
LBB52_9:
	.loc	10 0 6 is_stmt 0
	movq	-296(%rbp), %rcx
	movq	-304(%rbp), %rax
Ltmp739:
	.loc	10 235 17 is_stmt 1
	addq	$24, %rax
	movq	%rax, -312(%rbp)
	.loc	10 236 29
	movb	$0, -41(%rbp)
	movq	32(%rcx), %rax
	movq	%rax, -176(%rbp)
	movq	24(%rcx), %rax
	movq	%rax, -184(%rbp)
	movq	16(%rcx), %rax
	movq	%rax, -192(%rbp)
	movq	(%rcx), %rax
	movq	8(%rcx), %rcx
	movq	%rcx, -200(%rbp)
	movq	%rax, -208(%rbp)
Ltmp714:
	leaq	-248(%rbp), %rdi
	leaq	-208(%rbp), %rsi
	callq	__ZN63_$LT$I$u20$as$u20$core..iter..traits..collect..IntoIterator$GT$9into_iter17h62ed5f4ef9e567c2E
Ltmp715:
	jmp	LBB52_10
Ltmp740:
LBB52_10:
Ltmp716:
	.loc	10 0 29 is_stmt 0
	leaq	-288(%rbp), %rdi
	leaq	-248(%rbp), %rsi
	.loc	10 236 29
	callq	__ZN4core4iter6traits8iterator8Iterator3map17h1a6d3c5244c365bfE
Ltmp717:
	jmp	LBB52_11
Ltmp741:
LBB52_11:
Ltmp718:
	.loc	10 0 29
	movq	-312(%rbp), %rdi
	leaq	-288(%rbp), %rsi
	.loc	10 235 17 is_stmt 1
	callq	__ZN110_$LT$proc_macro..TokenStream$u20$as$u20$core..iter..traits..collect..Extend$LT$proc_macro..TokenStream$GT$$GT$6extend17hea6ada1abc22bea7E
Ltmp719:
	jmp	LBB52_12
Ltmp742:
LBB52_12:
	jmp	LBB52_8
Ltmp743:
LBB52_13:
	.loc	10 231 5
	movq	-24(%rbp), %rdi
	callq	__Unwind_Resume
Ltmp744:
LBB52_14:
Ltmp721:
	.loc	10 0 5 is_stmt 0
	movq	-296(%rbp), %rdi
	.loc	10 242 5 is_stmt 1
	callq	__ZN4core3ptr344drop_in_place$LT$core..iter..adapters..map..Map$LT$core..iter..sources..once..Once$LT$proc_macro2..TokenStream$GT$$C$$LT$proc_macro2..TokenStream$u20$as$u20$core..iter..traits..collect..Extend$LT$proc_macro2..TokenStream$GT$$GT$..extend$LT$core..iter..sources..once..Once$LT$proc_macro2..TokenStream$GT$$GT$..$u7b$$u7b$closure$u7d$$u7d$$GT$$GT$17h74c0836341825557E
Ltmp722:
	jmp	LBB52_13
Ltmp745:
LBB52_15:
Ltmp723:
	.loc	10 231 5
	callq	__ZN4core9panicking19panic_cannot_unwind17h1fbca7e1d7f56ae1E
Ltmp746:
Lfunc_end52:
	.cfi_endproc
	.section	__TEXT,__gcc_except_tab
	.p2align	2
GCC_except_table52:
Lexception25:
	.byte	255
	.byte	255
	.byte	1
	.uleb128 Lcst_end25-Lcst_begin25
Lcst_begin25:
	.uleb128 Ltmp712-Lfunc_begin52
	.uleb128 Ltmp719-Ltmp712
	.uleb128 Ltmp720-Lfunc_begin52
	.byte	0
	.uleb128 Ltmp719-Lfunc_begin52
	.uleb128 Ltmp721-Ltmp719
	.byte	0
	.byte	0
	.uleb128 Ltmp721-Lfunc_begin52
	.uleb128 Ltmp722-Ltmp721
	.uleb128 Ltmp723-Lfunc_begin52
	.byte	0
Lcst_end25:
	.p2align	2

	.section	__TEXT,__text,regular,pure_instructions
	.globl	__ZN126_$LT$proc_macro2..fallback..TokenStream$u20$as$u20$core..iter..traits..collect..FromIterator$LT$proc_macro2..TokenTree$GT$$GT$9from_iter17h9bb5acbaa03f0627E
	.p2align	4, 0x90
__ZN126_$LT$proc_macro2..fallback..TokenStream$u20$as$u20$core..iter..traits..collect..FromIterator$LT$proc_macro2..TokenTree$GT$$GT$9from_iter17h9bb5acbaa03f0627E:
Lfunc_begin53:
	.loc	14 264 0
	.cfi_startproc
	.cfi_personality 155, _rust_eh_personality
	.cfi_lsda 16, Lexception26
	pushq	%rbp
	.cfi_def_cfa_offset 16
	.cfi_offset %rbp, -16
	movq	%rsp, %rbp
	.cfi_def_cfa_register %rbp
	subq	$96, %rsp
	movq	%rdi, -96(%rbp)
Ltmp758:
	.loc	14 265 13 prologue_end
	movb	$0, -17(%rbp)
	movb	$1, -17(%rbp)
Ltmp747:
	.loc	14 265 26 is_stmt 0
	callq	__ZN11proc_macro28fallback11TokenStream3new17h2cf54b460e520709E
Ltmp759:
Ltmp748:
	.loc	14 0 26
	movq	%rax, -88(%rbp)
Ltmp760:
	.loc	14 265 26
	jmp	LBB53_3
Ltmp761:
LBB53_1:
	.loc	14 268 5 is_stmt 1
	testb	$1, -17(%rbp)
	jne	LBB53_9
	jmp	LBB53_8
Ltmp762:
LBB53_2:
Ltmp749:
	.loc	14 0 5 is_stmt 0
	movq	%rax, %rcx
	movl	%edx, %eax
	movq	%rcx, -16(%rbp)
	movl	%eax, -8(%rbp)
	jmp	LBB53_1
Ltmp763:
LBB53_3:
	movq	-96(%rbp), %rcx
	movq	-88(%rbp), %rax
	.loc	14 265 26 is_stmt 1
	movq	%rax, -80(%rbp)
Ltmp764:
	.loc	14 266 23
	movb	$0, -17(%rbp)
	movq	40(%rcx), %rax
	movq	%rax, -32(%rbp)
	movq	32(%rcx), %rax
	movq	%rax, -40(%rbp)
	movq	24(%rcx), %rax
	movq	%rax, -48(%rbp)
	movq	16(%rcx), %rax
	movq	%rax, -56(%rbp)
	movq	(%rcx), %rax
	movq	8(%rcx), %rcx
	movq	%rcx, -64(%rbp)
	movq	%rax, -72(%rbp)
Ltmp750:
	leaq	-80(%rbp), %rdi
	leaq	-72(%rbp), %rsi
	.loc	14 266 9 is_stmt 0
	callq	__ZN120_$LT$proc_macro2..fallback..TokenStream$u20$as$u20$core..iter..traits..collect..Extend$LT$proc_macro2..TokenTree$GT$$GT$6extend17hf609f7a1871abe67E
Ltmp751:
	jmp	LBB53_6
Ltmp765:
LBB53_4:
Ltmp753:
	.loc	14 0 9
	leaq	-80(%rbp), %rdi
	.loc	14 268 5 is_stmt 1
	callq	__ZN4core3ptr55drop_in_place$LT$proc_macro2..fallback..TokenStream$GT$17h03482cf3043ddcdeE
Ltmp754:
	jmp	LBB53_1
Ltmp766:
LBB53_5:
Ltmp752:
	.loc	14 0 5 is_stmt 0
	movq	%rax, %rcx
	movl	%edx, %eax
	movq	%rcx, -16(%rbp)
	movl	%eax, -8(%rbp)
	jmp	LBB53_4
Ltmp767:
LBB53_6:
	.loc	14 268 6
	movq	-80(%rbp), %rax
	addq	$96, %rsp
	popq	%rbp
	retq
Ltmp768:
LBB53_7:
Ltmp757:
	.loc	14 264 5 is_stmt 1
	callq	__ZN4core9panicking19panic_cannot_unwind17h1fbca7e1d7f56ae1E
Ltmp769:
LBB53_8:
	movq	-16(%rbp), %rdi
	callq	__Unwind_Resume
Ltmp770:
LBB53_9:
Ltmp755:
	.loc	14 0 5 is_stmt 0
	movq	-96(%rbp), %rdi
	.loc	14 268 5 is_stmt 1
	callq	__ZN4core3ptr161drop_in_place$LT$core..iter..adapters..map..Map$LT$proc_macro2..token_stream..IntoIter$C$quote..__private..respan_token_tree..$u7b$$u7b$closure$u7d$$u7d$$GT$$GT$17h3ab324330759af7aE
Ltmp756:
	jmp	LBB53_8
Ltmp771:
Lfunc_end53:
	.cfi_endproc
	.section	__TEXT,__gcc_except_tab
	.p2align	2
GCC_except_table53:
Lexception26:
	.byte	255
	.byte	255
	.byte	1
	.uleb128 Lcst_end26-Lcst_begin26
Lcst_begin26:
	.uleb128 Ltmp747-Lfunc_begin53
	.uleb128 Ltmp748-Ltmp747
	.uleb128 Ltmp749-Lfunc_begin53
	.byte	0
	.uleb128 Ltmp750-Lfunc_begin53
	.uleb128 Ltmp751-Ltmp750
	.uleb128 Ltmp752-Lfunc_begin53
	.byte	0
	.uleb128 Ltmp753-Lfunc_begin53
	.uleb128 Ltmp754-Ltmp753
	.uleb128 Ltmp757-Lfunc_begin53
	.byte	0
	.uleb128 Ltmp754-Lfunc_begin53
	.uleb128 Ltmp755-Ltmp754
	.byte	0
	.byte	0
	.uleb128 Ltmp755-Lfunc_begin53
	.uleb128 Ltmp756-Ltmp755
	.uleb128 Ltmp757-Lfunc_begin53
	.byte	0
Lcst_end26:
	.p2align	2

	.section	__TEXT,__text,regular,pure_instructions
	.globl	__ZN132_$LT$proc_macro2..fallback..TokenStream$u20$as$u20$core..iter..traits..collect..Extend$LT$proc_macro2..fallback..TokenStream$GT$$GT$6extend17hdf4ed02e5d9ae6c0E
	.p2align	4, 0x90
__ZN132_$LT$proc_macro2..fallback..TokenStream$u20$as$u20$core..iter..traits..collect..Extend$LT$proc_macro2..fallback..TokenStream$GT$$GT$6extend17hdf4ed02e5d9ae6c0E:
Lfunc_begin54:
	.loc	14 293 0
	.cfi_startproc
	.cfi_personality 155, _rust_eh_personality
	.cfi_lsda 16, Lexception27
	pushq	%rbp
	.cfi_def_cfa_offset 16
	.cfi_offset %rbp, -16
	movq	%rsp, %rbp
	.cfi_def_cfa_register %rbp
	subq	$240, %rsp
	movq	%rsi, -240(%rbp)
Ltmp784:
	movq	%rdi, -24(%rbp)
Ltmp785:
	.loc	14 294 9 prologue_end
	movb	$0, -25(%rbp)
	movb	$1, -25(%rbp)
Ltmp772:
	callq	__ZN11proc_macro25rcvec14RcVec$LT$T$GT$8make_mut17h10872b5e21b31db7E
Ltmp786:
Ltmp773:
	.loc	14 0 9 is_stmt 0
	movq	%rax, -232(%rbp)
Ltmp787:
	.loc	14 294 9
	jmp	LBB54_3
Ltmp788:
LBB54_1:
	.loc	14 295 5 is_stmt 1
	testb	$1, -25(%rbp)
	jne	LBB54_8
	jmp	LBB54_7
Ltmp789:
LBB54_2:
Ltmp780:
	.loc	14 0 5 is_stmt 0
	movq	%rax, %rcx
	movl	%edx, %eax
	movq	%rcx, -16(%rbp)
	movl	%eax, -8(%rbp)
	jmp	LBB54_1
Ltmp790:
LBB54_3:
	movq	-240(%rbp), %rcx
	movq	-232(%rbp), %rax
	.loc	14 294 9 is_stmt 1
	movq	%rax, -224(%rbp)
	.loc	14 294 38 is_stmt 0
	movb	$0, -25(%rbp)
	movq	32(%rcx), %rax
	movq	%rax, -40(%rbp)
	movq	24(%rcx), %rax
	movq	%rax, -48(%rbp)
	movq	16(%rcx), %rax
	movq	%rax, -56(%rbp)
	movq	(%rcx), %rax
	movq	8(%rcx), %rcx
	movq	%rcx, -64(%rbp)
	movq	%rax, -72(%rbp)
Ltmp774:
	leaq	-112(%rbp), %rdi
	leaq	-72(%rbp), %rsi
	callq	__ZN63_$LT$I$u20$as$u20$core..iter..traits..collect..IntoIterator$GT$9into_iter17he953d670fc0d51caE
Ltmp775:
	jmp	LBB54_4
Ltmp791:
LBB54_4:
Ltmp776:
	.loc	14 0 38
	leaq	-216(%rbp), %rdi
	leaq	-112(%rbp), %rsi
	.loc	14 294 38
	callq	__ZN4core4iter6traits8iterator8Iterator7flatten17h27a48dc2824adcc8E
Ltmp777:
	jmp	LBB54_5
Ltmp792:
LBB54_5:
Ltmp778:
	.loc	14 0 38
	leaq	-224(%rbp), %rdi
	leaq	-216(%rbp), %rsi
	.loc	14 294 9
	callq	__ZN11proc_macro25rcvec17RcVecMut$LT$T$GT$6extend17hca94272f487c5f48E
Ltmp779:
	jmp	LBB54_6
Ltmp793:
LBB54_6:
	.loc	14 295 6 is_stmt 1
	addq	$240, %rsp
	popq	%rbp
	retq
Ltmp794:
LBB54_7:
	.loc	14 293 5
	movq	-16(%rbp), %rdi
	callq	__Unwind_Resume
Ltmp795:
LBB54_8:
Ltmp781:
	.loc	14 0 5 is_stmt 0
	movq	-240(%rbp), %rdi
	.loc	14 295 5 is_stmt 1
	callq	__ZN4core3ptr429drop_in_place$LT$core..iter..adapters..map..Map$LT$core..iter..adapters..map..Map$LT$core..iter..sources..once..Once$LT$proc_macro2..TokenStream$GT$$C$$LT$proc_macro2..TokenStream$u20$as$u20$core..iter..traits..collect..Extend$LT$proc_macro2..TokenStream$GT$$GT$..extend$LT$core..iter..sources..once..Once$LT$proc_macro2..TokenStream$GT$$GT$..$u7b$$u7b$closure$u7d$$u7d$$GT$$C$proc_macro2..imp..TokenStream..unwrap_stable$GT$$GT$17h4931563740379224E
Ltmp782:
	jmp	LBB54_7
Ltmp796:
LBB54_9:
Ltmp783:
	.loc	14 293 5
	callq	__ZN4core9panicking19panic_cannot_unwind17h1fbca7e1d7f56ae1E
Ltmp797:
Lfunc_end54:
	.cfi_endproc
	.section	__TEXT,__gcc_except_tab
	.p2align	2
GCC_except_table54:
Lexception27:
	.byte	255
	.byte	255
	.byte	1
	.uleb128 Lcst_end27-Lcst_begin27
Lcst_begin27:
	.uleb128 Ltmp772-Lfunc_begin54
	.uleb128 Ltmp779-Ltmp772
	.uleb128 Ltmp780-Lfunc_begin54
	.byte	0
	.uleb128 Ltmp779-Lfunc_begin54
	.uleb128 Ltmp781-Ltmp779
	.byte	0
	.byte	0
	.uleb128 Ltmp781-Lfunc_begin54
	.uleb128 Ltmp782-Ltmp781
	.uleb128 Ltmp783-Lfunc_begin54
	.byte	0
Lcst_end27:
	.p2align	2

	.section	__TEXT,__text,regular,pure_instructions
	.globl	__ZN4core3mem7replace17h2726a9d66605afd0E
	.p2align	4, 0x90
__ZN4core3mem7replace17h2726a9d66605afd0E:
Lfunc_begin55:
	.file	15 "/rustc/2c8cc343237b8f7d5a3c3703e3a87f2eb2c54a74/library/core/src/mem" "mod.rs"
	.loc	15 905 0
	.cfi_startproc
	pushq	%rbp
	.cfi_def_cfa_offset 16
	.cfi_offset %rbp, -16
	movq	%rsp, %rbp
	.cfi_def_cfa_register %rbp
	subq	$240, %rsp
	movq	%rdx, -240(%rbp)
Ltmp798:
	movq	%rsi, -232(%rbp)
	movq	%rdi, -224(%rbp)
	movq	%rdi, -216(%rbp)
	movq	%rsi, -48(%rbp)
Ltmp799:
	.loc	15 910 32 prologue_end
	movq	%rsi, -40(%rbp)
Ltmp800:
	.file	16 "/rustc/2c8cc343237b8f7d5a3c3703e3a87f2eb2c54a74/library/core/src/ptr" "mod.rs"
	.loc	16 1157 34
	leaq	-168(%rbp), %rax
	movq	%rax, -32(%rbp)
	.loc	16 1157 9 is_stmt 0
	leaq	-168(%rbp), %rdi
	movl	$40, %edx
Ltmp801:
	callq	_memcpy
	.loc	16 1158 9 is_stmt 1
	leaq	-128(%rbp), %rdi
	leaq	-168(%rbp), %rsi
	movl	$40, %edx
	callq	_memcpy
Ltmp802:
	.file	17 "/rustc/2c8cc343237b8f7d5a3c3703e3a87f2eb2c54a74/library/core/src/mem" "maybe_uninit.rs"
	.loc	17 627 38
	leaq	-88(%rbp), %rdi
	leaq	-128(%rbp), %rsi
	movl	$40, %edx
	callq	_memcpy
	movq	-224(%rbp), %rdi
Ltmp803:
	.file	18 "/rustc/2c8cc343237b8f7d5a3c3703e3a87f2eb2c54a74/library/core/src/mem" "manually_drop.rs"
	.loc	18 89 9
	leaq	-88(%rbp), %rsi
	movl	$40, %edx
	callq	_memcpy
	movq	-240(%rbp), %rsi
	movq	-232(%rbp), %rax
Ltmp804:
	.loc	15 911 20
	movq	%rax, -8(%rbp)
	.loc	15 911 26 is_stmt 0
	leaq	-208(%rbp), %rdi
	movl	$40, %edx
	callq	_memcpy
	movq	-232(%rbp), %rdi
Ltmp805:
	.loc	16 1354 9 is_stmt 1
	leaq	-208(%rbp), %rsi
	movl	$40, %edx
	callq	_memcpy
	movq	-216(%rbp), %rax
Ltmp806:
	.loc	15 914 2
	addq	$240, %rsp
	popq	%rbp
	retq
Ltmp807:
Lfunc_end55:
	.cfi_endproc

	.globl	__ZN4core3mem7replace17h482ba2b949a776a1E
	.p2align	4, 0x90
__ZN4core3mem7replace17h482ba2b949a776a1E:
Lfunc_begin56:
	.loc	15 905 0
	.cfi_startproc
	pushq	%rbp
	.cfi_def_cfa_offset 16
	.cfi_offset %rbp, -16
	movq	%rsp, %rbp
	.cfi_def_cfa_register %rbp
	subq	$240, %rsp
	movq	%rdx, -240(%rbp)
Ltmp808:
	movq	%rsi, -232(%rbp)
	movq	%rdi, -224(%rbp)
	movq	%rdi, -216(%rbp)
	movq	%rsi, -48(%rbp)
Ltmp809:
	.loc	15 910 32 prologue_end
	movq	%rsi, -40(%rbp)
Ltmp810:
	.loc	16 1157 34
	leaq	-168(%rbp), %rax
	movq	%rax, -32(%rbp)
	.loc	16 1157 9 is_stmt 0
	leaq	-168(%rbp), %rdi
	movl	$40, %edx
Ltmp811:
	callq	_memcpy
	.loc	16 1158 9 is_stmt 1
	leaq	-128(%rbp), %rdi
	leaq	-168(%rbp), %rsi
	movl	$40, %edx
	callq	_memcpy
Ltmp812:
	.loc	17 627 38
	leaq	-88(%rbp), %rdi
	leaq	-128(%rbp), %rsi
	movl	$40, %edx
	callq	_memcpy
	movq	-224(%rbp), %rdi
Ltmp813:
	.loc	18 89 9
	leaq	-88(%rbp), %rsi
	movl	$40, %edx
	callq	_memcpy
	movq	-240(%rbp), %rsi
	movq	-232(%rbp), %rax
Ltmp814:
	.loc	15 911 20
	movq	%rax, -8(%rbp)
	.loc	15 911 26 is_stmt 0
	leaq	-208(%rbp), %rdi
	movl	$40, %edx
	callq	_memcpy
	movq	-232(%rbp), %rdi
Ltmp815:
	.loc	16 1354 9 is_stmt 1
	leaq	-208(%rbp), %rsi
	movl	$40, %edx
	callq	_memcpy
	movq	-216(%rbp), %rax
Ltmp816:
	.loc	15 914 2
	addq	$240, %rsp
	popq	%rbp
	retq
Ltmp817:
Lfunc_end56:
	.cfi_endproc

	.p2align	4, 0x90
__ZN4core3num23_$LT$impl$u20$usize$GT$11checked_add17hd8dcca747615a58fE:
Lfunc_begin57:
	.loc	12 442 0
	.cfi_startproc
	pushq	%rbp
	.cfi_def_cfa_offset 16
	.cfi_offset %rbp, -16
	movq	%rsp, %rbp
	.cfi_def_cfa_register %rbp
	subq	$120, %rsp
	movq	%rdi, -80(%rbp)
	movq	%rsi, -72(%rbp)
Ltmp818:
	.loc	12 443 26 prologue_end
	movq	%rdi, -64(%rbp)
	.loc	12 443 47 is_stmt 0
	movq	%rsi, -56(%rbp)
Ltmp819:
	.loc	12 1479 26 is_stmt 1
	addq	%rsi, %rdi
	setb	%al
	andb	$1, %al
	movq	%rdi, -48(%rbp)
	movb	%al, -40(%rbp)
	movq	-48(%rbp), %rcx
	movb	-40(%rbp), %al
	.loc	12 1479 18 is_stmt 0
	movq	%rcx, -32(%rbp)
	.loc	12 1479 21
	movb	%al, %dl
	andb	$1, %dl
	movb	%dl, -17(%rbp)
Ltmp820:
	.loc	12 1480 13 is_stmt 1
	movq	%rcx, -96(%rbp)
	andb	$1, %al
	movb	%al, -88(%rbp)
Ltmp821:
	.loc	12 443 18
	movq	-96(%rbp), %rax
	movq	%rax, -120(%rbp)
	movq	%rax, -16(%rbp)
	.loc	12 443 21 is_stmt 0
	movb	-88(%rbp), %al
	movb	%al, %cl
	andb	$1, %cl
	movb	%cl, -2(%rbp)
Ltmp822:
	.loc	12 444 16 is_stmt 1
	andb	$1, %al
	movb	%al, -1(%rbp)
	testb	$1, -1(%rbp)
	jne	LBB57_2
	.loc	12 0 16 is_stmt 0
	movq	-120(%rbp), %rax
	.loc	12 444 42
	movq	%rax, -104(%rbp)
	movq	$1, -112(%rbp)
	.loc	12 444 13
	jmp	LBB57_3
LBB57_2:
	.loc	12 444 30
	movq	$0, -112(%rbp)
Ltmp823:
LBB57_3:
	.loc	12 445 10 is_stmt 1
	movq	-112(%rbp), %rax
	movq	-104(%rbp), %rdx
	addq	$120, %rsp
	popq	%rbp
	retq
Ltmp824:
Lfunc_end57:
	.cfi_endproc

	.p2align	4, 0x90
__ZN4core3num23_$LT$impl$u20$usize$GT$11checked_mul17h6053bdc9b079c27dE:
Lfunc_begin58:
	.loc	12 558 0
	.cfi_startproc
	pushq	%rbp
	.cfi_def_cfa_offset 16
	.cfi_offset %rbp, -16
	movq	%rsp, %rbp
	.cfi_def_cfa_register %rbp
	subq	$120, %rsp
	movq	%rdi, %rax
	movq	%rax, -80(%rbp)
	movq	%rsi, -72(%rbp)
Ltmp825:
	.loc	12 559 26 prologue_end
	movq	%rax, -64(%rbp)
	.loc	12 559 47 is_stmt 0
	movq	%rsi, -56(%rbp)
Ltmp826:
	.loc	12 1677 26 is_stmt 1
	mulq	%rsi
	movq	%rax, %rcx
	seto	%al
	andb	$1, %al
	movq	%rcx, -48(%rbp)
	movb	%al, -40(%rbp)
	movq	-48(%rbp), %rcx
	movb	-40(%rbp), %al
	.loc	12 1677 18 is_stmt 0
	movq	%rcx, -32(%rbp)
	.loc	12 1677 21
	movb	%al, %dl
	andb	$1, %dl
	movb	%dl, -17(%rbp)
Ltmp827:
	.loc	12 1678 13 is_stmt 1
	movq	%rcx, -96(%rbp)
	andb	$1, %al
	movb	%al, -88(%rbp)
Ltmp828:
	.loc	12 559 18
	movq	-96(%rbp), %rax
	movq	%rax, -120(%rbp)
	movq	%rax, -16(%rbp)
	.loc	12 559 21 is_stmt 0
	movb	-88(%rbp), %al
	movb	%al, %cl
	andb	$1, %cl
	movb	%cl, -2(%rbp)
Ltmp829:
	.loc	12 560 16 is_stmt 1
	andb	$1, %al
	movb	%al, -1(%rbp)
	testb	$1, -1(%rbp)
	jne	LBB58_2
	.loc	12 0 16 is_stmt 0
	movq	-120(%rbp), %rax
	.loc	12 560 42
	movq	%rax, -104(%rbp)
	movq	$1, -112(%rbp)
	.loc	12 560 13
	jmp	LBB58_3
LBB58_2:
	.loc	12 560 30
	movq	$0, -112(%rbp)
Ltmp830:
LBB58_3:
	.loc	12 561 10 is_stmt 1
	movq	-112(%rbp), %rax
	movq	-104(%rbp), %rdx
	addq	$120, %rsp
	popq	%rbp
	retq
Ltmp831:
Lfunc_end58:
	.cfi_endproc

	.p2align	4, 0x90
__ZN4core3ops8function5FnMut8call_mut17h4342792d37e85cddE:
Lfunc_begin59:
	.file	19 "/rustc/2c8cc343237b8f7d5a3c3703e3a87f2eb2c54a74/library/core/src/ops" "function.rs"
	.loc	19 166 0
	.cfi_startproc
	pushq	%rbp
	.cfi_def_cfa_offset 16
	.cfi_offset %rbp, -16
	movq	%rsp, %rbp
	.cfi_def_cfa_register %rbp
	subq	$48, %rsp
	movq	(%rsi), %rax
	movq	%rax, -40(%rbp)
	movq	8(%rsi), %rax
	movq	%rax, -32(%rbp)
	movq	16(%rsi), %rax
	movq	%rax, -24(%rbp)
	movq	24(%rsi), %rax
	movq	%rax, -16(%rbp)
	movq	%rdi, -8(%rbp)
Ltmp832:
	.loc	19 166 5 prologue_end
	leaq	-40(%rbp), %rdi
	callq	__ZN11proc_macro23imp11TokenStream14unwrap_nightly17h0286c78ef16f0530E
	addq	$48, %rsp
	popq	%rbp
	retq
Ltmp833:
Lfunc_end59:
	.cfi_endproc

	.p2align	4, 0x90
__ZN4core3ops8function5FnMut8call_mut17haecc16cd240ace5cE:
Lfunc_begin60:
	.loc	19 166 0
	.cfi_startproc
	pushq	%rbp
	.cfi_def_cfa_offset 16
	.cfi_offset %rbp, -16
	movq	%rsp, %rbp
	.cfi_def_cfa_register %rbp
	subq	$80, %rsp
	movq	%rdx, -80(%rbp)
	movq	%rsi, %rax
	movq	-80(%rbp), %rsi
	movq	%rax, -72(%rbp)
	movq	%rdi, -64(%rbp)
	movq	%rdi, -56(%rbp)
	leaq	-48(%rbp), %rdi
	movl	$40, %edx
	callq	_memcpy
	movq	-72(%rbp), %rsi
	movq	-64(%rbp), %rdi
	movq	%rsi, -8(%rbp)
Ltmp834:
	.loc	19 166 5 prologue_end
	leaq	-48(%rbp), %rsi
	callq	__ZN11proc_macro23imp19into_compiler_token17he4ce1b22e54eea56E
	movq	-56(%rbp), %rax
	addq	$80, %rsp
	popq	%rbp
	retq
Ltmp835:
Lfunc_end60:
	.cfi_endproc

	.p2align	4, 0x90
__ZN4core3ops8function5FnMut8call_mut17hdf7a7cf735f0f6f7E:
Lfunc_begin61:
	.loc	19 166 0
	.cfi_startproc
	pushq	%rbp
	.cfi_def_cfa_offset 16
	.cfi_offset %rbp, -16
	movq	%rsp, %rbp
	.cfi_def_cfa_register %rbp
	subq	$48, %rsp
	movq	(%rsi), %rax
	movq	%rax, -40(%rbp)
	movq	8(%rsi), %rax
	movq	%rax, -32(%rbp)
	movq	16(%rsi), %rax
	movq	%rax, -24(%rbp)
	movq	24(%rsi), %rax
	movq	%rax, -16(%rbp)
	movq	%rdi, -8(%rbp)
Ltmp836:
	.loc	19 166 5 prologue_end
	leaq	-40(%rbp), %rdi
	callq	__ZN11proc_macro23imp11TokenStream13unwrap_stable17hb445bc0dc9346959E
	addq	$48, %rsp
	popq	%rbp
	retq
Ltmp837:
Lfunc_end61:
	.cfi_endproc

	.globl	__ZN4core3ops8function5impls80_$LT$impl$u20$core..ops..function..FnOnce$LT$A$GT$$u20$for$u20$$RF$mut$u20$F$GT$9call_once17h29924330260f916cE
	.p2align	4, 0x90
__ZN4core3ops8function5impls80_$LT$impl$u20$core..ops..function..FnOnce$LT$A$GT$$u20$for$u20$$RF$mut$u20$F$GT$9call_once17h29924330260f916cE:
Lfunc_begin62:
	.loc	19 309 0
	.cfi_startproc
	pushq	%rbp
	.cfi_def_cfa_offset 16
	.cfi_offset %rbp, -16
	movq	%rsp, %rbp
	.cfi_def_cfa_register %rbp
	subq	$96, %rsp
	movq	%rdi, -96(%rbp)
	leaq	-88(%rbp), %rdi
	movl	$40, %edx
	callq	_memcpy
	movq	-96(%rbp), %rdi
	movq	%rdi, -8(%rbp)
Ltmp838:
	.loc	19 310 30 prologue_end
	leaq	-48(%rbp), %rdi
	leaq	-88(%rbp), %rsi
	movl	$40, %edx
	callq	_memcpy
	movq	-96(%rbp), %rdi
	.loc	19 310 13 is_stmt 0
	leaq	-48(%rbp), %rsi
	callq	__ZN5quote7spanned10join_spans28_$u7b$$u7b$closure$u7d$$u7d$17h2a73068b191c0947E
	.loc	19 311 10 is_stmt 1
	addq	$96, %rsp
	popq	%rbp
	retq
Ltmp839:
Lfunc_end62:
	.cfi_endproc

	.globl	__ZN4core3ops8function5impls80_$LT$impl$u20$core..ops..function..FnOnce$LT$A$GT$$u20$for$u20$$RF$mut$u20$F$GT$9call_once17h2d0ed3e6d6d5eba5E
	.p2align	4, 0x90
__ZN4core3ops8function5impls80_$LT$impl$u20$core..ops..function..FnOnce$LT$A$GT$$u20$for$u20$$RF$mut$u20$F$GT$9call_once17h2d0ed3e6d6d5eba5E:
Lfunc_begin63:
	.loc	19 309 0
	.cfi_startproc
	pushq	%rbp
	.cfi_def_cfa_offset 16
	.cfi_offset %rbp, -16
	movq	%rsp, %rbp
	.cfi_def_cfa_register %rbp
	subq	$80, %rsp
	movq	(%rsi), %rax
	movq	%rax, -72(%rbp)
	movq	8(%rsi), %rax
	movq	%rax, -64(%rbp)
	movq	16(%rsi), %rax
	movq	%rax, -56(%rbp)
	movq	24(%rsi), %rax
	movq	%rax, -48(%rbp)
	movq	%rdi, -8(%rbp)
Ltmp840:
	.loc	19 310 30 prologue_end
	movq	-72(%rbp), %rax
	movq	%rax, -40(%rbp)
	movq	-64(%rbp), %rax
	movq	%rax, -32(%rbp)
	movq	-56(%rbp), %rax
	movq	%rax, -24(%rbp)
	movq	-48(%rbp), %rax
	movq	%rax, -16(%rbp)
	.loc	19 310 13 is_stmt 0
	leaq	-40(%rbp), %rsi
	callq	__ZN4core3ops8function5FnMut8call_mut17hdf7a7cf735f0f6f7E
	.loc	19 311 10 is_stmt 1
	addq	$80, %rsp
	popq	%rbp
	retq
Ltmp841:
Lfunc_end63:
	.cfi_endproc

	.globl	__ZN4core3ops8function5impls80_$LT$impl$u20$core..ops..function..FnOnce$LT$A$GT$$u20$for$u20$$RF$mut$u20$F$GT$9call_once17h571027c9b0ce1761E
	.p2align	4, 0x90
__ZN4core3ops8function5impls80_$LT$impl$u20$core..ops..function..FnOnce$LT$A$GT$$u20$for$u20$$RF$mut$u20$F$GT$9call_once17h571027c9b0ce1761E:
Lfunc_begin64:
	.loc	19 309 0
	.cfi_startproc
	pushq	%rbp
	.cfi_def_cfa_offset 16
	.cfi_offset %rbp, -16
	movq	%rsp, %rbp
	.cfi_def_cfa_register %rbp
	subq	$80, %rsp
	movq	%rdi, %rax
	movq	%rax, -80(%rbp)
	movq	(%rdx), %rax
	movq	%rax, -72(%rbp)
	movq	8(%rdx), %rax
	movq	%rax, -64(%rbp)
	movq	16(%rdx), %rax
	movq	%rax, -56(%rbp)
	movq	24(%rdx), %rax
	movq	%rax, -48(%rbp)
	movq	%rsi, -8(%rbp)
Ltmp842:
	.loc	19 310 30 prologue_end
	movq	-72(%rbp), %rax
	movq	%rax, -40(%rbp)
	movq	-64(%rbp), %rax
	movq	%rax, -32(%rbp)
	movq	-56(%rbp), %rax
	movq	%rax, -24(%rbp)
	movq	-48(%rbp), %rax
	movq	%rax, -16(%rbp)
	.loc	19 310 13 is_stmt 0
	leaq	-40(%rbp), %rdx
	callq	__ZN112_$LT$proc_macro2..TokenStream$u20$as$u20$core..iter..traits..collect..Extend$LT$proc_macro2..TokenStream$GT$$GT$6extend28_$u7b$$u7b$closure$u7d$$u7d$17h1cb83fa5e0d853f2E
	movq	-80(%rbp), %rax
	.loc	19 311 10 is_stmt 1
	addq	$80, %rsp
	popq	%rbp
	retq
Ltmp843:
Lfunc_end64:
	.cfi_endproc

	.globl	__ZN4core3ops8function5impls80_$LT$impl$u20$core..ops..function..FnOnce$LT$A$GT$$u20$for$u20$$RF$mut$u20$F$GT$9call_once17he38bdc87d731060aE
	.p2align	4, 0x90
__ZN4core3ops8function5impls80_$LT$impl$u20$core..ops..function..FnOnce$LT$A$GT$$u20$for$u20$$RF$mut$u20$F$GT$9call_once17he38bdc87d731060aE:
Lfunc_begin65:
	.loc	19 309 0
	.cfi_startproc
	pushq	%rbp
	.cfi_def_cfa_offset 16
	.cfi_offset %rbp, -16
	movq	%rsp, %rbp
	.cfi_def_cfa_register %rbp
	subq	$128, %rsp
	movq	%rdx, -120(%rbp)
	movq	%rsi, %rax
	movq	-120(%rbp), %rsi
	movq	%rax, -104(%rbp)
	movq	%rdi, -112(%rbp)
	movq	%rdi, -96(%rbp)
	leaq	-88(%rbp), %rdi
	movl	$40, %edx
	callq	_memcpy
	movq	-104(%rbp), %rsi
	movq	%rsi, -8(%rbp)
Ltmp844:
	.loc	19 310 30 prologue_end
	leaq	-48(%rbp), %rdi
	leaq	-88(%rbp), %rsi
	movl	$40, %edx
	callq	_memcpy
	movq	-112(%rbp), %rdi
	movq	-104(%rbp), %rsi
	.loc	19 310 13 is_stmt 0
	leaq	-48(%rbp), %rdx
	callq	__ZN5quote9__private13parse_spanned28_$u7b$$u7b$closure$u7d$$u7d$17h2f2b5444ef25bda2E
	movq	-96(%rbp), %rax
	.loc	19 311 10 is_stmt 1
	addq	$128, %rsp
	popq	%rbp
	retq
Ltmp845:
Lfunc_end65:
	.cfi_endproc

	.p2align	4, 0x90
__ZN4core3ops8function6FnOnce9call_once17h00a425c52d19ee38E:
Lfunc_begin66:
	.loc	19 250 0
	.cfi_startproc
	pushq	%rbp
	.cfi_def_cfa_offset 16
	.cfi_offset %rbp, -16
	movq	%rsp, %rbp
	.cfi_def_cfa_register %rbp
	subq	$16, %rsp
Ltmp846:
	.loc	19 250 5 prologue_end
	callq	__ZN11proc_macro24Span9call_site17h1226ae456207f858E
	addq	$16, %rsp
	popq	%rbp
	retq
Ltmp847:
Lfunc_end66:
	.cfi_endproc

	.p2align	4, 0x90
__ZN4core3ops8function6FnOnce9call_once17h188e44d70586d042E:
Lfunc_begin67:
	.loc	19 250 0
	.cfi_startproc
	pushq	%rbp
	.cfi_def_cfa_offset 16
	.cfi_offset %rbp, -16
	movq	%rsp, %rbp
	.cfi_def_cfa_register %rbp
	subq	$32, %rsp
	movq	%rdi, %rax
	movq	%rax, -24(%rbp)
	movq	%rsi, -16(%rbp)
Ltmp848:
	.loc	19 250 5 prologue_end
	movq	-16(%rbp), %rsi
	callq	__ZN101_$LT$proc_macro2..rcvec..RcVecIntoIter$LT$T$GT$$u20$as$u20$core..iter..traits..iterator..Iterator$GT$9size_hint17h3ae84928f101dec4E
	movq	-24(%rbp), %rax
	addq	$32, %rsp
	popq	%rbp
	retq
Ltmp849:
Lfunc_end67:
	.cfi_endproc

	.p2align	4, 0x90
__ZN4core3ops8function6FnOnce9call_once17hbec012418bbada3aE:
Lfunc_begin68:
	.loc	19 250 0
	.cfi_startproc
	pushq	%rbp
	.cfi_def_cfa_offset 16
	.cfi_offset %rbp, -16
	movq	%rsp, %rbp
	.cfi_def_cfa_register %rbp
	subq	$32, %rsp
	movq	%rdi, %rax
	movq	%rax, -24(%rbp)
	movq	%rsi, -16(%rbp)
Ltmp850:
	.loc	19 250 5 prologue_end
	movq	-16(%rbp), %rsi
	callq	__ZN101_$LT$proc_macro2..rcvec..RcVecIntoIter$LT$T$GT$$u20$as$u20$core..iter..traits..iterator..Iterator$GT$4next17hccf3e3b50502f0f1E
	movq	-24(%rbp), %rax
	addq	$32, %rsp
	popq	%rbp
	retq
Ltmp851:
Lfunc_end68:
	.cfi_endproc

	.globl	__ZN4core3ptr112drop_in_place$LT$core..option..Option$LT$proc_macro2..rcvec..RcVecIntoIter$LT$proc_macro2..TokenTree$GT$$GT$$GT$17h76a342d942a9bb65E
	.p2align	4, 0x90
__ZN4core3ptr112drop_in_place$LT$core..option..Option$LT$proc_macro2..rcvec..RcVecIntoIter$LT$proc_macro2..TokenTree$GT$$GT$$GT$17h76a342d942a9bb65E:
Lfunc_begin69:
	.loc	16 490 0
	.cfi_startproc
	pushq	%rbp
	.cfi_def_cfa_offset 16
	.cfi_offset %rbp, -16
	movq	%rsp, %rbp
	.cfi_def_cfa_register %rbp
	subq	$16, %rsp
	movq	%rdi, -16(%rbp)
	movq	%rdi, -8(%rbp)
Ltmp852:
	.loc	16 490 1 prologue_end
	movq	24(%rdi), %rdx
	movl	$1, %eax
	xorl	%ecx, %ecx
	cmpq	$0, %rdx
	cmoveq	%rcx, %rax
	cmpq	$0, %rax
	jne	LBB69_2
LBB69_1:
	addq	$16, %rsp
	popq	%rbp
	retq
LBB69_2:
	.loc	16 0 1 is_stmt 0
	movq	-16(%rbp), %rdi
	.loc	16 490 1
	callq	__ZN4core3ptr84drop_in_place$LT$proc_macro2..rcvec..RcVecIntoIter$LT$proc_macro2..TokenTree$GT$$GT$17h80d8808ab6cc6e27E
	jmp	LBB69_1
Ltmp853:
Lfunc_end69:
	.cfi_endproc

	.globl	__ZN4core3ptr131drop_in_place$LT$alloc..rc..Rc$LT$core..mem..maybe_uninit..MaybeUninit$LT$alloc..vec..Vec$LT$proc_macro2..TokenTree$GT$$GT$$GT$$GT$17h446ea51dab640db3E
	.p2align	4, 0x90
__ZN4core3ptr131drop_in_place$LT$alloc..rc..Rc$LT$core..mem..maybe_uninit..MaybeUninit$LT$alloc..vec..Vec$LT$proc_macro2..TokenTree$GT$$GT$$GT$$GT$17h446ea51dab640db3E:
Lfunc_begin70:
	.loc	16 490 0 is_stmt 1
	.cfi_startproc
	pushq	%rbp
	.cfi_def_cfa_offset 16
	.cfi_offset %rbp, -16
	movq	%rsp, %rbp
	.cfi_def_cfa_register %rbp
	subq	$16, %rsp
	movq	%rdi, -8(%rbp)
Ltmp854:
	.loc	16 490 1 prologue_end
	callq	__ZN64_$LT$alloc..rc..Rc$LT$T$GT$$u20$as$u20$core..ops..drop..Drop$GT$4drop17h512570726cbe8122E
	addq	$16, %rsp
	popq	%rbp
	retq
Ltmp855:
Lfunc_end70:
	.cfi_endproc

	.globl	__ZN4core3ptr152drop_in_place$LT$core..iter..adapters..map..Map$LT$proc_macro2..token_stream..IntoIter$C$quote..spanned..join_spans..$u7b$$u7b$closure$u7d$$u7d$$GT$$GT$17h9938c0a742f0c1b2E
	.p2align	4, 0x90
__ZN4core3ptr152drop_in_place$LT$core..iter..adapters..map..Map$LT$proc_macro2..token_stream..IntoIter$C$quote..spanned..join_spans..$u7b$$u7b$closure$u7d$$u7d$$GT$$GT$17h9938c0a742f0c1b2E:
Lfunc_begin71:
	.loc	16 490 0
	.cfi_startproc
	pushq	%rbp
	.cfi_def_cfa_offset 16
	.cfi_offset %rbp, -16
	movq	%rsp, %rbp
	.cfi_def_cfa_register %rbp
	subq	$16, %rsp
	movq	%rdi, -8(%rbp)
Ltmp856:
	.loc	16 490 1 prologue_end
	callq	__ZN4core3ptr56drop_in_place$LT$proc_macro2..token_stream..IntoIter$GT$17h671ab9d82e552e5dE
	addq	$16, %rsp
	popq	%rbp
	retq
Ltmp857:
Lfunc_end71:
	.cfi_endproc

	.globl	__ZN4core3ptr157drop_in_place$LT$core..iter..adapters..map..Map$LT$proc_macro2..token_stream..IntoIter$C$quote..__private..parse_spanned..$u7b$$u7b$closure$u7d$$u7d$$GT$$GT$17h31675f20fe9bb12dE
	.p2align	4, 0x90
__ZN4core3ptr157drop_in_place$LT$core..iter..adapters..map..Map$LT$proc_macro2..token_stream..IntoIter$C$quote..__private..parse_spanned..$u7b$$u7b$closure$u7d$$u7d$$GT$$GT$17h31675f20fe9bb12dE:
Lfunc_begin72:
	.loc	16 490 0
	.cfi_startproc
	pushq	%rbp
	.cfi_def_cfa_offset 16
	.cfi_offset %rbp, -16
	movq	%rsp, %rbp
	.cfi_def_cfa_register %rbp
	subq	$16, %rsp
	movq	%rdi, -8(%rbp)
Ltmp858:
	.loc	16 490 1 prologue_end
	addq	$8, %rdi
	callq	__ZN4core3ptr56drop_in_place$LT$proc_macro2..token_stream..IntoIter$GT$17h671ab9d82e552e5dE
	addq	$16, %rsp
	popq	%rbp
	retq
Ltmp859:
Lfunc_end72:
	.cfi_endproc

	.globl	__ZN4core3ptr161drop_in_place$LT$core..iter..adapters..map..Map$LT$proc_macro2..token_stream..IntoIter$C$quote..__private..respan_token_tree..$u7b$$u7b$closure$u7d$$u7d$$GT$$GT$17h3ab324330759af7aE
	.p2align	4, 0x90
__ZN4core3ptr161drop_in_place$LT$core..iter..adapters..map..Map$LT$proc_macro2..token_stream..IntoIter$C$quote..__private..respan_token_tree..$u7b$$u7b$closure$u7d$$u7d$$GT$$GT$17h3ab324330759af7aE:
Lfunc_begin73:
	.loc	16 490 0
	.cfi_startproc
	pushq	%rbp
	.cfi_def_cfa_offset 16
	.cfi_offset %rbp, -16
	movq	%rsp, %rbp
	.cfi_def_cfa_register %rbp
	subq	$16, %rsp
	movq	%rdi, -8(%rbp)
Ltmp860:
	.loc	16 490 1 prologue_end
	addq	$8, %rdi
	callq	__ZN4core3ptr56drop_in_place$LT$proc_macro2..token_stream..IntoIter$GT$17h671ab9d82e552e5dE
	addq	$16, %rsp
	popq	%rbp
	retq
Ltmp861:
Lfunc_end73:
	.cfi_endproc

	.globl	__ZN4core3ptr239drop_in_place$LT$core..iter..adapters..map..Map$LT$core..iter..adapters..map..Map$LT$proc_macro2..token_stream..IntoIter$C$quote..__private..respan_token_tree..$u7b$$u7b$closure$u7d$$u7d$$GT$$C$proc_macro2..imp..into_compiler_token$GT$$GT$17h98a1702cc3a9433eE
	.p2align	4, 0x90
__ZN4core3ptr239drop_in_place$LT$core..iter..adapters..map..Map$LT$core..iter..adapters..map..Map$LT$proc_macro2..token_stream..IntoIter$C$quote..__private..respan_token_tree..$u7b$$u7b$closure$u7d$$u7d$$GT$$C$proc_macro2..imp..into_compiler_token$GT$$GT$17h98a1702cc3a9433eE:
Lfunc_begin74:
	.loc	16 490 0
	.cfi_startproc
	pushq	%rbp
	.cfi_def_cfa_offset 16
	.cfi_offset %rbp, -16
	movq	%rsp, %rbp
	.cfi_def_cfa_register %rbp
	subq	$16, %rsp
	movq	%rdi, -8(%rbp)
Ltmp862:
	.loc	16 490 1 prologue_end
	callq	__ZN4core3ptr161drop_in_place$LT$core..iter..adapters..map..Map$LT$proc_macro2..token_stream..IntoIter$C$quote..__private..respan_token_tree..$u7b$$u7b$closure$u7d$$u7d$$GT$$GT$17h3ab324330759af7aE
	addq	$16, %rsp
	popq	%rbp
	retq
Ltmp863:
Lfunc_end74:
	.cfi_endproc

	.globl	__ZN4core3ptr344drop_in_place$LT$core..iter..adapters..map..Map$LT$core..iter..sources..once..Once$LT$proc_macro2..TokenStream$GT$$C$$LT$proc_macro2..TokenStream$u20$as$u20$core..iter..traits..collect..Extend$LT$proc_macro2..TokenStream$GT$$GT$..extend$LT$core..iter..sources..once..Once$LT$proc_macro2..TokenStream$GT$$GT$..$u7b$$u7b$closure$u7d$$u7d$$GT$$GT$17h74c0836341825557E
	.p2align	4, 0x90
__ZN4core3ptr344drop_in_place$LT$core..iter..adapters..map..Map$LT$core..iter..sources..once..Once$LT$proc_macro2..TokenStream$GT$$C$$LT$proc_macro2..TokenStream$u20$as$u20$core..iter..traits..collect..Extend$LT$proc_macro2..TokenStream$GT$$GT$..extend$LT$core..iter..sources..once..Once$LT$proc_macro2..TokenStream$GT$$GT$..$u7b$$u7b$closure$u7d$$u7d$$GT$$GT$17h74c0836341825557E:
Lfunc_begin75:
	.loc	16 490 0
	.cfi_startproc
	pushq	%rbp
	.cfi_def_cfa_offset 16
	.cfi_offset %rbp, -16
	movq	%rsp, %rbp
	.cfi_def_cfa_register %rbp
	subq	$16, %rsp
	movq	%rdi, -8(%rbp)
Ltmp864:
	.loc	16 490 1 prologue_end
	callq	__ZN4core3ptr84drop_in_place$LT$core..iter..sources..once..Once$LT$proc_macro2..TokenStream$GT$$GT$17h9dd1c3b059c709f8E
	addq	$16, %rsp
	popq	%rbp
	retq
Ltmp865:
Lfunc_end75:
	.cfi_endproc

	.globl	__ZN4core3ptr429drop_in_place$LT$core..iter..adapters..map..Map$LT$core..iter..adapters..map..Map$LT$core..iter..sources..once..Once$LT$proc_macro2..TokenStream$GT$$C$$LT$proc_macro2..TokenStream$u20$as$u20$core..iter..traits..collect..Extend$LT$proc_macro2..TokenStream$GT$$GT$..extend$LT$core..iter..sources..once..Once$LT$proc_macro2..TokenStream$GT$$GT$..$u7b$$u7b$closure$u7d$$u7d$$GT$$C$proc_macro2..imp..TokenStream..unwrap_stable$GT$$GT$17h4931563740379224E
	.p2align	4, 0x90
__ZN4core3ptr429drop_in_place$LT$core..iter..adapters..map..Map$LT$core..iter..adapters..map..Map$LT$core..iter..sources..once..Once$LT$proc_macro2..TokenStream$GT$$C$$LT$proc_macro2..TokenStream$u20$as$u20$core..iter..traits..collect..Extend$LT$proc_macro2..TokenStream$GT$$GT$..extend$LT$core..iter..sources..once..Once$LT$proc_macro2..TokenStream$GT$$GT$..$u7b$$u7b$closure$u7d$$u7d$$GT$$C$proc_macro2..imp..TokenStream..unwrap_stable$GT$$GT$17h4931563740379224E:
Lfunc_begin76:
	.loc	16 490 0
	.cfi_startproc
	pushq	%rbp
	.cfi_def_cfa_offset 16
	.cfi_offset %rbp, -16
	movq	%rsp, %rbp
	.cfi_def_cfa_register %rbp
	subq	$16, %rsp
	movq	%rdi, -8(%rbp)
Ltmp866:
	.loc	16 490 1 prologue_end
	callq	__ZN4core3ptr344drop_in_place$LT$core..iter..adapters..map..Map$LT$core..iter..sources..once..Once$LT$proc_macro2..TokenStream$GT$$C$$LT$proc_macro2..TokenStream$u20$as$u20$core..iter..traits..collect..Extend$LT$proc_macro2..TokenStream$GT$$GT$..extend$LT$core..iter..sources..once..Once$LT$proc_macro2..TokenStream$GT$$GT$..$u7b$$u7b$closure$u7d$$u7d$$GT$$GT$17h74c0836341825557E
	addq	$16, %rsp
	popq	%rbp
	retq
Ltmp867:
Lfunc_end76:
	.cfi_endproc

	.p2align	4, 0x90
__ZN4core3ptr42drop_in_place$LT$proc_macro2..LexError$GT$17h42ec3df7bb08776eE:
Lfunc_begin77:
	.loc	16 490 0
	.cfi_startproc
	pushq	%rbp
	.cfi_def_cfa_offset 16
	.cfi_offset %rbp, -16
	movq	%rsp, %rbp
	.cfi_def_cfa_register %rbp
	pushq	%rax
	movq	%rdi, -8(%rbp)
Ltmp868:
	.loc	16 490 1 prologue_end
	addq	$8, %rsp
	popq	%rbp
	retq
Ltmp869:
Lfunc_end77:
	.cfi_endproc

	.globl	__ZN4core3ptr430drop_in_place$LT$core..iter..adapters..map..Map$LT$core..iter..adapters..map..Map$LT$core..iter..sources..once..Once$LT$proc_macro2..TokenStream$GT$$C$$LT$proc_macro2..TokenStream$u20$as$u20$core..iter..traits..collect..Extend$LT$proc_macro2..TokenStream$GT$$GT$..extend$LT$core..iter..sources..once..Once$LT$proc_macro2..TokenStream$GT$$GT$..$u7b$$u7b$closure$u7d$$u7d$$GT$$C$proc_macro2..imp..TokenStream..unwrap_nightly$GT$$GT$17ha339318388eebf1fE
	.p2align	4, 0x90
__ZN4core3ptr430drop_in_place$LT$core..iter..adapters..map..Map$LT$core..iter..adapters..map..Map$LT$core..iter..sources..once..Once$LT$proc_macro2..TokenStream$GT$$C$$LT$proc_macro2..TokenStream$u20$as$u20$core..iter..traits..collect..Extend$LT$proc_macro2..TokenStream$GT$$GT$..extend$LT$core..iter..sources..once..Once$LT$proc_macro2..TokenStream$GT$$GT$..$u7b$$u7b$closure$u7d$$u7d$$GT$$C$proc_macro2..imp..TokenStream..unwrap_nightly$GT$$GT$17ha339318388eebf1fE:
Lfunc_begin78:
	.loc	16 490 0
	.cfi_startproc
	pushq	%rbp
	.cfi_def_cfa_offset 16
	.cfi_offset %rbp, -16
	movq	%rsp, %rbp
	.cfi_def_cfa_register %rbp
	subq	$16, %rsp
	movq	%rdi, -8(%rbp)
Ltmp870:
	.loc	16 490 1 prologue_end
	callq	__ZN4core3ptr344drop_in_place$LT$core..iter..adapters..map..Map$LT$core..iter..sources..once..Once$LT$proc_macro2..TokenStream$GT$$C$$LT$proc_macro2..TokenStream$u20$as$u20$core..iter..traits..collect..Extend$LT$proc_macro2..TokenStream$GT$$GT$..extend$LT$core..iter..sources..once..Once$LT$proc_macro2..TokenStream$GT$$GT$..$u7b$$u7b$closure$u7d$$u7d$$GT$$GT$17h74c0836341825557E
	addq	$16, %rsp
	popq	%rbp
	retq
Ltmp871:
Lfunc_end78:
	.cfi_endproc

	.globl	__ZN4core3ptr457drop_in_place$LT$core..option..Option$LT$core..iter..adapters..map..Map$LT$core..iter..adapters..map..Map$LT$core..iter..sources..once..Once$LT$proc_macro2..TokenStream$GT$$C$$LT$proc_macro2..TokenStream$u20$as$u20$core..iter..traits..collect..Extend$LT$proc_macro2..TokenStream$GT$$GT$..extend$LT$core..iter..sources..once..Once$LT$proc_macro2..TokenStream$GT$$GT$..$u7b$$u7b$closure$u7d$$u7d$$GT$$C$proc_macro2..imp..TokenStream..unwrap_stable$GT$$GT$$GT$17hbaa2dc6b690b2abdE
	.p2align	4, 0x90
__ZN4core3ptr457drop_in_place$LT$core..option..Option$LT$core..iter..adapters..map..Map$LT$core..iter..adapters..map..Map$LT$core..iter..sources..once..Once$LT$proc_macro2..TokenStream$GT$$C$$LT$proc_macro2..TokenStream$u20$as$u20$core..iter..traits..collect..Extend$LT$proc_macro2..TokenStream$GT$$GT$..extend$LT$core..iter..sources..once..Once$LT$proc_macro2..TokenStream$GT$$GT$..$u7b$$u7b$closure$u7d$$u7d$$GT$$C$proc_macro2..imp..TokenStream..unwrap_stable$GT$$GT$$GT$17hbaa2dc6b690b2abdE:
Lfunc_begin79:
	.loc	16 490 0
	.cfi_startproc
	pushq	%rbp
	.cfi_def_cfa_offset 16
	.cfi_offset %rbp, -16
	movq	%rsp, %rbp
	.cfi_def_cfa_register %rbp
	subq	$16, %rsp
	movq	%rdi, -16(%rbp)
	movq	%rdi, -8(%rbp)
Ltmp872:
	.loc	16 490 1 prologue_end
	movl	$1, %eax
	xorl	%ecx, %ecx
	cmpq	$2, (%rdi)
	cmoveq	%rcx, %rax
	cmpq	$0, %rax
	jne	LBB79_2
LBB79_1:
	addq	$16, %rsp
	popq	%rbp
	retq
LBB79_2:
	.loc	16 0 1 is_stmt 0
	movq	-16(%rbp), %rdi
	.loc	16 490 1
	callq	__ZN4core3ptr429drop_in_place$LT$core..iter..adapters..map..Map$LT$core..iter..adapters..map..Map$LT$core..iter..sources..once..Once$LT$proc_macro2..TokenStream$GT$$C$$LT$proc_macro2..TokenStream$u20$as$u20$core..iter..traits..collect..Extend$LT$proc_macro2..TokenStream$GT$$GT$..extend$LT$core..iter..sources..once..Once$LT$proc_macro2..TokenStream$GT$$GT$..$u7b$$u7b$closure$u7d$$u7d$$GT$$C$proc_macro2..imp..TokenStream..unwrap_stable$GT$$GT$17h4931563740379224E
	jmp	LBB79_1
Ltmp873:
Lfunc_end79:
	.cfi_endproc

	.globl	__ZN4core3ptr45drop_in_place$LT$proc_macro2..TokenStream$GT$17h53ffe9a52c76655eE
	.p2align	4, 0x90
__ZN4core3ptr45drop_in_place$LT$proc_macro2..TokenStream$GT$17h53ffe9a52c76655eE:
Lfunc_begin80:
	.loc	16 490 0 is_stmt 1
	.cfi_startproc
	pushq	%rbp
	.cfi_def_cfa_offset 16
	.cfi_offset %rbp, -16
	movq	%rsp, %rbp
	.cfi_def_cfa_register %rbp
	subq	$16, %rsp
	movq	%rdi, -8(%rbp)
Ltmp874:
	.loc	16 490 1 prologue_end
	callq	__ZN4core3ptr50drop_in_place$LT$proc_macro2..imp..TokenStream$GT$17hdf4ce4cfc8835cc5E
	addq	$16, %rsp
	popq	%rbp
	retq
Ltmp875:
Lfunc_end80:
	.cfi_endproc

	.globl	__ZN4core3ptr469drop_in_place$LT$core..iter..adapters..fuse..Fuse$LT$core..iter..adapters..map..Map$LT$core..iter..adapters..map..Map$LT$core..iter..sources..once..Once$LT$proc_macro2..TokenStream$GT$$C$$LT$proc_macro2..TokenStream$u20$as$u20$core..iter..traits..collect..Extend$LT$proc_macro2..TokenStream$GT$$GT$..extend$LT$core..iter..sources..once..Once$LT$proc_macro2..TokenStream$GT$$GT$..$u7b$$u7b$closure$u7d$$u7d$$GT$$C$proc_macro2..imp..TokenStream..unwrap_stable$GT$$GT$$GT$17h841c9c3a1cc2e089E
	.p2align	4, 0x90
__ZN4core3ptr469drop_in_place$LT$core..iter..adapters..fuse..Fuse$LT$core..iter..adapters..map..Map$LT$core..iter..adapters..map..Map$LT$core..iter..sources..once..Once$LT$proc_macro2..TokenStream$GT$$C$$LT$proc_macro2..TokenStream$u20$as$u20$core..iter..traits..collect..Extend$LT$proc_macro2..TokenStream$GT$$GT$..extend$LT$core..iter..sources..once..Once$LT$proc_macro2..TokenStream$GT$$GT$..$u7b$$u7b$closure$u7d$$u7d$$GT$$C$proc_macro2..imp..TokenStream..unwrap_stable$GT$$GT$$GT$17h841c9c3a1cc2e089E:
Lfunc_begin81:
	.loc	16 490 0
	.cfi_startproc
	pushq	%rbp
	.cfi_def_cfa_offset 16
	.cfi_offset %rbp, -16
	movq	%rsp, %rbp
	.cfi_def_cfa_register %rbp
	subq	$16, %rsp
	movq	%rdi, -8(%rbp)
Ltmp876:
	.loc	16 490 1 prologue_end
	callq	__ZN4core3ptr457drop_in_place$LT$core..option..Option$LT$core..iter..adapters..map..Map$LT$core..iter..adapters..map..Map$LT$core..iter..sources..once..Once$LT$proc_macro2..TokenStream$GT$$C$$LT$proc_macro2..TokenStream$u20$as$u20$core..iter..traits..collect..Extend$LT$proc_macro2..TokenStream$GT$$GT$..extend$LT$core..iter..sources..once..Once$LT$proc_macro2..TokenStream$GT$$GT$..$u7b$$u7b$closure$u7d$$u7d$$GT$$C$proc_macro2..imp..TokenStream..unwrap_stable$GT$$GT$$GT$17hbaa2dc6b690b2abdE
	addq	$16, %rsp
	popq	%rbp
	retq
Ltmp877:
Lfunc_end81:
	.cfi_endproc

	.globl	__ZN4core3ptr475drop_in_place$LT$core..iter..adapters..flatten..Flatten$LT$core..iter..adapters..map..Map$LT$core..iter..adapters..map..Map$LT$core..iter..sources..once..Once$LT$proc_macro2..TokenStream$GT$$C$$LT$proc_macro2..TokenStream$u20$as$u20$core..iter..traits..collect..Extend$LT$proc_macro2..TokenStream$GT$$GT$..extend$LT$core..iter..sources..once..Once$LT$proc_macro2..TokenStream$GT$$GT$..$u7b$$u7b$closure$u7d$$u7d$$GT$$C$proc_macro2..imp..TokenStream..unwrap_stable$GT$$GT$$GT$17hb607598eb573b75bE
	.p2align	4, 0x90
__ZN4core3ptr475drop_in_place$LT$core..iter..adapters..flatten..Flatten$LT$core..iter..adapters..map..Map$LT$core..iter..adapters..map..Map$LT$core..iter..sources..once..Once$LT$proc_macro2..TokenStream$GT$$C$$LT$proc_macro2..TokenStream$u20$as$u20$core..iter..traits..collect..Extend$LT$proc_macro2..TokenStream$GT$$GT$..extend$LT$core..iter..sources..once..Once$LT$proc_macro2..TokenStream$GT$$GT$..$u7b$$u7b$closure$u7d$$u7d$$GT$$C$proc_macro2..imp..TokenStream..unwrap_stable$GT$$GT$$GT$17hb607598eb573b75bE:
Lfunc_begin82:
	.loc	16 490 0
	.cfi_startproc
	pushq	%rbp
	.cfi_def_cfa_offset 16
	.cfi_offset %rbp, -16
	movq	%rsp, %rbp
	.cfi_def_cfa_register %rbp
	subq	$16, %rsp
	movq	%rdi, -8(%rbp)
Ltmp878:
	.loc	16 490 1 prologue_end
	callq	__ZN4core3ptr547drop_in_place$LT$core..iter..adapters..flatten..FlattenCompat$LT$core..iter..adapters..map..Map$LT$core..iter..adapters..map..Map$LT$core..iter..sources..once..Once$LT$proc_macro2..TokenStream$GT$$C$$LT$proc_macro2..TokenStream$u20$as$u20$core..iter..traits..collect..Extend$LT$proc_macro2..TokenStream$GT$$GT$..extend$LT$core..iter..sources..once..Once$LT$proc_macro2..TokenStream$GT$$GT$..$u7b$$u7b$closure$u7d$$u7d$$GT$$C$proc_macro2..imp..TokenStream..unwrap_stable$GT$$C$proc_macro2..rcvec..RcVecIntoIter$LT$proc_macro2..TokenTree$GT$$GT$$GT$17h95585c417d858e59E
	addq	$16, %rsp
	popq	%rbp
	retq
Ltmp879:
Lfunc_end82:
	.cfi_endproc

	.globl	__ZN4core3ptr52drop_in_place$LT$proc_macro..ConcatStreamsHelper$GT$17hc1b6b212edd8d51aE
	.p2align	4, 0x90
__ZN4core3ptr52drop_in_place$LT$proc_macro..ConcatStreamsHelper$GT$17hc1b6b212edd8d51aE:
Lfunc_begin83:
	.loc	16 490 0
	.cfi_startproc
	pushq	%rbp
	.cfi_def_cfa_offset 16
	.cfi_offset %rbp, -16
	movq	%rsp, %rbp
	.cfi_def_cfa_register %rbp
	subq	$16, %rsp
	movq	%rdi, -8(%rbp)
Ltmp880:
	.loc	16 490 1 prologue_end
	callq	__ZN4core3ptr83drop_in_place$LT$alloc..vec..Vec$LT$proc_macro..bridge..client..TokenStream$GT$$GT$17h7f7d272ee24b0eb3E
	addq	$16, %rsp
	popq	%rbp
	retq
Ltmp881:
Lfunc_end83:
	.cfi_endproc

	.globl	__ZN4core3ptr547drop_in_place$LT$core..iter..adapters..flatten..FlattenCompat$LT$core..iter..adapters..map..Map$LT$core..iter..adapters..map..Map$LT$core..iter..sources..once..Once$LT$proc_macro2..TokenStream$GT$$C$$LT$proc_macro2..TokenStream$u20$as$u20$core..iter..traits..collect..Extend$LT$proc_macro2..TokenStream$GT$$GT$..extend$LT$core..iter..sources..once..Once$LT$proc_macro2..TokenStream$GT$$GT$..$u7b$$u7b$closure$u7d$$u7d$$GT$$C$proc_macro2..imp..TokenStream..unwrap_stable$GT$$C$proc_macro2..rcvec..RcVecIntoIter$LT$proc_macro2..TokenTree$GT$$GT$$GT$17h95585c417d858e59E
	.p2align	4, 0x90
__ZN4core3ptr547drop_in_place$LT$core..iter..adapters..flatten..FlattenCompat$LT$core..iter..adapters..map..Map$LT$core..iter..adapters..map..Map$LT$core..iter..sources..once..Once$LT$proc_macro2..TokenStream$GT$$C$$LT$proc_macro2..TokenStream$u20$as$u20$core..iter..traits..collect..Extend$LT$proc_macro2..TokenStream$GT$$GT$..extend$LT$core..iter..sources..once..Once$LT$proc_macro2..TokenStream$GT$$GT$..$u7b$$u7b$closure$u7d$$u7d$$GT$$C$proc_macro2..imp..TokenStream..unwrap_stable$GT$$C$proc_macro2..rcvec..RcVecIntoIter$LT$proc_macro2..TokenTree$GT$$GT$$GT$17h95585c417d858e59E:
Lfunc_begin84:
	.loc	16 490 0
	.cfi_startproc
	.cfi_personality 155, _rust_eh_personality
	.cfi_lsda 16, Lexception28
	pushq	%rbp
	.cfi_def_cfa_offset 16
	.cfi_offset %rbp, -16
	movq	%rsp, %rbp
	.cfi_def_cfa_register %rbp
	subq	$32, %rsp
	movq	%rdi, -32(%rbp)
	movq	%rdi, -24(%rbp)
Ltmp893:
	.loc	16 490 1 prologue_end
	addq	$64, %rdi
Ltmp882:
	callq	__ZN4core3ptr469drop_in_place$LT$core..iter..adapters..fuse..Fuse$LT$core..iter..adapters..map..Map$LT$core..iter..adapters..map..Map$LT$core..iter..sources..once..Once$LT$proc_macro2..TokenStream$GT$$C$$LT$proc_macro2..TokenStream$u20$as$u20$core..iter..traits..collect..Extend$LT$proc_macro2..TokenStream$GT$$GT$..extend$LT$core..iter..sources..once..Once$LT$proc_macro2..TokenStream$GT$$GT$..$u7b$$u7b$closure$u7d$$u7d$$GT$$C$proc_macro2..imp..TokenStream..unwrap_stable$GT$$GT$$GT$17h841c9c3a1cc2e089E
Ltmp883:
	jmp	LBB84_3
LBB84_1:
Ltmp885:
	.loc	16 0 1 is_stmt 0
	movq	-32(%rbp), %rdi
	.loc	16 490 1
	callq	__ZN4core3ptr112drop_in_place$LT$core..option..Option$LT$proc_macro2..rcvec..RcVecIntoIter$LT$proc_macro2..TokenTree$GT$$GT$$GT$17h76a342d942a9bb65E
Ltmp886:
	jmp	LBB84_5
LBB84_2:
Ltmp884:
	.loc	16 0 1
	movq	%rax, %rcx
	movl	%edx, %eax
	movq	%rcx, -16(%rbp)
	movl	%eax, -8(%rbp)
	jmp	LBB84_1
LBB84_3:
Ltmp887:
	movq	-32(%rbp), %rdi
	.loc	16 490 1
	callq	__ZN4core3ptr112drop_in_place$LT$core..option..Option$LT$proc_macro2..rcvec..RcVecIntoIter$LT$proc_macro2..TokenTree$GT$$GT$$GT$17h76a342d942a9bb65E
Ltmp888:
	jmp	LBB84_7
LBB84_4:
Ltmp892:
	callq	__ZN4core9panicking19panic_cannot_unwind17h1fbca7e1d7f56ae1E
LBB84_5:
	.loc	16 0 1
	movq	-32(%rbp), %rdi
	.loc	16 490 1
	addq	$32, %rdi
Ltmp890:
	callq	__ZN4core3ptr112drop_in_place$LT$core..option..Option$LT$proc_macro2..rcvec..RcVecIntoIter$LT$proc_macro2..TokenTree$GT$$GT$$GT$17h76a342d942a9bb65E
Ltmp891:
	jmp	LBB84_8
LBB84_6:
Ltmp889:
	.loc	16 0 1
	movq	%rax, %rcx
	movl	%edx, %eax
	movq	%rcx, -16(%rbp)
	movl	%eax, -8(%rbp)
	jmp	LBB84_5
LBB84_7:
	movq	-32(%rbp), %rdi
	.loc	16 490 1
	addq	$32, %rdi
	callq	__ZN4core3ptr112drop_in_place$LT$core..option..Option$LT$proc_macro2..rcvec..RcVecIntoIter$LT$proc_macro2..TokenTree$GT$$GT$$GT$17h76a342d942a9bb65E
	addq	$32, %rsp
	popq	%rbp
	retq
LBB84_8:
	movq	-16(%rbp), %rdi
	callq	__Unwind_Resume
Ltmp894:
Lfunc_end84:
	.cfi_endproc
	.section	__TEXT,__gcc_except_tab
	.p2align	2
GCC_except_table84:
Lexception28:
	.byte	255
	.byte	255
	.byte	1
	.uleb128 Lcst_end28-Lcst_begin28
Lcst_begin28:
	.uleb128 Ltmp882-Lfunc_begin84
	.uleb128 Ltmp883-Ltmp882
	.uleb128 Ltmp884-Lfunc_begin84
	.byte	0
	.uleb128 Ltmp885-Lfunc_begin84
	.uleb128 Ltmp886-Ltmp885
	.uleb128 Ltmp892-Lfunc_begin84
	.byte	0
	.uleb128 Ltmp887-Lfunc_begin84
	.uleb128 Ltmp888-Ltmp887
	.uleb128 Ltmp889-Lfunc_begin84
	.byte	0
	.uleb128 Ltmp890-Lfunc_begin84
	.uleb128 Ltmp891-Ltmp890
	.uleb128 Ltmp892-Lfunc_begin84
	.byte	0
	.uleb128 Ltmp891-Lfunc_begin84
	.uleb128 Lfunc_end84-Ltmp891
	.byte	0
	.byte	0
Lcst_end28:
	.p2align	2

	.section	__TEXT,__text,regular,pure_instructions
	.globl	__ZN4core3ptr69drop_in_place$LT$core..option..Item$LT$proc_macro2..TokenTree$GT$$GT$17hb1c130f023a8f758E
	.p2align	4, 0x90
__ZN4core3ptr69drop_in_place$LT$core..option..Item$LT$proc_macro2..TokenTree$GT$$GT$17hb1c130f023a8f758E:
Lfunc_begin85:
	.loc	16 490 0 is_stmt 1
	.cfi_startproc
	pushq	%rbp
	.cfi_def_cfa_offset 16
	.cfi_offset %rbp, -16
	movq	%rsp, %rbp
	.cfi_def_cfa_register %rbp
	subq	$16, %rsp
	movq	%rdi, -8(%rbp)
Ltmp895:
	.loc	16 490 1 prologue_end
	callq	__ZN4core3ptr71drop_in_place$LT$core..option..Option$LT$proc_macro2..TokenTree$GT$$GT$17h6244b51dcc638303E
	addq	$16, %rsp
	popq	%rbp
	retq
Ltmp896:
Lfunc_end85:
	.cfi_endproc

	.globl	__ZN4core3ptr70drop_in_place$LT$$u5b$proc_macro..bridge..client..TokenStream$u5d$$GT$17h073bbea554faf36dE
	.p2align	4, 0x90
__ZN4core3ptr70drop_in_place$LT$$u5b$proc_macro..bridge..client..TokenStream$u5d$$GT$17h073bbea554faf36dE:
Lfunc_begin86:
	.loc	16 490 0
	.cfi_startproc
	.cfi_personality 155, _rust_eh_personality
	.cfi_lsda 16, Lexception29
	pushq	%rbp
	.cfi_def_cfa_offset 16
	.cfi_offset %rbp, -16
	movq	%rsp, %rbp
	.cfi_def_cfa_register %rbp
	subq	$80, %rsp
	movq	%rdi, -64(%rbp)
	movq	%rsi, -56(%rbp)
	movq	%rdi, -32(%rbp)
	movq	%rsi, -24(%rbp)
Ltmp908:
	.loc	16 490 1 prologue_end
	xorl	%eax, %eax
	testb	$1, %al
	jne	LBB86_1
	jmp	LBB86_2
LBB86_1:
	movq	$0, -48(%rbp)
	jmp	LBB86_11
LBB86_2:
	.loc	16 0 1 is_stmt 0
	movq	-56(%rbp), %rax
	movq	-64(%rbp), %rcx
	.loc	16 490 1
	movq	%rcx, -40(%rbp)
	shlq	$2, %rax
	addq	-40(%rbp), %rax
	movq	%rax, -72(%rbp)
LBB86_3:
	.loc	16 0 1
	movq	-72(%rbp), %rax
	.loc	16 490 1
	cmpq	%rax, -40(%rbp)
	je	LBB86_5
	movq	-40(%rbp), %rdi
	movq	%rdi, %rax
	addq	$4, %rax
	movq	%rax, -40(%rbp)
Ltmp897:
	callq	__ZN4core3ptr60drop_in_place$LT$proc_macro..bridge..client..TokenStream$GT$17h4d8e73b62da42f3eE
Ltmp898:
	jmp	LBB86_3
LBB86_5:
	addq	$80, %rsp
	popq	%rbp
	retq
LBB86_6:
	.loc	16 0 1
	movq	-72(%rbp), %rax
	.loc	16 490 1
	cmpq	%rax, -40(%rbp)
	je	LBB86_9
	jmp	LBB86_8
LBB86_7:
Ltmp899:
	.loc	16 0 1
	movq	%rax, %rcx
	movl	%edx, %eax
	movq	%rcx, -16(%rbp)
	movl	%eax, -8(%rbp)
	jmp	LBB86_6
LBB86_8:
	.loc	16 490 1
	movq	-40(%rbp), %rdi
	movq	%rdi, %rax
	addq	$4, %rax
	movq	%rax, -40(%rbp)
Ltmp900:
	callq	__ZN4core3ptr60drop_in_place$LT$proc_macro..bridge..client..TokenStream$GT$17h4d8e73b62da42f3eE
Ltmp901:
	jmp	LBB86_6
LBB86_9:
	movq	-16(%rbp), %rdi
	callq	__Unwind_Resume
LBB86_10:
Ltmp907:
	callq	__ZN4core9panicking19panic_cannot_unwind17h1fbca7e1d7f56ae1E
LBB86_11:
	.loc	16 0 1
	movq	-56(%rbp), %rax
	.loc	16 490 1
	cmpq	%rax, -48(%rbp)
	je	LBB86_5
	.loc	16 0 1
	movq	-64(%rbp), %rcx
	.loc	16 490 1
	movq	-48(%rbp), %rax
	leaq	(%rcx,%rax,4), %rdi
	incq	%rax
	movq	%rax, -48(%rbp)
Ltmp902:
	callq	__ZN4core3ptr60drop_in_place$LT$proc_macro..bridge..client..TokenStream$GT$17h4d8e73b62da42f3eE
Ltmp903:
	jmp	LBB86_11
LBB86_13:
	.loc	16 0 1
	movq	-56(%rbp), %rax
	.loc	16 490 1
	cmpq	%rax, -48(%rbp)
	je	LBB86_9
	jmp	LBB86_15
LBB86_14:
Ltmp904:
	.loc	16 0 1
	movq	%rax, %rcx
	movl	%edx, %eax
	movq	%rcx, -16(%rbp)
	movl	%eax, -8(%rbp)
	jmp	LBB86_13
LBB86_15:
	movq	-64(%rbp), %rcx
	.loc	16 490 1
	movq	-48(%rbp), %rax
	leaq	(%rcx,%rax,4), %rdi
	incq	%rax
	movq	%rax, -48(%rbp)
Ltmp905:
	callq	__ZN4core3ptr60drop_in_place$LT$proc_macro..bridge..client..TokenStream$GT$17h4d8e73b62da42f3eE
Ltmp906:
	jmp	LBB86_13
Ltmp909:
Lfunc_end86:
	.cfi_endproc
	.section	__TEXT,__gcc_except_tab
	.p2align	2
GCC_except_table86:
Lexception29:
	.byte	255
	.byte	255
	.byte	1
	.uleb128 Lcst_end29-Lcst_begin29
Lcst_begin29:
	.uleb128 Ltmp897-Lfunc_begin86
	.uleb128 Ltmp898-Ltmp897
	.uleb128 Ltmp899-Lfunc_begin86
	.byte	0
	.uleb128 Ltmp900-Lfunc_begin86
	.uleb128 Ltmp901-Ltmp900
	.uleb128 Ltmp907-Lfunc_begin86
	.byte	0
	.uleb128 Ltmp901-Lfunc_begin86
	.uleb128 Ltmp902-Ltmp901
	.byte	0
	.byte	0
	.uleb128 Ltmp902-Lfunc_begin86
	.uleb128 Ltmp903-Ltmp902
	.uleb128 Ltmp904-Lfunc_begin86
	.byte	0
	.uleb128 Ltmp905-Lfunc_begin86
	.uleb128 Ltmp906-Ltmp905
	.uleb128 Ltmp907-Lfunc_begin86
	.byte	0
Lcst_end29:
	.p2align	2

	.section	__TEXT,__text,regular,pure_instructions
	.globl	__ZN4core3ptr71drop_in_place$LT$core..option..Item$LT$proc_macro2..TokenStream$GT$$GT$17h0ca69a250447e446E
	.p2align	4, 0x90
__ZN4core3ptr71drop_in_place$LT$core..option..Item$LT$proc_macro2..TokenStream$GT$$GT$17h0ca69a250447e446E:
Lfunc_begin87:
	.loc	16 490 0 is_stmt 1
	.cfi_startproc
	pushq	%rbp
	.cfi_def_cfa_offset 16
	.cfi_offset %rbp, -16
	movq	%rsp, %rbp
	.cfi_def_cfa_register %rbp
	subq	$16, %rsp
	movq	%rdi, -8(%rbp)
Ltmp910:
	.loc	16 490 1 prologue_end
	callq	__ZN4core3ptr73drop_in_place$LT$core..option..Option$LT$proc_macro2..TokenStream$GT$$GT$17ha391f0e5a0c1899fE
	addq	$16, %rsp
	popq	%rbp
	retq
Ltmp911:
Lfunc_end87:
	.cfi_endproc

	.globl	__ZN4core3ptr73drop_in_place$LT$core..option..IntoIter$LT$proc_macro2..TokenTree$GT$$GT$17h04f650c017f42558E
	.p2align	4, 0x90
__ZN4core3ptr73drop_in_place$LT$core..option..IntoIter$LT$proc_macro2..TokenTree$GT$$GT$17h04f650c017f42558E:
Lfunc_begin88:
	.loc	16 490 0
	.cfi_startproc
	pushq	%rbp
	.cfi_def_cfa_offset 16
	.cfi_offset %rbp, -16
	movq	%rsp, %rbp
	.cfi_def_cfa_register %rbp
	subq	$16, %rsp
	movq	%rdi, -8(%rbp)
Ltmp912:
	.loc	16 490 1 prologue_end
	callq	__ZN4core3ptr69drop_in_place$LT$core..option..Item$LT$proc_macro2..TokenTree$GT$$GT$17hb1c130f023a8f758E
	addq	$16, %rsp
	popq	%rbp
	retq
Ltmp913:
Lfunc_end88:
	.cfi_endproc

	.globl	__ZN4core3ptr73drop_in_place$LT$core..option..Option$LT$proc_macro2..TokenStream$GT$$GT$17ha391f0e5a0c1899fE
	.p2align	4, 0x90
__ZN4core3ptr73drop_in_place$LT$core..option..Option$LT$proc_macro2..TokenStream$GT$$GT$17ha391f0e5a0c1899fE:
Lfunc_begin89:
	.loc	16 490 0
	.cfi_startproc
	pushq	%rbp
	.cfi_def_cfa_offset 16
	.cfi_offset %rbp, -16
	movq	%rsp, %rbp
	.cfi_def_cfa_register %rbp
	subq	$16, %rsp
	movq	%rdi, -16(%rbp)
	movq	%rdi, -8(%rbp)
Ltmp914:
	.loc	16 490 1 prologue_end
	cmpq	$0, (%rdi)
	jne	LBB89_2
LBB89_1:
	addq	$16, %rsp
	popq	%rbp
	retq
LBB89_2:
	.loc	16 0 1 is_stmt 0
	movq	-16(%rbp), %rdi
	.loc	16 490 1
	addq	$8, %rdi
	callq	__ZN4core3ptr45drop_in_place$LT$proc_macro2..TokenStream$GT$17h53ffe9a52c76655eE
	jmp	LBB89_1
Ltmp915:
Lfunc_end89:
	.cfi_endproc

	.globl	__ZN4core3ptr75drop_in_place$LT$core..option..IntoIter$LT$proc_macro2..TokenStream$GT$$GT$17h2da462884f2637e2E
	.p2align	4, 0x90
__ZN4core3ptr75drop_in_place$LT$core..option..IntoIter$LT$proc_macro2..TokenStream$GT$$GT$17h2da462884f2637e2E:
Lfunc_begin90:
	.loc	16 490 0 is_stmt 1
	.cfi_startproc
	pushq	%rbp
	.cfi_def_cfa_offset 16
	.cfi_offset %rbp, -16
	movq	%rsp, %rbp
	.cfi_def_cfa_register %rbp
	subq	$16, %rsp
	movq	%rdi, -8(%rbp)
Ltmp916:
	.loc	16 490 1 prologue_end
	callq	__ZN4core3ptr71drop_in_place$LT$core..option..Item$LT$proc_macro2..TokenStream$GT$$GT$17h0ca69a250447e446E
	addq	$16, %rsp
	popq	%rbp
	retq
Ltmp917:
Lfunc_end90:
	.cfi_endproc

	.globl	__ZN4core3ptr82drop_in_place$LT$core..iter..sources..once..Once$LT$proc_macro2..TokenTree$GT$$GT$17h16a48431dbb4e5eaE
	.p2align	4, 0x90
__ZN4core3ptr82drop_in_place$LT$core..iter..sources..once..Once$LT$proc_macro2..TokenTree$GT$$GT$17h16a48431dbb4e5eaE:
Lfunc_begin91:
	.loc	16 490 0
	.cfi_startproc
	pushq	%rbp
	.cfi_def_cfa_offset 16
	.cfi_offset %rbp, -16
	movq	%rsp, %rbp
	.cfi_def_cfa_register %rbp
	subq	$16, %rsp
	movq	%rdi, -8(%rbp)
Ltmp918:
	.loc	16 490 1 prologue_end
	callq	__ZN4core3ptr73drop_in_place$LT$core..option..IntoIter$LT$proc_macro2..TokenTree$GT$$GT$17h04f650c017f42558E
	addq	$16, %rsp
	popq	%rbp
	retq
Ltmp919:
Lfunc_end91:
	.cfi_endproc

	.globl	__ZN4core3ptr83drop_in_place$LT$alloc..vec..Vec$LT$proc_macro..bridge..client..TokenStream$GT$$GT$17h7f7d272ee24b0eb3E
	.p2align	4, 0x90
__ZN4core3ptr83drop_in_place$LT$alloc..vec..Vec$LT$proc_macro..bridge..client..TokenStream$GT$$GT$17h7f7d272ee24b0eb3E:
Lfunc_begin92:
	.loc	16 490 0
	.cfi_startproc
	.cfi_personality 155, _rust_eh_personality
	.cfi_lsda 16, Lexception30
	pushq	%rbp
	.cfi_def_cfa_offset 16
	.cfi_offset %rbp, -16
	movq	%rsp, %rbp
	.cfi_def_cfa_register %rbp
	subq	$32, %rsp
	movq	%rdi, -32(%rbp)
	movq	%rdi, -24(%rbp)
Ltmp920:
Ltmp926:
	.loc	16 490 1 prologue_end
	callq	__ZN70_$LT$alloc..vec..Vec$LT$T$C$A$GT$$u20$as$u20$core..ops..drop..Drop$GT$4drop17h169411baf4826a56E
Ltmp921:
	jmp	LBB92_3
LBB92_1:
Ltmp923:
	.loc	16 0 1 is_stmt 0
	movq	-32(%rbp), %rdi
	.loc	16 490 1
	callq	__ZN4core3ptr90drop_in_place$LT$alloc..raw_vec..RawVec$LT$proc_macro..bridge..client..TokenStream$GT$$GT$17h79c8704b2d94bf81E
Ltmp924:
	jmp	LBB92_5
LBB92_2:
Ltmp922:
	.loc	16 0 1
	movq	%rax, %rcx
	movl	%edx, %eax
	movq	%rcx, -16(%rbp)
	movl	%eax, -8(%rbp)
	jmp	LBB92_1
LBB92_3:
	movq	-32(%rbp), %rdi
	.loc	16 490 1
	callq	__ZN4core3ptr90drop_in_place$LT$alloc..raw_vec..RawVec$LT$proc_macro..bridge..client..TokenStream$GT$$GT$17h79c8704b2d94bf81E
	addq	$32, %rsp
	popq	%rbp
	retq
LBB92_4:
Ltmp925:
	callq	__ZN4core9panicking19panic_cannot_unwind17h1fbca7e1d7f56ae1E
LBB92_5:
	movq	-16(%rbp), %rdi
	callq	__Unwind_Resume
Ltmp927:
Lfunc_end92:
	.cfi_endproc
	.section	__TEXT,__gcc_except_tab
	.p2align	2
GCC_except_table92:
Lexception30:
	.byte	255
	.byte	255
	.byte	1
	.uleb128 Lcst_end30-Lcst_begin30
Lcst_begin30:
	.uleb128 Ltmp920-Lfunc_begin92
	.uleb128 Ltmp921-Ltmp920
	.uleb128 Ltmp922-Lfunc_begin92
	.byte	0
	.uleb128 Ltmp923-Lfunc_begin92
	.uleb128 Ltmp924-Ltmp923
	.uleb128 Ltmp925-Lfunc_begin92
	.byte	0
	.uleb128 Ltmp924-Lfunc_begin92
	.uleb128 Lfunc_end92-Ltmp924
	.byte	0
	.byte	0
Lcst_end30:
	.p2align	2

	.section	__TEXT,__text,regular,pure_instructions
	.globl	__ZN4core3ptr84drop_in_place$LT$core..iter..sources..once..Once$LT$proc_macro2..TokenStream$GT$$GT$17h9dd1c3b059c709f8E
	.p2align	4, 0x90
__ZN4core3ptr84drop_in_place$LT$core..iter..sources..once..Once$LT$proc_macro2..TokenStream$GT$$GT$17h9dd1c3b059c709f8E:
Lfunc_begin93:
	.loc	16 490 0 is_stmt 1
	.cfi_startproc
	pushq	%rbp
	.cfi_def_cfa_offset 16
	.cfi_offset %rbp, -16
	movq	%rsp, %rbp
	.cfi_def_cfa_register %rbp
	subq	$16, %rsp
	movq	%rdi, -8(%rbp)
Ltmp928:
	.loc	16 490 1 prologue_end
	callq	__ZN4core3ptr75drop_in_place$LT$core..option..IntoIter$LT$proc_macro2..TokenStream$GT$$GT$17h2da462884f2637e2E
	addq	$16, %rsp
	popq	%rbp
	retq
Ltmp929:
Lfunc_end93:
	.cfi_endproc

	.globl	__ZN4core3ptr90drop_in_place$LT$alloc..raw_vec..RawVec$LT$proc_macro..bridge..client..TokenStream$GT$$GT$17h79c8704b2d94bf81E
	.p2align	4, 0x90
__ZN4core3ptr90drop_in_place$LT$alloc..raw_vec..RawVec$LT$proc_macro..bridge..client..TokenStream$GT$$GT$17h79c8704b2d94bf81E:
Lfunc_begin94:
	.loc	16 490 0
	.cfi_startproc
	pushq	%rbp
	.cfi_def_cfa_offset 16
	.cfi_offset %rbp, -16
	movq	%rsp, %rbp
	.cfi_def_cfa_register %rbp
	subq	$16, %rsp
	movq	%rdi, -8(%rbp)
Ltmp930:
	.loc	16 490 1 prologue_end
	callq	__ZN77_$LT$alloc..raw_vec..RawVec$LT$T$C$A$GT$$u20$as$u20$core..ops..drop..Drop$GT$4drop17h7d3bd24e8e39b47dE
	addq	$16, %rsp
	popq	%rbp
	retq
Ltmp931:
Lfunc_end94:
	.cfi_endproc

	.p2align	4, 0x90
__ZN4core3str21_$LT$impl$u20$str$GT$16is_char_boundary17hd8ba067c64cac388E:
Lfunc_begin95:
	.file	20 "/rustc/2c8cc343237b8f7d5a3c3703e3a87f2eb2c54a74/library/core/src/str" "mod.rs"
	.loc	20 211 0
	.cfi_startproc
	pushq	%rbp
	.cfi_def_cfa_offset 16
	.cfi_offset %rbp, -16
	movq	%rsp, %rbp
	.cfi_def_cfa_register %rbp
	subq	$176, %rsp
	movq	%rdi, -176(%rbp)
	movq	%rsi, -168(%rbp)
	movq	%rdx, -160(%rbp)
	movq	%rdi, -136(%rbp)
	movq	%rsi, -128(%rbp)
	movq	%rdx, -120(%rbp)
Ltmp932:
	.loc	20 216 12 prologue_end
	cmpq	$0, %rdx
	jne	LBB95_2
	.loc	20 217 20
	movb	$1, -145(%rbp)
	.loc	20 234 6
	jmp	LBB95_6
LBB95_2:
	.loc	20 0 6 is_stmt 0
	movq	-160(%rbp), %rdi
	movq	-168(%rbp), %rax
	movq	-176(%rbp), %rcx
	.loc	20 220 15 is_stmt 1
	movq	%rcx, -112(%rbp)
	movq	%rax, -104(%rbp)
Ltmp933:
	.loc	20 327 18
	movq	%rcx, -96(%rbp)
	movq	%rax, -88(%rbp)
	movq	-96(%rbp), %rsi
	movq	-88(%rbp), %rdx
Ltmp934:
	.loc	20 220 15
	movq	%rsi, -80(%rbp)
	movq	%rdx, -72(%rbp)
	.loc	20 220 35 is_stmt 0
	movq	%rdi, -64(%rbp)
Ltmp935:
	.file	21 "/rustc/2c8cc343237b8f7d5a3c3703e3a87f2eb2c54a74/library/core/src/slice" "mod.rs"
	.loc	21 343 9 is_stmt 1
	callq	__ZN75_$LT$usize$u20$as$u20$core..slice..index..SliceIndex$LT$$u5b$T$u5d$$GT$$GT$3get17h6e45836ab7d3b0d4E
	movq	%rax, -144(%rbp)
Ltmp936:
	.loc	20 220 15
	movq	-144(%rbp), %rdx
	movl	$1, %eax
	xorl	%ecx, %ecx
	cmpq	$0, %rdx
	cmoveq	%rcx, %rax
	.loc	20 220 9 is_stmt 0
	cmpq	$0, %rax
	jne	LBB95_4
	.loc	20 0 9
	movq	-160(%rbp), %rax
	movq	-168(%rbp), %rcx
	movq	-176(%rbp), %rdx
	.loc	20 230 30 is_stmt 1
	movq	%rdx, -48(%rbp)
	movq	%rcx, -40(%rbp)
Ltmp937:
	.loc	20 160 9
	movq	%rdx, -32(%rbp)
	movq	%rcx, -24(%rbp)
Ltmp938:
	.loc	20 327 18
	movq	%rdx, -16(%rbp)
	movq	%rcx, -8(%rbp)
Ltmp939:
	.loc	20 230 21
	cmpq	-8(%rbp), %rax
	sete	%al
	andb	$1, %al
	movb	%al, -145(%rbp)
	.loc	20 230 39 is_stmt 0
	jmp	LBB95_5
LBB95_4:
	.loc	20 232 19 is_stmt 1
	movq	-144(%rbp), %rax
	movb	(%rax), %al
	movb	%al, -50(%rbp)
Ltmp940:
	.loc	20 232 25 is_stmt 0
	movb	%al, -49(%rbp)
Ltmp941:
	.file	22 "/rustc/2c8cc343237b8f7d5a3c3703e3a87f2eb2c54a74/library/core/src/num" "mod.rs"
	.loc	22 885 9 is_stmt 1
	cmpb	$-64, %al
	setge	%al
	andb	$1, %al
	movb	%al, -145(%rbp)
Ltmp942:
LBB95_5:
	.loc	20 234 6
	jmp	LBB95_6
LBB95_6:
	movb	-145(%rbp), %al
	andb	$1, %al
	movzbl	%al, %eax
	addq	$176, %rsp
	popq	%rbp
	retq
Ltmp943:
Lfunc_end95:
	.cfi_endproc

	.globl	__ZN4core3str21_$LT$impl$u20$str$GT$5parse17hf4bc8515a9cbe40dE
	.p2align	4, 0x90
__ZN4core3str21_$LT$impl$u20$str$GT$5parse17hf4bc8515a9cbe40dE:
Lfunc_begin96:
	.loc	20 2352 0
	.cfi_startproc
	pushq	%rbp
	.cfi_def_cfa_offset 16
	.cfi_offset %rbp, -16
	movq	%rsp, %rbp
	.cfi_def_cfa_register %rbp
	subq	$32, %rsp
	movq	%rdi, %rax
	movq	%rax, -24(%rbp)
	movq	%rsi, -16(%rbp)
	movq	%rdx, -8(%rbp)
Ltmp944:
	.loc	20 2353 9 prologue_end
	callq	__ZN71_$LT$proc_macro2..TokenStream$u20$as$u20$core..str..traits..FromStr$GT$8from_str17hbdce40ca4f0d20b6E
	movq	-24(%rbp), %rax
	.loc	20 2354 6
	addq	$32, %rsp
	popq	%rbp
	retq
Ltmp945:
Lfunc_end96:
	.cfi_endproc

	.p2align	4, 0x90
__ZN4core3str6traits112_$LT$impl$u20$core..slice..index..SliceIndex$LT$str$GT$$u20$for$u20$core..ops..range..RangeFrom$LT$usize$GT$$GT$13get_unchecked17hb004275977150669E:
Lfunc_begin97:
	.loc	9 349 0
	.cfi_startproc
	pushq	%rbp
	.cfi_def_cfa_offset 16
	.cfi_offset %rbp, -16
	movq	%rsp, %rbp
	.cfi_def_cfa_register %rbp
	subq	$232, %rsp
	movq	%rdi, -184(%rbp)
	movq	%rsi, -176(%rbp)
	movq	%rdx, -168(%rbp)
Ltmp946:
	.loc	9 350 21 prologue_end
	movq	%rsi, -160(%rbp)
	movq	%rdx, -152(%rbp)
Ltmp947:
	.loc	9 353 28
	movq	%rsi, -144(%rbp)
	movq	%rdx, -136(%rbp)
Ltmp948:
	.file	23 "/rustc/2c8cc343237b8f7d5a3c3703e3a87f2eb2c54a74/library/core/src/ptr" "const_ptr.rs"
	.loc	23 1650 9
	movq	%rsi, -128(%rbp)
Ltmp949:
	.loc	9 353 47
	movq	%rdi, -120(%rbp)
Ltmp950:
	.loc	23 932 18
	movq	%rsi, -112(%rbp)
	.loc	23 932 30 is_stmt 0
	movq	%rdi, -104(%rbp)
Ltmp951:
	.loc	23 473 18 is_stmt 1
	movq	%rsi, %rax
	addq	%rdi, %rax
	movq	%rax, -96(%rbp)
	movq	-96(%rbp), %rcx
	movq	%rcx, -88(%rbp)
Ltmp952:
	.loc	9 354 19
	movq	%rsi, -80(%rbp)
	movq	%rdx, -72(%rbp)
Ltmp953:
	.loc	23 1630 18
	movq	%rsi, -64(%rbp)
	movq	%rdx, -56(%rbp)
Ltmp954:
	.file	24 "/rustc/2c8cc343237b8f7d5a3c3703e3a87f2eb2c54a74/library/core/src/ptr" "metadata.rs"
	.loc	24 98 14
	movq	%rsi, -232(%rbp)
	movq	%rdx, -224(%rbp)
	movq	-224(%rbp), %rax
Ltmp955:
	.loc	9 354 19
	subq	%rdi, %rax
	movq	%rax, -48(%rbp)
Ltmp956:
	.loc	9 355 35
	movq	%rcx, -40(%rbp)
	.loc	9 355 40 is_stmt 0
	movq	%rax, -32(%rbp)
Ltmp957:
	.loc	16 734 20 is_stmt 1
	movq	%rcx, -24(%rbp)
Ltmp958:
	.loc	23 61 9
	movq	%rcx, -16(%rbp)
Ltmp959:
	.loc	16 734 33
	movq	%rax, -8(%rbp)
Ltmp960:
	.loc	24 118 36
	movq	%rcx, -200(%rbp)
	movq	%rax, -192(%rbp)
	.loc	24 118 14 is_stmt 0
	movq	-200(%rbp), %rcx
	movq	-192(%rbp), %rax
	movq	%rcx, -216(%rbp)
	movq	%rax, -208(%rbp)
	movq	-216(%rbp), %rax
	movq	-208(%rbp), %rdx
Ltmp961:
	.loc	9 356 6 is_stmt 1
	addq	$232, %rsp
	popq	%rbp
	retq
Ltmp962:
Lfunc_end97:
	.cfi_endproc

	.p2align	4, 0x90
__ZN4core3str6traits112_$LT$impl$u20$core..slice..index..SliceIndex$LT$str$GT$$u20$for$u20$core..ops..range..RangeFrom$LT$usize$GT$$GT$3get17h18e03376080374a1E:
Lfunc_begin98:
	.loc	9 329 0
	.cfi_startproc
	pushq	%rbp
	.cfi_def_cfa_offset 16
	.cfi_offset %rbp, -16
	movq	%rsp, %rbp
	.cfi_def_cfa_register %rbp
	subq	$80, %rsp
	movq	%rdx, -80(%rbp)
	movq	%rsi, %rax
	movq	-80(%rbp), %rsi
	movq	%rax, -72(%rbp)
	movq	%rdi, %rdx
	movq	-72(%rbp), %rdi
	movq	%rdx, -64(%rbp)
	movq	%rdi, -56(%rbp)
	movq	%rsi, -48(%rbp)
	movq	%rdx, -24(%rbp)
	movq	%rdi, -16(%rbp)
	movq	%rsi, -8(%rbp)
Ltmp963:
	.loc	9 330 12 prologue_end
	callq	__ZN4core3str21_$LT$impl$u20$str$GT$16is_char_boundary17hd8ba067c64cac388E
	testb	$1, %al
	jne	LBB98_2
	.loc	9 335 13
	movq	$0, -40(%rbp)
	.loc	9 330 9
	jmp	LBB98_3
LBB98_2:
	.loc	9 0 9 is_stmt 0
	movq	-48(%rbp), %rdx
	movq	-56(%rbp), %rsi
	movq	-64(%rbp), %rdi
	.loc	9 333 29 is_stmt 1
	callq	__ZN4core3str6traits112_$LT$impl$u20$core..slice..index..SliceIndex$LT$str$GT$$u20$for$u20$core..ops..range..RangeFrom$LT$usize$GT$$GT$13get_unchecked17hb004275977150669E
	.loc	9 333 13 is_stmt 0
	movq	%rax, -40(%rbp)
	movq	%rdx, -32(%rbp)
LBB98_3:
	.loc	9 337 6 is_stmt 1
	movq	-40(%rbp), %rax
	movq	-32(%rbp), %rdx
	addq	$80, %rsp
	popq	%rbp
	retq
Ltmp964:
Lfunc_end98:
	.cfi_endproc

	.p2align	4, 0x90
__ZN4core3str6traits112_$LT$impl$u20$core..slice..index..SliceIndex$LT$str$GT$$u20$for$u20$core..ops..range..RangeFrom$LT$usize$GT$$GT$5index17h5d318a12a795e08dE:
Lfunc_begin99:
	.loc	9 366 0
	.cfi_startproc
	pushq	%rbp
	.cfi_def_cfa_offset 16
	.cfi_offset %rbp, -16
	movq	%rsp, %rbp
	.cfi_def_cfa_register %rbp
	subq	$176, %rsp
	movq	%rsi, -176(%rbp)
	movq	%rdx, -168(%rbp)
	movq	%rcx, -160(%rbp)
	movq	%rdi, -104(%rbp)
	movq	%rsi, -96(%rbp)
	movq	%rdx, -88(%rbp)
Ltmp965:
	.loc	9 367 41 prologue_end
	movq	%rsi, -80(%rbp)
	movq	%rdx, -72(%rbp)
Ltmp966:
	.loc	20 160 9
	movq	%rsi, -64(%rbp)
	movq	%rdx, -56(%rbp)
Ltmp967:
	.loc	20 327 18
	movq	%rsi, -48(%rbp)
	movq	%rdx, -40(%rbp)
	movq	-40(%rbp), %rax
Ltmp968:
	.loc	9 367 28
	movq	%rdi, -136(%rbp)
	movq	%rax, -128(%rbp)
	.loc	9 367 14 is_stmt 0
	movq	-136(%rbp), %rax
	movq	%rax, -152(%rbp)
	movq	%rax, -32(%rbp)
	.loc	9 367 21
	movq	-128(%rbp), %rax
	movq	%rax, -144(%rbp)
	movq	%rax, -24(%rbp)
Ltmp969:
	.loc	9 368 15 is_stmt 1
	callq	__ZN4core3str6traits112_$LT$impl$u20$core..slice..index..SliceIndex$LT$str$GT$$u20$for$u20$core..ops..range..RangeFrom$LT$usize$GT$$GT$3get17h18e03376080374a1E
	movq	%rdx, -112(%rbp)
	movq	%rax, -120(%rbp)
	movq	-120(%rbp), %rdx
	movl	$1, %eax
	xorl	%ecx, %ecx
	cmpq	$0, %rdx
	cmoveq	%rcx, %rax
	.loc	9 368 9 is_stmt 0
	cmpq	$0, %rax
	jne	LBB99_2
	.loc	9 0 9
	movq	-160(%rbp), %r8
	movq	-144(%rbp), %rcx
	movq	-152(%rbp), %rdx
	movq	-168(%rbp), %rsi
	movq	-176(%rbp), %rdi
	.loc	9 370 21 is_stmt 1
	callq	__ZN4core3str16slice_error_fail17h13b85bf03fb2869bE
LBB99_2:
	.loc	9 369 18
	movq	-120(%rbp), %rax
	movq	-112(%rbp), %rdx
	movq	%rax, -16(%rbp)
	movq	%rdx, -8(%rbp)
Ltmp970:
	.loc	9 372 6
	addq	$176, %rsp
	popq	%rbp
	retq
Ltmp971:
Lfunc_end99:
	.cfi_endproc

	.globl	__ZN4core4iter6traits8iterator8Iterator3map17h1a6d3c5244c365bfE
	.p2align	4, 0x90
__ZN4core4iter6traits8iterator8Iterator3map17h1a6d3c5244c365bfE:
Lfunc_begin100:
	.file	25 "/rustc/2c8cc343237b8f7d5a3c3703e3a87f2eb2c54a74/library/core/src/iter/traits" "iterator.rs"
	.loc	25 782 0
	.cfi_startproc
	pushq	%rbp
	.cfi_def_cfa_offset 16
	.cfi_offset %rbp, -16
	movq	%rsp, %rbp
	.cfi_def_cfa_register %rbp
	subq	$64, %rsp
	movq	%rdi, -64(%rbp)
	movq	%rdi, -56(%rbp)
Ltmp972:
	.loc	25 787 18 prologue_end
	leaq	-48(%rbp), %rdi
	movl	$40, %edx
	callq	_memcpy
Ltmp973:
	.loc	25 0 18 is_stmt 0
	movq	-64(%rbp), %rdi
	.loc	25 787 9
	leaq	-48(%rbp), %rsi
	callq	__ZN4core4iter8adapters3map16Map$LT$I$C$F$GT$3new17h3899f55d4297b84dE
	movq	-56(%rbp), %rax
	.loc	25 788 6 is_stmt 1
	addq	$64, %rsp
	popq	%rbp
	retq
Ltmp974:
Lfunc_end100:
	.cfi_endproc

	.globl	__ZN4core4iter6traits8iterator8Iterator3map17h32d90c6421072965E
	.p2align	4, 0x90
__ZN4core4iter6traits8iterator8Iterator3map17h32d90c6421072965E:
Lfunc_begin101:
	.loc	25 782 0
	.cfi_startproc
	pushq	%rbp
	.cfi_def_cfa_offset 16
	.cfi_offset %rbp, -16
	movq	%rsp, %rbp
	.cfi_def_cfa_register %rbp
	subq	$64, %rsp
	movq	%rdi, -64(%rbp)
	movq	%rdi, -56(%rbp)
Ltmp975:
	.loc	25 787 18 prologue_end
	leaq	-48(%rbp), %rdi
	movl	$40, %edx
	callq	_memcpy
Ltmp976:
	.loc	25 0 18 is_stmt 0
	movq	-64(%rbp), %rdi
	.loc	25 787 9
	leaq	-48(%rbp), %rsi
	callq	__ZN4core4iter8adapters3map16Map$LT$I$C$F$GT$3new17h6747f209fd764ab1E
	movq	-56(%rbp), %rax
	.loc	25 788 6 is_stmt 1
	addq	$64, %rsp
	popq	%rbp
	retq
Ltmp977:
Lfunc_end101:
	.cfi_endproc

	.globl	__ZN4core4iter6traits8iterator8Iterator3map17h4c85842870f01ec2E
	.p2align	4, 0x90
__ZN4core4iter6traits8iterator8Iterator3map17h4c85842870f01ec2E:
Lfunc_begin102:
	.loc	25 782 0
	.cfi_startproc
	pushq	%rbp
	.cfi_def_cfa_offset 16
	.cfi_offset %rbp, -16
	movq	%rsp, %rbp
	.cfi_def_cfa_register %rbp
	subq	$64, %rsp
	movq	%rdi, -64(%rbp)
	movq	%rdi, -56(%rbp)
Ltmp978:
	.loc	25 787 18 prologue_end
	leaq	-48(%rbp), %rdi
	movl	$40, %edx
	callq	_memcpy
Ltmp979:
	.loc	25 0 18 is_stmt 0
	movq	-64(%rbp), %rdi
	.loc	25 787 9
	leaq	-48(%rbp), %rsi
	callq	__ZN4core4iter8adapters3map16Map$LT$I$C$F$GT$3new17hb41af5bb7dfbfddfE
	movq	-56(%rbp), %rax
	.loc	25 788 6 is_stmt 1
	addq	$64, %rsp
	popq	%rbp
	retq
Ltmp980:
Lfunc_end102:
	.cfi_endproc

	.globl	__ZN4core4iter6traits8iterator8Iterator3map17h627a3c32aeb58902E
	.p2align	4, 0x90
__ZN4core4iter6traits8iterator8Iterator3map17h627a3c32aeb58902E:
Lfunc_begin103:
	.loc	25 782 0
	.cfi_startproc
	pushq	%rbp
	.cfi_def_cfa_offset 16
	.cfi_offset %rbp, -16
	movq	%rsp, %rbp
	.cfi_def_cfa_register %rbp
	subq	$64, %rsp
	movq	%rdi, -64(%rbp)
	movq	%rdi, -56(%rbp)
Ltmp981:
	.loc	25 787 18 prologue_end
	leaq	-48(%rbp), %rdi
	movl	$40, %edx
	callq	_memcpy
Ltmp982:
	.loc	25 0 18 is_stmt 0
	movq	-64(%rbp), %rdi
	.loc	25 787 9
	leaq	-48(%rbp), %rsi
	callq	__ZN4core4iter8adapters3map16Map$LT$I$C$F$GT$3new17hd5078faa3205bf3aE
	movq	-56(%rbp), %rax
	.loc	25 788 6 is_stmt 1
	addq	$64, %rsp
	popq	%rbp
	retq
Ltmp983:
Lfunc_end103:
	.cfi_endproc

	.globl	__ZN4core4iter6traits8iterator8Iterator3map17h6f59a349a126cf8eE
	.p2align	4, 0x90
__ZN4core4iter6traits8iterator8Iterator3map17h6f59a349a126cf8eE:
Lfunc_begin104:
	.loc	25 782 0
	.cfi_startproc
	pushq	%rbp
	.cfi_def_cfa_offset 16
	.cfi_offset %rbp, -16
	movq	%rsp, %rbp
	.cfi_def_cfa_register %rbp
	subq	$80, %rsp
	movq	%rdx, -64(%rbp)
	movq	%rdi, -72(%rbp)
	movq	%rdi, -56(%rbp)
Ltmp984:
	movq	%rdx, -8(%rbp)
Ltmp985:
	.loc	25 787 18 prologue_end
	leaq	-48(%rbp), %rdi
	movl	$40, %edx
	callq	_memcpy
Ltmp986:
	.loc	25 0 18 is_stmt 0
	movq	-72(%rbp), %rdi
	movq	-64(%rbp), %rdx
	.loc	25 787 9
	leaq	-48(%rbp), %rsi
	callq	__ZN4core4iter8adapters3map16Map$LT$I$C$F$GT$3new17hfabf6c20c6897bacE
	movq	-56(%rbp), %rax
	.loc	25 788 6 is_stmt 1
	addq	$80, %rsp
	popq	%rbp
	retq
Ltmp987:
Lfunc_end104:
	.cfi_endproc

	.globl	__ZN4core4iter6traits8iterator8Iterator3map17h74184084624a7aadE
	.p2align	4, 0x90
__ZN4core4iter6traits8iterator8Iterator3map17h74184084624a7aadE:
Lfunc_begin105:
	.loc	25 782 0
	.cfi_startproc
	pushq	%rbp
	.cfi_def_cfa_offset 16
	.cfi_offset %rbp, -16
	movq	%rsp, %rbp
	.cfi_def_cfa_register %rbp
	subq	$80, %rsp
	movq	%rdi, -72(%rbp)
	movq	%rdi, -64(%rbp)
Ltmp988:
	.loc	25 787 18 prologue_end
	leaq	-56(%rbp), %rdi
	movl	$48, %edx
	callq	_memcpy
Ltmp989:
	.loc	25 0 18 is_stmt 0
	movq	-72(%rbp), %rdi
	.loc	25 787 9
	leaq	-56(%rbp), %rsi
	callq	__ZN4core4iter8adapters3map16Map$LT$I$C$F$GT$3new17hc2c6ab465ad6be8bE
	movq	-64(%rbp), %rax
	.loc	25 788 6 is_stmt 1
	addq	$80, %rsp
	popq	%rbp
	retq
Ltmp990:
Lfunc_end105:
	.cfi_endproc

	.globl	__ZN4core4iter6traits8iterator8Iterator3map17h7fd5e67ea59d52cbE
	.p2align	4, 0x90
__ZN4core4iter6traits8iterator8Iterator3map17h7fd5e67ea59d52cbE:
Lfunc_begin106:
	.loc	25 782 0
	.cfi_startproc
	pushq	%rbp
	.cfi_def_cfa_offset 16
	.cfi_offset %rbp, -16
	movq	%rsp, %rbp
	.cfi_def_cfa_register %rbp
	subq	$80, %rsp
	movq	%rdx, -64(%rbp)
	movq	%rdi, -72(%rbp)
	movq	%rdi, -56(%rbp)
Ltmp991:
	movq	%rdx, -8(%rbp)
Ltmp992:
	.loc	25 787 18 prologue_end
	leaq	-48(%rbp), %rdi
	movl	$40, %edx
	callq	_memcpy
Ltmp993:
	.loc	25 0 18 is_stmt 0
	movq	-72(%rbp), %rdi
	movq	-64(%rbp), %rdx
	.loc	25 787 9
	leaq	-48(%rbp), %rsi
	callq	__ZN4core4iter8adapters3map16Map$LT$I$C$F$GT$3new17h2b4728e866c77561E
	movq	-56(%rbp), %rax
	.loc	25 788 6 is_stmt 1
	addq	$80, %rsp
	popq	%rbp
	retq
Ltmp994:
Lfunc_end106:
	.cfi_endproc

	.globl	__ZN4core4iter6traits8iterator8Iterator4fold17h0be58259132b79c2E
	.p2align	4, 0x90
__ZN4core4iter6traits8iterator8Iterator4fold17h0be58259132b79c2E:
Lfunc_begin107:
	.loc	25 2431 0
	.cfi_startproc
	.cfi_personality 155, _rust_eh_personality
	.cfi_lsda 16, Lexception31
	pushq	%rbp
	.cfi_def_cfa_offset 16
	.cfi_offset %rbp, -16
	movq	%rsp, %rbp
	.cfi_def_cfa_register %rbp
	subq	$224, %rsp
	movq	%rdi, -216(%rbp)
Ltmp1002:
	movq	%rsi, -208(%rbp)
Ltmp1003:
	.loc	25 2436 25 prologue_end
	movb	$1, -33(%rbp)
Ltmp1004:
LBB107_1:
Ltmp995:
	.loc	25 0 25 is_stmt 0
	movq	-216(%rbp), %rsi
	leaq	-200(%rbp), %rdi
Ltmp1005:
	.loc	25 2437 29 is_stmt 1
	callq	__ZN108_$LT$quote..__private..push_lifetime_spanned..Lifetime$u20$as$u20$core..iter..traits..iterator..Iterator$GT$4next17hbb4972bd07150083E
Ltmp996:
	jmp	LBB107_4
Ltmp1006:
LBB107_2:
	.loc	25 2441 5
	testb	$1, -33(%rbp)
	jne	LBB107_11
	jmp	LBB107_10
Ltmp1007:
LBB107_3:
Ltmp1001:
	.loc	25 0 5 is_stmt 0
	movq	%rax, %rcx
	movl	%edx, %eax
	movq	%rcx, -16(%rbp)
	movl	%eax, -8(%rbp)
	jmp	LBB107_2
Ltmp1008:
LBB107_4:
	.loc	25 2437 19 is_stmt 1
	movl	$1, %eax
	xorl	%ecx, %ecx
	cmpl	$4, -200(%rbp)
	cmoveq	%rcx, %rax
	cmpq	$1, %rax
	jne	LBB107_6
Ltmp1009:
	.loc	25 2437 24 is_stmt 0
	movq	-168(%rbp), %rax
	movq	%rax, -128(%rbp)
	movq	-176(%rbp), %rax
	movq	%rax, -136(%rbp)
	movq	-184(%rbp), %rax
	movq	%rax, -144(%rbp)
	movq	-200(%rbp), %rax
	movq	-192(%rbp), %rcx
	movq	%rcx, -152(%rbp)
	movq	%rax, -160(%rbp)
	.loc	25 2438 23 is_stmt 1
	movb	$0, -33(%rbp)
	.loc	25 2438 30 is_stmt 0
	movq	-128(%rbp), %rax
	movq	%rax, -48(%rbp)
	movq	-136(%rbp), %rax
	movq	%rax, -56(%rbp)
	movq	-144(%rbp), %rax
	movq	%rax, -64(%rbp)
	movq	-160(%rbp), %rax
	movq	-152(%rbp), %rcx
	movq	%rcx, -72(%rbp)
	movq	%rax, -80(%rbp)
	.loc	25 2438 21
	movq	-48(%rbp), %rax
	movq	%rax, -88(%rbp)
	movq	-56(%rbp), %rax
	movq	%rax, -96(%rbp)
	movq	-64(%rbp), %rax
	movq	%rax, -104(%rbp)
	movq	-80(%rbp), %rax
	movq	-72(%rbp), %rcx
	movq	%rcx, -112(%rbp)
	movq	%rax, -120(%rbp)
Ltmp999:
	leaq	-208(%rbp), %rdi
	leaq	-120(%rbp), %rsi
	callq	__ZN4core4iter6traits8iterator8Iterator8for_each4call28_$u7b$$u7b$closure$u7d$$u7d$17hb499f5502a50ddeaE
Ltmp1000:
	jmp	LBB107_9
Ltmp1010:
LBB107_6:
Ltmp997:
	.loc	25 0 21
	leaq	-200(%rbp), %rdi
	.loc	25 2437 9 is_stmt 1
	callq	__ZN4core3ptr71drop_in_place$LT$core..option..Option$LT$proc_macro2..TokenTree$GT$$GT$17h6244b51dcc638303E
Ltmp998:
	jmp	LBB107_7
Ltmp1011:
LBB107_7:
	.loc	25 2441 5
	jmp	LBB107_8
Ltmp1012:
LBB107_8:
	.loc	25 2441 6 is_stmt 0
	addq	$224, %rsp
	popq	%rbp
	retq
Ltmp1013:
LBB107_9:
	.loc	25 2438 13 is_stmt 1
	movb	$1, -33(%rbp)
Ltmp1014:
	.loc	25 2437 9
	jmp	LBB107_1
Ltmp1015:
LBB107_10:
	.loc	25 2441 5
	jmp	LBB107_12
Ltmp1016:
LBB107_11:
	jmp	LBB107_10
Ltmp1017:
LBB107_12:
	.loc	25 2431 5
	movq	-16(%rbp), %rdi
	callq	__Unwind_Resume
Ltmp1018:
Lfunc_end107:
	.cfi_endproc
	.section	__TEXT,__gcc_except_tab
	.p2align	2
GCC_except_table107:
Lexception31:
	.byte	255
	.byte	255
	.byte	1
	.uleb128 Lcst_end31-Lcst_begin31
Lcst_begin31:
	.uleb128 Ltmp995-Lfunc_begin107
	.uleb128 Ltmp998-Ltmp995
	.uleb128 Ltmp1001-Lfunc_begin107
	.byte	0
	.uleb128 Ltmp998-Lfunc_begin107
	.uleb128 Lfunc_end107-Ltmp998
	.byte	0
	.byte	0
Lcst_end31:
	.p2align	2

	.section	__TEXT,__text,regular,pure_instructions
	.globl	__ZN4core4iter6traits8iterator8Iterator4fold17h48b3864af8e71bddE
	.p2align	4, 0x90
__ZN4core4iter6traits8iterator8Iterator4fold17h48b3864af8e71bddE:
Lfunc_begin108:
	.loc	25 2431 0
	.cfi_startproc
	.cfi_personality 155, _rust_eh_personality
	.cfi_lsda 16, Lexception32
	pushq	%rbp
	.cfi_def_cfa_offset 16
	.cfi_offset %rbp, -16
	movq	%rsp, %rbp
	.cfi_def_cfa_register %rbp
	subq	$224, %rsp
	movq	%rdi, -216(%rbp)
Ltmp1029:
	movq	%rsi, -208(%rbp)
Ltmp1030:
	.loc	25 2436 25 prologue_end
	movb	$1, -33(%rbp)
Ltmp1031:
LBB108_1:
Ltmp1019:
	.loc	25 0 25 is_stmt 0
	movq	-216(%rbp), %rsi
	leaq	-200(%rbp), %rdi
Ltmp1032:
	.loc	25 2437 29 is_stmt 1
	callq	__ZN99_$LT$core..iter..sources..once..Once$LT$T$GT$$u20$as$u20$core..iter..traits..iterator..Iterator$GT$4next17hf7963f7b43a24482E
Ltmp1020:
	jmp	LBB108_4
Ltmp1033:
LBB108_2:
	.loc	25 2441 5
	testb	$1, -33(%rbp)
	jne	LBB108_11
	jmp	LBB108_10
Ltmp1034:
LBB108_3:
Ltmp1025:
	.loc	25 0 5 is_stmt 0
	movq	%rax, %rcx
	movl	%edx, %eax
	movq	%rcx, -16(%rbp)
	movl	%eax, -8(%rbp)
	jmp	LBB108_2
Ltmp1035:
LBB108_4:
	.loc	25 2437 19 is_stmt 1
	movl	$1, %eax
	xorl	%ecx, %ecx
	cmpl	$4, -200(%rbp)
	cmoveq	%rcx, %rax
	cmpq	$1, %rax
	jne	LBB108_6
Ltmp1036:
	.loc	25 2437 24 is_stmt 0
	movq	-168(%rbp), %rax
	movq	%rax, -128(%rbp)
	movq	-176(%rbp), %rax
	movq	%rax, -136(%rbp)
	movq	-184(%rbp), %rax
	movq	%rax, -144(%rbp)
	movq	-200(%rbp), %rax
	movq	-192(%rbp), %rcx
	movq	%rcx, -152(%rbp)
	movq	%rax, -160(%rbp)
	.loc	25 2438 23 is_stmt 1
	movb	$0, -33(%rbp)
	.loc	25 2438 30 is_stmt 0
	movq	-128(%rbp), %rax
	movq	%rax, -48(%rbp)
	movq	-136(%rbp), %rax
	movq	%rax, -56(%rbp)
	movq	-144(%rbp), %rax
	movq	%rax, -64(%rbp)
	movq	-160(%rbp), %rax
	movq	-152(%rbp), %rcx
	movq	%rcx, -72(%rbp)
	movq	%rax, -80(%rbp)
	.loc	25 2438 21
	movq	-48(%rbp), %rax
	movq	%rax, -88(%rbp)
	movq	-56(%rbp), %rax
	movq	%rax, -96(%rbp)
	movq	-64(%rbp), %rax
	movq	%rax, -104(%rbp)
	movq	-80(%rbp), %rax
	movq	-72(%rbp), %rcx
	movq	%rcx, -112(%rbp)
	movq	%rax, -120(%rbp)
Ltmp1023:
	leaq	-208(%rbp), %rdi
	leaq	-120(%rbp), %rsi
	callq	__ZN4core4iter6traits8iterator8Iterator8for_each4call28_$u7b$$u7b$closure$u7d$$u7d$17h739f36dc45f455cfE
Ltmp1024:
	jmp	LBB108_9
Ltmp1037:
LBB108_6:
Ltmp1021:
	.loc	25 0 21
	leaq	-200(%rbp), %rdi
	.loc	25 2437 9 is_stmt 1
	callq	__ZN4core3ptr71drop_in_place$LT$core..option..Option$LT$proc_macro2..TokenTree$GT$$GT$17h6244b51dcc638303E
Ltmp1022:
	jmp	LBB108_7
Ltmp1038:
LBB108_7:
	.loc	25 2441 5
	jmp	LBB108_8
Ltmp1039:
LBB108_8:
	.loc	25 0 5 is_stmt 0
	movq	-216(%rbp), %rdi
	.loc	25 2441 5
	callq	__ZN4core3ptr82drop_in_place$LT$core..iter..sources..once..Once$LT$proc_macro2..TokenTree$GT$$GT$17h16a48431dbb4e5eaE
	.loc	25 2441 6
	addq	$224, %rsp
	popq	%rbp
	retq
Ltmp1040:
LBB108_9:
	.loc	25 2438 13 is_stmt 1
	movb	$1, -33(%rbp)
Ltmp1041:
	.loc	25 2437 9
	jmp	LBB108_1
Ltmp1042:
LBB108_10:
	.loc	25 2441 5
	jmp	LBB108_12
Ltmp1043:
LBB108_11:
	jmp	LBB108_10
Ltmp1044:
LBB108_12:
Ltmp1026:
	.loc	25 0 5 is_stmt 0
	movq	-216(%rbp), %rdi
	.loc	25 2441 5
	callq	__ZN4core3ptr82drop_in_place$LT$core..iter..sources..once..Once$LT$proc_macro2..TokenTree$GT$$GT$17h16a48431dbb4e5eaE
Ltmp1027:
	jmp	LBB108_14
Ltmp1045:
LBB108_13:
Ltmp1028:
	.loc	25 2431 5 is_stmt 1
	callq	__ZN4core9panicking19panic_cannot_unwind17h1fbca7e1d7f56ae1E
Ltmp1046:
LBB108_14:
	movq	-16(%rbp), %rdi
	callq	__Unwind_Resume
Ltmp1047:
Lfunc_end108:
	.cfi_endproc
	.section	__TEXT,__gcc_except_tab
	.p2align	2
GCC_except_table108:
Lexception32:
	.byte	255
	.byte	255
	.byte	1
	.uleb128 Lcst_end32-Lcst_begin32
Lcst_begin32:
	.uleb128 Ltmp1019-Lfunc_begin108
	.uleb128 Ltmp1022-Ltmp1019
	.uleb128 Ltmp1025-Lfunc_begin108
	.byte	0
	.uleb128 Ltmp1022-Lfunc_begin108
	.uleb128 Ltmp1026-Ltmp1022
	.byte	0
	.byte	0
	.uleb128 Ltmp1026-Lfunc_begin108
	.uleb128 Ltmp1027-Ltmp1026
	.uleb128 Ltmp1028-Lfunc_begin108
	.byte	0
	.uleb128 Ltmp1027-Lfunc_begin108
	.uleb128 Lfunc_end108-Ltmp1027
	.byte	0
	.byte	0
Lcst_end32:
	.p2align	2

	.section	__TEXT,__text,regular,pure_instructions
	.globl	__ZN4core4iter6traits8iterator8Iterator4fold17h8be35cd647dea879E
	.p2align	4, 0x90
__ZN4core4iter6traits8iterator8Iterator4fold17h8be35cd647dea879E:
Lfunc_begin109:
	.loc	25 2431 0
	.cfi_startproc
	.cfi_personality 155, _rust_eh_personality
	.cfi_lsda 16, Lexception33
	pushq	%rbp
	.cfi_def_cfa_offset 16
	.cfi_offset %rbp, -16
	movq	%rsp, %rbp
	.cfi_def_cfa_register %rbp
	subq	$224, %rsp
	movq	%rdi, -224(%rbp)
Ltmp1058:
	movq	%rsi, -216(%rbp)
	movq	%rdx, -208(%rbp)
Ltmp1059:
	.loc	25 2436 25 prologue_end
	movb	$1, -33(%rbp)
Ltmp1060:
LBB109_1:
Ltmp1048:
	.loc	25 0 25 is_stmt 0
	movq	-224(%rbp), %rsi
	leaq	-200(%rbp), %rdi
Ltmp1061:
	.loc	25 2437 29 is_stmt 1
	callq	__ZN94_$LT$proc_macro2..token_stream..IntoIter$u20$as$u20$core..iter..traits..iterator..Iterator$GT$4next17ha7d7184a272ea5c9E
Ltmp1049:
	jmp	LBB109_4
Ltmp1062:
LBB109_2:
	.loc	25 2441 5
	testb	$1, -33(%rbp)
	jne	LBB109_11
	jmp	LBB109_10
Ltmp1063:
LBB109_3:
Ltmp1054:
	.loc	25 0 5 is_stmt 0
	movq	%rax, %rcx
	movl	%edx, %eax
	movq	%rcx, -16(%rbp)
	movl	%eax, -8(%rbp)
	jmp	LBB109_2
Ltmp1064:
LBB109_4:
	.loc	25 2437 19 is_stmt 1
	movl	$1, %eax
	xorl	%ecx, %ecx
	cmpl	$4, -200(%rbp)
	cmoveq	%rcx, %rax
	cmpq	$1, %rax
	jne	LBB109_6
Ltmp1065:
	.loc	25 2437 24 is_stmt 0
	movq	-168(%rbp), %rax
	movq	%rax, -128(%rbp)
	movq	-176(%rbp), %rax
	movq	%rax, -136(%rbp)
	movq	-184(%rbp), %rax
	movq	%rax, -144(%rbp)
	movq	-200(%rbp), %rax
	movq	-192(%rbp), %rcx
	movq	%rcx, -152(%rbp)
	movq	%rax, -160(%rbp)
	.loc	25 2438 23 is_stmt 1
	movb	$0, -33(%rbp)
	.loc	25 2438 30 is_stmt 0
	movq	-128(%rbp), %rax
	movq	%rax, -48(%rbp)
	movq	-136(%rbp), %rax
	movq	%rax, -56(%rbp)
	movq	-144(%rbp), %rax
	movq	%rax, -64(%rbp)
	movq	-160(%rbp), %rax
	movq	-152(%rbp), %rcx
	movq	%rcx, -72(%rbp)
	movq	%rax, -80(%rbp)
	.loc	25 2438 21
	movq	-48(%rbp), %rax
	movq	%rax, -88(%rbp)
	movq	-56(%rbp), %rax
	movq	%rax, -96(%rbp)
	movq	-64(%rbp), %rax
	movq	%rax, -104(%rbp)
	movq	-80(%rbp), %rax
	movq	-72(%rbp), %rcx
	movq	%rcx, -112(%rbp)
	movq	%rax, -120(%rbp)
Ltmp1052:
	leaq	-216(%rbp), %rdi
	leaq	-120(%rbp), %rsi
	callq	__ZN4core4iter8adapters3map8map_fold28_$u7b$$u7b$closure$u7d$$u7d$17hb7aad04e121566e4E
Ltmp1053:
	jmp	LBB109_9
Ltmp1066:
LBB109_6:
Ltmp1050:
	.loc	25 0 21
	leaq	-200(%rbp), %rdi
	.loc	25 2437 9 is_stmt 1
	callq	__ZN4core3ptr71drop_in_place$LT$core..option..Option$LT$proc_macro2..TokenTree$GT$$GT$17h6244b51dcc638303E
Ltmp1051:
	jmp	LBB109_7
Ltmp1067:
LBB109_7:
	.loc	25 2441 5
	jmp	LBB109_8
Ltmp1068:
LBB109_8:
	.loc	25 0 5 is_stmt 0
	movq	-224(%rbp), %rdi
	.loc	25 2441 5
	callq	__ZN4core3ptr56drop_in_place$LT$proc_macro2..token_stream..IntoIter$GT$17h671ab9d82e552e5dE
	.loc	25 2441 6
	addq	$224, %rsp
	popq	%rbp
	retq
Ltmp1069:
LBB109_9:
	.loc	25 2438 13 is_stmt 1
	movb	$1, -33(%rbp)
Ltmp1070:
	.loc	25 2437 9
	jmp	LBB109_1
Ltmp1071:
LBB109_10:
	.loc	25 2441 5
	jmp	LBB109_12
Ltmp1072:
LBB109_11:
	jmp	LBB109_10
Ltmp1073:
LBB109_12:
Ltmp1055:
	.loc	25 0 5 is_stmt 0
	movq	-224(%rbp), %rdi
	.loc	25 2441 5
	callq	__ZN4core3ptr56drop_in_place$LT$proc_macro2..token_stream..IntoIter$GT$17h671ab9d82e552e5dE
Ltmp1056:
	jmp	LBB109_14
Ltmp1074:
LBB109_13:
Ltmp1057:
	.loc	25 2431 5 is_stmt 1
	callq	__ZN4core9panicking19panic_cannot_unwind17h1fbca7e1d7f56ae1E
Ltmp1075:
LBB109_14:
	movq	-16(%rbp), %rdi
	callq	__Unwind_Resume
Ltmp1076:
Lfunc_end109:
	.cfi_endproc
	.section	__TEXT,__gcc_except_tab
	.p2align	2
GCC_except_table109:
Lexception33:
	.byte	255
	.byte	255
	.byte	1
	.uleb128 Lcst_end33-Lcst_begin33
Lcst_begin33:
	.uleb128 Ltmp1048-Lfunc_begin109
	.uleb128 Ltmp1051-Ltmp1048
	.uleb128 Ltmp1054-Lfunc_begin109
	.byte	0
	.uleb128 Ltmp1051-Lfunc_begin109
	.uleb128 Ltmp1055-Ltmp1051
	.byte	0
	.byte	0
	.uleb128 Ltmp1055-Lfunc_begin109
	.uleb128 Ltmp1056-Ltmp1055
	.uleb128 Ltmp1057-Lfunc_begin109
	.byte	0
	.uleb128 Ltmp1056-Lfunc_begin109
	.uleb128 Lfunc_end109-Ltmp1056
	.byte	0
	.byte	0
Lcst_end33:
	.p2align	2

	.section	__TEXT,__text,regular,pure_instructions
	.globl	__ZN4core4iter6traits8iterator8Iterator4fold17haa988f9813e137feE
	.p2align	4, 0x90
__ZN4core4iter6traits8iterator8Iterator4fold17haa988f9813e137feE:
Lfunc_begin110:
	.loc	25 2431 0
	.cfi_startproc
	.cfi_personality 155, _rust_eh_personality
	.cfi_lsda 16, Lexception34
	pushq	%rbp
	.cfi_def_cfa_offset 16
	.cfi_offset %rbp, -16
	movq	%rsp, %rbp
	.cfi_def_cfa_register %rbp
	subq	$224, %rsp
	movq	%rdi, -224(%rbp)
Ltmp1087:
	movq	%rsi, -216(%rbp)
	movq	%rdx, -208(%rbp)
Ltmp1088:
	.loc	25 2436 25 prologue_end
	movb	$1, -33(%rbp)
Ltmp1089:
LBB110_1:
Ltmp1077:
	.loc	25 0 25 is_stmt 0
	movq	-224(%rbp), %rsi
	leaq	-200(%rbp), %rdi
Ltmp1090:
	.loc	25 2437 29 is_stmt 1
	callq	__ZN94_$LT$proc_macro2..token_stream..IntoIter$u20$as$u20$core..iter..traits..iterator..Iterator$GT$4next17ha7d7184a272ea5c9E
Ltmp1078:
	jmp	LBB110_4
Ltmp1091:
LBB110_2:
	.loc	25 2441 5
	testb	$1, -33(%rbp)
	jne	LBB110_11
	jmp	LBB110_10
Ltmp1092:
LBB110_3:
Ltmp1083:
	.loc	25 0 5 is_stmt 0
	movq	%rax, %rcx
	movl	%edx, %eax
	movq	%rcx, -16(%rbp)
	movl	%eax, -8(%rbp)
	jmp	LBB110_2
Ltmp1093:
LBB110_4:
	.loc	25 2437 19 is_stmt 1
	movl	$1, %eax
	xorl	%ecx, %ecx
	cmpl	$4, -200(%rbp)
	cmoveq	%rcx, %rax
	cmpq	$1, %rax
	jne	LBB110_6
Ltmp1094:
	.loc	25 2437 24 is_stmt 0
	movq	-168(%rbp), %rax
	movq	%rax, -128(%rbp)
	movq	-176(%rbp), %rax
	movq	%rax, -136(%rbp)
	movq	-184(%rbp), %rax
	movq	%rax, -144(%rbp)
	movq	-200(%rbp), %rax
	movq	-192(%rbp), %rcx
	movq	%rcx, -152(%rbp)
	movq	%rax, -160(%rbp)
	.loc	25 2438 23 is_stmt 1
	movb	$0, -33(%rbp)
	.loc	25 2438 30 is_stmt 0
	movq	-128(%rbp), %rax
	movq	%rax, -48(%rbp)
	movq	-136(%rbp), %rax
	movq	%rax, -56(%rbp)
	movq	-144(%rbp), %rax
	movq	%rax, -64(%rbp)
	movq	-160(%rbp), %rax
	movq	-152(%rbp), %rcx
	movq	%rcx, -72(%rbp)
	movq	%rax, -80(%rbp)
	.loc	25 2438 21
	movq	-48(%rbp), %rax
	movq	%rax, -88(%rbp)
	movq	-56(%rbp), %rax
	movq	%rax, -96(%rbp)
	movq	-64(%rbp), %rax
	movq	%rax, -104(%rbp)
	movq	-80(%rbp), %rax
	movq	-72(%rbp), %rcx
	movq	%rcx, -112(%rbp)
	movq	%rax, -120(%rbp)
Ltmp1081:
	leaq	-216(%rbp), %rdi
	leaq	-120(%rbp), %rsi
	callq	__ZN4core4iter8adapters3map8map_fold28_$u7b$$u7b$closure$u7d$$u7d$17hf134fa2e6c6c0c1cE
Ltmp1082:
	jmp	LBB110_9
Ltmp1095:
LBB110_6:
Ltmp1079:
	.loc	25 0 21
	leaq	-200(%rbp), %rdi
	.loc	25 2437 9 is_stmt 1
	callq	__ZN4core3ptr71drop_in_place$LT$core..option..Option$LT$proc_macro2..TokenTree$GT$$GT$17h6244b51dcc638303E
Ltmp1080:
	jmp	LBB110_7
Ltmp1096:
LBB110_7:
	.loc	25 2441 5
	jmp	LBB110_8
Ltmp1097:
LBB110_8:
	.loc	25 0 5 is_stmt 0
	movq	-224(%rbp), %rdi
	.loc	25 2441 5
	callq	__ZN4core3ptr56drop_in_place$LT$proc_macro2..token_stream..IntoIter$GT$17h671ab9d82e552e5dE
	.loc	25 2441 6
	addq	$224, %rsp
	popq	%rbp
	retq
Ltmp1098:
LBB110_9:
	.loc	25 2438 13 is_stmt 1
	movb	$1, -33(%rbp)
Ltmp1099:
	.loc	25 2437 9
	jmp	LBB110_1
Ltmp1100:
LBB110_10:
	.loc	25 2441 5
	jmp	LBB110_12
Ltmp1101:
LBB110_11:
	jmp	LBB110_10
Ltmp1102:
LBB110_12:
Ltmp1084:
	.loc	25 0 5 is_stmt 0
	movq	-224(%rbp), %rdi
	.loc	25 2441 5
	callq	__ZN4core3ptr56drop_in_place$LT$proc_macro2..token_stream..IntoIter$GT$17h671ab9d82e552e5dE
Ltmp1085:
	jmp	LBB110_14
Ltmp1103:
LBB110_13:
Ltmp1086:
	.loc	25 2431 5 is_stmt 1
	callq	__ZN4core9panicking19panic_cannot_unwind17h1fbca7e1d7f56ae1E
Ltmp1104:
LBB110_14:
	movq	-16(%rbp), %rdi
	callq	__Unwind_Resume
Ltmp1105:
Lfunc_end110:
	.cfi_endproc
	.section	__TEXT,__gcc_except_tab
	.p2align	2
GCC_except_table110:
Lexception34:
	.byte	255
	.byte	255
	.byte	1
	.uleb128 Lcst_end34-Lcst_begin34
Lcst_begin34:
	.uleb128 Ltmp1077-Lfunc_begin110
	.uleb128 Ltmp1080-Ltmp1077
	.uleb128 Ltmp1083-Lfunc_begin110
	.byte	0
	.uleb128 Ltmp1080-Lfunc_begin110
	.uleb128 Ltmp1084-Ltmp1080
	.byte	0
	.byte	0
	.uleb128 Ltmp1084-Lfunc_begin110
	.uleb128 Ltmp1085-Ltmp1084
	.uleb128 Ltmp1086-Lfunc_begin110
	.byte	0
	.uleb128 Ltmp1085-Lfunc_begin110
	.uleb128 Lfunc_end110-Ltmp1085
	.byte	0
	.byte	0
Lcst_end34:
	.p2align	2

	.section	__TEXT,__text,regular,pure_instructions
	.globl	__ZN4core4iter6traits8iterator8Iterator4fold17hc8c29f25613d6019E
	.p2align	4, 0x90
__ZN4core4iter6traits8iterator8Iterator4fold17hc8c29f25613d6019E:
Lfunc_begin111:
	.loc	25 2431 0
	.cfi_startproc
	.cfi_personality 155, _rust_eh_personality
	.cfi_lsda 16, Lexception35
	pushq	%rbp
	.cfi_def_cfa_offset 16
	.cfi_offset %rbp, -16
	movq	%rsp, %rbp
	.cfi_def_cfa_register %rbp
	subq	$224, %rsp
	movq	%rdi, -224(%rbp)
Ltmp1116:
	movq	%rsi, -216(%rbp)
	movq	%rdx, -208(%rbp)
Ltmp1117:
	.loc	25 2436 25 prologue_end
	movb	$1, -33(%rbp)
Ltmp1118:
LBB111_1:
Ltmp1106:
	.loc	25 0 25 is_stmt 0
	movq	-224(%rbp), %rsi
	leaq	-200(%rbp), %rdi
Ltmp1119:
	.loc	25 2437 29 is_stmt 1
	callq	__ZN94_$LT$proc_macro2..token_stream..IntoIter$u20$as$u20$core..iter..traits..iterator..Iterator$GT$4next17ha7d7184a272ea5c9E
Ltmp1107:
	jmp	LBB111_4
Ltmp1120:
LBB111_2:
	.loc	25 2441 5
	testb	$1, -33(%rbp)
	jne	LBB111_11
	jmp	LBB111_10
Ltmp1121:
LBB111_3:
Ltmp1112:
	.loc	25 0 5 is_stmt 0
	movq	%rax, %rcx
	movl	%edx, %eax
	movq	%rcx, -16(%rbp)
	movl	%eax, -8(%rbp)
	jmp	LBB111_2
Ltmp1122:
LBB111_4:
	.loc	25 2437 19 is_stmt 1
	movl	$1, %eax
	xorl	%ecx, %ecx
	cmpl	$4, -200(%rbp)
	cmoveq	%rcx, %rax
	cmpq	$1, %rax
	jne	LBB111_6
Ltmp1123:
	.loc	25 2437 24 is_stmt 0
	movq	-168(%rbp), %rax
	movq	%rax, -128(%rbp)
	movq	-176(%rbp), %rax
	movq	%rax, -136(%rbp)
	movq	-184(%rbp), %rax
	movq	%rax, -144(%rbp)
	movq	-200(%rbp), %rax
	movq	-192(%rbp), %rcx
	movq	%rcx, -152(%rbp)
	movq	%rax, -160(%rbp)
	.loc	25 2438 23 is_stmt 1
	movb	$0, -33(%rbp)
	.loc	25 2438 30 is_stmt 0
	movq	-128(%rbp), %rax
	movq	%rax, -48(%rbp)
	movq	-136(%rbp), %rax
	movq	%rax, -56(%rbp)
	movq	-144(%rbp), %rax
	movq	%rax, -64(%rbp)
	movq	-160(%rbp), %rax
	movq	-152(%rbp), %rcx
	movq	%rcx, -72(%rbp)
	movq	%rax, -80(%rbp)
	.loc	25 2438 21
	movq	-48(%rbp), %rax
	movq	%rax, -88(%rbp)
	movq	-56(%rbp), %rax
	movq	%rax, -96(%rbp)
	movq	-64(%rbp), %rax
	movq	%rax, -104(%rbp)
	movq	-80(%rbp), %rax
	movq	-72(%rbp), %rcx
	movq	%rcx, -112(%rbp)
	movq	%rax, -120(%rbp)
Ltmp1110:
	leaq	-216(%rbp), %rdi
	leaq	-120(%rbp), %rsi
	callq	__ZN4core4iter8adapters3map8map_fold28_$u7b$$u7b$closure$u7d$$u7d$17h480317463c67f066E
Ltmp1111:
	jmp	LBB111_9
Ltmp1124:
LBB111_6:
Ltmp1108:
	.loc	25 0 21
	leaq	-200(%rbp), %rdi
	.loc	25 2437 9 is_stmt 1
	callq	__ZN4core3ptr71drop_in_place$LT$core..option..Option$LT$proc_macro2..TokenTree$GT$$GT$17h6244b51dcc638303E
Ltmp1109:
	jmp	LBB111_7
Ltmp1125:
LBB111_7:
	.loc	25 2441 5
	jmp	LBB111_8
Ltmp1126:
LBB111_8:
	.loc	25 0 5 is_stmt 0
	movq	-224(%rbp), %rdi
	.loc	25 2441 5
	callq	__ZN4core3ptr56drop_in_place$LT$proc_macro2..token_stream..IntoIter$GT$17h671ab9d82e552e5dE
	.loc	25 2441 6
	addq	$224, %rsp
	popq	%rbp
	retq
Ltmp1127:
LBB111_9:
	.loc	25 2438 13 is_stmt 1
	movb	$1, -33(%rbp)
Ltmp1128:
	.loc	25 2437 9
	jmp	LBB111_1
Ltmp1129:
LBB111_10:
	.loc	25 2441 5
	jmp	LBB111_12
Ltmp1130:
LBB111_11:
	jmp	LBB111_10
Ltmp1131:
LBB111_12:
Ltmp1113:
	.loc	25 0 5 is_stmt 0
	movq	-224(%rbp), %rdi
	.loc	25 2441 5
	callq	__ZN4core3ptr56drop_in_place$LT$proc_macro2..token_stream..IntoIter$GT$17h671ab9d82e552e5dE
Ltmp1114:
	jmp	LBB111_14
Ltmp1132:
LBB111_13:
Ltmp1115:
	.loc	25 2431 5 is_stmt 1
	callq	__ZN4core9panicking19panic_cannot_unwind17h1fbca7e1d7f56ae1E
Ltmp1133:
LBB111_14:
	movq	-16(%rbp), %rdi
	callq	__Unwind_Resume
Ltmp1134:
Lfunc_end111:
	.cfi_endproc
	.section	__TEXT,__gcc_except_tab
	.p2align	2
GCC_except_table111:
Lexception35:
	.byte	255
	.byte	255
	.byte	1
	.uleb128 Lcst_end35-Lcst_begin35
Lcst_begin35:
	.uleb128 Ltmp1106-Lfunc_begin111
	.uleb128 Ltmp1109-Ltmp1106
	.uleb128 Ltmp1112-Lfunc_begin111
	.byte	0
	.uleb128 Ltmp1109-Lfunc_begin111
	.uleb128 Ltmp1113-Ltmp1109
	.byte	0
	.byte	0
	.uleb128 Ltmp1113-Lfunc_begin111
	.uleb128 Ltmp1114-Ltmp1113
	.uleb128 Ltmp1115-Lfunc_begin111
	.byte	0
	.uleb128 Ltmp1114-Lfunc_begin111
	.uleb128 Lfunc_end111-Ltmp1114
	.byte	0
	.byte	0
Lcst_end35:
	.p2align	2

	.section	__TEXT,__text,regular,pure_instructions
	.globl	__ZN4core4iter6traits8iterator8Iterator4fold17hce483501db55c28bE
	.p2align	4, 0x90
__ZN4core4iter6traits8iterator8Iterator4fold17hce483501db55c28bE:
Lfunc_begin112:
	.loc	25 2431 0
	.cfi_startproc
	.cfi_personality 155, _rust_eh_personality
	.cfi_lsda 16, Lexception36
	pushq	%rbp
	.cfi_def_cfa_offset 16
	.cfi_offset %rbp, -16
	movq	%rsp, %rbp
	.cfi_def_cfa_register %rbp
	subq	$224, %rsp
	movq	%rdi, -216(%rbp)
Ltmp1142:
	movq	%rsi, -208(%rbp)
Ltmp1143:
	.loc	25 2436 25 prologue_end
	movb	$1, -33(%rbp)
Ltmp1144:
LBB112_1:
Ltmp1135:
	.loc	25 0 25 is_stmt 0
	movq	-216(%rbp), %rsi
	leaq	-200(%rbp), %rdi
Ltmp1145:
	.loc	25 2437 29 is_stmt 1
	callq	__ZN100_$LT$quote..__private..push_lifetime..Lifetime$u20$as$u20$core..iter..traits..iterator..Iterator$GT$4next17h692d6fbf4462bd8cE
Ltmp1136:
	jmp	LBB112_4
Ltmp1146:
LBB112_2:
	.loc	25 2441 5
	testb	$1, -33(%rbp)
	jne	LBB112_11
	jmp	LBB112_10
Ltmp1147:
LBB112_3:
Ltmp1141:
	.loc	25 0 5 is_stmt 0
	movq	%rax, %rcx
	movl	%edx, %eax
	movq	%rcx, -16(%rbp)
	movl	%eax, -8(%rbp)
	jmp	LBB112_2
Ltmp1148:
LBB112_4:
	.loc	25 2437 19 is_stmt 1
	movl	$1, %eax
	xorl	%ecx, %ecx
	cmpl	$4, -200(%rbp)
	cmoveq	%rcx, %rax
	cmpq	$1, %rax
	jne	LBB112_6
Ltmp1149:
	.loc	25 2437 24 is_stmt 0
	movq	-168(%rbp), %rax
	movq	%rax, -128(%rbp)
	movq	-176(%rbp), %rax
	movq	%rax, -136(%rbp)
	movq	-184(%rbp), %rax
	movq	%rax, -144(%rbp)
	movq	-200(%rbp), %rax
	movq	-192(%rbp), %rcx
	movq	%rcx, -152(%rbp)
	movq	%rax, -160(%rbp)
	.loc	25 2438 23 is_stmt 1
	movb	$0, -33(%rbp)
	.loc	25 2438 30 is_stmt 0
	movq	-128(%rbp), %rax
	movq	%rax, -48(%rbp)
	movq	-136(%rbp), %rax
	movq	%rax, -56(%rbp)
	movq	-144(%rbp), %rax
	movq	%rax, -64(%rbp)
	movq	-160(%rbp), %rax
	movq	-152(%rbp), %rcx
	movq	%rcx, -72(%rbp)
	movq	%rax, -80(%rbp)
	.loc	25 2438 21
	movq	-48(%rbp), %rax
	movq	%rax, -88(%rbp)
	movq	-56(%rbp), %rax
	movq	%rax, -96(%rbp)
	movq	-64(%rbp), %rax
	movq	%rax, -104(%rbp)
	movq	-80(%rbp), %rax
	movq	-72(%rbp), %rcx
	movq	%rcx, -112(%rbp)
	movq	%rax, -120(%rbp)
Ltmp1139:
	leaq	-208(%rbp), %rdi
	leaq	-120(%rbp), %rsi
	callq	__ZN4core4iter6traits8iterator8Iterator8for_each4call28_$u7b$$u7b$closure$u7d$$u7d$17h4f5211ed10d54369E
Ltmp1140:
	jmp	LBB112_9
Ltmp1150:
LBB112_6:
Ltmp1137:
	.loc	25 0 21
	leaq	-200(%rbp), %rdi
	.loc	25 2437 9 is_stmt 1
	callq	__ZN4core3ptr71drop_in_place$LT$core..option..Option$LT$proc_macro2..TokenTree$GT$$GT$17h6244b51dcc638303E
Ltmp1138:
	jmp	LBB112_7
Ltmp1151:
LBB112_7:
	.loc	25 2441 5
	jmp	LBB112_8
Ltmp1152:
LBB112_8:
	.loc	25 2441 6 is_stmt 0
	addq	$224, %rsp
	popq	%rbp
	retq
Ltmp1153:
LBB112_9:
	.loc	25 2438 13 is_stmt 1
	movb	$1, -33(%rbp)
Ltmp1154:
	.loc	25 2437 9
	jmp	LBB112_1
Ltmp1155:
LBB112_10:
	.loc	25 2441 5
	jmp	LBB112_12
Ltmp1156:
LBB112_11:
	jmp	LBB112_10
Ltmp1157:
LBB112_12:
	.loc	25 2431 5
	movq	-16(%rbp), %rdi
	callq	__Unwind_Resume
Ltmp1158:
Lfunc_end112:
	.cfi_endproc
	.section	__TEXT,__gcc_except_tab
	.p2align	2
GCC_except_table112:
Lexception36:
	.byte	255
	.byte	255
	.byte	1
	.uleb128 Lcst_end36-Lcst_begin36
Lcst_begin36:
	.uleb128 Ltmp1135-Lfunc_begin112
	.uleb128 Ltmp1138-Ltmp1135
	.uleb128 Ltmp1141-Lfunc_begin112
	.byte	0
	.uleb128 Ltmp1138-Lfunc_begin112
	.uleb128 Lfunc_end112-Ltmp1138
	.byte	0
	.byte	0
Lcst_end36:
	.p2align	2

	.section	__TEXT,__text,regular,pure_instructions
	.globl	__ZN4core4iter6traits8iterator8Iterator4fold17he4289d091b4e0da1E
	.p2align	4, 0x90
__ZN4core4iter6traits8iterator8Iterator4fold17he4289d091b4e0da1E:
Lfunc_begin113:
	.loc	25 2431 0
	.cfi_startproc
	.cfi_personality 155, _rust_eh_personality
	.cfi_lsda 16, Lexception37
	pushq	%rbp
	.cfi_def_cfa_offset 16
	.cfi_offset %rbp, -16
	movq	%rsp, %rbp
	.cfi_def_cfa_register %rbp
	subq	$240, %rsp
	movq	%rdi, -224(%rbp)
Ltmp1169:
	movl	%esi, -24(%rbp)
	movl	%edx, -20(%rbp)
Ltmp1170:
	.loc	25 2436 25 prologue_end
	movb	$1, -25(%rbp)
	movl	%esi, -208(%rbp)
	movl	%edx, -204(%rbp)
Ltmp1171:
LBB113_1:
Ltmp1159:
	.loc	25 0 25 is_stmt 0
	movq	-224(%rbp), %rsi
	leaq	-200(%rbp), %rdi
Ltmp1172:
	.loc	25 2437 29 is_stmt 1
	callq	__ZN94_$LT$proc_macro2..token_stream..IntoIter$u20$as$u20$core..iter..traits..iterator..Iterator$GT$4next17ha7d7184a272ea5c9E
Ltmp1160:
	jmp	LBB113_4
Ltmp1173:
LBB113_2:
	.loc	25 2441 5
	testb	$1, -25(%rbp)
	jne	LBB113_11
	jmp	LBB113_10
Ltmp1174:
LBB113_3:
Ltmp1165:
	.loc	25 0 5 is_stmt 0
	movq	%rax, %rcx
	movl	%edx, %eax
	movq	%rcx, -16(%rbp)
	movl	%eax, -8(%rbp)
	jmp	LBB113_2
Ltmp1175:
LBB113_4:
	.loc	25 2437 19 is_stmt 1
	movl	$1, %eax
	xorl	%ecx, %ecx
	cmpl	$4, -200(%rbp)
	cmoveq	%rcx, %rax
	cmpq	$1, %rax
	jne	LBB113_6
Ltmp1176:
	.loc	25 2437 24 is_stmt 0
	movq	-168(%rbp), %rax
	movq	%rax, -128(%rbp)
	movq	-176(%rbp), %rax
	movq	%rax, -136(%rbp)
	movq	-184(%rbp), %rax
	movq	%rax, -144(%rbp)
	movq	-200(%rbp), %rax
	movq	-192(%rbp), %rcx
	movq	%rcx, -152(%rbp)
	movq	%rax, -160(%rbp)
	.loc	25 2438 23 is_stmt 1
	movb	$0, -25(%rbp)
	movl	-208(%rbp), %ecx
	movl	-204(%rbp), %eax
	.loc	25 2438 30 is_stmt 0
	movq	-128(%rbp), %rdx
	movq	%rdx, -40(%rbp)
	movq	-136(%rbp), %rdx
	movq	%rdx, -48(%rbp)
	movq	-144(%rbp), %rdx
	movq	%rdx, -56(%rbp)
	movq	-160(%rbp), %rdx
	movq	-152(%rbp), %rsi
	movq	%rsi, -64(%rbp)
	movq	%rdx, -72(%rbp)
	.loc	25 2438 21
	movl	%ecx, -120(%rbp)
	movl	%eax, -116(%rbp)
	leaq	-112(%rbp), %rcx
	movq	-40(%rbp), %rax
	movq	%rax, -80(%rbp)
	movq	-48(%rbp), %rax
	movq	%rax, -88(%rbp)
	movq	-56(%rbp), %rax
	movq	%rax, -96(%rbp)
	movq	-72(%rbp), %rax
	movq	-64(%rbp), %rdx
	movq	%rdx, -104(%rbp)
	movq	%rax, -112(%rbp)
	movl	-120(%rbp), %esi
	movl	-116(%rbp), %edx
Ltmp1163:
	leaq	-216(%rbp), %rdi
	callq	__ZN4core4iter8adapters3map8map_fold28_$u7b$$u7b$closure$u7d$$u7d$17hbbb8a1e595be53c3E
Ltmp1164:
	movl	%edx, -232(%rbp)
	movl	%eax, -228(%rbp)
	jmp	LBB113_9
Ltmp1177:
LBB113_6:
Ltmp1161:
	.loc	25 0 21
	leaq	-200(%rbp), %rdi
	.loc	25 2437 9 is_stmt 1
	callq	__ZN4core3ptr71drop_in_place$LT$core..option..Option$LT$proc_macro2..TokenTree$GT$$GT$17h6244b51dcc638303E
Ltmp1162:
	jmp	LBB113_7
Ltmp1178:
LBB113_7:
	.loc	25 2441 5
	jmp	LBB113_8
Ltmp1179:
LBB113_8:
	.loc	25 0 5 is_stmt 0
	movq	-224(%rbp), %rdi
	.loc	25 2441 5
	callq	__ZN4core3ptr56drop_in_place$LT$proc_macro2..token_stream..IntoIter$GT$17h671ab9d82e552e5dE
	.loc	25 2441 6
	movl	-208(%rbp), %eax
	movl	-204(%rbp), %edx
	addq	$240, %rsp
	popq	%rbp
	retq
Ltmp1180:
LBB113_9:
	.loc	25 0 6
	movl	-232(%rbp), %eax
	movl	-228(%rbp), %ecx
Ltmp1181:
	.loc	25 2438 13 is_stmt 1
	movb	$1, -25(%rbp)
	movl	%ecx, -208(%rbp)
	movl	%eax, -204(%rbp)
Ltmp1182:
	.loc	25 2437 9
	jmp	LBB113_1
Ltmp1183:
LBB113_10:
	.loc	25 2441 5
	jmp	LBB113_12
Ltmp1184:
LBB113_11:
	jmp	LBB113_10
Ltmp1185:
LBB113_12:
Ltmp1166:
	.loc	25 0 5 is_stmt 0
	movq	-224(%rbp), %rdi
	.loc	25 2441 5
	callq	__ZN4core3ptr56drop_in_place$LT$proc_macro2..token_stream..IntoIter$GT$17h671ab9d82e552e5dE
Ltmp1167:
	jmp	LBB113_14
Ltmp1186:
LBB113_13:
Ltmp1168:
	.loc	25 2431 5 is_stmt 1
	callq	__ZN4core9panicking19panic_cannot_unwind17h1fbca7e1d7f56ae1E
Ltmp1187:
LBB113_14:
	movq	-16(%rbp), %rdi
	callq	__Unwind_Resume
Ltmp1188:
Lfunc_end113:
	.cfi_endproc
	.section	__TEXT,__gcc_except_tab
	.p2align	2
GCC_except_table113:
Lexception37:
	.byte	255
	.byte	255
	.byte	1
	.uleb128 Lcst_end37-Lcst_begin37
Lcst_begin37:
	.uleb128 Ltmp1159-Lfunc_begin113
	.uleb128 Ltmp1162-Ltmp1159
	.uleb128 Ltmp1165-Lfunc_begin113
	.byte	0
	.uleb128 Ltmp1162-Lfunc_begin113
	.uleb128 Ltmp1166-Ltmp1162
	.byte	0
	.byte	0
	.uleb128 Ltmp1166-Lfunc_begin113
	.uleb128 Ltmp1167-Ltmp1166
	.uleb128 Ltmp1168-Lfunc_begin113
	.byte	0
	.uleb128 Ltmp1167-Lfunc_begin113
	.uleb128 Lfunc_end113-Ltmp1167
	.byte	0
	.byte	0
Lcst_end37:
	.p2align	2

	.section	__TEXT,__text,regular,pure_instructions
	.globl	__ZN4core4iter6traits8iterator8Iterator4fold17hfaf88cfa2002715bE
	.p2align	4, 0x90
__ZN4core4iter6traits8iterator8Iterator4fold17hfaf88cfa2002715bE:
Lfunc_begin114:
	.loc	25 2431 0
	.cfi_startproc
	.cfi_personality 155, _rust_eh_personality
	.cfi_lsda 16, Lexception38
	pushq	%rbp
	.cfi_def_cfa_offset 16
	.cfi_offset %rbp, -16
	movq	%rsp, %rbp
	.cfi_def_cfa_register %rbp
	subq	$192, %rsp
	movq	%rdi, -192(%rbp)
Ltmp1199:
	movq	%rsi, -184(%rbp)
Ltmp1200:
	.loc	25 2436 25 prologue_end
	movb	$1, -33(%rbp)
Ltmp1201:
LBB114_1:
Ltmp1189:
	.loc	25 0 25 is_stmt 0
	movq	-192(%rbp), %rsi
	leaq	-176(%rbp), %rdi
Ltmp1202:
	.loc	25 2437 29 is_stmt 1
	callq	__ZN99_$LT$core..iter..sources..once..Once$LT$T$GT$$u20$as$u20$core..iter..traits..iterator..Iterator$GT$4next17hbdab4477d278ea8cE
Ltmp1190:
	jmp	LBB114_4
Ltmp1203:
LBB114_2:
	.loc	25 2441 5
	testb	$1, -33(%rbp)
	jne	LBB114_11
	jmp	LBB114_10
Ltmp1204:
LBB114_3:
Ltmp1195:
	.loc	25 0 5 is_stmt 0
	movq	%rax, %rcx
	movl	%edx, %eax
	movq	%rcx, -16(%rbp)
	movl	%eax, -8(%rbp)
	jmp	LBB114_2
Ltmp1205:
LBB114_4:
	.loc	25 2437 19 is_stmt 1
	cmpq	$1, -176(%rbp)
	jne	LBB114_6
Ltmp1206:
	.loc	25 2437 24 is_stmt 0
	movq	-144(%rbp), %rax
	movq	%rax, -112(%rbp)
	movq	-152(%rbp), %rax
	movq	%rax, -120(%rbp)
	movq	-168(%rbp), %rax
	movq	-160(%rbp), %rcx
	movq	%rcx, -128(%rbp)
	movq	%rax, -136(%rbp)
	.loc	25 2438 23 is_stmt 1
	movb	$0, -33(%rbp)
	.loc	25 2438 30 is_stmt 0
	movq	-112(%rbp), %rax
	movq	%rax, -48(%rbp)
	movq	-120(%rbp), %rax
	movq	%rax, -56(%rbp)
	movq	-136(%rbp), %rax
	movq	-128(%rbp), %rcx
	movq	%rcx, -64(%rbp)
	movq	%rax, -72(%rbp)
	.loc	25 2438 21
	movq	-48(%rbp), %rax
	movq	%rax, -80(%rbp)
	movq	-56(%rbp), %rax
	movq	%rax, -88(%rbp)
	movq	-72(%rbp), %rax
	movq	-64(%rbp), %rcx
	movq	%rcx, -96(%rbp)
	movq	%rax, -104(%rbp)
Ltmp1193:
	leaq	-184(%rbp), %rdi
	leaq	-104(%rbp), %rsi
	callq	__ZN4core4iter8adapters3map8map_fold28_$u7b$$u7b$closure$u7d$$u7d$17h8ed5c9ac39217a6aE
Ltmp1194:
	jmp	LBB114_9
Ltmp1207:
LBB114_6:
Ltmp1191:
	.loc	25 0 21
	leaq	-176(%rbp), %rdi
	.loc	25 2437 9 is_stmt 1
	callq	__ZN4core3ptr73drop_in_place$LT$core..option..Option$LT$proc_macro2..TokenStream$GT$$GT$17ha391f0e5a0c1899fE
Ltmp1192:
	jmp	LBB114_7
Ltmp1208:
LBB114_7:
	.loc	25 2441 5
	jmp	LBB114_8
Ltmp1209:
LBB114_8:
	.loc	25 0 5 is_stmt 0
	movq	-192(%rbp), %rdi
	.loc	25 2441 5
	callq	__ZN4core3ptr84drop_in_place$LT$core..iter..sources..once..Once$LT$proc_macro2..TokenStream$GT$$GT$17h9dd1c3b059c709f8E
	.loc	25 2441 6
	addq	$192, %rsp
	popq	%rbp
	retq
Ltmp1210:
LBB114_9:
	.loc	25 2438 13 is_stmt 1
	movb	$1, -33(%rbp)
Ltmp1211:
	.loc	25 2437 9
	jmp	LBB114_1
Ltmp1212:
LBB114_10:
	.loc	25 2441 5
	jmp	LBB114_12
Ltmp1213:
LBB114_11:
	jmp	LBB114_10
Ltmp1214:
LBB114_12:
Ltmp1196:
	.loc	25 0 5 is_stmt 0
	movq	-192(%rbp), %rdi
	.loc	25 2441 5
	callq	__ZN4core3ptr84drop_in_place$LT$core..iter..sources..once..Once$LT$proc_macro2..TokenStream$GT$$GT$17h9dd1c3b059c709f8E
Ltmp1197:
	jmp	LBB114_14
Ltmp1215:
LBB114_13:
Ltmp1198:
	.loc	25 2431 5 is_stmt 1
	callq	__ZN4core9panicking19panic_cannot_unwind17h1fbca7e1d7f56ae1E
Ltmp1216:
LBB114_14:
	movq	-16(%rbp), %rdi
	callq	__Unwind_Resume
Ltmp1217:
Lfunc_end114:
	.cfi_endproc
	.section	__TEXT,__gcc_except_tab
	.p2align	2
GCC_except_table114:
Lexception38:
	.byte	255
	.byte	255
	.byte	1
	.uleb128 Lcst_end38-Lcst_begin38
Lcst_begin38:
	.uleb128 Ltmp1189-Lfunc_begin114
	.uleb128 Ltmp1192-Ltmp1189
	.uleb128 Ltmp1195-Lfunc_begin114
	.byte	0
	.uleb128 Ltmp1192-Lfunc_begin114
	.uleb128 Ltmp1196-Ltmp1192
	.byte	0
	.byte	0
	.uleb128 Ltmp1196-Lfunc_begin114
	.uleb128 Ltmp1197-Ltmp1196
	.uleb128 Ltmp1198-Lfunc_begin114
	.byte	0
	.uleb128 Ltmp1197-Lfunc_begin114
	.uleb128 Lfunc_end114-Ltmp1197
	.byte	0
	.byte	0
Lcst_end38:
	.p2align	2

	.section	__TEXT,__text,regular,pure_instructions
	.globl	__ZN4core4iter6traits8iterator8Iterator4fuse17hd0f598d67ace37e6E
	.p2align	4, 0x90
__ZN4core4iter6traits8iterator8Iterator4fuse17hd0f598d67ace37e6E:
Lfunc_begin115:
	.loc	25 1623 0
	.cfi_startproc
	pushq	%rbp
	.cfi_def_cfa_offset 16
	.cfi_offset %rbp, -16
	movq	%rsp, %rbp
	.cfi_def_cfa_register %rbp
	subq	$64, %rsp
	movq	%rdi, -56(%rbp)
	movq	%rdi, -48(%rbp)
Ltmp1218:
	.loc	25 1627 19 prologue_end
	leaq	-40(%rbp), %rdi
	movl	$40, %edx
	callq	_memcpy
Ltmp1219:
	.loc	25 0 19 is_stmt 0
	movq	-56(%rbp), %rdi
	.loc	25 1627 9
	leaq	-40(%rbp), %rsi
	callq	__ZN4core4iter8adapters4fuse13Fuse$LT$I$GT$3new17ha1fe4d24be3199fdE
	movq	-48(%rbp), %rax
	.loc	25 1628 6 is_stmt 1
	addq	$64, %rsp
	popq	%rbp
	retq
Ltmp1220:
Lfunc_end115:
	.cfi_endproc

	.globl	__ZN4core4iter6traits8iterator8Iterator7collect17h18c9bba48a24987bE
	.p2align	4, 0x90
__ZN4core4iter6traits8iterator8Iterator7collect17h18c9bba48a24987bE:
Lfunc_begin116:
	.loc	25 1856 0
	.cfi_startproc
	pushq	%rbp
	.cfi_def_cfa_offset 16
	.cfi_offset %rbp, -16
	movq	%rsp, %rbp
	.cfi_def_cfa_register %rbp
	subq	$48, %rsp
	movq	%rdi, %rsi
Ltmp1221:
	.loc	25 1860 33 prologue_end
	leaq	-48(%rbp), %rdi
	movl	$48, %edx
	callq	_memcpy
Ltmp1222:
	.loc	25 1860 9 is_stmt 0
	leaq	-48(%rbp), %rdi
	callq	__ZN114_$LT$proc_macro..TokenStream$u20$as$u20$core..iter..traits..collect..FromIterator$LT$proc_macro..TokenTree$GT$$GT$9from_iter17hb62597a6451f8f8dE
	.loc	25 1861 6 is_stmt 1
	addq	$48, %rsp
	popq	%rbp
	retq
Ltmp1223:
Lfunc_end116:
	.cfi_endproc

	.globl	__ZN4core4iter6traits8iterator8Iterator7collect17h64344c27b1b4d9acE
	.p2align	4, 0x90
__ZN4core4iter6traits8iterator8Iterator7collect17h64344c27b1b4d9acE:
Lfunc_begin117:
	.loc	25 1856 0
	.cfi_startproc
	pushq	%rbp
	.cfi_def_cfa_offset 16
	.cfi_offset %rbp, -16
	movq	%rsp, %rbp
	.cfi_def_cfa_register %rbp
	subq	$64, %rsp
	movq	%rdi, -64(%rbp)
	movq	%rdi, -56(%rbp)
Ltmp1224:
	.loc	25 1860 33 prologue_end
	leaq	-48(%rbp), %rdi
	movl	$48, %edx
	callq	_memcpy
Ltmp1225:
	.loc	25 0 33 is_stmt 0
	movq	-64(%rbp), %rdi
	.loc	25 1860 9
	leaq	-48(%rbp), %rsi
	callq	__ZN116_$LT$proc_macro2..TokenStream$u20$as$u20$core..iter..traits..collect..FromIterator$LT$proc_macro2..TokenTree$GT$$GT$9from_iter17h137e32af60e08be2E
	movq	-56(%rbp), %rax
	.loc	25 1861 6 is_stmt 1
	addq	$64, %rsp
	popq	%rbp
	retq
Ltmp1226:
Lfunc_end117:
	.cfi_endproc

	.globl	__ZN4core4iter6traits8iterator8Iterator7collect17h7ea904b6f46f8d67E
	.p2align	4, 0x90
__ZN4core4iter6traits8iterator8Iterator7collect17h7ea904b6f46f8d67E:
Lfunc_begin118:
	.loc	25 1856 0
	.cfi_startproc
	pushq	%rbp
	.cfi_def_cfa_offset 16
	.cfi_offset %rbp, -16
	movq	%rsp, %rbp
	.cfi_def_cfa_register %rbp
	subq	$48, %rsp
	movq	%rdi, %rsi
Ltmp1227:
	.loc	25 1860 33 prologue_end
	leaq	-48(%rbp), %rdi
	movl	$48, %edx
	callq	_memcpy
Ltmp1228:
	.loc	25 1860 9 is_stmt 0
	leaq	-48(%rbp), %rdi
	callq	__ZN126_$LT$proc_macro2..fallback..TokenStream$u20$as$u20$core..iter..traits..collect..FromIterator$LT$proc_macro2..TokenTree$GT$$GT$9from_iter17h9bb5acbaa03f0627E
	.loc	25 1861 6 is_stmt 1
	addq	$48, %rsp
	popq	%rbp
	retq
Ltmp1229:
Lfunc_end118:
	.cfi_endproc

	.globl	__ZN4core4iter6traits8iterator8Iterator7collect17he2c39c493d3e9319E
	.p2align	4, 0x90
__ZN4core4iter6traits8iterator8Iterator7collect17he2c39c493d3e9319E:
Lfunc_begin119:
	.loc	25 1856 0
	.cfi_startproc
	pushq	%rbp
	.cfi_def_cfa_offset 16
	.cfi_offset %rbp, -16
	movq	%rsp, %rbp
	.cfi_def_cfa_register %rbp
	subq	$64, %rsp
	movq	%rdi, -64(%rbp)
	movq	%rdi, -56(%rbp)
Ltmp1230:
	.loc	25 1860 33 prologue_end
	leaq	-48(%rbp), %rdi
	movl	$48, %edx
	callq	_memcpy
Ltmp1231:
	.loc	25 0 33 is_stmt 0
	movq	-64(%rbp), %rdi
	.loc	25 1860 9
	leaq	-48(%rbp), %rsi
	callq	__ZN121_$LT$proc_macro2..imp..TokenStream$u20$as$u20$core..iter..traits..collect..FromIterator$LT$proc_macro2..TokenTree$GT$$GT$9from_iter17h56217f4282a78e49E
	movq	-56(%rbp), %rax
	.loc	25 1861 6 is_stmt 1
	addq	$64, %rsp
	popq	%rbp
	retq
Ltmp1232:
Lfunc_end119:
	.cfi_endproc

	.globl	__ZN4core4iter6traits8iterator8Iterator7flatten17h27a48dc2824adcc8E
	.p2align	4, 0x90
__ZN4core4iter6traits8iterator8Iterator7flatten17h27a48dc2824adcc8E:
Lfunc_begin120:
	.loc	25 1555 0
	.cfi_startproc
	pushq	%rbp
	.cfi_def_cfa_offset 16
	.cfi_offset %rbp, -16
	movq	%rsp, %rbp
	.cfi_def_cfa_register %rbp
	subq	$64, %rsp
	movq	%rdi, -56(%rbp)
	movq	%rdi, -48(%rbp)
Ltmp1233:
	.loc	25 1560 22 prologue_end
	leaq	-40(%rbp), %rdi
	movl	$40, %edx
	callq	_memcpy
Ltmp1234:
	.loc	25 0 22 is_stmt 0
	movq	-56(%rbp), %rdi
	.loc	25 1560 9
	leaq	-40(%rbp), %rsi
	callq	__ZN4core4iter8adapters7flatten16Flatten$LT$I$GT$3new17hc38533ffdd3c13dcE
	movq	-48(%rbp), %rax
	.loc	25 1561 6 is_stmt 1
	addq	$64, %rsp
	popq	%rbp
	retq
Ltmp1235:
Lfunc_end120:
	.cfi_endproc

	.globl	__ZN4core4iter6traits8iterator8Iterator8for_each17h451dbf2a77466ed0E
	.p2align	4, 0x90
__ZN4core4iter6traits8iterator8Iterator8for_each17h451dbf2a77466ed0E:
Lfunc_begin121:
	.loc	25 827 0
	.cfi_startproc
	.cfi_personality 155, _rust_eh_personality
	.cfi_lsda 16, Lexception39
	pushq	%rbp
	.cfi_def_cfa_offset 16
	.cfi_offset %rbp, -16
	movq	%rsp, %rbp
	.cfi_def_cfa_register %rbp
	subq	$96, %rsp
	movq	%rsi, -32(%rbp)
Ltmp1242:
	.loc	25 837 9 prologue_end
	movq	40(%rdi), %rax
	movq	%rax, -48(%rbp)
	movq	32(%rdi), %rax
	movq	%rax, -56(%rbp)
	movq	24(%rdi), %rax
	movq	%rax, -64(%rbp)
	movq	16(%rdi), %rax
	movq	%rax, -72(%rbp)
	movq	(%rdi), %rax
	movq	8(%rdi), %rcx
	movq	%rcx, -80(%rbp)
	movq	%rax, -88(%rbp)
	.loc	25 837 28 is_stmt 0
	movq	%rsi, -24(%rbp)
Ltmp1243:
	.loc	25 834 13 is_stmt 1
	movq	%rsi, -40(%rbp)
Ltmp1244:
	.loc	25 837 9
	movq	-40(%rbp), %rsi
Ltmp1236:
	leaq	-88(%rbp), %rdi
Ltmp1245:
	callq	__ZN102_$LT$core..iter..adapters..map..Map$LT$I$C$F$GT$$u20$as$u20$core..iter..traits..iterator..Iterator$GT$4fold17hef2aaf66a60dbe42E
Ltmp1237:
	jmp	LBB121_3
Ltmp1246:
LBB121_1:
	.loc	25 837 30 is_stmt 0
	xorl	%eax, %eax
	testb	$1, %al
	jne	LBB121_5
	jmp	LBB121_4
Ltmp1247:
LBB121_2:
Ltmp1238:
	.loc	25 0 30
	movq	%rax, %rcx
	movl	%edx, %eax
	movq	%rcx, -16(%rbp)
	movl	%eax, -8(%rbp)
	jmp	LBB121_1
Ltmp1248:
LBB121_3:
	.loc	25 838 6 is_stmt 1
	addq	$96, %rsp
	popq	%rbp
	retq
Ltmp1249:
LBB121_4:
	.loc	25 827 5
	movq	-16(%rbp), %rdi
	callq	__Unwind_Resume
Ltmp1250:
LBB121_5:
Ltmp1239:
	.loc	25 0 5 is_stmt 0
	leaq	-88(%rbp), %rdi
	.loc	25 837 30 is_stmt 1
	callq	__ZN4core3ptr239drop_in_place$LT$core..iter..adapters..map..Map$LT$core..iter..adapters..map..Map$LT$proc_macro2..token_stream..IntoIter$C$quote..__private..respan_token_tree..$u7b$$u7b$closure$u7d$$u7d$$GT$$C$proc_macro2..imp..into_compiler_token$GT$$GT$17h98a1702cc3a9433eE
Ltmp1240:
	jmp	LBB121_4
Ltmp1251:
LBB121_6:
Ltmp1241:
	.loc	25 827 5
	callq	__ZN4core9panicking19panic_cannot_unwind17h1fbca7e1d7f56ae1E
Ltmp1252:
Lfunc_end121:
	.cfi_endproc
	.section	__TEXT,__gcc_except_tab
	.p2align	2
GCC_except_table121:
Lexception39:
	.byte	255
	.byte	255
	.byte	1
	.uleb128 Lcst_end39-Lcst_begin39
Lcst_begin39:
	.uleb128 Ltmp1236-Lfunc_begin121
	.uleb128 Ltmp1237-Ltmp1236
	.uleb128 Ltmp1238-Lfunc_begin121
	.byte	0
	.uleb128 Ltmp1237-Lfunc_begin121
	.uleb128 Ltmp1239-Ltmp1237
	.byte	0
	.byte	0
	.uleb128 Ltmp1239-Lfunc_begin121
	.uleb128 Ltmp1240-Ltmp1239
	.uleb128 Ltmp1241-Lfunc_begin121
	.byte	0
Lcst_end39:
	.p2align	2

	.section	__TEXT,__text,regular,pure_instructions
	.globl	__ZN4core4iter6traits8iterator8Iterator8for_each17h72c221f517b128faE
	.p2align	4, 0x90
__ZN4core4iter6traits8iterator8Iterator8for_each17h72c221f517b128faE:
Lfunc_begin122:
	.loc	25 827 0
	.cfi_startproc
	.cfi_personality 155, _rust_eh_personality
	.cfi_lsda 16, Lexception40
	pushq	%rbp
	.cfi_def_cfa_offset 16
	.cfi_offset %rbp, -16
	movq	%rsp, %rbp
	.cfi_def_cfa_register %rbp
	subq	$80, %rsp
	movq	%rsi, -32(%rbp)
Ltmp1259:
	.loc	25 837 9 prologue_end
	movq	32(%rdi), %rax
	movq	%rax, -48(%rbp)
	movq	24(%rdi), %rax
	movq	%rax, -56(%rbp)
	movq	16(%rdi), %rax
	movq	%rax, -64(%rbp)
	movq	(%rdi), %rax
	movq	8(%rdi), %rcx
	movq	%rcx, -72(%rbp)
	movq	%rax, -80(%rbp)
	.loc	25 837 28 is_stmt 0
	movq	%rsi, -24(%rbp)
Ltmp1260:
	.loc	25 834 13 is_stmt 1
	movq	%rsi, -40(%rbp)
Ltmp1261:
	.loc	25 837 9
	movq	-40(%rbp), %rsi
Ltmp1253:
	leaq	-80(%rbp), %rdi
Ltmp1262:
	callq	__ZN102_$LT$core..iter..adapters..map..Map$LT$I$C$F$GT$$u20$as$u20$core..iter..traits..iterator..Iterator$GT$4fold17hb26f7ddd06db0e21E
Ltmp1254:
	jmp	LBB122_3
Ltmp1263:
LBB122_1:
	.loc	25 837 30 is_stmt 0
	xorl	%eax, %eax
	testb	$1, %al
	jne	LBB122_5
	jmp	LBB122_4
Ltmp1264:
LBB122_2:
Ltmp1255:
	.loc	25 0 30
	movq	%rax, %rcx
	movl	%edx, %eax
	movq	%rcx, -16(%rbp)
	movl	%eax, -8(%rbp)
	jmp	LBB122_1
Ltmp1265:
LBB122_3:
	.loc	25 838 6 is_stmt 1
	addq	$80, %rsp
	popq	%rbp
	retq
Ltmp1266:
LBB122_4:
	.loc	25 827 5
	movq	-16(%rbp), %rdi
	callq	__Unwind_Resume
Ltmp1267:
LBB122_5:
Ltmp1256:
	.loc	25 0 5 is_stmt 0
	leaq	-80(%rbp), %rdi
	.loc	25 837 30 is_stmt 1
	callq	__ZN4core3ptr430drop_in_place$LT$core..iter..adapters..map..Map$LT$core..iter..adapters..map..Map$LT$core..iter..sources..once..Once$LT$proc_macro2..TokenStream$GT$$C$$LT$proc_macro2..TokenStream$u20$as$u20$core..iter..traits..collect..Extend$LT$proc_macro2..TokenStream$GT$$GT$..extend$LT$core..iter..sources..once..Once$LT$proc_macro2..TokenStream$GT$$GT$..$u7b$$u7b$closure$u7d$$u7d$$GT$$C$proc_macro2..imp..TokenStream..unwrap_nightly$GT$$GT$17ha339318388eebf1fE
Ltmp1257:
	jmp	LBB122_4
Ltmp1268:
LBB122_6:
Ltmp1258:
	.loc	25 827 5
	callq	__ZN4core9panicking19panic_cannot_unwind17h1fbca7e1d7f56ae1E
Ltmp1269:
Lfunc_end122:
	.cfi_endproc
	.section	__TEXT,__gcc_except_tab
	.p2align	2
GCC_except_table122:
Lexception40:
	.byte	255
	.byte	255
	.byte	1
	.uleb128 Lcst_end40-Lcst_begin40
Lcst_begin40:
	.uleb128 Ltmp1253-Lfunc_begin122
	.uleb128 Ltmp1254-Ltmp1253
	.uleb128 Ltmp1255-Lfunc_begin122
	.byte	0
	.uleb128 Ltmp1254-Lfunc_begin122
	.uleb128 Ltmp1256-Ltmp1254
	.byte	0
	.byte	0
	.uleb128 Ltmp1256-Lfunc_begin122
	.uleb128 Ltmp1257-Ltmp1256
	.uleb128 Ltmp1258-Lfunc_begin122
	.byte	0
Lcst_end40:
	.p2align	2

	.section	__TEXT,__text,regular,pure_instructions
	.globl	__ZN4core4iter6traits8iterator8Iterator8for_each17h750f2ae19fe98a53E
	.p2align	4, 0x90
__ZN4core4iter6traits8iterator8Iterator8for_each17h750f2ae19fe98a53E:
Lfunc_begin123:
	.loc	25 827 0
	.cfi_startproc
	.cfi_personality 155, _rust_eh_personality
	.cfi_lsda 16, Lexception41
	pushq	%rbp
	.cfi_def_cfa_offset 16
	.cfi_offset %rbp, -16
	movq	%rsp, %rbp
	.cfi_def_cfa_register %rbp
	subq	$96, %rsp
	movq	%rsi, -32(%rbp)
Ltmp1276:
	.loc	25 837 9 prologue_end
	movq	40(%rdi), %rax
	movq	%rax, -48(%rbp)
	movq	32(%rdi), %rax
	movq	%rax, -56(%rbp)
	movq	24(%rdi), %rax
	movq	%rax, -64(%rbp)
	movq	16(%rdi), %rax
	movq	%rax, -72(%rbp)
	movq	(%rdi), %rax
	movq	8(%rdi), %rcx
	movq	%rcx, -80(%rbp)
	movq	%rax, -88(%rbp)
	.loc	25 837 28 is_stmt 0
	movq	%rsi, -24(%rbp)
Ltmp1277:
	.loc	25 834 13 is_stmt 1
	movq	%rsi, -40(%rbp)
Ltmp1278:
	.loc	25 837 9
	movq	-40(%rbp), %rsi
Ltmp1270:
	leaq	-88(%rbp), %rdi
Ltmp1279:
	callq	__ZN102_$LT$core..iter..adapters..map..Map$LT$I$C$F$GT$$u20$as$u20$core..iter..traits..iterator..Iterator$GT$4fold17h0403437a74312892E
Ltmp1271:
	jmp	LBB123_3
Ltmp1280:
LBB123_1:
	.loc	25 837 30 is_stmt 0
	xorl	%eax, %eax
	testb	$1, %al
	jne	LBB123_5
	jmp	LBB123_4
Ltmp1281:
LBB123_2:
Ltmp1272:
	.loc	25 0 30
	movq	%rax, %rcx
	movl	%edx, %eax
	movq	%rcx, -16(%rbp)
	movl	%eax, -8(%rbp)
	jmp	LBB123_1
Ltmp1282:
LBB123_3:
	.loc	25 838 6 is_stmt 1
	addq	$96, %rsp
	popq	%rbp
	retq
Ltmp1283:
LBB123_4:
	.loc	25 827 5
	movq	-16(%rbp), %rdi
	callq	__Unwind_Resume
Ltmp1284:
LBB123_5:
Ltmp1273:
	.loc	25 0 5 is_stmt 0
	leaq	-88(%rbp), %rdi
	.loc	25 837 30 is_stmt 1
	callq	__ZN4core3ptr161drop_in_place$LT$core..iter..adapters..map..Map$LT$proc_macro2..token_stream..IntoIter$C$quote..__private..respan_token_tree..$u7b$$u7b$closure$u7d$$u7d$$GT$$GT$17h3ab324330759af7aE
Ltmp1274:
	jmp	LBB123_4
Ltmp1285:
LBB123_6:
Ltmp1275:
	.loc	25 827 5
	callq	__ZN4core9panicking19panic_cannot_unwind17h1fbca7e1d7f56ae1E
Ltmp1286:
Lfunc_end123:
	.cfi_endproc
	.section	__TEXT,__gcc_except_tab
	.p2align	2
GCC_except_table123:
Lexception41:
	.byte	255
	.byte	255
	.byte	1
	.uleb128 Lcst_end41-Lcst_begin41
Lcst_begin41:
	.uleb128 Ltmp1270-Lfunc_begin123
	.uleb128 Ltmp1271-Ltmp1270
	.uleb128 Ltmp1272-Lfunc_begin123
	.byte	0
	.uleb128 Ltmp1271-Lfunc_begin123
	.uleb128 Ltmp1273-Ltmp1271
	.byte	0
	.byte	0
	.uleb128 Ltmp1273-Lfunc_begin123
	.uleb128 Ltmp1274-Ltmp1273
	.uleb128 Ltmp1275-Lfunc_begin123
	.byte	0
Lcst_end41:
	.p2align	2

	.section	__TEXT,__text,regular,pure_instructions
	.globl	__ZN4core4iter6traits8iterator8Iterator8for_each17h8e1aa969973589abE
	.p2align	4, 0x90
__ZN4core4iter6traits8iterator8Iterator8for_each17h8e1aa969973589abE:
Lfunc_begin124:
	.loc	25 827 0
	.cfi_startproc
	.cfi_personality 155, _rust_eh_personality
	.cfi_lsda 16, Lexception42
	pushq	%rbp
	.cfi_def_cfa_offset 16
	.cfi_offset %rbp, -16
	movq	%rsp, %rbp
	.cfi_def_cfa_register %rbp
	subq	$96, %rsp
	movq	%rsi, -32(%rbp)
Ltmp1293:
	.loc	25 837 9 prologue_end
	movq	40(%rdi), %rax
	movq	%rax, -48(%rbp)
	movq	32(%rdi), %rax
	movq	%rax, -56(%rbp)
	movq	24(%rdi), %rax
	movq	%rax, -64(%rbp)
	movq	16(%rdi), %rax
	movq	%rax, -72(%rbp)
	movq	(%rdi), %rax
	movq	8(%rdi), %rcx
	movq	%rcx, -80(%rbp)
	movq	%rax, -88(%rbp)
	.loc	25 837 28 is_stmt 0
	movq	%rsi, -24(%rbp)
Ltmp1294:
	.loc	25 834 13 is_stmt 1
	movq	%rsi, -40(%rbp)
Ltmp1295:
	.loc	25 837 9
	movq	-40(%rbp), %rsi
Ltmp1287:
	leaq	-88(%rbp), %rdi
Ltmp1296:
	callq	__ZN102_$LT$core..iter..adapters..map..Map$LT$I$C$F$GT$$u20$as$u20$core..iter..traits..iterator..Iterator$GT$4fold17h66446e1b1435ebf8E
Ltmp1288:
	jmp	LBB124_3
Ltmp1297:
LBB124_1:
	.loc	25 837 30 is_stmt 0
	xorl	%eax, %eax
	testb	$1, %al
	jne	LBB124_5
	jmp	LBB124_4
Ltmp1298:
LBB124_2:
Ltmp1289:
	.loc	25 0 30
	movq	%rax, %rcx
	movl	%edx, %eax
	movq	%rcx, -16(%rbp)
	movl	%eax, -8(%rbp)
	jmp	LBB124_1
Ltmp1299:
LBB124_3:
	.loc	25 838 6 is_stmt 1
	addq	$96, %rsp
	popq	%rbp
	retq
Ltmp1300:
LBB124_4:
	.loc	25 827 5
	movq	-16(%rbp), %rdi
	callq	__Unwind_Resume
Ltmp1301:
LBB124_5:
Ltmp1290:
	.loc	25 0 5 is_stmt 0
	leaq	-88(%rbp), %rdi
	.loc	25 837 30 is_stmt 1
	callq	__ZN4core3ptr157drop_in_place$LT$core..iter..adapters..map..Map$LT$proc_macro2..token_stream..IntoIter$C$quote..__private..parse_spanned..$u7b$$u7b$closure$u7d$$u7d$$GT$$GT$17h31675f20fe9bb12dE
Ltmp1291:
	jmp	LBB124_4
Ltmp1302:
LBB124_6:
Ltmp1292:
	.loc	25 827 5
	callq	__ZN4core9panicking19panic_cannot_unwind17h1fbca7e1d7f56ae1E
Ltmp1303:
Lfunc_end124:
	.cfi_endproc
	.section	__TEXT,__gcc_except_tab
	.p2align	2
GCC_except_table124:
Lexception42:
	.byte	255
	.byte	255
	.byte	1
	.uleb128 Lcst_end42-Lcst_begin42
Lcst_begin42:
	.uleb128 Ltmp1287-Lfunc_begin124
	.uleb128 Ltmp1288-Ltmp1287
	.uleb128 Ltmp1289-Lfunc_begin124
	.byte	0
	.uleb128 Ltmp1288-Lfunc_begin124
	.uleb128 Ltmp1290-Ltmp1288
	.byte	0
	.byte	0
	.uleb128 Ltmp1290-Lfunc_begin124
	.uleb128 Ltmp1291-Ltmp1290
	.uleb128 Ltmp1292-Lfunc_begin124
	.byte	0
Lcst_end42:
	.p2align	2

	.section	__TEXT,__text,regular,pure_instructions
	.globl	__ZN4core4iter6traits8iterator8Iterator8for_each17hc8e57b5f65904db4E
	.p2align	4, 0x90
__ZN4core4iter6traits8iterator8Iterator8for_each17hc8e57b5f65904db4E:
Lfunc_begin125:
	.loc	25 827 0
	.cfi_startproc
	.cfi_personality 155, _rust_eh_personality
	.cfi_lsda 16, Lexception43
	pushq	%rbp
	.cfi_def_cfa_offset 16
	.cfi_offset %rbp, -16
	movq	%rsp, %rbp
	.cfi_def_cfa_register %rbp
	subq	$64, %rsp
	movq	%rsi, -32(%rbp)
Ltmp1307:
	.loc	25 837 9 prologue_end
	movq	16(%rdi), %rax
	movq	%rax, -48(%rbp)
	movq	(%rdi), %rax
	movq	8(%rdi), %rcx
	movq	%rcx, -56(%rbp)
	movq	%rax, -64(%rbp)
	.loc	25 837 28 is_stmt 0
	movq	%rsi, -24(%rbp)
Ltmp1308:
	.loc	25 834 13 is_stmt 1
	movq	%rsi, -40(%rbp)
Ltmp1309:
	.loc	25 837 9
	movq	-40(%rbp), %rsi
Ltmp1304:
	leaq	-64(%rbp), %rdi
Ltmp1310:
	callq	__ZN4core4iter6traits8iterator8Iterator4fold17h0be58259132b79c2E
Ltmp1305:
	jmp	LBB125_3
Ltmp1311:
LBB125_1:
	.loc	25 837 30 is_stmt 0
	xorl	%eax, %eax
	testb	$1, %al
	jne	LBB125_5
	jmp	LBB125_4
Ltmp1312:
LBB125_2:
Ltmp1306:
	.loc	25 0 30
	movq	%rax, %rcx
	movl	%edx, %eax
	movq	%rcx, -16(%rbp)
	movl	%eax, -8(%rbp)
	jmp	LBB125_1
Ltmp1313:
LBB125_3:
	.loc	25 838 6 is_stmt 1
	addq	$64, %rsp
	popq	%rbp
	retq
Ltmp1314:
LBB125_4:
	.loc	25 827 5
	movq	-16(%rbp), %rdi
	callq	__Unwind_Resume
Ltmp1315:
LBB125_5:
	.loc	25 837 30
	jmp	LBB125_4
Ltmp1316:
Lfunc_end125:
	.cfi_endproc
	.section	__TEXT,__gcc_except_tab
	.p2align	2
GCC_except_table125:
Lexception43:
	.byte	255
	.byte	255
	.byte	1
	.uleb128 Lcst_end43-Lcst_begin43
Lcst_begin43:
	.uleb128 Ltmp1304-Lfunc_begin125
	.uleb128 Ltmp1305-Ltmp1304
	.uleb128 Ltmp1306-Lfunc_begin125
	.byte	0
	.uleb128 Ltmp1305-Lfunc_begin125
	.uleb128 Lfunc_end125-Ltmp1305
	.byte	0
	.byte	0
Lcst_end43:
	.p2align	2

	.section	__TEXT,__text,regular,pure_instructions
	.globl	__ZN4core4iter6traits8iterator8Iterator8for_each17hcd5e5eb9615b2e34E
	.p2align	4, 0x90
__ZN4core4iter6traits8iterator8Iterator8for_each17hcd5e5eb9615b2e34E:
Lfunc_begin126:
	.loc	25 827 0
	.cfi_startproc
	.cfi_personality 155, _rust_eh_personality
	.cfi_lsda 16, Lexception44
	pushq	%rbp
	.cfi_def_cfa_offset 16
	.cfi_offset %rbp, -16
	movq	%rsp, %rbp
	.cfi_def_cfa_register %rbp
	subq	$64, %rsp
	movq	%rsi, -32(%rbp)
Ltmp1320:
	.loc	25 837 9 prologue_end
	movq	16(%rdi), %rax
	movq	%rax, -48(%rbp)
	movq	(%rdi), %rax
	movq	8(%rdi), %rcx
	movq	%rcx, -56(%rbp)
	movq	%rax, -64(%rbp)
	.loc	25 837 28 is_stmt 0
	movq	%rsi, -24(%rbp)
Ltmp1321:
	.loc	25 834 13 is_stmt 1
	movq	%rsi, -40(%rbp)
Ltmp1322:
	.loc	25 837 9
	movq	-40(%rbp), %rsi
Ltmp1317:
	leaq	-64(%rbp), %rdi
Ltmp1323:
	callq	__ZN4core4iter6traits8iterator8Iterator4fold17hce483501db55c28bE
Ltmp1318:
	jmp	LBB126_3
Ltmp1324:
LBB126_1:
	.loc	25 837 30 is_stmt 0
	xorl	%eax, %eax
	testb	$1, %al
	jne	LBB126_5
	jmp	LBB126_4
Ltmp1325:
LBB126_2:
Ltmp1319:
	.loc	25 0 30
	movq	%rax, %rcx
	movl	%edx, %eax
	movq	%rcx, -16(%rbp)
	movl	%eax, -8(%rbp)
	jmp	LBB126_1
Ltmp1326:
LBB126_3:
	.loc	25 838 6 is_stmt 1
	addq	$64, %rsp
	popq	%rbp
	retq
Ltmp1327:
LBB126_4:
	.loc	25 827 5
	movq	-16(%rbp), %rdi
	callq	__Unwind_Resume
Ltmp1328:
LBB126_5:
	.loc	25 837 30
	jmp	LBB126_4
Ltmp1329:
Lfunc_end126:
	.cfi_endproc
	.section	__TEXT,__gcc_except_tab
	.p2align	2
GCC_except_table126:
Lexception44:
	.byte	255
	.byte	255
	.byte	1
	.uleb128 Lcst_end44-Lcst_begin44
Lcst_begin44:
	.uleb128 Ltmp1317-Lfunc_begin126
	.uleb128 Ltmp1318-Ltmp1317
	.uleb128 Ltmp1319-Lfunc_begin126
	.byte	0
	.uleb128 Ltmp1318-Lfunc_begin126
	.uleb128 Lfunc_end126-Ltmp1318
	.byte	0
	.byte	0
Lcst_end44:
	.p2align	2

	.section	__TEXT,__text,regular,pure_instructions
	.globl	__ZN4core4iter6traits8iterator8Iterator8for_each17hdf70da6b0985536bE
	.p2align	4, 0x90
__ZN4core4iter6traits8iterator8Iterator8for_each17hdf70da6b0985536bE:
Lfunc_begin127:
	.loc	25 827 0
	.cfi_startproc
	.cfi_personality 155, _rust_eh_personality
	.cfi_lsda 16, Lexception45
	pushq	%rbp
	.cfi_def_cfa_offset 16
	.cfi_offset %rbp, -16
	movq	%rsp, %rbp
	.cfi_def_cfa_register %rbp
	subq	$80, %rsp
	movq	%rsi, -32(%rbp)
Ltmp1336:
	.loc	25 837 9 prologue_end
	movq	32(%rdi), %rax
	movq	%rax, -48(%rbp)
	movq	24(%rdi), %rax
	movq	%rax, -56(%rbp)
	movq	16(%rdi), %rax
	movq	%rax, -64(%rbp)
	movq	(%rdi), %rax
	movq	8(%rdi), %rcx
	movq	%rcx, -72(%rbp)
	movq	%rax, -80(%rbp)
	.loc	25 837 28 is_stmt 0
	movq	%rsi, -24(%rbp)
Ltmp1337:
	.loc	25 834 13 is_stmt 1
	movq	%rsi, -40(%rbp)
Ltmp1338:
	.loc	25 837 9
	movq	-40(%rbp), %rsi
Ltmp1330:
	leaq	-80(%rbp), %rdi
Ltmp1339:
	callq	__ZN4core4iter6traits8iterator8Iterator4fold17h48b3864af8e71bddE
Ltmp1331:
	jmp	LBB127_3
Ltmp1340:
LBB127_1:
	.loc	25 837 30 is_stmt 0
	xorl	%eax, %eax
	testb	$1, %al
	jne	LBB127_5
	jmp	LBB127_4
Ltmp1341:
LBB127_2:
Ltmp1332:
	.loc	25 0 30
	movq	%rax, %rcx
	movl	%edx, %eax
	movq	%rcx, -16(%rbp)
	movl	%eax, -8(%rbp)
	jmp	LBB127_1
Ltmp1342:
LBB127_3:
	.loc	25 838 6 is_stmt 1
	addq	$80, %rsp
	popq	%rbp
	retq
Ltmp1343:
LBB127_4:
	.loc	25 827 5
	movq	-16(%rbp), %rdi
	callq	__Unwind_Resume
Ltmp1344:
LBB127_5:
Ltmp1333:
	.loc	25 0 5 is_stmt 0
	leaq	-80(%rbp), %rdi
	.loc	25 837 30 is_stmt 1
	callq	__ZN4core3ptr82drop_in_place$LT$core..iter..sources..once..Once$LT$proc_macro2..TokenTree$GT$$GT$17h16a48431dbb4e5eaE
Ltmp1334:
	jmp	LBB127_4
Ltmp1345:
LBB127_6:
Ltmp1335:
	.loc	25 827 5
	callq	__ZN4core9panicking19panic_cannot_unwind17h1fbca7e1d7f56ae1E
Ltmp1346:
Lfunc_end127:
	.cfi_endproc
	.section	__TEXT,__gcc_except_tab
	.p2align	2
GCC_except_table127:
Lexception45:
	.byte	255
	.byte	255
	.byte	1
	.uleb128 Lcst_end45-Lcst_begin45
Lcst_begin45:
	.uleb128 Ltmp1330-Lfunc_begin127
	.uleb128 Ltmp1331-Ltmp1330
	.uleb128 Ltmp1332-Lfunc_begin127
	.byte	0
	.uleb128 Ltmp1331-Lfunc_begin127
	.uleb128 Ltmp1333-Ltmp1331
	.byte	0
	.byte	0
	.uleb128 Ltmp1333-Lfunc_begin127
	.uleb128 Ltmp1334-Ltmp1333
	.uleb128 Ltmp1335-Lfunc_begin127
	.byte	0
Lcst_end45:
	.p2align	2

	.section	__TEXT,__text,regular,pure_instructions
	.globl	__ZN4core4iter6traits8iterator8Iterator8for_each4call28_$u7b$$u7b$closure$u7d$$u7d$17h341a42248df49d33E
	.p2align	4, 0x90
__ZN4core4iter6traits8iterator8Iterator8for_each4call28_$u7b$$u7b$closure$u7d$$u7d$17h341a42248df49d33E:
Lfunc_begin128:
	.loc	25 834 0
	.cfi_startproc
	pushq	%rbp
	.cfi_def_cfa_offset 16
	.cfi_offset %rbp, -16
	movq	%rsp, %rbp
	.cfi_def_cfa_register %rbp
	subq	$32, %rsp
	movq	%rdi, -16(%rbp)
	movl	%esi, -4(%rbp)
Ltmp1347:
	.loc	25 834 29 prologue_end
	movl	%esi, -20(%rbp)
	movl	-20(%rbp), %esi
	callq	__ZN110_$LT$proc_macro..TokenStream$u20$as$u20$core..iter..traits..collect..Extend$LT$proc_macro..TokenStream$GT$$GT$6extend28_$u7b$$u7b$closure$u7d$$u7d$17h04a148b5800c291eE
	.loc	25 834 36 is_stmt 0
	addq	$32, %rsp
	popq	%rbp
	retq
Ltmp1348:
Lfunc_end128:
	.cfi_endproc

	.globl	__ZN4core4iter6traits8iterator8Iterator8for_each4call28_$u7b$$u7b$closure$u7d$$u7d$17h4f5211ed10d54369E
	.p2align	4, 0x90
__ZN4core4iter6traits8iterator8Iterator8for_each4call28_$u7b$$u7b$closure$u7d$$u7d$17h4f5211ed10d54369E:
Lfunc_begin129:
	.loc	25 834 0 is_stmt 1
	.cfi_startproc
	pushq	%rbp
	.cfi_def_cfa_offset 16
	.cfi_offset %rbp, -16
	movq	%rsp, %rbp
	.cfi_def_cfa_register %rbp
	subq	$112, %rsp
	movq	%rdi, -104(%rbp)
	movq	%rdi, -16(%rbp)
Ltmp1349:
	.loc	25 834 31 prologue_end
	leaq	-56(%rbp), %rdi
	movl	$40, %edx
	callq	_memcpy
Ltmp1350:
	.loc	25 834 29 is_stmt 0
	leaq	-96(%rbp), %rdi
	leaq	-56(%rbp), %rsi
	movl	$40, %edx
	callq	_memcpy
	movq	-104(%rbp), %rdi
	leaq	-96(%rbp), %rsi
	callq	__ZN120_$LT$proc_macro2..fallback..TokenStream$u20$as$u20$core..iter..traits..collect..Extend$LT$proc_macro2..TokenTree$GT$$GT$6extend28_$u7b$$u7b$closure$u7d$$u7d$17h913e53b8b42c7539E
	.loc	25 834 36
	addq	$112, %rsp
	popq	%rbp
	retq
Ltmp1351:
Lfunc_end129:
	.cfi_endproc

	.globl	__ZN4core4iter6traits8iterator8Iterator8for_each4call28_$u7b$$u7b$closure$u7d$$u7d$17h509acecad13fe930E
	.p2align	4, 0x90
__ZN4core4iter6traits8iterator8Iterator8for_each4call28_$u7b$$u7b$closure$u7d$$u7d$17h509acecad13fe930E:
Lfunc_begin130:
	.loc	25 834 0 is_stmt 1
	.cfi_startproc
	pushq	%rbp
	.cfi_def_cfa_offset 16
	.cfi_offset %rbp, -16
	movq	%rsp, %rbp
	.cfi_def_cfa_register %rbp
	subq	$112, %rsp
	movq	%rdi, -104(%rbp)
	movq	%rdi, -16(%rbp)
Ltmp1352:
	.loc	25 834 31 prologue_end
	leaq	-56(%rbp), %rdi
	movl	$40, %edx
	callq	_memcpy
Ltmp1353:
	.loc	25 834 29 is_stmt 0
	leaq	-96(%rbp), %rdi
	leaq	-56(%rbp), %rsi
	movl	$40, %edx
	callq	_memcpy
	movq	-104(%rbp), %rdi
	leaq	-96(%rbp), %rsi
	callq	__ZN120_$LT$proc_macro2..fallback..TokenStream$u20$as$u20$core..iter..traits..collect..Extend$LT$proc_macro2..TokenTree$GT$$GT$6extend28_$u7b$$u7b$closure$u7d$$u7d$17h204b2d25fd77a4d5E
	.loc	25 834 36
	addq	$112, %rsp
	popq	%rbp
	retq
Ltmp1354:
Lfunc_end130:
	.cfi_endproc

	.globl	__ZN4core4iter6traits8iterator8Iterator8for_each4call28_$u7b$$u7b$closure$u7d$$u7d$17h739f36dc45f455cfE
	.p2align	4, 0x90
__ZN4core4iter6traits8iterator8Iterator8for_each4call28_$u7b$$u7b$closure$u7d$$u7d$17h739f36dc45f455cfE:
Lfunc_begin131:
	.loc	25 834 0 is_stmt 1
	.cfi_startproc
	pushq	%rbp
	.cfi_def_cfa_offset 16
	.cfi_offset %rbp, -16
	movq	%rsp, %rbp
	.cfi_def_cfa_register %rbp
	subq	$112, %rsp
	movq	%rdi, -104(%rbp)
	movq	%rdi, -16(%rbp)
Ltmp1355:
	.loc	25 834 31 prologue_end
	leaq	-56(%rbp), %rdi
	movl	$40, %edx
	callq	_memcpy
Ltmp1356:
	.loc	25 834 29 is_stmt 0
	leaq	-96(%rbp), %rdi
	leaq	-56(%rbp), %rsi
	movl	$40, %edx
	callq	_memcpy
	movq	-104(%rbp), %rdi
	leaq	-96(%rbp), %rsi
	callq	__ZN120_$LT$proc_macro2..fallback..TokenStream$u20$as$u20$core..iter..traits..collect..Extend$LT$proc_macro2..TokenTree$GT$$GT$6extend28_$u7b$$u7b$closure$u7d$$u7d$17h43d0ada84ba6c846E
	.loc	25 834 36
	addq	$112, %rsp
	popq	%rbp
	retq
Ltmp1357:
Lfunc_end131:
	.cfi_endproc

	.globl	__ZN4core4iter6traits8iterator8Iterator8for_each4call28_$u7b$$u7b$closure$u7d$$u7d$17hb499f5502a50ddeaE
	.p2align	4, 0x90
__ZN4core4iter6traits8iterator8Iterator8for_each4call28_$u7b$$u7b$closure$u7d$$u7d$17hb499f5502a50ddeaE:
Lfunc_begin132:
	.loc	25 834 0 is_stmt 1
	.cfi_startproc
	pushq	%rbp
	.cfi_def_cfa_offset 16
	.cfi_offset %rbp, -16
	movq	%rsp, %rbp
	.cfi_def_cfa_register %rbp
	subq	$112, %rsp
	movq	%rdi, -104(%rbp)
	movq	%rdi, -16(%rbp)
Ltmp1358:
	.loc	25 834 31 prologue_end
	leaq	-56(%rbp), %rdi
	movl	$40, %edx
	callq	_memcpy
Ltmp1359:
	.loc	25 834 29 is_stmt 0
	leaq	-96(%rbp), %rdi
	leaq	-56(%rbp), %rsi
	movl	$40, %edx
	callq	_memcpy
	movq	-104(%rbp), %rdi
	leaq	-96(%rbp), %rsi
	callq	__ZN120_$LT$proc_macro2..fallback..TokenStream$u20$as$u20$core..iter..traits..collect..Extend$LT$proc_macro2..TokenTree$GT$$GT$6extend28_$u7b$$u7b$closure$u7d$$u7d$17h5a1320d623a7f63aE
	.loc	25 834 36
	addq	$112, %rsp
	popq	%rbp
	retq
Ltmp1360:
Lfunc_end132:
	.cfi_endproc

	.globl	__ZN4core4iter6traits8iterator8Iterator8for_each4call28_$u7b$$u7b$closure$u7d$$u7d$17hc631605ea47573fcE
	.p2align	4, 0x90
__ZN4core4iter6traits8iterator8Iterator8for_each4call28_$u7b$$u7b$closure$u7d$$u7d$17hc631605ea47573fcE:
Lfunc_begin133:
	.loc	25 834 0 is_stmt 1
	.cfi_startproc
	pushq	%rbp
	.cfi_def_cfa_offset 16
	.cfi_offset %rbp, -16
	movq	%rsp, %rbp
	.cfi_def_cfa_register %rbp
	subq	$112, %rsp
	movq	%rdi, -104(%rbp)
	movq	%rdi, -16(%rbp)
Ltmp1361:
	.loc	25 834 31 prologue_end
	leaq	-56(%rbp), %rdi
	movl	$40, %edx
	callq	_memcpy
Ltmp1362:
	.loc	25 834 29 is_stmt 0
	leaq	-96(%rbp), %rdi
	leaq	-56(%rbp), %rsi
	movl	$40, %edx
	callq	_memcpy
	movq	-104(%rbp), %rdi
	leaq	-96(%rbp), %rsi
	callq	__ZN120_$LT$proc_macro2..fallback..TokenStream$u20$as$u20$core..iter..traits..collect..Extend$LT$proc_macro2..TokenTree$GT$$GT$6extend28_$u7b$$u7b$closure$u7d$$u7d$17h81ec92dd9141b15eE
	.loc	25 834 36
	addq	$112, %rsp
	popq	%rbp
	retq
Ltmp1363:
Lfunc_end133:
	.cfi_endproc

