	.section	__TEXT,__text,regular,pure_instructions
	.macosx_version_min 10, 7
	.globl	__ZN42_$LT$$RF$T$u20$as$u20$core..fmt..Debug$GT$3fmt17h2a047c9eedaf55caE
	.p2align	4, 0x90
__ZN42_$LT$$RF$T$u20$as$u20$core..fmt..Debug$GT$3fmt17h2a047c9eedaf55caE:
Lfunc_begin0:
	.file	1 "/rustc/2c8cc343237b8f7d5a3c3703e3a87f2eb2c54a74/library/core/src/fmt" "mod.rs"
	.loc	1 2377 0
	.cfi_startproc
	pushq	%rbp
	.cfi_def_cfa_offset 16
	.cfi_offset %rbp, -16
	movq	%rsp, %rbp
	.cfi_def_cfa_register %rbp
	subq	$16, %rsp
	movq	%rdi, -16(%rbp)
	movq	%rsi, -8(%rbp)
Ltmp0:
	.loc	1 2377 71 prologue_end
	movq	(%rdi), %rdi
	.loc	1 2377 62 is_stmt 0
	callq	__ZN70_$LT$raw_window_handle..web..WebHandle$u20$as$u20$core..fmt..Debug$GT$3fmt17h4cdf8bcf110e6f36E
	.loc	1 2377 84
	andb	$1, %al
	movzbl	%al, %eax
	addq	$16, %rsp
	popq	%rbp
	retq
Ltmp1:
Lfunc_end0:
	.cfi_endproc

	.globl	__ZN42_$LT$$RF$T$u20$as$u20$core..fmt..Debug$GT$3fmt17h2e2dd3ca4568256fE
	.p2align	4, 0x90
__ZN42_$LT$$RF$T$u20$as$u20$core..fmt..Debug$GT$3fmt17h2e2dd3ca4568256fE:
Lfunc_begin1:
	.loc	1 2377 0 is_stmt 1
	.cfi_startproc
	pushq	%rbp
	.cfi_def_cfa_offset 16
	.cfi_offset %rbp, -16
	movq	%rsp, %rbp
	.cfi_def_cfa_register %rbp
	subq	$16, %rsp
	movq	%rdi, -16(%rbp)
	movq	%rsi, -8(%rbp)
Ltmp2:
	.loc	1 2377 71 prologue_end
	movq	(%rdi), %rdi
	.loc	1 2377 62 is_stmt 0
	callq	__ZN74_$LT$raw_window_handle..uikit..UiKitHandle$u20$as$u20$core..fmt..Debug$GT$3fmt17h72f9a2615fdecebcE
	.loc	1 2377 84
	andb	$1, %al
	movzbl	%al, %eax
	addq	$16, %rsp
	popq	%rbp
	retq
Ltmp3:
Lfunc_end1:
	.cfi_endproc

	.globl	__ZN42_$LT$$RF$T$u20$as$u20$core..fmt..Debug$GT$3fmt17h434f113e2f022097E
	.p2align	4, 0x90
__ZN42_$LT$$RF$T$u20$as$u20$core..fmt..Debug$GT$3fmt17h434f113e2f022097E:
Lfunc_begin2:
	.loc	1 2377 0 is_stmt 1
	.cfi_startproc
	pushq	%rbp
	.cfi_def_cfa_offset 16
	.cfi_offset %rbp, -16
	movq	%rsp, %rbp
	.cfi_def_cfa_register %rbp
	subq	$16, %rsp
	movq	%rdi, -16(%rbp)
	movq	%rsi, -8(%rbp)
Ltmp4:
	.loc	1 2377 71 prologue_end
	movq	(%rdi), %rdi
	.loc	1 2377 62 is_stmt 0
	callq	__ZN76_$LT$raw_window_handle..windows..Win32Handle$u20$as$u20$core..fmt..Debug$GT$3fmt17hb896c50113831ac0E
	.loc	1 2377 84
	andb	$1, %al
	movzbl	%al, %eax
	addq	$16, %rsp
	popq	%rbp
	retq
Ltmp5:
Lfunc_end2:
	.cfi_endproc

	.globl	__ZN42_$LT$$RF$T$u20$as$u20$core..fmt..Debug$GT$3fmt17h45ff3700fed61857E
	.p2align	4, 0x90
__ZN42_$LT$$RF$T$u20$as$u20$core..fmt..Debug$GT$3fmt17h45ff3700fed61857E:
Lfunc_begin3:
	.loc	1 2377 0 is_stmt 1
	.cfi_startproc
	pushq	%rbp
	.cfi_def_cfa_offset 16
	.cfi_offset %rbp, -16
	movq	%rsp, %rbp
	.cfi_def_cfa_register %rbp
	subq	$16, %rsp
	movq	%rdi, -16(%rbp)
	movq	%rsi, -8(%rbp)
Ltmp6:
	.loc	1 2377 71 prologue_end
	movq	(%rdi), %rdi
	.loc	1 2377 62 is_stmt 0
	callq	__ZN76_$LT$raw_window_handle..appkit..AppKitHandle$u20$as$u20$core..fmt..Debug$GT$3fmt17hd39adb1d4bccafdaE
	.loc	1 2377 84
	andb	$1, %al
	movzbl	%al, %eax
	addq	$16, %rsp
	popq	%rbp
	retq
Ltmp7:
Lfunc_end3:
	.cfi_endproc

	.globl	__ZN42_$LT$$RF$T$u20$as$u20$core..fmt..Debug$GT$3fmt17h48f0980d8a79c337E
	.p2align	4, 0x90
__ZN42_$LT$$RF$T$u20$as$u20$core..fmt..Debug$GT$3fmt17h48f0980d8a79c337E:
Lfunc_begin4:
	.loc	1 2377 0 is_stmt 1
	.cfi_startproc
	pushq	%rbp
	.cfi_def_cfa_offset 16
	.cfi_offset %rbp, -16
	movq	%rsp, %rbp
	.cfi_def_cfa_register %rbp
	subq	$16, %rsp
	movq	%rdi, -16(%rbp)
	movq	%rsi, -8(%rbp)
Ltmp8:
	.loc	1 2377 71 prologue_end
	movq	(%rdi), %rdi
	.loc	1 2377 62 is_stmt 0
	callq	__ZN71_$LT$raw_window_handle..unix..XcbHandle$u20$as$u20$core..fmt..Debug$GT$3fmt17h440e26469c6e181bE
	.loc	1 2377 84
	andb	$1, %al
	movzbl	%al, %eax
	addq	$16, %rsp
	popq	%rbp
	retq
Ltmp9:
Lfunc_end4:
	.cfi_endproc

	.globl	__ZN42_$LT$$RF$T$u20$as$u20$core..fmt..Debug$GT$3fmt17h48f361407a5b73ddE
	.p2align	4, 0x90
__ZN42_$LT$$RF$T$u20$as$u20$core..fmt..Debug$GT$3fmt17h48f361407a5b73ddE:
Lfunc_begin5:
	.loc	1 2377 0 is_stmt 1
	.cfi_startproc
	pushq	%rbp
	.cfi_def_cfa_offset 16
	.cfi_offset %rbp, -16
	movq	%rsp, %rbp
	.cfi_def_cfa_register %rbp
	subq	$16, %rsp
	movq	%rdi, -16(%rbp)
	movq	%rsi, -8(%rbp)
Ltmp10:
	.loc	1 2377 71 prologue_end
	movq	(%rdi), %rdi
	.loc	1 2377 62 is_stmt 0
	callq	__ZN81_$LT$raw_window_handle..android..AndroidNdkHandle$u20$as$u20$core..fmt..Debug$GT$3fmt17h975630a8274fee0cE
	.loc	1 2377 84
	andb	$1, %al
	movzbl	%al, %eax
	addq	$16, %rsp
	popq	%rbp
	retq
Ltmp11:
Lfunc_end5:
	.cfi_endproc

	.globl	__ZN42_$LT$$RF$T$u20$as$u20$core..fmt..Debug$GT$3fmt17h4df2ea05d055d333E
	.p2align	4, 0x90
__ZN42_$LT$$RF$T$u20$as$u20$core..fmt..Debug$GT$3fmt17h4df2ea05d055d333E:
Lfunc_begin6:
	.loc	1 2377 0 is_stmt 1
	.cfi_startproc
	pushq	%rbp
	.cfi_def_cfa_offset 16
	.cfi_offset %rbp, -16
	movq	%rsp, %rbp
	.cfi_def_cfa_register %rbp
	subq	$16, %rsp
	movq	%rdi, -16(%rbp)
	movq	%rsi, -8(%rbp)
Ltmp12:
	.loc	1 2377 71 prologue_end
	movq	(%rdi), %rdi
	.loc	1 2377 62 is_stmt 0
	callq	__ZN50_$LT$$BP$mut$u20$T$u20$as$u20$core..fmt..Debug$GT$3fmt17h93ecfae771ab78adE
	.loc	1 2377 84
	andb	$1, %al
	movzbl	%al, %eax
	addq	$16, %rsp
	popq	%rbp
	retq
Ltmp13:
Lfunc_end6:
	.cfi_endproc

	.globl	__ZN42_$LT$$RF$T$u20$as$u20$core..fmt..Debug$GT$3fmt17h81c111c7c2cd4842E
	.p2align	4, 0x90
__ZN42_$LT$$RF$T$u20$as$u20$core..fmt..Debug$GT$3fmt17h81c111c7c2cd4842E:
Lfunc_begin7:
	.loc	1 2377 0 is_stmt 1
	.cfi_startproc
	pushq	%rbp
	.cfi_def_cfa_offset 16
	.cfi_offset %rbp, -16
	movq	%rsp, %rbp
	.cfi_def_cfa_register %rbp
	subq	$16, %rsp
	movq	%rdi, -16(%rbp)
	movq	%rsi, -8(%rbp)
Ltmp14:
	.loc	1 2377 71 prologue_end
	movq	(%rdi), %rdi
	.loc	1 2377 62 is_stmt 0
	callq	__ZN75_$LT$raw_window_handle..unix..WaylandHandle$u20$as$u20$core..fmt..Debug$GT$3fmt17h0ceb5a2034c5e145E
	.loc	1 2377 84
	andb	$1, %al
	movzbl	%al, %eax
	addq	$16, %rsp
	popq	%rbp
	retq
Ltmp15:
Lfunc_end7:
	.cfi_endproc

	.globl	__ZN42_$LT$$RF$T$u20$as$u20$core..fmt..Debug$GT$3fmt17ha4539d4333d01332E
	.p2align	4, 0x90
__ZN42_$LT$$RF$T$u20$as$u20$core..fmt..Debug$GT$3fmt17ha4539d4333d01332E:
Lfunc_begin8:
	.loc	1 2377 0 is_stmt 1
	.cfi_startproc
	pushq	%rbp
	.cfi_def_cfa_offset 16
	.cfi_offset %rbp, -16
	movq	%rsp, %rbp
	.cfi_def_cfa_register %rbp
	subq	$16, %rsp
	movq	%rdi, -16(%rbp)
	movq	%rsi, -8(%rbp)
Ltmp16:
	.loc	1 2377 71 prologue_end
	movq	(%rdi), %rdi
	.loc	1 2377 62 is_stmt 0
	callq	__ZN74_$LT$raw_window_handle..haiku..HaikuHandle$u20$as$u20$core..fmt..Debug$GT$3fmt17h1761302ac3092fcfE
	.loc	1 2377 84
	andb	$1, %al
	movzbl	%al, %eax
	addq	$16, %rsp
	popq	%rbp
	retq
Ltmp17:
Lfunc_end8:
	.cfi_endproc

	.globl	__ZN42_$LT$$RF$T$u20$as$u20$core..fmt..Debug$GT$3fmt17ha4d4787a766e1a57E
	.p2align	4, 0x90
__ZN42_$LT$$RF$T$u20$as$u20$core..fmt..Debug$GT$3fmt17ha4d4787a766e1a57E:
Lfunc_begin9:
	.loc	1 2377 0 is_stmt 1
	.cfi_startproc
	pushq	%rbp
	.cfi_def_cfa_offset 16
	.cfi_offset %rbp, -16
	movq	%rsp, %rbp
	.cfi_def_cfa_register %rbp
	subq	$16, %rsp
	movq	%rdi, -16(%rbp)
	movq	%rsi, -8(%rbp)
Ltmp18:
	.loc	1 2377 71 prologue_end
	movq	(%rdi), %rdi
	.loc	1 2377 62 is_stmt 0
	callq	__ZN76_$LT$raw_window_handle..windows..WinRtHandle$u20$as$u20$core..fmt..Debug$GT$3fmt17heeb32fa1fc19c182E
	.loc	1 2377 84
	andb	$1, %al
	movzbl	%al, %eax
	addq	$16, %rsp
	popq	%rbp
	retq
Ltmp19:
Lfunc_end9:
	.cfi_endproc

	.globl	__ZN42_$LT$$RF$T$u20$as$u20$core..fmt..Debug$GT$3fmt17had01ed52f37000e0E
	.p2align	4, 0x90
__ZN42_$LT$$RF$T$u20$as$u20$core..fmt..Debug$GT$3fmt17had01ed52f37000e0E:
Lfunc_begin10:
	.loc	1 2377 0 is_stmt 1
	.cfi_startproc
	pushq	%rbp
	.cfi_def_cfa_offset 16
	.cfi_offset %rbp, -16
	movq	%rsp, %rbp
	.cfi_def_cfa_register %rbp
	subq	$16, %rsp
	movq	%rdi, -16(%rbp)
	movq	%rsi, -8(%rbp)
Ltmp20:
	.loc	1 2377 71 prologue_end
	movq	(%rdi), %rdi
	.loc	1 2377 62 is_stmt 0
	callq	__ZN4core3fmt3num50_$LT$impl$u20$core..fmt..Debug$u20$for$u20$u32$GT$3fmt17hcb3706135aa208e5E
	.loc	1 2377 84
	andb	$1, %al
	movzbl	%al, %eax
	addq	$16, %rsp
	popq	%rbp
	retq
Ltmp21:
Lfunc_end10:
	.cfi_endproc

	.globl	__ZN42_$LT$$RF$T$u20$as$u20$core..fmt..Debug$GT$3fmt17hc1c25a47cc4ee9a9E
	.p2align	4, 0x90
__ZN42_$LT$$RF$T$u20$as$u20$core..fmt..Debug$GT$3fmt17hc1c25a47cc4ee9a9E:
Lfunc_begin11:
	.loc	1 2377 0 is_stmt 1
	.cfi_startproc
	pushq	%rbp
	.cfi_def_cfa_offset 16
	.cfi_offset %rbp, -16
	movq	%rsp, %rbp
	.cfi_def_cfa_register %rbp
	subq	$16, %rsp
	movq	%rdi, -16(%rbp)
	movq	%rsi, -8(%rbp)
Ltmp22:
	.loc	1 2377 71 prologue_end
	movq	(%rdi), %rdi
	.loc	1 2377 62 is_stmt 0
	callq	__ZN72_$LT$raw_window_handle..unix..XlibHandle$u20$as$u20$core..fmt..Debug$GT$3fmt17h7965ee36c9cd61c0E
	.loc	1 2377 84
	andb	$1, %al
	movzbl	%al, %eax
	addq	$16, %rsp
	popq	%rbp
	retq
Ltmp23:
Lfunc_end11:
	.cfi_endproc

	.globl	__ZN42_$LT$$RF$T$u20$as$u20$core..fmt..Debug$GT$3fmt17hcb8ba9d6553d3eb8E
	.p2align	4, 0x90
__ZN42_$LT$$RF$T$u20$as$u20$core..fmt..Debug$GT$3fmt17hcb8ba9d6553d3eb8E:
Lfunc_begin12:
	.loc	1 2377 0 is_stmt 1
	.cfi_startproc
	pushq	%rbp
	.cfi_def_cfa_offset 16
	.cfi_offset %rbp, -16
	movq	%rsp, %rbp
	.cfi_def_cfa_register %rbp
	subq	$16, %rsp
	movq	%rdi, -16(%rbp)
	movq	%rsi, -8(%rbp)
Ltmp24:
	.loc	1 2377 71 prologue_end
	movq	(%rdi), %rdi
	.loc	1 2377 62 is_stmt 0
	callq	__ZN76_$LT$raw_window_handle..redox..OrbitalHandle$u20$as$u20$core..fmt..Debug$GT$3fmt17hbc34424c75576e4bE
	.loc	1 2377 84
	andb	$1, %al
	movzbl	%al, %eax
	addq	$16, %rsp
	popq	%rbp
	retq
Ltmp25:
Lfunc_end12:
	.cfi_endproc

	.globl	__ZN42_$LT$$RF$T$u20$as$u20$core..fmt..Debug$GT$3fmt17hf3203c6cc08192f0E
	.p2align	4, 0x90
__ZN42_$LT$$RF$T$u20$as$u20$core..fmt..Debug$GT$3fmt17hf3203c6cc08192f0E:
Lfunc_begin13:
	.loc	1 2377 0 is_stmt 1
	.cfi_startproc
	pushq	%rbp
	.cfi_def_cfa_offset 16
	.cfi_offset %rbp, -16
	movq	%rsp, %rbp
	.cfi_def_cfa_register %rbp
	subq	$16, %rsp
	movq	%rdi, -16(%rbp)
	movq	%rsi, -8(%rbp)
Ltmp26:
	.loc	1 2377 71 prologue_end
	movq	(%rdi), %rdi
	.loc	1 2377 62 is_stmt 0
	callq	__ZN4core3fmt3num50_$LT$impl$u20$core..fmt..Debug$u20$for$u20$u64$GT$3fmt17h5e5c25165a4c12a9E
	.loc	1 2377 84
	andb	$1, %al
	movzbl	%al, %eax
	addq	$16, %rsp
	popq	%rbp
	retq
Ltmp27:
Lfunc_end13:
	.cfi_endproc

	.p2align	4, 0x90
__ZN4core3fmt3num50_$LT$impl$u20$core..fmt..Debug$u20$for$u20$u32$GT$3fmt17hcb3706135aa208e5E:
Lfunc_begin14:
	.file	2 "/rustc/2c8cc343237b8f7d5a3c3703e3a87f2eb2c54a74/library/core/src/fmt" "num.rs"
	.loc	2 185 0 is_stmt 1
	.cfi_startproc
	pushq	%rbp
	.cfi_def_cfa_offset 16
	.cfi_offset %rbp, -16
	movq	%rsp, %rbp
	.cfi_def_cfa_register %rbp
	subq	$48, %rsp
	movq	%rsi, -48(%rbp)
	movq	%rdi, %rax
	movq	-48(%rbp), %rdi
	movq	%rax, -40(%rbp)
	movq	%rdi, -32(%rbp)
	movq	%rax, -16(%rbp)
	movq	%rdi, -8(%rbp)
Ltmp28:
	.loc	2 186 20 prologue_end
	callq	__ZN4core3fmt9Formatter15debug_lower_hex17h0921e6b9188d914eE
	testb	$1, %al
	jne	LBB14_2
	.loc	2 0 20 is_stmt 0
	movq	-32(%rbp), %rdi
	.loc	2 188 27 is_stmt 1
	callq	__ZN4core3fmt9Formatter15debug_upper_hex17h8ce487049a6cccf8E
	testb	$1, %al
	jne	LBB14_5
	jmp	LBB14_4
LBB14_2:
	.loc	2 0 27 is_stmt 0
	movq	-32(%rbp), %rsi
	movq	-40(%rbp), %rdi
	.loc	2 187 21 is_stmt 1
	callq	__ZN4core3fmt3num53_$LT$impl$u20$core..fmt..LowerHex$u20$for$u20$u32$GT$3fmt17h794cf20b87700632E
	andb	$1, %al
	movb	%al, -17(%rbp)
LBB14_3:
	.loc	2 193 14
	movb	-17(%rbp), %al
	andb	$1, %al
	movzbl	%al, %eax
	addq	$48, %rsp
	popq	%rbp
	retq
LBB14_4:
	.loc	2 0 14 is_stmt 0
	movq	-32(%rbp), %rsi
	movq	-40(%rbp), %rdi
	.loc	2 191 21 is_stmt 1
	callq	__ZN4core3fmt3num3imp52_$LT$impl$u20$core..fmt..Display$u20$for$u20$u32$GT$3fmt17h081c917b2ee7d4e9E
	andb	$1, %al
	movb	%al, -17(%rbp)
	.loc	2 188 24
	jmp	LBB14_6
LBB14_5:
	.loc	2 0 24 is_stmt 0
	movq	-32(%rbp), %rsi
	movq	-40(%rbp), %rdi
	.loc	2 189 21 is_stmt 1
	callq	__ZN4core3fmt3num53_$LT$impl$u20$core..fmt..UpperHex$u20$for$u20$u32$GT$3fmt17ha96bbefe8f663d11E
	andb	$1, %al
	movb	%al, -17(%rbp)
LBB14_6:
	.loc	2 186 17
	jmp	LBB14_3
Ltmp29:
Lfunc_end14:
	.cfi_endproc

	.p2align	4, 0x90
__ZN4core3fmt3num50_$LT$impl$u20$core..fmt..Debug$u20$for$u20$u64$GT$3fmt17h5e5c25165a4c12a9E:
Lfunc_begin15:
	.loc	2 185 0
	.cfi_startproc
	pushq	%rbp
	.cfi_def_cfa_offset 16
	.cfi_offset %rbp, -16
	movq	%rsp, %rbp
	.cfi_def_cfa_register %rbp
	subq	$48, %rsp
	movq	%rsi, -48(%rbp)
	movq	%rdi, %rax
	movq	-48(%rbp), %rdi
	movq	%rax, -40(%rbp)
	movq	%rdi, -32(%rbp)
	movq	%rax, -16(%rbp)
	movq	%rdi, -8(%rbp)
Ltmp30:
	.loc	2 186 20 prologue_end
	callq	__ZN4core3fmt9Formatter15debug_lower_hex17h0921e6b9188d914eE
	testb	$1, %al
	jne	LBB15_2
	.loc	2 0 20 is_stmt 0
	movq	-32(%rbp), %rdi
	.loc	2 188 27 is_stmt 1
	callq	__ZN4core3fmt9Formatter15debug_upper_hex17h8ce487049a6cccf8E
	testb	$1, %al
	jne	LBB15_5
	jmp	LBB15_4
LBB15_2:
	.loc	2 0 27 is_stmt 0
	movq	-32(%rbp), %rsi
	movq	-40(%rbp), %rdi
	.loc	2 187 21 is_stmt 1
	callq	__ZN4core3fmt3num53_$LT$impl$u20$core..fmt..LowerHex$u20$for$u20$u64$GT$3fmt17h9f1a647630acba52E
	andb	$1, %al
	movb	%al, -17(%rbp)
LBB15_3:
	.loc	2 193 14
	movb	-17(%rbp), %al
	andb	$1, %al
	movzbl	%al, %eax
	addq	$48, %rsp
	popq	%rbp
	retq
LBB15_4:
	.loc	2 0 14 is_stmt 0
	movq	-32(%rbp), %rsi
	movq	-40(%rbp), %rdi
	.loc	2 191 21 is_stmt 1
	callq	__ZN4core3fmt3num3imp52_$LT$impl$u20$core..fmt..Display$u20$for$u20$u64$GT$3fmt17hc0b393b21668e9bfE
	andb	$1, %al
	movb	%al, -17(%rbp)
	.loc	2 188 24
	jmp	LBB15_6
LBB15_5:
	.loc	2 0 24 is_stmt 0
	movq	-32(%rbp), %rsi
	movq	-40(%rbp), %rdi
	.loc	2 189 21 is_stmt 1
	callq	__ZN4core3fmt3num53_$LT$impl$u20$core..fmt..UpperHex$u20$for$u20$u64$GT$3fmt17h9873482f6824a169E
	andb	$1, %al
	movb	%al, -17(%rbp)
LBB15_6:
	.loc	2 186 17
	jmp	LBB15_3
Ltmp31:
Lfunc_end15:
	.cfi_endproc

	.p2align	4, 0x90
__ZN4core3ptr28drop_in_place$LT$$RF$u32$GT$17h93932378fb2ec324E:
Lfunc_begin16:
	.file	3 "/rustc/2c8cc343237b8f7d5a3c3703e3a87f2eb2c54a74/library/core/src/ptr" "mod.rs"
	.loc	3 490 0
	.cfi_startproc
	pushq	%rbp
	.cfi_def_cfa_offset 16
	.cfi_offset %rbp, -16
	movq	%rsp, %rbp
	.cfi_def_cfa_register %rbp
	pushq	%rax
	movq	%rdi, -8(%rbp)
Ltmp32:
	.loc	3 490 1 prologue_end
	addq	$8, %rsp
	popq	%rbp
	retq
Ltmp33:
Lfunc_end16:
	.cfi_endproc

	.p2align	4, 0x90
__ZN4core3ptr28drop_in_place$LT$$RF$u64$GT$17h4207201cc8bd90d1E:
Lfunc_begin17:
	.loc	3 490 0
	.cfi_startproc
	pushq	%rbp
	.cfi_def_cfa_offset 16
	.cfi_offset %rbp, -16
	movq	%rsp, %rbp
	.cfi_def_cfa_register %rbp
	pushq	%rax
	movq	%rdi, -8(%rbp)
Ltmp34:
	.loc	3 490 1 prologue_end
	addq	$8, %rsp
	popq	%rbp
	retq
Ltmp35:
Lfunc_end17:
	.cfi_endproc

	.p2align	4, 0x90
__ZN4core3ptr54drop_in_place$LT$$RF$$BP$mut$u20$core..ffi..c_void$GT$17h8b18eb7ed7cd6427E:
Lfunc_begin18:
	.loc	3 490 0
	.cfi_startproc
	pushq	%rbp
	.cfi_def_cfa_offset 16
	.cfi_offset %rbp, -16
	movq	%rsp, %rbp
	.cfi_def_cfa_register %rbp
	pushq	%rax
	movq	%rdi, -8(%rbp)
Ltmp36:
	.loc	3 490 1 prologue_end
	addq	$8, %rsp
	popq	%rbp
	retq
Ltmp37:
Lfunc_end18:
	.cfi_endproc

	.p2align	4, 0x90
__ZN4core3ptr58drop_in_place$LT$$RF$raw_window_handle..web..WebHandle$GT$17hf4981c144ab735e8E:
Lfunc_begin19:
	.loc	3 490 0
	.cfi_startproc
	pushq	%rbp
	.cfi_def_cfa_offset 16
	.cfi_offset %rbp, -16
	movq	%rsp, %rbp
	.cfi_def_cfa_register %rbp
	pushq	%rax
	movq	%rdi, -8(%rbp)
Ltmp38:
	.loc	3 490 1 prologue_end
	addq	$8, %rsp
	popq	%rbp
	retq
Ltmp39:
Lfunc_end19:
	.cfi_endproc

	.p2align	4, 0x90
__ZN4core3ptr59drop_in_place$LT$$RF$raw_window_handle..unix..XcbHandle$GT$17h6bca660538ad66ecE:
Lfunc_begin20:
	.loc	3 490 0
	.cfi_startproc
	pushq	%rbp
	.cfi_def_cfa_offset 16
	.cfi_offset %rbp, -16
	movq	%rsp, %rbp
	.cfi_def_cfa_register %rbp
	pushq	%rax
	movq	%rdi, -8(%rbp)
Ltmp40:
	.loc	3 490 1 prologue_end
	addq	$8, %rsp
	popq	%rbp
	retq
Ltmp41:
Lfunc_end20:
	.cfi_endproc

	.p2align	4, 0x90
__ZN4core3ptr60drop_in_place$LT$$RF$raw_window_handle..unix..XlibHandle$GT$17hdfe3b313be4510a9E:
Lfunc_begin21:
	.loc	3 490 0
	.cfi_startproc
	pushq	%rbp
	.cfi_def_cfa_offset 16
	.cfi_offset %rbp, -16
	movq	%rsp, %rbp
	.cfi_def_cfa_register %rbp
	pushq	%rax
	movq	%rdi, -8(%rbp)
Ltmp42:
	.loc	3 490 1 prologue_end
	addq	$8, %rsp
	popq	%rbp
	retq
Ltmp43:
Lfunc_end21:
	.cfi_endproc

	.p2align	4, 0x90
__ZN4core3ptr62drop_in_place$LT$$RF$raw_window_handle..haiku..HaikuHandle$GT$17h9a756c741e445d48E:
Lfunc_begin22:
	.loc	3 490 0
	.cfi_startproc
	pushq	%rbp
	.cfi_def_cfa_offset 16
	.cfi_offset %rbp, -16
	movq	%rsp, %rbp
	.cfi_def_cfa_register %rbp
	pushq	%rax
	movq	%rdi, -8(%rbp)
Ltmp44:
	.loc	3 490 1 prologue_end
	addq	$8, %rsp
	popq	%rbp
	retq
Ltmp45:
Lfunc_end22:
	.cfi_endproc

	.p2align	4, 0x90
__ZN4core3ptr62drop_in_place$LT$$RF$raw_window_handle..uikit..UiKitHandle$GT$17h1eb08410044cc737E:
Lfunc_begin23:
	.loc	3 490 0
	.cfi_startproc
	pushq	%rbp
	.cfi_def_cfa_offset 16
	.cfi_offset %rbp, -16
	movq	%rsp, %rbp
	.cfi_def_cfa_register %rbp
	pushq	%rax
	movq	%rdi, -8(%rbp)
Ltmp46:
	.loc	3 490 1 prologue_end
	addq	$8, %rsp
	popq	%rbp
	retq
Ltmp47:
Lfunc_end23:
	.cfi_endproc

	.p2align	4, 0x90
__ZN4core3ptr63drop_in_place$LT$$RF$raw_window_handle..unix..WaylandHandle$GT$17ha2cb9a0442b7169aE:
Lfunc_begin24:
	.loc	3 490 0
	.cfi_startproc
	pushq	%rbp
	.cfi_def_cfa_offset 16
	.cfi_offset %rbp, -16
	movq	%rsp, %rbp
	.cfi_def_cfa_register %rbp
	pushq	%rax
	movq	%rdi, -8(%rbp)
Ltmp48:
	.loc	3 490 1 prologue_end
	addq	$8, %rsp
	popq	%rbp
	retq
Ltmp49:
Lfunc_end24:
	.cfi_endproc

	.p2align	4, 0x90
__ZN4core3ptr64drop_in_place$LT$$RF$raw_window_handle..appkit..AppKitHandle$GT$17h19cbfdd20e396f9fE:
Lfunc_begin25:
	.loc	3 490 0
	.cfi_startproc
	pushq	%rbp
	.cfi_def_cfa_offset 16
	.cfi_offset %rbp, -16
	movq	%rsp, %rbp
	.cfi_def_cfa_register %rbp
	pushq	%rax
	movq	%rdi, -8(%rbp)
Ltmp50:
	.loc	3 490 1 prologue_end
	addq	$8, %rsp
	popq	%rbp
	retq
Ltmp51:
Lfunc_end25:
	.cfi_endproc

	.p2align	4, 0x90
__ZN4core3ptr64drop_in_place$LT$$RF$raw_window_handle..redox..OrbitalHandle$GT$17h5149b2b92d38455cE:
Lfunc_begin26:
	.loc	3 490 0
	.cfi_startproc
	pushq	%rbp
	.cfi_def_cfa_offset 16
	.cfi_offset %rbp, -16
	movq	%rsp, %rbp
	.cfi_def_cfa_register %rbp
	pushq	%rax
	movq	%rdi, -8(%rbp)
Ltmp52:
	.loc	3 490 1 prologue_end
	addq	$8, %rsp
	popq	%rbp
	retq
Ltmp53:
Lfunc_end26:
	.cfi_endproc

	.p2align	4, 0x90
__ZN4core3ptr64drop_in_place$LT$$RF$raw_window_handle..windows..Win32Handle$GT$17h0bcfea36132401a5E:
Lfunc_begin27:
	.loc	3 490 0
	.cfi_startproc
	pushq	%rbp
	.cfi_def_cfa_offset 16
	.cfi_offset %rbp, -16
	movq	%rsp, %rbp
	.cfi_def_cfa_register %rbp
	pushq	%rax
	movq	%rdi, -8(%rbp)
Ltmp54:
	.loc	3 490 1 prologue_end
	addq	$8, %rsp
	popq	%rbp
	retq
Ltmp55:
Lfunc_end27:
	.cfi_endproc

	.p2align	4, 0x90
__ZN4core3ptr64drop_in_place$LT$$RF$raw_window_handle..windows..WinRtHandle$GT$17hc25ddd6479d65c3fE:
Lfunc_begin28:
	.loc	3 490 0
	.cfi_startproc
	pushq	%rbp
	.cfi_def_cfa_offset 16
	.cfi_offset %rbp, -16
	movq	%rsp, %rbp
	.cfi_def_cfa_register %rbp
	pushq	%rax
	movq	%rdi, -8(%rbp)
Ltmp56:
	.loc	3 490 1 prologue_end
	addq	$8, %rsp
	popq	%rbp
	retq
Ltmp57:
Lfunc_end28:
	.cfi_endproc

	.p2align	4, 0x90
__ZN4core3ptr69drop_in_place$LT$$RF$raw_window_handle..android..AndroidNdkHandle$GT$17he2a35353a84b5715E:
Lfunc_begin29:
	.loc	3 490 0
	.cfi_startproc
	pushq	%rbp
	.cfi_def_cfa_offset 16
	.cfi_offset %rbp, -16
	movq	%rsp, %rbp
	.cfi_def_cfa_register %rbp
	pushq	%rax
	movq	%rdi, -8(%rbp)
Ltmp58:
	.loc	3 490 1 prologue_end
	addq	$8, %rsp
	popq	%rbp
	retq
Ltmp59:
Lfunc_end29:
	.cfi_endproc

	.globl	__ZN50_$LT$$BP$mut$u20$T$u20$as$u20$core..fmt..Debug$GT$3fmt17h93ecfae771ab78adE
	.p2align	4, 0x90
__ZN50_$LT$$BP$mut$u20$T$u20$as$u20$core..fmt..Debug$GT$3fmt17h93ecfae771ab78adE:
Lfunc_begin30:
	.loc	1 2547 0
	.cfi_startproc
	pushq	%rbp
	.cfi_def_cfa_offset 16
	.cfi_offset %rbp, -16
	movq	%rsp, %rbp
	.cfi_def_cfa_register %rbp
	subq	$16, %rsp
	movq	%rdi, -16(%rbp)
	movq	%rsi, -8(%rbp)
Ltmp60:
	.loc	1 2548 9 prologue_end
	callq	__ZN52_$LT$$BP$mut$u20$T$u20$as$u20$core..fmt..Pointer$GT$3fmt17h7ed2ec98a858a799E
	.loc	1 2549 6
	andb	$1, %al
	movzbl	%al, %eax
	addq	$16, %rsp
	popq	%rbp
	retq
Ltmp61:
Lfunc_end30:
	.cfi_endproc

	.globl	__ZN52_$LT$$BP$mut$u20$T$u20$as$u20$core..fmt..Pointer$GT$3fmt17h7ed2ec98a858a799E
	.p2align	4, 0x90
__ZN52_$LT$$BP$mut$u20$T$u20$as$u20$core..fmt..Pointer$GT$3fmt17h7ed2ec98a858a799E:
Lfunc_begin31:
	.loc	1 2518 0
	.cfi_startproc
	pushq	%rbp
	.cfi_def_cfa_offset 16
	.cfi_offset %rbp, -16
	movq	%rsp, %rbp
	.cfi_def_cfa_register %rbp
	subq	$32, %rsp
	movq	%rdi, -16(%rbp)
	movq	%rsi, -8(%rbp)
Ltmp62:
	.loc	1 2519 24 prologue_end
	movq	(%rdi), %rax
	movq	%rax, -24(%rbp)
	.loc	1 2519 9 is_stmt 0
	leaq	-24(%rbp), %rdi
	callq	__ZN54_$LT$$BP$const$u20$T$u20$as$u20$core..fmt..Pointer$GT$3fmt17hb020ad4effe2bee2E
	.loc	1 2520 6 is_stmt 1
	andb	$1, %al
	movzbl	%al, %eax
	addq	$32, %rsp
	popq	%rbp
	retq
Ltmp63:
Lfunc_end31:
	.cfi_endproc

	.globl	__ZN54_$LT$$BP$const$u20$T$u20$as$u20$core..fmt..Pointer$GT$3fmt17hb020ad4effe2bee2E
	.p2align	4, 0x90
__ZN54_$LT$$BP$const$u20$T$u20$as$u20$core..fmt..Pointer$GT$3fmt17hb020ad4effe2bee2E:
Lfunc_begin32:
	.loc	1 2478 0
	.cfi_startproc
	pushq	%rbp
	.cfi_def_cfa_offset 16
	.cfi_offset %rbp, -16
	movq	%rsp, %rbp
	.cfi_def_cfa_register %rbp
	subq	$32, %rsp
	movq	%rdi, -32(%rbp)
	movq	%rsi, -24(%rbp)
Ltmp64:
	.loc	1 2480 28 prologue_end
	movq	(%rdi), %rdi
	.loc	1 2480 27 is_stmt 0
	movq	%rdi, -16(%rbp)
Ltmp65:
	.file	4 "/rustc/2c8cc343237b8f7d5a3c3703e3a87f2eb2c54a74/library/core/src/ptr" "const_ptr.rs"
	.loc	4 241 9 is_stmt 1
	movq	%rdi, -8(%rbp)
Ltmp66:
	.loc	1 2480 9
	callq	__ZN4core3fmt17pointer_fmt_inner17hfee30366ae14be28E
	.loc	1 2481 6
	andb	$1, %al
	movzbl	%al, %eax
	addq	$32, %rsp
	popq	%rbp
	retq
Ltmp67:
Lfunc_end32:
	.cfi_endproc

	.globl	__ZN17raw_window_handle7android16AndroidNdkHandle5empty17h9d873d97356a3e4fE
	.p2align	4, 0x90
__ZN17raw_window_handle7android16AndroidNdkHandle5empty17h9d873d97356a3e4fE:
Lfunc_begin33:
	.file	5 "/Users/natalie/.cargo/registry/src/github.com-1ecc6299db9ec823/raw-window-handle-0.4.3" "src/android.rs"
	.loc	5 20 0
	.cfi_startproc
	pushq	%rbp
	.cfi_def_cfa_offset 16
	.cfi_offset %rbp, -16
	movq	%rsp, %rbp
	.cfi_def_cfa_register %rbp
	subq	$40, %rsp
Ltmp68:
	.loc	3 599 14 prologue_end
	movq	$0, -16(%rbp)
	movq	-16(%rbp), %rax
	movq	%rax, -8(%rbp)
Ltmp69:
	.file	6 "/rustc/2c8cc343237b8f7d5a3c3703e3a87f2eb2c54a74/library/core/src/ptr" "metadata.rs"
	.loc	6 135 36
	movq	%rax, -24(%rbp)
	.loc	6 135 14 is_stmt 0
	movq	-24(%rbp), %rax
	movq	%rax, -32(%rbp)
	movq	-32(%rbp), %rax
Ltmp70:
	.loc	5 21 9 is_stmt 1
	movq	%rax, -40(%rbp)
	.loc	5 24 6
	movq	-40(%rbp), %rax
	addq	$40, %rsp
	popq	%rbp
	retq
Ltmp71:
Lfunc_end33:
	.cfi_endproc

	.globl	__ZN17raw_window_handle6appkit12AppKitHandle5empty17h68315b59f8703baaE
	.p2align	4, 0x90
__ZN17raw_window_handle6appkit12AppKitHandle5empty17h68315b59f8703baaE:
Lfunc_begin34:
	.file	7 "/Users/natalie/.cargo/registry/src/github.com-1ecc6299db9ec823/raw-window-handle-0.4.3" "src/appkit.rs"
	.loc	7 23 0
	.cfi_startproc
	pushq	%rbp
	.cfi_def_cfa_offset 16
	.cfi_offset %rbp, -16
	movq	%rsp, %rbp
	.cfi_def_cfa_register %rbp
	subq	$80, %rsp
Ltmp72:
	.loc	3 599 14 prologue_end
	movq	$0, -16(%rbp)
	movq	-16(%rbp), %rax
	movq	%rax, -8(%rbp)
Ltmp73:
	.loc	6 135 36
	movq	%rax, -24(%rbp)
	.loc	6 135 14 is_stmt 0
	movq	-24(%rbp), %rax
	movq	%rax, -32(%rbp)
	movq	-32(%rbp), %rcx
Ltmp74:
	.loc	3 599 14 is_stmt 1
	movq	$0, -48(%rbp)
	movq	-48(%rbp), %rax
	movq	%rax, -40(%rbp)
Ltmp75:
	.loc	6 135 36
	movq	%rax, -56(%rbp)
	.loc	6 135 14 is_stmt 0
	movq	-56(%rbp), %rax
	movq	%rax, -64(%rbp)
	movq	-64(%rbp), %rax
Ltmp76:
	.loc	7 24 9 is_stmt 1
	movq	%rcx, -80(%rbp)
	movq	%rax, -72(%rbp)
	.loc	7 28 6
	movq	-80(%rbp), %rax
	movq	-72(%rbp), %rdx
	addq	$80, %rsp
	popq	%rbp
	retq
Ltmp77:
Lfunc_end34:
	.cfi_endproc

	.globl	__ZN17raw_window_handle5haiku11HaikuHandle5empty17h5971e39bd68ee1a0E
	.p2align	4, 0x90
__ZN17raw_window_handle5haiku11HaikuHandle5empty17h5971e39bd68ee1a0E:
Lfunc_begin35:
	.file	8 "/Users/natalie/.cargo/registry/src/github.com-1ecc6299db9ec823/raw-window-handle-0.4.3" "src/haiku.rs"
	.loc	8 22 0
	.cfi_startproc
	pushq	%rbp
	.cfi_def_cfa_offset 16
	.cfi_offset %rbp, -16
	movq	%rsp, %rbp
	.cfi_def_cfa_register %rbp
	subq	$80, %rsp
Ltmp78:
	.loc	3 599 14 prologue_end
	movq	$0, -16(%rbp)
	movq	-16(%rbp), %rax
	movq	%rax, -8(%rbp)
Ltmp79:
	.loc	6 135 36
	movq	%rax, -24(%rbp)
	.loc	6 135 14 is_stmt 0
	movq	-24(%rbp), %rax
	movq	%rax, -32(%rbp)
	movq	-32(%rbp), %rcx
Ltmp80:
	.loc	3 599 14 is_stmt 1
	movq	$0, -48(%rbp)
	movq	-48(%rbp), %rax
	movq	%rax, -40(%rbp)
Ltmp81:
	.loc	6 135 36
	movq	%rax, -56(%rbp)
	.loc	6 135 14 is_stmt 0
	movq	-56(%rbp), %rax
	movq	%rax, -64(%rbp)
	movq	-64(%rbp), %rax
Ltmp82:
	.loc	8 23 9 is_stmt 1
	movq	%rcx, -80(%rbp)
	movq	%rax, -72(%rbp)
	.loc	8 27 6
	movq	-80(%rbp), %rax
	movq	-72(%rbp), %rdx
	addq	$80, %rsp
	popq	%rbp
	retq
Ltmp83:
Lfunc_end35:
	.cfi_endproc

	.globl	__ZN17raw_window_handle5redox13OrbitalHandle5empty17he4335efa289f99a1E
	.p2align	4, 0x90
__ZN17raw_window_handle5redox13OrbitalHandle5empty17he4335efa289f99a1E:
Lfunc_begin36:
	.file	9 "/Users/natalie/.cargo/registry/src/github.com-1ecc6299db9ec823/raw-window-handle-0.4.3" "src/redox.rs"
	.loc	9 20 0
	.cfi_startproc
	pushq	%rbp
	.cfi_def_cfa_offset 16
	.cfi_offset %rbp, -16
	movq	%rsp, %rbp
	.cfi_def_cfa_register %rbp
	subq	$40, %rsp
Ltmp84:
	.loc	3 599 14 prologue_end
	movq	$0, -16(%rbp)
	movq	-16(%rbp), %rax
	movq	%rax, -8(%rbp)
Ltmp85:
	.loc	6 135 36
	movq	%rax, -24(%rbp)
	.loc	6 135 14 is_stmt 0
	movq	-24(%rbp), %rax
	movq	%rax, -32(%rbp)
	movq	-32(%rbp), %rax
Ltmp86:
	.loc	9 21 9 is_stmt 1
	movq	%rax, -40(%rbp)
	.loc	9 24 6
	movq	-40(%rbp), %rax
	addq	$40, %rsp
	popq	%rbp
	retq
Ltmp87:
Lfunc_end36:
	.cfi_endproc

	.globl	__ZN17raw_window_handle5uikit11UiKitHandle5empty17h226e614bb894d317E
	.p2align	4, 0x90
__ZN17raw_window_handle5uikit11UiKitHandle5empty17h226e614bb894d317E:
Lfunc_begin37:
	.file	10 "/Users/natalie/.cargo/registry/src/github.com-1ecc6299db9ec823/raw-window-handle-0.4.3" "src/uikit.rs"
	.loc	10 24 0
	.cfi_startproc
	pushq	%rbp
	.cfi_def_cfa_offset 16
	.cfi_offset %rbp, -16
	movq	%rsp, %rbp
	.cfi_def_cfa_register %rbp
	subq	$96, %rsp
	movq	%rdi, %rax
Ltmp88:
	.loc	3 599 14 prologue_end
	movq	$0, -16(%rbp)
	movq	-16(%rbp), %rcx
	movq	%rcx, -8(%rbp)
Ltmp89:
	.loc	6 135 36
	movq	%rcx, -24(%rbp)
	.loc	6 135 14 is_stmt 0
	movq	-24(%rbp), %rcx
	movq	%rcx, -32(%rbp)
	movq	-32(%rbp), %rsi
Ltmp90:
	.loc	3 599 14 is_stmt 1
	movq	$0, -48(%rbp)
	movq	-48(%rbp), %rcx
	movq	%rcx, -40(%rbp)
Ltmp91:
	.loc	6 135 36
	movq	%rcx, -56(%rbp)
	.loc	6 135 14 is_stmt 0
	movq	-56(%rbp), %rcx
	movq	%rcx, -64(%rbp)
	movq	-64(%rbp), %rdx
Ltmp92:
	.loc	3 599 14 is_stmt 1
	movq	$0, -80(%rbp)
	movq	-80(%rbp), %rcx
	movq	%rcx, -72(%rbp)
Ltmp93:
	.loc	6 135 36
	movq	%rcx, -88(%rbp)
	.loc	6 135 14 is_stmt 0
	movq	-88(%rbp), %rcx
	movq	%rcx, -96(%rbp)
	movq	-96(%rbp), %rcx
Ltmp94:
	.loc	10 25 9 is_stmt 1
	movq	%rsi, (%rdi)
	movq	%rdx, 8(%rdi)
	movq	%rcx, 16(%rdi)
	.loc	10 30 6
	addq	$96, %rsp
	popq	%rbp
	retq
Ltmp95:
Lfunc_end37:
	.cfi_endproc

	.globl	__ZN17raw_window_handle4unix10XlibHandle5empty17hc6362dae729096ffE
	.p2align	4, 0x90
__ZN17raw_window_handle4unix10XlibHandle5empty17hc6362dae729096ffE:
Lfunc_begin38:
	.file	11 "/Users/natalie/.cargo/registry/src/github.com-1ecc6299db9ec823/raw-window-handle-0.4.3" "src/unix.rs"
	.loc	11 62 0
	.cfi_startproc
	pushq	%rbp
	.cfi_def_cfa_offset 16
	.cfi_offset %rbp, -16
	movq	%rsp, %rbp
	.cfi_def_cfa_register %rbp
	subq	$32, %rsp
	movq	%rdi, %rax
Ltmp96:
	.loc	3 599 14 prologue_end
	movq	$0, -16(%rbp)
	movq	-16(%rbp), %rcx
	movq	%rcx, -8(%rbp)
Ltmp97:
	.loc	6 135 36
	movq	%rcx, -24(%rbp)
	.loc	6 135 14 is_stmt 0
	movq	-24(%rbp), %rcx
	movq	%rcx, -32(%rbp)
	movq	-32(%rbp), %rcx
Ltmp98:
	.loc	11 63 9 is_stmt 1
	movq	$0, (%rdi)
	movq	%rcx, 8(%rdi)
	movq	$0, 16(%rdi)
	.loc	11 68 6
	addq	$32, %rsp
	popq	%rbp
	retq
Ltmp99:
Lfunc_end38:
	.cfi_endproc

	.globl	__ZN17raw_window_handle4unix9XcbHandle5empty17h8c6abb92913f0e26E
	.p2align	4, 0x90
__ZN17raw_window_handle4unix9XcbHandle5empty17h8c6abb92913f0e26E:
Lfunc_begin39:
	.loc	11 72 0
	.cfi_startproc
	pushq	%rbp
	.cfi_def_cfa_offset 16
	.cfi_offset %rbp, -16
	movq	%rsp, %rbp
	.cfi_def_cfa_register %rbp
	subq	$32, %rsp
	movq	%rdi, %rax
Ltmp100:
	.loc	3 599 14 prologue_end
	movq	$0, -16(%rbp)
	movq	-16(%rbp), %rcx
	movq	%rcx, -8(%rbp)
Ltmp101:
	.loc	6 135 36
	movq	%rcx, -24(%rbp)
	.loc	6 135 14 is_stmt 0
	movq	-24(%rbp), %rcx
	movq	%rcx, -32(%rbp)
	movq	-32(%rbp), %rcx
Ltmp102:
	.loc	11 73 9 is_stmt 1
	movl	$0, 8(%rdi)
	movq	%rcx, (%rdi)
	movl	$0, 12(%rdi)
	.loc	11 78 6
	addq	$32, %rsp
	popq	%rbp
	retq
Ltmp103:
Lfunc_end39:
	.cfi_endproc

	.globl	__ZN17raw_window_handle4unix13WaylandHandle5empty17h43ddec3ff712bf10E
	.p2align	4, 0x90
__ZN17raw_window_handle4unix13WaylandHandle5empty17h43ddec3ff712bf10E:
Lfunc_begin40:
	.loc	11 82 0
	.cfi_startproc
	pushq	%rbp
	.cfi_def_cfa_offset 16
	.cfi_offset %rbp, -16
	movq	%rsp, %rbp
	.cfi_def_cfa_register %rbp
	subq	$80, %rsp
Ltmp104:
	.loc	3 599 14 prologue_end
	movq	$0, -16(%rbp)
	movq	-16(%rbp), %rax
	movq	%rax, -8(%rbp)
Ltmp105:
	.loc	6 135 36
	movq	%rax, -24(%rbp)
	.loc	6 135 14 is_stmt 0
	movq	-24(%rbp), %rax
	movq	%rax, -32(%rbp)
	movq	-32(%rbp), %rcx
Ltmp106:
	.loc	3 599 14 is_stmt 1
	movq	$0, -48(%rbp)
	movq	-48(%rbp), %rax
	movq	%rax, -40(%rbp)
Ltmp107:
	.loc	6 135 36
	movq	%rax, -56(%rbp)
	.loc	6 135 14 is_stmt 0
	movq	-56(%rbp), %rax
	movq	%rax, -64(%rbp)
	movq	-64(%rbp), %rax
Ltmp108:
	.loc	11 83 9 is_stmt 1
	movq	%rcx, -80(%rbp)
	movq	%rax, -72(%rbp)
	.loc	11 87 6
	movq	-80(%rbp), %rax
	movq	-72(%rbp), %rdx
	addq	$80, %rsp
	popq	%rbp
	retq
Ltmp109:
Lfunc_end40:
	.cfi_endproc

	.globl	__ZN17raw_window_handle3web9WebHandle5empty17h27ca8a744ff093d7E
	.p2align	4, 0x90
__ZN17raw_window_handle3web9WebHandle5empty17h27ca8a744ff093d7E:
Lfunc_begin41:
	.file	12 "/Users/natalie/.cargo/registry/src/github.com-1ecc6299db9ec823/raw-window-handle-0.4.3" "src/web.rs"
	.loc	12 24 0
	.cfi_startproc
	pushq	%rbp
	.cfi_def_cfa_offset 16
	.cfi_offset %rbp, -16
	movq	%rsp, %rbp
	.cfi_def_cfa_register %rbp
	subq	$4, %rsp
Ltmp110:
	.loc	12 25 9 prologue_end
	movl	$0, -4(%rbp)
	.loc	12 26 6
	movl	-4(%rbp), %eax
	addq	$4, %rsp
	popq	%rbp
	retq
Ltmp111:
Lfunc_end41:
	.cfi_endproc

	.globl	__ZN17raw_window_handle7windows11Win32Handle5empty17h5f8f8df0fc5239eeE
	.p2align	4, 0x90
__ZN17raw_window_handle7windows11Win32Handle5empty17h5f8f8df0fc5239eeE:
Lfunc_begin42:
	.file	13 "/Users/natalie/.cargo/registry/src/github.com-1ecc6299db9ec823/raw-window-handle-0.4.3" "src/windows.rs"
	.loc	13 22 0
	.cfi_startproc
	pushq	%rbp
	.cfi_def_cfa_offset 16
	.cfi_offset %rbp, -16
	movq	%rsp, %rbp
	.cfi_def_cfa_register %rbp
	subq	$80, %rsp
Ltmp112:
	.loc	3 599 14 prologue_end
	movq	$0, -16(%rbp)
	movq	-16(%rbp), %rax
	movq	%rax, -8(%rbp)
Ltmp113:
	.loc	6 135 36
	movq	%rax, -24(%rbp)
	.loc	6 135 14 is_stmt 0
	movq	-24(%rbp), %rax
	movq	%rax, -32(%rbp)
	movq	-32(%rbp), %rcx
Ltmp114:
	.loc	3 599 14 is_stmt 1
	movq	$0, -48(%rbp)
	movq	-48(%rbp), %rax
	movq	%rax, -40(%rbp)
Ltmp115:
	.loc	6 135 36
	movq	%rax, -56(%rbp)
	.loc	6 135 14 is_stmt 0
	movq	-56(%rbp), %rax
	movq	%rax, -64(%rbp)
	movq	-64(%rbp), %rax
Ltmp116:
	.loc	13 23 9 is_stmt 1
	movq	%rcx, -80(%rbp)
	movq	%rax, -72(%rbp)
	.loc	13 27 6
	movq	-80(%rbp), %rax
	movq	-72(%rbp), %rdx
	addq	$80, %rsp
	popq	%rbp
	retq
Ltmp117:
Lfunc_end42:
	.cfi_endproc

	.globl	__ZN17raw_window_handle7windows11WinRtHandle5empty17hf7acd1f7d7e06254E
	.p2align	4, 0x90
__ZN17raw_window_handle7windows11WinRtHandle5empty17hf7acd1f7d7e06254E:
Lfunc_begin43:
	.loc	13 46 0
	.cfi_startproc
	pushq	%rbp
	.cfi_def_cfa_offset 16
	.cfi_offset %rbp, -16
	movq	%rsp, %rbp
	.cfi_def_cfa_register %rbp
	subq	$40, %rsp
Ltmp118:
	.loc	3 599 14 prologue_end
	movq	$0, -16(%rbp)
	movq	-16(%rbp), %rax
	movq	%rax, -8(%rbp)
Ltmp119:
	.loc	6 135 36
	movq	%rax, -24(%rbp)
	.loc	6 135 14 is_stmt 0
	movq	-24(%rbp), %rax
	movq	%rax, -32(%rbp)
	movq	-32(%rbp), %rax
Ltmp120:
	.loc	13 47 9 is_stmt 1
	movq	%rax, -40(%rbp)
	.loc	13 50 6
	movq	-40(%rbp), %rax
	addq	$40, %rsp
	popq	%rbp
	retq
Ltmp121:
Lfunc_end43:
	.cfi_endproc

	.globl	__ZN81_$LT$raw_window_handle..android..AndroidNdkHandle$u20$as$u20$core..fmt..Debug$GT$3fmt17h975630a8274fee0cE
	.p2align	4, 0x90
__ZN81_$LT$raw_window_handle..android..AndroidNdkHandle$u20$as$u20$core..fmt..Debug$GT$3fmt17h975630a8274fee0cE:
Lfunc_begin44:
	.loc	5 13 0
	.cfi_startproc
	pushq	%rbp
	.cfi_def_cfa_offset 16
	.cfi_offset %rbp, -16
	movq	%rsp, %rbp
	.cfi_def_cfa_register %rbp
	subq	$48, %rsp
	movq	%rsi, -32(%rbp)
	movq	%rdi, %rax
	movq	-32(%rbp), %rdi
	movq	%rax, -16(%rbp)
	movq	%rdi, -8(%rbp)
Ltmp122:
	.loc	5 16 5 prologue_end
	movq	%rax, -24(%rbp)
	.loc	5 13 10
	leaq	L___unnamed_15(%rip), %rsi
	movl	$16, %edx
	leaq	l___unnamed_16(%rip), %rcx
	movl	$15, %r8d
	leaq	-24(%rbp), %r9
	leaq	l___unnamed_1(%rip), %rax
	movq	%rax, (%rsp)
	callq	__ZN4core3fmt9Formatter26debug_struct_field1_finish17ha7aba2fd90afbefeE
	.loc	5 13 15 is_stmt 0
	andb	$1, %al
	movzbl	%al, %eax
	addq	$48, %rsp
	popq	%rbp
	retq
Ltmp123:
Lfunc_end44:
	.cfi_endproc

	.globl	__ZN76_$LT$raw_window_handle..appkit..AppKitHandle$u20$as$u20$core..fmt..Debug$GT$3fmt17hd39adb1d4bccafdaE
	.p2align	4, 0x90
__ZN76_$LT$raw_window_handle..appkit..AppKitHandle$u20$as$u20$core..fmt..Debug$GT$3fmt17hd39adb1d4bccafdaE:
Lfunc_begin45:
	.loc	7 13 0 is_stmt 1
	.cfi_startproc
	pushq	%rbp
	.cfi_def_cfa_offset 16
	.cfi_offset %rbp, -16
	movq	%rsp, %rbp
	.cfi_def_cfa_register %rbp
	subq	$80, %rsp
	movq	%rsi, -40(%rbp)
	movq	%rdi, %rax
	movq	-40(%rbp), %rdi
	movq	%rax, -16(%rbp)
	movq	%rdi, -8(%rbp)
Ltmp124:
	.loc	7 16 5 prologue_end
	movq	%rax, -32(%rbp)
	.loc	7 18 5
	addq	$8, %rax
	movq	%rax, -24(%rbp)
	.loc	7 13 10
	leaq	l___unnamed_17(%rip), %rsi
	movl	$12, %edx
	leaq	l___unnamed_18(%rip), %rcx
	movl	$9, %r8d
	leaq	-32(%rbp), %r9
	leaq	l___unnamed_1(%rip), %rax
	leaq	l___unnamed_19(%rip), %r11
	leaq	-24(%rbp), %r10
	movq	%rax, (%rsp)
	movq	%r11, 8(%rsp)
	movq	$7, 16(%rsp)
	movq	%r10, 24(%rsp)
	movq	%rax, 32(%rsp)
	callq	__ZN4core3fmt9Formatter26debug_struct_field2_finish17h6d8f05a66ed84642E
	.loc	7 13 15 is_stmt 0
	andb	$1, %al
	movzbl	%al, %eax
	addq	$80, %rsp
	popq	%rbp
	retq
Ltmp125:
Lfunc_end45:
	.cfi_endproc

	.globl	__ZN74_$LT$raw_window_handle..haiku..HaikuHandle$u20$as$u20$core..fmt..Debug$GT$3fmt17h1761302ac3092fcfE
	.p2align	4, 0x90
__ZN74_$LT$raw_window_handle..haiku..HaikuHandle$u20$as$u20$core..fmt..Debug$GT$3fmt17h1761302ac3092fcfE:
Lfunc_begin46:
	.loc	8 13 0 is_stmt 1
	.cfi_startproc
	pushq	%rbp
	.cfi_def_cfa_offset 16
	.cfi_offset %rbp, -16
	movq	%rsp, %rbp
	.cfi_def_cfa_register %rbp
	subq	$80, %rsp
	movq	%rsi, -40(%rbp)
	movq	%rdi, %rax
	movq	-40(%rbp), %rdi
	movq	%rax, -16(%rbp)
	movq	%rdi, -8(%rbp)
Ltmp126:
	.loc	8 16 5 prologue_end
	movq	%rax, -32(%rbp)
	.loc	8 18 5
	addq	$8, %rax
	movq	%rax, -24(%rbp)
	.loc	8 13 10
	leaq	l___unnamed_20(%rip), %rsi
	movl	$11, %edx
	leaq	L___unnamed_21(%rip), %rcx
	movl	$8, %r8d
	leaq	-32(%rbp), %r9
	leaq	l___unnamed_1(%rip), %rax
	leaq	l___unnamed_22(%rip), %r11
	leaq	-24(%rbp), %r10
	movq	%rax, (%rsp)
	movq	%r11, 8(%rsp)
	movq	$15, 16(%rsp)
	movq	%r10, 24(%rsp)
	movq	%rax, 32(%rsp)
	callq	__ZN4core3fmt9Formatter26debug_struct_field2_finish17h6d8f05a66ed84642E
	.loc	8 13 15 is_stmt 0
	andb	$1, %al
	movzbl	%al, %eax
	addq	$80, %rsp
	popq	%rbp
	retq
Ltmp127:
Lfunc_end46:
	.cfi_endproc

	.globl	__ZN76_$LT$raw_window_handle..redox..OrbitalHandle$u20$as$u20$core..fmt..Debug$GT$3fmt17hbc34424c75576e4bE
	.p2align	4, 0x90
__ZN76_$LT$raw_window_handle..redox..OrbitalHandle$u20$as$u20$core..fmt..Debug$GT$3fmt17hbc34424c75576e4bE:
Lfunc_begin47:
	.loc	9 13 0 is_stmt 1
	.cfi_startproc
	pushq	%rbp
	.cfi_def_cfa_offset 16
	.cfi_offset %rbp, -16
	movq	%rsp, %rbp
	.cfi_def_cfa_register %rbp
	subq	$48, %rsp
	movq	%rsi, -32(%rbp)
	movq	%rdi, %rax
	movq	-32(%rbp), %rdi
	movq	%rax, -16(%rbp)
	movq	%rdi, -8(%rbp)
Ltmp128:
	.loc	9 16 5 prologue_end
	movq	%rax, -24(%rbp)
	.loc	9 13 10
	leaq	l___unnamed_23(%rip), %rsi
	movl	$13, %edx
	leaq	l___unnamed_24(%rip), %rcx
	movl	$6, %r8d
	leaq	-24(%rbp), %r9
	leaq	l___unnamed_1(%rip), %rax
	movq	%rax, (%rsp)
	callq	__ZN4core3fmt9Formatter26debug_struct_field1_finish17ha7aba2fd90afbefeE
	.loc	9 13 15 is_stmt 0
	andb	$1, %al
	movzbl	%al, %eax
	addq	$48, %rsp
	popq	%rbp
	retq
Ltmp129:
Lfunc_end47:
	.cfi_endproc

	.globl	__ZN74_$LT$raw_window_handle..uikit..UiKitHandle$u20$as$u20$core..fmt..Debug$GT$3fmt17h72f9a2615fdecebcE
	.p2align	4, 0x90
__ZN74_$LT$raw_window_handle..uikit..UiKitHandle$u20$as$u20$core..fmt..Debug$GT$3fmt17h72f9a2615fdecebcE:
Lfunc_begin48:
	.loc	10 13 0 is_stmt 1
	.cfi_startproc
	pushq	%rbp
	.cfi_def_cfa_offset 16
	.cfi_offset %rbp, -16
	movq	%rsp, %rbp
	.cfi_def_cfa_register %rbp
	pushq	%r14
	pushq	%rbx
	subq	$128, %rsp
	.cfi_offset %rbx, -32
	.cfi_offset %r14, -24
	movq	%rsi, -64(%rbp)
	movq	%rdi, %rax
	movq	-64(%rbp), %rdi
	movq	%rax, -32(%rbp)
	movq	%rdi, -24(%rbp)
Ltmp130:
	.loc	10 16 5 prologue_end
	movq	%rax, -56(%rbp)
	.loc	10 18 5
	movq	%rax, %rcx
	addq	$8, %rcx
	movq	%rcx, -48(%rbp)
	.loc	10 20 5
	addq	$16, %rax
	movq	%rax, -40(%rbp)
	.loc	10 13 10
	leaq	l___unnamed_25(%rip), %rsi
	movl	$11, %edx
	leaq	l___unnamed_26(%rip), %rcx
	movl	$9, %r8d
	leaq	-56(%rbp), %r9
	leaq	l___unnamed_1(%rip), %rax
	leaq	l___unnamed_27(%rip), %r14
	leaq	-48(%rbp), %rbx
	leaq	l___unnamed_28(%rip), %r11
	leaq	-40(%rbp), %r10
	movq	%rax, (%rsp)
	movq	%r14, 8(%rsp)
	movq	$7, 16(%rsp)
	movq	%rbx, 24(%rsp)
	movq	%rax, 32(%rsp)
	movq	%r11, 40(%rsp)
	movq	$18, 48(%rsp)
	movq	%r10, 56(%rsp)
	movq	%rax, 64(%rsp)
	callq	__ZN4core3fmt9Formatter26debug_struct_field3_finish17hf5caeae338c1d93dE
	.loc	10 13 15 is_stmt 0
	andb	$1, %al
	movzbl	%al, %eax
	addq	$128, %rsp
	popq	%rbx
	popq	%r14
	popq	%rbp
	retq
Ltmp131:
Lfunc_end48:
	.cfi_endproc

	.globl	__ZN72_$LT$raw_window_handle..unix..XlibHandle$u20$as$u20$core..fmt..Debug$GT$3fmt17h7965ee36c9cd61c0E
	.p2align	4, 0x90
__ZN72_$LT$raw_window_handle..unix..XlibHandle$u20$as$u20$core..fmt..Debug$GT$3fmt17h7965ee36c9cd61c0E:
Lfunc_begin49:
	.loc	11 15 0 is_stmt 1
	.cfi_startproc
	pushq	%rbp
	.cfi_def_cfa_offset 16
	.cfi_offset %rbp, -16
	movq	%rsp, %rbp
	.cfi_def_cfa_register %rbp
	pushq	%r15
	pushq	%r14
	pushq	%rbx
	subq	$120, %rsp
	.cfi_offset %rbx, -40
	.cfi_offset %r14, -32
	.cfi_offset %r15, -24
	movq	%rsi, -72(%rbp)
	movq	%rdi, %rax
	movq	-72(%rbp), %rdi
	movq	%rax, -40(%rbp)
	movq	%rdi, -32(%rbp)
Ltmp132:
	.loc	11 18 5 prologue_end
	movq	%rax, -64(%rbp)
	.loc	11 20 5
	movq	%rax, %rcx
	addq	$8, %rcx
	movq	%rcx, -56(%rbp)
	.loc	11 22 5
	addq	$16, %rax
	movq	%rax, -48(%rbp)
	.loc	11 15 10
	leaq	l___unnamed_29(%rip), %rsi
	movl	$10, %edx
	leaq	l___unnamed_24(%rip), %rcx
	movl	$6, %r8d
	leaq	-64(%rbp), %r9
	leaq	l___unnamed_2(%rip), %rax
	leaq	l___unnamed_30(%rip), %r15
	leaq	-56(%rbp), %r14
	leaq	l___unnamed_1(%rip), %rbx
	leaq	l___unnamed_31(%rip), %r11
	leaq	-48(%rbp), %r10
	movq	%rax, (%rsp)
	movq	%r15, 8(%rsp)
	movq	$7, 16(%rsp)
	movq	%r14, 24(%rsp)
	movq	%rbx, 32(%rsp)
	movq	%r11, 40(%rsp)
	movq	$9, 48(%rsp)
	movq	%r10, 56(%rsp)
	movq	%rax, 64(%rsp)
	callq	__ZN4core3fmt9Formatter26debug_struct_field3_finish17hf5caeae338c1d93dE
	.loc	11 15 15 is_stmt 0
	andb	$1, %al
	movzbl	%al, %eax
	addq	$120, %rsp
	popq	%rbx
	popq	%r14
	popq	%r15
	popq	%rbp
	retq
Ltmp133:
Lfunc_end49:
	.cfi_endproc

	.globl	__ZN71_$LT$raw_window_handle..unix..XcbHandle$u20$as$u20$core..fmt..Debug$GT$3fmt17h440e26469c6e181bE
	.p2align	4, 0x90
__ZN71_$LT$raw_window_handle..unix..XcbHandle$u20$as$u20$core..fmt..Debug$GT$3fmt17h440e26469c6e181bE:
Lfunc_begin50:
	.loc	11 34 0 is_stmt 1
	.cfi_startproc
	pushq	%rbp
	.cfi_def_cfa_offset 16
	.cfi_offset %rbp, -16
	movq	%rsp, %rbp
	.cfi_def_cfa_register %rbp
	pushq	%r15
	pushq	%r14
	pushq	%rbx
	subq	$120, %rsp
	.cfi_offset %rbx, -40
	.cfi_offset %r14, -32
	.cfi_offset %r15, -24
	movq	%rsi, -72(%rbp)
	movq	%rdi, %rax
	movq	-72(%rbp), %rdi
	movq	%rax, -40(%rbp)
	movq	%rdi, -32(%rbp)
Ltmp134:
	.loc	11 37 5 prologue_end
	movq	%rax, %rcx
	addq	$8, %rcx
	movq	%rcx, -64(%rbp)
	.loc	11 39 5
	movq	%rax, -56(%rbp)
	.loc	11 41 5
	addq	$12, %rax
	movq	%rax, -48(%rbp)
	.loc	11 34 10
	leaq	l___unnamed_32(%rip), %rsi
	movl	$9, %edx
	leaq	l___unnamed_24(%rip), %rcx
	movl	$6, %r8d
	leaq	-64(%rbp), %r9
	leaq	l___unnamed_3(%rip), %rax
	leaq	l___unnamed_33(%rip), %r15
	leaq	-56(%rbp), %r14
	leaq	l___unnamed_1(%rip), %rbx
	leaq	l___unnamed_31(%rip), %r11
	leaq	-48(%rbp), %r10
	movq	%rax, (%rsp)
	movq	%r15, 8(%rsp)
	movq	$10, 16(%rsp)
	movq	%r14, 24(%rsp)
	movq	%rbx, 32(%rsp)
	movq	%r11, 40(%rsp)
	movq	$9, 48(%rsp)
	movq	%r10, 56(%rsp)
	movq	%rax, 64(%rsp)
	callq	__ZN4core3fmt9Formatter26debug_struct_field3_finish17hf5caeae338c1d93dE
	.loc	11 34 15 is_stmt 0
	andb	$1, %al
	movzbl	%al, %eax
	addq	$120, %rsp
	popq	%rbx
	popq	%r14
	popq	%r15
	popq	%rbp
	retq
Ltmp135:
Lfunc_end50:
	.cfi_endproc

	.globl	__ZN75_$LT$raw_window_handle..unix..WaylandHandle$u20$as$u20$core..fmt..Debug$GT$3fmt17h0ceb5a2034c5e145E
	.p2align	4, 0x90
__ZN75_$LT$raw_window_handle..unix..WaylandHandle$u20$as$u20$core..fmt..Debug$GT$3fmt17h0ceb5a2034c5e145E:
Lfunc_begin51:
	.loc	11 53 0 is_stmt 1
	.cfi_startproc
	pushq	%rbp
	.cfi_def_cfa_offset 16
	.cfi_offset %rbp, -16
	movq	%rsp, %rbp
	.cfi_def_cfa_register %rbp
	subq	$80, %rsp
	movq	%rsi, -40(%rbp)
	movq	%rdi, %rax
	movq	-40(%rbp), %rdi
	movq	%rax, -16(%rbp)
	movq	%rdi, -8(%rbp)
Ltmp136:
	.loc	11 56 5 prologue_end
	movq	%rax, -32(%rbp)
	.loc	11 58 5
	addq	$8, %rax
	movq	%rax, -24(%rbp)
	.loc	11 53 10
	leaq	l___unnamed_34(%rip), %rsi
	movl	$13, %edx
	leaq	l___unnamed_35(%rip), %rcx
	movl	$7, %r8d
	leaq	-32(%rbp), %r9
	leaq	l___unnamed_1(%rip), %rax
	leaq	l___unnamed_30(%rip), %r11
	leaq	-24(%rbp), %r10
	movq	%rax, (%rsp)
	movq	%r11, 8(%rsp)
	movq	$7, 16(%rsp)
	movq	%r10, 24(%rsp)
	movq	%rax, 32(%rsp)
	callq	__ZN4core3fmt9Formatter26debug_struct_field2_finish17h6d8f05a66ed84642E
	.loc	11 53 15 is_stmt 0
	andb	$1, %al
	movzbl	%al, %eax
	addq	$80, %rsp
	popq	%rbp
	retq
Ltmp137:
Lfunc_end51:
	.cfi_endproc

	.globl	__ZN70_$LT$raw_window_handle..web..WebHandle$u20$as$u20$core..fmt..Debug$GT$3fmt17h4cdf8bcf110e6f36E
	.p2align	4, 0x90
__ZN70_$LT$raw_window_handle..web..WebHandle$u20$as$u20$core..fmt..Debug$GT$3fmt17h4cdf8bcf110e6f36E:
Lfunc_begin52:
	.loc	12 10 0 is_stmt 1
	.cfi_startproc
	pushq	%rbp
	.cfi_def_cfa_offset 16
	.cfi_offset %rbp, -16
	movq	%rsp, %rbp
	.cfi_def_cfa_register %rbp
	subq	$48, %rsp
	movq	%rsi, -32(%rbp)
	movq	%rdi, %rax
	movq	-32(%rbp), %rdi
	movq	%rax, -16(%rbp)
	movq	%rdi, -8(%rbp)
Ltmp138:
	.loc	12 20 5 prologue_end
	movq	%rax, -24(%rbp)
	.loc	12 10 10
	leaq	l___unnamed_36(%rip), %rsi
	movl	$9, %edx
	leaq	l___unnamed_37(%rip), %rcx
	movl	$2, %r8d
	leaq	-24(%rbp), %r9
	leaq	l___unnamed_3(%rip), %rax
	movq	%rax, (%rsp)
	callq	__ZN4core3fmt9Formatter26debug_struct_field1_finish17ha7aba2fd90afbefeE
	.loc	12 10 15 is_stmt 0
	andb	$1, %al
	movzbl	%al, %eax
	addq	$48, %rsp
	popq	%rbp
	retq
Ltmp139:
Lfunc_end52:
	.cfi_endproc

	.globl	__ZN76_$LT$raw_window_handle..windows..Win32Handle$u20$as$u20$core..fmt..Debug$GT$3fmt17hb896c50113831ac0E
	.p2align	4, 0x90
__ZN76_$LT$raw_window_handle..windows..Win32Handle$u20$as$u20$core..fmt..Debug$GT$3fmt17hb896c50113831ac0E:
Lfunc_begin53:
	.loc	13 13 0 is_stmt 1
	.cfi_startproc
	pushq	%rbp
	.cfi_def_cfa_offset 16
	.cfi_offset %rbp, -16
	movq	%rsp, %rbp
	.cfi_def_cfa_register %rbp
	subq	$80, %rsp
	movq	%rsi, -40(%rbp)
	movq	%rdi, %rax
	movq	-40(%rbp), %rdi
	movq	%rax, -16(%rbp)
	movq	%rdi, -8(%rbp)
Ltmp140:
	.loc	13 16 5 prologue_end
	movq	%rax, -32(%rbp)
	.loc	13 18 5
	addq	$8, %rax
	movq	%rax, -24(%rbp)
	.loc	13 13 10
	leaq	l___unnamed_38(%rip), %rsi
	movl	$11, %edx
	leaq	L___unnamed_39(%rip), %rcx
	movl	$4, %r8d
	leaq	-32(%rbp), %r9
	leaq	l___unnamed_1(%rip), %rax
	leaq	l___unnamed_40(%rip), %r11
	leaq	-24(%rbp), %r10
	movq	%rax, (%rsp)
	movq	%r11, 8(%rsp)
	movq	$9, 16(%rsp)
	movq	%r10, 24(%rsp)
	movq	%rax, 32(%rsp)
	callq	__ZN4core3fmt9Formatter26debug_struct_field2_finish17h6d8f05a66ed84642E
	.loc	13 13 15 is_stmt 0
	andb	$1, %al
	movzbl	%al, %eax
	addq	$80, %rsp
	popq	%rbp
	retq
Ltmp141:
Lfunc_end53:
	.cfi_endproc

	.globl	__ZN76_$LT$raw_window_handle..windows..WinRtHandle$u20$as$u20$core..fmt..Debug$GT$3fmt17heeb32fa1fc19c182E
	.p2align	4, 0x90
__ZN76_$LT$raw_window_handle..windows..WinRtHandle$u20$as$u20$core..fmt..Debug$GT$3fmt17heeb32fa1fc19c182E:
Lfunc_begin54:
	.loc	13 39 0 is_stmt 1
	.cfi_startproc
	pushq	%rbp
	.cfi_def_cfa_offset 16
	.cfi_offset %rbp, -16
	movq	%rsp, %rbp
	.cfi_def_cfa_register %rbp
	subq	$48, %rsp
	movq	%rsi, -32(%rbp)
	movq	%rdi, %rax
	movq	-32(%rbp), %rdi
	movq	%rax, -16(%rbp)
	movq	%rdi, -8(%rbp)
Ltmp142:
	.loc	13 42 5 prologue_end
	movq	%rax, -24(%rbp)
	.loc	13 39 10
	leaq	l___unnamed_41(%rip), %rsi
	movl	$11, %r8d
	leaq	l___unnamed_42(%rip), %rcx
	leaq	-24(%rbp), %r9
	leaq	l___unnamed_1(%rip), %rax
	movq	%r8, %rdx
	movq	%rax, (%rsp)
	callq	__ZN4core3fmt9Formatter26debug_struct_field1_finish17ha7aba2fd90afbefeE
	.loc	13 39 15 is_stmt 0
	andb	$1, %al
	movzbl	%al, %eax
	addq	$48, %rsp
	popq	%rbp
	retq
Ltmp143:
Lfunc_end54:
	.cfi_endproc

	.globl	__ZN71_$LT$raw_window_handle..RawWindowHandle$u20$as$u20$core..fmt..Debug$GT$3fmt17h508470683049e059E
	.p2align	4, 0x90
__ZN71_$LT$raw_window_handle..RawWindowHandle$u20$as$u20$core..fmt..Debug$GT$3fmt17h508470683049e059E:
Lfunc_begin55:
	.file	14 "/Users/natalie/.cargo/registry/src/github.com-1ecc6299db9ec823/raw-window-handle-0.4.3" "src/lib.rs"
	.loc	14 95 0 is_stmt 1
	.cfi_startproc
	pushq	%rbp
	.cfi_def_cfa_offset 16
	.cfi_offset %rbp, -16
	movq	%rsp, %rbp
	.cfi_def_cfa_register %rbp
	subq	$144, %rsp
	movq	%rdi, -136(%rbp)
	movq	%rsi, -128(%rbp)
	movq	%rdi, -16(%rbp)
	movq	%rsi, -8(%rbp)
Ltmp144:
	.loc	14 95 10 prologue_end
	movl	(%rdi), %eax
	movq	%rax, -120(%rbp)
	.loc	14 0 10 is_stmt 0
	movq	-120(%rbp), %rax
	leaq	LJTI55_0(%rip), %rcx
	movslq	(%rcx,%rax,4), %rax
	addq	%rcx, %rax
	jmpq	*%rax
	.loc	14 95 10
	ud2
LBB55_2:
	.loc	14 0 10
	movq	-128(%rbp), %rdi
	movq	-136(%rbp), %rax
	.loc	14 104 11 is_stmt 1
	addq	$8, %rax
	movq	%rax, -104(%rbp)
Ltmp145:
	.loc	14 95 10
	leaq	l___unnamed_43(%rip), %rsi
	movl	$5, %edx
	leaq	-104(%rbp), %rcx
	leaq	l___unnamed_14(%rip), %r8
	callq	__ZN4core3fmt9Formatter25debug_tuple_field1_finish17h7c0e485bb1c7676eE
	andb	$1, %al
	movb	%al, -105(%rbp)
	jmp	LBB55_13
Ltmp146:
LBB55_3:
	.loc	14 0 10 is_stmt 0
	movq	-128(%rbp), %rdi
	movq	-136(%rbp), %rax
	.loc	14 111 12 is_stmt 1
	addq	$8, %rax
	movq	%rax, -96(%rbp)
Ltmp147:
	.loc	14 95 10
	leaq	l___unnamed_44(%rip), %rsi
	movl	$6, %edx
	leaq	-96(%rbp), %rcx
	leaq	l___unnamed_13(%rip), %r8
	callq	__ZN4core3fmt9Formatter25debug_tuple_field1_finish17h7c0e485bb1c7676eE
	andb	$1, %al
	movb	%al, -105(%rbp)
	jmp	LBB55_13
Ltmp148:
LBB55_4:
	.loc	14 0 10 is_stmt 0
	movq	-128(%rbp), %rdi
	movq	-136(%rbp), %rax
	.loc	14 117 13 is_stmt 1
	addq	$8, %rax
	movq	%rax, -88(%rbp)
Ltmp149:
	.loc	14 95 10
	leaq	l___unnamed_45(%rip), %rsi
	movl	$7, %edx
	leaq	-88(%rbp), %rcx
	leaq	l___unnamed_12(%rip), %r8
	callq	__ZN4core3fmt9Formatter25debug_tuple_field1_finish17h7c0e485bb1c7676eE
	andb	$1, %al
	movb	%al, -105(%rbp)
	jmp	LBB55_13
Ltmp150:
LBB55_5:
	.loc	14 0 10 is_stmt 0
	movq	-128(%rbp), %rdi
	movq	-136(%rbp), %rax
	.loc	14 124 10 is_stmt 1
	addq	$8, %rax
	movq	%rax, -80(%rbp)
Ltmp151:
	.loc	14 95 10
	leaq	L___unnamed_46(%rip), %rsi
	movl	$4, %edx
	leaq	-80(%rbp), %rcx
	leaq	l___unnamed_11(%rip), %r8
	callq	__ZN4core3fmt9Formatter25debug_tuple_field1_finish17h7c0e485bb1c7676eE
	andb	$1, %al
	movb	%al, -105(%rbp)
	jmp	LBB55_13
Ltmp152:
LBB55_6:
	.loc	14 0 10 is_stmt 0
	movq	-128(%rbp), %rdi
	movq	-136(%rbp), %rax
	.loc	14 131 9 is_stmt 1
	addq	$8, %rax
	movq	%rax, -72(%rbp)
Ltmp153:
	.loc	14 95 10
	leaq	l___unnamed_47(%rip), %rsi
	movl	$3, %edx
	leaq	-72(%rbp), %rcx
	leaq	l___unnamed_10(%rip), %r8
	callq	__ZN4core3fmt9Formatter25debug_tuple_field1_finish17h7c0e485bb1c7676eE
	andb	$1, %al
	movb	%al, -105(%rbp)
	jmp	LBB55_13
Ltmp154:
LBB55_7:
	.loc	14 0 10 is_stmt 0
	movq	-128(%rbp), %rdi
	movq	-136(%rbp), %rax
	.loc	14 137 13 is_stmt 1
	addq	$8, %rax
	movq	%rax, -64(%rbp)
Ltmp155:
	.loc	14 95 10
	leaq	l___unnamed_48(%rip), %rsi
	movl	$7, %edx
	leaq	-64(%rbp), %rcx
	leaq	l___unnamed_9(%rip), %r8
	callq	__ZN4core3fmt9Formatter25debug_tuple_field1_finish17h7c0e485bb1c7676eE
	andb	$1, %al
	movb	%al, -105(%rbp)
	jmp	LBB55_13
Ltmp156:
LBB55_8:
	.loc	14 0 10 is_stmt 0
	movq	-128(%rbp), %rdi
	movq	-136(%rbp), %rax
	.loc	14 142 11 is_stmt 1
	addq	$8, %rax
	movq	%rax, -56(%rbp)
Ltmp157:
	.loc	14 95 10
	leaq	l___unnamed_49(%rip), %rsi
	movl	$5, %edx
	leaq	-56(%rbp), %rcx
	leaq	l___unnamed_8(%rip), %r8
	callq	__ZN4core3fmt9Formatter25debug_tuple_field1_finish17h7c0e485bb1c7676eE
	andb	$1, %al
	movb	%al, -105(%rbp)
	jmp	LBB55_13
Ltmp158:
LBB55_9:
	.loc	14 0 10 is_stmt 0
	movq	-128(%rbp), %rdi
	movq	-136(%rbp), %rax
	.loc	14 147 11 is_stmt 1
	addq	$8, %rax
	movq	%rax, -48(%rbp)
Ltmp159:
	.loc	14 95 10
	leaq	l___unnamed_50(%rip), %rsi
	movl	$5, %edx
	leaq	-48(%rbp), %rcx
	leaq	l___unnamed_7(%rip), %r8
	callq	__ZN4core3fmt9Formatter25debug_tuple_field1_finish17h7c0e485bb1c7676eE
	andb	$1, %al
	movb	%al, -105(%rbp)
	jmp	LBB55_13
Ltmp160:
LBB55_10:
	.loc	14 0 10 is_stmt 0
	movq	-128(%rbp), %rdi
	movq	-136(%rbp), %rax
	.loc	14 152 9 is_stmt 1
	addq	$4, %rax
	movq	%rax, -40(%rbp)
Ltmp161:
	.loc	14 95 10
	leaq	l___unnamed_51(%rip), %rsi
	movl	$3, %edx
	leaq	-40(%rbp), %rcx
	leaq	l___unnamed_6(%rip), %r8
	callq	__ZN4core3fmt9Formatter25debug_tuple_field1_finish17h7c0e485bb1c7676eE
	andb	$1, %al
	movb	%al, -105(%rbp)
	jmp	LBB55_13
Ltmp162:
LBB55_11:
	.loc	14 0 10 is_stmt 0
	movq	-128(%rbp), %rdi
	movq	-136(%rbp), %rax
	.loc	14 157 16 is_stmt 1
	addq	$8, %rax
	movq	%rax, -32(%rbp)
Ltmp163:
	.loc	14 95 10
	leaq	l___unnamed_52(%rip), %rsi
	movl	$10, %edx
	leaq	-32(%rbp), %rcx
	leaq	l___unnamed_5(%rip), %r8
	callq	__ZN4core3fmt9Formatter25debug_tuple_field1_finish17h7c0e485bb1c7676eE
	andb	$1, %al
	movb	%al, -105(%rbp)
	jmp	LBB55_13
Ltmp164:
LBB55_12:
	.loc	14 0 10 is_stmt 0
	movq	-128(%rbp), %rdi
	movq	-136(%rbp), %rax
	.loc	14 162 11 is_stmt 1
	addq	$8, %rax
	movq	%rax, -24(%rbp)
Ltmp165:
	.loc	14 95 10
	leaq	l___unnamed_53(%rip), %rsi
	movl	$5, %edx
	leaq	-24(%rbp), %rcx
	leaq	l___unnamed_4(%rip), %r8
	callq	__ZN4core3fmt9Formatter25debug_tuple_field1_finish17h7c0e485bb1c7676eE
	andb	$1, %al
	movb	%al, -105(%rbp)
Ltmp166:
LBB55_13:
	.loc	14 95 15 is_stmt 0
	movb	-105(%rbp), %al
	andb	$1, %al
	movzbl	%al, %eax
	addq	$144, %rsp
	popq	%rbp
	retq
Ltmp167:
Lfunc_end55:
	.cfi_endproc
	.p2align	2, 0x90
	.data_region jt32
.set L55_0_set_2, LBB55_2-LJTI55_0
.set L55_0_set_3, LBB55_3-LJTI55_0
.set L55_0_set_4, LBB55_4-LJTI55_0
.set L55_0_set_5, LBB55_5-LJTI55_0
.set L55_0_set_6, LBB55_6-LJTI55_0
.set L55_0_set_7, LBB55_7-LJTI55_0
.set L55_0_set_8, LBB55_8-LJTI55_0
.set L55_0_set_9, LBB55_9-LJTI55_0
.set L55_0_set_10, LBB55_10-LJTI55_0
.set L55_0_set_11, LBB55_11-LJTI55_0
.set L55_0_set_12, LBB55_12-LJTI55_0
LJTI55_0:
	.long	L55_0_set_2
	.long	L55_0_set_3
	.long	L55_0_set_4
	.long	L55_0_set_5
	.long	L55_0_set_6
	.long	L55_0_set_7
	.long	L55_0_set_8
	.long	L55_0_set_9
	.long	L55_0_set_10
	.long	L55_0_set_11
	.long	L55_0_set_12
	.end_data_region

	.section	__TEXT,__literal16,16byte_literals
L___unnamed_15:
	.ascii	"AndroidNdkHandle"

	.section	__TEXT,__const
l___unnamed_16:
	.ascii	"a_native_window"

	.section	__DATA,__const
	.p2align	3
l___unnamed_1:
	.quad	__ZN4core3ptr54drop_in_place$LT$$RF$$BP$mut$u20$core..ffi..c_void$GT$17h8b18eb7ed7cd6427E
	.asciz	"\b\000\000\000\000\000\000\000\b\000\000\000\000\000\000"
	.quad	__ZN42_$LT$$RF$T$u20$as$u20$core..fmt..Debug$GT$3fmt17h4df2ea05d055d333E

	.section	__TEXT,__const
l___unnamed_17:
	.ascii	"AppKitHandle"

l___unnamed_18:
	.ascii	"ns_window"

l___unnamed_19:
	.ascii	"ns_view"

l___unnamed_20:
	.ascii	"HaikuHandle"

	.section	__TEXT,__literal8,8byte_literals
L___unnamed_21:
	.ascii	"b_window"

	.section	__TEXT,__const
l___unnamed_22:
	.ascii	"b_direct_window"

l___unnamed_23:
	.ascii	"OrbitalHandle"

l___unnamed_24:
	.ascii	"window"

l___unnamed_25:
	.ascii	"UiKitHandle"

l___unnamed_26:
	.ascii	"ui_window"

l___unnamed_27:
	.ascii	"ui_view"

l___unnamed_28:
	.ascii	"ui_view_controller"

l___unnamed_29:
	.ascii	"XlibHandle"

	.section	__DATA,__const
	.p2align	3
l___unnamed_2:
	.quad	__ZN4core3ptr28drop_in_place$LT$$RF$u64$GT$17h4207201cc8bd90d1E
	.asciz	"\b\000\000\000\000\000\000\000\b\000\000\000\000\000\000"
	.quad	__ZN42_$LT$$RF$T$u20$as$u20$core..fmt..Debug$GT$3fmt17hf3203c6cc08192f0E

	.section	__TEXT,__const
l___unnamed_30:
	.ascii	"display"

l___unnamed_31:
	.ascii	"visual_id"

l___unnamed_32:
	.ascii	"XcbHandle"

	.section	__DATA,__const
	.p2align	3
l___unnamed_3:
	.quad	__ZN4core3ptr28drop_in_place$LT$$RF$u32$GT$17h93932378fb2ec324E
	.asciz	"\b\000\000\000\000\000\000\000\b\000\000\000\000\000\000"
	.quad	__ZN42_$LT$$RF$T$u20$as$u20$core..fmt..Debug$GT$3fmt17had01ed52f37000e0E

	.section	__TEXT,__const
l___unnamed_33:
	.ascii	"connection"

l___unnamed_34:
	.ascii	"WaylandHandle"

l___unnamed_35:
	.ascii	"surface"

l___unnamed_36:
	.ascii	"WebHandle"

l___unnamed_37:
	.ascii	"id"

l___unnamed_38:
	.ascii	"Win32Handle"

	.section	__TEXT,__literal4,4byte_literals
L___unnamed_39:
	.ascii	"hwnd"

	.section	__TEXT,__const
l___unnamed_40:
	.ascii	"hinstance"

l___unnamed_41:
	.ascii	"WinRtHandle"

l___unnamed_42:
	.ascii	"core_window"

l___unnamed_53:
	.ascii	"Haiku"

	.section	__DATA,__const
	.p2align	3
l___unnamed_4:
	.quad	__ZN4core3ptr62drop_in_place$LT$$RF$raw_window_handle..haiku..HaikuHandle$GT$17h9a756c741e445d48E
	.asciz	"\b\000\000\000\000\000\000\000\b\000\000\000\000\000\000"
	.quad	__ZN42_$LT$$RF$T$u20$as$u20$core..fmt..Debug$GT$3fmt17ha4539d4333d01332E

	.section	__TEXT,__const
l___unnamed_52:
	.ascii	"AndroidNdk"

	.section	__DATA,__const
	.p2align	3
l___unnamed_5:
	.quad	__ZN4core3ptr69drop_in_place$LT$$RF$raw_window_handle..android..AndroidNdkHandle$GT$17he2a35353a84b5715E
	.asciz	"\b\000\000\000\000\000\000\000\b\000\000\000\000\000\000"
	.quad	__ZN42_$LT$$RF$T$u20$as$u20$core..fmt..Debug$GT$3fmt17h48f361407a5b73ddE

	.section	__TEXT,__const
l___unnamed_51:
	.ascii	"Web"

	.section	__DATA,__const
	.p2align	3
l___unnamed_6:
	.quad	__ZN4core3ptr58drop_in_place$LT$$RF$raw_window_handle..web..WebHandle$GT$17hf4981c144ab735e8E
	.asciz	"\b\000\000\000\000\000\000\000\b\000\000\000\000\000\000"
	.quad	__ZN42_$LT$$RF$T$u20$as$u20$core..fmt..Debug$GT$3fmt17h2a047c9eedaf55caE

	.section	__TEXT,__const
l___unnamed_50:
	.ascii	"WinRt"

	.section	__DATA,__const
	.p2align	3
l___unnamed_7:
	.quad	__ZN4core3ptr64drop_in_place$LT$$RF$raw_window_handle..windows..WinRtHandle$GT$17hc25ddd6479d65c3fE
	.asciz	"\b\000\000\000\000\000\000\000\b\000\000\000\000\000\000"
	.quad	__ZN42_$LT$$RF$T$u20$as$u20$core..fmt..Debug$GT$3fmt17ha4d4787a766e1a57E

	.section	__TEXT,__const
l___unnamed_49:
	.ascii	"Win32"

	.section	__DATA,__const
	.p2align	3
l___unnamed_8:
	.quad	__ZN4core3ptr64drop_in_place$LT$$RF$raw_window_handle..windows..Win32Handle$GT$17h0bcfea36132401a5E
	.asciz	"\b\000\000\000\000\000\000\000\b\000\000\000\000\000\000"
	.quad	__ZN42_$LT$$RF$T$u20$as$u20$core..fmt..Debug$GT$3fmt17h434f113e2f022097E

	.section	__TEXT,__const
l___unnamed_48:
	.ascii	"Wayland"

	.section	__DATA,__const
	.p2align	3
l___unnamed_9:
	.quad	__ZN4core3ptr63drop_in_place$LT$$RF$raw_window_handle..unix..WaylandHandle$GT$17ha2cb9a0442b7169aE
	.asciz	"\b\000\000\000\000\000\000\000\b\000\000\000\000\000\000"
	.quad	__ZN42_$LT$$RF$T$u20$as$u20$core..fmt..Debug$GT$3fmt17h81c111c7c2cd4842E

	.section	__TEXT,__const
l___unnamed_47:
	.ascii	"Xcb"

	.section	__DATA,__const
	.p2align	3
l___unnamed_10:
	.quad	__ZN4core3ptr59drop_in_place$LT$$RF$raw_window_handle..unix..XcbHandle$GT$17h6bca660538ad66ecE
	.asciz	"\b\000\000\000\000\000\000\000\b\000\000\000\000\000\000"
	.quad	__ZN42_$LT$$RF$T$u20$as$u20$core..fmt..Debug$GT$3fmt17h48f0980d8a79c337E

	.section	__TEXT,__literal4,4byte_literals
L___unnamed_46:
	.ascii	"Xlib"

	.section	__DATA,__const
	.p2align	3
l___unnamed_11:
	.quad	__ZN4core3ptr60drop_in_place$LT$$RF$raw_window_handle..unix..XlibHandle$GT$17hdfe3b313be4510a9E
	.asciz	"\b\000\000\000\000\000\000\000\b\000\000\000\000\000\000"
	.quad	__ZN42_$LT$$RF$T$u20$as$u20$core..fmt..Debug$GT$3fmt17hc1c25a47cc4ee9a9E

	.section	__TEXT,__const
l___unnamed_45:
	.ascii	"Orbital"

	.section	__DATA,__const
	.p2align	3
l___unnamed_12:
	.quad	__ZN4core3ptr64drop_in_place$LT$$RF$raw_window_handle..redox..OrbitalHandle$GT$17h5149b2b92d38455cE
	.asciz	"\b\000\000\000\000\000\000\000\b\000\000\000\000\000\000"
	.quad	__ZN42_$LT$$RF$T$u20$as$u20$core..fmt..Debug$GT$3fmt17hcb8ba9d6553d3eb8E

	.section	__TEXT,__const
l___unnamed_44:
	.ascii	"AppKit"

	.section	__DATA,__const
	.p2align	3
l___unnamed_13:
	.quad	__ZN4core3ptr64drop_in_place$LT$$RF$raw_window_handle..appkit..AppKitHandle$GT$17h19cbfdd20e396f9fE
	.asciz	"\b\000\000\000\000\000\000\000\b\000\000\000\000\000\000"
	.quad	__ZN42_$LT$$RF$T$u20$as$u20$core..fmt..Debug$GT$3fmt17h45ff3700fed61857E

	.section	__TEXT,__const
l___unnamed_43:
	.ascii	"UiKit"

	.section	__DATA,__const
	.p2align	3
l___unnamed_14:
	.quad	__ZN4core3ptr62drop_in_place$LT$$RF$raw_window_handle..uikit..UiKitHandle$GT$17h1eb08410044cc737E
	.asciz	"\b\000\000\000\000\000\000\000\b\000\000\000\000\000\000"
	.quad	__ZN42_$LT$$RF$T$u20$as$u20$core..fmt..Debug$GT$3fmt17h2e2dd3ca4568256fE

	.section	__DATA,__const
Lsec_end0:
	.section	__TEXT,__text,regular,pure_instructions
Lsec_end1: