	.section	__TEXT,__text,regular,pure_instructions
	.macosx_version_min 10, 7
	.globl	__ZN42_$LT$$RF$T$u20$as$u20$core..fmt..Debug$GT$3fmt17h016fd4e0d33d35deE
	.p2align	4, 0x90
__ZN42_$LT$$RF$T$u20$as$u20$core..fmt..Debug$GT$3fmt17h016fd4e0d33d35deE:
Lfunc_begin0:
	.file	1 "/rustc/2c8cc343237b8f7d5a3c3703e3a87f2eb2c54a74/library/core/src/fmt" "mod.rs"
	.loc	1 2377 0
	.cfi_startproc
	pushq	%rbp
	.cfi_def_cfa_offset 16
	.cfi_offset %rbp, -16
	movq	%rsp, %rbp
	.cfi_def_cfa_register %rbp
	subq	$16, %rsp
	movq	%rdi, -16(%rbp)
	movq	%rsi, -8(%rbp)
Ltmp0:
	.loc	1 2377 71 prologue_end
	movq	(%rdi), %rdi
	.loc	1 2377 62 is_stmt 0
	callq	__ZN85_$LT$raw_window_handle..windows..WindowsDisplayHandle$u20$as$u20$core..fmt..Debug$GT$3fmt17h0ada8fd13f6bda1aE
	.loc	1 2377 84
	andb	$1, %al
	movzbl	%al, %eax
	addq	$16, %rsp
	popq	%rbp
	retq
Ltmp1:
Lfunc_end0:
	.cfi_endproc

	.globl	__ZN42_$LT$$RF$T$u20$as$u20$core..fmt..Debug$GT$3fmt17h05f2d5b41c5e0c18E
	.p2align	4, 0x90
__ZN42_$LT$$RF$T$u20$as$u20$core..fmt..Debug$GT$3fmt17h05f2d5b41c5e0c18E:
Lfunc_begin1:
	.loc	1 2377 0 is_stmt 1
	.cfi_startproc
	pushq	%rbp
	.cfi_def_cfa_offset 16
	.cfi_offset %rbp, -16
	movq	%rsp, %rbp
	.cfi_def_cfa_register %rbp
	subq	$16, %rsp
	movq	%rdi, -16(%rbp)
	movq	%rsi, -8(%rbp)
Ltmp2:
	.loc	1 2377 71 prologue_end
	movq	(%rdi), %rdi
	.loc	1 2377 62 is_stmt 0
	callq	__ZN79_$LT$raw_window_handle..unix..XlibDisplayHandle$u20$as$u20$core..fmt..Debug$GT$3fmt17h19dcdf00a778ec96E
	.loc	1 2377 84
	andb	$1, %al
	movzbl	%al, %eax
	addq	$16, %rsp
	popq	%rbp
	retq
Ltmp3:
Lfunc_end1:
	.cfi_endproc

	.globl	__ZN42_$LT$$RF$T$u20$as$u20$core..fmt..Debug$GT$3fmt17h0cae34a082e2f3d2E
	.p2align	4, 0x90
__ZN42_$LT$$RF$T$u20$as$u20$core..fmt..Debug$GT$3fmt17h0cae34a082e2f3d2E:
Lfunc_begin2:
	.loc	1 2377 0 is_stmt 1
	.cfi_startproc
	pushq	%rbp
	.cfi_def_cfa_offset 16
	.cfi_offset %rbp, -16
	movq	%rsp, %rbp
	.cfi_def_cfa_register %rbp
	subq	$16, %rsp
	movq	%rdi, -16(%rbp)
	movq	%rsi, -8(%rbp)
Ltmp4:
	.loc	1 2377 71 prologue_end
	movq	(%rdi), %rdi
	.loc	1 2377 62 is_stmt 0
	callq	__ZN82_$LT$raw_window_handle..redox..OrbitalWindowHandle$u20$as$u20$core..fmt..Debug$GT$3fmt17h033bc379c0dd9de5E
	.loc	1 2377 84
	andb	$1, %al
	movzbl	%al, %eax
	addq	$16, %rsp
	popq	%rbp
	retq
Ltmp5:
Lfunc_end2:
	.cfi_endproc

	.globl	__ZN42_$LT$$RF$T$u20$as$u20$core..fmt..Debug$GT$3fmt17h28158b1a216a28a4E
	.p2align	4, 0x90
__ZN42_$LT$$RF$T$u20$as$u20$core..fmt..Debug$GT$3fmt17h28158b1a216a28a4E:
Lfunc_begin3:
	.loc	1 2377 0 is_stmt 1
	.cfi_startproc
	pushq	%rbp
	.cfi_def_cfa_offset 16
	.cfi_offset %rbp, -16
	movq	%rsp, %rbp
	.cfi_def_cfa_register %rbp
	subq	$16, %rsp
	movq	%rdi, -16(%rbp)
	movq	%rsi, -8(%rbp)
Ltmp6:
	.loc	1 2377 71 prologue_end
	movq	(%rdi), %rdi
	.loc	1 2377 62 is_stmt 0
	callq	__ZN50_$LT$$BP$mut$u20$T$u20$as$u20$core..fmt..Debug$GT$3fmt17h23e366c767aa6886E
	.loc	1 2377 84
	andb	$1, %al
	movzbl	%al, %eax
	addq	$16, %rsp
	popq	%rbp
	retq
Ltmp7:
Lfunc_end3:
	.cfi_endproc

	.globl	__ZN42_$LT$$RF$T$u20$as$u20$core..fmt..Debug$GT$3fmt17h2c22d1919885b011E
	.p2align	4, 0x90
__ZN42_$LT$$RF$T$u20$as$u20$core..fmt..Debug$GT$3fmt17h2c22d1919885b011E:
Lfunc_begin4:
	.loc	1 2377 0 is_stmt 1
	.cfi_startproc
	pushq	%rbp
	.cfi_def_cfa_offset 16
	.cfi_offset %rbp, -16
	movq	%rsp, %rbp
	.cfi_def_cfa_register %rbp
	subq	$16, %rsp
	movq	%rdi, -16(%rbp)
	movq	%rsi, -8(%rbp)
Ltmp8:
	.loc	1 2377 71 prologue_end
	movq	(%rdi), %rdi
	.loc	1 2377 62 is_stmt 0
	callq	__ZN78_$LT$raw_window_handle..unix..XlibWindowHandle$u20$as$u20$core..fmt..Debug$GT$3fmt17h170a5b8cdc606219E
	.loc	1 2377 84
	andb	$1, %al
	movzbl	%al, %eax
	addq	$16, %rsp
	popq	%rbp
	retq
Ltmp9:
Lfunc_end4:
	.cfi_endproc

	.globl	__ZN42_$LT$$RF$T$u20$as$u20$core..fmt..Debug$GT$3fmt17h346a28c0c9f96007E
	.p2align	4, 0x90
__ZN42_$LT$$RF$T$u20$as$u20$core..fmt..Debug$GT$3fmt17h346a28c0c9f96007E:
Lfunc_begin5:
	.loc	1 2377 0 is_stmt 1
	.cfi_startproc
	pushq	%rbp
	.cfi_def_cfa_offset 16
	.cfi_offset %rbp, -16
	movq	%rsp, %rbp
	.cfi_def_cfa_register %rbp
	subq	$16, %rsp
	movq	%rdi, -16(%rbp)
	movq	%rsi, -8(%rbp)
Ltmp10:
	.loc	1 2377 71 prologue_end
	movq	(%rdi), %rdi
	.loc	1 2377 62 is_stmt 0
	callq	__ZN77_$LT$raw_window_handle..web..WebDisplayHandle$u20$as$u20$core..fmt..Debug$GT$3fmt17h490efe373a61a668E
	.loc	1 2377 84
	andb	$1, %al
	movzbl	%al, %eax
	addq	$16, %rsp
	popq	%rbp
	retq
Ltmp11:
Lfunc_end5:
	.cfi_endproc

	.globl	__ZN42_$LT$$RF$T$u20$as$u20$core..fmt..Debug$GT$3fmt17h491c5124e7af2df5E
	.p2align	4, 0x90
__ZN42_$LT$$RF$T$u20$as$u20$core..fmt..Debug$GT$3fmt17h491c5124e7af2df5E:
Lfunc_begin6:
	.loc	1 2377 0 is_stmt 1
	.cfi_startproc
	pushq	%rbp
	.cfi_def_cfa_offset 16
	.cfi_offset %rbp, -16
	movq	%rsp, %rbp
	.cfi_def_cfa_register %rbp
	subq	$16, %rsp
	movq	%rdi, -16(%rbp)
	movq	%rsi, -8(%rbp)
Ltmp12:
	.loc	1 2377 71 prologue_end
	movq	(%rdi), %rdi
	.loc	1 2377 62 is_stmt 0
	callq	__ZN77_$LT$raw_window_handle..unix..XcbWindowHandle$u20$as$u20$core..fmt..Debug$GT$3fmt17hfc3f71a637d1b1f3E
	.loc	1 2377 84
	andb	$1, %al
	movzbl	%al, %eax
	addq	$16, %rsp
	popq	%rbp
	retq
Ltmp13:
Lfunc_end6:
	.cfi_endproc

	.globl	__ZN42_$LT$$RF$T$u20$as$u20$core..fmt..Debug$GT$3fmt17h5035cede05bf083fE
	.p2align	4, 0x90
__ZN42_$LT$$RF$T$u20$as$u20$core..fmt..Debug$GT$3fmt17h5035cede05bf083fE:
Lfunc_begin7:
	.loc	1 2377 0 is_stmt 1
	.cfi_startproc
	pushq	%rbp
	.cfi_def_cfa_offset 16
	.cfi_offset %rbp, -16
	movq	%rsp, %rbp
	.cfi_def_cfa_register %rbp
	subq	$16, %rsp
	movq	%rdi, -16(%rbp)
	movq	%rsi, -8(%rbp)
Ltmp14:
	.loc	1 2377 71 prologue_end
	movq	(%rdi), %rdi
	.loc	1 2377 62 is_stmt 0
	callq	__ZN82_$LT$raw_window_handle..windows..WinRtWindowHandle$u20$as$u20$core..fmt..Debug$GT$3fmt17h560ba39b118c6780E
	.loc	1 2377 84
	andb	$1, %al
	movzbl	%al, %eax
	addq	$16, %rsp
	popq	%rbp
	retq
Ltmp15:
Lfunc_end7:
	.cfi_endproc

	.globl	__ZN42_$LT$$RF$T$u20$as$u20$core..fmt..Debug$GT$3fmt17h530bd1afb4b521afE
	.p2align	4, 0x90
__ZN42_$LT$$RF$T$u20$as$u20$core..fmt..Debug$GT$3fmt17h530bd1afb4b521afE:
Lfunc_begin8:
	.loc	1 2377 0 is_stmt 1
	.cfi_startproc
	pushq	%rbp
	.cfi_def_cfa_offset 16
	.cfi_offset %rbp, -16
	movq	%rsp, %rbp
	.cfi_def_cfa_register %rbp
	subq	$16, %rsp
	movq	%rdi, -16(%rbp)
	movq	%rsi, -8(%rbp)
Ltmp16:
	.loc	1 2377 71 prologue_end
	movq	(%rdi), %rdi
	.loc	1 2377 62 is_stmt 0
	callq	__ZN81_$LT$raw_window_handle..uikit..UiKitDisplayHandle$u20$as$u20$core..fmt..Debug$GT$3fmt17h2dfe7e1aca4047e3E
	.loc	1 2377 84
	andb	$1, %al
	movzbl	%al, %eax
	addq	$16, %rsp
	popq	%rbp
	retq
Ltmp17:
Lfunc_end8:
	.cfi_endproc

	.globl	__ZN42_$LT$$RF$T$u20$as$u20$core..fmt..Debug$GT$3fmt17h675f95d873f20ad5E
	.p2align	4, 0x90
__ZN42_$LT$$RF$T$u20$as$u20$core..fmt..Debug$GT$3fmt17h675f95d873f20ad5E:
Lfunc_begin9:
	.loc	1 2377 0 is_stmt 1
	.cfi_startproc
	pushq	%rbp
	.cfi_def_cfa_offset 16
	.cfi_offset %rbp, -16
	movq	%rsp, %rbp
	.cfi_def_cfa_register %rbp
	subq	$16, %rsp
	movq	%rdi, -16(%rbp)
	movq	%rsi, -8(%rbp)
Ltmp18:
	.loc	1 2377 71 prologue_end
	movq	(%rdi), %rdi
	.loc	1 2377 62 is_stmt 0
	callq	__ZN82_$LT$raw_window_handle..windows..Win32WindowHandle$u20$as$u20$core..fmt..Debug$GT$3fmt17h6af828b22199fa23E
	.loc	1 2377 84
	andb	$1, %al
	movzbl	%al, %eax
	addq	$16, %rsp
	popq	%rbp
	retq
Ltmp19:
Lfunc_end9:
	.cfi_endproc

	.globl	__ZN42_$LT$$RF$T$u20$as$u20$core..fmt..Debug$GT$3fmt17h6ba724f0434569c0E
	.p2align	4, 0x90
__ZN42_$LT$$RF$T$u20$as$u20$core..fmt..Debug$GT$3fmt17h6ba724f0434569c0E:
Lfunc_begin10:
	.loc	1 2377 0 is_stmt 1
	.cfi_startproc
	pushq	%rbp
	.cfi_def_cfa_offset 16
	.cfi_offset %rbp, -16
	movq	%rsp, %rbp
	.cfi_def_cfa_register %rbp
	subq	$16, %rsp
	movq	%rdi, -16(%rbp)
	movq	%rsi, -8(%rbp)
Ltmp20:
	.loc	1 2377 71 prologue_end
	movq	(%rdi), %rdi
	.loc	1 2377 62 is_stmt 0
	callq	__ZN4core3fmt3num50_$LT$impl$u20$core..fmt..Debug$u20$for$u20$u64$GT$3fmt17hb62e45f20f833f0aE
	.loc	1 2377 84
	andb	$1, %al
	movzbl	%al, %eax
	addq	$16, %rsp
	popq	%rbp
	retq
Ltmp21:
Lfunc_end10:
	.cfi_endproc

	.globl	__ZN42_$LT$$RF$T$u20$as$u20$core..fmt..Debug$GT$3fmt17h71b650e105a41254E
	.p2align	4, 0x90
__ZN42_$LT$$RF$T$u20$as$u20$core..fmt..Debug$GT$3fmt17h71b650e105a41254E:
Lfunc_begin11:
	.loc	1 2377 0 is_stmt 1
	.cfi_startproc
	pushq	%rbp
	.cfi_def_cfa_offset 16
	.cfi_offset %rbp, -16
	movq	%rsp, %rbp
	.cfi_def_cfa_register %rbp
	subq	$16, %rsp
	movq	%rdi, -16(%rbp)
	movq	%rsi, -8(%rbp)
Ltmp22:
	.loc	1 2377 71 prologue_end
	movq	(%rdi), %rdi
	.loc	1 2377 62 is_stmt 0
	callq	__ZN85_$LT$raw_window_handle..android..AndroidDisplayHandle$u20$as$u20$core..fmt..Debug$GT$3fmt17h8ea4f38da5b59915E
	.loc	1 2377 84
	andb	$1, %al
	movzbl	%al, %eax
	addq	$16, %rsp
	popq	%rbp
	retq
Ltmp23:
Lfunc_end11:
	.cfi_endproc

	.globl	__ZN42_$LT$$RF$T$u20$as$u20$core..fmt..Debug$GT$3fmt17h769adea5f1bf1d6eE
	.p2align	4, 0x90
__ZN42_$LT$$RF$T$u20$as$u20$core..fmt..Debug$GT$3fmt17h769adea5f1bf1d6eE:
Lfunc_begin12:
	.loc	1 2377 0 is_stmt 1
	.cfi_startproc
	pushq	%rbp
	.cfi_def_cfa_offset 16
	.cfi_offset %rbp, -16
	movq	%rsp, %rbp
	.cfi_def_cfa_register %rbp
	subq	$16, %rsp
	movq	%rdi, -16(%rbp)
	movq	%rsi, -8(%rbp)
Ltmp24:
	.loc	1 2377 71 prologue_end
	movq	(%rdi), %rdi
	.loc	1 2377 62 is_stmt 0
	callq	__ZN82_$LT$raw_window_handle..unix..WaylandDisplayHandle$u20$as$u20$core..fmt..Debug$GT$3fmt17hfba101e95c15245cE
	.loc	1 2377 84
	andb	$1, %al
	movzbl	%al, %eax
	addq	$16, %rsp
	popq	%rbp
	retq
Ltmp25:
Lfunc_end12:
	.cfi_endproc

	.globl	__ZN42_$LT$$RF$T$u20$as$u20$core..fmt..Debug$GT$3fmt17h77aecb2067b34072E
	.p2align	4, 0x90
__ZN42_$LT$$RF$T$u20$as$u20$core..fmt..Debug$GT$3fmt17h77aecb2067b34072E:
Lfunc_begin13:
	.loc	1 2377 0 is_stmt 1
	.cfi_startproc
	pushq	%rbp
	.cfi_def_cfa_offset 16
	.cfi_offset %rbp, -16
	movq	%rsp, %rbp
	.cfi_def_cfa_register %rbp
	subq	$16, %rsp
	movq	%rdi, -16(%rbp)
	movq	%rsi, -8(%rbp)
Ltmp26:
	.loc	1 2377 71 prologue_end
	movq	(%rdi), %rdi
	.loc	1 2377 62 is_stmt 0
	callq	__ZN80_$LT$raw_window_handle..uikit..UiKitWindowHandle$u20$as$u20$core..fmt..Debug$GT$3fmt17hc86d44274f2b1fa3E
	.loc	1 2377 84
	andb	$1, %al
	movzbl	%al, %eax
	addq	$16, %rsp
	popq	%rbp
	retq
Ltmp27:
Lfunc_end13:
	.cfi_endproc

	.globl	__ZN42_$LT$$RF$T$u20$as$u20$core..fmt..Debug$GT$3fmt17h7c42e69e5586e4eeE
	.p2align	4, 0x90
__ZN42_$LT$$RF$T$u20$as$u20$core..fmt..Debug$GT$3fmt17h7c42e69e5586e4eeE:
Lfunc_begin14:
	.loc	1 2377 0 is_stmt 1
	.cfi_startproc
	pushq	%rbp
	.cfi_def_cfa_offset 16
	.cfi_offset %rbp, -16
	movq	%rsp, %rbp
	.cfi_def_cfa_register %rbp
	subq	$16, %rsp
	movq	%rdi, -16(%rbp)
	movq	%rsi, -8(%rbp)
Ltmp28:
	.loc	1 2377 71 prologue_end
	movq	(%rdi), %rdi
	.loc	1 2377 62 is_stmt 0
	callq	__ZN4core3fmt3num50_$LT$impl$u20$core..fmt..Debug$u20$for$u20$i32$GT$3fmt17h06846d2ad14d4983E
	.loc	1 2377 84
	andb	$1, %al
	movzbl	%al, %eax
	addq	$16, %rsp
	popq	%rbp
	retq
Ltmp29:
Lfunc_end14:
	.cfi_endproc

	.globl	__ZN42_$LT$$RF$T$u20$as$u20$core..fmt..Debug$GT$3fmt17h84316fb74c3939e1E
	.p2align	4, 0x90
__ZN42_$LT$$RF$T$u20$as$u20$core..fmt..Debug$GT$3fmt17h84316fb74c3939e1E:
Lfunc_begin15:
	.loc	1 2377 0 is_stmt 1
	.cfi_startproc
	pushq	%rbp
	.cfi_def_cfa_offset 16
	.cfi_offset %rbp, -16
	movq	%rsp, %rbp
	.cfi_def_cfa_register %rbp
	subq	$16, %rsp
	movq	%rdi, -16(%rbp)
	movq	%rsi, -8(%rbp)
Ltmp30:
	.loc	1 2377 71 prologue_end
	movq	(%rdi), %rdi
	.loc	1 2377 62 is_stmt 0
	callq	__ZN4core3fmt3num50_$LT$impl$u20$core..fmt..Debug$u20$for$u20$u32$GT$3fmt17h955e98225b3060c2E
	.loc	1 2377 84
	andb	$1, %al
	movzbl	%al, %eax
	addq	$16, %rsp
	popq	%rbp
	retq
Ltmp31:
Lfunc_end15:
	.cfi_endproc

	.globl	__ZN42_$LT$$RF$T$u20$as$u20$core..fmt..Debug$GT$3fmt17h86108ea3e0f8e7cbE
	.p2align	4, 0x90
__ZN42_$LT$$RF$T$u20$as$u20$core..fmt..Debug$GT$3fmt17h86108ea3e0f8e7cbE:
Lfunc_begin16:
	.loc	1 2377 0 is_stmt 1
	.cfi_startproc
	pushq	%rbp
	.cfi_def_cfa_offset 16
	.cfi_offset %rbp, -16
	movq	%rsp, %rbp
	.cfi_def_cfa_register %rbp
	subq	$16, %rsp
	movq	%rdi, -16(%rbp)
	movq	%rsi, -8(%rbp)
Ltmp32:
	.loc	1 2377 71 prologue_end
	movq	(%rdi), %rdi
	.loc	1 2377 62 is_stmt 0
	callq	__ZN76_$LT$raw_window_handle..web..WebWindowHandle$u20$as$u20$core..fmt..Debug$GT$3fmt17hc3c167db46942b12E
	.loc	1 2377 84
	andb	$1, %al
	movzbl	%al, %eax
	addq	$16, %rsp
	popq	%rbp
	retq
Ltmp33:
Lfunc_end16:
	.cfi_endproc

	.globl	__ZN42_$LT$$RF$T$u20$as$u20$core..fmt..Debug$GT$3fmt17h9dbc8bffee7b0274E
	.p2align	4, 0x90
__ZN42_$LT$$RF$T$u20$as$u20$core..fmt..Debug$GT$3fmt17h9dbc8bffee7b0274E:
Lfunc_begin17:
	.loc	1 2377 0 is_stmt 1
	.cfi_startproc
	pushq	%rbp
	.cfi_def_cfa_offset 16
	.cfi_offset %rbp, -16
	movq	%rsp, %rbp
	.cfi_def_cfa_register %rbp
	subq	$16, %rsp
	movq	%rdi, -16(%rbp)
	movq	%rsi, -8(%rbp)
Ltmp34:
	.loc	1 2377 71 prologue_end
	movq	(%rdi), %rdi
	.loc	1 2377 62 is_stmt 0
	callq	__ZN81_$LT$raw_window_handle..unix..WaylandWindowHandle$u20$as$u20$core..fmt..Debug$GT$3fmt17hb01cf4f0e89bda44E
	.loc	1 2377 84
	andb	$1, %al
	movzbl	%al, %eax
	addq	$16, %rsp
	popq	%rbp
	retq
Ltmp35:
Lfunc_end17:
	.cfi_endproc

	.globl	__ZN42_$LT$$RF$T$u20$as$u20$core..fmt..Debug$GT$3fmt17ha8713a6e620d5bb7E
	.p2align	4, 0x90
__ZN42_$LT$$RF$T$u20$as$u20$core..fmt..Debug$GT$3fmt17ha8713a6e620d5bb7E:
Lfunc_begin18:
	.loc	1 2377 0 is_stmt 1
	.cfi_startproc
	pushq	%rbp
	.cfi_def_cfa_offset 16
	.cfi_offset %rbp, -16
	movq	%rsp, %rbp
	.cfi_def_cfa_register %rbp
	subq	$16, %rsp
	movq	%rdi, -16(%rbp)
	movq	%rsi, -8(%rbp)
Ltmp36:
	.loc	1 2377 71 prologue_end
	movq	(%rdi), %rdi
	.loc	1 2377 62 is_stmt 0
	callq	__ZN77_$LT$raw_window_handle..unix..GbmWindowHandle$u20$as$u20$core..fmt..Debug$GT$3fmt17hc61e1d52db1d8e89E
	.loc	1 2377 84
	andb	$1, %al
	movzbl	%al, %eax
	addq	$16, %rsp
	popq	%rbp
	retq
Ltmp37:
Lfunc_end18:
	.cfi_endproc

	.globl	__ZN42_$LT$$RF$T$u20$as$u20$core..fmt..Debug$GT$3fmt17hb2199c759dc3692eE
	.p2align	4, 0x90
__ZN42_$LT$$RF$T$u20$as$u20$core..fmt..Debug$GT$3fmt17hb2199c759dc3692eE:
Lfunc_begin19:
	.loc	1 2377 0 is_stmt 1
	.cfi_startproc
	pushq	%rbp
	.cfi_def_cfa_offset 16
	.cfi_offset %rbp, -16
	movq	%rsp, %rbp
	.cfi_def_cfa_register %rbp
	subq	$16, %rsp
	movq	%rdi, -16(%rbp)
	movq	%rsi, -8(%rbp)
Ltmp38:
	.loc	1 2377 71 prologue_end
	movq	(%rdi), %rdi
	.loc	1 2377 62 is_stmt 0
	callq	__ZN87_$LT$raw_window_handle..android..AndroidNdkWindowHandle$u20$as$u20$core..fmt..Debug$GT$3fmt17h780a0444690fd27aE
	.loc	1 2377 84
	andb	$1, %al
	movzbl	%al, %eax
	addq	$16, %rsp
	popq	%rbp
	retq
Ltmp39:
Lfunc_end19:
	.cfi_endproc

	.globl	__ZN42_$LT$$RF$T$u20$as$u20$core..fmt..Debug$GT$3fmt17hbd6a910c61eb4227E
	.p2align	4, 0x90
__ZN42_$LT$$RF$T$u20$as$u20$core..fmt..Debug$GT$3fmt17hbd6a910c61eb4227E:
Lfunc_begin20:
	.loc	1 2377 0 is_stmt 1
	.cfi_startproc
	pushq	%rbp
	.cfi_def_cfa_offset 16
	.cfi_offset %rbp, -16
	movq	%rsp, %rbp
	.cfi_def_cfa_register %rbp
	subq	$16, %rsp
	movq	%rdi, -16(%rbp)
	movq	%rsi, -8(%rbp)
Ltmp40:
	.loc	1 2377 71 prologue_end
	movq	(%rdi), %rdi
	.loc	1 2377 62 is_stmt 0
	callq	__ZN82_$LT$raw_window_handle..appkit..AppKitWindowHandle$u20$as$u20$core..fmt..Debug$GT$3fmt17h78aabe9ba552b163E
	.loc	1 2377 84
	andb	$1, %al
	movzbl	%al, %eax
	addq	$16, %rsp
	popq	%rbp
	retq
Ltmp41:
Lfunc_end20:
	.cfi_endproc

	.globl	__ZN42_$LT$$RF$T$u20$as$u20$core..fmt..Debug$GT$3fmt17hc0157aa2730f4a6cE
	.p2align	4, 0x90
__ZN42_$LT$$RF$T$u20$as$u20$core..fmt..Debug$GT$3fmt17hc0157aa2730f4a6cE:
Lfunc_begin21:
	.loc	1 2377 0 is_stmt 1
	.cfi_startproc
	pushq	%rbp
	.cfi_def_cfa_offset 16
	.cfi_offset %rbp, -16
	movq	%rsp, %rbp
	.cfi_def_cfa_register %rbp
	subq	$16, %rsp
	movq	%rdi, -16(%rbp)
	movq	%rsi, -8(%rbp)
Ltmp42:
	.loc	1 2377 71 prologue_end
	movq	(%rdi), %rdi
	.loc	1 2377 62 is_stmt 0
	callq	__ZN78_$LT$raw_window_handle..unix..XcbDisplayHandle$u20$as$u20$core..fmt..Debug$GT$3fmt17h11b535316ad3977bE
	.loc	1 2377 84
	andb	$1, %al
	movzbl	%al, %eax
	addq	$16, %rsp
	popq	%rbp
	retq
Ltmp43:
Lfunc_end21:
	.cfi_endproc

	.globl	__ZN42_$LT$$RF$T$u20$as$u20$core..fmt..Debug$GT$3fmt17hcdd4086a8ebcbdbbE
	.p2align	4, 0x90
__ZN42_$LT$$RF$T$u20$as$u20$core..fmt..Debug$GT$3fmt17hcdd4086a8ebcbdbbE:
Lfunc_begin22:
	.loc	1 2377 0 is_stmt 1
	.cfi_startproc
	pushq	%rbp
	.cfi_def_cfa_offset 16
	.cfi_offset %rbp, -16
	movq	%rsp, %rbp
	.cfi_def_cfa_register %rbp
	subq	$16, %rsp
	movq	%rdi, -16(%rbp)
	movq	%rsi, -8(%rbp)
Ltmp44:
	.loc	1 2377 71 prologue_end
	movq	(%rdi), %rdi
	.loc	1 2377 62 is_stmt 0
	callq	__ZN81_$LT$raw_window_handle..haiku..HaikuDisplayHandle$u20$as$u20$core..fmt..Debug$GT$3fmt17h4ce5741ab600530aE
	.loc	1 2377 84
	andb	$1, %al
	movzbl	%al, %eax
	addq	$16, %rsp
	popq	%rbp
	retq
Ltmp45:
Lfunc_end22:
	.cfi_endproc

	.globl	__ZN42_$LT$$RF$T$u20$as$u20$core..fmt..Debug$GT$3fmt17hce24b95d5b8bac9dE
	.p2align	4, 0x90
__ZN42_$LT$$RF$T$u20$as$u20$core..fmt..Debug$GT$3fmt17hce24b95d5b8bac9dE:
Lfunc_begin23:
	.loc	1 2377 0 is_stmt 1
	.cfi_startproc
	pushq	%rbp
	.cfi_def_cfa_offset 16
	.cfi_offset %rbp, -16
	movq	%rsp, %rbp
	.cfi_def_cfa_register %rbp
	subq	$16, %rsp
	movq	%rdi, -16(%rbp)
	movq	%rsi, -8(%rbp)
Ltmp46:
	.loc	1 2377 71 prologue_end
	movq	(%rdi), %rdi
	.loc	1 2377 62 is_stmt 0
	callq	__ZN80_$LT$raw_window_handle..haiku..HaikuWindowHandle$u20$as$u20$core..fmt..Debug$GT$3fmt17h270926945a816c10E
	.loc	1 2377 84
	andb	$1, %al
	movzbl	%al, %eax
	addq	$16, %rsp
	popq	%rbp
	retq
Ltmp47:
Lfunc_end23:
	.cfi_endproc

	.globl	__ZN42_$LT$$RF$T$u20$as$u20$core..fmt..Debug$GT$3fmt17hd30097eb90049a4eE
	.p2align	4, 0x90
__ZN42_$LT$$RF$T$u20$as$u20$core..fmt..Debug$GT$3fmt17hd30097eb90049a4eE:
Lfunc_begin24:
	.loc	1 2377 0 is_stmt 1
	.cfi_startproc
	pushq	%rbp
	.cfi_def_cfa_offset 16
	.cfi_offset %rbp, -16
	movq	%rsp, %rbp
	.cfi_def_cfa_register %rbp
	subq	$16, %rsp
	movq	%rdi, -16(%rbp)
	movq	%rsi, -8(%rbp)
Ltmp48:
	.loc	1 2377 71 prologue_end
	movq	(%rdi), %rdi
	.loc	1 2377 62 is_stmt 0
	callq	__ZN83_$LT$raw_window_handle..redox..OrbitalDisplayHandle$u20$as$u20$core..fmt..Debug$GT$3fmt17ha58e9cf7215bcc95E
	.loc	1 2377 84
	andb	$1, %al
	movzbl	%al, %eax
	addq	$16, %rsp
	popq	%rbp
	retq
Ltmp49:
Lfunc_end24:
	.cfi_endproc

	.globl	__ZN42_$LT$$RF$T$u20$as$u20$core..fmt..Debug$GT$3fmt17he06152b7ecac3a16E
	.p2align	4, 0x90
__ZN42_$LT$$RF$T$u20$as$u20$core..fmt..Debug$GT$3fmt17he06152b7ecac3a16E:
Lfunc_begin25:
	.loc	1 2377 0 is_stmt 1
	.cfi_startproc
	pushq	%rbp
	.cfi_def_cfa_offset 16
	.cfi_offset %rbp, -16
	movq	%rsp, %rbp
	.cfi_def_cfa_register %rbp
	subq	$16, %rsp
	movq	%rdi, -16(%rbp)
	movq	%rsi, -8(%rbp)
Ltmp50:
	.loc	1 2377 71 prologue_end
	movq	(%rdi), %rdi
	.loc	1 2377 62 is_stmt 0
	callq	__ZN78_$LT$raw_window_handle..unix..GbmDisplayHandle$u20$as$u20$core..fmt..Debug$GT$3fmt17he462e60b954e2681E
	.loc	1 2377 84
	andb	$1, %al
	movzbl	%al, %eax
	addq	$16, %rsp
	popq	%rbp
	retq
Ltmp51:
Lfunc_end25:
	.cfi_endproc

	.globl	__ZN42_$LT$$RF$T$u20$as$u20$core..fmt..Debug$GT$3fmt17he3e6d8afe38b9656E
	.p2align	4, 0x90
__ZN42_$LT$$RF$T$u20$as$u20$core..fmt..Debug$GT$3fmt17he3e6d8afe38b9656E:
Lfunc_begin26:
	.loc	1 2377 0 is_stmt 1
	.cfi_startproc
	pushq	%rbp
	.cfi_def_cfa_offset 16
	.cfi_offset %rbp, -16
	movq	%rsp, %rbp
	.cfi_def_cfa_register %rbp
	subq	$16, %rsp
	movq	%rdi, -16(%rbp)
	movq	%rsi, -8(%rbp)
Ltmp52:
	.loc	1 2377 71 prologue_end
	movq	(%rdi), %rdi
	.loc	1 2377 62 is_stmt 0
	callq	__ZN78_$LT$raw_window_handle..unix..DrmDisplayHandle$u20$as$u20$core..fmt..Debug$GT$3fmt17hbb1ad6a43a9d954aE
	.loc	1 2377 84
	andb	$1, %al
	movzbl	%al, %eax
	addq	$16, %rsp
	popq	%rbp
	retq
Ltmp53:
Lfunc_end26:
	.cfi_endproc

	.globl	__ZN42_$LT$$RF$T$u20$as$u20$core..fmt..Debug$GT$3fmt17hf223ab7a76730ea2E
	.p2align	4, 0x90
__ZN42_$LT$$RF$T$u20$as$u20$core..fmt..Debug$GT$3fmt17hf223ab7a76730ea2E:
Lfunc_begin27:
	.loc	1 2377 0 is_stmt 1
	.cfi_startproc
	pushq	%rbp
	.cfi_def_cfa_offset 16
	.cfi_offset %rbp, -16
	movq	%rsp, %rbp
	.cfi_def_cfa_register %rbp
	subq	$16, %rsp
	movq	%rdi, -16(%rbp)
	movq	%rsi, -8(%rbp)
Ltmp54:
	.loc	1 2377 71 prologue_end
	movq	(%rdi), %rdi
	.loc	1 2377 62 is_stmt 0
	callq	__ZN83_$LT$raw_window_handle..appkit..AppKitDisplayHandle$u20$as$u20$core..fmt..Debug$GT$3fmt17he9e2fa9ede9abe16E
	.loc	1 2377 84
	andb	$1, %al
	movzbl	%al, %eax
	addq	$16, %rsp
	popq	%rbp
	retq
Ltmp55:
Lfunc_end27:
	.cfi_endproc

	.globl	__ZN42_$LT$$RF$T$u20$as$u20$core..fmt..Debug$GT$3fmt17hf46fbd9a096020efE
	.p2align	4, 0x90
__ZN42_$LT$$RF$T$u20$as$u20$core..fmt..Debug$GT$3fmt17hf46fbd9a096020efE:
Lfunc_begin28:
	.loc	1 2377 0 is_stmt 1
	.cfi_startproc
	pushq	%rbp
	.cfi_def_cfa_offset 16
	.cfi_offset %rbp, -16
	movq	%rsp, %rbp
	.cfi_def_cfa_register %rbp
	subq	$16, %rsp
	movq	%rdi, -16(%rbp)
	movq	%rsi, -8(%rbp)
Ltmp56:
	.loc	1 2377 71 prologue_end
	movq	(%rdi), %rdi
	.loc	1 2377 62 is_stmt 0
	callq	__ZN77_$LT$raw_window_handle..unix..DrmWindowHandle$u20$as$u20$core..fmt..Debug$GT$3fmt17h62845c858fe27d28E
	.loc	1 2377 84
	andb	$1, %al
	movzbl	%al, %eax
	addq	$16, %rsp
	popq	%rbp
	retq
Ltmp57:
Lfunc_end28:
	.cfi_endproc

	.p2align	4, 0x90
__ZN4core3fmt3num50_$LT$impl$u20$core..fmt..Debug$u20$for$u20$i32$GT$3fmt17h06846d2ad14d4983E:
Lfunc_begin29:
	.file	2 "/rustc/2c8cc343237b8f7d5a3c3703e3a87f2eb2c54a74/library/core/src/fmt" "num.rs"
	.loc	2 185 0 is_stmt 1
	.cfi_startproc
	pushq	%rbp
	.cfi_def_cfa_offset 16
	.cfi_offset %rbp, -16
	movq	%rsp, %rbp
	.cfi_def_cfa_register %rbp
	subq	$48, %rsp
	movq	%rsi, -48(%rbp)
	movq	%rdi, %rax
	movq	-48(%rbp), %rdi
	movq	%rax, -40(%rbp)
	movq	%rdi, -32(%rbp)
	movq	%rax, -16(%rbp)
	movq	%rdi, -8(%rbp)
Ltmp58:
	.loc	2 186 20 prologue_end
	callq	__ZN4core3fmt9Formatter15debug_lower_hex17h0921e6b9188d914eE
	testb	$1, %al
	jne	LBB29_2
	.loc	2 0 20 is_stmt 0
	movq	-32(%rbp), %rdi
	.loc	2 188 27 is_stmt 1
	callq	__ZN4core3fmt9Formatter15debug_upper_hex17h8ce487049a6cccf8E
	testb	$1, %al
	jne	LBB29_5
	jmp	LBB29_4
LBB29_2:
	.loc	2 0 27 is_stmt 0
	movq	-32(%rbp), %rsi
	movq	-40(%rbp), %rdi
	.loc	2 187 21 is_stmt 1
	callq	__ZN4core3fmt3num53_$LT$impl$u20$core..fmt..LowerHex$u20$for$u20$i32$GT$3fmt17hd6250c25a4eb7bb1E
	andb	$1, %al
	movb	%al, -17(%rbp)
LBB29_3:
	.loc	2 193 14
	movb	-17(%rbp), %al
	andb	$1, %al
	movzbl	%al, %eax
	addq	$48, %rsp
	popq	%rbp
	retq
LBB29_4:
	.loc	2 0 14 is_stmt 0
	movq	-32(%rbp), %rsi
	movq	-40(%rbp), %rdi
	.loc	2 191 21 is_stmt 1
	callq	__ZN4core3fmt3num3imp52_$LT$impl$u20$core..fmt..Display$u20$for$u20$i32$GT$3fmt17hd51e25ed68474bbaE
	andb	$1, %al
	movb	%al, -17(%rbp)
	.loc	2 188 24
	jmp	LBB29_6
LBB29_5:
	.loc	2 0 24 is_stmt 0
	movq	-32(%rbp), %rsi
	movq	-40(%rbp), %rdi
	.loc	2 189 21 is_stmt 1
	callq	__ZN4core3fmt3num53_$LT$impl$u20$core..fmt..UpperHex$u20$for$u20$i32$GT$3fmt17hfa20a470c47e8721E
	andb	$1, %al
	movb	%al, -17(%rbp)
LBB29_6:
	.loc	2 186 17
	jmp	LBB29_3
Ltmp59:
Lfunc_end29:
	.cfi_endproc

	.p2align	4, 0x90
__ZN4core3fmt3num50_$LT$impl$u20$core..fmt..Debug$u20$for$u20$u32$GT$3fmt17h955e98225b3060c2E:
Lfunc_begin30:
	.loc	2 185 0
	.cfi_startproc
	pushq	%rbp
	.cfi_def_cfa_offset 16
	.cfi_offset %rbp, -16
	movq	%rsp, %rbp
	.cfi_def_cfa_register %rbp
	subq	$48, %rsp
	movq	%rsi, -48(%rbp)
	movq	%rdi, %rax
	movq	-48(%rbp), %rdi
	movq	%rax, -40(%rbp)
	movq	%rdi, -32(%rbp)
	movq	%rax, -16(%rbp)
	movq	%rdi, -8(%rbp)
Ltmp60:
	.loc	2 186 20 prologue_end
	callq	__ZN4core3fmt9Formatter15debug_lower_hex17h0921e6b9188d914eE
	testb	$1, %al
	jne	LBB30_2
	.loc	2 0 20 is_stmt 0
	movq	-32(%rbp), %rdi
	.loc	2 188 27 is_stmt 1
	callq	__ZN4core3fmt9Formatter15debug_upper_hex17h8ce487049a6cccf8E
	testb	$1, %al
	jne	LBB30_5
	jmp	LBB30_4
LBB30_2:
	.loc	2 0 27 is_stmt 0
	movq	-32(%rbp), %rsi
	movq	-40(%rbp), %rdi
	.loc	2 187 21 is_stmt 1
	callq	__ZN4core3fmt3num53_$LT$impl$u20$core..fmt..LowerHex$u20$for$u20$u32$GT$3fmt17h794cf20b87700632E
	andb	$1, %al
	movb	%al, -17(%rbp)
LBB30_3:
	.loc	2 193 14
	movb	-17(%rbp), %al
	andb	$1, %al
	movzbl	%al, %eax
	addq	$48, %rsp
	popq	%rbp
	retq
LBB30_4:
	.loc	2 0 14 is_stmt 0
	movq	-32(%rbp), %rsi
	movq	-40(%rbp), %rdi
	.loc	2 191 21 is_stmt 1
	callq	__ZN4core3fmt3num3imp52_$LT$impl$u20$core..fmt..Display$u20$for$u20$u32$GT$3fmt17h081c917b2ee7d4e9E
	andb	$1, %al
	movb	%al, -17(%rbp)
	.loc	2 188 24
	jmp	LBB30_6
LBB30_5:
	.loc	2 0 24 is_stmt 0
	movq	-32(%rbp), %rsi
	movq	-40(%rbp), %rdi
	.loc	2 189 21 is_stmt 1
	callq	__ZN4core3fmt3num53_$LT$impl$u20$core..fmt..UpperHex$u20$for$u20$u32$GT$3fmt17ha96bbefe8f663d11E
	andb	$1, %al
	movb	%al, -17(%rbp)
LBB30_6:
	.loc	2 186 17
	jmp	LBB30_3
Ltmp61:
Lfunc_end30:
	.cfi_endproc

	.p2align	4, 0x90
__ZN4core3fmt3num50_$LT$impl$u20$core..fmt..Debug$u20$for$u20$u64$GT$3fmt17hb62e45f20f833f0aE:
Lfunc_begin31:
	.loc	2 185 0
	.cfi_startproc
	pushq	%rbp
	.cfi_def_cfa_offset 16
	.cfi_offset %rbp, -16
	movq	%rsp, %rbp
	.cfi_def_cfa_register %rbp
	subq	$48, %rsp
	movq	%rsi, -48(%rbp)
	movq	%rdi, %rax
	movq	-48(%rbp), %rdi
	movq	%rax, -40(%rbp)
	movq	%rdi, -32(%rbp)
	movq	%rax, -16(%rbp)
	movq	%rdi, -8(%rbp)
Ltmp62:
	.loc	2 186 20 prologue_end
	callq	__ZN4core3fmt9Formatter15debug_lower_hex17h0921e6b9188d914eE
	testb	$1, %al
	jne	LBB31_2
	.loc	2 0 20 is_stmt 0
	movq	-32(%rbp), %rdi
	.loc	2 188 27 is_stmt 1
	callq	__ZN4core3fmt9Formatter15debug_upper_hex17h8ce487049a6cccf8E
	testb	$1, %al
	jne	LBB31_5
	jmp	LBB31_4
LBB31_2:
	.loc	2 0 27 is_stmt 0
	movq	-32(%rbp), %rsi
	movq	-40(%rbp), %rdi
	.loc	2 187 21 is_stmt 1
	callq	__ZN4core3fmt3num53_$LT$impl$u20$core..fmt..LowerHex$u20$for$u20$u64$GT$3fmt17h9f1a647630acba52E
	andb	$1, %al
	movb	%al, -17(%rbp)
LBB31_3:
	.loc	2 193 14
	movb	-17(%rbp), %al
	andb	$1, %al
	movzbl	%al, %eax
	addq	$48, %rsp
	popq	%rbp
	retq
LBB31_4:
	.loc	2 0 14 is_stmt 0
	movq	-32(%rbp), %rsi
	movq	-40(%rbp), %rdi
	.loc	2 191 21 is_stmt 1
	callq	__ZN4core3fmt3num3imp52_$LT$impl$u20$core..fmt..Display$u20$for$u20$u64$GT$3fmt17hc0b393b21668e9bfE
	andb	$1, %al
	movb	%al, -17(%rbp)
	.loc	2 188 24
	jmp	LBB31_6
LBB31_5:
	.loc	2 0 24 is_stmt 0
	movq	-32(%rbp), %rsi
	movq	-40(%rbp), %rdi
	.loc	2 189 21 is_stmt 1
	callq	__ZN4core3fmt3num53_$LT$impl$u20$core..fmt..UpperHex$u20$for$u20$u64$GT$3fmt17h9873482f6824a169E
	andb	$1, %al
	movb	%al, -17(%rbp)
LBB31_6:
	.loc	2 186 17
	jmp	LBB31_3
Ltmp63:
Lfunc_end31:
	.cfi_endproc

	.p2align	4, 0x90
__ZN4core3ptr28drop_in_place$LT$$RF$i32$GT$17h4b5dd451962ad2d5E:
Lfunc_begin32:
	.file	3 "/rustc/2c8cc343237b8f7d5a3c3703e3a87f2eb2c54a74/library/core/src/ptr" "mod.rs"
	.loc	3 490 0
	.cfi_startproc
	pushq	%rbp
	.cfi_def_cfa_offset 16
	.cfi_offset %rbp, -16
	movq	%rsp, %rbp
	.cfi_def_cfa_register %rbp
	pushq	%rax
	movq	%rdi, -8(%rbp)
Ltmp64:
	.loc	3 490 1 prologue_end
	addq	$8, %rsp
	popq	%rbp
	retq
Ltmp65:
Lfunc_end32:
	.cfi_endproc

	.p2align	4, 0x90
__ZN4core3ptr28drop_in_place$LT$$RF$u32$GT$17h1cf8538cb3a6d09cE:
Lfunc_begin33:
	.loc	3 490 0
	.cfi_startproc
	pushq	%rbp
	.cfi_def_cfa_offset 16
	.cfi_offset %rbp, -16
	movq	%rsp, %rbp
	.cfi_def_cfa_register %rbp
	pushq	%rax
	movq	%rdi, -8(%rbp)
Ltmp66:
	.loc	3 490 1 prologue_end
	addq	$8, %rsp
	popq	%rbp
	retq
Ltmp67:
Lfunc_end33:
	.cfi_endproc

	.p2align	4, 0x90
__ZN4core3ptr28drop_in_place$LT$$RF$u64$GT$17h955c56af0ebb43fdE:
Lfunc_begin34:
	.loc	3 490 0
	.cfi_startproc
	pushq	%rbp
	.cfi_def_cfa_offset 16
	.cfi_offset %rbp, -16
	movq	%rsp, %rbp
	.cfi_def_cfa_register %rbp
	pushq	%rax
	movq	%rdi, -8(%rbp)
Ltmp68:
	.loc	3 490 1 prologue_end
	addq	$8, %rsp
	popq	%rbp
	retq
Ltmp69:
Lfunc_end34:
	.cfi_endproc

	.p2align	4, 0x90
__ZN4core3ptr54drop_in_place$LT$$RF$$BP$mut$u20$core..ffi..c_void$GT$17hedfe2e33406b4dc9E:
Lfunc_begin35:
	.loc	3 490 0
	.cfi_startproc
	pushq	%rbp
	.cfi_def_cfa_offset 16
	.cfi_offset %rbp, -16
	movq	%rsp, %rbp
	.cfi_def_cfa_register %rbp
	pushq	%rax
	movq	%rdi, -8(%rbp)
Ltmp70:
	.loc	3 490 1 prologue_end
	addq	$8, %rsp
	popq	%rbp
	retq
Ltmp71:
Lfunc_end35:
	.cfi_endproc

	.p2align	4, 0x90
__ZN4core3ptr64drop_in_place$LT$$RF$raw_window_handle..web..WebWindowHandle$GT$17h8091c2ad20cf39b2E:
Lfunc_begin36:
	.loc	3 490 0
	.cfi_startproc
	pushq	%rbp
	.cfi_def_cfa_offset 16
	.cfi_offset %rbp, -16
	movq	%rsp, %rbp
	.cfi_def_cfa_register %rbp
	pushq	%rax
	movq	%rdi, -8(%rbp)
Ltmp72:
	.loc	3 490 1 prologue_end
	addq	$8, %rsp
	popq	%rbp
	retq
Ltmp73:
Lfunc_end36:
	.cfi_endproc

	.p2align	4, 0x90
__ZN4core3ptr65drop_in_place$LT$$RF$raw_window_handle..unix..DrmWindowHandle$GT$17h9b7979e360a28755E:
Lfunc_begin37:
	.loc	3 490 0
	.cfi_startproc
	pushq	%rbp
	.cfi_def_cfa_offset 16
	.cfi_offset %rbp, -16
	movq	%rsp, %rbp
	.cfi_def_cfa_register %rbp
	pushq	%rax
	movq	%rdi, -8(%rbp)
Ltmp74:
	.loc	3 490 1 prologue_end
	addq	$8, %rsp
	popq	%rbp
	retq
Ltmp75:
Lfunc_end37:
	.cfi_endproc

	.p2align	4, 0x90
__ZN4core3ptr65drop_in_place$LT$$RF$raw_window_handle..unix..GbmWindowHandle$GT$17h4203852a5328f93eE:
Lfunc_begin38:
	.loc	3 490 0
	.cfi_startproc
	pushq	%rbp
	.cfi_def_cfa_offset 16
	.cfi_offset %rbp, -16
	movq	%rsp, %rbp
	.cfi_def_cfa_register %rbp
	pushq	%rax
	movq	%rdi, -8(%rbp)
Ltmp76:
	.loc	3 490 1 prologue_end
	addq	$8, %rsp
	popq	%rbp
	retq
Ltmp77:
Lfunc_end38:
	.cfi_endproc

	.p2align	4, 0x90
__ZN4core3ptr65drop_in_place$LT$$RF$raw_window_handle..unix..XcbWindowHandle$GT$17h97a875b587b470a0E:
Lfunc_begin39:
	.loc	3 490 0
	.cfi_startproc
	pushq	%rbp
	.cfi_def_cfa_offset 16
	.cfi_offset %rbp, -16
	movq	%rsp, %rbp
	.cfi_def_cfa_register %rbp
	pushq	%rax
	movq	%rdi, -8(%rbp)
Ltmp78:
	.loc	3 490 1 prologue_end
	addq	$8, %rsp
	popq	%rbp
	retq
Ltmp79:
Lfunc_end39:
	.cfi_endproc

	.p2align	4, 0x90
__ZN4core3ptr65drop_in_place$LT$$RF$raw_window_handle..web..WebDisplayHandle$GT$17ha038610223a09456E:
Lfunc_begin40:
	.loc	3 490 0
	.cfi_startproc
	pushq	%rbp
	.cfi_def_cfa_offset 16
	.cfi_offset %rbp, -16
	movq	%rsp, %rbp
	.cfi_def_cfa_register %rbp
	pushq	%rax
	movq	%rdi, -8(%rbp)
Ltmp80:
	.loc	3 490 1 prologue_end
	addq	$8, %rsp
	popq	%rbp
	retq
Ltmp81:
Lfunc_end40:
	.cfi_endproc

	.p2align	4, 0x90
__ZN4core3ptr66drop_in_place$LT$$RF$raw_window_handle..unix..DrmDisplayHandle$GT$17hf8a84eac915d12f3E:
Lfunc_begin41:
	.loc	3 490 0
	.cfi_startproc
	pushq	%rbp
	.cfi_def_cfa_offset 16
	.cfi_offset %rbp, -16
	movq	%rsp, %rbp
	.cfi_def_cfa_register %rbp
	pushq	%rax
	movq	%rdi, -8(%rbp)
Ltmp82:
	.loc	3 490 1 prologue_end
	addq	$8, %rsp
	popq	%rbp
	retq
Ltmp83:
Lfunc_end41:
	.cfi_endproc

	.p2align	4, 0x90
__ZN4core3ptr66drop_in_place$LT$$RF$raw_window_handle..unix..GbmDisplayHandle$GT$17h671ecb668e8b41f8E:
Lfunc_begin42:
	.loc	3 490 0
	.cfi_startproc
	pushq	%rbp
	.cfi_def_cfa_offset 16
	.cfi_offset %rbp, -16
	movq	%rsp, %rbp
	.cfi_def_cfa_register %rbp
	pushq	%rax
	movq	%rdi, -8(%rbp)
Ltmp84:
	.loc	3 490 1 prologue_end
	addq	$8, %rsp
	popq	%rbp
	retq
Ltmp85:
Lfunc_end42:
	.cfi_endproc

	.p2align	4, 0x90
__ZN4core3ptr66drop_in_place$LT$$RF$raw_window_handle..unix..XcbDisplayHandle$GT$17h370e5515c7025dc3E:
Lfunc_begin43:
	.loc	3 490 0
	.cfi_startproc
	pushq	%rbp
	.cfi_def_cfa_offset 16
	.cfi_offset %rbp, -16
	movq	%rsp, %rbp
	.cfi_def_cfa_register %rbp
	pushq	%rax
	movq	%rdi, -8(%rbp)
Ltmp86:
	.loc	3 490 1 prologue_end
	addq	$8, %rsp
	popq	%rbp
	retq
Ltmp87:
Lfunc_end43:
	.cfi_endproc

	.p2align	4, 0x90
__ZN4core3ptr66drop_in_place$LT$$RF$raw_window_handle..unix..XlibWindowHandle$GT$17h50b166fae6caf038E:
Lfunc_begin44:
	.loc	3 490 0
	.cfi_startproc
	pushq	%rbp
	.cfi_def_cfa_offset 16
	.cfi_offset %rbp, -16
	movq	%rsp, %rbp
	.cfi_def_cfa_register %rbp
	pushq	%rax
	movq	%rdi, -8(%rbp)
Ltmp88:
	.loc	3 490 1 prologue_end
	addq	$8, %rsp
	popq	%rbp
	retq
Ltmp89:
Lfunc_end44:
	.cfi_endproc

	.p2align	4, 0x90
__ZN4core3ptr67drop_in_place$LT$$RF$raw_window_handle..unix..XlibDisplayHandle$GT$17ha65d6906daa82ca8E:
Lfunc_begin45:
	.loc	3 490 0
	.cfi_startproc
	pushq	%rbp
	.cfi_def_cfa_offset 16
	.cfi_offset %rbp, -16
	movq	%rsp, %rbp
	.cfi_def_cfa_register %rbp
	pushq	%rax
	movq	%rdi, -8(%rbp)
Ltmp90:
	.loc	3 490 1 prologue_end
	addq	$8, %rsp
	popq	%rbp
	retq
Ltmp91:
Lfunc_end45:
	.cfi_endproc

	.p2align	4, 0x90
__ZN4core3ptr68drop_in_place$LT$$RF$raw_window_handle..haiku..HaikuWindowHandle$GT$17h4fe46af3dd49278cE:
Lfunc_begin46:
	.loc	3 490 0
	.cfi_startproc
	pushq	%rbp
	.cfi_def_cfa_offset 16
	.cfi_offset %rbp, -16
	movq	%rsp, %rbp
	.cfi_def_cfa_register %rbp
	pushq	%rax
	movq	%rdi, -8(%rbp)
Ltmp92:
	.loc	3 490 1 prologue_end
	addq	$8, %rsp
	popq	%rbp
	retq
Ltmp93:
Lfunc_end46:
	.cfi_endproc

	.p2align	4, 0x90
__ZN4core3ptr68drop_in_place$LT$$RF$raw_window_handle..uikit..UiKitWindowHandle$GT$17hf29c82e742983ce2E:
Lfunc_begin47:
	.loc	3 490 0
	.cfi_startproc
	pushq	%rbp
	.cfi_def_cfa_offset 16
	.cfi_offset %rbp, -16
	movq	%rsp, %rbp
	.cfi_def_cfa_register %rbp
	pushq	%rax
	movq	%rdi, -8(%rbp)
Ltmp94:
	.loc	3 490 1 prologue_end
	addq	$8, %rsp
	popq	%rbp
	retq
Ltmp95:
Lfunc_end47:
	.cfi_endproc

	.p2align	4, 0x90
__ZN4core3ptr69drop_in_place$LT$$RF$raw_window_handle..haiku..HaikuDisplayHandle$GT$17h51224850a618fd4eE:
Lfunc_begin48:
	.loc	3 490 0
	.cfi_startproc
	pushq	%rbp
	.cfi_def_cfa_offset 16
	.cfi_offset %rbp, -16
	movq	%rsp, %rbp
	.cfi_def_cfa_register %rbp
	pushq	%rax
	movq	%rdi, -8(%rbp)
Ltmp96:
	.loc	3 490 1 prologue_end
	addq	$8, %rsp
	popq	%rbp
	retq
Ltmp97:
Lfunc_end48:
	.cfi_endproc

	.p2align	4, 0x90
__ZN4core3ptr69drop_in_place$LT$$RF$raw_window_handle..uikit..UiKitDisplayHandle$GT$17haa7eaf02a7379be2E:
Lfunc_begin49:
	.loc	3 490 0
	.cfi_startproc
	pushq	%rbp
	.cfi_def_cfa_offset 16
	.cfi_offset %rbp, -16
	movq	%rsp, %rbp
	.cfi_def_cfa_register %rbp
	pushq	%rax
	movq	%rdi, -8(%rbp)
Ltmp98:
	.loc	3 490 1 prologue_end
	addq	$8, %rsp
	popq	%rbp
	retq
Ltmp99:
Lfunc_end49:
	.cfi_endproc

	.p2align	4, 0x90
__ZN4core3ptr69drop_in_place$LT$$RF$raw_window_handle..unix..WaylandWindowHandle$GT$17h5f3b8370332d544eE:
Lfunc_begin50:
	.loc	3 490 0
	.cfi_startproc
	pushq	%rbp
	.cfi_def_cfa_offset 16
	.cfi_offset %rbp, -16
	movq	%rsp, %rbp
	.cfi_def_cfa_register %rbp
	pushq	%rax
	movq	%rdi, -8(%rbp)
Ltmp100:
	.loc	3 490 1 prologue_end
	addq	$8, %rsp
	popq	%rbp
	retq
Ltmp101:
Lfunc_end50:
	.cfi_endproc

	.p2align	4, 0x90
__ZN4core3ptr70drop_in_place$LT$$RF$raw_window_handle..appkit..AppKitWindowHandle$GT$17h31b56e7129ecffc9E:
Lfunc_begin51:
	.loc	3 490 0
	.cfi_startproc
	pushq	%rbp
	.cfi_def_cfa_offset 16
	.cfi_offset %rbp, -16
	movq	%rsp, %rbp
	.cfi_def_cfa_register %rbp
	pushq	%rax
	movq	%rdi, -8(%rbp)
Ltmp102:
	.loc	3 490 1 prologue_end
	addq	$8, %rsp
	popq	%rbp
	retq
Ltmp103:
Lfunc_end51:
	.cfi_endproc

	.p2align	4, 0x90
__ZN4core3ptr70drop_in_place$LT$$RF$raw_window_handle..redox..OrbitalWindowHandle$GT$17hb9ad12f4cf058c5dE:
Lfunc_begin52:
	.loc	3 490 0
	.cfi_startproc
	pushq	%rbp
	.cfi_def_cfa_offset 16
	.cfi_offset %rbp, -16
	movq	%rsp, %rbp
	.cfi_def_cfa_register %rbp
	pushq	%rax
	movq	%rdi, -8(%rbp)
Ltmp104:
	.loc	3 490 1 prologue_end
	addq	$8, %rsp
	popq	%rbp
	retq
Ltmp105:
Lfunc_end52:
	.cfi_endproc

	.p2align	4, 0x90
__ZN4core3ptr70drop_in_place$LT$$RF$raw_window_handle..unix..WaylandDisplayHandle$GT$17h649eda3a2fad804cE:
Lfunc_begin53:
	.loc	3 490 0
	.cfi_startproc
	pushq	%rbp
	.cfi_def_cfa_offset 16
	.cfi_offset %rbp, -16
	movq	%rsp, %rbp
	.cfi_def_cfa_register %rbp
	pushq	%rax
	movq	%rdi, -8(%rbp)
Ltmp106:
	.loc	3 490 1 prologue_end
	addq	$8, %rsp
	popq	%rbp
	retq
Ltmp107:
Lfunc_end53:
	.cfi_endproc

	.p2align	4, 0x90
__ZN4core3ptr70drop_in_place$LT$$RF$raw_window_handle..windows..Win32WindowHandle$GT$17h9b6a0f09d9a9c4daE:
Lfunc_begin54:
	.loc	3 490 0
	.cfi_startproc
	pushq	%rbp
	.cfi_def_cfa_offset 16
	.cfi_offset %rbp, -16
	movq	%rsp, %rbp
	.cfi_def_cfa_register %rbp
	pushq	%rax
	movq	%rdi, -8(%rbp)
Ltmp108:
	.loc	3 490 1 prologue_end
	addq	$8, %rsp
	popq	%rbp
	retq
Ltmp109:
Lfunc_end54:
	.cfi_endproc

	.p2align	4, 0x90
__ZN4core3ptr70drop_in_place$LT$$RF$raw_window_handle..windows..WinRtWindowHandle$GT$17h56ccdb92169783bcE:
Lfunc_begin55:
	.loc	3 490 0
	.cfi_startproc
	pushq	%rbp
	.cfi_def_cfa_offset 16
	.cfi_offset %rbp, -16
	movq	%rsp, %rbp
	.cfi_def_cfa_register %rbp
	pushq	%rax
	movq	%rdi, -8(%rbp)
Ltmp110:
	.loc	3 490 1 prologue_end
	addq	$8, %rsp
	popq	%rbp
	retq
Ltmp111:
Lfunc_end55:
	.cfi_endproc

	.p2align	4, 0x90
__ZN4core3ptr71drop_in_place$LT$$RF$raw_window_handle..appkit..AppKitDisplayHandle$GT$17hb5ed74f325163fd7E:
Lfunc_begin56:
	.loc	3 490 0
	.cfi_startproc
	pushq	%rbp
	.cfi_def_cfa_offset 16
	.cfi_offset %rbp, -16
	movq	%rsp, %rbp
	.cfi_def_cfa_register %rbp
	pushq	%rax
	movq	%rdi, -8(%rbp)
Ltmp112:
	.loc	3 490 1 prologue_end
	addq	$8, %rsp
	popq	%rbp
	retq
Ltmp113:
Lfunc_end56:
	.cfi_endproc

	.p2align	4, 0x90
__ZN4core3ptr71drop_in_place$LT$$RF$raw_window_handle..redox..OrbitalDisplayHandle$GT$17h36e36b78cb862372E:
Lfunc_begin57:
	.loc	3 490 0
	.cfi_startproc
	pushq	%rbp
	.cfi_def_cfa_offset 16
	.cfi_offset %rbp, -16
	movq	%rsp, %rbp
	.cfi_def_cfa_register %rbp
	pushq	%rax
	movq	%rdi, -8(%rbp)
Ltmp114:
	.loc	3 490 1 prologue_end
	addq	$8, %rsp
	popq	%rbp
	retq
Ltmp115:
Lfunc_end57:
	.cfi_endproc

	.p2align	4, 0x90
__ZN4core3ptr73drop_in_place$LT$$RF$raw_window_handle..android..AndroidDisplayHandle$GT$17h0490d02e9f1873c6E:
Lfunc_begin58:
	.loc	3 490 0
	.cfi_startproc
	pushq	%rbp
	.cfi_def_cfa_offset 16
	.cfi_offset %rbp, -16
	movq	%rsp, %rbp
	.cfi_def_cfa_register %rbp
	pushq	%rax
	movq	%rdi, -8(%rbp)
Ltmp116:
	.loc	3 490 1 prologue_end
	addq	$8, %rsp
	popq	%rbp
	retq
Ltmp117:
Lfunc_end58:
	.cfi_endproc

	.p2align	4, 0x90
__ZN4core3ptr73drop_in_place$LT$$RF$raw_window_handle..windows..WindowsDisplayHandle$GT$17h800d2473a8204c0bE:
Lfunc_begin59:
	.loc	3 490 0
	.cfi_startproc
	pushq	%rbp
	.cfi_def_cfa_offset 16
	.cfi_offset %rbp, -16
	movq	%rsp, %rbp
	.cfi_def_cfa_register %rbp
	pushq	%rax
	movq	%rdi, -8(%rbp)
Ltmp118:
	.loc	3 490 1 prologue_end
	addq	$8, %rsp
	popq	%rbp
	retq
Ltmp119:
Lfunc_end59:
	.cfi_endproc

	.p2align	4, 0x90
__ZN4core3ptr75drop_in_place$LT$$RF$raw_window_handle..android..AndroidNdkWindowHandle$GT$17h77ee857666826efcE:
Lfunc_begin60:
	.loc	3 490 0
	.cfi_startproc
	pushq	%rbp
	.cfi_def_cfa_offset 16
	.cfi_offset %rbp, -16
	movq	%rsp, %rbp
	.cfi_def_cfa_register %rbp
	pushq	%rax
	movq	%rdi, -8(%rbp)
Ltmp120:
	.loc	3 490 1 prologue_end
	addq	$8, %rsp
	popq	%rbp
	retq
Ltmp121:
Lfunc_end60:
	.cfi_endproc

	.globl	__ZN50_$LT$$BP$mut$u20$T$u20$as$u20$core..fmt..Debug$GT$3fmt17h23e366c767aa6886E
	.p2align	4, 0x90
__ZN50_$LT$$BP$mut$u20$T$u20$as$u20$core..fmt..Debug$GT$3fmt17h23e366c767aa6886E:
Lfunc_begin61:
	.loc	1 2547 0
	.cfi_startproc
	pushq	%rbp
	.cfi_def_cfa_offset 16
	.cfi_offset %rbp, -16
	movq	%rsp, %rbp
	.cfi_def_cfa_register %rbp
	subq	$16, %rsp
	movq	%rdi, -16(%rbp)
	movq	%rsi, -8(%rbp)
Ltmp122:
	.loc	1 2548 9 prologue_end
	callq	__ZN52_$LT$$BP$mut$u20$T$u20$as$u20$core..fmt..Pointer$GT$3fmt17h2ecf53f34e635366E
	.loc	1 2549 6
	andb	$1, %al
	movzbl	%al, %eax
	addq	$16, %rsp
	popq	%rbp
	retq
Ltmp123:
Lfunc_end61:
	.cfi_endproc

	.globl	__ZN52_$LT$$BP$mut$u20$T$u20$as$u20$core..fmt..Pointer$GT$3fmt17h2ecf53f34e635366E
	.p2align	4, 0x90
__ZN52_$LT$$BP$mut$u20$T$u20$as$u20$core..fmt..Pointer$GT$3fmt17h2ecf53f34e635366E:
Lfunc_begin62:
	.loc	1 2518 0
	.cfi_startproc
	pushq	%rbp
	.cfi_def_cfa_offset 16
	.cfi_offset %rbp, -16
	movq	%rsp, %rbp
	.cfi_def_cfa_register %rbp
	subq	$32, %rsp
	movq	%rdi, -16(%rbp)
	movq	%rsi, -8(%rbp)
Ltmp124:
	.loc	1 2519 24 prologue_end
	movq	(%rdi), %rax
	movq	%rax, -24(%rbp)
	.loc	1 2519 9 is_stmt 0
	leaq	-24(%rbp), %rdi
	callq	__ZN54_$LT$$BP$const$u20$T$u20$as$u20$core..fmt..Pointer$GT$3fmt17hb06b02f12e7bc9a6E
	.loc	1 2520 6 is_stmt 1
	andb	$1, %al
	movzbl	%al, %eax
	addq	$32, %rsp
	popq	%rbp
	retq
Ltmp125:
Lfunc_end62:
	.cfi_endproc

	.globl	__ZN54_$LT$$BP$const$u20$T$u20$as$u20$core..fmt..Pointer$GT$3fmt17hb06b02f12e7bc9a6E
	.p2align	4, 0x90
__ZN54_$LT$$BP$const$u20$T$u20$as$u20$core..fmt..Pointer$GT$3fmt17hb06b02f12e7bc9a6E:
Lfunc_begin63:
	.loc	1 2478 0
	.cfi_startproc
	pushq	%rbp
	.cfi_def_cfa_offset 16
	.cfi_offset %rbp, -16
	movq	%rsp, %rbp
	.cfi_def_cfa_register %rbp
	subq	$32, %rsp
	movq	%rdi, -32(%rbp)
	movq	%rsi, -24(%rbp)
Ltmp126:
	.loc	1 2480 28 prologue_end
	movq	(%rdi), %rdi
	.loc	1 2480 27 is_stmt 0
	movq	%rdi, -16(%rbp)
Ltmp127:
	.file	4 "/rustc/2c8cc343237b8f7d5a3c3703e3a87f2eb2c54a74/library/core/src/ptr" "const_ptr.rs"
	.loc	4 241 9 is_stmt 1
	movq	%rdi, -8(%rbp)
Ltmp128:
	.loc	1 2480 9
	callq	__ZN4core3fmt17pointer_fmt_inner17hfee30366ae14be28E
	.loc	1 2481 6
	andb	$1, %al
	movzbl	%al, %eax
	addq	$32, %rsp
	popq	%rbp
	retq
Ltmp129:
Lfunc_end63:
	.cfi_endproc

	.globl	__ZN17raw_window_handle7android20AndroidDisplayHandle5empty17ha362f6b7b266e774E
	.p2align	4, 0x90
__ZN17raw_window_handle7android20AndroidDisplayHandle5empty17ha362f6b7b266e774E:
Lfunc_begin64:
	.file	5 "/Users/natalie/.cargo/registry/src/github.com-1ecc6299db9ec823/raw-window-handle-0.5.0" "src/android.rs"
	.loc	5 17 0
	.cfi_startproc
	pushq	%rbp
	.cfi_def_cfa_offset 16
	.cfi_offset %rbp, -16
	movq	%rsp, %rbp
	.cfi_def_cfa_register %rbp
Ltmp130:
	.loc	5 19 6 prologue_end
	popq	%rbp
	retq
Ltmp131:
Lfunc_end64:
	.cfi_endproc

	.globl	__ZN17raw_window_handle7android22AndroidNdkWindowHandle5empty17h779fd26a18aa662fE
	.p2align	4, 0x90
__ZN17raw_window_handle7android22AndroidNdkWindowHandle5empty17h779fd26a18aa662fE:
Lfunc_begin65:
	.loc	5 38 0
	.cfi_startproc
	pushq	%rbp
	.cfi_def_cfa_offset 16
	.cfi_offset %rbp, -16
	movq	%rsp, %rbp
	.cfi_def_cfa_register %rbp
	subq	$40, %rsp
Ltmp132:
	.loc	3 599 14 prologue_end
	movq	$0, -16(%rbp)
	movq	-16(%rbp), %rax
	movq	%rax, -8(%rbp)
Ltmp133:
	.file	6 "/rustc/2c8cc343237b8f7d5a3c3703e3a87f2eb2c54a74/library/core/src/ptr" "metadata.rs"
	.loc	6 135 36
	movq	%rax, -24(%rbp)
	.loc	6 135 14 is_stmt 0
	movq	-24(%rbp), %rax
	movq	%rax, -32(%rbp)
	movq	-32(%rbp), %rax
Ltmp134:
	.loc	5 39 9 is_stmt 1
	movq	%rax, -40(%rbp)
	.loc	5 42 6
	movq	-40(%rbp), %rax
	addq	$40, %rsp
	popq	%rbp
	retq
Ltmp135:
Lfunc_end65:
	.cfi_endproc

	.globl	__ZN17raw_window_handle6appkit19AppKitDisplayHandle5empty17h5892e31069e39636E
	.p2align	4, 0x90
__ZN17raw_window_handle6appkit19AppKitDisplayHandle5empty17h5892e31069e39636E:
Lfunc_begin66:
	.file	7 "/Users/natalie/.cargo/registry/src/github.com-1ecc6299db9ec823/raw-window-handle-0.5.0" "src/appkit.rs"
	.loc	7 17 0
	.cfi_startproc
	pushq	%rbp
	.cfi_def_cfa_offset 16
	.cfi_offset %rbp, -16
	movq	%rsp, %rbp
	.cfi_def_cfa_register %rbp
Ltmp136:
	.loc	7 19 6 prologue_end
	popq	%rbp
	retq
Ltmp137:
Lfunc_end66:
	.cfi_endproc

	.globl	__ZN17raw_window_handle6appkit18AppKitWindowHandle5empty17h0f6cb541338bddf2E
	.p2align	4, 0x90
__ZN17raw_window_handle6appkit18AppKitWindowHandle5empty17h0f6cb541338bddf2E:
Lfunc_begin67:
	.loc	7 41 0
	.cfi_startproc
	pushq	%rbp
	.cfi_def_cfa_offset 16
	.cfi_offset %rbp, -16
	movq	%rsp, %rbp
	.cfi_def_cfa_register %rbp
	subq	$80, %rsp
Ltmp138:
	.loc	3 599 14 prologue_end
	movq	$0, -16(%rbp)
	movq	-16(%rbp), %rax
	movq	%rax, -8(%rbp)
Ltmp139:
	.loc	6 135 36
	movq	%rax, -24(%rbp)
	.loc	6 135 14 is_stmt 0
	movq	-24(%rbp), %rax
	movq	%rax, -32(%rbp)
	movq	-32(%rbp), %rcx
Ltmp140:
	.loc	3 599 14 is_stmt 1
	movq	$0, -48(%rbp)
	movq	-48(%rbp), %rax
	movq	%rax, -40(%rbp)
Ltmp141:
	.loc	6 135 36
	movq	%rax, -56(%rbp)
	.loc	6 135 14 is_stmt 0
	movq	-56(%rbp), %rax
	movq	%rax, -64(%rbp)
	movq	-64(%rbp), %rax
Ltmp142:
	.loc	7 42 9 is_stmt 1
	movq	%rcx, -80(%rbp)
	movq	%rax, -72(%rbp)
	.loc	7 46 6
	movq	-80(%rbp), %rax
	movq	-72(%rbp), %rdx
	addq	$80, %rsp
	popq	%rbp
	retq
Ltmp143:
Lfunc_end67:
	.cfi_endproc

	.globl	__ZN17raw_window_handle5haiku18HaikuDisplayHandle5empty17h1c13015622adcd36E
	.p2align	4, 0x90
__ZN17raw_window_handle5haiku18HaikuDisplayHandle5empty17h1c13015622adcd36E:
Lfunc_begin68:
	.file	8 "/Users/natalie/.cargo/registry/src/github.com-1ecc6299db9ec823/raw-window-handle-0.5.0" "src/haiku.rs"
	.loc	8 17 0
	.cfi_startproc
	pushq	%rbp
	.cfi_def_cfa_offset 16
	.cfi_offset %rbp, -16
	movq	%rsp, %rbp
	.cfi_def_cfa_register %rbp
Ltmp144:
	.loc	8 19 6 prologue_end
	popq	%rbp
	retq
Ltmp145:
Lfunc_end68:
	.cfi_endproc

	.globl	__ZN17raw_window_handle5haiku17HaikuWindowHandle5empty17h969210074b772b06E
	.p2align	4, 0x90
__ZN17raw_window_handle5haiku17HaikuWindowHandle5empty17h969210074b772b06E:
Lfunc_begin69:
	.loc	8 40 0
	.cfi_startproc
	pushq	%rbp
	.cfi_def_cfa_offset 16
	.cfi_offset %rbp, -16
	movq	%rsp, %rbp
	.cfi_def_cfa_register %rbp
	subq	$80, %rsp
Ltmp146:
	.loc	3 599 14 prologue_end
	movq	$0, -16(%rbp)
	movq	-16(%rbp), %rax
	movq	%rax, -8(%rbp)
Ltmp147:
	.loc	6 135 36
	movq	%rax, -24(%rbp)
	.loc	6 135 14 is_stmt 0
	movq	-24(%rbp), %rax
	movq	%rax, -32(%rbp)
	movq	-32(%rbp), %rcx
Ltmp148:
	.loc	3 599 14 is_stmt 1
	movq	$0, -48(%rbp)
	movq	-48(%rbp), %rax
	movq	%rax, -40(%rbp)
Ltmp149:
	.loc	6 135 36
	movq	%rax, -56(%rbp)
	.loc	6 135 14 is_stmt 0
	movq	-56(%rbp), %rax
	movq	%rax, -64(%rbp)
	movq	-64(%rbp), %rax
Ltmp150:
	.loc	8 41 9 is_stmt 1
	movq	%rcx, -80(%rbp)
	movq	%rax, -72(%rbp)
	.loc	8 45 6
	movq	-80(%rbp), %rax
	movq	-72(%rbp), %rdx
	addq	$80, %rsp
	popq	%rbp
	retq
Ltmp151:
Lfunc_end69:
	.cfi_endproc

	.globl	__ZN17raw_window_handle5redox20OrbitalDisplayHandle5empty17h156882e1f479a1aaE
	.p2align	4, 0x90
__ZN17raw_window_handle5redox20OrbitalDisplayHandle5empty17h156882e1f479a1aaE:
Lfunc_begin70:
	.file	9 "/Users/natalie/.cargo/registry/src/github.com-1ecc6299db9ec823/raw-window-handle-0.5.0" "src/redox.rs"
	.loc	9 17 0
	.cfi_startproc
	pushq	%rbp
	.cfi_def_cfa_offset 16
	.cfi_offset %rbp, -16
	movq	%rsp, %rbp
	.cfi_def_cfa_register %rbp
Ltmp152:
	.loc	9 19 6 prologue_end
	popq	%rbp
	retq
Ltmp153:
Lfunc_end70:
	.cfi_endproc

	.globl	__ZN17raw_window_handle5redox19OrbitalWindowHandle5empty17h4334bfb046258d08E
	.p2align	4, 0x90
__ZN17raw_window_handle5redox19OrbitalWindowHandle5empty17h4334bfb046258d08E:
Lfunc_begin71:
	.loc	9 38 0
	.cfi_startproc
	pushq	%rbp
	.cfi_def_cfa_offset 16
	.cfi_offset %rbp, -16
	movq	%rsp, %rbp
	.cfi_def_cfa_register %rbp
	subq	$40, %rsp
Ltmp154:
	.loc	3 599 14 prologue_end
	movq	$0, -16(%rbp)
	movq	-16(%rbp), %rax
	movq	%rax, -8(%rbp)
Ltmp155:
	.loc	6 135 36
	movq	%rax, -24(%rbp)
	.loc	6 135 14 is_stmt 0
	movq	-24(%rbp), %rax
	movq	%rax, -32(%rbp)
	movq	-32(%rbp), %rax
Ltmp156:
	.loc	9 39 9 is_stmt 1
	movq	%rax, -40(%rbp)
	.loc	9 42 6
	movq	-40(%rbp), %rax
	addq	$40, %rsp
	popq	%rbp
	retq
Ltmp157:
Lfunc_end71:
	.cfi_endproc

	.globl	__ZN17raw_window_handle5uikit18UiKitDisplayHandle5empty17h63eb68701fb5efa3E
	.p2align	4, 0x90
__ZN17raw_window_handle5uikit18UiKitDisplayHandle5empty17h63eb68701fb5efa3E:
Lfunc_begin72:
	.file	10 "/Users/natalie/.cargo/registry/src/github.com-1ecc6299db9ec823/raw-window-handle-0.5.0" "src/uikit.rs"
	.loc	10 17 0
	.cfi_startproc
	pushq	%rbp
	.cfi_def_cfa_offset 16
	.cfi_offset %rbp, -16
	movq	%rsp, %rbp
	.cfi_def_cfa_register %rbp
Ltmp158:
	.loc	10 19 6 prologue_end
	popq	%rbp
	retq
Ltmp159:
Lfunc_end72:
	.cfi_endproc

	.globl	__ZN17raw_window_handle5uikit17UiKitWindowHandle5empty17h5d0173abdc83c42aE
	.p2align	4, 0x90
__ZN17raw_window_handle5uikit17UiKitWindowHandle5empty17h5d0173abdc83c42aE:
Lfunc_begin73:
	.loc	10 42 0
	.cfi_startproc
	pushq	%rbp
	.cfi_def_cfa_offset 16
	.cfi_offset %rbp, -16
	movq	%rsp, %rbp
	.cfi_def_cfa_register %rbp
	subq	$96, %rsp
	movq	%rdi, %rax
Ltmp160:
	.loc	3 599 14 prologue_end
	movq	$0, -16(%rbp)
	movq	-16(%rbp), %rcx
	movq	%rcx, -8(%rbp)
Ltmp161:
	.loc	6 135 36
	movq	%rcx, -24(%rbp)
	.loc	6 135 14 is_stmt 0
	movq	-24(%rbp), %rcx
	movq	%rcx, -32(%rbp)
	movq	-32(%rbp), %rsi
Ltmp162:
	.loc	3 599 14 is_stmt 1
	movq	$0, -48(%rbp)
	movq	-48(%rbp), %rcx
	movq	%rcx, -40(%rbp)
Ltmp163:
	.loc	6 135 36
	movq	%rcx, -56(%rbp)
	.loc	6 135 14 is_stmt 0
	movq	-56(%rbp), %rcx
	movq	%rcx, -64(%rbp)
	movq	-64(%rbp), %rdx
Ltmp164:
	.loc	3 599 14 is_stmt 1
	movq	$0, -80(%rbp)
	movq	-80(%rbp), %rcx
	movq	%rcx, -72(%rbp)
Ltmp165:
	.loc	6 135 36
	movq	%rcx, -88(%rbp)
	.loc	6 135 14 is_stmt 0
	movq	-88(%rbp), %rcx
	movq	%rcx, -96(%rbp)
	movq	-96(%rbp), %rcx
Ltmp166:
	.loc	10 43 9 is_stmt 1
	movq	%rsi, (%rdi)
	movq	%rdx, 8(%rdi)
	movq	%rcx, 16(%rdi)
	.loc	10 48 6
	addq	$96, %rsp
	popq	%rbp
	retq
Ltmp167:
Lfunc_end73:
	.cfi_endproc

	.globl	__ZN17raw_window_handle4unix17XlibDisplayHandle5empty17h87b2cc5070b7c11bE
	.p2align	4, 0x90
__ZN17raw_window_handle4unix17XlibDisplayHandle5empty17h87b2cc5070b7c11bE:
Lfunc_begin74:
	.file	11 "/Users/natalie/.cargo/registry/src/github.com-1ecc6299db9ec823/raw-window-handle-0.5.0" "src/unix.rs"
	.loc	11 175 0
	.cfi_startproc
	pushq	%rbp
	.cfi_def_cfa_offset 16
	.cfi_offset %rbp, -16
	movq	%rsp, %rbp
	.cfi_def_cfa_register %rbp
	subq	$48, %rsp
Ltmp168:
	.loc	3 599 14 prologue_end
	movq	$0, -16(%rbp)
	movq	-16(%rbp), %rax
	movq	%rax, -8(%rbp)
Ltmp169:
	.loc	6 135 36
	movq	%rax, -24(%rbp)
	.loc	6 135 14 is_stmt 0
	movq	-24(%rbp), %rax
	movq	%rax, -32(%rbp)
	movq	-32(%rbp), %rax
Ltmp170:
	.loc	11 176 9 is_stmt 1
	movq	%rax, -48(%rbp)
	movl	$0, -40(%rbp)
	.loc	11 180 6
	movq	-48(%rbp), %rax
	movl	-40(%rbp), %edx
	addq	$48, %rsp
	popq	%rbp
	retq
Ltmp171:
Lfunc_end74:
	.cfi_endproc

	.globl	__ZN17raw_window_handle4unix16XlibWindowHandle5empty17h8fae2754dee95697E
	.p2align	4, 0x90
__ZN17raw_window_handle4unix16XlibWindowHandle5empty17h8fae2754dee95697E:
Lfunc_begin75:
	.loc	11 184 0
	.cfi_startproc
	pushq	%rbp
	.cfi_def_cfa_offset 16
	.cfi_offset %rbp, -16
	movq	%rsp, %rbp
	.cfi_def_cfa_register %rbp
	subq	$16, %rsp
Ltmp172:
	.loc	11 185 9 prologue_end
	movq	$0, -16(%rbp)
	movq	$0, -8(%rbp)
	.loc	11 189 6
	movq	-16(%rbp), %rax
	movq	-8(%rbp), %rdx
	addq	$16, %rsp
	popq	%rbp
	retq
Ltmp173:
Lfunc_end75:
	.cfi_endproc

	.globl	__ZN17raw_window_handle4unix16XcbDisplayHandle5empty17hcdcf3bee20b34a5fE
	.p2align	4, 0x90
__ZN17raw_window_handle4unix16XcbDisplayHandle5empty17hcdcf3bee20b34a5fE:
Lfunc_begin76:
	.loc	11 193 0
	.cfi_startproc
	pushq	%rbp
	.cfi_def_cfa_offset 16
	.cfi_offset %rbp, -16
	movq	%rsp, %rbp
	.cfi_def_cfa_register %rbp
	subq	$48, %rsp
Ltmp174:
	.loc	3 599 14 prologue_end
	movq	$0, -16(%rbp)
	movq	-16(%rbp), %rax
	movq	%rax, -8(%rbp)
Ltmp175:
	.loc	6 135 36
	movq	%rax, -24(%rbp)
	.loc	6 135 14 is_stmt 0
	movq	-24(%rbp), %rax
	movq	%rax, -32(%rbp)
	movq	-32(%rbp), %rax
Ltmp176:
	.loc	11 194 9 is_stmt 1
	movq	%rax, -48(%rbp)
	movl	$0, -40(%rbp)
	.loc	11 198 6
	movq	-48(%rbp), %rax
	movl	-40(%rbp), %edx
	addq	$48, %rsp
	popq	%rbp
	retq
Ltmp177:
Lfunc_end76:
	.cfi_endproc

	.globl	__ZN17raw_window_handle4unix15XcbWindowHandle5empty17h76d5452fca9023b7E
	.p2align	4, 0x90
__ZN17raw_window_handle4unix15XcbWindowHandle5empty17h76d5452fca9023b7E:
Lfunc_begin77:
	.loc	11 202 0
	.cfi_startproc
	pushq	%rbp
	.cfi_def_cfa_offset 16
	.cfi_offset %rbp, -16
	movq	%rsp, %rbp
	.cfi_def_cfa_register %rbp
	pushq	%rax
Ltmp178:
	.loc	11 203 9 prologue_end
	movl	$0, -8(%rbp)
	movl	$0, -4(%rbp)
	.loc	11 207 6
	movl	-8(%rbp), %eax
	movl	-4(%rbp), %edx
	addq	$8, %rsp
	popq	%rbp
	retq
Ltmp179:
Lfunc_end77:
	.cfi_endproc

	.globl	__ZN17raw_window_handle4unix20WaylandDisplayHandle5empty17h888019f6fea94af7E
	.p2align	4, 0x90
__ZN17raw_window_handle4unix20WaylandDisplayHandle5empty17h888019f6fea94af7E:
Lfunc_begin78:
	.loc	11 211 0
	.cfi_startproc
	pushq	%rbp
	.cfi_def_cfa_offset 16
	.cfi_offset %rbp, -16
	movq	%rsp, %rbp
	.cfi_def_cfa_register %rbp
	subq	$40, %rsp
Ltmp180:
	.loc	3 599 14 prologue_end
	movq	$0, -16(%rbp)
	movq	-16(%rbp), %rax
	movq	%rax, -8(%rbp)
Ltmp181:
	.loc	6 135 36
	movq	%rax, -24(%rbp)
	.loc	6 135 14 is_stmt 0
	movq	-24(%rbp), %rax
	movq	%rax, -32(%rbp)
	movq	-32(%rbp), %rax
Ltmp182:
	.loc	11 212 9 is_stmt 1
	movq	%rax, -40(%rbp)
	.loc	11 215 6
	movq	-40(%rbp), %rax
	addq	$40, %rsp
	popq	%rbp
	retq
Ltmp183:
Lfunc_end78:
	.cfi_endproc

	.globl	__ZN17raw_window_handle4unix19WaylandWindowHandle5empty17hbfb607694fc492a7E
	.p2align	4, 0x90
__ZN17raw_window_handle4unix19WaylandWindowHandle5empty17hbfb607694fc492a7E:
Lfunc_begin79:
	.loc	11 219 0
	.cfi_startproc
	pushq	%rbp
	.cfi_def_cfa_offset 16
	.cfi_offset %rbp, -16
	movq	%rsp, %rbp
	.cfi_def_cfa_register %rbp
	subq	$40, %rsp
Ltmp184:
	.loc	3 599 14 prologue_end
	movq	$0, -16(%rbp)
	movq	-16(%rbp), %rax
	movq	%rax, -8(%rbp)
Ltmp185:
	.loc	6 135 36
	movq	%rax, -24(%rbp)
	.loc	6 135 14 is_stmt 0
	movq	-24(%rbp), %rax
	movq	%rax, -32(%rbp)
	movq	-32(%rbp), %rax
Ltmp186:
	.loc	11 220 9 is_stmt 1
	movq	%rax, -40(%rbp)
	.loc	11 223 6
	movq	-40(%rbp), %rax
	addq	$40, %rsp
	popq	%rbp
	retq
Ltmp187:
Lfunc_end79:
	.cfi_endproc

	.globl	__ZN17raw_window_handle4unix16DrmDisplayHandle5empty17h7b9c8a733ece7b29E
	.p2align	4, 0x90
__ZN17raw_window_handle4unix16DrmDisplayHandle5empty17h7b9c8a733ece7b29E:
Lfunc_begin80:
	.loc	11 227 0
	.cfi_startproc
	pushq	%rbp
	.cfi_def_cfa_offset 16
	.cfi_offset %rbp, -16
	movq	%rsp, %rbp
	.cfi_def_cfa_register %rbp
	subq	$4, %rsp
Ltmp188:
	.loc	11 228 9 prologue_end
	movl	$0, -4(%rbp)
	.loc	11 229 6
	movl	-4(%rbp), %eax
	addq	$4, %rsp
	popq	%rbp
	retq
Ltmp189:
Lfunc_end80:
	.cfi_endproc

	.globl	__ZN17raw_window_handle4unix15DrmWindowHandle5empty17h4ea462f8bb512d61E
	.p2align	4, 0x90
__ZN17raw_window_handle4unix15DrmWindowHandle5empty17h4ea462f8bb512d61E:
Lfunc_begin81:
	.loc	11 233 0
	.cfi_startproc
	pushq	%rbp
	.cfi_def_cfa_offset 16
	.cfi_offset %rbp, -16
	movq	%rsp, %rbp
	.cfi_def_cfa_register %rbp
	subq	$4, %rsp
Ltmp190:
	.loc	11 234 9 prologue_end
	movl	$0, -4(%rbp)
	.loc	11 235 6
	movl	-4(%rbp), %eax
	addq	$4, %rsp
	popq	%rbp
	retq
Ltmp191:
Lfunc_end81:
	.cfi_endproc

	.globl	__ZN17raw_window_handle4unix16GbmDisplayHandle5empty17hbaa912397b7a9943E
	.p2align	4, 0x90
__ZN17raw_window_handle4unix16GbmDisplayHandle5empty17hbaa912397b7a9943E:
Lfunc_begin82:
	.loc	11 239 0
	.cfi_startproc
	pushq	%rbp
	.cfi_def_cfa_offset 16
	.cfi_offset %rbp, -16
	movq	%rsp, %rbp
	.cfi_def_cfa_register %rbp
	subq	$40, %rsp
Ltmp192:
	.loc	3 599 14 prologue_end
	movq	$0, -16(%rbp)
	movq	-16(%rbp), %rax
	movq	%rax, -8(%rbp)
Ltmp193:
	.loc	6 135 36
	movq	%rax, -24(%rbp)
	.loc	6 135 14 is_stmt 0
	movq	-24(%rbp), %rax
	movq	%rax, -32(%rbp)
	movq	-32(%rbp), %rax
Ltmp194:
	.loc	11 240 9 is_stmt 1
	movq	%rax, -40(%rbp)
	.loc	11 243 6
	movq	-40(%rbp), %rax
	addq	$40, %rsp
	popq	%rbp
	retq
Ltmp195:
Lfunc_end82:
	.cfi_endproc

	.globl	__ZN17raw_window_handle4unix15GbmWindowHandle5empty17h3b0793969f1058e3E
	.p2align	4, 0x90
__ZN17raw_window_handle4unix15GbmWindowHandle5empty17h3b0793969f1058e3E:
Lfunc_begin83:
	.loc	11 247 0
	.cfi_startproc
	pushq	%rbp
	.cfi_def_cfa_offset 16
	.cfi_offset %rbp, -16
	movq	%rsp, %rbp
	.cfi_def_cfa_register %rbp
	subq	$40, %rsp
Ltmp196:
	.loc	3 599 14 prologue_end
	movq	$0, -16(%rbp)
	movq	-16(%rbp), %rax
	movq	%rax, -8(%rbp)
Ltmp197:
	.loc	6 135 36
	movq	%rax, -24(%rbp)
	.loc	6 135 14 is_stmt 0
	movq	-24(%rbp), %rax
	movq	%rax, -32(%rbp)
	movq	-32(%rbp), %rax
Ltmp198:
	.loc	11 248 9 is_stmt 1
	movq	%rax, -40(%rbp)
	.loc	11 251 6
	movq	-40(%rbp), %rax
	addq	$40, %rsp
	popq	%rbp
	retq
Ltmp199:
Lfunc_end83:
	.cfi_endproc

	.globl	__ZN17raw_window_handle3web16WebDisplayHandle5empty17h25316f62343cc807E
	.p2align	4, 0x90
__ZN17raw_window_handle3web16WebDisplayHandle5empty17h25316f62343cc807E:
Lfunc_begin84:
	.file	12 "/Users/natalie/.cargo/registry/src/github.com-1ecc6299db9ec823/raw-window-handle-0.5.0" "src/web.rs"
	.loc	12 14 0
	.cfi_startproc
	pushq	%rbp
	.cfi_def_cfa_offset 16
	.cfi_offset %rbp, -16
	movq	%rsp, %rbp
	.cfi_def_cfa_register %rbp
Ltmp200:
	.loc	12 16 6 prologue_end
	popq	%rbp
	retq
Ltmp201:
Lfunc_end84:
	.cfi_endproc

	.globl	__ZN17raw_window_handle3web15WebWindowHandle5empty17h5e7821995cd6e165E
	.p2align	4, 0x90
__ZN17raw_window_handle3web15WebWindowHandle5empty17h5e7821995cd6e165E:
Lfunc_begin85:
	.loc	12 42 0
	.cfi_startproc
	pushq	%rbp
	.cfi_def_cfa_offset 16
	.cfi_offset %rbp, -16
	movq	%rsp, %rbp
	.cfi_def_cfa_register %rbp
	subq	$4, %rsp
Ltmp202:
	.loc	12 43 9 prologue_end
	movl	$0, -4(%rbp)
	.loc	12 44 6
	movl	-4(%rbp), %eax
	addq	$4, %rsp
	popq	%rbp
	retq
Ltmp203:
Lfunc_end85:
	.cfi_endproc

	.globl	__ZN17raw_window_handle7windows20WindowsDisplayHandle5empty17ha0e9c693376df359E
	.p2align	4, 0x90
__ZN17raw_window_handle7windows20WindowsDisplayHandle5empty17ha0e9c693376df359E:
Lfunc_begin86:
	.file	13 "/Users/natalie/.cargo/registry/src/github.com-1ecc6299db9ec823/raw-window-handle-0.5.0" "src/windows.rs"
	.loc	13 19 0
	.cfi_startproc
	pushq	%rbp
	.cfi_def_cfa_offset 16
	.cfi_offset %rbp, -16
	movq	%rsp, %rbp
	.cfi_def_cfa_register %rbp
Ltmp204:
	.loc	13 21 6 prologue_end
	popq	%rbp
	retq
Ltmp205:
Lfunc_end86:
	.cfi_endproc

	.globl	__ZN17raw_window_handle7windows17Win32WindowHandle5empty17hecf862b9a32c35d0E
	.p2align	4, 0x90
__ZN17raw_window_handle7windows17Win32WindowHandle5empty17hecf862b9a32c35d0E:
Lfunc_begin87:
	.loc	13 42 0
	.cfi_startproc
	pushq	%rbp
	.cfi_def_cfa_offset 16
	.cfi_offset %rbp, -16
	movq	%rsp, %rbp
	.cfi_def_cfa_register %rbp
	subq	$80, %rsp
Ltmp206:
	.loc	3 599 14 prologue_end
	movq	$0, -16(%rbp)
	movq	-16(%rbp), %rax
	movq	%rax, -8(%rbp)
Ltmp207:
	.loc	6 135 36
	movq	%rax, -24(%rbp)
	.loc	6 135 14 is_stmt 0
	movq	-24(%rbp), %rax
	movq	%rax, -32(%rbp)
	movq	-32(%rbp), %rcx
Ltmp208:
	.loc	3 599 14 is_stmt 1
	movq	$0, -48(%rbp)
	movq	-48(%rbp), %rax
	movq	%rax, -40(%rbp)
Ltmp209:
	.loc	6 135 36
	movq	%rax, -56(%rbp)
	.loc	6 135 14 is_stmt 0
	movq	-56(%rbp), %rax
	movq	%rax, -64(%rbp)
	movq	-64(%rbp), %rax
Ltmp210:
	.loc	13 43 9 is_stmt 1
	movq	%rcx, -80(%rbp)
	movq	%rax, -72(%rbp)
	.loc	13 47 6
	movq	-80(%rbp), %rax
	movq	-72(%rbp), %rdx
	addq	$80, %rsp
	popq	%rbp
	retq
Ltmp211:
Lfunc_end87:
	.cfi_endproc

	.globl	__ZN17raw_window_handle7windows17WinRtWindowHandle5empty17hbc7e48ec79ea4ea3E
	.p2align	4, 0x90
__ZN17raw_window_handle7windows17WinRtWindowHandle5empty17hbc7e48ec79ea4ea3E:
Lfunc_begin88:
	.loc	13 66 0
	.cfi_startproc
	pushq	%rbp
	.cfi_def_cfa_offset 16
	.cfi_offset %rbp, -16
	movq	%rsp, %rbp
	.cfi_def_cfa_register %rbp
	subq	$40, %rsp
Ltmp212:
	.loc	3 599 14 prologue_end
	movq	$0, -16(%rbp)
	movq	-16(%rbp), %rax
	movq	%rax, -8(%rbp)
Ltmp213:
	.loc	6 135 36
	movq	%rax, -24(%rbp)
	.loc	6 135 14 is_stmt 0
	movq	-24(%rbp), %rax
	movq	%rax, -32(%rbp)
	movq	-32(%rbp), %rax
Ltmp214:
	.loc	13 67 9 is_stmt 1
	movq	%rax, -40(%rbp)
	.loc	13 70 6
	movq	-40(%rbp), %rax
	addq	$40, %rsp
	popq	%rbp
	retq
Ltmp215:
Lfunc_end88:
	.cfi_endproc

	.globl	__ZN85_$LT$raw_window_handle..android..AndroidDisplayHandle$u20$as$u20$core..fmt..Debug$GT$3fmt17h8ea4f38da5b59915E
	.p2align	4, 0x90
__ZN85_$LT$raw_window_handle..android..AndroidDisplayHandle$u20$as$u20$core..fmt..Debug$GT$3fmt17h8ea4f38da5b59915E:
Lfunc_begin89:
	.loc	5 13 0
	.cfi_startproc
	pushq	%rbp
	.cfi_def_cfa_offset 16
	.cfi_offset %rbp, -16
	movq	%rsp, %rbp
	.cfi_def_cfa_register %rbp
	subq	$32, %rsp
	movq	%rsi, -24(%rbp)
	movq	%rdi, %rax
	movq	-24(%rbp), %rdi
	movq	%rax, -16(%rbp)
	movq	%rdi, -8(%rbp)
Ltmp216:
	.loc	5 13 10 prologue_end
	leaq	l___unnamed_30(%rip), %rsi
	movl	$20, %edx
	callq	__ZN4core3fmt9Formatter9write_str17hb029d9999327a35fE
	.loc	5 13 15 is_stmt 0
	andb	$1, %al
	movzbl	%al, %eax
	addq	$32, %rsp
	popq	%rbp
	retq
Ltmp217:
Lfunc_end89:
	.cfi_endproc

	.globl	__ZN87_$LT$raw_window_handle..android..AndroidNdkWindowHandle$u20$as$u20$core..fmt..Debug$GT$3fmt17h780a0444690fd27aE
	.p2align	4, 0x90
__ZN87_$LT$raw_window_handle..android..AndroidNdkWindowHandle$u20$as$u20$core..fmt..Debug$GT$3fmt17h780a0444690fd27aE:
Lfunc_begin90:
	.loc	5 31 0 is_stmt 1
	.cfi_startproc
	pushq	%rbp
	.cfi_def_cfa_offset 16
	.cfi_offset %rbp, -16
	movq	%rsp, %rbp
	.cfi_def_cfa_register %rbp
	subq	$48, %rsp
	movq	%rsi, -32(%rbp)
	movq	%rdi, %rax
	movq	-32(%rbp), %rdi
	movq	%rax, -16(%rbp)
	movq	%rdi, -8(%rbp)
Ltmp218:
	.loc	5 34 5 prologue_end
	movq	%rax, -24(%rbp)
	.loc	5 31 10
	leaq	l___unnamed_31(%rip), %rsi
	movl	$22, %edx
	leaq	l___unnamed_32(%rip), %rcx
	movl	$15, %r8d
	leaq	-24(%rbp), %r9
	leaq	l___unnamed_1(%rip), %rax
	movq	%rax, (%rsp)
	callq	__ZN4core3fmt9Formatter26debug_struct_field1_finish17ha7aba2fd90afbefeE
	.loc	5 31 15 is_stmt 0
	andb	$1, %al
	movzbl	%al, %eax
	addq	$48, %rsp
	popq	%rbp
	retq
Ltmp219:
Lfunc_end90:
	.cfi_endproc

	.globl	__ZN83_$LT$raw_window_handle..appkit..AppKitDisplayHandle$u20$as$u20$core..fmt..Debug$GT$3fmt17he9e2fa9ede9abe16E
	.p2align	4, 0x90
__ZN83_$LT$raw_window_handle..appkit..AppKitDisplayHandle$u20$as$u20$core..fmt..Debug$GT$3fmt17he9e2fa9ede9abe16E:
Lfunc_begin91:
	.loc	7 13 0 is_stmt 1
	.cfi_startproc
	pushq	%rbp
	.cfi_def_cfa_offset 16
	.cfi_offset %rbp, -16
	movq	%rsp, %rbp
	.cfi_def_cfa_register %rbp
	subq	$32, %rsp
	movq	%rsi, -24(%rbp)
	movq	%rdi, %rax
	movq	-24(%rbp), %rdi
	movq	%rax, -16(%rbp)
	movq	%rdi, -8(%rbp)
Ltmp220:
	.loc	7 13 10 prologue_end
	leaq	l___unnamed_33(%rip), %rsi
	movl	$19, %edx
	callq	__ZN4core3fmt9Formatter9write_str17hb029d9999327a35fE
	.loc	7 13 15 is_stmt 0
	andb	$1, %al
	movzbl	%al, %eax
	addq	$32, %rsp
	popq	%rbp
	retq
Ltmp221:
Lfunc_end91:
	.cfi_endproc

	.globl	__ZN82_$LT$raw_window_handle..appkit..AppKitWindowHandle$u20$as$u20$core..fmt..Debug$GT$3fmt17h78aabe9ba552b163E
	.p2align	4, 0x90
__ZN82_$LT$raw_window_handle..appkit..AppKitWindowHandle$u20$as$u20$core..fmt..Debug$GT$3fmt17h78aabe9ba552b163E:
Lfunc_begin92:
	.loc	7 31 0 is_stmt 1
	.cfi_startproc
	pushq	%rbp
	.cfi_def_cfa_offset 16
	.cfi_offset %rbp, -16
	movq	%rsp, %rbp
	.cfi_def_cfa_register %rbp
	subq	$80, %rsp
	movq	%rsi, -40(%rbp)
	movq	%rdi, %rax
	movq	-40(%rbp), %rdi
	movq	%rax, -16(%rbp)
	movq	%rdi, -8(%rbp)
Ltmp222:
	.loc	7 34 5 prologue_end
	movq	%rax, -32(%rbp)
	.loc	7 36 5
	addq	$8, %rax
	movq	%rax, -24(%rbp)
	.loc	7 31 10
	leaq	l___unnamed_34(%rip), %rsi
	movl	$18, %edx
	leaq	l___unnamed_35(%rip), %rcx
	movl	$9, %r8d
	leaq	-32(%rbp), %r9
	leaq	l___unnamed_1(%rip), %rax
	leaq	l___unnamed_36(%rip), %r11
	leaq	-24(%rbp), %r10
	movq	%rax, (%rsp)
	movq	%r11, 8(%rsp)
	movq	$7, 16(%rsp)
	movq	%r10, 24(%rsp)
	movq	%rax, 32(%rsp)
	callq	__ZN4core3fmt9Formatter26debug_struct_field2_finish17h6d8f05a66ed84642E
	.loc	7 31 15 is_stmt 0
	andb	$1, %al
	movzbl	%al, %eax
	addq	$80, %rsp
	popq	%rbp
	retq
Ltmp223:
Lfunc_end92:
	.cfi_endproc

	.globl	__ZN81_$LT$raw_window_handle..haiku..HaikuDisplayHandle$u20$as$u20$core..fmt..Debug$GT$3fmt17h4ce5741ab600530aE
	.p2align	4, 0x90
__ZN81_$LT$raw_window_handle..haiku..HaikuDisplayHandle$u20$as$u20$core..fmt..Debug$GT$3fmt17h4ce5741ab600530aE:
Lfunc_begin93:
	.loc	8 13 0 is_stmt 1
	.cfi_startproc
	pushq	%rbp
	.cfi_def_cfa_offset 16
	.cfi_offset %rbp, -16
	movq	%rsp, %rbp
	.cfi_def_cfa_register %rbp
	subq	$32, %rsp
	movq	%rsi, -24(%rbp)
	movq	%rdi, %rax
	movq	-24(%rbp), %rdi
	movq	%rax, -16(%rbp)
	movq	%rdi, -8(%rbp)
Ltmp224:
	.loc	8 13 10 prologue_end
	leaq	l___unnamed_37(%rip), %rsi
	movl	$18, %edx
	callq	__ZN4core3fmt9Formatter9write_str17hb029d9999327a35fE
	.loc	8 13 15 is_stmt 0
	andb	$1, %al
	movzbl	%al, %eax
	addq	$32, %rsp
	popq	%rbp
	retq
Ltmp225:
Lfunc_end93:
	.cfi_endproc

	.globl	__ZN80_$LT$raw_window_handle..haiku..HaikuWindowHandle$u20$as$u20$core..fmt..Debug$GT$3fmt17h270926945a816c10E
	.p2align	4, 0x90
__ZN80_$LT$raw_window_handle..haiku..HaikuWindowHandle$u20$as$u20$core..fmt..Debug$GT$3fmt17h270926945a816c10E:
Lfunc_begin94:
	.loc	8 31 0 is_stmt 1
	.cfi_startproc
	pushq	%rbp
	.cfi_def_cfa_offset 16
	.cfi_offset %rbp, -16
	movq	%rsp, %rbp
	.cfi_def_cfa_register %rbp
	subq	$80, %rsp
	movq	%rsi, -40(%rbp)
	movq	%rdi, %rax
	movq	-40(%rbp), %rdi
	movq	%rax, -16(%rbp)
	movq	%rdi, -8(%rbp)
Ltmp226:
	.loc	8 34 5 prologue_end
	movq	%rax, -32(%rbp)
	.loc	8 36 5
	addq	$8, %rax
	movq	%rax, -24(%rbp)
	.loc	8 31 10
	leaq	l___unnamed_38(%rip), %rsi
	movl	$17, %edx
	leaq	L___unnamed_39(%rip), %rcx
	movl	$8, %r8d
	leaq	-32(%rbp), %r9
	leaq	l___unnamed_1(%rip), %rax
	leaq	l___unnamed_40(%rip), %r11
	leaq	-24(%rbp), %r10
	movq	%rax, (%rsp)
	movq	%r11, 8(%rsp)
	movq	$15, 16(%rsp)
	movq	%r10, 24(%rsp)
	movq	%rax, 32(%rsp)
	callq	__ZN4core3fmt9Formatter26debug_struct_field2_finish17h6d8f05a66ed84642E
	.loc	8 31 15 is_stmt 0
	andb	$1, %al
	movzbl	%al, %eax
	addq	$80, %rsp
	popq	%rbp
	retq
Ltmp227:
Lfunc_end94:
	.cfi_endproc

	.globl	__ZN83_$LT$raw_window_handle..redox..OrbitalDisplayHandle$u20$as$u20$core..fmt..Debug$GT$3fmt17ha58e9cf7215bcc95E
	.p2align	4, 0x90
__ZN83_$LT$raw_window_handle..redox..OrbitalDisplayHandle$u20$as$u20$core..fmt..Debug$GT$3fmt17ha58e9cf7215bcc95E:
Lfunc_begin95:
	.loc	9 13 0 is_stmt 1
	.cfi_startproc
	pushq	%rbp
	.cfi_def_cfa_offset 16
	.cfi_offset %rbp, -16
	movq	%rsp, %rbp
	.cfi_def_cfa_register %rbp
	subq	$32, %rsp
	movq	%rsi, -24(%rbp)
	movq	%rdi, %rax
	movq	-24(%rbp), %rdi
	movq	%rax, -16(%rbp)
	movq	%rdi, -8(%rbp)
Ltmp228:
	.loc	9 13 10 prologue_end
	leaq	l___unnamed_41(%rip), %rsi
	movl	$20, %edx
	callq	__ZN4core3fmt9Formatter9write_str17hb029d9999327a35fE
	.loc	9 13 15 is_stmt 0
	andb	$1, %al
	movzbl	%al, %eax
	addq	$32, %rsp
	popq	%rbp
	retq
Ltmp229:
Lfunc_end95:
	.cfi_endproc

	.globl	__ZN82_$LT$raw_window_handle..redox..OrbitalWindowHandle$u20$as$u20$core..fmt..Debug$GT$3fmt17h033bc379c0dd9de5E
	.p2align	4, 0x90
__ZN82_$LT$raw_window_handle..redox..OrbitalWindowHandle$u20$as$u20$core..fmt..Debug$GT$3fmt17h033bc379c0dd9de5E:
Lfunc_begin96:
	.loc	9 31 0 is_stmt 1
	.cfi_startproc
	pushq	%rbp
	.cfi_def_cfa_offset 16
	.cfi_offset %rbp, -16
	movq	%rsp, %rbp
	.cfi_def_cfa_register %rbp
	subq	$48, %rsp
	movq	%rsi, -32(%rbp)
	movq	%rdi, %rax
	movq	-32(%rbp), %rdi
	movq	%rax, -16(%rbp)
	movq	%rdi, -8(%rbp)
Ltmp230:
	.loc	9 34 5 prologue_end
	movq	%rax, -24(%rbp)
	.loc	9 31 10
	leaq	l___unnamed_42(%rip), %rsi
	movl	$19, %edx
	leaq	l___unnamed_43(%rip), %rcx
	movl	$6, %r8d
	leaq	-24(%rbp), %r9
	leaq	l___unnamed_1(%rip), %rax
	movq	%rax, (%rsp)
	callq	__ZN4core3fmt9Formatter26debug_struct_field1_finish17ha7aba2fd90afbefeE
	.loc	9 31 15 is_stmt 0
	andb	$1, %al
	movzbl	%al, %eax
	addq	$48, %rsp
	popq	%rbp
	retq
Ltmp231:
Lfunc_end96:
	.cfi_endproc

	.globl	__ZN81_$LT$raw_window_handle..uikit..UiKitDisplayHandle$u20$as$u20$core..fmt..Debug$GT$3fmt17h2dfe7e1aca4047e3E
	.p2align	4, 0x90
__ZN81_$LT$raw_window_handle..uikit..UiKitDisplayHandle$u20$as$u20$core..fmt..Debug$GT$3fmt17h2dfe7e1aca4047e3E:
Lfunc_begin97:
	.loc	10 13 0 is_stmt 1
	.cfi_startproc
	pushq	%rbp
	.cfi_def_cfa_offset 16
	.cfi_offset %rbp, -16
	movq	%rsp, %rbp
	.cfi_def_cfa_register %rbp
	subq	$32, %rsp
	movq	%rsi, -24(%rbp)
	movq	%rdi, %rax
	movq	-24(%rbp), %rdi
	movq	%rax, -16(%rbp)
	movq	%rdi, -8(%rbp)
Ltmp232:
	.loc	10 13 10 prologue_end
	leaq	l___unnamed_44(%rip), %rsi
	movl	$18, %edx
	callq	__ZN4core3fmt9Formatter9write_str17hb029d9999327a35fE
	.loc	10 13 15 is_stmt 0
	andb	$1, %al
	movzbl	%al, %eax
	addq	$32, %rsp
	popq	%rbp
	retq
Ltmp233:
Lfunc_end97:
	.cfi_endproc

	.globl	__ZN80_$LT$raw_window_handle..uikit..UiKitWindowHandle$u20$as$u20$core..fmt..Debug$GT$3fmt17hc86d44274f2b1fa3E
	.p2align	4, 0x90
__ZN80_$LT$raw_window_handle..uikit..UiKitWindowHandle$u20$as$u20$core..fmt..Debug$GT$3fmt17hc86d44274f2b1fa3E:
Lfunc_begin98:
	.loc	10 31 0 is_stmt 1
	.cfi_startproc
	pushq	%rbp
	.cfi_def_cfa_offset 16
	.cfi_offset %rbp, -16
	movq	%rsp, %rbp
	.cfi_def_cfa_register %rbp
	pushq	%r14
	pushq	%rbx
	subq	$128, %rsp
	.cfi_offset %rbx, -32
	.cfi_offset %r14, -24
	movq	%rsi, -64(%rbp)
	movq	%rdi, %rax
	movq	-64(%rbp), %rdi
	movq	%rax, -32(%rbp)
	movq	%rdi, -24(%rbp)
Ltmp234:
	.loc	10 34 5 prologue_end
	movq	%rax, -56(%rbp)
	.loc	10 36 5
	movq	%rax, %rcx
	addq	$8, %rcx
	movq	%rcx, -48(%rbp)
	.loc	10 38 5
	addq	$16, %rax
	movq	%rax, -40(%rbp)
	.loc	10 31 10
	leaq	l___unnamed_45(%rip), %rsi
	movl	$17, %edx
	leaq	l___unnamed_46(%rip), %rcx
	movl	$9, %r8d
	leaq	-56(%rbp), %r9
	leaq	l___unnamed_1(%rip), %rax
	leaq	l___unnamed_47(%rip), %r14
	leaq	-48(%rbp), %rbx
	leaq	l___unnamed_48(%rip), %r11
	leaq	-40(%rbp), %r10
	movq	%rax, (%rsp)
	movq	%r14, 8(%rsp)
	movq	$7, 16(%rsp)
	movq	%rbx, 24(%rsp)
	movq	%rax, 32(%rsp)
	movq	%r11, 40(%rsp)
	movq	$18, 48(%rsp)
	movq	%r10, 56(%rsp)
	movq	%rax, 64(%rsp)
	callq	__ZN4core3fmt9Formatter26debug_struct_field3_finish17hf5caeae338c1d93dE
	.loc	10 31 15 is_stmt 0
	andb	$1, %al
	movzbl	%al, %eax
	addq	$128, %rsp
	popq	%rbx
	popq	%r14
	popq	%rbp
	retq
Ltmp235:
Lfunc_end98:
	.cfi_endproc

	.globl	__ZN79_$LT$raw_window_handle..unix..XlibDisplayHandle$u20$as$u20$core..fmt..Debug$GT$3fmt17h19dcdf00a778ec96E
	.p2align	4, 0x90
__ZN79_$LT$raw_window_handle..unix..XlibDisplayHandle$u20$as$u20$core..fmt..Debug$GT$3fmt17h19dcdf00a778ec96E:
Lfunc_begin99:
	.loc	11 15 0 is_stmt 1
	.cfi_startproc
	pushq	%rbp
	.cfi_def_cfa_offset 16
	.cfi_offset %rbp, -16
	movq	%rsp, %rbp
	.cfi_def_cfa_register %rbp
	pushq	%rbx
	subq	$88, %rsp
	.cfi_offset %rbx, -24
	movq	%rsi, -48(%rbp)
	movq	%rdi, %rax
	movq	-48(%rbp), %rdi
	movq	%rax, -24(%rbp)
	movq	%rdi, -16(%rbp)
Ltmp236:
	.loc	11 18 5 prologue_end
	movq	%rax, -40(%rbp)
	.loc	11 25 5
	addq	$8, %rax
	movq	%rax, -32(%rbp)
	.loc	11 15 10
	leaq	l___unnamed_49(%rip), %rsi
	movl	$17, %edx
	leaq	l___unnamed_50(%rip), %rcx
	movl	$7, %r8d
	leaq	-40(%rbp), %r9
	leaq	l___unnamed_1(%rip), %rbx
	leaq	l___unnamed_51(%rip), %r11
	leaq	-32(%rbp), %r10
	leaq	l___unnamed_2(%rip), %rax
	movq	%rbx, (%rsp)
	movq	%r11, 8(%rsp)
	movq	$6, 16(%rsp)
	movq	%r10, 24(%rsp)
	movq	%rax, 32(%rsp)
	callq	__ZN4core3fmt9Formatter26debug_struct_field2_finish17h6d8f05a66ed84642E
	.loc	11 15 15 is_stmt 0
	andb	$1, %al
	movzbl	%al, %eax
	addq	$88, %rsp
	popq	%rbx
	popq	%rbp
	retq
Ltmp237:
Lfunc_end99:
	.cfi_endproc

	.globl	__ZN78_$LT$raw_window_handle..unix..XlibWindowHandle$u20$as$u20$core..fmt..Debug$GT$3fmt17h170a5b8cdc606219E
	.p2align	4, 0x90
__ZN78_$LT$raw_window_handle..unix..XlibWindowHandle$u20$as$u20$core..fmt..Debug$GT$3fmt17h170a5b8cdc606219E:
Lfunc_begin100:
	.loc	11 37 0 is_stmt 1
	.cfi_startproc
	pushq	%rbp
	.cfi_def_cfa_offset 16
	.cfi_offset %rbp, -16
	movq	%rsp, %rbp
	.cfi_def_cfa_register %rbp
	subq	$80, %rsp
	movq	%rsi, -40(%rbp)
	movq	%rdi, %rax
	movq	-40(%rbp), %rdi
	movq	%rax, -16(%rbp)
	movq	%rdi, -8(%rbp)
Ltmp238:
	.loc	11 40 5 prologue_end
	movq	%rax, -32(%rbp)
	.loc	11 42 5
	addq	$8, %rax
	movq	%rax, -24(%rbp)
	.loc	11 37 10
	leaq	L___unnamed_52(%rip), %rsi
	movl	$16, %edx
	leaq	l___unnamed_43(%rip), %rcx
	movl	$6, %r8d
	leaq	-32(%rbp), %r9
	leaq	l___unnamed_3(%rip), %rax
	leaq	l___unnamed_53(%rip), %r11
	leaq	-24(%rbp), %r10
	movq	%rax, (%rsp)
	movq	%r11, 8(%rsp)
	movq	$9, 16(%rsp)
	movq	%r10, 24(%rsp)
	movq	%rax, 32(%rsp)
	callq	__ZN4core3fmt9Formatter26debug_struct_field2_finish17h6d8f05a66ed84642E
	.loc	11 37 15 is_stmt 0
	andb	$1, %al
	movzbl	%al, %eax
	addq	$80, %rsp
	popq	%rbp
	retq
Ltmp239:
Lfunc_end100:
	.cfi_endproc

	.globl	__ZN78_$LT$raw_window_handle..unix..XcbDisplayHandle$u20$as$u20$core..fmt..Debug$GT$3fmt17h11b535316ad3977bE
	.p2align	4, 0x90
__ZN78_$LT$raw_window_handle..unix..XcbDisplayHandle$u20$as$u20$core..fmt..Debug$GT$3fmt17h11b535316ad3977bE:
Lfunc_begin101:
	.loc	11 54 0 is_stmt 1
	.cfi_startproc
	pushq	%rbp
	.cfi_def_cfa_offset 16
	.cfi_offset %rbp, -16
	movq	%rsp, %rbp
	.cfi_def_cfa_register %rbp
	pushq	%rbx
	subq	$88, %rsp
	.cfi_offset %rbx, -24
	movq	%rsi, -48(%rbp)
	movq	%rdi, %rax
	movq	-48(%rbp), %rdi
	movq	%rax, -24(%rbp)
	movq	%rdi, -16(%rbp)
Ltmp240:
	.loc	11 57 5 prologue_end
	movq	%rax, -40(%rbp)
	.loc	11 64 5
	addq	$8, %rax
	movq	%rax, -32(%rbp)
	.loc	11 54 10
	leaq	L___unnamed_54(%rip), %rsi
	movl	$16, %edx
	leaq	l___unnamed_55(%rip), %rcx
	movl	$10, %r8d
	leaq	-40(%rbp), %r9
	leaq	l___unnamed_1(%rip), %rbx
	leaq	l___unnamed_51(%rip), %r11
	leaq	-32(%rbp), %r10
	leaq	l___unnamed_2(%rip), %rax
	movq	%rbx, (%rsp)
	movq	%r11, 8(%rsp)
	movq	$6, 16(%rsp)
	movq	%r10, 24(%rsp)
	movq	%rax, 32(%rsp)
	callq	__ZN4core3fmt9Formatter26debug_struct_field2_finish17h6d8f05a66ed84642E
	.loc	11 54 15 is_stmt 0
	andb	$1, %al
	movzbl	%al, %eax
	addq	$88, %rsp
	popq	%rbx
	popq	%rbp
	retq
Ltmp241:
Lfunc_end101:
	.cfi_endproc

	.globl	__ZN77_$LT$raw_window_handle..unix..XcbWindowHandle$u20$as$u20$core..fmt..Debug$GT$3fmt17hfc3f71a637d1b1f3E
	.p2align	4, 0x90
__ZN77_$LT$raw_window_handle..unix..XcbWindowHandle$u20$as$u20$core..fmt..Debug$GT$3fmt17hfc3f71a637d1b1f3E:
Lfunc_begin102:
	.loc	11 76 0 is_stmt 1
	.cfi_startproc
	pushq	%rbp
	.cfi_def_cfa_offset 16
	.cfi_offset %rbp, -16
	movq	%rsp, %rbp
	.cfi_def_cfa_register %rbp
	subq	$80, %rsp
	movq	%rsi, -40(%rbp)
	movq	%rdi, %rax
	movq	-40(%rbp), %rdi
	movq	%rax, -16(%rbp)
	movq	%rdi, -8(%rbp)
Ltmp242:
	.loc	11 79 5 prologue_end
	movq	%rax, -32(%rbp)
	.loc	11 81 5
	addq	$4, %rax
	movq	%rax, -24(%rbp)
	.loc	11 76 10
	leaq	l___unnamed_56(%rip), %rsi
	movl	$15, %edx
	leaq	l___unnamed_43(%rip), %rcx
	movl	$6, %r8d
	leaq	-32(%rbp), %r9
	leaq	l___unnamed_4(%rip), %rax
	leaq	l___unnamed_53(%rip), %r11
	leaq	-24(%rbp), %r10
	movq	%rax, (%rsp)
	movq	%r11, 8(%rsp)
	movq	$9, 16(%rsp)
	movq	%r10, 24(%rsp)
	movq	%rax, 32(%rsp)
	callq	__ZN4core3fmt9Formatter26debug_struct_field2_finish17h6d8f05a66ed84642E
	.loc	11 76 15 is_stmt 0
	andb	$1, %al
	movzbl	%al, %eax
	addq	$80, %rsp
	popq	%rbp
	retq
Ltmp243:
Lfunc_end102:
	.cfi_endproc

	.globl	__ZN82_$LT$raw_window_handle..unix..WaylandDisplayHandle$u20$as$u20$core..fmt..Debug$GT$3fmt17hfba101e95c15245cE
	.p2align	4, 0x90
__ZN82_$LT$raw_window_handle..unix..WaylandDisplayHandle$u20$as$u20$core..fmt..Debug$GT$3fmt17hfba101e95c15245cE:
Lfunc_begin103:
	.loc	11 93 0 is_stmt 1
	.cfi_startproc
	pushq	%rbp
	.cfi_def_cfa_offset 16
	.cfi_offset %rbp, -16
	movq	%rsp, %rbp
	.cfi_def_cfa_register %rbp
	subq	$48, %rsp
	movq	%rsi, -32(%rbp)
	movq	%rdi, %rax
	movq	-32(%rbp), %rdi
	movq	%rax, -16(%rbp)
	movq	%rdi, -8(%rbp)
Ltmp244:
	.loc	11 96 5 prologue_end
	movq	%rax, -24(%rbp)
	.loc	11 93 10
	leaq	l___unnamed_57(%rip), %rsi
	movl	$20, %edx
	leaq	l___unnamed_50(%rip), %rcx
	movl	$7, %r8d
	leaq	-24(%rbp), %r9
	leaq	l___unnamed_1(%rip), %rax
	movq	%rax, (%rsp)
	callq	__ZN4core3fmt9Formatter26debug_struct_field1_finish17ha7aba2fd90afbefeE
	.loc	11 93 15 is_stmt 0
	andb	$1, %al
	movzbl	%al, %eax
	addq	$48, %rsp
	popq	%rbp
	retq
Ltmp245:
Lfunc_end103:
	.cfi_endproc

	.globl	__ZN81_$LT$raw_window_handle..unix..WaylandWindowHandle$u20$as$u20$core..fmt..Debug$GT$3fmt17hb01cf4f0e89bda44E
	.p2align	4, 0x90
__ZN81_$LT$raw_window_handle..unix..WaylandWindowHandle$u20$as$u20$core..fmt..Debug$GT$3fmt17hb01cf4f0e89bda44E:
Lfunc_begin104:
	.loc	11 108 0 is_stmt 1
	.cfi_startproc
	pushq	%rbp
	.cfi_def_cfa_offset 16
	.cfi_offset %rbp, -16
	movq	%rsp, %rbp
	.cfi_def_cfa_register %rbp
	subq	$48, %rsp
	movq	%rsi, -32(%rbp)
	movq	%rdi, %rax
	movq	-32(%rbp), %rdi
	movq	%rax, -16(%rbp)
	movq	%rdi, -8(%rbp)
Ltmp246:
	.loc	11 111 5 prologue_end
	movq	%rax, -24(%rbp)
	.loc	11 108 10
	leaq	l___unnamed_58(%rip), %rsi
	movl	$19, %edx
	leaq	l___unnamed_59(%rip), %rcx
	movl	$7, %r8d
	leaq	-24(%rbp), %r9
	leaq	l___unnamed_1(%rip), %rax
	movq	%rax, (%rsp)
	callq	__ZN4core3fmt9Formatter26debug_struct_field1_finish17ha7aba2fd90afbefeE
	.loc	11 108 15 is_stmt 0
	andb	$1, %al
	movzbl	%al, %eax
	addq	$48, %rsp
	popq	%rbp
	retq
Ltmp247:
Lfunc_end104:
	.cfi_endproc

	.globl	__ZN78_$LT$raw_window_handle..unix..DrmDisplayHandle$u20$as$u20$core..fmt..Debug$GT$3fmt17hbb1ad6a43a9d954aE
	.p2align	4, 0x90
__ZN78_$LT$raw_window_handle..unix..DrmDisplayHandle$u20$as$u20$core..fmt..Debug$GT$3fmt17hbb1ad6a43a9d954aE:
Lfunc_begin105:
	.loc	11 123 0 is_stmt 1
	.cfi_startproc
	pushq	%rbp
	.cfi_def_cfa_offset 16
	.cfi_offset %rbp, -16
	movq	%rsp, %rbp
	.cfi_def_cfa_register %rbp
	subq	$48, %rsp
	movq	%rsi, -32(%rbp)
	movq	%rdi, %rax
	movq	-32(%rbp), %rdi
	movq	%rax, -16(%rbp)
	movq	%rdi, -8(%rbp)
Ltmp248:
	.loc	11 126 5 prologue_end
	movq	%rax, -24(%rbp)
	.loc	11 123 10
	leaq	L___unnamed_60(%rip), %rsi
	movl	$16, %edx
	leaq	l___unnamed_61(%rip), %rcx
	movl	$2, %r8d
	leaq	-24(%rbp), %r9
	leaq	l___unnamed_2(%rip), %rax
	movq	%rax, (%rsp)
	callq	__ZN4core3fmt9Formatter26debug_struct_field1_finish17ha7aba2fd90afbefeE
	.loc	11 123 15 is_stmt 0
	andb	$1, %al
	movzbl	%al, %eax
	addq	$48, %rsp
	popq	%rbp
	retq
Ltmp249:
Lfunc_end105:
	.cfi_endproc

	.globl	__ZN77_$LT$raw_window_handle..unix..DrmWindowHandle$u20$as$u20$core..fmt..Debug$GT$3fmt17h62845c858fe27d28E
	.p2align	4, 0x90
__ZN77_$LT$raw_window_handle..unix..DrmWindowHandle$u20$as$u20$core..fmt..Debug$GT$3fmt17h62845c858fe27d28E:
Lfunc_begin106:
	.loc	11 138 0 is_stmt 1
	.cfi_startproc
	pushq	%rbp
	.cfi_def_cfa_offset 16
	.cfi_offset %rbp, -16
	movq	%rsp, %rbp
	.cfi_def_cfa_register %rbp
	subq	$48, %rsp
	movq	%rsi, -32(%rbp)
	movq	%rdi, %rax
	movq	-32(%rbp), %rdi
	movq	%rax, -16(%rbp)
	movq	%rdi, -8(%rbp)
Ltmp250:
	.loc	11 141 5 prologue_end
	movq	%rax, -24(%rbp)
	.loc	11 138 10
	leaq	l___unnamed_62(%rip), %rsi
	movl	$15, %edx
	leaq	l___unnamed_63(%rip), %rcx
	movl	$5, %r8d
	leaq	-24(%rbp), %r9
	leaq	l___unnamed_4(%rip), %rax
	movq	%rax, (%rsp)
	callq	__ZN4core3fmt9Formatter26debug_struct_field1_finish17ha7aba2fd90afbefeE
	.loc	11 138 15 is_stmt 0
	andb	$1, %al
	movzbl	%al, %eax
	addq	$48, %rsp
	popq	%rbp
	retq
Ltmp251:
Lfunc_end106:
	.cfi_endproc

	.globl	__ZN78_$LT$raw_window_handle..unix..GbmDisplayHandle$u20$as$u20$core..fmt..Debug$GT$3fmt17he462e60b954e2681E
	.p2align	4, 0x90
__ZN78_$LT$raw_window_handle..unix..GbmDisplayHandle$u20$as$u20$core..fmt..Debug$GT$3fmt17he462e60b954e2681E:
Lfunc_begin107:
	.loc	11 153 0 is_stmt 1
	.cfi_startproc
	pushq	%rbp
	.cfi_def_cfa_offset 16
	.cfi_offset %rbp, -16
	movq	%rsp, %rbp
	.cfi_def_cfa_register %rbp
	subq	$48, %rsp
	movq	%rsi, -32(%rbp)
	movq	%rdi, %rax
	movq	-32(%rbp), %rdi
	movq	%rax, -16(%rbp)
	movq	%rdi, -8(%rbp)
Ltmp252:
	.loc	11 156 5 prologue_end
	movq	%rax, -24(%rbp)
	.loc	11 153 10
	leaq	L___unnamed_64(%rip), %rsi
	movl	$16, %edx
	leaq	l___unnamed_65(%rip), %rcx
	movl	$10, %r8d
	leaq	-24(%rbp), %r9
	leaq	l___unnamed_1(%rip), %rax
	movq	%rax, (%rsp)
	callq	__ZN4core3fmt9Formatter26debug_struct_field1_finish17ha7aba2fd90afbefeE
	.loc	11 153 15 is_stmt 0
	andb	$1, %al
	movzbl	%al, %eax
	addq	$48, %rsp
	popq	%rbp
	retq
Ltmp253:
Lfunc_end107:
	.cfi_endproc

	.globl	__ZN77_$LT$raw_window_handle..unix..GbmWindowHandle$u20$as$u20$core..fmt..Debug$GT$3fmt17hc61e1d52db1d8e89E
	.p2align	4, 0x90
__ZN77_$LT$raw_window_handle..unix..GbmWindowHandle$u20$as$u20$core..fmt..Debug$GT$3fmt17hc61e1d52db1d8e89E:
Lfunc_begin108:
	.loc	11 168 0 is_stmt 1
	.cfi_startproc
	pushq	%rbp
	.cfi_def_cfa_offset 16
	.cfi_offset %rbp, -16
	movq	%rsp, %rbp
	.cfi_def_cfa_register %rbp
	subq	$48, %rsp
	movq	%rsi, -32(%rbp)
	movq	%rdi, %rax
	movq	-32(%rbp), %rdi
	movq	%rax, -16(%rbp)
	movq	%rdi, -8(%rbp)
Ltmp254:
	.loc	11 171 5 prologue_end
	movq	%rax, -24(%rbp)
	.loc	11 168 10
	leaq	l___unnamed_66(%rip), %rsi
	movl	$15, %edx
	leaq	l___unnamed_67(%rip), %rcx
	movl	$11, %r8d
	leaq	-24(%rbp), %r9
	leaq	l___unnamed_1(%rip), %rax
	movq	%rax, (%rsp)
	callq	__ZN4core3fmt9Formatter26debug_struct_field1_finish17ha7aba2fd90afbefeE
	.loc	11 168 15 is_stmt 0
	andb	$1, %al
	movzbl	%al, %eax
	addq	$48, %rsp
	popq	%rbp
	retq
Ltmp255:
Lfunc_end108:
	.cfi_endproc

	.globl	__ZN77_$LT$raw_window_handle..web..WebDisplayHandle$u20$as$u20$core..fmt..Debug$GT$3fmt17h490efe373a61a668E
	.p2align	4, 0x90
__ZN77_$LT$raw_window_handle..web..WebDisplayHandle$u20$as$u20$core..fmt..Debug$GT$3fmt17h490efe373a61a668E:
Lfunc_begin109:
	.loc	12 10 0 is_stmt 1
	.cfi_startproc
	pushq	%rbp
	.cfi_def_cfa_offset 16
	.cfi_offset %rbp, -16
	movq	%rsp, %rbp
	.cfi_def_cfa_register %rbp
	subq	$32, %rsp
	movq	%rsi, -24(%rbp)
	movq	%rdi, %rax
	movq	-24(%rbp), %rdi
	movq	%rax, -16(%rbp)
	movq	%rdi, -8(%rbp)
Ltmp256:
	.loc	12 10 10 prologue_end
	leaq	L___unnamed_68(%rip), %rsi
	movl	$16, %edx
	callq	__ZN4core3fmt9Formatter9write_str17hb029d9999327a35fE
	.loc	12 10 15 is_stmt 0
	andb	$1, %al
	movzbl	%al, %eax
	addq	$32, %rsp
	popq	%rbp
	retq
Ltmp257:
Lfunc_end109:
	.cfi_endproc

	.globl	__ZN76_$LT$raw_window_handle..web..WebWindowHandle$u20$as$u20$core..fmt..Debug$GT$3fmt17hc3c167db46942b12E
	.p2align	4, 0x90
__ZN76_$LT$raw_window_handle..web..WebWindowHandle$u20$as$u20$core..fmt..Debug$GT$3fmt17hc3c167db46942b12E:
Lfunc_begin110:
	.loc	12 28 0 is_stmt 1
	.cfi_startproc
	pushq	%rbp
	.cfi_def_cfa_offset 16
	.cfi_offset %rbp, -16
	movq	%rsp, %rbp
	.cfi_def_cfa_register %rbp
	subq	$48, %rsp
	movq	%rsi, -32(%rbp)
	movq	%rdi, %rax
	movq	-32(%rbp), %rdi
	movq	%rax, -16(%rbp)
	movq	%rdi, -8(%rbp)
Ltmp258:
	.loc	12 38 5 prologue_end
	movq	%rax, -24(%rbp)
	.loc	12 28 10
	leaq	l___unnamed_69(%rip), %rsi
	movl	$15, %edx
	leaq	l___unnamed_70(%rip), %rcx
	movl	$2, %r8d
	leaq	-24(%rbp), %r9
	leaq	l___unnamed_4(%rip), %rax
	movq	%rax, (%rsp)
	callq	__ZN4core3fmt9Formatter26debug_struct_field1_finish17ha7aba2fd90afbefeE
	.loc	12 28 15 is_stmt 0
	andb	$1, %al
	movzbl	%al, %eax
	addq	$48, %rsp
	popq	%rbp
	retq
Ltmp259:
Lfunc_end110:
	.cfi_endproc

	.globl	__ZN85_$LT$raw_window_handle..windows..WindowsDisplayHandle$u20$as$u20$core..fmt..Debug$GT$3fmt17h0ada8fd13f6bda1aE
	.p2align	4, 0x90
__ZN85_$LT$raw_window_handle..windows..WindowsDisplayHandle$u20$as$u20$core..fmt..Debug$GT$3fmt17h0ada8fd13f6bda1aE:
Lfunc_begin111:
	.loc	13 15 0 is_stmt 1
	.cfi_startproc
	pushq	%rbp
	.cfi_def_cfa_offset 16
	.cfi_offset %rbp, -16
	movq	%rsp, %rbp
	.cfi_def_cfa_register %rbp
	subq	$32, %rsp
	movq	%rsi, -24(%rbp)
	movq	%rdi, %rax
	movq	-24(%rbp), %rdi
	movq	%rax, -16(%rbp)
	movq	%rdi, -8(%rbp)
Ltmp260:
	.loc	13 15 10 prologue_end
	leaq	l___unnamed_71(%rip), %rsi
	movl	$20, %edx
	callq	__ZN4core3fmt9Formatter9write_str17hb029d9999327a35fE
	.loc	13 15 15 is_stmt 0
	andb	$1, %al
	movzbl	%al, %eax
	addq	$32, %rsp
	popq	%rbp
	retq
Ltmp261:
Lfunc_end111:
	.cfi_endproc

	.globl	__ZN82_$LT$raw_window_handle..windows..Win32WindowHandle$u20$as$u20$core..fmt..Debug$GT$3fmt17h6af828b22199fa23E
	.p2align	4, 0x90
__ZN82_$LT$raw_window_handle..windows..Win32WindowHandle$u20$as$u20$core..fmt..Debug$GT$3fmt17h6af828b22199fa23E:
Lfunc_begin112:
	.loc	13 33 0 is_stmt 1
	.cfi_startproc
	pushq	%rbp
	.cfi_def_cfa_offset 16
	.cfi_offset %rbp, -16
	movq	%rsp, %rbp
	.cfi_def_cfa_register %rbp
	subq	$80, %rsp
	movq	%rsi, -40(%rbp)
	movq	%rdi, %rax
	movq	-40(%rbp), %rdi
	movq	%rax, -16(%rbp)
	movq	%rdi, -8(%rbp)
Ltmp262:
	.loc	13 36 5 prologue_end
	movq	%rax, -32(%rbp)
	.loc	13 38 5
	addq	$8, %rax
	movq	%rax, -24(%rbp)
	.loc	13 33 10
	leaq	l___unnamed_72(%rip), %rsi
	movl	$17, %edx
	leaq	L___unnamed_73(%rip), %rcx
	movl	$4, %r8d
	leaq	-32(%rbp), %r9
	leaq	l___unnamed_1(%rip), %rax
	leaq	l___unnamed_74(%rip), %r11
	leaq	-24(%rbp), %r10
	movq	%rax, (%rsp)
	movq	%r11, 8(%rsp)
	movq	$9, 16(%rsp)
	movq	%r10, 24(%rsp)
	movq	%rax, 32(%rsp)
	callq	__ZN4core3fmt9Formatter26debug_struct_field2_finish17h6d8f05a66ed84642E
	.loc	13 33 15 is_stmt 0
	andb	$1, %al
	movzbl	%al, %eax
	addq	$80, %rsp
	popq	%rbp
	retq
Ltmp263:
Lfunc_end112:
	.cfi_endproc

	.globl	__ZN82_$LT$raw_window_handle..windows..WinRtWindowHandle$u20$as$u20$core..fmt..Debug$GT$3fmt17h560ba39b118c6780E
	.p2align	4, 0x90
__ZN82_$LT$raw_window_handle..windows..WinRtWindowHandle$u20$as$u20$core..fmt..Debug$GT$3fmt17h560ba39b118c6780E:
Lfunc_begin113:
	.loc	13 59 0 is_stmt 1
	.cfi_startproc
	pushq	%rbp
	.cfi_def_cfa_offset 16
	.cfi_offset %rbp, -16
	movq	%rsp, %rbp
	.cfi_def_cfa_register %rbp
	subq	$48, %rsp
	movq	%rsi, -32(%rbp)
	movq	%rdi, %rax
	movq	-32(%rbp), %rdi
	movq	%rax, -16(%rbp)
	movq	%rdi, -8(%rbp)
Ltmp264:
	.loc	13 62 5 prologue_end
	movq	%rax, -24(%rbp)
	.loc	13 59 10
	leaq	l___unnamed_75(%rip), %rsi
	movl	$17, %edx
	leaq	l___unnamed_76(%rip), %rcx
	movl	$11, %r8d
	leaq	-24(%rbp), %r9
	leaq	l___unnamed_1(%rip), %rax
	movq	%rax, (%rsp)
	callq	__ZN4core3fmt9Formatter26debug_struct_field1_finish17ha7aba2fd90afbefeE
	.loc	13 59 15 is_stmt 0
	andb	$1, %al
	movzbl	%al, %eax
	addq	$48, %rsp
	popq	%rbp
	retq
Ltmp265:
Lfunc_end113:
	.cfi_endproc

	.globl	__ZN71_$LT$raw_window_handle..RawWindowHandle$u20$as$u20$core..fmt..Debug$GT$3fmt17hfc2f579381fbc18dE
	.p2align	4, 0x90
__ZN71_$LT$raw_window_handle..RawWindowHandle$u20$as$u20$core..fmt..Debug$GT$3fmt17hfc2f579381fbc18dE:
Lfunc_begin114:
	.file	14 "/Users/natalie/.cargo/registry/src/github.com-1ecc6299db9ec823/raw-window-handle-0.5.0" "src/lib.rs"
	.loc	14 98 0 is_stmt 1
	.cfi_startproc
	pushq	%rbp
	.cfi_def_cfa_offset 16
	.cfi_offset %rbp, -16
	movq	%rsp, %rbp
	.cfi_def_cfa_register %rbp
	subq	$160, %rsp
	movq	%rdi, -152(%rbp)
	movq	%rsi, -144(%rbp)
	movq	%rdi, -16(%rbp)
	movq	%rsi, -8(%rbp)
Ltmp266:
	.loc	14 98 10 prologue_end
	movl	(%rdi), %eax
	movq	%rax, -136(%rbp)
	.loc	14 0 10 is_stmt 0
	movq	-136(%rbp), %rax
	leaq	LJTI114_0(%rip), %rcx
	movslq	(%rcx,%rax,4), %rax
	addq	%rcx, %rax
	jmpq	*%rax
	.loc	14 98 10
	ud2
LBB114_2:
	.loc	14 0 10
	movq	-144(%rbp), %rdi
	movq	-152(%rbp), %rax
	.loc	14 107 11 is_stmt 1
	addq	$8, %rax
	movq	%rax, -120(%rbp)
Ltmp267:
	.loc	14 98 10
	leaq	l___unnamed_77(%rip), %rsi
	movl	$5, %edx
	leaq	-120(%rbp), %rcx
	leaq	l___unnamed_17(%rip), %r8
	callq	__ZN4core3fmt9Formatter25debug_tuple_field1_finish17h7c0e485bb1c7676eE
	andb	$1, %al
	movb	%al, -121(%rbp)
	jmp	LBB114_15
Ltmp268:
LBB114_3:
	.loc	14 0 10 is_stmt 0
	movq	-144(%rbp), %rdi
	movq	-152(%rbp), %rax
	.loc	14 114 12 is_stmt 1
	addq	$8, %rax
	movq	%rax, -112(%rbp)
Ltmp269:
	.loc	14 98 10
	leaq	l___unnamed_78(%rip), %rsi
	movl	$6, %edx
	leaq	-112(%rbp), %rcx
	leaq	l___unnamed_16(%rip), %r8
	callq	__ZN4core3fmt9Formatter25debug_tuple_field1_finish17h7c0e485bb1c7676eE
	andb	$1, %al
	movb	%al, -121(%rbp)
	jmp	LBB114_15
Ltmp270:
LBB114_4:
	.loc	14 0 10 is_stmt 0
	movq	-144(%rbp), %rdi
	movq	-152(%rbp), %rax
	.loc	14 120 13 is_stmt 1
	addq	$8, %rax
	movq	%rax, -104(%rbp)
Ltmp271:
	.loc	14 98 10
	leaq	l___unnamed_79(%rip), %rsi
	movl	$7, %edx
	leaq	-104(%rbp), %rcx
	leaq	l___unnamed_15(%rip), %r8
	callq	__ZN4core3fmt9Formatter25debug_tuple_field1_finish17h7c0e485bb1c7676eE
	andb	$1, %al
	movb	%al, -121(%rbp)
	jmp	LBB114_15
Ltmp272:
LBB114_5:
	.loc	14 0 10 is_stmt 0
	movq	-144(%rbp), %rdi
	movq	-152(%rbp), %rax
	.loc	14 127 10 is_stmt 1
	addq	$8, %rax
	movq	%rax, -96(%rbp)
Ltmp273:
	.loc	14 98 10
	leaq	L___unnamed_80(%rip), %rsi
	movl	$4, %edx
	leaq	-96(%rbp), %rcx
	leaq	l___unnamed_14(%rip), %r8
	callq	__ZN4core3fmt9Formatter25debug_tuple_field1_finish17h7c0e485bb1c7676eE
	andb	$1, %al
	movb	%al, -121(%rbp)
	jmp	LBB114_15
Ltmp274:
LBB114_6:
	.loc	14 0 10 is_stmt 0
	movq	-144(%rbp), %rdi
	movq	-152(%rbp), %rax
	.loc	14 134 9 is_stmt 1
	addq	$4, %rax
	movq	%rax, -88(%rbp)
Ltmp275:
	.loc	14 98 10
	leaq	l___unnamed_81(%rip), %rsi
	movl	$3, %edx
	leaq	-88(%rbp), %rcx
	leaq	l___unnamed_13(%rip), %r8
	callq	__ZN4core3fmt9Formatter25debug_tuple_field1_finish17h7c0e485bb1c7676eE
	andb	$1, %al
	movb	%al, -121(%rbp)
	jmp	LBB114_15
Ltmp276:
LBB114_7:
	.loc	14 0 10 is_stmt 0
	movq	-144(%rbp), %rdi
	movq	-152(%rbp), %rax
	.loc	14 140 13 is_stmt 1
	addq	$8, %rax
	movq	%rax, -80(%rbp)
Ltmp277:
	.loc	14 98 10
	leaq	l___unnamed_82(%rip), %rsi
	movl	$7, %edx
	leaq	-80(%rbp), %rcx
	leaq	l___unnamed_12(%rip), %r8
	callq	__ZN4core3fmt9Formatter25debug_tuple_field1_finish17h7c0e485bb1c7676eE
	andb	$1, %al
	movb	%al, -121(%rbp)
	jmp	LBB114_15
Ltmp278:
LBB114_8:
	.loc	14 0 10 is_stmt 0
	movq	-144(%rbp), %rdi
	movq	-152(%rbp), %rax
	.loc	14 145 9 is_stmt 1
	addq	$4, %rax
	movq	%rax, -72(%rbp)
Ltmp279:
	.loc	14 98 10
	leaq	l___unnamed_83(%rip), %rsi
	movl	$3, %edx
	leaq	-72(%rbp), %rcx
	leaq	l___unnamed_11(%rip), %r8
	callq	__ZN4core3fmt9Formatter25debug_tuple_field1_finish17h7c0e485bb1c7676eE
	andb	$1, %al
	movb	%al, -121(%rbp)
	jmp	LBB114_15
Ltmp280:
LBB114_9:
	.loc	14 0 10 is_stmt 0
	movq	-144(%rbp), %rdi
	movq	-152(%rbp), %rax
	.loc	14 151 9 is_stmt 1
	addq	$8, %rax
	movq	%rax, -64(%rbp)
Ltmp281:
	.loc	14 98 10
	leaq	l___unnamed_84(%rip), %rsi
	movl	$3, %edx
	leaq	-64(%rbp), %rcx
	leaq	l___unnamed_10(%rip), %r8
	callq	__ZN4core3fmt9Formatter25debug_tuple_field1_finish17h7c0e485bb1c7676eE
	andb	$1, %al
	movb	%al, -121(%rbp)
	jmp	LBB114_15
Ltmp282:
LBB114_10:
	.loc	14 0 10 is_stmt 0
	movq	-144(%rbp), %rdi
	movq	-152(%rbp), %rax
	.loc	14 156 11 is_stmt 1
	addq	$8, %rax
	movq	%rax, -56(%rbp)
Ltmp283:
	.loc	14 98 10
	leaq	l___unnamed_85(%rip), %rsi
	movl	$5, %edx
	leaq	-56(%rbp), %rcx
	leaq	l___unnamed_9(%rip), %r8
	callq	__ZN4core3fmt9Formatter25debug_tuple_field1_finish17h7c0e485bb1c7676eE
	andb	$1, %al
	movb	%al, -121(%rbp)
	jmp	LBB114_15
Ltmp284:
LBB114_11:
	.loc	14 0 10 is_stmt 0
	movq	-144(%rbp), %rdi
	movq	-152(%rbp), %rax
	.loc	14 161 11 is_stmt 1
	addq	$8, %rax
	movq	%rax, -48(%rbp)
Ltmp285:
	.loc	14 98 10
	leaq	l___unnamed_86(%rip), %rsi
	movl	$5, %edx
	leaq	-48(%rbp), %rcx
	leaq	l___unnamed_8(%rip), %r8
	callq	__ZN4core3fmt9Formatter25debug_tuple_field1_finish17h7c0e485bb1c7676eE
	andb	$1, %al
	movb	%al, -121(%rbp)
	jmp	LBB114_15
Ltmp286:
LBB114_12:
	.loc	14 0 10 is_stmt 0
	movq	-144(%rbp), %rdi
	movq	-152(%rbp), %rax
	.loc	14 166 9 is_stmt 1
	addq	$4, %rax
	movq	%rax, -40(%rbp)
Ltmp287:
	.loc	14 98 10
	leaq	l___unnamed_87(%rip), %rsi
	movl	$3, %edx
	leaq	-40(%rbp), %rcx
	leaq	l___unnamed_7(%rip), %r8
	callq	__ZN4core3fmt9Formatter25debug_tuple_field1_finish17h7c0e485bb1c7676eE
	andb	$1, %al
	movb	%al, -121(%rbp)
	jmp	LBB114_15
Ltmp288:
LBB114_13:
	.loc	14 0 10 is_stmt 0
	movq	-144(%rbp), %rdi
	movq	-152(%rbp), %rax
	.loc	14 171 16 is_stmt 1
	addq	$8, %rax
	movq	%rax, -32(%rbp)
Ltmp289:
	.loc	14 98 10
	leaq	l___unnamed_88(%rip), %rsi
	movl	$10, %edx
	leaq	-32(%rbp), %rcx
	leaq	l___unnamed_6(%rip), %r8
	callq	__ZN4core3fmt9Formatter25debug_tuple_field1_finish17h7c0e485bb1c7676eE
	andb	$1, %al
	movb	%al, -121(%rbp)
	jmp	LBB114_15
Ltmp290:
LBB114_14:
	.loc	14 0 10 is_stmt 0
	movq	-144(%rbp), %rdi
	movq	-152(%rbp), %rax
	.loc	14 176 11 is_stmt 1
	addq	$8, %rax
	movq	%rax, -24(%rbp)
Ltmp291:
	.loc	14 98 10
	leaq	l___unnamed_89(%rip), %rsi
	movl	$5, %edx
	leaq	-24(%rbp), %rcx
	leaq	l___unnamed_5(%rip), %r8
	callq	__ZN4core3fmt9Formatter25debug_tuple_field1_finish17h7c0e485bb1c7676eE
	andb	$1, %al
	movb	%al, -121(%rbp)
Ltmp292:
LBB114_15:
	.loc	14 98 15 is_stmt 0
	movb	-121(%rbp), %al
	andb	$1, %al
	movzbl	%al, %eax
	addq	$160, %rsp
	popq	%rbp
	retq
Ltmp293:
Lfunc_end114:
	.cfi_endproc
	.p2align	2, 0x90
	.data_region jt32
.set L114_0_set_2, LBB114_2-LJTI114_0
.set L114_0_set_3, LBB114_3-LJTI114_0
.set L114_0_set_4, LBB114_4-LJTI114_0
.set L114_0_set_5, LBB114_5-LJTI114_0
.set L114_0_set_6, LBB114_6-LJTI114_0
.set L114_0_set_7, LBB114_7-LJTI114_0
.set L114_0_set_8, LBB114_8-LJTI114_0
.set L114_0_set_9, LBB114_9-LJTI114_0
.set L114_0_set_10, LBB114_10-LJTI114_0
.set L114_0_set_11, LBB114_11-LJTI114_0
.set L114_0_set_12, LBB114_12-LJTI114_0
.set L114_0_set_13, LBB114_13-LJTI114_0
.set L114_0_set_14, LBB114_14-LJTI114_0
LJTI114_0:
	.long	L114_0_set_2
	.long	L114_0_set_3
	.long	L114_0_set_4
	.long	L114_0_set_5
	.long	L114_0_set_6
	.long	L114_0_set_7
	.long	L114_0_set_8
	.long	L114_0_set_9
	.long	L114_0_set_10
	.long	L114_0_set_11
	.long	L114_0_set_12
	.long	L114_0_set_13
	.long	L114_0_set_14
	.end_data_region

	.globl	__ZN72_$LT$raw_window_handle..RawDisplayHandle$u20$as$u20$core..fmt..Debug$GT$3fmt17h6ac197f9b699edb8E
	.p2align	4, 0x90
__ZN72_$LT$raw_window_handle..RawDisplayHandle$u20$as$u20$core..fmt..Debug$GT$3fmt17h6ac197f9b699edb8E:
Lfunc_begin115:
	.loc	14 233 0 is_stmt 1
	.cfi_startproc
	pushq	%rbp
	.cfi_def_cfa_offset 16
	.cfi_offset %rbp, -16
	movq	%rsp, %rbp
	.cfi_def_cfa_register %rbp
	subq	$144, %rsp
	movq	%rdi, -144(%rbp)
	movq	%rsi, -136(%rbp)
	movq	%rdi, -16(%rbp)
	movq	%rsi, -8(%rbp)
Ltmp294:
	.loc	14 233 10 prologue_end
	movl	(%rdi), %eax
	movq	%rax, -128(%rbp)
	.loc	14 0 10 is_stmt 0
	movq	-128(%rbp), %rax
	leaq	LJTI115_0(%rip), %rcx
	movslq	(%rcx,%rax,4), %rax
	addq	%rcx, %rax
	jmpq	*%rax
	.loc	14 233 10
	ud2
LBB115_2:
	.loc	14 0 10
	movq	-136(%rbp), %rdi
	movq	-144(%rbp), %rax
	.loc	14 242 11 is_stmt 1
	addq	$4, %rax
	movq	%rax, -112(%rbp)
Ltmp295:
	.loc	14 233 10
	leaq	l___unnamed_77(%rip), %rsi
	movl	$5, %edx
	leaq	-112(%rbp), %rcx
	leaq	l___unnamed_29(%rip), %r8
	callq	__ZN4core3fmt9Formatter25debug_tuple_field1_finish17h7c0e485bb1c7676eE
	andb	$1, %al
	movb	%al, -113(%rbp)
	jmp	LBB115_14
Ltmp296:
LBB115_3:
	.loc	14 0 10 is_stmt 0
	movq	-136(%rbp), %rdi
	movq	-144(%rbp), %rax
	.loc	14 249 12 is_stmt 1
	addq	$4, %rax
	movq	%rax, -104(%rbp)
Ltmp297:
	.loc	14 233 10
	leaq	l___unnamed_78(%rip), %rsi
	movl	$6, %edx
	leaq	-104(%rbp), %rcx
	leaq	l___unnamed_28(%rip), %r8
	callq	__ZN4core3fmt9Formatter25debug_tuple_field1_finish17h7c0e485bb1c7676eE
	andb	$1, %al
	movb	%al, -113(%rbp)
	jmp	LBB115_14
Ltmp298:
LBB115_4:
	.loc	14 0 10 is_stmt 0
	movq	-136(%rbp), %rdi
	movq	-144(%rbp), %rax
	.loc	14 255 13 is_stmt 1
	addq	$4, %rax
	movq	%rax, -96(%rbp)
Ltmp299:
	.loc	14 233 10
	leaq	l___unnamed_79(%rip), %rsi
	movl	$7, %edx
	leaq	-96(%rbp), %rcx
	leaq	l___unnamed_27(%rip), %r8
	callq	__ZN4core3fmt9Formatter25debug_tuple_field1_finish17h7c0e485bb1c7676eE
	andb	$1, %al
	movb	%al, -113(%rbp)
	jmp	LBB115_14
Ltmp300:
LBB115_5:
	.loc	14 0 10 is_stmt 0
	movq	-136(%rbp), %rdi
	movq	-144(%rbp), %rax
	.loc	14 262 10 is_stmt 1
	addq	$8, %rax
	movq	%rax, -88(%rbp)
Ltmp301:
	.loc	14 233 10
	leaq	L___unnamed_80(%rip), %rsi
	movl	$4, %edx
	leaq	-88(%rbp), %rcx
	leaq	l___unnamed_26(%rip), %r8
	callq	__ZN4core3fmt9Formatter25debug_tuple_field1_finish17h7c0e485bb1c7676eE
	andb	$1, %al
	movb	%al, -113(%rbp)
	jmp	LBB115_14
Ltmp302:
LBB115_6:
	.loc	14 0 10 is_stmt 0
	movq	-136(%rbp), %rdi
	movq	-144(%rbp), %rax
	.loc	14 269 9 is_stmt 1
	addq	$8, %rax
	movq	%rax, -80(%rbp)
Ltmp303:
	.loc	14 233 10
	leaq	l___unnamed_81(%rip), %rsi
	movl	$3, %edx
	leaq	-80(%rbp), %rcx
	leaq	l___unnamed_25(%rip), %r8
	callq	__ZN4core3fmt9Formatter25debug_tuple_field1_finish17h7c0e485bb1c7676eE
	andb	$1, %al
	movb	%al, -113(%rbp)
	jmp	LBB115_14
Ltmp304:
LBB115_7:
	.loc	14 0 10 is_stmt 0
	movq	-136(%rbp), %rdi
	movq	-144(%rbp), %rax
	.loc	14 275 13 is_stmt 1
	addq	$8, %rax
	movq	%rax, -72(%rbp)
Ltmp305:
	.loc	14 233 10
	leaq	l___unnamed_82(%rip), %rsi
	movl	$7, %edx
	leaq	-72(%rbp), %rcx
	leaq	l___unnamed_24(%rip), %r8
	callq	__ZN4core3fmt9Formatter25debug_tuple_field1_finish17h7c0e485bb1c7676eE
	andb	$1, %al
	movb	%al, -113(%rbp)
	jmp	LBB115_14
Ltmp306:
LBB115_8:
	.loc	14 0 10 is_stmt 0
	movq	-136(%rbp), %rdi
	movq	-144(%rbp), %rax
	.loc	14 280 9 is_stmt 1
	addq	$4, %rax
	movq	%rax, -64(%rbp)
Ltmp307:
	.loc	14 233 10
	leaq	l___unnamed_83(%rip), %rsi
	movl	$3, %edx
	leaq	-64(%rbp), %rcx
	leaq	l___unnamed_23(%rip), %r8
	callq	__ZN4core3fmt9Formatter25debug_tuple_field1_finish17h7c0e485bb1c7676eE
	andb	$1, %al
	movb	%al, -113(%rbp)
	jmp	LBB115_14
Ltmp308:
LBB115_9:
	.loc	14 0 10 is_stmt 0
	movq	-136(%rbp), %rdi
	movq	-144(%rbp), %rax
	.loc	14 286 9 is_stmt 1
	addq	$8, %rax
	movq	%rax, -56(%rbp)
Ltmp309:
	.loc	14 233 10
	leaq	l___unnamed_84(%rip), %rsi
	movl	$3, %edx
	leaq	-56(%rbp), %rcx
	leaq	l___unnamed_22(%rip), %r8
	callq	__ZN4core3fmt9Formatter25debug_tuple_field1_finish17h7c0e485bb1c7676eE
	andb	$1, %al
	movb	%al, -113(%rbp)
	jmp	LBB115_14
Ltmp310:
LBB115_10:
	.loc	14 0 10 is_stmt 0
	movq	-136(%rbp), %rdi
	movq	-144(%rbp), %rax
	.loc	14 291 13 is_stmt 1
	addq	$4, %rax
	movq	%rax, -48(%rbp)
Ltmp311:
	.loc	14 233 10
	leaq	l___unnamed_90(%rip), %rsi
	movl	$7, %edx
	leaq	-48(%rbp), %rcx
	leaq	l___unnamed_21(%rip), %r8
	callq	__ZN4core3fmt9Formatter25debug_tuple_field1_finish17h7c0e485bb1c7676eE
	andb	$1, %al
	movb	%al, -113(%rbp)
	jmp	LBB115_14
Ltmp312:
LBB115_11:
	.loc	14 0 10 is_stmt 0
	movq	-136(%rbp), %rdi
	movq	-144(%rbp), %rax
	.loc	14 296 9 is_stmt 1
	addq	$4, %rax
	movq	%rax, -40(%rbp)
Ltmp313:
	.loc	14 233 10
	leaq	l___unnamed_87(%rip), %rsi
	movl	$3, %edx
	leaq	-40(%rbp), %rcx
	leaq	l___unnamed_20(%rip), %r8
	callq	__ZN4core3fmt9Formatter25debug_tuple_field1_finish17h7c0e485bb1c7676eE
	andb	$1, %al
	movb	%al, -113(%rbp)
	jmp	LBB115_14
Ltmp314:
LBB115_12:
	.loc	14 0 10 is_stmt 0
	movq	-136(%rbp), %rdi
	movq	-144(%rbp), %rax
	.loc	14 301 13 is_stmt 1
	addq	$4, %rax
	movq	%rax, -32(%rbp)
Ltmp315:
	.loc	14 233 10
	leaq	l___unnamed_91(%rip), %rsi
	movl	$7, %edx
	leaq	-32(%rbp), %rcx
	leaq	l___unnamed_19(%rip), %r8
	callq	__ZN4core3fmt9Formatter25debug_tuple_field1_finish17h7c0e485bb1c7676eE
	andb	$1, %al
	movb	%al, -113(%rbp)
	jmp	LBB115_14
Ltmp316:
LBB115_13:
	.loc	14 0 10 is_stmt 0
	movq	-136(%rbp), %rdi
	movq	-144(%rbp), %rax
	.loc	14 306 11 is_stmt 1
	addq	$4, %rax
	movq	%rax, -24(%rbp)
Ltmp317:
	.loc	14 233 10
	leaq	l___unnamed_89(%rip), %rsi
	movl	$5, %edx
	leaq	-24(%rbp), %rcx
	leaq	l___unnamed_18(%rip), %r8
	callq	__ZN4core3fmt9Formatter25debug_tuple_field1_finish17h7c0e485bb1c7676eE
	andb	$1, %al
	movb	%al, -113(%rbp)
Ltmp318:
LBB115_14:
	.loc	14 233 15 is_stmt 0
	movb	-113(%rbp), %al
	andb	$1, %al
	movzbl	%al, %eax
	addq	$144, %rsp
	popq	%rbp
	retq
Ltmp319:
Lfunc_end115:
	.cfi_endproc
	.p2align	2, 0x90
	.data_region jt32
.set L115_0_set_2, LBB115_2-LJTI115_0
.set L115_0_set_3, LBB115_3-LJTI115_0
.set L115_0_set_4, LBB115_4-LJTI115_0
.set L115_0_set_5, LBB115_5-LJTI115_0
.set L115_0_set_6, LBB115_6-LJTI115_0
.set L115_0_set_7, LBB115_7-LJTI115_0
.set L115_0_set_8, LBB115_8-LJTI115_0
.set L115_0_set_9, LBB115_9-LJTI115_0
.set L115_0_set_10, LBB115_10-LJTI115_0
.set L115_0_set_11, LBB115_11-LJTI115_0
.set L115_0_set_12, LBB115_12-LJTI115_0
.set L115_0_set_13, LBB115_13-LJTI115_0
LJTI115_0:
	.long	L115_0_set_2
	.long	L115_0_set_3
	.long	L115_0_set_4
	.long	L115_0_set_5
	.long	L115_0_set_6
	.long	L115_0_set_7
	.long	L115_0_set_8
	.long	L115_0_set_9
	.long	L115_0_set_10
	.long	L115_0_set_11
	.long	L115_0_set_12
	.long	L115_0_set_13
	.end_data_region

	.section	__TEXT,__const
l___unnamed_30:
	.ascii	"AndroidDisplayHandle"

l___unnamed_31:
	.ascii	"AndroidNdkWindowHandle"

l___unnamed_32:
	.ascii	"a_native_window"

	.section	__DATA,__const
	.p2align	3
l___unnamed_1:
	.quad	__ZN4core3ptr54drop_in_place$LT$$RF$$BP$mut$u20$core..ffi..c_void$GT$17hedfe2e33406b4dc9E
	.asciz	"\b\000\000\000\000\000\000\000\b\000\000\000\000\000\000"
	.quad	__ZN42_$LT$$RF$T$u20$as$u20$core..fmt..Debug$GT$3fmt17h28158b1a216a28a4E

	.section	__TEXT,__const
l___unnamed_33:
	.ascii	"AppKitDisplayHandle"

l___unnamed_34:
	.ascii	"AppKitWindowHandle"

l___unnamed_35:
	.ascii	"ns_window"

l___unnamed_36:
	.ascii	"ns_view"

l___unnamed_37:
	.ascii	"HaikuDisplayHandle"

l___unnamed_38:
	.ascii	"HaikuWindowHandle"

	.section	__TEXT,__literal8,8byte_literals
L___unnamed_39:
	.ascii	"b_window"

	.section	__TEXT,__const
l___unnamed_40:
	.ascii	"b_direct_window"

l___unnamed_41:
	.ascii	"OrbitalDisplayHandle"

l___unnamed_42:
	.ascii	"OrbitalWindowHandle"

l___unnamed_43:
	.ascii	"window"

l___unnamed_44:
	.ascii	"UiKitDisplayHandle"

l___unnamed_45:
	.ascii	"UiKitWindowHandle"

l___unnamed_46:
	.ascii	"ui_window"

l___unnamed_47:
	.ascii	"ui_view"

l___unnamed_48:
	.ascii	"ui_view_controller"

l___unnamed_49:
	.ascii	"XlibDisplayHandle"

l___unnamed_50:
	.ascii	"display"

l___unnamed_51:
	.ascii	"screen"

	.section	__DATA,__const
	.p2align	3
l___unnamed_2:
	.quad	__ZN4core3ptr28drop_in_place$LT$$RF$i32$GT$17h4b5dd451962ad2d5E
	.asciz	"\b\000\000\000\000\000\000\000\b\000\000\000\000\000\000"
	.quad	__ZN42_$LT$$RF$T$u20$as$u20$core..fmt..Debug$GT$3fmt17h7c42e69e5586e4eeE

	.section	__TEXT,__literal16,16byte_literals
L___unnamed_52:
	.ascii	"XlibWindowHandle"

	.section	__DATA,__const
	.p2align	3
l___unnamed_3:
	.quad	__ZN4core3ptr28drop_in_place$LT$$RF$u64$GT$17h955c56af0ebb43fdE
	.asciz	"\b\000\000\000\000\000\000\000\b\000\000\000\000\000\000"
	.quad	__ZN42_$LT$$RF$T$u20$as$u20$core..fmt..Debug$GT$3fmt17h6ba724f0434569c0E

	.section	__TEXT,__const
l___unnamed_53:
	.ascii	"visual_id"

	.section	__TEXT,__literal16,16byte_literals
L___unnamed_54:
	.ascii	"XcbDisplayHandle"

	.section	__TEXT,__const
l___unnamed_55:
	.ascii	"connection"

l___unnamed_56:
	.ascii	"XcbWindowHandle"

	.section	__DATA,__const
	.p2align	3
l___unnamed_4:
	.quad	__ZN4core3ptr28drop_in_place$LT$$RF$u32$GT$17h1cf8538cb3a6d09cE
	.asciz	"\b\000\000\000\000\000\000\000\b\000\000\000\000\000\000"
	.quad	__ZN42_$LT$$RF$T$u20$as$u20$core..fmt..Debug$GT$3fmt17h84316fb74c3939e1E

	.section	__TEXT,__const
l___unnamed_57:
	.ascii	"WaylandDisplayHandle"

l___unnamed_58:
	.ascii	"WaylandWindowHandle"

l___unnamed_59:
	.ascii	"surface"

	.section	__TEXT,__literal16,16byte_literals
L___unnamed_60:
	.ascii	"DrmDisplayHandle"

	.section	__TEXT,__const
l___unnamed_61:
	.ascii	"fd"

l___unnamed_62:
	.ascii	"DrmWindowHandle"

l___unnamed_63:
	.ascii	"plane"

	.section	__TEXT,__literal16,16byte_literals
L___unnamed_64:
	.ascii	"GbmDisplayHandle"

	.section	__TEXT,__const
l___unnamed_65:
	.ascii	"gbm_device"

l___unnamed_66:
	.ascii	"GbmWindowHandle"

l___unnamed_67:
	.ascii	"gbm_surface"

	.section	__TEXT,__literal16,16byte_literals
L___unnamed_68:
	.ascii	"WebDisplayHandle"

	.section	__TEXT,__const
l___unnamed_69:
	.ascii	"WebWindowHandle"

l___unnamed_70:
	.ascii	"id"

l___unnamed_71:
	.ascii	"WindowsDisplayHandle"

l___unnamed_72:
	.ascii	"Win32WindowHandle"

	.section	__TEXT,__literal4,4byte_literals
L___unnamed_73:
	.ascii	"hwnd"

	.section	__TEXT,__const
l___unnamed_74:
	.ascii	"hinstance"

l___unnamed_75:
	.ascii	"WinRtWindowHandle"

l___unnamed_76:
	.ascii	"core_window"

l___unnamed_89:
	.ascii	"Haiku"

	.section	__DATA,__const
	.p2align	3
l___unnamed_5:
	.quad	__ZN4core3ptr68drop_in_place$LT$$RF$raw_window_handle..haiku..HaikuWindowHandle$GT$17h4fe46af3dd49278cE
	.asciz	"\b\000\000\000\000\000\000\000\b\000\000\000\000\000\000"
	.quad	__ZN42_$LT$$RF$T$u20$as$u20$core..fmt..Debug$GT$3fmt17hce24b95d5b8bac9dE

	.section	__TEXT,__const
l___unnamed_88:
	.ascii	"AndroidNdk"

	.section	__DATA,__const
	.p2align	3
l___unnamed_6:
	.quad	__ZN4core3ptr75drop_in_place$LT$$RF$raw_window_handle..android..AndroidNdkWindowHandle$GT$17h77ee857666826efcE
	.asciz	"\b\000\000\000\000\000\000\000\b\000\000\000\000\000\000"
	.quad	__ZN42_$LT$$RF$T$u20$as$u20$core..fmt..Debug$GT$3fmt17hb2199c759dc3692eE

	.section	__TEXT,__const
l___unnamed_87:
	.ascii	"Web"

	.section	__DATA,__const
	.p2align	3
l___unnamed_7:
	.quad	__ZN4core3ptr64drop_in_place$LT$$RF$raw_window_handle..web..WebWindowHandle$GT$17h8091c2ad20cf39b2E
	.asciz	"\b\000\000\000\000\000\000\000\b\000\000\000\000\000\000"
	.quad	__ZN42_$LT$$RF$T$u20$as$u20$core..fmt..Debug$GT$3fmt17h86108ea3e0f8e7cbE

	.section	__TEXT,__const
l___unnamed_86:
	.ascii	"WinRt"

	.section	__DATA,__const
	.p2align	3
l___unnamed_8:
	.quad	__ZN4core3ptr70drop_in_place$LT$$RF$raw_window_handle..windows..WinRtWindowHandle$GT$17h56ccdb92169783bcE
	.asciz	"\b\000\000\000\000\000\000\000\b\000\000\000\000\000\000"
	.quad	__ZN42_$LT$$RF$T$u20$as$u20$core..fmt..Debug$GT$3fmt17h5035cede05bf083fE

	.section	__TEXT,__const
l___unnamed_85:
	.ascii	"Win32"

	.section	__DATA,__const
	.p2align	3
l___unnamed_9:
	.quad	__ZN4core3ptr70drop_in_place$LT$$RF$raw_window_handle..windows..Win32WindowHandle$GT$17h9b6a0f09d9a9c4daE
	.asciz	"\b\000\000\000\000\000\000\000\b\000\000\000\000\000\000"
	.quad	__ZN42_$LT$$RF$T$u20$as$u20$core..fmt..Debug$GT$3fmt17h675f95d873f20ad5E

	.section	__TEXT,__const
l___unnamed_84:
	.ascii	"Gbm"

	.section	__DATA,__const
	.p2align	3
l___unnamed_10:
	.quad	__ZN4core3ptr65drop_in_place$LT$$RF$raw_window_handle..unix..GbmWindowHandle$GT$17h4203852a5328f93eE
	.asciz	"\b\000\000\000\000\000\000\000\b\000\000\000\000\000\000"
	.quad	__ZN42_$LT$$RF$T$u20$as$u20$core..fmt..Debug$GT$3fmt17ha8713a6e620d5bb7E

	.section	__TEXT,__const
l___unnamed_83:
	.ascii	"Drm"

	.section	__DATA,__const
	.p2align	3
l___unnamed_11:
	.quad	__ZN4core3ptr65drop_in_place$LT$$RF$raw_window_handle..unix..DrmWindowHandle$GT$17h9b7979e360a28755E
	.asciz	"\b\000\000\000\000\000\000\000\b\000\000\000\000\000\000"
	.quad	__ZN42_$LT$$RF$T$u20$as$u20$core..fmt..Debug$GT$3fmt17hf46fbd9a096020efE

	.section	__TEXT,__const
l___unnamed_82:
	.ascii	"Wayland"

	.section	__DATA,__const
	.p2align	3
l___unnamed_12:
	.quad	__ZN4core3ptr69drop_in_place$LT$$RF$raw_window_handle..unix..WaylandWindowHandle$GT$17h5f3b8370332d544eE
	.asciz	"\b\000\000\000\000\000\000\000\b\000\000\000\000\000\000"
	.quad	__ZN42_$LT$$RF$T$u20$as$u20$core..fmt..Debug$GT$3fmt17h9dbc8bffee7b0274E

	.section	__TEXT,__const
l___unnamed_81:
	.ascii	"Xcb"

	.section	__DATA,__const
	.p2align	3
l___unnamed_13:
	.quad	__ZN4core3ptr65drop_in_place$LT$$RF$raw_window_handle..unix..XcbWindowHandle$GT$17h97a875b587b470a0E
	.asciz	"\b\000\000\000\000\000\000\000\b\000\000\000\000\000\000"
	.quad	__ZN42_$LT$$RF$T$u20$as$u20$core..fmt..Debug$GT$3fmt17h491c5124e7af2df5E

	.section	__TEXT,__literal4,4byte_literals
L___unnamed_80:
	.ascii	"Xlib"

	.section	__DATA,__const
	.p2align	3
l___unnamed_14:
	.quad	__ZN4core3ptr66drop_in_place$LT$$RF$raw_window_handle..unix..XlibWindowHandle$GT$17h50b166fae6caf038E
	.asciz	"\b\000\000\000\000\000\000\000\b\000\000\000\000\000\000"
	.quad	__ZN42_$LT$$RF$T$u20$as$u20$core..fmt..Debug$GT$3fmt17h2c22d1919885b011E

	.section	__TEXT,__const
l___unnamed_79:
	.ascii	"Orbital"

	.section	__DATA,__const
	.p2align	3
l___unnamed_15:
	.quad	__ZN4core3ptr70drop_in_place$LT$$RF$raw_window_handle..redox..OrbitalWindowHandle$GT$17hb9ad12f4cf058c5dE
	.asciz	"\b\000\000\000\000\000\000\000\b\000\000\000\000\000\000"
	.quad	__ZN42_$LT$$RF$T$u20$as$u20$core..fmt..Debug$GT$3fmt17h0cae34a082e2f3d2E

	.section	__TEXT,__const
l___unnamed_78:
	.ascii	"AppKit"

	.section	__DATA,__const
	.p2align	3
l___unnamed_16:
	.quad	__ZN4core3ptr70drop_in_place$LT$$RF$raw_window_handle..appkit..AppKitWindowHandle$GT$17h31b56e7129ecffc9E
	.asciz	"\b\000\000\000\000\000\000\000\b\000\000\000\000\000\000"
	.quad	__ZN42_$LT$$RF$T$u20$as$u20$core..fmt..Debug$GT$3fmt17hbd6a910c61eb4227E

	.section	__TEXT,__const
l___unnamed_77:
	.ascii	"UiKit"

	.section	__DATA,__const
	.p2align	3
l___unnamed_17:
	.quad	__ZN4core3ptr68drop_in_place$LT$$RF$raw_window_handle..uikit..UiKitWindowHandle$GT$17hf29c82e742983ce2E
	.asciz	"\b\000\000\000\000\000\000\000\b\000\000\000\000\000\000"
	.quad	__ZN42_$LT$$RF$T$u20$as$u20$core..fmt..Debug$GT$3fmt17h77aecb2067b34072E

	.p2align	3
l___unnamed_18:
	.quad	__ZN4core3ptr69drop_in_place$LT$$RF$raw_window_handle..haiku..HaikuDisplayHandle$GT$17h51224850a618fd4eE
	.asciz	"\b\000\000\000\000\000\000\000\b\000\000\000\000\000\000"
	.quad	__ZN42_$LT$$RF$T$u20$as$u20$core..fmt..Debug$GT$3fmt17hcdd4086a8ebcbdbbE

	.section	__TEXT,__const
l___unnamed_91:
	.ascii	"Android"

	.section	__DATA,__const
	.p2align	3
l___unnamed_19:
	.quad	__ZN4core3ptr73drop_in_place$LT$$RF$raw_window_handle..android..AndroidDisplayHandle$GT$17h0490d02e9f1873c6E
	.asciz	"\b\000\000\000\000\000\000\000\b\000\000\000\000\000\000"
	.quad	__ZN42_$LT$$RF$T$u20$as$u20$core..fmt..Debug$GT$3fmt17h71b650e105a41254E

	.p2align	3
l___unnamed_20:
	.quad	__ZN4core3ptr65drop_in_place$LT$$RF$raw_window_handle..web..WebDisplayHandle$GT$17ha038610223a09456E
	.asciz	"\b\000\000\000\000\000\000\000\b\000\000\000\000\000\000"
	.quad	__ZN42_$LT$$RF$T$u20$as$u20$core..fmt..Debug$GT$3fmt17h346a28c0c9f96007E

	.section	__TEXT,__const
l___unnamed_90:
	.ascii	"Windows"

	.section	__DATA,__const
	.p2align	3
l___unnamed_21:
	.quad	__ZN4core3ptr73drop_in_place$LT$$RF$raw_window_handle..windows..WindowsDisplayHandle$GT$17h800d2473a8204c0bE
	.asciz	"\b\000\000\000\000\000\000\000\b\000\000\000\000\000\000"
	.quad	__ZN42_$LT$$RF$T$u20$as$u20$core..fmt..Debug$GT$3fmt17h016fd4e0d33d35deE

	.p2align	3
l___unnamed_22:
	.quad	__ZN4core3ptr66drop_in_place$LT$$RF$raw_window_handle..unix..GbmDisplayHandle$GT$17h671ecb668e8b41f8E
	.asciz	"\b\000\000\000\000\000\000\000\b\000\000\000\000\000\000"
	.quad	__ZN42_$LT$$RF$T$u20$as$u20$core..fmt..Debug$GT$3fmt17he06152b7ecac3a16E

	.p2align	3
l___unnamed_23:
	.quad	__ZN4core3ptr66drop_in_place$LT$$RF$raw_window_handle..unix..DrmDisplayHandle$GT$17hf8a84eac915d12f3E
	.asciz	"\b\000\000\000\000\000\000\000\b\000\000\000\000\000\000"
	.quad	__ZN42_$LT$$RF$T$u20$as$u20$core..fmt..Debug$GT$3fmt17he3e6d8afe38b9656E

	.p2align	3
l___unnamed_24:
	.quad	__ZN4core3ptr70drop_in_place$LT$$RF$raw_window_handle..unix..WaylandDisplayHandle$GT$17h649eda3a2fad804cE
	.asciz	"\b\000\000\000\000\000\000\000\b\000\000\000\000\000\000"
	.quad	__ZN42_$LT$$RF$T$u20$as$u20$core..fmt..Debug$GT$3fmt17h769adea5f1bf1d6eE

	.p2align	3
l___unnamed_25:
	.quad	__ZN4core3ptr66drop_in_place$LT$$RF$raw_window_handle..unix..XcbDisplayHandle$GT$17h370e5515c7025dc3E
	.asciz	"\b\000\000\000\000\000\000\000\b\000\000\000\000\000\000"
	.quad	__ZN42_$LT$$RF$T$u20$as$u20$core..fmt..Debug$GT$3fmt17hc0157aa2730f4a6cE

	.p2align	3
l___unnamed_26:
	.quad	__ZN4core3ptr67drop_in_place$LT$$RF$raw_window_handle..unix..XlibDisplayHandle$GT$17ha65d6906daa82ca8E
	.asciz	"\b\000\000\000\000\000\000\000\b\000\000\000\000\000\000"
	.quad	__ZN42_$LT$$RF$T$u20$as$u20$core..fmt..Debug$GT$3fmt17h05f2d5b41c5e0c18E

	.p2align	3
l___unnamed_27:
	.quad	__ZN4core3ptr71drop_in_place$LT$$RF$raw_window_handle..redox..OrbitalDisplayHandle$GT$17h36e36b78cb862372E
	.asciz	"\b\000\000\000\000\000\000\000\b\000\000\000\000\000\000"
	.quad	__ZN42_$LT$$RF$T$u20$as$u20$core..fmt..Debug$GT$3fmt17hd30097eb90049a4eE

	.p2align	3
l___unnamed_28:
	.quad	__ZN4core3ptr71drop_in_place$LT$$RF$raw_window_handle..appkit..AppKitDisplayHandle$GT$17hb5ed74f325163fd7E
	.asciz	"\b\000\000\000\000\000\000\000\b\000\000\000\000\000\000"
	.quad	__ZN42_$LT$$RF$T$u20$as$u20$core..fmt..Debug$GT$3fmt17hf223ab7a76730ea2E

	.p2align	3
l___unnamed_29:
	.quad	__ZN4core3ptr69drop_in_place$LT$$RF$raw_window_handle..uikit..UiKitDisplayHandle$GT$17haa7eaf02a7379be2E
	.asciz	"\b\000\000\000\000\000\000\000\b\000\000\000\000\000\000"
	.quad	__ZN42_$LT$$RF$T$u20$as$u20$core..fmt..Debug$GT$3fmt17h530bd1afb4b521afE

	.section	__DATA,__const
Lsec_end0:
	.section	__TEXT,__text,regular,pure_instructions
Lsec_end1: