	.section	__TEXT,__text,regular,pure_instructions
	.macosx_version_min 10, 7
	.globl	__ZN102_$LT$core..iter..adapters..map..Map$LT$I$C$F$GT$$u20$as$u20$core..iter..traits..iterator..Iterator$GT$4fold17hea633a65135f2234E
	.p2align	4, 0x90
__ZN102_$LT$core..iter..adapters..map..Map$LT$I$C$F$GT$$u20$as$u20$core..iter..traits..iterator..Iterator$GT$4fold17hea633a65135f2234E:
Lfunc_begin0:
	.file	1 "/rustc/2c8cc343237b8f7d5a3c3703e3a87f2eb2c54a74/library/core/src/iter/adapters" "map.rs"
	.loc	1 120 0
	.cfi_startproc
	.cfi_personality 155, _rust_eh_personality
	.cfi_lsda 16, Lexception0
	pushq	%rbp
	.cfi_def_cfa_offset 16
	.cfi_offset %rbp, -16
	movq	%rsp, %rbp
	.cfi_def_cfa_register %rbp
	subq	$80, %rsp
	movq	%rsi, -72(%rbp)
	movq	%rsi, -32(%rbp)
Ltmp5:
	.loc	1 124 9 prologue_end
	movb	$1, -33(%rbp)
	movq	16(%rdi), %rax
	movq	%rax, -48(%rbp)
	movq	(%rdi), %rax
	movq	8(%rdi), %rcx
	movq	%rcx, -56(%rbp)
	movq	%rax, -64(%rbp)
	.loc	1 124 24 is_stmt 0
	movb	$1, -34(%rbp)
Ltmp0:
	.loc	1 124 30
	callq	__ZN4core4iter8adapters3map8map_fold17h559a346fdb2d7f88E
Ltmp6:
Ltmp1:
	jmp	LBB0_3
Ltmp7:
LBB0_1:
	.loc	1 124 49
	testb	$1, -34(%rbp)
	jne	LBB0_6
	jmp	LBB0_5
Ltmp8:
LBB0_2:
Ltmp4:
	.loc	1 0 49
	movq	%rax, %rcx
	movl	%edx, %eax
	movq	%rcx, -16(%rbp)
	movl	%eax, -8(%rbp)
	jmp	LBB0_1
Ltmp9:
LBB0_3:
	movq	-72(%rbp), %rsi
	.loc	1 124 9
	movb	$0, -33(%rbp)
	movb	$0, -34(%rbp)
Ltmp2:
	leaq	-64(%rbp), %rdi
	callq	__ZN4core4iter6traits8iterator8Iterator4fold17h46a6b26e7d870f72E
Ltmp3:
	movq	%rax, -80(%rbp)
	jmp	LBB0_4
Ltmp10:
LBB0_4:
	.loc	1 0 9
	movq	-80(%rbp), %rax
	.loc	1 125 6 is_stmt 1
	addq	$80, %rsp
	popq	%rbp
	retq
Ltmp11:
LBB0_5:
	.loc	1 124 49
	testb	$1, -33(%rbp)
	jne	LBB0_8
	jmp	LBB0_7
Ltmp12:
LBB0_6:
	jmp	LBB0_5
Ltmp13:
LBB0_7:
	.loc	1 120 5
	movq	-16(%rbp), %rdi
	callq	__Unwind_Resume
Ltmp14:
LBB0_8:
	.loc	1 124 49
	jmp	LBB0_7
Ltmp15:
Lfunc_end0:
	.cfi_endproc
	.section	__TEXT,__gcc_except_tab
	.p2align	2
GCC_except_table0:
Lexception0:
	.byte	255
	.byte	255
	.byte	1
	.uleb128 Lcst_end0-Lcst_begin0
Lcst_begin0:
	.uleb128 Ltmp0-Lfunc_begin0
	.uleb128 Ltmp3-Ltmp0
	.uleb128 Ltmp4-Lfunc_begin0
	.byte	0
	.uleb128 Ltmp3-Lfunc_begin0
	.uleb128 Lfunc_end0-Ltmp3
	.byte	0
	.byte	0
Lcst_end0:
	.p2align	2

	.section	__TEXT,__text,regular,pure_instructions
	.globl	__ZN104_$LT$core..iter..adapters..copied..Copied$LT$I$GT$$u20$as$u20$core..iter..traits..iterator..Iterator$GT$8try_fold17h073c9243613846cfE
	.p2align	4, 0x90
__ZN104_$LT$core..iter..adapters..copied..Copied$LT$I$GT$$u20$as$u20$core..iter..traits..iterator..Iterator$GT$8try_fold17h073c9243613846cfE:
Lfunc_begin1:
	.file	2 "/rustc/2c8cc343237b8f7d5a3c3703e3a87f2eb2c54a74/library/core/src/iter/adapters" "copied.rs"
	.loc	2 63 0
	.cfi_startproc
	.cfi_personality 155, _rust_eh_personality
	.cfi_lsda 16, Lexception1
	pushq	%rbp
	.cfi_def_cfa_offset 16
	.cfi_offset %rbp, -16
	movq	%rsp, %rbp
	.cfi_def_cfa_register %rbp
	subq	$80, %rsp
	movq	%rdi, -64(%rbp)
	movq	%rsi, -56(%rbp)
	movq	%rdi, -40(%rbp)
	movq	%rsi, -32(%rbp)
Ltmp21:
	.loc	2 69 26 prologue_end
	movb	$1, -41(%rbp)
Ltmp16:
	.loc	2 69 32 is_stmt 0
	callq	__ZN4core4iter8adapters6copied13copy_try_fold17h216d91014e69b7feE
Ltmp17:
	jmp	LBB1_3
LBB1_1:
	.loc	2 69 48
	testb	$1, -41(%rbp)
	jne	LBB1_6
	jmp	LBB1_5
LBB1_2:
Ltmp20:
	.loc	2 0 48
	movq	%rax, %rcx
	movl	%edx, %eax
	movq	%rcx, -16(%rbp)
	movl	%eax, -8(%rbp)
	jmp	LBB1_1
LBB1_3:
	movq	-56(%rbp), %rsi
	movq	-64(%rbp), %rdi
	.loc	2 69 9
	movb	$0, -41(%rbp)
Ltmp18:
	callq	__ZN4core4iter6traits8iterator8Iterator8try_fold17h7421a2a3bb3b0dcfE
Ltmp19:
	movq	%rdx, -80(%rbp)
	movq	%rax, -72(%rbp)
	jmp	LBB1_4
LBB1_4:
	.loc	2 0 9
	movq	-80(%rbp), %rdx
	movq	-72(%rbp), %rax
	.loc	2 70 6 is_stmt 1
	addq	$80, %rsp
	popq	%rbp
	retq
LBB1_5:
	.loc	2 63 5
	movq	-16(%rbp), %rdi
	callq	__Unwind_Resume
LBB1_6:
	.loc	2 69 48
	jmp	LBB1_5
Ltmp22:
Lfunc_end1:
	.cfi_endproc
	.section	__TEXT,__gcc_except_tab
	.p2align	2
GCC_except_table1:
Lexception1:
	.byte	255
	.byte	255
	.byte	1
	.uleb128 Lcst_end1-Lcst_begin1
Lcst_begin1:
	.uleb128 Ltmp16-Lfunc_begin1
	.uleb128 Ltmp19-Ltmp16
	.uleb128 Ltmp20-Lfunc_begin1
	.byte	0
	.uleb128 Ltmp19-Lfunc_begin1
	.uleb128 Lfunc_end1-Ltmp19
	.byte	0
	.byte	0
Lcst_end1:
	.p2align	2

	.section	__TEXT,__text,regular,pure_instructions
	.globl	__ZN104_$LT$core..ops..control_flow..ControlFlow$LT$B$C$C$GT$$u20$as$u20$core..ops..try_trait..FromResidual$GT$13from_residual17hc2227c3f8ea51192E
	.p2align	4, 0x90
__ZN104_$LT$core..ops..control_flow..ControlFlow$LT$B$C$C$GT$$u20$as$u20$core..ops..try_trait..FromResidual$GT$13from_residual17hc2227c3f8ea51192E:
Lfunc_begin2:
	.file	3 "/rustc/2c8cc343237b8f7d5a3c3703e3a87f2eb2c54a74/library/core/src/ops" "control_flow.rs"
	.loc	3 123 0
	.cfi_startproc
	pushq	%rbp
	.cfi_def_cfa_offset 16
	.cfi_offset %rbp, -16
	movq	%rsp, %rbp
	.cfi_def_cfa_register %rbp
	subq	$32, %rsp
	movq	%rdi, -32(%rbp)
Ltmp23:
	.loc	3 125 32 prologue_end
	movq	-32(%rbp), %rax
	movq	%rax, -8(%rbp)
Ltmp24:
	.loc	3 125 38 is_stmt 0
	movq	%rax, -16(%rbp)
	movq	$1, -24(%rbp)
Ltmp25:
	.loc	3 127 6 is_stmt 1
	movq	-24(%rbp), %rax
	movq	-16(%rbp), %rdx
	addq	$32, %rsp
	popq	%rbp
	retq
Ltmp26:
Lfunc_end2:
	.cfi_endproc

	.globl	__ZN105_$LT$alloc..collections..linked_list..Iter$LT$T$GT$$u20$as$u20$core..iter..traits..iterator..Iterator$GT$4next17h81357adecd96baaeE
	.p2align	4, 0x90
__ZN105_$LT$alloc..collections..linked_list..Iter$LT$T$GT$$u20$as$u20$core..iter..traits..iterator..Iterator$GT$4next17h81357adecd96baaeE:
Lfunc_begin3:
	.file	4 "/rustc/2c8cc343237b8f7d5a3c3703e3a87f2eb2c54a74/library/alloc/src/collections" "linked_list.rs"
	.loc	4 1029 0
	.cfi_startproc
	pushq	%rbp
	.cfi_def_cfa_offset 16
	.cfi_offset %rbp, -16
	movq	%rsp, %rbp
	.cfi_def_cfa_register %rbp
	subq	$48, %rsp
	movq	%rdi, -40(%rbp)
	movq	%rdi, -8(%rbp)
Ltmp27:
	.loc	4 1030 12 prologue_end
	cmpq	$0, 16(%rdi)
	jne	LBB3_2
	.loc	4 1031 13
	movq	$0, -32(%rbp)
	.loc	4 1030 9
	jmp	LBB3_3
LBB3_2:
	.loc	4 0 9 is_stmt 0
	movq	-40(%rbp), %rcx
	.loc	4 1033 13 is_stmt 1
	movq	(%rcx), %rdi
	.loc	4 1033 27 is_stmt 0
	movq	%rcx, %rax
	addq	$16, %rax
	movq	%rcx, -24(%rbp)
	movq	%rax, -16(%rbp)
	.loc	4 1033 13
	movq	-24(%rbp), %rsi
	movq	-16(%rbp), %rdx
	callq	__ZN4core6option15Option$LT$T$GT$3map17h0dcebdd8255bb0faE
	movq	%rax, -32(%rbp)
LBB3_3:
	.loc	4 1041 6 is_stmt 1
	movq	-32(%rbp), %rax
	addq	$48, %rsp
	popq	%rbp
	retq
Ltmp28:
Lfunc_end3:
	.cfi_endproc

	.globl	__ZN105_$LT$alloc..collections..linked_list..Iter$LT$T$GT$$u20$as$u20$core..iter..traits..iterator..Iterator$GT$4next28_$u7b$$u7b$closure$u7d$$u7d$17h1e92bc28df3ec388E
	.p2align	4, 0x90
__ZN105_$LT$alloc..collections..linked_list..Iter$LT$T$GT$$u20$as$u20$core..iter..traits..iterator..Iterator$GT$4next28_$u7b$$u7b$closure$u7d$$u7d$17h1e92bc28df3ec388E:
Lfunc_begin4:
	.loc	4 1033 0
	.cfi_startproc
	pushq	%rbp
	.cfi_def_cfa_offset 16
	.cfi_offset %rbp, -16
	movq	%rsp, %rbp
	.cfi_def_cfa_register %rbp
	subq	$40, %rsp
	movq	%rdx, %rax
	movq	%rdi, -40(%rbp)
	movq	%rsi, -32(%rbp)
	movq	%rax, -24(%rbp)
Ltmp29:
	.loc	4 1035 30 prologue_end
	movq	%rax, -16(%rbp)
	.loc	4 1035 28 is_stmt 0
	movq	%rax, -8(%rbp)
Ltmp30:
	.loc	4 1036 17 is_stmt 1
	movq	-32(%rbp), %rcx
	movq	-32(%rbp), %rdx
	movq	(%rdx), %rdx
	subq	$1, %rdx
	movq	%rdx, (%rcx)
	.loc	4 1037 29
	movq	(%rax), %rdx
	.loc	4 1037 17 is_stmt 0
	movq	-40(%rbp), %rcx
	movq	%rdx, (%rcx)
	.loc	4 1038 17 is_stmt 1
	addq	$16, %rax
Ltmp31:
	.loc	4 1039 14
	addq	$40, %rsp
	popq	%rbp
	retq
Ltmp32:
Lfunc_end4:
	.cfi_endproc

	.globl	__ZN106_$LT$alloc..string..String$u20$as$u20$core..iter..traits..collect..Extend$LT$alloc..string..String$GT$$GT$6extend17h9afbcd054e191d86E
	.p2align	4, 0x90
__ZN106_$LT$alloc..string..String$u20$as$u20$core..iter..traits..collect..Extend$LT$alloc..string..String$GT$$GT$6extend17h9afbcd054e191d86E:
Lfunc_begin5:
	.file	5 "/rustc/2c8cc343237b8f7d5a3c3703e3a87f2eb2c54a74/library/alloc/src" "string.rs"
	.loc	5 2142 0
	.cfi_startproc
	pushq	%rbp
	.cfi_def_cfa_offset 16
	.cfi_offset %rbp, -16
	movq	%rsp, %rbp
	.cfi_def_cfa_register %rbp
	subq	$80, %rsp
	movq	%rdi, -72(%rbp)
	movq	%rdi, -8(%rbp)
Ltmp33:
	.loc	5 2143 9 prologue_end
	movq	(%rsi), %rax
	movq	%rax, -40(%rbp)
	movq	8(%rsi), %rax
	movq	%rax, -32(%rbp)
	movq	16(%rsi), %rax
	movq	%rax, -24(%rbp)
	leaq	-64(%rbp), %rdi
	leaq	-40(%rbp), %rsi
Ltmp34:
	callq	__ZN114_$LT$alloc..collections..linked_list..LinkedList$LT$T$GT$$u20$as$u20$core..iter..traits..collect..IntoIterator$GT$9into_iter17hf35389a984fb1582E
	movq	-72(%rbp), %rdi
	.loc	5 2143 35 is_stmt 0
	movq	%rdi, -16(%rbp)
	.loc	5 2143 9
	movq	-16(%rbp), %rsi
	leaq	-64(%rbp), %rdi
	callq	__ZN4core4iter6traits8iterator8Iterator8for_each17h6d2d1ae458351f53E
	.loc	5 2144 6 is_stmt 1
	addq	$80, %rsp
	popq	%rbp
	retq
Ltmp35:
Lfunc_end5:
	.cfi_endproc

	.globl	__ZN106_$LT$alloc..string..String$u20$as$u20$core..iter..traits..collect..Extend$LT$alloc..string..String$GT$$GT$6extend28_$u7b$$u7b$closure$u7d$$u7d$17h9c240483e8182731E
	.p2align	4, 0x90
__ZN106_$LT$alloc..string..String$u20$as$u20$core..iter..traits..collect..Extend$LT$alloc..string..String$GT$$GT$6extend28_$u7b$$u7b$closure$u7d$$u7d$17h9c240483e8182731E:
Lfunc_begin6:
	.loc	5 2143 0
	.cfi_startproc
	.cfi_personality 155, _rust_eh_personality
	.cfi_lsda 16, Lexception2
	pushq	%rbp
	.cfi_def_cfa_offset 16
	.cfi_offset %rbp, -16
	movq	%rsp, %rbp
	.cfi_def_cfa_register %rbp
	subq	$192, %rsp
	movq	%rsi, -160(%rbp)
	movq	%rdi, %rax
	movq	-160(%rbp), %rdi
	movq	%rdi, -152(%rbp)
Ltmp44:
	movq	%rax, -120(%rbp)
Ltmp45:
	.loc	5 2143 44 prologue_end
	movq	(%rax), %rax
	movq	%rax, -144(%rbp)
	movq	%rax, -112(%rbp)
	.loc	5 2143 58 is_stmt 0
	movq	%rdi, -104(%rbp)
Ltmp36:
Ltmp46:
	.loc	5 2460 43 is_stmt 1
	callq	__ZN72_$LT$alloc..vec..Vec$LT$T$C$A$GT$$u20$as$u20$core..ops..deref..Deref$GT$5deref17h6083e7f545195753E
Ltmp47:
Ltmp37:
	.loc	5 0 43 is_stmt 0
	movq	%rdx, -136(%rbp)
	movq	%rax, -128(%rbp)
Ltmp48:
	.loc	5 2460 43
	jmp	LBB6_3
Ltmp49:
LBB6_1:
Ltmp41:
	.loc	5 0 43
	movq	-152(%rbp), %rdi
	.loc	5 2143 60 is_stmt 1
	callq	__ZN4core3ptr42drop_in_place$LT$alloc..string..String$GT$17hd5dc6af6ae0b1128E
Ltmp42:
	jmp	LBB6_8
Ltmp50:
LBB6_2:
Ltmp40:
	.loc	5 0 60 is_stmt 0
	movq	%rax, %rcx
	movl	%edx, %eax
	movq	%rcx, -96(%rbp)
	movl	%eax, -88(%rbp)
	jmp	LBB6_1
Ltmp51:
LBB6_3:
	movq	-136(%rbp), %rax
	movq	-128(%rbp), %rcx
Ltmp52:
	.loc	5 2460 43 is_stmt 1
	movq	%rcx, -80(%rbp)
	movq	%rax, -72(%rbp)
Ltmp53:
	.file	6 "/rustc/2c8cc343237b8f7d5a3c3703e3a87f2eb2c54a74/library/core/src/str" "converts.rs"
	.loc	6 173 14
	movq	%rcx, -64(%rbp)
	movq	%rax, -56(%rbp)
	movq	-64(%rbp), %rax
	movq	%rax, -176(%rbp)
	movq	-56(%rbp), %rax
	movq	%rax, -168(%rbp)
Ltmp54:
	.loc	6 0 14 is_stmt 0
	movq	-168(%rbp), %rax
	movq	-176(%rbp), %rcx
	.loc	5 2143 58 is_stmt 1
	movq	%rcx, -48(%rbp)
	movq	%rax, -40(%rbp)
Ltmp55:
	.loc	5 926 36
	movq	%rcx, -32(%rbp)
	movq	%rax, -24(%rbp)
Ltmp56:
	.file	7 "/rustc/2c8cc343237b8f7d5a3c3703e3a87f2eb2c54a74/library/core/src/str" "mod.rs"
	.loc	7 327 18
	movq	%rcx, -16(%rbp)
	movq	%rax, -8(%rbp)
	movq	-16(%rbp), %rax
	movq	%rax, -192(%rbp)
	movq	-8(%rbp), %rax
	movq	%rax, -184(%rbp)
Ltmp57:
Ltmp38:
	.loc	7 0 18 is_stmt 0
	movq	-184(%rbp), %rdx
	movq	-192(%rbp), %rsi
	movq	-144(%rbp), %rdi
	.loc	5 926 9 is_stmt 1
	callq	__ZN5alloc3vec16Vec$LT$T$C$A$GT$17extend_from_slice17h4f128ef42ee3a1efE
Ltmp39:
	jmp	LBB6_6
Ltmp58:
LBB6_6:
	.loc	5 0 9 is_stmt 0
	movq	-152(%rbp), %rdi
	.loc	5 2143 60 is_stmt 1
	callq	__ZN4core3ptr42drop_in_place$LT$alloc..string..String$GT$17hd5dc6af6ae0b1128E
	.loc	5 2143 61 is_stmt 0
	addq	$192, %rsp
	popq	%rbp
	retq
Ltmp59:
LBB6_7:
Ltmp43:
	.loc	5 2143 35
	callq	__ZN4core9panicking19panic_cannot_unwind17h1fbca7e1d7f56ae1E
Ltmp60:
LBB6_8:
	movq	-96(%rbp), %rdi
	callq	__Unwind_Resume
Ltmp61:
Lfunc_end6:
	.cfi_endproc
	.section	__TEXT,__gcc_except_tab
	.p2align	2
GCC_except_table6:
Lexception2:
	.byte	255
	.byte	255
	.byte	1
	.uleb128 Lcst_end2-Lcst_begin2
Lcst_begin2:
	.uleb128 Ltmp36-Lfunc_begin6
	.uleb128 Ltmp37-Ltmp36
	.uleb128 Ltmp40-Lfunc_begin6
	.byte	0
	.uleb128 Ltmp41-Lfunc_begin6
	.uleb128 Ltmp42-Ltmp41
	.uleb128 Ltmp43-Lfunc_begin6
	.byte	0
	.uleb128 Ltmp38-Lfunc_begin6
	.uleb128 Ltmp39-Ltmp38
	.uleb128 Ltmp40-Lfunc_begin6
	.byte	0
	.uleb128 Ltmp39-Lfunc_begin6
	.uleb128 Lfunc_end6-Ltmp39
	.byte	0
	.byte	0
Lcst_end2:
	.p2align	2

	.section	__TEXT,__text,regular,pure_instructions
	.globl	__ZN106_$LT$core..slice..iter..Iter$LT$T$GT$$u20$as$u20$core..iter..traits..double_ended..DoubleEndedIterator$GT$9next_back17hda722b6353f6d8b4E
	.p2align	4, 0x90
__ZN106_$LT$core..slice..iter..Iter$LT$T$GT$$u20$as$u20$core..iter..traits..double_ended..DoubleEndedIterator$GT$9next_back17hda722b6353f6d8b4E:
Lfunc_begin7:
	.file	8 "/rustc/2c8cc343237b8f7d5a3c3703e3a87f2eb2c54a74/library/core/src/slice/iter" "macros.rs"
	.loc	8 339 0 is_stmt 1
	.cfi_startproc
	pushq	%rbp
	.cfi_def_cfa_offset 16
	.cfi_offset %rbp, -16
	movq	%rsp, %rbp
	.cfi_def_cfa_register %rbp
	subq	$264, %rsp
	movq	%rdi, -264(%rbp)
	movq	%rdi, -208(%rbp)
Ltmp62:
	.loc	8 347 29 prologue_end
	movq	8(%rdi), %rax
	movq	%rax, -192(%rbp)
Ltmp63:
	.file	9 "/rustc/2c8cc343237b8f7d5a3c3703e3a87f2eb2c54a74/library/core/src/ptr" "non_null.rs"
	.loc	9 326 9
	movq	%rax, -184(%rbp)
Ltmp64:
	.file	10 "/rustc/2c8cc343237b8f7d5a3c3703e3a87f2eb2c54a74/library/core/src/ptr" "mut_ptr.rs"
	.loc	10 52 36
	movq	%rax, -240(%rbp)
	.loc	10 52 18 is_stmt 0
	movq	-240(%rbp), %rax
	movq	%rax, -176(%rbp)
Ltmp65:
	.loc	10 38 13 is_stmt 1
	movq	%rax, -168(%rbp)
Ltmp66:
	.loc	10 215 33
	movq	%rax, -160(%rbp)
	.loc	10 215 18 is_stmt 0
	movq	%rax, -152(%rbp)
Ltmp67:
	.loc	8 348 24 is_stmt 1
	movb	$1, %al
	testb	$1, %al
	jne	LBB7_2
LBB7_1:
	.loc	8 0 24 is_stmt 0
	movq	-264(%rbp), %rcx
	.loc	8 351 24 is_stmt 1
	movq	8(%rcx), %rax
	movq	%rax, -104(%rbp)
	cmpq	(%rcx), %rax
	je	LBB7_4
	jmp	LBB7_3
LBB7_2:
	.loc	8 0 24 is_stmt 0
	movq	-264(%rbp), %rax
	.loc	8 349 33 is_stmt 1
	movq	(%rax), %rax
	movq	%rax, -144(%rbp)
Ltmp68:
	.file	11 "/rustc/2c8cc343237b8f7d5a3c3703e3a87f2eb2c54a74/library/core/src/ptr" "const_ptr.rs"
	.loc	11 53 36
	movq	%rax, -232(%rbp)
	.loc	11 53 18 is_stmt 0
	movq	-232(%rbp), %rax
	movq	%rax, -136(%rbp)
Ltmp69:
	.loc	11 39 13 is_stmt 1
	movq	%rax, -128(%rbp)
Ltmp70:
	.loc	11 209 33
	movq	%rax, -120(%rbp)
	.loc	11 209 18 is_stmt 0
	movq	%rax, -112(%rbp)
Ltmp71:
	.loc	8 348 21 is_stmt 1
	jmp	LBB7_1
LBB7_3:
	.loc	8 0 21 is_stmt 0
	movq	-264(%rbp), %rax
	.loc	8 354 30 is_stmt 1
	movq	%rax, -96(%rbp)
Ltmp72:
	.loc	8 93 20
	xorl	%eax, %eax
	testb	$1, %al
	jne	LBB7_7
	jmp	LBB7_6
Ltmp73:
LBB7_4:
	.loc	8 352 25
	movq	$0, -256(%rbp)
LBB7_5:
	.loc	8 357 14
	movq	-256(%rbp), %rax
	addq	$264, %rsp
	popq	%rbp
	retq
LBB7_6:
	.loc	8 0 14 is_stmt 0
	movq	-264(%rbp), %rax
Ltmp74:
	.loc	8 100 41 is_stmt 1
	movq	(%rax), %rcx
	movq	%rcx, -24(%rbp)
Ltmp75:
	.loc	11 1017 18
	movq	%rcx, -16(%rbp)
Ltmp76:
	.loc	11 473 18
	addq	$-1, %rcx
	movq	%rcx, -8(%rbp)
	movq	-8(%rbp), %rcx
Ltmp77:
	.loc	8 100 21
	movq	%rcx, (%rax)
	.loc	8 101 21
	movq	(%rax), %rax
	movq	%rax, -248(%rbp)
	.loc	8 93 17
	jmp	LBB7_8
LBB7_7:
	.loc	8 0 17 is_stmt 0
	movq	-264(%rbp), %rax
	.loc	8 57 29 is_stmt 1
	movq	(%rax), %rcx
	movq	%rcx, -88(%rbp)
Ltmp78:
	.loc	11 1198 9
	movq	%rcx, -80(%rbp)
Ltmp79:
	.loc	11 61 9
	movq	%rcx, -72(%rbp)
Ltmp80:
	.loc	11 1180 9
	movq	%rcx, -64(%rbp)
Ltmp81:
	.loc	11 555 18
	addq	$-1, %rcx
	movq	%rcx, -56(%rbp)
	movq	-56(%rbp), %rcx
	movq	%rcx, -48(%rbp)
Ltmp82:
	.loc	11 100 29
	movq	%rcx, -40(%rbp)
Ltmp83:
	.file	12 "/rustc/2c8cc343237b8f7d5a3c3703e3a87f2eb2c54a74/library/core/src/ptr" "metadata.rs"
	.loc	12 118 36
	movq	%rcx, -216(%rbp)
	.loc	12 118 14 is_stmt 0
	movq	-216(%rbp), %rcx
	movq	%rcx, -224(%rbp)
	movq	-224(%rbp), %rcx
Ltmp84:
	.loc	8 57 17 is_stmt 1
	movq	%rcx, (%rax)
	.loc	8 95 21
	movq	8(%rax), %rax
	movq	%rax, -32(%rbp)
	movq	%rax, -248(%rbp)
Ltmp85:
LBB7_8:
	.loc	8 354 30
	movq	-248(%rbp), %rax
	.loc	8 354 25 is_stmt 0
	movq	%rax, -256(%rbp)
	.loc	8 351 21 is_stmt 1
	jmp	LBB7_5
Ltmp86:
Lfunc_end7:
	.cfi_endproc

	.globl	__ZN109_$LT$alloc..collections..linked_list..IntoIter$LT$T$GT$$u20$as$u20$core..iter..traits..iterator..Iterator$GT$4next17he1696df64e195de8E
	.p2align	4, 0x90
__ZN109_$LT$alloc..collections..linked_list..IntoIter$LT$T$GT$$u20$as$u20$core..iter..traits..iterator..Iterator$GT$4next17he1696df64e195de8E:
Lfunc_begin8:
	.loc	4 1787 0
	.cfi_startproc
	pushq	%rbp
	.cfi_def_cfa_offset 16
	.cfi_offset %rbp, -16
	movq	%rsp, %rbp
	.cfi_def_cfa_register %rbp
	subq	$16, %rsp
	movq	%rdi, %rax
	movq	%rax, -16(%rbp)
	movq	%rsi, -8(%rbp)
Ltmp87:
	.loc	4 1788 9 prologue_end
	callq	__ZN5alloc11collections11linked_list19LinkedList$LT$T$GT$9pop_front17h925996ae6e0e1ddcE
	movq	-16(%rbp), %rax
	.loc	4 1789 6
	addq	$16, %rsp
	popq	%rbp
	retq
Ltmp88:
Lfunc_end8:
	.cfi_endproc

	.globl	__ZN114_$LT$alloc..collections..linked_list..LinkedList$LT$T$GT$$u20$as$u20$core..iter..traits..collect..IntoIterator$GT$9into_iter17hf35389a984fb1582E
	.p2align	4, 0x90
__ZN114_$LT$alloc..collections..linked_list..LinkedList$LT$T$GT$$u20$as$u20$core..iter..traits..collect..IntoIterator$GT$9into_iter17hf35389a984fb1582E:
Lfunc_begin9:
	.loc	4 1827 0
	.cfi_startproc
	pushq	%rbp
	.cfi_def_cfa_offset 16
	.cfi_offset %rbp, -16
	movq	%rsp, %rbp
	.cfi_def_cfa_register %rbp
	subq	$24, %rsp
	movq	%rdi, %rax
Ltmp89:
	.loc	4 1828 26 prologue_end
	movq	(%rsi), %rcx
	movq	%rcx, -24(%rbp)
	movq	8(%rsi), %rcx
	movq	%rcx, -16(%rbp)
	movq	16(%rsi), %rcx
	movq	%rcx, -8(%rbp)
	.loc	4 1828 9 is_stmt 0
	movq	-24(%rbp), %rcx
	movq	%rcx, (%rdi)
	movq	-16(%rbp), %rcx
	movq	%rcx, 8(%rdi)
	movq	-8(%rbp), %rcx
	movq	%rcx, 16(%rdi)
	.loc	4 1829 6 is_stmt 1
	addq	$24, %rsp
	popq	%rbp
	retq
Ltmp90:
Lfunc_end9:
	.cfi_endproc

	.globl	__ZN115_$LT$core..iter..adapters..copied..Copied$LT$I$GT$$u20$as$u20$core..iter..traits..exact_size..ExactSizeIterator$GT$3len17he2e4fac150707475E
	.p2align	4, 0x90
__ZN115_$LT$core..iter..adapters..copied..Copied$LT$I$GT$$u20$as$u20$core..iter..traits..exact_size..ExactSizeIterator$GT$3len17he2e4fac150707475E:
Lfunc_begin10:
	.loc	2 144 0
	.cfi_startproc
	pushq	%rbp
	.cfi_def_cfa_offset 16
	.cfi_offset %rbp, -16
	movq	%rsp, %rbp
	.cfi_def_cfa_register %rbp
	subq	$48, %rsp
	movq	%rdi, -40(%rbp)
	movq	%rdi, -24(%rbp)
Ltmp91:
	.loc	8 110 17 prologue_end
	movq	8(%rdi), %rsi
	movq	%rsi, -16(%rbp)
Ltmp92:
	.loc	8 110 17 is_stmt 0
	movq	(%rdi), %rdi
	movq	%rsi, -8(%rbp)
	callq	__ZN4core3ptr9const_ptr33_$LT$impl$u20$$BP$const$u20$T$GT$7sub_ptr17h201b3bd7e208bf53E
	movq	%rax, -32(%rbp)
Ltmp93:
	.loc	8 111 14 is_stmt 1
	movq	-32(%rbp), %rax
Ltmp94:
	.loc	2 146 6
	addq	$48, %rsp
	popq	%rbp
	retq
Ltmp95:
Lfunc_end10:
	.cfi_endproc

	.globl	__ZN119_$LT$core..iter..adapters..copied..Copied$LT$I$GT$$u20$as$u20$core..iter..traits..double_ended..DoubleEndedIterator$GT$9try_rfold17h85b4b286189b7993E
	.p2align	4, 0x90
__ZN119_$LT$core..iter..adapters..copied..Copied$LT$I$GT$$u20$as$u20$core..iter..traits..double_ended..DoubleEndedIterator$GT$9try_rfold17h85b4b286189b7993E:
Lfunc_begin11:
	.loc	2 116 0
	.cfi_startproc
	.cfi_personality 155, _rust_eh_personality
	.cfi_lsda 16, Lexception3
	pushq	%rbp
	.cfi_def_cfa_offset 16
	.cfi_offset %rbp, -16
	movq	%rsp, %rbp
	.cfi_def_cfa_register %rbp
	subq	$80, %rsp
	movq	%rdi, -64(%rbp)
	movq	%rsi, -56(%rbp)
	movq	%rdi, -40(%rbp)
	movq	%rsi, -32(%rbp)
Ltmp101:
	.loc	2 122 27 prologue_end
	movb	$1, -41(%rbp)
Ltmp96:
	.loc	2 122 33 is_stmt 0
	callq	__ZN4core4iter8adapters6copied13copy_try_fold17hf95c50be5f160211E
Ltmp97:
	jmp	LBB11_3
LBB11_1:
	.loc	2 122 49
	testb	$1, -41(%rbp)
	jne	LBB11_6
	jmp	LBB11_5
LBB11_2:
Ltmp100:
	.loc	2 0 49
	movq	%rax, %rcx
	movl	%edx, %eax
	movq	%rcx, -16(%rbp)
	movl	%eax, -8(%rbp)
	jmp	LBB11_1
LBB11_3:
	movq	-56(%rbp), %rsi
	movq	-64(%rbp), %rdi
	.loc	2 122 9
	movb	$0, -41(%rbp)
Ltmp98:
	callq	__ZN4core4iter6traits12double_ended19DoubleEndedIterator9try_rfold17h5afef68d241e762dE
Ltmp99:
	movq	%rdx, -80(%rbp)
	movq	%rax, -72(%rbp)
	jmp	LBB11_4
LBB11_4:
	.loc	2 0 9
	movq	-80(%rbp), %rdx
	movq	-72(%rbp), %rax
	.loc	2 123 6 is_stmt 1
	addq	$80, %rsp
	popq	%rbp
	retq
LBB11_5:
	.loc	2 116 5
	movq	-16(%rbp), %rdi
	callq	__Unwind_Resume
LBB11_6:
	.loc	2 122 49
	jmp	LBB11_5
Ltmp102:
Lfunc_end11:
	.cfi_endproc
	.section	__TEXT,__gcc_except_tab
	.p2align	2
GCC_except_table11:
Lexception3:
	.byte	255
	.byte	255
	.byte	1
	.uleb128 Lcst_end3-Lcst_begin3
Lcst_begin3:
	.uleb128 Ltmp96-Lfunc_begin11
	.uleb128 Ltmp99-Ltmp96
	.uleb128 Ltmp100-Lfunc_begin11
	.byte	0
	.uleb128 Ltmp99-Lfunc_begin11
	.uleb128 Lfunc_end11-Ltmp99
	.byte	0
	.byte	0
Lcst_end3:
	.p2align	2

	.section	__TEXT,__text,regular,pure_instructions
	.globl	__ZN132_$LT$alloc..vec..Vec$LT$T$C$A$GT$$u20$as$u20$alloc..vec..spec_extend..SpecExtend$LT$$RF$T$C$core..slice..iter..Iter$LT$T$GT$$GT$$GT$11spec_extend17hd80530fe2a3e3bddE
	.p2align	4, 0x90
__ZN132_$LT$alloc..vec..Vec$LT$T$C$A$GT$$u20$as$u20$alloc..vec..spec_extend..SpecExtend$LT$$RF$T$C$core..slice..iter..Iter$LT$T$GT$$GT$$GT$11spec_extend17hd80530fe2a3e3bddE:
Lfunc_begin12:
	.file	13 "/rustc/2c8cc343237b8f7d5a3c3703e3a87f2eb2c54a74/library/alloc/src/vec" "spec_extend.rs"
	.loc	13 53 0
	.cfi_startproc
	pushq	%rbp
	.cfi_def_cfa_offset 16
	.cfi_offset %rbp, -16
	movq	%rsp, %rbp
	.cfi_def_cfa_register %rbp
	subq	$48, %rsp
	movq	%rdi, -48(%rbp)
	movq	%rsi, -40(%rbp)
	movq	%rdx, -32(%rbp)
	movq	%rdi, -24(%rbp)
Ltmp103:
	.loc	13 54 21 prologue_end
	leaq	-40(%rbp), %rdi
	callq	__ZN4core5slice4iter13Iter$LT$T$GT$8as_slice17ha0ce64c56345ffc4E
	movq	-48(%rbp), %rdi
	movq	%rax, %rsi
	movq	%rsi, -16(%rbp)
	movq	%rdx, -8(%rbp)
Ltmp104:
	.loc	13 55 18
	callq	__ZN5alloc3vec16Vec$LT$T$C$A$GT$15append_elements17he47226f3c860d220E
Ltmp105:
	.loc	13 56 6
	addq	$48, %rsp
	popq	%rbp
	retq
Ltmp106:
Lfunc_end12:
	.cfi_endproc

	.globl	__ZN161_$LT$$LT$alloc..collections..linked_list..LinkedList$LT$T$GT$$u20$as$u20$core..ops..drop..Drop$GT$..drop..DropGuard$LT$T$GT$$u20$as$u20$core..ops..drop..Drop$GT$4drop17h7d1ae8f49242051fE
	.p2align	4, 0x90
__ZN161_$LT$$LT$alloc..collections..linked_list..LinkedList$LT$T$GT$$u20$as$u20$core..ops..drop..Drop$GT$..drop..DropGuard$LT$T$GT$$u20$as$u20$core..ops..drop..Drop$GT$4drop17h7d1ae8f49242051fE:
Lfunc_begin13:
	.loc	4 1009 0
	.cfi_startproc
	pushq	%rbp
	.cfi_def_cfa_offset 16
	.cfi_offset %rbp, -16
	movq	%rsp, %rbp
	.cfi_def_cfa_register %rbp
	subq	$80, %rsp
	movq	%rdi, -72(%rbp)
	movq	%rdi, -24(%rbp)
LBB13_1:
	movq	-72(%rbp), %rax
Ltmp107:
	.loc	4 1012 23 prologue_end
	movq	(%rax), %rdx
	movq	%rdx, -16(%rbp)
Ltmp108:
	.loc	4 185 9
	movq	(%rdx), %rdi
	.loc	4 185 23 is_stmt 0
	movq	%rdx, %rcx
	addq	$8, %rcx
	movq	%rdx, %rax
	addq	$16, %rax
	movq	%rdx, -48(%rbp)
	movq	%rcx, -40(%rbp)
	movq	%rax, -32(%rbp)
	.loc	4 185 9
	leaq	-48(%rbp), %rsi
	callq	__ZN4core6option15Option$LT$T$GT$3map17h0174fe0999ff1110E
	movq	%rax, -56(%rbp)
Ltmp109:
	.loc	4 1012 23 is_stmt 1
	leaq	-56(%rbp), %rax
	movq	%rax, -8(%rbp)
Ltmp110:
	.file	14 "/rustc/2c8cc343237b8f7d5a3c3703e3a87f2eb2c54a74/library/core/src" "option.rs"
	.loc	14 598 18
	movq	-56(%rbp), %rdx
	movl	$1, %eax
	xorl	%ecx, %ecx
	cmpq	$0, %rdx
	cmoveq	%rcx, %rax
	.file	15 "/rustc/2c8cc343237b8f7d5a3c3703e3a87f2eb2c54a74/library/core/src/macros" "mod.rs"
	.loc	15 344 9
	cmpq	$1, %rax
	jne	LBB13_3
	.loc	15 345 48
	movb	$1, -57(%rbp)
	jmp	LBB13_4
LBB13_3:
	.loc	15 346 18
	movb	$0, -57(%rbp)
Ltmp111:
LBB13_4:
	.loc	4 1012 55
	leaq	-56(%rbp), %rdi
	callq	__ZN4core3ptr140drop_in_place$LT$core..option..Option$LT$alloc..boxed..Box$LT$alloc..collections..linked_list..Node$LT$alloc..string..String$GT$$GT$$GT$$GT$17he9a100e0667d2782E
	.loc	4 1012 23 is_stmt 0
	testb	$1, -57(%rbp)
	jne	LBB13_6
	.loc	4 1013 14 is_stmt 1
	addq	$80, %rsp
	popq	%rbp
	retq
LBB13_6:
	.loc	4 1012 17
	jmp	LBB13_1
Ltmp112:
Lfunc_end13:
	.cfi_endproc

	.globl	__ZN42_$LT$$RF$T$u20$as$u20$core..fmt..Debug$GT$3fmt17h6d99b898f5099d6eE
	.p2align	4, 0x90
__ZN42_$LT$$RF$T$u20$as$u20$core..fmt..Debug$GT$3fmt17h6d99b898f5099d6eE:
Lfunc_begin14:
	.file	16 "/rustc/2c8cc343237b8f7d5a3c3703e3a87f2eb2c54a74/library/core/src/fmt" "mod.rs"
	.loc	16 2377 0
	.cfi_startproc
	pushq	%rbp
	.cfi_def_cfa_offset 16
	.cfi_offset %rbp, -16
	movq	%rsp, %rbp
	.cfi_def_cfa_register %rbp
	subq	$16, %rsp
	movq	%rdi, -16(%rbp)
	movq	%rsi, -8(%rbp)
Ltmp113:
	.loc	16 2377 71 prologue_end
	movq	(%rdi), %rdi
	.loc	16 2377 62 is_stmt 0
	callq	__ZN42_$LT$$RF$T$u20$as$u20$core..fmt..Debug$GT$3fmt17heec27b64d8d3daacE
	.loc	16 2377 84
	andb	$1, %al
	movzbl	%al, %eax
	addq	$16, %rsp
	popq	%rbp
	retq
Ltmp114:
Lfunc_end14:
	.cfi_endproc

	.globl	__ZN42_$LT$$RF$T$u20$as$u20$core..fmt..Debug$GT$3fmt17h76eb638158a3226eE
	.p2align	4, 0x90
__ZN42_$LT$$RF$T$u20$as$u20$core..fmt..Debug$GT$3fmt17h76eb638158a3226eE:
Lfunc_begin15:
	.loc	16 2377 0 is_stmt 1
	.cfi_startproc
	pushq	%rbp
	.cfi_def_cfa_offset 16
	.cfi_offset %rbp, -16
	movq	%rsp, %rbp
	.cfi_def_cfa_register %rbp
	subq	$16, %rsp
	movq	%rdi, -16(%rbp)
	movq	%rsi, -8(%rbp)
Ltmp115:
	.loc	16 2377 71 prologue_end
	movq	(%rdi), %rdi
	.loc	16 2377 62 is_stmt 0
	callq	__ZN50_$LT$$RF$mut$u20$T$u20$as$u20$core..fmt..Debug$GT$3fmt17hc7f0d47aeb5dfbecE
	.loc	16 2377 84
	andb	$1, %al
	movzbl	%al, %eax
	addq	$16, %rsp
	popq	%rbp
	retq
Ltmp116:
Lfunc_end15:
	.cfi_endproc

	.globl	__ZN42_$LT$$RF$T$u20$as$u20$core..fmt..Debug$GT$3fmt17heec27b64d8d3daacE
	.p2align	4, 0x90
__ZN42_$LT$$RF$T$u20$as$u20$core..fmt..Debug$GT$3fmt17heec27b64d8d3daacE:
Lfunc_begin16:
	.loc	16 2377 0 is_stmt 1
	.cfi_startproc
	pushq	%rbp
	.cfi_def_cfa_offset 16
	.cfi_offset %rbp, -16
	movq	%rsp, %rbp
	.cfi_def_cfa_register %rbp
	subq	$16, %rsp
	movq	%rsi, %rdx
	movq	%rdi, %rax
	movq	%rax, -16(%rbp)
	movq	%rdx, -8(%rbp)
Ltmp117:
	.loc	16 2377 71 prologue_end
	movq	(%rax), %rdi
	movq	8(%rax), %rsi
	.loc	16 2377 62 is_stmt 0
	callq	__ZN40_$LT$str$u20$as$u20$core..fmt..Debug$GT$3fmt17h4564f13343f2ac60E
	.loc	16 2377 84
	andb	$1, %al
	movzbl	%al, %eax
	addq	$16, %rsp
	popq	%rbp
	retq
Ltmp118:
Lfunc_end16:
	.cfi_endproc

	.globl	__ZN42_$LT$$RF$T$u20$as$u20$core..fmt..Debug$GT$3fmt17hf3e9ccedb8a2b999E
	.p2align	4, 0x90
__ZN42_$LT$$RF$T$u20$as$u20$core..fmt..Debug$GT$3fmt17hf3e9ccedb8a2b999E:
Lfunc_begin17:
	.loc	16 2377 0 is_stmt 1
	.cfi_startproc
	pushq	%rbp
	.cfi_def_cfa_offset 16
	.cfi_offset %rbp, -16
	movq	%rsp, %rbp
	.cfi_def_cfa_register %rbp
	subq	$16, %rsp
	movq	%rdi, -16(%rbp)
	movq	%rsi, -8(%rbp)
Ltmp119:
	.loc	16 2377 71 prologue_end
	movq	(%rdi), %rdi
	.loc	16 2377 62 is_stmt 0
	callq	__ZN71_$LT$core..ops..range..Range$LT$Idx$GT$$u20$as$u20$core..fmt..Debug$GT$3fmt17h4d33b0b27ca5fec4E
	.loc	16 2377 84
	andb	$1, %al
	movzbl	%al, %eax
	addq	$16, %rsp
	popq	%rbp
	retq
Ltmp120:
Lfunc_end17:
	.cfi_endproc

	.p2align	4, 0x90
__ZN46_$LT$i8$u20$as$u20$core..iter..range..Step$GT$13steps_between17h3f1dfc229f9a2aeaE:
Lfunc_begin18:
	.file	17 "/rustc/2c8cc343237b8f7d5a3c3703e3a87f2eb2c54a74/library/core/src/iter" "range.rs"
	.loc	17 274 0 is_stmt 1
	.cfi_startproc
	pushq	%rbp
	.cfi_def_cfa_offset 16
	.cfi_offset %rbp, -16
	movq	%rsp, %rbp
	.cfi_def_cfa_register %rbp
	subq	$64, %rsp
	movq	%rdi, -64(%rbp)
	movq	%rsi, -56(%rbp)
	movq	%rdi, -32(%rbp)
	movq	%rsi, -24(%rbp)
Ltmp121:
	.loc	17 275 24 prologue_end
	movb	(%rdi), %al
	cmpb	(%rsi), %al
	jle	LBB18_2
	.loc	17 283 25
	movq	$0, -48(%rbp)
	.loc	17 275 21
	jmp	LBB18_3
LBB18_2:
	.loc	17 0 21 is_stmt 0
	movq	-64(%rbp), %rcx
	movq	-56(%rbp), %rax
	.loc	17 281 30 is_stmt 1
	movsbq	(%rax), %rax
	movq	%rax, -16(%rbp)
	.loc	17 281 59 is_stmt 0
	movsbq	(%rcx), %rcx
	movq	%rcx, -8(%rbp)
Ltmp122:
	.file	18 "/rustc/2c8cc343237b8f7d5a3c3703e3a87f2eb2c54a74/library/core/src/num" "int_macros.rs"
	.loc	18 1164 13 is_stmt 1
	subq	%rcx, %rax
Ltmp123:
	.loc	17 281 25
	movq	%rax, -40(%rbp)
	movq	$1, -48(%rbp)
LBB18_3:
	.loc	17 285 18
	movq	-48(%rbp), %rax
	movq	-40(%rbp), %rdx
	addq	$64, %rsp
	popq	%rbp
	retq
Ltmp124:
Lfunc_end18:
	.cfi_endproc

	.p2align	4, 0x90
__ZN46_$LT$u8$u20$as$u20$core..iter..range..Step$GT$13steps_between17h44beb3186fb70d8fE:
Lfunc_begin19:
	.loc	17 242 0
	.cfi_startproc
	pushq	%rbp
	.cfi_def_cfa_offset 16
	.cfi_offset %rbp, -16
	movq	%rsp, %rbp
	.cfi_def_cfa_register %rbp
	subq	$48, %rsp
	movq	%rdi, -48(%rbp)
	movq	%rsi, -40(%rbp)
	movq	%rdi, -16(%rbp)
	movq	%rsi, -8(%rbp)
Ltmp125:
	.loc	17 243 24 prologue_end
	movb	(%rdi), %al
	cmpb	(%rsi), %al
	jbe	LBB19_2
	.loc	17 247 25
	movq	$0, -32(%rbp)
	.loc	17 243 21
	jmp	LBB19_3
LBB19_2:
	.loc	17 0 21 is_stmt 0
	movq	-48(%rbp), %rcx
	movq	-40(%rbp), %rax
	.loc	17 245 31 is_stmt 1
	movb	(%rax), %al
	.loc	17 245 30 is_stmt 0
	subb	(%rcx), %al
	movzbl	%al, %eax
	.loc	17 245 25
	movq	%rax, -24(%rbp)
	movq	$1, -32(%rbp)
LBB19_3:
	.loc	17 249 18 is_stmt 1
	movq	-32(%rbp), %rax
	movq	-24(%rbp), %rdx
	addq	$48, %rsp
	popq	%rbp
	retq
Ltmp126:
Lfunc_end19:
	.cfi_endproc

	.p2align	4, 0x90
__ZN47_$LT$i16$u20$as$u20$core..iter..range..Step$GT$13steps_between17h5c8e0fec188e3b78E:
Lfunc_begin20:
	.loc	17 274 0
	.cfi_startproc
	pushq	%rbp
	.cfi_def_cfa_offset 16
	.cfi_offset %rbp, -16
	movq	%rsp, %rbp
	.cfi_def_cfa_register %rbp
	subq	$64, %rsp
	movq	%rdi, -64(%rbp)
	movq	%rsi, -56(%rbp)
	movq	%rdi, -32(%rbp)
	movq	%rsi, -24(%rbp)
Ltmp127:
	.loc	17 275 24 prologue_end
	movw	(%rdi), %ax
	cmpw	(%rsi), %ax
	jle	LBB20_2
	.loc	17 283 25
	movq	$0, -48(%rbp)
	.loc	17 275 21
	jmp	LBB20_3
LBB20_2:
	.loc	17 0 21 is_stmt 0
	movq	-64(%rbp), %rcx
	movq	-56(%rbp), %rax
	.loc	17 281 30 is_stmt 1
	movswq	(%rax), %rax
	movq	%rax, -16(%rbp)
	.loc	17 281 59 is_stmt 0
	movswq	(%rcx), %rcx
	movq	%rcx, -8(%rbp)
Ltmp128:
	.loc	18 1164 13 is_stmt 1
	subq	%rcx, %rax
Ltmp129:
	.loc	17 281 25
	movq	%rax, -40(%rbp)
	movq	$1, -48(%rbp)
LBB20_3:
	.loc	17 285 18
	movq	-48(%rbp), %rax
	movq	-40(%rbp), %rdx
	addq	$64, %rsp
	popq	%rbp
	retq
Ltmp130:
Lfunc_end20:
	.cfi_endproc

	.p2align	4, 0x90
__ZN47_$LT$i32$u20$as$u20$core..iter..range..Step$GT$13steps_between17ha670cc88351e9f48E:
Lfunc_begin21:
	.loc	17 274 0
	.cfi_startproc
	pushq	%rbp
	.cfi_def_cfa_offset 16
	.cfi_offset %rbp, -16
	movq	%rsp, %rbp
	.cfi_def_cfa_register %rbp
	subq	$64, %rsp
	movq	%rdi, -64(%rbp)
	movq	%rsi, -56(%rbp)
	movq	%rdi, -32(%rbp)
	movq	%rsi, -24(%rbp)
Ltmp131:
	.loc	17 275 24 prologue_end
	movl	(%rdi), %eax
	cmpl	(%rsi), %eax
	jle	LBB21_2
	.loc	17 283 25
	movq	$0, -48(%rbp)
	.loc	17 275 21
	jmp	LBB21_3
LBB21_2:
	.loc	17 0 21 is_stmt 0
	movq	-64(%rbp), %rcx
	movq	-56(%rbp), %rax
	.loc	17 281 30 is_stmt 1
	movslq	(%rax), %rax
	movq	%rax, -16(%rbp)
	.loc	17 281 59 is_stmt 0
	movslq	(%rcx), %rcx
	movq	%rcx, -8(%rbp)
Ltmp132:
	.loc	18 1164 13 is_stmt 1
	subq	%rcx, %rax
Ltmp133:
	.loc	17 281 25
	movq	%rax, -40(%rbp)
	movq	$1, -48(%rbp)
LBB21_3:
	.loc	17 285 18
	movq	-48(%rbp), %rax
	movq	-40(%rbp), %rdx
	addq	$64, %rsp
	popq	%rbp
	retq
Ltmp134:
Lfunc_end21:
	.cfi_endproc

	.p2align	4, 0x90
__ZN47_$LT$u16$u20$as$u20$core..iter..range..Step$GT$13steps_between17h28c8862a74c6a228E:
Lfunc_begin22:
	.loc	17 242 0
	.cfi_startproc
	pushq	%rbp
	.cfi_def_cfa_offset 16
	.cfi_offset %rbp, -16
	movq	%rsp, %rbp
	.cfi_def_cfa_register %rbp
	subq	$48, %rsp
	movq	%rdi, -48(%rbp)
	movq	%rsi, -40(%rbp)
	movq	%rdi, -16(%rbp)
	movq	%rsi, -8(%rbp)
Ltmp135:
	.loc	17 243 24 prologue_end
	movw	(%rdi), %ax
	cmpw	(%rsi), %ax
	jbe	LBB22_2
	.loc	17 247 25
	movq	$0, -32(%rbp)
	.loc	17 243 21
	jmp	LBB22_3
LBB22_2:
	.loc	17 0 21 is_stmt 0
	movq	-48(%rbp), %rcx
	movq	-40(%rbp), %rax
	.loc	17 245 31 is_stmt 1
	movw	(%rax), %ax
	.loc	17 245 30 is_stmt 0
	subw	(%rcx), %ax
	movzwl	%ax, %eax
	.loc	17 245 25
	movq	%rax, -24(%rbp)
	movq	$1, -32(%rbp)
LBB22_3:
	.loc	17 249 18 is_stmt 1
	movq	-32(%rbp), %rax
	movq	-24(%rbp), %rdx
	addq	$48, %rsp
	popq	%rbp
	retq
Ltmp136:
Lfunc_end22:
	.cfi_endproc

	.p2align	4, 0x90
__ZN47_$LT$u32$u20$as$u20$core..iter..range..Step$GT$13steps_between17hac000b02ed635817E:
Lfunc_begin23:
	.loc	17 242 0
	.cfi_startproc
	pushq	%rbp
	.cfi_def_cfa_offset 16
	.cfi_offset %rbp, -16
	movq	%rsp, %rbp
	.cfi_def_cfa_register %rbp
	subq	$48, %rsp
	movq	%rdi, -48(%rbp)
	movq	%rsi, -40(%rbp)
	movq	%rdi, -16(%rbp)
	movq	%rsi, -8(%rbp)
Ltmp137:
	.loc	17 243 24 prologue_end
	movl	(%rdi), %eax
	cmpl	(%rsi), %eax
	jbe	LBB23_2
	.loc	17 247 25
	movq	$0, -32(%rbp)
	.loc	17 243 21
	jmp	LBB23_3
LBB23_2:
	.loc	17 0 21 is_stmt 0
	movq	-48(%rbp), %rcx
	movq	-40(%rbp), %rax
	.loc	17 245 31 is_stmt 1
	movl	(%rax), %eax
	.loc	17 245 30 is_stmt 0
	subl	(%rcx), %eax
	movl	%eax, %eax
	.loc	17 245 25
	movq	%rax, -24(%rbp)
	movq	$1, -32(%rbp)
LBB23_3:
	.loc	17 249 18 is_stmt 1
	movq	-32(%rbp), %rax
	movq	-24(%rbp), %rdx
	addq	$48, %rsp
	popq	%rbp
	retq
Ltmp138:
Lfunc_end23:
	.cfi_endproc

	.p2align	4, 0x90
__ZN49_$LT$isize$u20$as$u20$core..iter..range..Step$GT$13steps_between17hc52c6eb58c78d14aE:
Lfunc_begin24:
	.loc	17 274 0
	.cfi_startproc
	pushq	%rbp
	.cfi_def_cfa_offset 16
	.cfi_offset %rbp, -16
	movq	%rsp, %rbp
	.cfi_def_cfa_register %rbp
	subq	$64, %rsp
	movq	%rdi, -64(%rbp)
	movq	%rsi, -56(%rbp)
	movq	%rdi, -32(%rbp)
	movq	%rsi, -24(%rbp)
Ltmp139:
	.loc	17 275 24 prologue_end
	movq	(%rdi), %rax
	cmpq	(%rsi), %rax
	jle	LBB24_2
	.loc	17 283 25
	movq	$0, -48(%rbp)
	.loc	17 275 21
	jmp	LBB24_3
LBB24_2:
	.loc	17 0 21 is_stmt 0
	movq	-64(%rbp), %rcx
	movq	-56(%rbp), %rax
	.loc	17 281 31 is_stmt 1
	movq	(%rax), %rax
	movq	%rax, -16(%rbp)
	.loc	17 281 59 is_stmt 0
	movq	(%rcx), %rcx
	movq	%rcx, -8(%rbp)
Ltmp140:
	.loc	18 1164 13 is_stmt 1
	subq	%rcx, %rax
Ltmp141:
	.loc	17 281 25
	movq	%rax, -40(%rbp)
	movq	$1, -48(%rbp)
LBB24_3:
	.loc	17 285 18
	movq	-48(%rbp), %rax
	movq	-40(%rbp), %rdx
	addq	$64, %rsp
	popq	%rbp
	retq
Ltmp142:
Lfunc_end24:
	.cfi_endproc

	.p2align	4, 0x90
__ZN4core3cmp5impls53_$LT$impl$u20$core..cmp..PartialEq$u20$for$u20$i8$GT$2eq17h1fc8eee62d609585E:
Lfunc_begin25:
	.file	19 "/rustc/2c8cc343237b8f7d5a3c3703e3a87f2eb2c54a74/library/core/src" "cmp.rs"
	.loc	19 1352 0
	.cfi_startproc
	pushq	%rbp
	.cfi_def_cfa_offset 16
	.cfi_offset %rbp, -16
	movq	%rsp, %rbp
	.cfi_def_cfa_register %rbp
	subq	$16, %rsp
	movq	%rdi, -16(%rbp)
	movq	%rsi, -8(%rbp)
Ltmp143:
	.loc	19 1352 52 prologue_end
	movb	(%rdi), %al
	cmpb	(%rsi), %al
	sete	%al
	.loc	19 1352 73 is_stmt 0
	andb	$1, %al
	movzbl	%al, %eax
	addq	$16, %rsp
	popq	%rbp
	retq
Ltmp144:
Lfunc_end25:
	.cfi_endproc

	.p2align	4, 0x90
__ZN4core3cmp5impls53_$LT$impl$u20$core..cmp..PartialEq$u20$for$u20$u8$GT$2eq17hd153b748d8f78a9dE:
Lfunc_begin26:
	.loc	19 1352 0 is_stmt 1
	.cfi_startproc
	pushq	%rbp
	.cfi_def_cfa_offset 16
	.cfi_offset %rbp, -16
	movq	%rsp, %rbp
	.cfi_def_cfa_register %rbp
	subq	$16, %rsp
	movq	%rdi, -16(%rbp)
	movq	%rsi, -8(%rbp)
Ltmp145:
	.loc	19 1352 52 prologue_end
	movb	(%rdi), %al
	cmpb	(%rsi), %al
	sete	%al
	.loc	19 1352 73 is_stmt 0
	andb	$1, %al
	movzbl	%al, %eax
	addq	$16, %rsp
	popq	%rbp
	retq
Ltmp146:
Lfunc_end26:
	.cfi_endproc

	.p2align	4, 0x90
__ZN4core3cmp5impls54_$LT$impl$u20$core..cmp..PartialEq$u20$for$u20$i16$GT$2eq17h7e36a272bf1b184cE:
Lfunc_begin27:
	.loc	19 1352 0 is_stmt 1
	.cfi_startproc
	pushq	%rbp
	.cfi_def_cfa_offset 16
	.cfi_offset %rbp, -16
	movq	%rsp, %rbp
	.cfi_def_cfa_register %rbp
	subq	$16, %rsp
	movq	%rdi, -16(%rbp)
	movq	%rsi, -8(%rbp)
Ltmp147:
	.loc	19 1352 52 prologue_end
	movw	(%rdi), %ax
	cmpw	(%rsi), %ax
	sete	%al
	.loc	19 1352 73 is_stmt 0
	andb	$1, %al
	movzbl	%al, %eax
	addq	$16, %rsp
	popq	%rbp
	retq
Ltmp148:
Lfunc_end27:
	.cfi_endproc

	.p2align	4, 0x90
__ZN4core3cmp5impls54_$LT$impl$u20$core..cmp..PartialEq$u20$for$u20$i32$GT$2eq17h450cb04b0733423cE:
Lfunc_begin28:
	.loc	19 1352 0 is_stmt 1
	.cfi_startproc
	pushq	%rbp
	.cfi_def_cfa_offset 16
	.cfi_offset %rbp, -16
	movq	%rsp, %rbp
	.cfi_def_cfa_register %rbp
	subq	$16, %rsp
	movq	%rdi, -16(%rbp)
	movq	%rsi, -8(%rbp)
Ltmp149:
	.loc	19 1352 52 prologue_end
	movl	(%rdi), %eax
	cmpl	(%rsi), %eax
	sete	%al
	.loc	19 1352 73 is_stmt 0
	andb	$1, %al
	movzbl	%al, %eax
	addq	$16, %rsp
	popq	%rbp
	retq
Ltmp150:
Lfunc_end28:
	.cfi_endproc

	.p2align	4, 0x90
__ZN4core3cmp5impls54_$LT$impl$u20$core..cmp..PartialEq$u20$for$u20$i64$GT$2eq17h5c81bf3e60aa5501E:
Lfunc_begin29:
	.loc	19 1352 0 is_stmt 1
	.cfi_startproc
	pushq	%rbp
	.cfi_def_cfa_offset 16
	.cfi_offset %rbp, -16
	movq	%rsp, %rbp
	.cfi_def_cfa_register %rbp
	subq	$16, %rsp
	movq	%rdi, -16(%rbp)
	movq	%rsi, -8(%rbp)
Ltmp151:
	.loc	19 1352 52 prologue_end
	movq	(%rdi), %rax
	cmpq	(%rsi), %rax
	sete	%al
	.loc	19 1352 73 is_stmt 0
	andb	$1, %al
	movzbl	%al, %eax
	addq	$16, %rsp
	popq	%rbp
	retq
Ltmp152:
Lfunc_end29:
	.cfi_endproc

	.p2align	4, 0x90
__ZN4core3cmp5impls54_$LT$impl$u20$core..cmp..PartialEq$u20$for$u20$u16$GT$2eq17hfbfa34fb14f04968E:
Lfunc_begin30:
	.loc	19 1352 0 is_stmt 1
	.cfi_startproc
	pushq	%rbp
	.cfi_def_cfa_offset 16
	.cfi_offset %rbp, -16
	movq	%rsp, %rbp
	.cfi_def_cfa_register %rbp
	subq	$16, %rsp
	movq	%rdi, -16(%rbp)
	movq	%rsi, -8(%rbp)
Ltmp153:
	.loc	19 1352 52 prologue_end
	movw	(%rdi), %ax
	cmpw	(%rsi), %ax
	sete	%al
	.loc	19 1352 73 is_stmt 0
	andb	$1, %al
	movzbl	%al, %eax
	addq	$16, %rsp
	popq	%rbp
	retq
Ltmp154:
Lfunc_end30:
	.cfi_endproc

	.p2align	4, 0x90
__ZN4core3cmp5impls54_$LT$impl$u20$core..cmp..PartialEq$u20$for$u20$u32$GT$2eq17hd9863e26ad188e1eE:
Lfunc_begin31:
	.loc	19 1352 0 is_stmt 1
	.cfi_startproc
	pushq	%rbp
	.cfi_def_cfa_offset 16
	.cfi_offset %rbp, -16
	movq	%rsp, %rbp
	.cfi_def_cfa_register %rbp
	subq	$16, %rsp
	movq	%rdi, -16(%rbp)
	movq	%rsi, -8(%rbp)
Ltmp155:
	.loc	19 1352 52 prologue_end
	movl	(%rdi), %eax
	cmpl	(%rsi), %eax
	sete	%al
	.loc	19 1352 73 is_stmt 0
	andb	$1, %al
	movzbl	%al, %eax
	addq	$16, %rsp
	popq	%rbp
	retq
Ltmp156:
Lfunc_end31:
	.cfi_endproc

	.p2align	4, 0x90
__ZN4core3cmp5impls54_$LT$impl$u20$core..cmp..PartialEq$u20$for$u20$u64$GT$2eq17h95777904cf0b46f9E:
Lfunc_begin32:
	.loc	19 1352 0 is_stmt 1
	.cfi_startproc
	pushq	%rbp
	.cfi_def_cfa_offset 16
	.cfi_offset %rbp, -16
	movq	%rsp, %rbp
	.cfi_def_cfa_register %rbp
	subq	$16, %rsp
	movq	%rdi, -16(%rbp)
	movq	%rsi, -8(%rbp)
Ltmp157:
	.loc	19 1352 52 prologue_end
	movq	(%rdi), %rax
	cmpq	(%rsi), %rax
	sete	%al
	.loc	19 1352 73 is_stmt 0
	andb	$1, %al
	movzbl	%al, %eax
	addq	$16, %rsp
	popq	%rbp
	retq
Ltmp158:
Lfunc_end32:
	.cfi_endproc

	.p2align	4, 0x90
__ZN4core3cmp5impls54_$LT$impl$u20$core..cmp..PartialOrd$u20$for$u20$i8$GT$2le17hf52b99e55104d95fE:
Lfunc_begin33:
	.loc	19 1443 0 is_stmt 1
	.cfi_startproc
	pushq	%rbp
	.cfi_def_cfa_offset 16
	.cfi_offset %rbp, -16
	movq	%rsp, %rbp
	.cfi_def_cfa_register %rbp
	subq	$16, %rsp
	movq	%rdi, -16(%rbp)
	movq	%rsi, -8(%rbp)
Ltmp159:
	.loc	19 1443 52 prologue_end
	movb	(%rdi), %al
	cmpb	(%rsi), %al
	setle	%al
	.loc	19 1443 73 is_stmt 0
	andb	$1, %al
	movzbl	%al, %eax
	addq	$16, %rsp
	popq	%rbp
	retq
Ltmp160:
Lfunc_end33:
	.cfi_endproc

	.p2align	4, 0x90
__ZN4core3cmp5impls54_$LT$impl$u20$core..cmp..PartialOrd$u20$for$u20$i8$GT$2lt17h99def62b57c116e2E:
Lfunc_begin34:
	.loc	19 1441 0 is_stmt 1
	.cfi_startproc
	pushq	%rbp
	.cfi_def_cfa_offset 16
	.cfi_offset %rbp, -16
	movq	%rsp, %rbp
	.cfi_def_cfa_register %rbp
	subq	$16, %rsp
	movq	%rdi, -16(%rbp)
	movq	%rsi, -8(%rbp)
Ltmp161:
	.loc	19 1441 52 prologue_end
	movb	(%rdi), %al
	cmpb	(%rsi), %al
	setl	%al
	.loc	19 1441 72 is_stmt 0
	andb	$1, %al
	movzbl	%al, %eax
	addq	$16, %rsp
	popq	%rbp
	retq
Ltmp162:
Lfunc_end34:
	.cfi_endproc

	.p2align	4, 0x90
__ZN4core3cmp5impls54_$LT$impl$u20$core..cmp..PartialOrd$u20$for$u20$u8$GT$2le17h55e4a0a5d8757d93E:
Lfunc_begin35:
	.loc	19 1443 0 is_stmt 1
	.cfi_startproc
	pushq	%rbp
	.cfi_def_cfa_offset 16
	.cfi_offset %rbp, -16
	movq	%rsp, %rbp
	.cfi_def_cfa_register %rbp
	subq	$16, %rsp
	movq	%rdi, -16(%rbp)
	movq	%rsi, -8(%rbp)
Ltmp163:
	.loc	19 1443 52 prologue_end
	movb	(%rdi), %al
	cmpb	(%rsi), %al
	setbe	%al
	.loc	19 1443 73 is_stmt 0
	andb	$1, %al
	movzbl	%al, %eax
	addq	$16, %rsp
	popq	%rbp
	retq
Ltmp164:
Lfunc_end35:
	.cfi_endproc

	.p2align	4, 0x90
__ZN4core3cmp5impls54_$LT$impl$u20$core..cmp..PartialOrd$u20$for$u20$u8$GT$2lt17haf10b036d0cbfbf0E:
Lfunc_begin36:
	.loc	19 1441 0 is_stmt 1
	.cfi_startproc
	pushq	%rbp
	.cfi_def_cfa_offset 16
	.cfi_offset %rbp, -16
	movq	%rsp, %rbp
	.cfi_def_cfa_register %rbp
	subq	$16, %rsp
	movq	%rdi, -16(%rbp)
	movq	%rsi, -8(%rbp)
Ltmp165:
	.loc	19 1441 52 prologue_end
	movb	(%rdi), %al
	cmpb	(%rsi), %al
	setb	%al
	.loc	19 1441 72 is_stmt 0
	andb	$1, %al
	movzbl	%al, %eax
	addq	$16, %rsp
	popq	%rbp
	retq
Ltmp166:
Lfunc_end36:
	.cfi_endproc

	.p2align	4, 0x90
__ZN4core3cmp5impls55_$LT$impl$u20$core..cmp..PartialEq$u20$for$u20$char$GT$2eq17h05608d6956c6d92eE:
Lfunc_begin37:
	.loc	19 1352 0 is_stmt 1
	.cfi_startproc
	pushq	%rbp
	.cfi_def_cfa_offset 16
	.cfi_offset %rbp, -16
	movq	%rsp, %rbp
	.cfi_def_cfa_register %rbp
	subq	$16, %rsp
	movq	%rdi, -16(%rbp)
	movq	%rsi, -8(%rbp)
Ltmp167:
	.loc	19 1352 52 prologue_end
	movl	(%rdi), %eax
	cmpl	(%rsi), %eax
	sete	%al
	.loc	19 1352 73 is_stmt 0
	andb	$1, %al
	movzbl	%al, %eax
	addq	$16, %rsp
	popq	%rbp
	retq
Ltmp168:
Lfunc_end37:
	.cfi_endproc

	.p2align	4, 0x90
__ZN4core3cmp5impls55_$LT$impl$u20$core..cmp..PartialEq$u20$for$u20$i128$GT$2eq17h5efa261cb3f945faE:
Lfunc_begin38:
	.loc	19 1352 0 is_stmt 1
	.cfi_startproc
	pushq	%rbp
	.cfi_def_cfa_offset 16
	.cfi_offset %rbp, -16
	movq	%rsp, %rbp
	.cfi_def_cfa_register %rbp
	subq	$16, %rsp
	movq	%rdi, -16(%rbp)
	movq	%rsi, -8(%rbp)
Ltmp169:
	.loc	19 1352 52 prologue_end
	movups	(%rdi), %xmm0
	.loc	19 1352 63 is_stmt 0
	movups	(%rsi), %xmm1
	.loc	19 1352 52
	pcmpeqb	%xmm1, %xmm0
	pmovmskb	%xmm0, %eax
	subl	$65535, %eax
	sete	%al
	.loc	19 1352 73
	andb	$1, %al
	movzbl	%al, %eax
	addq	$16, %rsp
	popq	%rbp
	retq
Ltmp170:
Lfunc_end38:
	.cfi_endproc

	.p2align	4, 0x90
__ZN4core3cmp5impls55_$LT$impl$u20$core..cmp..PartialEq$u20$for$u20$u128$GT$2eq17hc971da0925cbf81bE:
Lfunc_begin39:
	.loc	19 1352 0 is_stmt 1
	.cfi_startproc
	pushq	%rbp
	.cfi_def_cfa_offset 16
	.cfi_offset %rbp, -16
	movq	%rsp, %rbp
	.cfi_def_cfa_register %rbp
	subq	$16, %rsp
	movq	%rdi, -16(%rbp)
	movq	%rsi, -8(%rbp)
Ltmp171:
	.loc	19 1352 52 prologue_end
	movups	(%rdi), %xmm0
	.loc	19 1352 63 is_stmt 0
	movups	(%rsi), %xmm1
	.loc	19 1352 52
	pcmpeqb	%xmm1, %xmm0
	pmovmskb	%xmm0, %eax
	subl	$65535, %eax
	sete	%al
	.loc	19 1352 73
	andb	$1, %al
	movzbl	%al, %eax
	addq	$16, %rsp
	popq	%rbp
	retq
Ltmp172:
Lfunc_end39:
	.cfi_endproc

	.p2align	4, 0x90
__ZN4core3cmp5impls55_$LT$impl$u20$core..cmp..PartialOrd$u20$for$u20$i16$GT$2le17h5de2fb1e0dd9267aE:
Lfunc_begin40:
	.loc	19 1443 0 is_stmt 1
	.cfi_startproc
	pushq	%rbp
	.cfi_def_cfa_offset 16
	.cfi_offset %rbp, -16
	movq	%rsp, %rbp
	.cfi_def_cfa_register %rbp
	subq	$16, %rsp
	movq	%rdi, -16(%rbp)
	movq	%rsi, -8(%rbp)
Ltmp173:
	.loc	19 1443 52 prologue_end
	movw	(%rdi), %ax
	cmpw	(%rsi), %ax
	setle	%al
	.loc	19 1443 73 is_stmt 0
	andb	$1, %al
	movzbl	%al, %eax
	addq	$16, %rsp
	popq	%rbp
	retq
Ltmp174:
Lfunc_end40:
	.cfi_endproc

	.p2align	4, 0x90
__ZN4core3cmp5impls55_$LT$impl$u20$core..cmp..PartialOrd$u20$for$u20$i16$GT$2lt17h68f8a99cbbc46578E:
Lfunc_begin41:
	.loc	19 1441 0 is_stmt 1
	.cfi_startproc
	pushq	%rbp
	.cfi_def_cfa_offset 16
	.cfi_offset %rbp, -16
	movq	%rsp, %rbp
	.cfi_def_cfa_register %rbp
	subq	$16, %rsp
	movq	%rdi, -16(%rbp)
	movq	%rsi, -8(%rbp)
Ltmp175:
	.loc	19 1441 52 prologue_end
	movw	(%rdi), %ax
	cmpw	(%rsi), %ax
	setl	%al
	.loc	19 1441 72 is_stmt 0
	andb	$1, %al
	movzbl	%al, %eax
	addq	$16, %rsp
	popq	%rbp
	retq
Ltmp176:
Lfunc_end41:
	.cfi_endproc

	.p2align	4, 0x90
__ZN4core3cmp5impls55_$LT$impl$u20$core..cmp..PartialOrd$u20$for$u20$i32$GT$2le17h8e6a93a03e8a893cE:
Lfunc_begin42:
	.loc	19 1443 0 is_stmt 1
	.cfi_startproc
	pushq	%rbp
	.cfi_def_cfa_offset 16
	.cfi_offset %rbp, -16
	movq	%rsp, %rbp
	.cfi_def_cfa_register %rbp
	subq	$16, %rsp
	movq	%rdi, -16(%rbp)
	movq	%rsi, -8(%rbp)
Ltmp177:
	.loc	19 1443 52 prologue_end
	movl	(%rdi), %eax
	cmpl	(%rsi), %eax
	setle	%al
	.loc	19 1443 73 is_stmt 0
	andb	$1, %al
	movzbl	%al, %eax
	addq	$16, %rsp
	popq	%rbp
	retq
Ltmp178:
Lfunc_end42:
	.cfi_endproc

	.p2align	4, 0x90
__ZN4core3cmp5impls55_$LT$impl$u20$core..cmp..PartialOrd$u20$for$u20$i32$GT$2lt17hd2eede0f30e013c2E:
Lfunc_begin43:
	.loc	19 1441 0 is_stmt 1
	.cfi_startproc
	pushq	%rbp
	.cfi_def_cfa_offset 16
	.cfi_offset %rbp, -16
	movq	%rsp, %rbp
	.cfi_def_cfa_register %rbp
	subq	$16, %rsp
	movq	%rdi, -16(%rbp)
	movq	%rsi, -8(%rbp)
Ltmp179:
	.loc	19 1441 52 prologue_end
	movl	(%rdi), %eax
	cmpl	(%rsi), %eax
	setl	%al
	.loc	19 1441 72 is_stmt 0
	andb	$1, %al
	movzbl	%al, %eax
	addq	$16, %rsp
	popq	%rbp
	retq
Ltmp180:
Lfunc_end43:
	.cfi_endproc

	.p2align	4, 0x90
__ZN4core3cmp5impls55_$LT$impl$u20$core..cmp..PartialOrd$u20$for$u20$i64$GT$2le17h4ccf44d72bab0756E:
Lfunc_begin44:
	.loc	19 1443 0 is_stmt 1
	.cfi_startproc
	pushq	%rbp
	.cfi_def_cfa_offset 16
	.cfi_offset %rbp, -16
	movq	%rsp, %rbp
	.cfi_def_cfa_register %rbp
	subq	$16, %rsp
	movq	%rdi, -16(%rbp)
	movq	%rsi, -8(%rbp)
Ltmp181:
	.loc	19 1443 52 prologue_end
	movq	(%rdi), %rax
	cmpq	(%rsi), %rax
	setle	%al
	.loc	19 1443 73 is_stmt 0
	andb	$1, %al
	movzbl	%al, %eax
	addq	$16, %rsp
	popq	%rbp
	retq
Ltmp182:
Lfunc_end44:
	.cfi_endproc

	.p2align	4, 0x90
__ZN4core3cmp5impls55_$LT$impl$u20$core..cmp..PartialOrd$u20$for$u20$u16$GT$2le17h306442623df081e6E:
Lfunc_begin45:
	.loc	19 1443 0 is_stmt 1
	.cfi_startproc
	pushq	%rbp
	.cfi_def_cfa_offset 16
	.cfi_offset %rbp, -16
	movq	%rsp, %rbp
	.cfi_def_cfa_register %rbp
	subq	$16, %rsp
	movq	%rdi, -16(%rbp)
	movq	%rsi, -8(%rbp)
Ltmp183:
	.loc	19 1443 52 prologue_end
	movw	(%rdi), %ax
	cmpw	(%rsi), %ax
	setbe	%al
	.loc	19 1443 73 is_stmt 0
	andb	$1, %al
	movzbl	%al, %eax
	addq	$16, %rsp
	popq	%rbp
	retq
Ltmp184:
Lfunc_end45:
	.cfi_endproc

	.p2align	4, 0x90
__ZN4core3cmp5impls55_$LT$impl$u20$core..cmp..PartialOrd$u20$for$u20$u16$GT$2lt17h4590feea4e21b8e9E:
Lfunc_begin46:
	.loc	19 1441 0 is_stmt 1
	.cfi_startproc
	pushq	%rbp
	.cfi_def_cfa_offset 16
	.cfi_offset %rbp, -16
	movq	%rsp, %rbp
	.cfi_def_cfa_register %rbp
	subq	$16, %rsp
	movq	%rdi, -16(%rbp)
	movq	%rsi, -8(%rbp)
Ltmp185:
	.loc	19 1441 52 prologue_end
	movw	(%rdi), %ax
	cmpw	(%rsi), %ax
	setb	%al
	.loc	19 1441 72 is_stmt 0
	andb	$1, %al
	movzbl	%al, %eax
	addq	$16, %rsp
	popq	%rbp
	retq
Ltmp186:
Lfunc_end46:
	.cfi_endproc

	.p2align	4, 0x90
__ZN4core3cmp5impls55_$LT$impl$u20$core..cmp..PartialOrd$u20$for$u20$u32$GT$2le17hb935470d5ee6229fE:
Lfunc_begin47:
	.loc	19 1443 0 is_stmt 1
	.cfi_startproc
	pushq	%rbp
	.cfi_def_cfa_offset 16
	.cfi_offset %rbp, -16
	movq	%rsp, %rbp
	.cfi_def_cfa_register %rbp
	subq	$16, %rsp
	movq	%rdi, -16(%rbp)
	movq	%rsi, -8(%rbp)
Ltmp187:
	.loc	19 1443 52 prologue_end
	movl	(%rdi), %eax
	cmpl	(%rsi), %eax
	setbe	%al
	.loc	19 1443 73 is_stmt 0
	andb	$1, %al
	movzbl	%al, %eax
	addq	$16, %rsp
	popq	%rbp
	retq
Ltmp188:
Lfunc_end47:
	.cfi_endproc

	.p2align	4, 0x90
__ZN4core3cmp5impls55_$LT$impl$u20$core..cmp..PartialOrd$u20$for$u20$u32$GT$2lt17h2df36674fa470b8fE:
Lfunc_begin48:
	.loc	19 1441 0 is_stmt 1
	.cfi_startproc
	pushq	%rbp
	.cfi_def_cfa_offset 16
	.cfi_offset %rbp, -16
	movq	%rsp, %rbp
	.cfi_def_cfa_register %rbp
	subq	$16, %rsp
	movq	%rdi, -16(%rbp)
	movq	%rsi, -8(%rbp)
Ltmp189:
	.loc	19 1441 52 prologue_end
	movl	(%rdi), %eax
	cmpl	(%rsi), %eax
	setb	%al
	.loc	19 1441 72 is_stmt 0
	andb	$1, %al
	movzbl	%al, %eax
	addq	$16, %rsp
	popq	%rbp
	retq
Ltmp190:
Lfunc_end48:
	.cfi_endproc

	.p2align	4, 0x90
__ZN4core3cmp5impls55_$LT$impl$u20$core..cmp..PartialOrd$u20$for$u20$u64$GT$2le17h7120203397474644E:
Lfunc_begin49:
	.loc	19 1443 0 is_stmt 1
	.cfi_startproc
	pushq	%rbp
	.cfi_def_cfa_offset 16
	.cfi_offset %rbp, -16
	movq	%rsp, %rbp
	.cfi_def_cfa_register %rbp
	subq	$16, %rsp
	movq	%rdi, -16(%rbp)
	movq	%rsi, -8(%rbp)
Ltmp191:
	.loc	19 1443 52 prologue_end
	movq	(%rdi), %rax
	cmpq	(%rsi), %rax
	setbe	%al
	.loc	19 1443 73 is_stmt 0
	andb	$1, %al
	movzbl	%al, %eax
	addq	$16, %rsp
	popq	%rbp
	retq
Ltmp192:
Lfunc_end49:
	.cfi_endproc

	.p2align	4, 0x90
__ZN4core3cmp5impls56_$LT$impl$u20$core..cmp..PartialEq$u20$for$u20$isize$GT$2eq17h5e06de43f4ff2f7fE:
Lfunc_begin50:
	.loc	19 1352 0 is_stmt 1
	.cfi_startproc
	pushq	%rbp
	.cfi_def_cfa_offset 16
	.cfi_offset %rbp, -16
	movq	%rsp, %rbp
	.cfi_def_cfa_register %rbp
	subq	$16, %rsp
	movq	%rdi, -16(%rbp)
	movq	%rsi, -8(%rbp)
Ltmp193:
	.loc	19 1352 52 prologue_end
	movq	(%rdi), %rax
	cmpq	(%rsi), %rax
	sete	%al
	.loc	19 1352 73 is_stmt 0
	andb	$1, %al
	movzbl	%al, %eax
	addq	$16, %rsp
	popq	%rbp
	retq
Ltmp194:
Lfunc_end50:
	.cfi_endproc

	.p2align	4, 0x90
__ZN4core3cmp5impls56_$LT$impl$u20$core..cmp..PartialEq$u20$for$u20$usize$GT$2eq17hacfce299c86b1654E:
Lfunc_begin51:
	.loc	19 1352 0 is_stmt 1
	.cfi_startproc
	pushq	%rbp
	.cfi_def_cfa_offset 16
	.cfi_offset %rbp, -16
	movq	%rsp, %rbp
	.cfi_def_cfa_register %rbp
	subq	$16, %rsp
	movq	%rdi, -16(%rbp)
	movq	%rsi, -8(%rbp)
Ltmp195:
	.loc	19 1352 52 prologue_end
	movq	(%rdi), %rax
	cmpq	(%rsi), %rax
	sete	%al
	.loc	19 1352 73 is_stmt 0
	andb	$1, %al
	movzbl	%al, %eax
	addq	$16, %rsp
	popq	%rbp
	retq
Ltmp196:
Lfunc_end51:
	.cfi_endproc

	.p2align	4, 0x90
__ZN4core3cmp5impls56_$LT$impl$u20$core..cmp..PartialOrd$u20$for$u20$char$GT$2le17h57c7eac3d3651985E:
Lfunc_begin52:
	.loc	19 1443 0 is_stmt 1
	.cfi_startproc
	pushq	%rbp
	.cfi_def_cfa_offset 16
	.cfi_offset %rbp, -16
	movq	%rsp, %rbp
	.cfi_def_cfa_register %rbp
	subq	$16, %rsp
	movq	%rdi, -16(%rbp)
	movq	%rsi, -8(%rbp)
Ltmp197:
	.loc	19 1443 52 prologue_end
	movl	(%rdi), %eax
	cmpl	(%rsi), %eax
	setbe	%al
	.loc	19 1443 73 is_stmt 0
	andb	$1, %al
	movzbl	%al, %eax
	addq	$16, %rsp
	popq	%rbp
	retq
Ltmp198:
Lfunc_end52:
	.cfi_endproc

	.p2align	4, 0x90
__ZN4core3cmp5impls56_$LT$impl$u20$core..cmp..PartialOrd$u20$for$u20$i128$GT$2le17hca02738ec6d44be5E:
Lfunc_begin53:
	.loc	19 1443 0 is_stmt 1
	.cfi_startproc
	pushq	%rbp
	.cfi_def_cfa_offset 16
	.cfi_offset %rbp, -16
	movq	%rsp, %rbp
	.cfi_def_cfa_register %rbp
	subq	$16, %rsp
	movq	%rsi, %rax
	movq	%rdi, -16(%rbp)
	movq	%rax, -8(%rbp)
Ltmp199:
	.loc	19 1443 52 prologue_end
	movq	(%rdi), %rsi
	movq	8(%rdi), %rcx
	.loc	19 1443 63 is_stmt 0
	movq	(%rax), %rdx
	movq	8(%rax), %rax
	.loc	19 1443 52
	subq	%rsi, %rdx
	sbbq	%rcx, %rax
	setge	%al
	.loc	19 1443 73
	andb	$1, %al
	movzbl	%al, %eax
	addq	$16, %rsp
	popq	%rbp
	retq
Ltmp200:
Lfunc_end53:
	.cfi_endproc

	.p2align	4, 0x90
__ZN4core3cmp5impls56_$LT$impl$u20$core..cmp..PartialOrd$u20$for$u20$u128$GT$2le17h08eb35707a6bcbcdE:
Lfunc_begin54:
	.loc	19 1443 0 is_stmt 1
	.cfi_startproc
	pushq	%rbp
	.cfi_def_cfa_offset 16
	.cfi_offset %rbp, -16
	movq	%rsp, %rbp
	.cfi_def_cfa_register %rbp
	subq	$16, %rsp
	movq	%rsi, %rax
	movq	%rdi, -16(%rbp)
	movq	%rax, -8(%rbp)
Ltmp201:
	.loc	19 1443 52 prologue_end
	movq	(%rdi), %rsi
	movq	8(%rdi), %rcx
	.loc	19 1443 63 is_stmt 0
	movq	(%rax), %rdx
	movq	8(%rax), %rax
	.loc	19 1443 52
	subq	%rsi, %rdx
	sbbq	%rcx, %rax
	setae	%al
	.loc	19 1443 73
	andb	$1, %al
	movzbl	%al, %eax
	addq	$16, %rsp
	popq	%rbp
	retq
Ltmp202:
Lfunc_end54:
	.cfi_endproc

	.p2align	4, 0x90
__ZN4core3cmp5impls57_$LT$impl$u20$core..cmp..PartialOrd$u20$for$u20$isize$GT$2le17hb96c3e8fdcf17478E:
Lfunc_begin55:
	.loc	19 1443 0 is_stmt 1
	.cfi_startproc
	pushq	%rbp
	.cfi_def_cfa_offset 16
	.cfi_offset %rbp, -16
	movq	%rsp, %rbp
	.cfi_def_cfa_register %rbp
	subq	$16, %rsp
	movq	%rdi, -16(%rbp)
	movq	%rsi, -8(%rbp)
Ltmp203:
	.loc	19 1443 52 prologue_end
	movq	(%rdi), %rax
	cmpq	(%rsi), %rax
	setle	%al
	.loc	19 1443 73 is_stmt 0
	andb	$1, %al
	movzbl	%al, %eax
	addq	$16, %rsp
	popq	%rbp
	retq
Ltmp204:
Lfunc_end55:
	.cfi_endproc

	.p2align	4, 0x90
__ZN4core3cmp5impls57_$LT$impl$u20$core..cmp..PartialOrd$u20$for$u20$isize$GT$2lt17hb7d7373cf87d538fE:
Lfunc_begin56:
	.loc	19 1441 0 is_stmt 1
	.cfi_startproc
	pushq	%rbp
	.cfi_def_cfa_offset 16
	.cfi_offset %rbp, -16
	movq	%rsp, %rbp
	.cfi_def_cfa_register %rbp
	subq	$16, %rsp
	movq	%rdi, -16(%rbp)
	movq	%rsi, -8(%rbp)
Ltmp205:
	.loc	19 1441 52 prologue_end
	movq	(%rdi), %rax
	cmpq	(%rsi), %rax
	setl	%al
	.loc	19 1441 72 is_stmt 0
	andb	$1, %al
	movzbl	%al, %eax
	addq	$16, %rsp
	popq	%rbp
	retq
Ltmp206:
Lfunc_end56:
	.cfi_endproc

	.p2align	4, 0x90
__ZN4core3cmp5impls57_$LT$impl$u20$core..cmp..PartialOrd$u20$for$u20$usize$GT$2le17hd3ab99e055984602E:
Lfunc_begin57:
	.loc	19 1443 0 is_stmt 1
	.cfi_startproc
	pushq	%rbp
	.cfi_def_cfa_offset 16
	.cfi_offset %rbp, -16
	movq	%rsp, %rbp
	.cfi_def_cfa_register %rbp
	subq	$16, %rsp
	movq	%rdi, -16(%rbp)
	movq	%rsi, -8(%rbp)
Ltmp207:
	.loc	19 1443 52 prologue_end
	movq	(%rdi), %rax
	cmpq	(%rsi), %rax
	setbe	%al
	.loc	19 1443 73 is_stmt 0
	andb	$1, %al
	movzbl	%al, %eax
	addq	$16, %rsp
	popq	%rbp
	retq
Ltmp208:
Lfunc_end57:
	.cfi_endproc

	.p2align	4, 0x90
__ZN4core3fmt3num52_$LT$impl$u20$core..fmt..Debug$u20$for$u20$usize$GT$3fmt17h4e36cb807663f39cE:
Lfunc_begin58:
	.file	20 "/rustc/2c8cc343237b8f7d5a3c3703e3a87f2eb2c54a74/library/core/src/fmt" "num.rs"
	.loc	20 185 0 is_stmt 1
	.cfi_startproc
	pushq	%rbp
	.cfi_def_cfa_offset 16
	.cfi_offset %rbp, -16
	movq	%rsp, %rbp
	.cfi_def_cfa_register %rbp
	subq	$48, %rsp
	movq	%rsi, -48(%rbp)
	movq	%rdi, %rax
	movq	-48(%rbp), %rdi
	movq	%rax, -40(%rbp)
	movq	%rdi, -32(%rbp)
	movq	%rax, -16(%rbp)
	movq	%rdi, -8(%rbp)
Ltmp209:
	.loc	20 186 20 prologue_end
	callq	__ZN4core3fmt9Formatter15debug_lower_hex17h0921e6b9188d914eE
	testb	$1, %al
	jne	LBB58_2
	.loc	20 0 20 is_stmt 0
	movq	-32(%rbp), %rdi
	.loc	20 188 27 is_stmt 1
	callq	__ZN4core3fmt9Formatter15debug_upper_hex17h8ce487049a6cccf8E
	testb	$1, %al
	jne	LBB58_5
	jmp	LBB58_4
LBB58_2:
	.loc	20 0 27 is_stmt 0
	movq	-32(%rbp), %rsi
	movq	-40(%rbp), %rdi
	.loc	20 187 21 is_stmt 1
	callq	__ZN4core3fmt3num55_$LT$impl$u20$core..fmt..LowerHex$u20$for$u20$usize$GT$3fmt17h84f349805fe63f8dE
	andb	$1, %al
	movb	%al, -17(%rbp)
LBB58_3:
	.loc	20 193 14
	movb	-17(%rbp), %al
	andb	$1, %al
	movzbl	%al, %eax
	addq	$48, %rsp
	popq	%rbp
	retq
LBB58_4:
	.loc	20 0 14 is_stmt 0
	movq	-32(%rbp), %rsi
	movq	-40(%rbp), %rdi
	.loc	20 191 21 is_stmt 1
	callq	__ZN4core3fmt3num3imp54_$LT$impl$u20$core..fmt..Display$u20$for$u20$usize$GT$3fmt17ha5c925fcd7ed33faE
	andb	$1, %al
	movb	%al, -17(%rbp)
	.loc	20 188 24
	jmp	LBB58_6
LBB58_5:
	.loc	20 0 24 is_stmt 0
	movq	-32(%rbp), %rsi
	movq	-40(%rbp), %rdi
	.loc	20 189 21 is_stmt 1
	callq	__ZN4core3fmt3num55_$LT$impl$u20$core..fmt..UpperHex$u20$for$u20$usize$GT$3fmt17h49aa717311edc293E
	andb	$1, %al
	movb	%al, -17(%rbp)
LBB58_6:
	.loc	20 186 17
	jmp	LBB58_3
Ltmp210:
Lfunc_end58:
	.cfi_endproc

	.p2align	4, 0x90
__ZN4core3fmt9Arguments6new_v117hf458e5de41a9183dE:
Lfunc_begin59:
	.loc	16 399 0
	.cfi_startproc
	pushq	%rbp
	.cfi_def_cfa_offset 16
	.cfi_offset %rbp, -16
	movq	%rsp, %rbp
	.cfi_def_cfa_register %rbp
	subq	$160, %rsp
	movq	%r8, -152(%rbp)
	movq	%rcx, -144(%rbp)
	movq	%rdx, -136(%rbp)
	movq	%rsi, -128(%rbp)
	movq	%rdi, -120(%rbp)
	movq	%rdi, -112(%rbp)
	movq	%rsi, -32(%rbp)
	movq	%rdx, -24(%rbp)
	movq	%rcx, -16(%rbp)
	movq	%r8, -8(%rbp)
Ltmp211:
	.loc	16 400 12 prologue_end
	cmpq	%r8, %rdx
	jb	LBB59_2
	.loc	16 0 12 is_stmt 0
	movq	-136(%rbp), %rax
	movq	-152(%rbp), %rcx
	.loc	16 400 56
	addq	$1, %rcx
	.loc	16 400 41
	cmpq	%rcx, %rax
	seta	%al
	.loc	16 400 12
	andb	$1, %al
	movb	%al, -97(%rbp)
	jmp	LBB59_3
LBB59_2:
	movb	$1, -97(%rbp)
LBB59_3:
	testb	$1, -97(%rbp)
	jne	LBB59_5
	.loc	16 0 12
	movq	-112(%rbp), %rax
	movq	-120(%rbp), %rcx
	movq	-152(%rbp), %rdx
	movq	-144(%rbp), %rsi
	movq	-136(%rbp), %rdi
	movq	-128(%rbp), %r8
	.loc	16 403 34 is_stmt 1
	movq	$0, -48(%rbp)
	.loc	16 403 9 is_stmt 0
	movq	%r8, 16(%rcx)
	movq	%rdi, 24(%rcx)
	movq	-48(%rbp), %r8
	movq	-40(%rbp), %rdi
	movq	%r8, (%rcx)
	movq	%rdi, 8(%rcx)
	movq	%rsi, 32(%rcx)
	movq	%rdx, 40(%rcx)
	.loc	16 404 6 is_stmt 1
	addq	$160, %rsp
	popq	%rbp
	retq
LBB59_5:
	.loc	16 401 13
	leaq	l___unnamed_4(%rip), %rsi
	leaq	l___unnamed_5(%rip), %rcx
	xorl	%eax, %eax
	movl	%eax, %r8d
	leaq	-96(%rbp), %rdi
	movq	%rdi, -160(%rbp)
	movl	$1, %edx
	callq	__ZN4core3fmt9Arguments6new_v117hf458e5de41a9183dE
	movq	-160(%rbp), %rdi
	leaq	l___unnamed_6(%rip), %rsi
	callq	__ZN4core9panicking9panic_fmt17h9b5d807e24bcaaedE
Ltmp212:
Lfunc_end59:
	.cfi_endproc

	.p2align	4, 0x90
__ZN4core3num20_$LT$impl$u20$i8$GT$11checked_add17hc1ad18f31122de9dE:
Lfunc_begin60:
	.loc	18 432 0
	.cfi_startproc
	pushq	%rbp
	.cfi_def_cfa_offset 16
	.cfi_offset %rbp, -16
	movq	%rsp, %rbp
	.cfi_def_cfa_register %rbp
	subq	$32, %rsp
	movb	%sil, %al
	movb	%dil, %cl
	movb	%cl, -12(%rbp)
	movb	%al, -11(%rbp)
Ltmp213:
	.loc	18 433 26 prologue_end
	movb	%cl, -10(%rbp)
	.loc	18 433 47 is_stmt 0
	movb	%al, -9(%rbp)
Ltmp214:
	.loc	18 1513 26 is_stmt 1
	addb	%al, %cl
	seto	%al
	andb	$1, %al
	movb	%cl, -8(%rbp)
	movb	%al, -7(%rbp)
	movb	-8(%rbp), %cl
	movb	-7(%rbp), %al
	.loc	18 1513 18 is_stmt 0
	movb	%cl, -5(%rbp)
	.loc	18 1513 21
	movb	%al, %dl
	andb	$1, %dl
	movb	%dl, -4(%rbp)
Ltmp215:
	.loc	18 1514 13 is_stmt 1
	movb	%cl, -16(%rbp)
	andb	$1, %al
	movb	%al, -15(%rbp)
Ltmp216:
	.loc	18 433 18
	movb	-16(%rbp), %al
	movb	%al, -25(%rbp)
	movb	%al, -3(%rbp)
	.loc	18 433 21 is_stmt 0
	movb	-15(%rbp), %al
	movb	%al, %cl
	andb	$1, %cl
	movb	%cl, -2(%rbp)
Ltmp217:
	.loc	18 434 16 is_stmt 1
	andb	$1, %al
	movb	%al, -1(%rbp)
	testb	$1, -1(%rbp)
	jne	LBB60_2
	.loc	18 0 16 is_stmt 0
	movb	-25(%rbp), %al
	.loc	18 434 42
	movb	%al, -23(%rbp)
	movb	$1, -24(%rbp)
	.loc	18 434 13
	jmp	LBB60_3
LBB60_2:
	.loc	18 434 30
	movb	$0, -24(%rbp)
Ltmp218:
LBB60_3:
	.loc	18 435 10 is_stmt 1
	movb	-24(%rbp), %al
	movb	-23(%rbp), %dl
	addq	$32, %rsp
	popq	%rbp
	retq
Ltmp219:
Lfunc_end60:
	.cfi_endproc

	.p2align	4, 0x90
__ZN4core3num20_$LT$impl$u20$u8$GT$11checked_add17ha26bf7675d0d77f3E:
Lfunc_begin61:
	.file	21 "/rustc/2c8cc343237b8f7d5a3c3703e3a87f2eb2c54a74/library/core/src/num" "uint_macros.rs"
	.loc	21 442 0
	.cfi_startproc
	pushq	%rbp
	.cfi_def_cfa_offset 16
	.cfi_offset %rbp, -16
	movq	%rsp, %rbp
	.cfi_def_cfa_register %rbp
	subq	$32, %rsp
	movb	%sil, %al
	movb	%dil, %cl
	movb	%cl, -12(%rbp)
	movb	%al, -11(%rbp)
Ltmp220:
	.loc	21 443 26 prologue_end
	movb	%cl, -10(%rbp)
	.loc	21 443 47 is_stmt 0
	movb	%al, -9(%rbp)
Ltmp221:
	.loc	21 1479 26 is_stmt 1
	addb	%al, %cl
	setb	%al
	andb	$1, %al
	movb	%cl, -8(%rbp)
	movb	%al, -7(%rbp)
	movb	-8(%rbp), %cl
	movb	-7(%rbp), %al
	.loc	21 1479 18 is_stmt 0
	movb	%cl, -5(%rbp)
	.loc	21 1479 21
	movb	%al, %dl
	andb	$1, %dl
	movb	%dl, -4(%rbp)
Ltmp222:
	.loc	21 1480 13 is_stmt 1
	movb	%cl, -16(%rbp)
	andb	$1, %al
	movb	%al, -15(%rbp)
Ltmp223:
	.loc	21 443 18
	movb	-16(%rbp), %al
	movb	%al, -25(%rbp)
	movb	%al, -3(%rbp)
	.loc	21 443 21 is_stmt 0
	movb	-15(%rbp), %al
	movb	%al, %cl
	andb	$1, %cl
	movb	%cl, -2(%rbp)
Ltmp224:
	.loc	21 444 16 is_stmt 1
	andb	$1, %al
	movb	%al, -1(%rbp)
	testb	$1, -1(%rbp)
	jne	LBB61_2
	.loc	21 0 16 is_stmt 0
	movb	-25(%rbp), %al
	.loc	21 444 42
	movb	%al, -23(%rbp)
	movb	$1, -24(%rbp)
	.loc	21 444 13
	jmp	LBB61_3
LBB61_2:
	.loc	21 444 30
	movb	$0, -24(%rbp)
Ltmp225:
LBB61_3:
	.loc	21 445 10 is_stmt 1
	movb	-24(%rbp), %al
	movb	-23(%rbp), %dl
	addq	$32, %rsp
	popq	%rbp
	retq
Ltmp226:
Lfunc_end61:
	.cfi_endproc

	.p2align	4, 0x90
__ZN4core3num21_$LT$impl$u20$i16$GT$11checked_add17h622ea8fabc1713baE:
Lfunc_begin62:
	.loc	18 432 0
	.cfi_startproc
	pushq	%rbp
	.cfi_def_cfa_offset 16
	.cfi_offset %rbp, -16
	movq	%rsp, %rbp
	.cfi_def_cfa_register %rbp
	subq	$48, %rsp
	movw	%si, %ax
	movw	%di, %cx
	movw	%cx, -24(%rbp)
	movw	%ax, -22(%rbp)
Ltmp227:
	.loc	18 433 26 prologue_end
	movw	%cx, -20(%rbp)
	.loc	18 433 47 is_stmt 0
	movw	%ax, -18(%rbp)
Ltmp228:
	.loc	18 1513 26 is_stmt 1
	addw	%ax, %cx
	seto	%al
	andb	$1, %al
	movw	%cx, -16(%rbp)
	movb	%al, -14(%rbp)
	movw	-16(%rbp), %cx
	movb	-14(%rbp), %al
	.loc	18 1513 18 is_stmt 0
	movw	%cx, -8(%rbp)
	.loc	18 1513 21
	movb	%al, %dl
	andb	$1, %dl
	movb	%dl, -5(%rbp)
Ltmp229:
	.loc	18 1514 13 is_stmt 1
	movw	%cx, -32(%rbp)
	andb	$1, %al
	movb	%al, -30(%rbp)
Ltmp230:
	.loc	18 433 18
	movw	-32(%rbp), %ax
	movw	%ax, -42(%rbp)
	movw	%ax, -4(%rbp)
	.loc	18 433 21 is_stmt 0
	movb	-30(%rbp), %al
	movb	%al, %cl
	andb	$1, %cl
	movb	%cl, -2(%rbp)
Ltmp231:
	.loc	18 434 16 is_stmt 1
	andb	$1, %al
	movb	%al, -1(%rbp)
	testb	$1, -1(%rbp)
	jne	LBB62_2
	.loc	18 0 16 is_stmt 0
	movw	-42(%rbp), %ax
	.loc	18 434 42
	movw	%ax, -38(%rbp)
	movw	$1, -40(%rbp)
	.loc	18 434 13
	jmp	LBB62_3
LBB62_2:
	.loc	18 434 30
	movw	$0, -40(%rbp)
Ltmp232:
LBB62_3:
	.loc	18 435 10 is_stmt 1
	movw	-40(%rbp), %ax
	movw	-38(%rbp), %dx
	addq	$48, %rsp
	popq	%rbp
	retq
Ltmp233:
Lfunc_end62:
	.cfi_endproc

	.p2align	4, 0x90
__ZN4core3num21_$LT$impl$u20$i32$GT$11checked_add17hf1284818552582b3E:
Lfunc_begin63:
	.loc	18 432 0
	.cfi_startproc
	pushq	%rbp
	.cfi_def_cfa_offset 16
	.cfi_offset %rbp, -16
	movq	%rsp, %rbp
	.cfi_def_cfa_register %rbp
	subq	$64, %rsp
	movl	%edi, -40(%rbp)
	movl	%esi, -36(%rbp)
Ltmp234:
	.loc	18 433 26 prologue_end
	movl	%edi, -32(%rbp)
	.loc	18 433 47 is_stmt 0
	movl	%esi, -28(%rbp)
Ltmp235:
	.loc	18 1513 26 is_stmt 1
	addl	%esi, %edi
	seto	%al
	andb	$1, %al
	movl	%edi, -24(%rbp)
	movb	%al, -20(%rbp)
	movl	-24(%rbp), %ecx
	movb	-20(%rbp), %al
	.loc	18 1513 18 is_stmt 0
	movl	%ecx, -16(%rbp)
	.loc	18 1513 21
	movb	%al, %dl
	andb	$1, %dl
	movb	%dl, -9(%rbp)
Ltmp236:
	.loc	18 1514 13 is_stmt 1
	movl	%ecx, -48(%rbp)
	andb	$1, %al
	movb	%al, -44(%rbp)
Ltmp237:
	.loc	18 433 18
	movl	-48(%rbp), %eax
	movl	%eax, -60(%rbp)
	movl	%eax, -8(%rbp)
	.loc	18 433 21 is_stmt 0
	movb	-44(%rbp), %al
	movb	%al, %cl
	andb	$1, %cl
	movb	%cl, -2(%rbp)
Ltmp238:
	.loc	18 434 16 is_stmt 1
	andb	$1, %al
	movb	%al, -1(%rbp)
	testb	$1, -1(%rbp)
	jne	LBB63_2
	.loc	18 0 16 is_stmt 0
	movl	-60(%rbp), %eax
	.loc	18 434 42
	movl	%eax, -52(%rbp)
	movl	$1, -56(%rbp)
	.loc	18 434 13
	jmp	LBB63_3
LBB63_2:
	.loc	18 434 30
	movl	$0, -56(%rbp)
Ltmp239:
LBB63_3:
	.loc	18 435 10 is_stmt 1
	movl	-56(%rbp), %eax
	movl	-52(%rbp), %edx
	addq	$64, %rsp
	popq	%rbp
	retq
Ltmp240:
Lfunc_end63:
	.cfi_endproc

	.p2align	4, 0x90
__ZN4core3num21_$LT$impl$u20$i64$GT$11checked_add17h0a14e950a298bcadE:
Lfunc_begin64:
	.loc	18 432 0
	.cfi_startproc
	pushq	%rbp
	.cfi_def_cfa_offset 16
	.cfi_offset %rbp, -16
	movq	%rsp, %rbp
	.cfi_def_cfa_register %rbp
	subq	$120, %rsp
	movq	%rdi, -80(%rbp)
	movq	%rsi, -72(%rbp)
Ltmp241:
	.loc	18 433 26 prologue_end
	movq	%rdi, -64(%rbp)
	.loc	18 433 47 is_stmt 0
	movq	%rsi, -56(%rbp)
Ltmp242:
	.loc	18 1513 26 is_stmt 1
	addq	%rsi, %rdi
	seto	%al
	andb	$1, %al
	movq	%rdi, -48(%rbp)
	movb	%al, -40(%rbp)
	movq	-48(%rbp), %rcx
	movb	-40(%rbp), %al
	.loc	18 1513 18 is_stmt 0
	movq	%rcx, -32(%rbp)
	.loc	18 1513 21
	movb	%al, %dl
	andb	$1, %dl
	movb	%dl, -17(%rbp)
Ltmp243:
	.loc	18 1514 13 is_stmt 1
	movq	%rcx, -96(%rbp)
	andb	$1, %al
	movb	%al, -88(%rbp)
Ltmp244:
	.loc	18 433 18
	movq	-96(%rbp), %rax
	movq	%rax, -120(%rbp)
	movq	%rax, -16(%rbp)
	.loc	18 433 21 is_stmt 0
	movb	-88(%rbp), %al
	movb	%al, %cl
	andb	$1, %cl
	movb	%cl, -2(%rbp)
Ltmp245:
	.loc	18 434 16 is_stmt 1
	andb	$1, %al
	movb	%al, -1(%rbp)
	testb	$1, -1(%rbp)
	jne	LBB64_2
	.loc	18 0 16 is_stmt 0
	movq	-120(%rbp), %rax
	.loc	18 434 42
	movq	%rax, -104(%rbp)
	movq	$1, -112(%rbp)
	.loc	18 434 13
	jmp	LBB64_3
LBB64_2:
	.loc	18 434 30
	movq	$0, -112(%rbp)
Ltmp246:
LBB64_3:
	.loc	18 435 10 is_stmt 1
	movq	-112(%rbp), %rax
	movq	-104(%rbp), %rdx
	addq	$120, %rsp
	popq	%rbp
	retq
Ltmp247:
Lfunc_end64:
	.cfi_endproc

	.p2align	4, 0x90
__ZN4core3num21_$LT$impl$u20$u16$GT$11checked_add17hab5a79c411cd6d1dE:
Lfunc_begin65:
	.loc	21 442 0
	.cfi_startproc
	pushq	%rbp
	.cfi_def_cfa_offset 16
	.cfi_offset %rbp, -16
	movq	%rsp, %rbp
	.cfi_def_cfa_register %rbp
	subq	$48, %rsp
	movw	%si, %ax
	movw	%di, %cx
	movw	%cx, -24(%rbp)
	movw	%ax, -22(%rbp)
Ltmp248:
	.loc	21 443 26 prologue_end
	movw	%cx, -20(%rbp)
	.loc	21 443 47 is_stmt 0
	movw	%ax, -18(%rbp)
Ltmp249:
	.loc	21 1479 26 is_stmt 1
	addw	%ax, %cx
	setb	%al
	andb	$1, %al
	movw	%cx, -16(%rbp)
	movb	%al, -14(%rbp)
	movw	-16(%rbp), %cx
	movb	-14(%rbp), %al
	.loc	21 1479 18 is_stmt 0
	movw	%cx, -8(%rbp)
	.loc	21 1479 21
	movb	%al, %dl
	andb	$1, %dl
	movb	%dl, -5(%rbp)
Ltmp250:
	.loc	21 1480 13 is_stmt 1
	movw	%cx, -32(%rbp)
	andb	$1, %al
	movb	%al, -30(%rbp)
Ltmp251:
	.loc	21 443 18
	movw	-32(%rbp), %ax
	movw	%ax, -42(%rbp)
	movw	%ax, -4(%rbp)
	.loc	21 443 21 is_stmt 0
	movb	-30(%rbp), %al
	movb	%al, %cl
	andb	$1, %cl
	movb	%cl, -2(%rbp)
Ltmp252:
	.loc	21 444 16 is_stmt 1
	andb	$1, %al
	movb	%al, -1(%rbp)
	testb	$1, -1(%rbp)
	jne	LBB65_2
	.loc	21 0 16 is_stmt 0
	movw	-42(%rbp), %ax
	.loc	21 444 42
	movw	%ax, -38(%rbp)
	movw	$1, -40(%rbp)
	.loc	21 444 13
	jmp	LBB65_3
LBB65_2:
	.loc	21 444 30
	movw	$0, -40(%rbp)
Ltmp253:
LBB65_3:
	.loc	21 445 10 is_stmt 1
	movw	-40(%rbp), %ax
	movw	-38(%rbp), %dx
	addq	$48, %rsp
	popq	%rbp
	retq
Ltmp254:
Lfunc_end65:
	.cfi_endproc

	.p2align	4, 0x90
__ZN4core3num21_$LT$impl$u20$u32$GT$11checked_add17h2f970081774801a0E:
Lfunc_begin66:
	.loc	21 442 0
	.cfi_startproc
	pushq	%rbp
	.cfi_def_cfa_offset 16
	.cfi_offset %rbp, -16
	movq	%rsp, %rbp
	.cfi_def_cfa_register %rbp
	subq	$64, %rsp
	movl	%edi, -40(%rbp)
	movl	%esi, -36(%rbp)
Ltmp255:
	.loc	21 443 26 prologue_end
	movl	%edi, -32(%rbp)
	.loc	21 443 47 is_stmt 0
	movl	%esi, -28(%rbp)
Ltmp256:
	.loc	21 1479 26 is_stmt 1
	addl	%esi, %edi
	setb	%al
	andb	$1, %al
	movl	%edi, -24(%rbp)
	movb	%al, -20(%rbp)
	movl	-24(%rbp), %ecx
	movb	-20(%rbp), %al
	.loc	21 1479 18 is_stmt 0
	movl	%ecx, -16(%rbp)
	.loc	21 1479 21
	movb	%al, %dl
	andb	$1, %dl
	movb	%dl, -9(%rbp)
Ltmp257:
	.loc	21 1480 13 is_stmt 1
	movl	%ecx, -48(%rbp)
	andb	$1, %al
	movb	%al, -44(%rbp)
Ltmp258:
	.loc	21 443 18
	movl	-48(%rbp), %eax
	movl	%eax, -60(%rbp)
	movl	%eax, -8(%rbp)
	.loc	21 443 21 is_stmt 0
	movb	-44(%rbp), %al
	movb	%al, %cl
	andb	$1, %cl
	movb	%cl, -2(%rbp)
Ltmp259:
	.loc	21 444 16 is_stmt 1
	andb	$1, %al
	movb	%al, -1(%rbp)
	testb	$1, -1(%rbp)
	jne	LBB66_2
	.loc	21 0 16 is_stmt 0
	movl	-60(%rbp), %eax
	.loc	21 444 42
	movl	%eax, -52(%rbp)
	movl	$1, -56(%rbp)
	.loc	21 444 13
	jmp	LBB66_3
LBB66_2:
	.loc	21 444 30
	movl	$0, -56(%rbp)
Ltmp260:
LBB66_3:
	.loc	21 445 10 is_stmt 1
	movl	-56(%rbp), %eax
	movl	-52(%rbp), %edx
	addq	$64, %rsp
	popq	%rbp
	retq
Ltmp261:
Lfunc_end66:
	.cfi_endproc

	.p2align	4, 0x90
__ZN4core3num21_$LT$impl$u20$u64$GT$11checked_add17hc905cf59aa3c20efE:
Lfunc_begin67:
	.loc	21 442 0
	.cfi_startproc
	pushq	%rbp
	.cfi_def_cfa_offset 16
	.cfi_offset %rbp, -16
	movq	%rsp, %rbp
	.cfi_def_cfa_register %rbp
	subq	$120, %rsp
	movq	%rdi, -80(%rbp)
	movq	%rsi, -72(%rbp)
Ltmp262:
	.loc	21 443 26 prologue_end
	movq	%rdi, -64(%rbp)
	.loc	21 443 47 is_stmt 0
	movq	%rsi, -56(%rbp)
Ltmp263:
	.loc	21 1479 26 is_stmt 1
	addq	%rsi, %rdi
	setb	%al
	andb	$1, %al
	movq	%rdi, -48(%rbp)
	movb	%al, -40(%rbp)
	movq	-48(%rbp), %rcx
	movb	-40(%rbp), %al
	.loc	21 1479 18 is_stmt 0
	movq	%rcx, -32(%rbp)
	.loc	21 1479 21
	movb	%al, %dl
	andb	$1, %dl
	movb	%dl, -17(%rbp)
Ltmp264:
	.loc	21 1480 13 is_stmt 1
	movq	%rcx, -96(%rbp)
	andb	$1, %al
	movb	%al, -88(%rbp)
Ltmp265:
	.loc	21 443 18
	movq	-96(%rbp), %rax
	movq	%rax, -120(%rbp)
	movq	%rax, -16(%rbp)
	.loc	21 443 21 is_stmt 0
	movb	-88(%rbp), %al
	movb	%al, %cl
	andb	$1, %cl
	movb	%cl, -2(%rbp)
Ltmp266:
	.loc	21 444 16 is_stmt 1
	andb	$1, %al
	movb	%al, -1(%rbp)
	testb	$1, -1(%rbp)
	jne	LBB67_2
	.loc	21 0 16 is_stmt 0
	movq	-120(%rbp), %rax
	.loc	21 444 42
	movq	%rax, -104(%rbp)
	movq	$1, -112(%rbp)
	.loc	21 444 13
	jmp	LBB67_3
LBB67_2:
	.loc	21 444 30
	movq	$0, -112(%rbp)
Ltmp267:
LBB67_3:
	.loc	21 445 10 is_stmt 1
	movq	-112(%rbp), %rax
	movq	-104(%rbp), %rdx
	addq	$120, %rsp
	popq	%rbp
	retq
Ltmp268:
Lfunc_end67:
	.cfi_endproc

	.p2align	4, 0x90
__ZN4core3num22_$LT$impl$u20$i128$GT$11checked_add17h62566b9808851971E:
Lfunc_begin68:
	.loc	18 432 0
	.cfi_startproc
	pushq	%rbp
	.cfi_def_cfa_offset 16
	.cfi_offset %rbp, -16
	movq	%rsp, %rbp
	.cfi_def_cfa_register %rbp
	subq	$200, %rsp
	movq	%rdi, -136(%rbp)
	movq	%rsi, -128(%rbp)
	movq	%rcx, -112(%rbp)
	movq	%rdx, -120(%rbp)
Ltmp269:
	.loc	18 433 26 prologue_end
	movq	%rsi, -96(%rbp)
	movq	%rdi, -104(%rbp)
	.loc	18 433 47 is_stmt 0
	movq	%rcx, -80(%rbp)
	movq	%rdx, -88(%rbp)
Ltmp270:
	.loc	18 1513 26 is_stmt 1
	addq	%rdx, %rdi
	adcq	%rcx, %rsi
	movq	%rsi, -64(%rbp)
	movq	%rdi, -72(%rbp)
	seto	-56(%rbp)
	movq	-72(%rbp), %rcx
	movq	-64(%rbp), %rdx
	movb	-56(%rbp), %al
	.loc	18 1513 18 is_stmt 0
	movq	%rdx, -40(%rbp)
	movq	%rcx, -48(%rbp)
	.loc	18 1513 21
	movb	%al, -25(%rbp)
Ltmp271:
	.loc	18 1514 13 is_stmt 1
	movq	%rdx, -152(%rbp)
	movq	%rcx, -160(%rbp)
	movb	%al, -144(%rbp)
Ltmp272:
	.loc	18 433 18
	movq	-160(%rbp), %rax
	movq	%rax, -200(%rbp)
	movq	-152(%rbp), %rcx
	movq	%rcx, -192(%rbp)
	movq	%rcx, -16(%rbp)
	movq	%rax, -24(%rbp)
	.loc	18 433 21 is_stmt 0
	movb	-144(%rbp), %al
	movb	%al, %cl
	andb	$1, %cl
	movb	%cl, -2(%rbp)
Ltmp273:
	.loc	18 434 16 is_stmt 1
	andb	$1, %al
	movb	%al, -1(%rbp)
	testb	$1, -1(%rbp)
	jne	LBB68_2
	.loc	18 0 16 is_stmt 0
	movq	-192(%rbp), %rax
	movq	-200(%rbp), %rcx
	.loc	18 434 42
	movq	%rcx, -176(%rbp)
	movq	%rax, -168(%rbp)
	movq	$1, -184(%rbp)
	.loc	18 434 13
	jmp	LBB68_3
LBB68_2:
	.loc	18 434 30
	movq	$0, -184(%rbp)
Ltmp274:
LBB68_3:
	.loc	18 435 10 is_stmt 1
	movq	-184(%rbp), %rax
	movq	-176(%rbp), %rdx
	movq	-168(%rbp), %rcx
	addq	$200, %rsp
	popq	%rbp
	retq
Ltmp275:
Lfunc_end68:
	.cfi_endproc

	.p2align	4, 0x90
__ZN4core3num22_$LT$impl$u20$u128$GT$11checked_add17h629ccb5985b0d664E:
Lfunc_begin69:
	.loc	21 442 0
	.cfi_startproc
	pushq	%rbp
	.cfi_def_cfa_offset 16
	.cfi_offset %rbp, -16
	movq	%rsp, %rbp
	.cfi_def_cfa_register %rbp
	subq	$200, %rsp
	movq	%rdi, -136(%rbp)
	movq	%rsi, -128(%rbp)
	movq	%rcx, -112(%rbp)
	movq	%rdx, -120(%rbp)
Ltmp276:
	.loc	21 443 26 prologue_end
	movq	%rsi, -96(%rbp)
	movq	%rdi, -104(%rbp)
	.loc	21 443 47 is_stmt 0
	movq	%rcx, -80(%rbp)
	movq	%rdx, -88(%rbp)
Ltmp277:
	.loc	21 1479 26 is_stmt 1
	addq	%rdx, %rdi
	adcq	%rcx, %rsi
	movq	%rsi, -64(%rbp)
	movq	%rdi, -72(%rbp)
	setb	-56(%rbp)
	movq	-72(%rbp), %rcx
	movq	-64(%rbp), %rdx
	movb	-56(%rbp), %al
	.loc	21 1479 18 is_stmt 0
	movq	%rdx, -40(%rbp)
	movq	%rcx, -48(%rbp)
	.loc	21 1479 21
	movb	%al, -25(%rbp)
Ltmp278:
	.loc	21 1480 13 is_stmt 1
	movq	%rdx, -152(%rbp)
	movq	%rcx, -160(%rbp)
	movb	%al, -144(%rbp)
Ltmp279:
	.loc	21 443 18
	movq	-160(%rbp), %rax
	movq	%rax, -200(%rbp)
	movq	-152(%rbp), %rcx
	movq	%rcx, -192(%rbp)
	movq	%rcx, -16(%rbp)
	movq	%rax, -24(%rbp)
	.loc	21 443 21 is_stmt 0
	movb	-144(%rbp), %al
	movb	%al, %cl
	andb	$1, %cl
	movb	%cl, -2(%rbp)
Ltmp280:
	.loc	21 444 16 is_stmt 1
	andb	$1, %al
	movb	%al, -1(%rbp)
	testb	$1, -1(%rbp)
	jne	LBB69_2
	.loc	21 0 16 is_stmt 0
	movq	-192(%rbp), %rax
	movq	-200(%rbp), %rcx
	.loc	21 444 42
	movq	%rcx, -176(%rbp)
	movq	%rax, -168(%rbp)
	movq	$1, -184(%rbp)
	.loc	21 444 13
	jmp	LBB69_3
LBB69_2:
	.loc	21 444 30
	movq	$0, -184(%rbp)
Ltmp281:
LBB69_3:
	.loc	21 445 10 is_stmt 1
	movq	-184(%rbp), %rax
	movq	-176(%rbp), %rdx
	movq	-168(%rbp), %rcx
	addq	$200, %rsp
	popq	%rbp
	retq
Ltmp282:
Lfunc_end69:
	.cfi_endproc

	.p2align	4, 0x90
__ZN4core3num23_$LT$impl$u20$isize$GT$11checked_add17h80628253b423ffaaE:
Lfunc_begin70:
	.loc	18 432 0
	.cfi_startproc
	pushq	%rbp
	.cfi_def_cfa_offset 16
	.cfi_offset %rbp, -16
	movq	%rsp, %rbp
	.cfi_def_cfa_register %rbp
	subq	$120, %rsp
	movq	%rdi, -80(%rbp)
	movq	%rsi, -72(%rbp)
Ltmp283:
	.loc	18 433 26 prologue_end
	movq	%rdi, -64(%rbp)
	.loc	18 433 47 is_stmt 0
	movq	%rsi, -56(%rbp)
Ltmp284:
	.loc	18 1513 26 is_stmt 1
	addq	%rsi, %rdi
	seto	%al
	andb	$1, %al
	movq	%rdi, -48(%rbp)
	movb	%al, -40(%rbp)
	movq	-48(%rbp), %rcx
	movb	-40(%rbp), %al
	.loc	18 1513 18 is_stmt 0
	movq	%rcx, -32(%rbp)
	.loc	18 1513 21
	movb	%al, %dl
	andb	$1, %dl
	movb	%dl, -17(%rbp)
Ltmp285:
	.loc	18 1514 13 is_stmt 1
	movq	%rcx, -96(%rbp)
	andb	$1, %al
	movb	%al, -88(%rbp)
Ltmp286:
	.loc	18 433 18
	movq	-96(%rbp), %rax
	movq	%rax, -120(%rbp)
	movq	%rax, -16(%rbp)
	.loc	18 433 21 is_stmt 0
	movb	-88(%rbp), %al
	movb	%al, %cl
	andb	$1, %cl
	movb	%cl, -2(%rbp)
Ltmp287:
	.loc	18 434 16 is_stmt 1
	andb	$1, %al
	movb	%al, -1(%rbp)
	testb	$1, -1(%rbp)
	jne	LBB70_2
	.loc	18 0 16 is_stmt 0
	movq	-120(%rbp), %rax
	.loc	18 434 42
	movq	%rax, -104(%rbp)
	movq	$1, -112(%rbp)
	.loc	18 434 13
	jmp	LBB70_3
LBB70_2:
	.loc	18 434 30
	movq	$0, -112(%rbp)
Ltmp288:
LBB70_3:
	.loc	18 435 10 is_stmt 1
	movq	-112(%rbp), %rax
	movq	-104(%rbp), %rdx
	addq	$120, %rsp
	popq	%rbp
	retq
Ltmp289:
Lfunc_end70:
	.cfi_endproc

	.p2align	4, 0x90
__ZN4core3num23_$LT$impl$u20$usize$GT$11checked_add17h574c4e36cf9f7707E:
Lfunc_begin71:
	.loc	21 442 0
	.cfi_startproc
	pushq	%rbp
	.cfi_def_cfa_offset 16
	.cfi_offset %rbp, -16
	movq	%rsp, %rbp
	.cfi_def_cfa_register %rbp
	subq	$120, %rsp
	movq	%rdi, -80(%rbp)
	movq	%rsi, -72(%rbp)
Ltmp290:
	.loc	21 443 26 prologue_end
	movq	%rdi, -64(%rbp)
	.loc	21 443 47 is_stmt 0
	movq	%rsi, -56(%rbp)
Ltmp291:
	.loc	21 1479 26 is_stmt 1
	addq	%rsi, %rdi
	setb	%al
	andb	$1, %al
	movq	%rdi, -48(%rbp)
	movb	%al, -40(%rbp)
	movq	-48(%rbp), %rcx
	movb	-40(%rbp), %al
	.loc	21 1479 18 is_stmt 0
	movq	%rcx, -32(%rbp)
	.loc	21 1479 21
	movb	%al, %dl
	andb	$1, %dl
	movb	%dl, -17(%rbp)
Ltmp292:
	.loc	21 1480 13 is_stmt 1
	movq	%rcx, -96(%rbp)
	andb	$1, %al
	movb	%al, -88(%rbp)
Ltmp293:
	.loc	21 443 18
	movq	-96(%rbp), %rax
	movq	%rax, -120(%rbp)
	movq	%rax, -16(%rbp)
	.loc	21 443 21 is_stmt 0
	movb	-88(%rbp), %al
	movb	%al, %cl
	andb	$1, %cl
	movb	%cl, -2(%rbp)
Ltmp294:
	.loc	21 444 16 is_stmt 1
	andb	$1, %al
	movb	%al, -1(%rbp)
	testb	$1, -1(%rbp)
	jne	LBB71_2
	.loc	21 0 16 is_stmt 0
	movq	-120(%rbp), %rax
	.loc	21 444 42
	movq	%rax, -104(%rbp)
	movq	$1, -112(%rbp)
	.loc	21 444 13
	jmp	LBB71_3
LBB71_2:
	.loc	21 444 30
	movq	$0, -112(%rbp)
Ltmp295:
LBB71_3:
	.loc	21 445 10 is_stmt 1
	movq	-112(%rbp), %rax
	movq	-104(%rbp), %rdx
	addq	$120, %rsp
	popq	%rbp
	retq
Ltmp296:
Lfunc_end71:
	.cfi_endproc

	.globl	__ZN4core3ops5range25RangeInclusive$LT$Idx$GT$3end17h0df2feebfa8529ccE
	.p2align	4, 0x90
__ZN4core3ops5range25RangeInclusive$LT$Idx$GT$3end17h0df2feebfa8529ccE:
Lfunc_begin72:
	.file	22 "/rustc/2c8cc343237b8f7d5a3c3703e3a87f2eb2c54a74/library/core/src/ops" "range.rs"
	.loc	22 424 0
	.cfi_startproc
	pushq	%rbp
	.cfi_def_cfa_offset 16
	.cfi_offset %rbp, -16
	movq	%rsp, %rbp
	.cfi_def_cfa_register %rbp
	pushq	%rax
	movq	%rdi, %rax
	movq	%rax, -8(%rbp)
Ltmp297:
	.loc	22 425 9 prologue_end
	addq	$2, %rax
	.loc	22 426 6
	addq	$8, %rsp
	popq	%rbp
	retq
Ltmp298:
Lfunc_end72:
	.cfi_endproc

	.globl	__ZN4core3ops5range25RangeInclusive$LT$Idx$GT$3end17h1018ec0673bf94b8E
	.p2align	4, 0x90
__ZN4core3ops5range25RangeInclusive$LT$Idx$GT$3end17h1018ec0673bf94b8E:
Lfunc_begin73:
	.loc	22 424 0
	.cfi_startproc
	pushq	%rbp
	.cfi_def_cfa_offset 16
	.cfi_offset %rbp, -16
	movq	%rsp, %rbp
	.cfi_def_cfa_register %rbp
	pushq	%rax
	movq	%rdi, %rax
	movq	%rax, -8(%rbp)
Ltmp299:
	.loc	22 425 9 prologue_end
	addq	$4, %rax
	.loc	22 426 6
	addq	$8, %rsp
	popq	%rbp
	retq
Ltmp300:
Lfunc_end73:
	.cfi_endproc

	.globl	__ZN4core3ops5range25RangeInclusive$LT$Idx$GT$3end17h16833c69414e4d13E
	.p2align	4, 0x90
__ZN4core3ops5range25RangeInclusive$LT$Idx$GT$3end17h16833c69414e4d13E:
Lfunc_begin74:
	.loc	22 424 0
	.cfi_startproc
	pushq	%rbp
	.cfi_def_cfa_offset 16
	.cfi_offset %rbp, -16
	movq	%rsp, %rbp
	.cfi_def_cfa_register %rbp
	pushq	%rax
	movq	%rdi, %rax
	movq	%rax, -8(%rbp)
Ltmp301:
	.loc	22 425 9 prologue_end
	addq	$16, %rax
	.loc	22 426 6
	addq	$8, %rsp
	popq	%rbp
	retq
Ltmp302:
Lfunc_end74:
	.cfi_endproc

	.globl	__ZN4core3ops5range25RangeInclusive$LT$Idx$GT$3end17h46af602fb35c7d75E
	.p2align	4, 0x90
__ZN4core3ops5range25RangeInclusive$LT$Idx$GT$3end17h46af602fb35c7d75E:
Lfunc_begin75:
	.loc	22 424 0
	.cfi_startproc
	pushq	%rbp
	.cfi_def_cfa_offset 16
	.cfi_offset %rbp, -16
	movq	%rsp, %rbp
	.cfi_def_cfa_register %rbp
	pushq	%rax
	movq	%rdi, %rax
	movq	%rax, -8(%rbp)
Ltmp303:
	.loc	22 425 9 prologue_end
	addq	$4, %rax
	.loc	22 426 6
	addq	$8, %rsp
	popq	%rbp
	retq
Ltmp304:
Lfunc_end75:
	.cfi_endproc

	.globl	__ZN4core3ops5range25RangeInclusive$LT$Idx$GT$3end17h514ddb7066d70f21E
	.p2align	4, 0x90
__ZN4core3ops5range25RangeInclusive$LT$Idx$GT$3end17h514ddb7066d70f21E:
Lfunc_begin76:
	.loc	22 424 0
	.cfi_startproc
	pushq	%rbp
	.cfi_def_cfa_offset 16
	.cfi_offset %rbp, -16
	movq	%rsp, %rbp
	.cfi_def_cfa_register %rbp
	pushq	%rax
	movq	%rdi, %rax
	movq	%rax, -8(%rbp)
Ltmp305:
	.loc	22 425 9 prologue_end
	addq	$8, %rax
	.loc	22 426 6
	addq	$8, %rsp
	popq	%rbp
	retq
Ltmp306:
Lfunc_end76:
	.cfi_endproc

	.globl	__ZN4core3ops5range25RangeInclusive$LT$Idx$GT$3end17h602c0148b00a19d8E
	.p2align	4, 0x90
__ZN4core3ops5range25RangeInclusive$LT$Idx$GT$3end17h602c0148b00a19d8E:
Lfunc_begin77:
	.loc	22 424 0
	.cfi_startproc
	pushq	%rbp
	.cfi_def_cfa_offset 16
	.cfi_offset %rbp, -16
	movq	%rsp, %rbp
	.cfi_def_cfa_register %rbp
	pushq	%rax
	movq	%rdi, %rax
	movq	%rax, -8(%rbp)
Ltmp307:
	.loc	22 425 9 prologue_end
	addq	$8, %rax
	.loc	22 426 6
	addq	$8, %rsp
	popq	%rbp
	retq
Ltmp308:
Lfunc_end77:
	.cfi_endproc

	.globl	__ZN4core3ops5range25RangeInclusive$LT$Idx$GT$3end17h6313de0112bebf8bE
	.p2align	4, 0x90
__ZN4core3ops5range25RangeInclusive$LT$Idx$GT$3end17h6313de0112bebf8bE:
Lfunc_begin78:
	.loc	22 424 0
	.cfi_startproc
	pushq	%rbp
	.cfi_def_cfa_offset 16
	.cfi_offset %rbp, -16
	movq	%rsp, %rbp
	.cfi_def_cfa_register %rbp
	pushq	%rax
	movq	%rdi, %rax
	movq	%rax, -8(%rbp)
Ltmp309:
	.loc	22 425 9 prologue_end
	addq	$1, %rax
	.loc	22 426 6
	addq	$8, %rsp
	popq	%rbp
	retq
Ltmp310:
Lfunc_end78:
	.cfi_endproc

	.globl	__ZN4core3ops5range25RangeInclusive$LT$Idx$GT$3end17h6fa4b2b8928b59dfE
	.p2align	4, 0x90
__ZN4core3ops5range25RangeInclusive$LT$Idx$GT$3end17h6fa4b2b8928b59dfE:
Lfunc_begin79:
	.loc	22 424 0
	.cfi_startproc
	pushq	%rbp
	.cfi_def_cfa_offset 16
	.cfi_offset %rbp, -16
	movq	%rsp, %rbp
	.cfi_def_cfa_register %rbp
	pushq	%rax
	movq	%rdi, %rax
	movq	%rax, -8(%rbp)
Ltmp311:
	.loc	22 425 9 prologue_end
	addq	$1, %rax
	.loc	22 426 6
	addq	$8, %rsp
	popq	%rbp
	retq
Ltmp312:
Lfunc_end79:
	.cfi_endproc

	.globl	__ZN4core3ops5range25RangeInclusive$LT$Idx$GT$3end17h7520c1437eb92885E
	.p2align	4, 0x90
__ZN4core3ops5range25RangeInclusive$LT$Idx$GT$3end17h7520c1437eb92885E:
Lfunc_begin80:
	.loc	22 424 0
	.cfi_startproc
	pushq	%rbp
	.cfi_def_cfa_offset 16
	.cfi_offset %rbp, -16
	movq	%rsp, %rbp
	.cfi_def_cfa_register %rbp
	pushq	%rax
	movq	%rdi, %rax
	movq	%rax, -8(%rbp)
Ltmp313:
	.loc	22 425 9 prologue_end
	addq	$2, %rax
	.loc	22 426 6
	addq	$8, %rsp
	popq	%rbp
	retq
Ltmp314:
Lfunc_end80:
	.cfi_endproc

	.globl	__ZN4core3ops5range25RangeInclusive$LT$Idx$GT$3end17h7db99552635c1632E
	.p2align	4, 0x90
__ZN4core3ops5range25RangeInclusive$LT$Idx$GT$3end17h7db99552635c1632E:
Lfunc_begin81:
	.loc	22 424 0
	.cfi_startproc
	pushq	%rbp
	.cfi_def_cfa_offset 16
	.cfi_offset %rbp, -16
	movq	%rsp, %rbp
	.cfi_def_cfa_register %rbp
	pushq	%rax
	movq	%rdi, %rax
	movq	%rax, -8(%rbp)
Ltmp315:
	.loc	22 425 9 prologue_end
	addq	$8, %rax
	.loc	22 426 6
	addq	$8, %rsp
	popq	%rbp
	retq
Ltmp316:
Lfunc_end81:
	.cfi_endproc

	.globl	__ZN4core3ops5range25RangeInclusive$LT$Idx$GT$3end17h8e70524ee93c1563E
	.p2align	4, 0x90
__ZN4core3ops5range25RangeInclusive$LT$Idx$GT$3end17h8e70524ee93c1563E:
Lfunc_begin82:
	.loc	22 424 0
	.cfi_startproc
	pushq	%rbp
	.cfi_def_cfa_offset 16
	.cfi_offset %rbp, -16
	movq	%rsp, %rbp
	.cfi_def_cfa_register %rbp
	pushq	%rax
	movq	%rdi, %rax
	movq	%rax, -8(%rbp)
Ltmp317:
	.loc	22 425 9 prologue_end
	addq	$16, %rax
	.loc	22 426 6
	addq	$8, %rsp
	popq	%rbp
	retq
Ltmp318:
Lfunc_end82:
	.cfi_endproc

	.globl	__ZN4core3ops5range25RangeInclusive$LT$Idx$GT$3end17hbf940a3cbd9c013eE
	.p2align	4, 0x90
__ZN4core3ops5range25RangeInclusive$LT$Idx$GT$3end17hbf940a3cbd9c013eE:
Lfunc_begin83:
	.loc	22 424 0
	.cfi_startproc
	pushq	%rbp
	.cfi_def_cfa_offset 16
	.cfi_offset %rbp, -16
	movq	%rsp, %rbp
	.cfi_def_cfa_register %rbp
	pushq	%rax
	movq	%rdi, %rax
	movq	%rax, -8(%rbp)
Ltmp319:
	.loc	22 425 9 prologue_end
	addq	$8, %rax
	.loc	22 426 6
	addq	$8, %rsp
	popq	%rbp
	retq
Ltmp320:
Lfunc_end83:
	.cfi_endproc

	.globl	__ZN4core3ops5range25RangeInclusive$LT$Idx$GT$3end17hd9e8421ac1b6fce6E
	.p2align	4, 0x90
__ZN4core3ops5range25RangeInclusive$LT$Idx$GT$3end17hd9e8421ac1b6fce6E:
Lfunc_begin84:
	.loc	22 424 0
	.cfi_startproc
	pushq	%rbp
	.cfi_def_cfa_offset 16
	.cfi_offset %rbp, -16
	movq	%rsp, %rbp
	.cfi_def_cfa_register %rbp
	pushq	%rax
	movq	%rdi, %rax
	movq	%rax, -8(%rbp)
Ltmp321:
	.loc	22 425 9 prologue_end
	addq	$4, %rax
	.loc	22 426 6
	addq	$8, %rsp
	popq	%rbp
	retq
Ltmp322:
Lfunc_end84:
	.cfi_endproc

	.globl	__ZN4core3ops5range25RangeInclusive$LT$Idx$GT$3new17h0d221280283c653cE
	.p2align	4, 0x90
__ZN4core3ops5range25RangeInclusive$LT$Idx$GT$3new17h0d221280283c653cE:
Lfunc_begin85:
	.loc	22 374 0
	.cfi_startproc
	pushq	%rbp
	.cfi_def_cfa_offset 16
	.cfi_offset %rbp, -16
	movq	%rsp, %rbp
	.cfi_def_cfa_register %rbp
	subq	$16, %rsp
	movq	%rdi, %rax
	movq	%rsi, -16(%rbp)
	movq	%rdx, -8(%rbp)
Ltmp323:
	.loc	22 375 9 prologue_end
	movq	%rsi, (%rdi)
	movq	%rdx, 8(%rdi)
	movb	$0, 16(%rdi)
	.loc	22 376 6
	addq	$16, %rsp
	popq	%rbp
	retq
Ltmp324:
Lfunc_end85:
	.cfi_endproc

	.globl	__ZN4core3ops5range25RangeInclusive$LT$Idx$GT$3new17h2fd43dbaa263fd5dE
	.p2align	4, 0x90
__ZN4core3ops5range25RangeInclusive$LT$Idx$GT$3new17h2fd43dbaa263fd5dE:
Lfunc_begin86:
	.loc	22 374 0
	.cfi_startproc
	pushq	%rbp
	.cfi_def_cfa_offset 16
	.cfi_offset %rbp, -16
	movq	%rsp, %rbp
	.cfi_def_cfa_register %rbp
	pushq	%rax
	movq	%rdi, %rax
	movl	%esi, -8(%rbp)
	movl	%edx, -4(%rbp)
Ltmp325:
	.loc	22 375 9 prologue_end
	movl	%esi, (%rdi)
	movl	%edx, 4(%rdi)
	movb	$0, 8(%rdi)
	.loc	22 376 6
	addq	$8, %rsp
	popq	%rbp
	retq
Ltmp326:
Lfunc_end86:
	.cfi_endproc

	.globl	__ZN4core3ops5range25RangeInclusive$LT$Idx$GT$3new17h37fa1a4db363aae7E
	.p2align	4, 0x90
__ZN4core3ops5range25RangeInclusive$LT$Idx$GT$3new17h37fa1a4db363aae7E:
Lfunc_begin87:
	.loc	22 374 0
	.cfi_startproc
	pushq	%rbp
	.cfi_def_cfa_offset 16
	.cfi_offset %rbp, -16
	movq	%rsp, %rbp
	.cfi_def_cfa_register %rbp
	subq	$16, %rsp
	movq	%rdi, %rax
	movq	%rsi, -16(%rbp)
	movq	%rdx, -8(%rbp)
Ltmp327:
	.loc	22 375 9 prologue_end
	movq	%rsi, (%rdi)
	movq	%rdx, 8(%rdi)
	movb	$0, 16(%rdi)
	.loc	22 376 6
	addq	$16, %rsp
	popq	%rbp
	retq
Ltmp328:
Lfunc_end87:
	.cfi_endproc

	.globl	__ZN4core3ops5range25RangeInclusive$LT$Idx$GT$3new17h3d858ef4359aad68E
	.p2align	4, 0x90
__ZN4core3ops5range25RangeInclusive$LT$Idx$GT$3new17h3d858ef4359aad68E:
Lfunc_begin88:
	.loc	22 374 0
	.cfi_startproc
	pushq	%rbp
	.cfi_def_cfa_offset 16
	.cfi_offset %rbp, -16
	movq	%rsp, %rbp
	.cfi_def_cfa_register %rbp
	pushq	%rax
	movb	%sil, %al
	movb	%dil, %cl
	movb	%cl, -2(%rbp)
	movb	%al, -1(%rbp)
Ltmp329:
	.loc	22 375 9 prologue_end
	movb	%cl, -8(%rbp)
	movb	%al, -7(%rbp)
	movb	$0, -6(%rbp)
	.loc	22 376 6
	movzbl	-6(%rbp), %ecx
	shll	$16, %ecx
	movzwl	-8(%rbp), %eax
	orl	%ecx, %eax
	addq	$8, %rsp
	popq	%rbp
	retq
Ltmp330:
Lfunc_end88:
	.cfi_endproc

	.globl	__ZN4core3ops5range25RangeInclusive$LT$Idx$GT$3new17h4a4056ebcdce9a7dE
	.p2align	4, 0x90
__ZN4core3ops5range25RangeInclusive$LT$Idx$GT$3new17h4a4056ebcdce9a7dE:
Lfunc_begin89:
	.loc	22 374 0
	.cfi_startproc
	pushq	%rbp
	.cfi_def_cfa_offset 16
	.cfi_offset %rbp, -16
	movq	%rsp, %rbp
	.cfi_def_cfa_register %rbp
	subq	$16, %rsp
	movw	%si, %ax
	movw	%di, %cx
	movw	%cx, -4(%rbp)
	movw	%ax, -2(%rbp)
Ltmp331:
	.loc	22 375 9 prologue_end
	movw	%cx, -16(%rbp)
	movw	%ax, -14(%rbp)
	movb	$0, -12(%rbp)
	.loc	22 376 6
	movl	-16(%rbp), %eax
	movzwl	-12(%rbp), %ecx
	shlq	$32, %rcx
	orq	%rcx, %rax
	addq	$16, %rsp
	popq	%rbp
	retq
Ltmp332:
Lfunc_end89:
	.cfi_endproc

	.globl	__ZN4core3ops5range25RangeInclusive$LT$Idx$GT$3new17h6de0f64860571f85E
	.p2align	4, 0x90
__ZN4core3ops5range25RangeInclusive$LT$Idx$GT$3new17h6de0f64860571f85E:
Lfunc_begin90:
	.loc	22 374 0
	.cfi_startproc
	pushq	%rbp
	.cfi_def_cfa_offset 16
	.cfi_offset %rbp, -16
	movq	%rsp, %rbp
	.cfi_def_cfa_register %rbp
	subq	$16, %rsp
	movw	%si, %ax
	movw	%di, %cx
	movw	%cx, -4(%rbp)
	movw	%ax, -2(%rbp)
Ltmp333:
	.loc	22 375 9 prologue_end
	movw	%cx, -16(%rbp)
	movw	%ax, -14(%rbp)
	movb	$0, -12(%rbp)
	.loc	22 376 6
	movl	-16(%rbp), %eax
	movzwl	-12(%rbp), %ecx
	shlq	$32, %rcx
	orq	%rcx, %rax
	addq	$16, %rsp
	popq	%rbp
	retq
Ltmp334:
Lfunc_end90:
	.cfi_endproc

	.globl	__ZN4core3ops5range25RangeInclusive$LT$Idx$GT$3new17h83e70b5099a0cadfE
	.p2align	4, 0x90
__ZN4core3ops5range25RangeInclusive$LT$Idx$GT$3new17h83e70b5099a0cadfE:
Lfunc_begin91:
	.loc	22 374 0
	.cfi_startproc
	pushq	%rbp
	.cfi_def_cfa_offset 16
	.cfi_offset %rbp, -16
	movq	%rsp, %rbp
	.cfi_def_cfa_register %rbp
	subq	$32, %rsp
	movq	%rdi, %rax
	movq	%rsi, -32(%rbp)
	movq	%rdx, -24(%rbp)
	movq	%r8, -8(%rbp)
	movq	%rcx, -16(%rbp)
Ltmp335:
	.loc	22 375 9 prologue_end
	movq	%rdx, 8(%rdi)
	movq	%rsi, (%rdi)
	movq	%r8, 24(%rdi)
	movq	%rcx, 16(%rdi)
	movb	$0, 32(%rdi)
	.loc	22 376 6
	addq	$32, %rsp
	popq	%rbp
	retq
Ltmp336:
Lfunc_end91:
	.cfi_endproc

	.globl	__ZN4core3ops5range25RangeInclusive$LT$Idx$GT$3new17h85ed00883786c03cE
	.p2align	4, 0x90
__ZN4core3ops5range25RangeInclusive$LT$Idx$GT$3new17h85ed00883786c03cE:
Lfunc_begin92:
	.loc	22 374 0
	.cfi_startproc
	pushq	%rbp
	.cfi_def_cfa_offset 16
	.cfi_offset %rbp, -16
	movq	%rsp, %rbp
	.cfi_def_cfa_register %rbp
	pushq	%rax
	movq	%rdi, %rax
	movl	%esi, -8(%rbp)
	movl	%edx, -4(%rbp)
Ltmp337:
	.loc	22 375 9 prologue_end
	movl	%esi, (%rdi)
	movl	%edx, 4(%rdi)
	movb	$0, 8(%rdi)
	.loc	22 376 6
	addq	$8, %rsp
	popq	%rbp
	retq
Ltmp338:
Lfunc_end92:
	.cfi_endproc

	.globl	__ZN4core3ops5range25RangeInclusive$LT$Idx$GT$3new17h8969ce5d73861a7fE
	.p2align	4, 0x90
__ZN4core3ops5range25RangeInclusive$LT$Idx$GT$3new17h8969ce5d73861a7fE:
Lfunc_begin93:
	.loc	22 374 0
	.cfi_startproc
	pushq	%rbp
	.cfi_def_cfa_offset 16
	.cfi_offset %rbp, -16
	movq	%rsp, %rbp
	.cfi_def_cfa_register %rbp
	subq	$16, %rsp
	movq	%rdi, %rax
	movq	%rsi, -16(%rbp)
	movq	%rdx, -8(%rbp)
Ltmp339:
	.loc	22 375 9 prologue_end
	movq	%rsi, (%rdi)
	movq	%rdx, 8(%rdi)
	movb	$0, 16(%rdi)
	.loc	22 376 6
	addq	$16, %rsp
	popq	%rbp
	retq
Ltmp340:
Lfunc_end93:
	.cfi_endproc

	.globl	__ZN4core3ops5range25RangeInclusive$LT$Idx$GT$3new17ha26783c7a1a2c724E
	.p2align	4, 0x90
__ZN4core3ops5range25RangeInclusive$LT$Idx$GT$3new17ha26783c7a1a2c724E:
Lfunc_begin94:
	.loc	22 374 0
	.cfi_startproc
	pushq	%rbp
	.cfi_def_cfa_offset 16
	.cfi_offset %rbp, -16
	movq	%rsp, %rbp
	.cfi_def_cfa_register %rbp
	subq	$32, %rsp
	movq	%rdi, %rax
	movq	%rsi, -32(%rbp)
	movq	%rdx, -24(%rbp)
	movq	%r8, -8(%rbp)
	movq	%rcx, -16(%rbp)
Ltmp341:
	.loc	22 375 9 prologue_end
	movq	%rdx, 8(%rdi)
	movq	%rsi, (%rdi)
	movq	%r8, 24(%rdi)
	movq	%rcx, 16(%rdi)
	movb	$0, 32(%rdi)
	.loc	22 376 6
	addq	$32, %rsp
	popq	%rbp
	retq
Ltmp342:
Lfunc_end94:
	.cfi_endproc

	.globl	__ZN4core3ops5range25RangeInclusive$LT$Idx$GT$3new17hb6355d9d50560b52E
	.p2align	4, 0x90
__ZN4core3ops5range25RangeInclusive$LT$Idx$GT$3new17hb6355d9d50560b52E:
Lfunc_begin95:
	.loc	22 374 0
	.cfi_startproc
	pushq	%rbp
	.cfi_def_cfa_offset 16
	.cfi_offset %rbp, -16
	movq	%rsp, %rbp
	.cfi_def_cfa_register %rbp
	subq	$16, %rsp
	movq	%rdi, %rax
	movq	%rsi, -16(%rbp)
	movq	%rdx, -8(%rbp)
Ltmp343:
	.loc	22 375 9 prologue_end
	movq	%rsi, (%rdi)
	movq	%rdx, 8(%rdi)
	movb	$0, 16(%rdi)
	.loc	22 376 6
	addq	$16, %rsp
	popq	%rbp
	retq
Ltmp344:
Lfunc_end95:
	.cfi_endproc

	.globl	__ZN4core3ops5range25RangeInclusive$LT$Idx$GT$3new17hd5a0ed431779b2beE
	.p2align	4, 0x90
__ZN4core3ops5range25RangeInclusive$LT$Idx$GT$3new17hd5a0ed431779b2beE:
Lfunc_begin96:
	.loc	22 374 0
	.cfi_startproc
	pushq	%rbp
	.cfi_def_cfa_offset 16
	.cfi_offset %rbp, -16
	movq	%rsp, %rbp
	.cfi_def_cfa_register %rbp
	pushq	%rax
	movq	%rdi, %rax
	movl	%esi, -8(%rbp)
	movl	%edx, -4(%rbp)
Ltmp345:
	.loc	22 375 9 prologue_end
	movl	%esi, (%rdi)
	movl	%edx, 4(%rdi)
	movb	$0, 8(%rdi)
	.loc	22 376 6
	addq	$8, %rsp
	popq	%rbp
	retq
Ltmp346:
Lfunc_end96:
	.cfi_endproc

	.globl	__ZN4core3ops5range25RangeInclusive$LT$Idx$GT$3new17hf61a7cbcfe17a7f3E
	.p2align	4, 0x90
__ZN4core3ops5range25RangeInclusive$LT$Idx$GT$3new17hf61a7cbcfe17a7f3E:
Lfunc_begin97:
	.loc	22 374 0
	.cfi_startproc
	pushq	%rbp
	.cfi_def_cfa_offset 16
	.cfi_offset %rbp, -16
	movq	%rsp, %rbp
	.cfi_def_cfa_register %rbp
	pushq	%rax
	movb	%sil, %al
	movb	%dil, %cl
	movb	%cl, -2(%rbp)
	movb	%al, -1(%rbp)
Ltmp347:
	.loc	22 375 9 prologue_end
	movb	%cl, -8(%rbp)
	movb	%al, -7(%rbp)
	movb	$0, -6(%rbp)
	.loc	22 376 6
	movzbl	-6(%rbp), %ecx
	shll	$16, %ecx
	movzwl	-8(%rbp), %eax
	orl	%ecx, %eax
	addq	$8, %rsp
	popq	%rbp
	retq
Ltmp348:
Lfunc_end97:
	.cfi_endproc

	.globl	__ZN4core3ops5range25RangeInclusive$LT$Idx$GT$5start17h25e20d316589a03eE
	.p2align	4, 0x90
__ZN4core3ops5range25RangeInclusive$LT$Idx$GT$5start17h25e20d316589a03eE:
Lfunc_begin98:
	.loc	22 399 0
	.cfi_startproc
	pushq	%rbp
	.cfi_def_cfa_offset 16
	.cfi_offset %rbp, -16
	movq	%rsp, %rbp
	.cfi_def_cfa_register %rbp
	pushq	%rax
	movq	%rdi, %rax
	movq	%rax, -8(%rbp)
Ltmp349:
	.loc	22 401 6 prologue_end
	addq	$8, %rsp
	popq	%rbp
	retq
Ltmp350:
Lfunc_end98:
	.cfi_endproc

	.globl	__ZN4core3ops5range25RangeInclusive$LT$Idx$GT$5start17h29f98aa8e8d7fa57E
	.p2align	4, 0x90
__ZN4core3ops5range25RangeInclusive$LT$Idx$GT$5start17h29f98aa8e8d7fa57E:
Lfunc_begin99:
	.loc	22 399 0
	.cfi_startproc
	pushq	%rbp
	.cfi_def_cfa_offset 16
	.cfi_offset %rbp, -16
	movq	%rsp, %rbp
	.cfi_def_cfa_register %rbp
	pushq	%rax
	movq	%rdi, %rax
	movq	%rax, -8(%rbp)
Ltmp351:
	.loc	22 401 6 prologue_end
	addq	$8, %rsp
	popq	%rbp
	retq
Ltmp352:
Lfunc_end99:
	.cfi_endproc

	.globl	__ZN4core3ops5range25RangeInclusive$LT$Idx$GT$5start17h303af670b81ddcb7E
	.p2align	4, 0x90
__ZN4core3ops5range25RangeInclusive$LT$Idx$GT$5start17h303af670b81ddcb7E:
Lfunc_begin100:
	.loc	22 399 0
	.cfi_startproc
	pushq	%rbp
	.cfi_def_cfa_offset 16
	.cfi_offset %rbp, -16
	movq	%rsp, %rbp
	.cfi_def_cfa_register %rbp
	pushq	%rax
	movq	%rdi, %rax
	movq	%rax, -8(%rbp)
Ltmp353:
	.loc	22 401 6 prologue_end
	addq	$8, %rsp
	popq	%rbp
	retq
Ltmp354:
Lfunc_end100:
	.cfi_endproc

	.globl	__ZN4core3ops5range25RangeInclusive$LT$Idx$GT$5start17h52f0eeb627a5dae0E
	.p2align	4, 0x90
__ZN4core3ops5range25RangeInclusive$LT$Idx$GT$5start17h52f0eeb627a5dae0E:
Lfunc_begin101:
	.loc	22 399 0
	.cfi_startproc
	pushq	%rbp
	.cfi_def_cfa_offset 16
	.cfi_offset %rbp, -16
	movq	%rsp, %rbp
	.cfi_def_cfa_register %rbp
	pushq	%rax
	movq	%rdi, %rax
	movq	%rax, -8(%rbp)
Ltmp355:
	.loc	22 401 6 prologue_end
	addq	$8, %rsp
	popq	%rbp
	retq
Ltmp356:
Lfunc_end101:
	.cfi_endproc

	.globl	__ZN4core3ops5range25RangeInclusive$LT$Idx$GT$5start17h62fe264b94c6b40eE
	.p2align	4, 0x90
__ZN4core3ops5range25RangeInclusive$LT$Idx$GT$5start17h62fe264b94c6b40eE:
Lfunc_begin102:
	.loc	22 399 0
	.cfi_startproc
	pushq	%rbp
	.cfi_def_cfa_offset 16
	.cfi_offset %rbp, -16
	movq	%rsp, %rbp
	.cfi_def_cfa_register %rbp
	pushq	%rax
	movq	%rdi, %rax
	movq	%rax, -8(%rbp)
Ltmp357:
	.loc	22 401 6 prologue_end
	addq	$8, %rsp
	popq	%rbp
	retq
Ltmp358:
Lfunc_end102:
	.cfi_endproc

	.globl	__ZN4core3ops5range25RangeInclusive$LT$Idx$GT$5start17h69042fed0758009bE
	.p2align	4, 0x90
__ZN4core3ops5range25RangeInclusive$LT$Idx$GT$5start17h69042fed0758009bE:
Lfunc_begin103:
	.loc	22 399 0
	.cfi_startproc
	pushq	%rbp
	.cfi_def_cfa_offset 16
	.cfi_offset %rbp, -16
	movq	%rsp, %rbp
	.cfi_def_cfa_register %rbp
	pushq	%rax
	movq	%rdi, %rax
	movq	%rax, -8(%rbp)
Ltmp359:
	.loc	22 401 6 prologue_end
	addq	$8, %rsp
	popq	%rbp
	retq
Ltmp360:
Lfunc_end103:
	.cfi_endproc

	.globl	__ZN4core3ops5range25RangeInclusive$LT$Idx$GT$5start17h83fb0fbe9a6f87ebE
	.p2align	4, 0x90
__ZN4core3ops5range25RangeInclusive$LT$Idx$GT$5start17h83fb0fbe9a6f87ebE:
Lfunc_begin104:
	.loc	22 399 0
	.cfi_startproc
	pushq	%rbp
	.cfi_def_cfa_offset 16
	.cfi_offset %rbp, -16
	movq	%rsp, %rbp
	.cfi_def_cfa_register %rbp
	pushq	%rax
	movq	%rdi, %rax
	movq	%rax, -8(%rbp)
Ltmp361:
	.loc	22 401 6 prologue_end
	addq	$8, %rsp
	popq	%rbp
	retq
Ltmp362:
Lfunc_end104:
	.cfi_endproc

	.globl	__ZN4core3ops5range25RangeInclusive$LT$Idx$GT$5start17h94376edfc3722ce1E
	.p2align	4, 0x90
__ZN4core3ops5range25RangeInclusive$LT$Idx$GT$5start17h94376edfc3722ce1E:
Lfunc_begin105:
	.loc	22 399 0
	.cfi_startproc
	pushq	%rbp
	.cfi_def_cfa_offset 16
	.cfi_offset %rbp, -16
	movq	%rsp, %rbp
	.cfi_def_cfa_register %rbp
	pushq	%rax
	movq	%rdi, %rax
	movq	%rax, -8(%rbp)
Ltmp363:
	.loc	22 401 6 prologue_end
	addq	$8, %rsp
	popq	%rbp
	retq
Ltmp364:
Lfunc_end105:
	.cfi_endproc

	.globl	__ZN4core3ops5range25RangeInclusive$LT$Idx$GT$5start17ha52a34e80faec02fE
	.p2align	4, 0x90
__ZN4core3ops5range25RangeInclusive$LT$Idx$GT$5start17ha52a34e80faec02fE:
Lfunc_begin106:
	.loc	22 399 0
	.cfi_startproc
	pushq	%rbp
	.cfi_def_cfa_offset 16
	.cfi_offset %rbp, -16
	movq	%rsp, %rbp
	.cfi_def_cfa_register %rbp
	pushq	%rax
	movq	%rdi, %rax
	movq	%rax, -8(%rbp)
Ltmp365:
	.loc	22 401 6 prologue_end
	addq	$8, %rsp
	popq	%rbp
	retq
Ltmp366:
Lfunc_end106:
	.cfi_endproc

	.globl	__ZN4core3ops5range25RangeInclusive$LT$Idx$GT$5start17haec86cf71fb39330E
	.p2align	4, 0x90
__ZN4core3ops5range25RangeInclusive$LT$Idx$GT$5start17haec86cf71fb39330E:
Lfunc_begin107:
	.loc	22 399 0
	.cfi_startproc
	pushq	%rbp
	.cfi_def_cfa_offset 16
	.cfi_offset %rbp, -16
	movq	%rsp, %rbp
	.cfi_def_cfa_register %rbp
	pushq	%rax
	movq	%rdi, %rax
	movq	%rax, -8(%rbp)
Ltmp367:
	.loc	22 401 6 prologue_end
	addq	$8, %rsp
	popq	%rbp
	retq
Ltmp368:
Lfunc_end107:
	.cfi_endproc

	.globl	__ZN4core3ops5range25RangeInclusive$LT$Idx$GT$5start17hb753e01595a5cfb5E
	.p2align	4, 0x90
__ZN4core3ops5range25RangeInclusive$LT$Idx$GT$5start17hb753e01595a5cfb5E:
Lfunc_begin108:
	.loc	22 399 0
	.cfi_startproc
	pushq	%rbp
	.cfi_def_cfa_offset 16
	.cfi_offset %rbp, -16
	movq	%rsp, %rbp
	.cfi_def_cfa_register %rbp
	pushq	%rax
	movq	%rdi, %rax
	movq	%rax, -8(%rbp)
Ltmp369:
	.loc	22 401 6 prologue_end
	addq	$8, %rsp
	popq	%rbp
	retq
Ltmp370:
Lfunc_end108:
	.cfi_endproc

	.globl	__ZN4core3ops5range25RangeInclusive$LT$Idx$GT$5start17hbba23cdd885297b6E
	.p2align	4, 0x90
__ZN4core3ops5range25RangeInclusive$LT$Idx$GT$5start17hbba23cdd885297b6E:
Lfunc_begin109:
	.loc	22 399 0
	.cfi_startproc
	pushq	%rbp
	.cfi_def_cfa_offset 16
	.cfi_offset %rbp, -16
	movq	%rsp, %rbp
	.cfi_def_cfa_register %rbp
	pushq	%rax
	movq	%rdi, %rax
	movq	%rax, -8(%rbp)
Ltmp371:
	.loc	22 401 6 prologue_end
	addq	$8, %rsp
	popq	%rbp
	retq
Ltmp372:
Lfunc_end109:
	.cfi_endproc

	.globl	__ZN4core3ops5range25RangeInclusive$LT$Idx$GT$5start17hdc2096afb07f9818E
	.p2align	4, 0x90
__ZN4core3ops5range25RangeInclusive$LT$Idx$GT$5start17hdc2096afb07f9818E:
Lfunc_begin110:
	.loc	22 399 0
	.cfi_startproc
	pushq	%rbp
	.cfi_def_cfa_offset 16
	.cfi_offset %rbp, -16
	movq	%rsp, %rbp
	.cfi_def_cfa_register %rbp
	pushq	%rax
	movq	%rdi, %rax
	movq	%rax, -8(%rbp)
Ltmp373:
	.loc	22 401 6 prologue_end
	addq	$8, %rsp
	popq	%rbp
	retq
Ltmp374:
Lfunc_end110:
	.cfi_endproc

	.p2align	4, 0x90
__ZN4core3ops8function5FnMut8call_mut17h4933aeb0cb35b1e7E:
Lfunc_begin111:
	.file	23 "/rustc/2c8cc343237b8f7d5a3c3703e3a87f2eb2c54a74/library/core/src/ops" "function.rs"
	.loc	23 166 0
	.cfi_startproc
	pushq	%rbp
	.cfi_def_cfa_offset 16
	.cfi_offset %rbp, -16
	movq	%rsp, %rbp
	.cfi_def_cfa_register %rbp
	subq	$16, %rsp
	movb	%sil, %al
	movb	%al, -9(%rbp)
	movq	%rdi, -8(%rbp)
Ltmp375:
	.loc	23 166 5 prologue_end
	movzbl	-9(%rbp), %edi
	callq	__ZN5rayon3str16is_char_boundary17h546d83fef2611413E
	andb	$1, %al
	movzbl	%al, %eax
	addq	$16, %rsp
	popq	%rbp
	retq
Ltmp376:
Lfunc_end111:
	.cfi_endproc

	.p2align	4, 0x90
__ZN4core3ops8function5FnMut8call_mut17ha75b426901391766E:
Lfunc_begin112:
	.loc	23 166 0
	.cfi_startproc
	pushq	%rbp
	.cfi_def_cfa_offset 16
	.cfi_offset %rbp, -16
	movq	%rsp, %rbp
	.cfi_def_cfa_register %rbp
	subq	$16, %rsp
	movq	%rsi, -16(%rbp)
	movq	%rdi, -8(%rbp)
Ltmp377:
	.loc	23 166 5 prologue_end
	movq	-16(%rbp), %rdi
	callq	__ZN5alloc6string6String3len17h01e37f41b47122e9E
	addq	$16, %rsp
	popq	%rbp
	retq
Ltmp378:
Lfunc_end112:
	.cfi_endproc

	.p2align	4, 0x90
__ZN4core3ops8function6FnOnce9call_once17haeebe8590f37c95cE:
Lfunc_begin113:
	.loc	23 250 0
	.cfi_startproc
	pushq	%rbp
	.cfi_def_cfa_offset 16
	.cfi_offset %rbp, -16
	movq	%rsp, %rbp
	.cfi_def_cfa_register %rbp
	subq	$32, %rsp
	movq	%rdi, %rax
	movq	%rax, -24(%rbp)
	movq	%rsi, -16(%rbp)
Ltmp379:
	.loc	23 250 5 prologue_end
	movq	-16(%rbp), %rsi
	callq	__ZN5alloc11collections11linked_list13Node$LT$T$GT$12into_element17hd5cf904d15911d73E
	movq	-24(%rbp), %rax
	addq	$32, %rsp
	popq	%rbp
	retq
Ltmp380:
Lfunc_end113:
	.cfi_endproc

	.globl	__ZN4core3ptr112drop_in_place$LT$alloc..boxed..Box$LT$alloc..collections..linked_list..Node$LT$alloc..string..String$GT$$GT$$GT$17h37ebe47ea4bca352E
	.p2align	4, 0x90
__ZN4core3ptr112drop_in_place$LT$alloc..boxed..Box$LT$alloc..collections..linked_list..Node$LT$alloc..string..String$GT$$GT$$GT$17h37ebe47ea4bca352E:
Lfunc_begin114:
	.file	24 "/rustc/2c8cc343237b8f7d5a3c3703e3a87f2eb2c54a74/library/core/src/ptr" "mod.rs"
	.loc	24 490 0
	.cfi_startproc
	.cfi_personality 155, _rust_eh_personality
	.cfi_lsda 16, Lexception4
	pushq	%rbp
	.cfi_def_cfa_offset 16
	.cfi_offset %rbp, -16
	movq	%rsp, %rbp
	.cfi_def_cfa_register %rbp
	subq	$32, %rsp
	movq	%rdi, -32(%rbp)
	movq	%rdi, -24(%rbp)
Ltmp387:
	.loc	24 490 1 prologue_end
	movq	(%rdi), %rdi
Ltmp381:
	callq	__ZN4core3ptr87drop_in_place$LT$alloc..collections..linked_list..Node$LT$alloc..string..String$GT$$GT$17hc2030aa0cb794884E
Ltmp382:
	jmp	LBB114_3
LBB114_1:
	.loc	24 0 1 is_stmt 0
	movq	-32(%rbp), %rax
	.loc	24 490 1
	movq	(%rax), %rdi
Ltmp384:
	callq	__ZN5alloc5alloc8box_free17h50954de310c5a84dE
Ltmp385:
	jmp	LBB114_5
LBB114_2:
Ltmp383:
	.loc	24 0 1
	movq	%rax, %rcx
	movl	%edx, %eax
	movq	%rcx, -16(%rbp)
	movl	%eax, -8(%rbp)
	jmp	LBB114_1
LBB114_3:
	movq	-32(%rbp), %rax
	.loc	24 490 1
	movq	(%rax), %rdi
	callq	__ZN5alloc5alloc8box_free17h50954de310c5a84dE
	addq	$32, %rsp
	popq	%rbp
	retq
LBB114_4:
Ltmp386:
	callq	__ZN4core9panicking19panic_cannot_unwind17h1fbca7e1d7f56ae1E
LBB114_5:
	movq	-16(%rbp), %rdi
	callq	__Unwind_Resume
Ltmp388:
Lfunc_end114:
	.cfi_endproc
	.section	__TEXT,__gcc_except_tab
	.p2align	2
GCC_except_table114:
Lexception4:
	.byte	255
	.byte	255
	.byte	1
	.uleb128 Lcst_end4-Lcst_begin4
Lcst_begin4:
	.uleb128 Ltmp381-Lfunc_begin114
	.uleb128 Ltmp382-Ltmp381
	.uleb128 Ltmp383-Lfunc_begin114
	.byte	0
	.uleb128 Ltmp384-Lfunc_begin114
	.uleb128 Ltmp385-Ltmp384
	.uleb128 Ltmp386-Lfunc_begin114
	.byte	0
	.uleb128 Ltmp385-Lfunc_begin114
	.uleb128 Lfunc_end114-Ltmp385
	.byte	0
	.byte	0
Lcst_end4:
	.p2align	2

	.section	__TEXT,__text,regular,pure_instructions
	.globl	__ZN4core3ptr140drop_in_place$LT$core..option..Option$LT$alloc..boxed..Box$LT$alloc..collections..linked_list..Node$LT$alloc..string..String$GT$$GT$$GT$$GT$17he9a100e0667d2782E
	.p2align	4, 0x90
__ZN4core3ptr140drop_in_place$LT$core..option..Option$LT$alloc..boxed..Box$LT$alloc..collections..linked_list..Node$LT$alloc..string..String$GT$$GT$$GT$$GT$17he9a100e0667d2782E:
Lfunc_begin115:
	.loc	24 490 0 is_stmt 1
	.cfi_startproc
	pushq	%rbp
	.cfi_def_cfa_offset 16
	.cfi_offset %rbp, -16
	movq	%rsp, %rbp
	.cfi_def_cfa_register %rbp
	subq	$16, %rsp
	movq	%rdi, -16(%rbp)
	movq	%rdi, -8(%rbp)
Ltmp389:
	.loc	24 490 1 prologue_end
	movq	(%rdi), %rdx
	movl	$1, %eax
	xorl	%ecx, %ecx
	cmpq	$0, %rdx
	cmoveq	%rcx, %rax
	cmpq	$0, %rax
	jne	LBB115_2
LBB115_1:
	addq	$16, %rsp
	popq	%rbp
	retq
LBB115_2:
	.loc	24 0 1 is_stmt 0
	movq	-16(%rbp), %rdi
	.loc	24 490 1
	callq	__ZN4core3ptr112drop_in_place$LT$alloc..boxed..Box$LT$alloc..collections..linked_list..Node$LT$alloc..string..String$GT$$GT$$GT$17h37ebe47ea4bca352E
	jmp	LBB115_1
Ltmp390:
Lfunc_end115:
	.cfi_endproc

	.globl	__ZN4core3ptr160drop_in_place$LT$$LT$alloc..collections..linked_list..LinkedList$LT$T$GT$$u20$as$u20$core..ops..drop..Drop$GT$..drop..DropGuard$LT$alloc..string..String$GT$$GT$17h6c828b95cc89db1cE
	.p2align	4, 0x90
__ZN4core3ptr160drop_in_place$LT$$LT$alloc..collections..linked_list..LinkedList$LT$T$GT$$u20$as$u20$core..ops..drop..Drop$GT$..drop..DropGuard$LT$alloc..string..String$GT$$GT$17h6c828b95cc89db1cE:
Lfunc_begin116:
	.loc	24 490 0 is_stmt 1
	.cfi_startproc
	pushq	%rbp
	.cfi_def_cfa_offset 16
	.cfi_offset %rbp, -16
	movq	%rsp, %rbp
	.cfi_def_cfa_register %rbp
	subq	$16, %rsp
	movq	%rdi, -8(%rbp)
Ltmp391:
	.loc	24 490 1 prologue_end
	callq	__ZN161_$LT$$LT$alloc..collections..linked_list..LinkedList$LT$T$GT$$u20$as$u20$core..ops..drop..Drop$GT$..drop..DropGuard$LT$T$GT$$u20$as$u20$core..ops..drop..Drop$GT$4drop17h7d1ae8f49242051fE
	addq	$16, %rsp
	popq	%rbp
	retq
Ltmp392:
Lfunc_end116:
	.cfi_endproc

	.p2align	4, 0x90
__ZN4core3ptr32drop_in_place$LT$$RF$$RF$str$GT$17h0719c7688f55937bE:
Lfunc_begin117:
	.loc	24 490 0
	.cfi_startproc
	pushq	%rbp
	.cfi_def_cfa_offset 16
	.cfi_offset %rbp, -16
	movq	%rsp, %rbp
	.cfi_def_cfa_register %rbp
	pushq	%rax
	movq	%rdi, -8(%rbp)
Ltmp393:
	.loc	24 490 1 prologue_end
	addq	$8, %rsp
	popq	%rbp
	retq
Ltmp394:
Lfunc_end117:
	.cfi_endproc

	.globl	__ZN4core3ptr41drop_in_place$LT$alloc..string..Drain$GT$17hd91f7549b850b465E
	.p2align	4, 0x90
__ZN4core3ptr41drop_in_place$LT$alloc..string..Drain$GT$17hd91f7549b850b465E:
Lfunc_begin118:
	.loc	24 490 0
	.cfi_startproc
	pushq	%rbp
	.cfi_def_cfa_offset 16
	.cfi_offset %rbp, -16
	movq	%rsp, %rbp
	.cfi_def_cfa_register %rbp
	subq	$16, %rsp
	movq	%rdi, -8(%rbp)
Ltmp395:
	.loc	24 490 1 prologue_end
	callq	__ZN62_$LT$alloc..string..Drain$u20$as$u20$core..ops..drop..Drop$GT$4drop17ha9f2bd803efb3e28E
	addq	$16, %rsp
	popq	%rbp
	retq
Ltmp396:
Lfunc_end118:
	.cfi_endproc

	.p2align	4, 0x90
__ZN4core3ptr58drop_in_place$LT$$RF$$RF$mut$u20$alloc..string..String$GT$17hbdaa98a226713a58E:
Lfunc_begin119:
	.loc	24 490 0
	.cfi_startproc
	pushq	%rbp
	.cfi_def_cfa_offset 16
	.cfi_offset %rbp, -16
	movq	%rsp, %rbp
	.cfi_def_cfa_register %rbp
	pushq	%rax
	movq	%rdi, -8(%rbp)
Ltmp397:
	.loc	24 490 1 prologue_end
	addq	$8, %rsp
	popq	%rbp
	retq
Ltmp398:
Lfunc_end119:
	.cfi_endproc

	.globl	__ZN4core3ptr58drop_in_place$LT$rayon..iter..extend..ListStringFolder$GT$17h1a8ea92abfedb468E
	.p2align	4, 0x90
__ZN4core3ptr58drop_in_place$LT$rayon..iter..extend..ListStringFolder$GT$17h1a8ea92abfedb468E:
Lfunc_begin120:
	.loc	24 490 0
	.cfi_startproc
	pushq	%rbp
	.cfi_def_cfa_offset 16
	.cfi_offset %rbp, -16
	movq	%rsp, %rbp
	.cfi_def_cfa_register %rbp
	subq	$16, %rsp
	movq	%rdi, -8(%rbp)
Ltmp399:
	.loc	24 490 1 prologue_end
	callq	__ZN4core3ptr42drop_in_place$LT$alloc..string..String$GT$17hd5dc6af6ae0b1128E
	addq	$16, %rsp
	popq	%rbp
	retq
Ltmp400:
Lfunc_end120:
	.cfi_endproc

	.p2align	4, 0x90
__ZN4core3ptr61drop_in_place$LT$$RF$core..ops..range..Range$LT$usize$GT$$GT$17hfa4a2ba00d9eccc5E:
Lfunc_begin121:
	.loc	24 490 0
	.cfi_startproc
	pushq	%rbp
	.cfi_def_cfa_offset 16
	.cfi_offset %rbp, -16
	movq	%rsp, %rbp
	.cfi_def_cfa_register %rbp
	pushq	%rax
	movq	%rdi, -8(%rbp)
Ltmp401:
	.loc	24 490 1 prologue_end
	addq	$8, %rsp
	popq	%rbp
	retq
Ltmp402:
Lfunc_end121:
	.cfi_endproc

	.globl	__ZN4core3ptr87drop_in_place$LT$alloc..collections..linked_list..Node$LT$alloc..string..String$GT$$GT$17hc2030aa0cb794884E
	.p2align	4, 0x90
__ZN4core3ptr87drop_in_place$LT$alloc..collections..linked_list..Node$LT$alloc..string..String$GT$$GT$17hc2030aa0cb794884E:
Lfunc_begin122:
	.loc	24 490 0
	.cfi_startproc
	pushq	%rbp
	.cfi_def_cfa_offset 16
	.cfi_offset %rbp, -16
	movq	%rsp, %rbp
	.cfi_def_cfa_register %rbp
	subq	$16, %rsp
	movq	%rdi, -8(%rbp)
Ltmp403:
	.loc	24 490 1 prologue_end
	addq	$16, %rdi
	callq	__ZN4core3ptr42drop_in_place$LT$alloc..string..String$GT$17hd5dc6af6ae0b1128E
	addq	$16, %rsp
	popq	%rbp
	retq
Ltmp404:
Lfunc_end122:
	.cfi_endproc

	.globl	__ZN4core3ptr91drop_in_place$LT$alloc..collections..linked_list..IntoIter$LT$alloc..string..String$GT$$GT$17h1f200e3021c9018dE
	.p2align	4, 0x90
__ZN4core3ptr91drop_in_place$LT$alloc..collections..linked_list..IntoIter$LT$alloc..string..String$GT$$GT$17h1f200e3021c9018dE:
Lfunc_begin123:
	.loc	24 490 0
	.cfi_startproc
	pushq	%rbp
	.cfi_def_cfa_offset 16
	.cfi_offset %rbp, -16
	movq	%rsp, %rbp
	.cfi_def_cfa_register %rbp
	subq	$16, %rsp
	movq	%rdi, -8(%rbp)
Ltmp405:
	.loc	24 490 1 prologue_end
	callq	__ZN4core3ptr93drop_in_place$LT$alloc..collections..linked_list..LinkedList$LT$alloc..string..String$GT$$GT$17hdcb999259cf31acfE
	addq	$16, %rsp
	popq	%rbp
	retq
Ltmp406:
Lfunc_end123:
	.cfi_endproc

	.globl	__ZN4core3ptr93drop_in_place$LT$alloc..collections..linked_list..LinkedList$LT$alloc..string..String$GT$$GT$17hdcb999259cf31acfE
	.p2align	4, 0x90
__ZN4core3ptr93drop_in_place$LT$alloc..collections..linked_list..LinkedList$LT$alloc..string..String$GT$$GT$17hdcb999259cf31acfE:
Lfunc_begin124:
	.loc	24 490 0
	.cfi_startproc
	pushq	%rbp
	.cfi_def_cfa_offset 16
	.cfi_offset %rbp, -16
	movq	%rsp, %rbp
	.cfi_def_cfa_register %rbp
	subq	$16, %rsp
	movq	%rdi, -8(%rbp)
Ltmp407:
	.loc	24 490 1 prologue_end
	callq	__ZN94_$LT$alloc..collections..linked_list..LinkedList$LT$T$GT$$u20$as$u20$core..ops..drop..Drop$GT$4drop17h7df7d19b629aa6fcE
	addq	$16, %rsp
	popq	%rbp
	retq
Ltmp408:
Lfunc_end124:
	.cfi_endproc

	.globl	__ZN4core3ptr9const_ptr33_$LT$impl$u20$$BP$const$u20$T$GT$7sub_ptr17h201b3bd7e208bf53E
	.p2align	4, 0x90
__ZN4core3ptr9const_ptr33_$LT$impl$u20$$BP$const$u20$T$GT$7sub_ptr17h201b3bd7e208bf53E:
Lfunc_begin125:
	.loc	11 791 0
	.cfi_startproc
	pushq	%rbp
	.cfi_def_cfa_offset 16
	.cfi_offset %rbp, -16
	movq	%rsp, %rbp
	.cfi_def_cfa_register %rbp
	subq	$64, %rsp
	movq	%rdi, -56(%rbp)
	movq	%rsi, -48(%rbp)
	movq	%rdi, -32(%rbp)
	movq	%rsi, -24(%rbp)
Ltmp409:
	.file	25 "/rustc/2c8cc343237b8f7d5a3c3703e3a87f2eb2c54a74/library/core/src/mem" "mod.rs"
	.loc	25 309 5 prologue_end
	movq	$1, -16(%rbp)
Ltmp410:
	.loc	11 806 17
	movb	$1, %al
	testb	$1, %al
	jne	LBB125_2
	movb	$0, -33(%rbp)
	jmp	LBB125_3
LBB125_2:
	movb	$1, -33(%rbp)
LBB125_3:
	.loc	11 806 9 is_stmt 0
	movb	-33(%rbp), %al
	xorb	$-1, %al
	testb	$1, %al
	jne	LBB125_5
	.loc	11 0 9
	movq	-48(%rbp), %rcx
	movq	-56(%rbp), %rax
	.loc	11 808 18 is_stmt 1
	subq	%rcx, %rax
	shrq	$0, %rax
	movq	%rax, -8(%rbp)
	movq	-8(%rbp), %rax
Ltmp411:
	.loc	11 809 6
	addq	$64, %rsp
	popq	%rbp
	retq
LBB125_5:
Ltmp412:
	.loc	11 806 9
	leaq	l___unnamed_7(%rip), %rdi
	leaq	l___unnamed_8(%rip), %rdx
	movl	$73, %esi
	callq	__ZN4core9panicking5panic17hc1bc45270cf64b03E
Ltmp413:
Lfunc_end125:
	.cfi_endproc

	.p2align	4, 0x90
__ZN4core3str21_$LT$impl$u20$str$GT$16is_char_boundary17h2e43e74bd0fcdd8eE:
Lfunc_begin126:
	.loc	7 211 0
	.cfi_startproc
	pushq	%rbp
	.cfi_def_cfa_offset 16
	.cfi_offset %rbp, -16
	movq	%rsp, %rbp
	.cfi_def_cfa_register %rbp
	subq	$176, %rsp
	movq	%rdi, -176(%rbp)
	movq	%rsi, -168(%rbp)
	movq	%rdx, -160(%rbp)
	movq	%rdi, -136(%rbp)
	movq	%rsi, -128(%rbp)
	movq	%rdx, -120(%rbp)
Ltmp414:
	.loc	7 216 12 prologue_end
	cmpq	$0, %rdx
	jne	LBB126_2
	.loc	7 217 20
	movb	$1, -145(%rbp)
	.loc	7 234 6
	jmp	LBB126_6
LBB126_2:
	.loc	7 0 6 is_stmt 0
	movq	-160(%rbp), %rdi
	movq	-168(%rbp), %rax
	movq	-176(%rbp), %rcx
	.loc	7 220 15 is_stmt 1
	movq	%rcx, -112(%rbp)
	movq	%rax, -104(%rbp)
Ltmp415:
	.loc	7 327 18
	movq	%rcx, -96(%rbp)
	movq	%rax, -88(%rbp)
	movq	-96(%rbp), %rsi
	movq	-88(%rbp), %rdx
Ltmp416:
	.loc	7 220 15
	movq	%rsi, -80(%rbp)
	movq	%rdx, -72(%rbp)
	.loc	7 220 35 is_stmt 0
	movq	%rdi, -64(%rbp)
Ltmp417:
	.file	26 "/rustc/2c8cc343237b8f7d5a3c3703e3a87f2eb2c54a74/library/core/src/slice" "mod.rs"
	.loc	26 343 9 is_stmt 1
	callq	__ZN75_$LT$usize$u20$as$u20$core..slice..index..SliceIndex$LT$$u5b$T$u5d$$GT$$GT$3get17h98bfbfcfa0840b38E
	movq	%rax, -144(%rbp)
Ltmp418:
	.loc	7 220 15
	movq	-144(%rbp), %rdx
	movl	$1, %eax
	xorl	%ecx, %ecx
	cmpq	$0, %rdx
	cmoveq	%rcx, %rax
	.loc	7 220 9 is_stmt 0
	cmpq	$0, %rax
	jne	LBB126_4
	.loc	7 0 9
	movq	-160(%rbp), %rax
	movq	-168(%rbp), %rcx
	movq	-176(%rbp), %rdx
	.loc	7 230 30 is_stmt 1
	movq	%rdx, -48(%rbp)
	movq	%rcx, -40(%rbp)
Ltmp419:
	.loc	7 160 9
	movq	%rdx, -32(%rbp)
	movq	%rcx, -24(%rbp)
Ltmp420:
	.loc	7 327 18
	movq	%rdx, -16(%rbp)
	movq	%rcx, -8(%rbp)
Ltmp421:
	.loc	7 230 21
	cmpq	-8(%rbp), %rax
	sete	%al
	andb	$1, %al
	movb	%al, -145(%rbp)
	.loc	7 230 39 is_stmt 0
	jmp	LBB126_5
LBB126_4:
	.loc	7 232 19 is_stmt 1
	movq	-144(%rbp), %rax
	movb	(%rax), %al
	movb	%al, -50(%rbp)
Ltmp422:
	.loc	7 232 25 is_stmt 0
	movb	%al, -49(%rbp)
Ltmp423:
	.file	27 "/rustc/2c8cc343237b8f7d5a3c3703e3a87f2eb2c54a74/library/core/src/num" "mod.rs"
	.loc	27 885 9 is_stmt 1
	cmpb	$-64, %al
	setge	%al
	andb	$1, %al
	movb	%al, -145(%rbp)
Ltmp424:
LBB126_5:
	.loc	7 234 6
	jmp	LBB126_6
LBB126_6:
	movb	-145(%rbp), %al
	andb	$1, %al
	movzbl	%al, %eax
	addq	$176, %rsp
	popq	%rbp
	retq
Ltmp425:
Lfunc_end126:
	.cfi_endproc

	.p2align	4, 0x90
__ZN4core3str21_$LT$impl$u20$str$GT$3len17h5dd303d4c910006aE:
Lfunc_begin127:
	.loc	7 159 0
	.cfi_startproc
	pushq	%rbp
	.cfi_def_cfa_offset 16
	.cfi_offset %rbp, -16
	movq	%rsp, %rbp
	.cfi_def_cfa_register %rbp
	subq	$48, %rsp
	movq	%rdi, -48(%rbp)
	movq	%rsi, -40(%rbp)
Ltmp426:
	.loc	7 160 9 prologue_end
	movq	%rdi, -32(%rbp)
	movq	%rsi, -24(%rbp)
Ltmp427:
	.loc	7 327 18
	movq	%rdi, -16(%rbp)
	movq	%rsi, -8(%rbp)
	movq	-8(%rbp), %rax
Ltmp428:
	.loc	7 161 6
	addq	$48, %rsp
	popq	%rbp
	retq
Ltmp429:
Lfunc_end127:
	.cfi_endproc

	.p2align	4, 0x90
__ZN4core3str21_$LT$impl$u20$str$GT$8split_at17h7cba0908228f3404E:
Lfunc_begin128:
	.loc	7 672 0
	.cfi_startproc
	pushq	%rbp
	.cfi_def_cfa_offset 16
	.cfi_offset %rbp, -16
	movq	%rsp, %rbp
	.cfi_def_cfa_register %rbp
	subq	$192, %rsp
	movq	%rcx, -176(%rbp)
	movq	%rdx, %rax
	movq	-176(%rbp), %rdx
	movq	%rax, -168(%rbp)
	movq	%rsi, %rax
	movq	-168(%rbp), %rsi
	movq	%rax, -160(%rbp)
	movq	%rdi, %rax
	movq	-160(%rbp), %rdi
	movq	%rax, -152(%rbp)
	movq	%rax, -144(%rbp)
	movq	%rdi, -104(%rbp)
	movq	%rsi, -96(%rbp)
	movq	%rdx, -88(%rbp)
Ltmp430:
	.loc	7 674 12 prologue_end
	callq	__ZN4core3str21_$LT$impl$u20$str$GT$16is_char_boundary17h2e43e74bd0fcdd8eE
	testb	$1, %al
	jne	LBB128_2
	.loc	7 0 12 is_stmt 0
	movq	-176(%rbp), %rcx
	movq	-168(%rbp), %rsi
	movq	-160(%rbp), %rdi
	.loc	7 678 13 is_stmt 1
	leaq	l___unnamed_9(%rip), %r8
	xorl	%eax, %eax
	movl	%eax, %edx
	callq	__ZN4core3str16slice_error_fail17h13b85bf03fb2869bE
LBB128_2:
	.loc	7 0 13 is_stmt 0
	movq	-168(%rbp), %rcx
	movq	-160(%rbp), %rdx
	movq	-176(%rbp), %rax
	.loc	7 676 23 is_stmt 1
	movq	%rdx, -80(%rbp)
	movq	%rcx, -72(%rbp)
	.loc	7 676 42 is_stmt 0
	movq	$0, -136(%rbp)
	movq	%rax, -128(%rbp)
Ltmp431:
	.loc	7 511 20 is_stmt 1
	movq	-136(%rbp), %rdi
	movq	-128(%rbp), %rsi
	callq	__ZN4core3str6traits108_$LT$impl$u20$core..slice..index..SliceIndex$LT$str$GT$$u20$for$u20$core..ops..range..Range$LT$usize$GT$$GT$13get_unchecked17h111f452ed8c213beE
	movq	-176(%rbp), %rsi
	movq	-168(%rbp), %rcx
	movq	%rax, -192(%rbp)
	movq	%rdx, %rax
	movq	-160(%rbp), %rdx
	movq	%rax, -184(%rbp)
Ltmp432:
	.loc	7 676 51
	movq	%rdx, -64(%rbp)
	movq	%rcx, -56(%rbp)
	.loc	7 676 75 is_stmt 0
	movq	%rdx, -48(%rbp)
	movq	%rcx, -40(%rbp)
Ltmp433:
	.loc	7 160 9 is_stmt 1
	movq	%rdx, -32(%rbp)
	movq	%rcx, -24(%rbp)
Ltmp434:
	.loc	7 327 18
	movq	%rdx, -16(%rbp)
	movq	%rcx, -8(%rbp)
	movq	-8(%rbp), %rax
Ltmp435:
	.loc	7 676 70
	movq	%rsi, -120(%rbp)
	movq	%rax, -112(%rbp)
Ltmp436:
	.loc	7 511 20
	movq	-120(%rbp), %rdi
	movq	-112(%rbp), %rsi
	callq	__ZN4core3str6traits108_$LT$impl$u20$core..slice..index..SliceIndex$LT$str$GT$$u20$for$u20$core..ops..range..Range$LT$usize$GT$$GT$13get_unchecked17h111f452ed8c213beE
	movq	-192(%rbp), %r8
	movq	-184(%rbp), %rdi
	movq	-152(%rbp), %rcx
	movq	%rax, %rsi
	movq	-144(%rbp), %rax
Ltmp437:
	.loc	7 676 22
	movq	%r8, (%rcx)
	movq	%rdi, 8(%rcx)
	movq	%rsi, 16(%rcx)
	movq	%rdx, 24(%rcx)
	.loc	7 680 6
	addq	$192, %rsp
	popq	%rbp
	retq
Ltmp438:
Lfunc_end128:
	.cfi_endproc

	.p2align	4, 0x90
__ZN4core3str6traits108_$LT$impl$u20$core..slice..index..SliceIndex$LT$str$GT$$u20$for$u20$core..ops..range..Range$LT$usize$GT$$GT$13get_unchecked17h111f452ed8c213beE:
Lfunc_begin129:
	.file	28 "/rustc/2c8cc343237b8f7d5a3c3703e3a87f2eb2c54a74/library/core/src/str" "traits.rs"
	.loc	28 197 0
	.cfi_startproc
	pushq	%rbp
	.cfi_def_cfa_offset 16
	.cfi_offset %rbp, -16
	movq	%rsp, %rbp
	.cfi_def_cfa_register %rbp
	subq	$192, %rsp
	movq	%rdi, -160(%rbp)
	movq	%rsi, -152(%rbp)
	movq	%rdx, -144(%rbp)
	movq	%rcx, -136(%rbp)
Ltmp439:
	.loc	28 198 21 prologue_end
	movq	%rdx, -128(%rbp)
	movq	%rcx, -120(%rbp)
Ltmp440:
	.loc	28 201 28
	movq	%rdx, -112(%rbp)
	movq	%rcx, -104(%rbp)
Ltmp441:
	.loc	11 1650 9
	movq	%rdx, -96(%rbp)
Ltmp442:
	.loc	28 201 47
	movq	%rdi, -88(%rbp)
Ltmp443:
	.loc	11 932 18
	movq	%rdx, -80(%rbp)
	.loc	11 932 30 is_stmt 0
	movq	%rdi, -72(%rbp)
Ltmp444:
	.loc	11 473 18 is_stmt 1
	addq	%rdi, %rdx
	movq	%rdx, -64(%rbp)
	movq	-64(%rbp), %rax
	movq	%rax, -56(%rbp)
Ltmp445:
	.loc	28 202 19
	subq	%rdi, %rsi
	movq	%rsi, -48(%rbp)
Ltmp446:
	.loc	28 203 35
	movq	%rax, -40(%rbp)
	.loc	28 203 40 is_stmt 0
	movq	%rsi, -32(%rbp)
Ltmp447:
	.loc	24 734 20 is_stmt 1
	movq	%rax, -24(%rbp)
Ltmp448:
	.loc	11 61 9
	movq	%rax, -16(%rbp)
Ltmp449:
	.loc	24 734 33
	movq	%rsi, -8(%rbp)
Ltmp450:
	.loc	12 118 36
	movq	%rax, -176(%rbp)
	movq	%rsi, -168(%rbp)
	.loc	12 118 14 is_stmt 0
	movq	-176(%rbp), %rcx
	movq	-168(%rbp), %rax
	movq	%rcx, -192(%rbp)
	movq	%rax, -184(%rbp)
	movq	-192(%rbp), %rax
	movq	-184(%rbp), %rdx
Ltmp451:
	.loc	28 204 6 is_stmt 1
	addq	$192, %rsp
	popq	%rbp
	retq
Ltmp452:
Lfunc_end129:
	.cfi_endproc

	.p2align	4, 0x90
__ZN4core4char7methods15encode_utf8_raw17h6287677ace6e7e33E:
Lfunc_begin130:
	.file	29 "/rustc/2c8cc343237b8f7d5a3c3703e3a87f2eb2c54a74/library/core/src/char" "methods.rs"
	.loc	29 1729 0
	.cfi_startproc
	pushq	%rbp
	.cfi_def_cfa_offset 16
	.cfi_offset %rbp, -16
	movq	%rsp, %rbp
	.cfi_def_cfa_register %rbp
	subq	$560, %rsp
	movq	%rsi, -544(%rbp)
	movq	%rdx, -536(%rbp)
	movl	%edi, -516(%rbp)
	movq	%rsi, -304(%rbp)
	movq	%rdx, -296(%rbp)
Ltmp453:
	.loc	29 1730 24 prologue_end
	movl	-516(%rbp), %edi
	.loc	29 1730 15 is_stmt 0
	callq	__ZN4core4char7methods8len_utf817h46bfed94a0843a02E
	movq	-544(%rbp), %rsi
	movq	-536(%rbp), %rdx
	movq	%rax, -512(%rbp)
Ltmp454:
	.loc	29 1731 12 is_stmt 1
	movq	-512(%rbp), %rax
	.loc	29 1731 22 is_stmt 0
	movq	%rsi, -272(%rbp)
	movq	%rdx, -264(%rbp)
Ltmp455:
	.file	30 "/rustc/2c8cc343237b8f7d5a3c3703e3a87f2eb2c54a74/library/core/src/slice" "index.rs"
	.loc	30 30 25 is_stmt 1
	movq	%rsi, -256(%rbp)
	movq	%rdx, -248(%rbp)
Ltmp456:
	.loc	29 1731 11
	movq	%rax, -504(%rbp)
	movq	%rsi, -496(%rbp)
	movq	%rdx, -488(%rbp)
	.loc	29 1731 5 is_stmt 0
	movq	-504(%rbp), %rax
	decq	%rax
	movq	%rax, -528(%rbp)
	subq	$3, %rax
	ja	LBB130_1
	.loc	29 0 5
	movq	-528(%rbp), %rax
	leaq	LJTI130_0(%rip), %rcx
	movslq	(%rcx,%rax,4), %rax
	addq	%rcx, %rax
	jmpq	*%rax
LBB130_1:
	movq	-536(%rbp), %rcx
	leaq	-512(%rbp), %rsi
	.loc	29 1750 14 is_stmt 1
	movq	%rsi, -120(%rbp)
Ltmp457:
	.loc	16 328 23
	movq	%rsi, -112(%rbp)
	.loc	16 328 26 is_stmt 0
	movq	__ZN4core3fmt3num3imp54_$LT$impl$u20$core..fmt..Display$u20$for$u20$usize$GT$3fmt17ha5c925fcd7ed33faE@GOTPCREL(%rip), %rax
	movq	%rax, -104(%rbp)
Ltmp458:
	.loc	16 347 42 is_stmt 1
	movq	%rax, -96(%rbp)
	movq	-96(%rbp), %rdx
	.loc	16 347 68 is_stmt 0
	movq	%rsi, -88(%rbp)
	movq	-88(%rbp), %rsi
	.loc	16 347 18
	movq	%rsi, -384(%rbp)
	movq	%rdx, -376(%rbp)
	leaq	-516(%rbp), %rsi
Ltmp459:
	.loc	29 1750 14 is_stmt 1
	movq	%rsi, -80(%rbp)
Ltmp460:
	.loc	16 328 23
	movq	%rsi, -72(%rbp)
	.loc	16 328 26 is_stmt 0
	movq	__ZN4core3fmt3num53_$LT$impl$u20$core..fmt..UpperHex$u20$for$u20$u32$GT$3fmt17ha96bbefe8f663d11E@GOTPCREL(%rip), %rdx
	movq	%rdx, -64(%rbp)
Ltmp461:
	.loc	16 347 42 is_stmt 1
	movq	%rdx, -56(%rbp)
	movq	-56(%rbp), %rdx
	.loc	16 347 68 is_stmt 0
	movq	%rsi, -48(%rbp)
	movq	-48(%rbp), %rsi
	.loc	16 347 18
	movq	%rsi, -368(%rbp)
	movq	%rdx, -360(%rbp)
Ltmp462:
	.loc	29 1754 13 is_stmt 1
	movq	%rcx, -336(%rbp)
	leaq	-336(%rbp), %rcx
	.loc	29 1750 14
	movq	%rcx, -40(%rbp)
Ltmp463:
	.loc	16 328 23
	movq	%rcx, -32(%rbp)
	.loc	16 328 26 is_stmt 0
	movq	%rax, -24(%rbp)
Ltmp464:
	.loc	16 347 42 is_stmt 1
	movq	%rax, -16(%rbp)
	movq	-16(%rbp), %rax
	.loc	16 347 68 is_stmt 0
	movq	%rcx, -8(%rbp)
	movq	-8(%rbp), %rcx
	.loc	16 347 18
	movq	%rcx, -352(%rbp)
	movq	%rax, -344(%rbp)
Ltmp465:
	.loc	29 1750 14 is_stmt 1
	movq	-384(%rbp), %rcx
	movq	-376(%rbp), %rax
	movq	%rcx, -432(%rbp)
	movq	%rax, -424(%rbp)
	movq	-368(%rbp), %rcx
	movq	-360(%rbp), %rax
	movq	%rcx, -416(%rbp)
	movq	%rax, -408(%rbp)
	movq	-352(%rbp), %rcx
	movq	-344(%rbp), %rax
	movq	%rcx, -400(%rbp)
	movq	%rax, -392(%rbp)
	leaq	l___unnamed_10(%rip), %rsi
	leaq	-480(%rbp), %rdi
	movq	%rdi, -552(%rbp)
	leaq	-432(%rbp), %rcx
	movl	$3, %r8d
	movq	%r8, %rdx
	callq	__ZN4core3fmt9Arguments6new_v117hf458e5de41a9183dE
	movq	-552(%rbp), %rdi
	leaq	l___unnamed_11(%rip), %rsi
	callq	__ZN4core9panicking9panic_fmt17h9b5d807e24bcaaedE
LBB130_2:
	.loc	29 1732 13
	cmpq	$1, -488(%rbp)
	jae	LBB130_10
	jmp	LBB130_1
LBB130_3:
	.loc	29 1735 13
	cmpq	$2, -488(%rbp)
	jae	LBB130_9
	jmp	LBB130_1
LBB130_4:
	.loc	29 1739 13
	cmpq	$3, -488(%rbp)
	jae	LBB130_8
	jmp	LBB130_1
LBB130_5:
	.loc	29 1744 13
	cmpq	$4, -488(%rbp)
	jb	LBB130_1
	.loc	29 1744 14 is_stmt 0
	movq	-496(%rbp), %rsi
	movq	%rsi, -240(%rbp)
	.loc	29 1744 17
	movq	-496(%rbp), %rdx
	movq	%rdx, %rax
	addq	$1, %rax
	movq	%rax, -232(%rbp)
	.loc	29 1744 20
	movq	-496(%rbp), %rcx
	movq	%rcx, %rax
	addq	$2, %rax
	movq	%rax, -224(%rbp)
	.loc	29 1744 23
	movq	-496(%rbp), %rax
	movq	%rax, %rdi
	addq	$3, %rdi
	movq	%rdi, -216(%rbp)
Ltmp466:
	.loc	29 1745 19 is_stmt 1
	movl	-516(%rbp), %edi
	shrl	$18, %edi
	.loc	29 1745 18 is_stmt 0
	andl	$7, %edi
	.loc	29 1745 13
	orb	$-16, %dil
	movb	%dil, (%rsi)
	.loc	29 1746 19 is_stmt 1
	movl	-516(%rbp), %esi
	shrl	$12, %esi
	.loc	29 1746 18 is_stmt 0
	andl	$63, %esi
	.loc	29 1746 13
	orb	$-128, %sil
	movb	%sil, 1(%rdx)
	.loc	29 1747 19 is_stmt 1
	movl	-516(%rbp), %edx
	shrl	$6, %edx
	.loc	29 1747 18 is_stmt 0
	andl	$63, %edx
	.loc	29 1747 13
	orb	$-128, %dl
	movb	%dl, 2(%rcx)
	.loc	29 1748 19 is_stmt 1
	movl	-516(%rbp), %ecx
	.loc	29 1748 18 is_stmt 0
	andl	$63, %ecx
	.loc	29 1748 13
	orb	$-128, %cl
	movb	%cl, 3(%rax)
Ltmp467:
LBB130_7:
	.loc	29 0 13
	movq	-536(%rbp), %rcx
	movq	-544(%rbp), %rdx
	.loc	29 1757 10 is_stmt 1
	movq	%rdx, -160(%rbp)
	movq	%rcx, -152(%rbp)
	.loc	29 1757 16 is_stmt 0
	movq	-512(%rbp), %rax
	.loc	29 1757 14
	movq	%rax, -328(%rbp)
Ltmp468:
	.loc	30 30 9 is_stmt 1
	movq	-328(%rbp), %rax
	movq	%rax, -144(%rbp)
	.loc	30 30 25 is_stmt 0
	movq	%rdx, -136(%rbp)
	movq	%rcx, -128(%rbp)
Ltmp469:
	.loc	30 461 9 is_stmt 1
	movq	$0, -320(%rbp)
	movq	%rax, -312(%rbp)
	movq	-320(%rbp), %rdi
	movq	-312(%rbp), %rsi
	leaq	l___unnamed_12(%rip), %r8
	callq	__ZN106_$LT$core..ops..range..Range$LT$usize$GT$$u20$as$u20$core..slice..index..SliceIndex$LT$$u5b$T$u5d$$GT$$GT$9index_mut17ha8b2c1b7c9d2f8bfE
Ltmp470:
	.loc	29 1758 2
	addq	$560, %rsp
	popq	%rbp
	retq
LBB130_8:
Ltmp471:
	.loc	29 1739 14
	movq	-496(%rbp), %rdx
	movq	%rdx, -208(%rbp)
	.loc	29 1739 17 is_stmt 0
	movq	-496(%rbp), %rcx
	movq	%rcx, %rax
	addq	$1, %rax
	movq	%rax, -200(%rbp)
	.loc	29 1739 20
	movq	-496(%rbp), %rax
	movq	%rax, %rsi
	addq	$2, %rsi
	movq	%rsi, -192(%rbp)
Ltmp472:
	.loc	29 1740 19 is_stmt 1
	movl	-516(%rbp), %esi
	shrl	$12, %esi
	.loc	29 1740 18 is_stmt 0
	andl	$15, %esi
	.loc	29 1740 13
	orb	$-32, %sil
	movb	%sil, (%rdx)
	.loc	29 1741 19 is_stmt 1
	movl	-516(%rbp), %edx
	shrl	$6, %edx
	.loc	29 1741 18 is_stmt 0
	andl	$63, %edx
	.loc	29 1741 13
	orb	$-128, %dl
	movb	%dl, 1(%rcx)
	.loc	29 1742 19 is_stmt 1
	movl	-516(%rbp), %ecx
	.loc	29 1742 18 is_stmt 0
	andl	$63, %ecx
	.loc	29 1742 13
	orb	$-128, %cl
	movb	%cl, 2(%rax)
Ltmp473:
	.loc	29 1743 9 is_stmt 1
	jmp	LBB130_7
LBB130_9:
	.loc	29 1735 14
	movq	-496(%rbp), %rcx
	movq	%rcx, -184(%rbp)
	.loc	29 1735 17 is_stmt 0
	movq	-496(%rbp), %rax
	movq	%rax, %rdx
	addq	$1, %rdx
	movq	%rdx, -176(%rbp)
Ltmp474:
	.loc	29 1736 19 is_stmt 1
	movl	-516(%rbp), %edx
	shrl	$6, %edx
	.loc	29 1736 18 is_stmt 0
	andl	$31, %edx
	.loc	29 1736 13
	orb	$-64, %dl
	movb	%dl, (%rcx)
	.loc	29 1737 19 is_stmt 1
	movl	-516(%rbp), %ecx
	.loc	29 1737 18 is_stmt 0
	andl	$63, %ecx
	.loc	29 1737 13
	orb	$-128, %cl
	movb	%cl, 1(%rax)
Ltmp475:
	.loc	29 1738 9 is_stmt 1
	jmp	LBB130_7
LBB130_10:
	.loc	29 1732 14
	movq	-496(%rbp), %rax
	movq	%rax, -168(%rbp)
Ltmp476:
	.loc	29 1733 18
	movl	-516(%rbp), %ecx
	.loc	29 1733 13 is_stmt 0
	movb	%cl, (%rax)
Ltmp477:
	.loc	29 1734 9 is_stmt 1
	jmp	LBB130_7
Ltmp478:
Lfunc_end130:
	.cfi_endproc
	.p2align	2, 0x90
	.data_region jt32
.set L130_0_set_2, LBB130_2-LJTI130_0
.set L130_0_set_3, LBB130_3-LJTI130_0
.set L130_0_set_4, LBB130_4-LJTI130_0
.set L130_0_set_5, LBB130_5-LJTI130_0
LJTI130_0:
	.long	L130_0_set_2
	.long	L130_0_set_3
	.long	L130_0_set_4
	.long	L130_0_set_5
	.end_data_region

	.p2align	4, 0x90
__ZN4core4char7methods8len_utf817h46bfed94a0843a02E:
Lfunc_begin131:
	.loc	29 1701 0
	.cfi_startproc
	pushq	%rbp
	.cfi_def_cfa_offset 16
	.cfi_offset %rbp, -16
	movq	%rsp, %rbp
	.cfi_def_cfa_register %rbp
	subq	$24, %rsp
	movl	%edi, -20(%rbp)
	movl	%edi, -4(%rbp)
Ltmp479:
	.loc	29 1702 8 prologue_end
	cmpl	$128, %edi
	jb	LBB131_2
	.loc	29 0 8 is_stmt 0
	movl	-20(%rbp), %eax
	.loc	29 1704 15 is_stmt 1
	cmpl	$2048, %eax
	jb	LBB131_5
	jmp	LBB131_4
LBB131_2:
	.loc	29 1703 9
	movq	$1, -16(%rbp)
LBB131_3:
	.loc	29 1711 2
	movq	-16(%rbp), %rax
	addq	$24, %rsp
	popq	%rbp
	retq
LBB131_4:
	.loc	29 0 2 is_stmt 0
	movl	-20(%rbp), %eax
	.loc	29 1706 15 is_stmt 1
	cmpl	$65536, %eax
	jb	LBB131_8
	jmp	LBB131_7
LBB131_5:
	.loc	29 1705 9
	movq	$2, -16(%rbp)
LBB131_6:
	.loc	29 1702 5
	jmp	LBB131_3
LBB131_7:
	.loc	29 1709 9
	movq	$4, -16(%rbp)
	.loc	29 1706 12
	jmp	LBB131_9
LBB131_8:
	.loc	29 1707 9
	movq	$3, -16(%rbp)
LBB131_9:
	.loc	29 1704 12
	jmp	LBB131_6
Ltmp480:
Lfunc_end131:
	.cfi_endproc

	.globl	__ZN4core4iter5range101_$LT$impl$u20$core..iter..traits..iterator..Iterator$u20$for$u20$core..ops..range..Range$LT$A$GT$$GT$9size_hint17h6aa256a8ee50bb97E
	.p2align	4, 0x90
__ZN4core4iter5range101_$LT$impl$u20$core..iter..traits..iterator..Iterator$u20$for$u20$core..ops..range..Range$LT$A$GT$$GT$9size_hint17h6aa256a8ee50bb97E:
Lfunc_begin132:
	.loc	17 715 0
	.cfi_startproc
	pushq	%rbp
	.cfi_def_cfa_offset 16
	.cfi_offset %rbp, -16
	movq	%rsp, %rbp
	.cfi_def_cfa_register %rbp
	subq	$112, %rsp
	movq	%rsi, -96(%rbp)
	movq	%rdi, %rax
	movq	-96(%rbp), %rdi
	movq	%rax, -88(%rbp)
	movq	%rax, -80(%rbp)
	movq	%rdi, -32(%rbp)
Ltmp481:
	.loc	17 716 25 prologue_end
	movq	%rdi, %rsi
	addq	$4, %rsi
	.loc	17 716 12 is_stmt 0
	callq	__ZN4core3cmp5impls55_$LT$impl$u20$core..cmp..PartialOrd$u20$for$u20$u32$GT$2lt17h2df36674fa470b8fE
	testb	$1, %al
	jne	LBB132_2
	.loc	17 0 12
	movq	-88(%rbp), %rax
	.loc	17 720 17 is_stmt 1
	movq	$0, -40(%rbp)
	movq	$1, -48(%rbp)
	.loc	17 720 13 is_stmt 0
	movq	$0, (%rax)
	movq	-48(%rbp), %rdx
	movq	-40(%rbp), %rcx
	movq	%rdx, 8(%rax)
	movq	%rcx, 16(%rax)
	.loc	17 716 9 is_stmt 1
	jmp	LBB132_6
LBB132_2:
	.loc	17 0 9 is_stmt 0
	movq	-96(%rbp), %rdi
	.loc	17 717 57 is_stmt 1
	movq	%rdi, %rsi
	addq	$4, %rsi
	.loc	17 717 24 is_stmt 0
	callq	__ZN47_$LT$u32$u20$as$u20$core..iter..range..Step$GT$13steps_between17hac000b02ed635817E
	movq	%rax, -112(%rbp)
	movq	%rdx, -104(%rbp)
	movq	%rax, -24(%rbp)
	movq	%rdx, -16(%rbp)
Ltmp482:
	.loc	17 718 14 is_stmt 1
	movq	%rax, -64(%rbp)
	movq	%rdx, -56(%rbp)
Ltmp483:
	.loc	14 848 9
	cmpq	$0, -64(%rbp)
	jne	LBB132_4
	.loc	14 850 21
	movq	$-1, -72(%rbp)
	jmp	LBB132_5
LBB132_4:
	.loc	14 849 18
	movq	-56(%rbp), %rax
	movq	%rax, -8(%rbp)
Ltmp484:
	.loc	14 849 24 is_stmt 0
	movq	%rax, -72(%rbp)
Ltmp485:
LBB132_5:
	.loc	14 0 24
	movq	-88(%rbp), %rax
	movq	-104(%rbp), %rcx
	movq	-112(%rbp), %rdx
	.loc	17 718 13 is_stmt 1
	movq	-72(%rbp), %rsi
	movq	%rsi, (%rax)
	movq	%rdx, 8(%rax)
	movq	%rcx, 16(%rax)
Ltmp486:
LBB132_6:
	.loc	17 0 13 is_stmt 0
	movq	-80(%rbp), %rax
	.loc	17 722 6 is_stmt 1
	addq	$112, %rsp
	popq	%rbp
	retq
Ltmp487:
Lfunc_end132:
	.cfi_endproc

	.globl	__ZN4core4iter5range101_$LT$impl$u20$core..iter..traits..iterator..Iterator$u20$for$u20$core..ops..range..Range$LT$A$GT$$GT$9size_hint17h7882dfb243472620E
	.p2align	4, 0x90
__ZN4core4iter5range101_$LT$impl$u20$core..iter..traits..iterator..Iterator$u20$for$u20$core..ops..range..Range$LT$A$GT$$GT$9size_hint17h7882dfb243472620E:
Lfunc_begin133:
	.loc	17 715 0
	.cfi_startproc
	pushq	%rbp
	.cfi_def_cfa_offset 16
	.cfi_offset %rbp, -16
	movq	%rsp, %rbp
	.cfi_def_cfa_register %rbp
	subq	$112, %rsp
	movq	%rsi, -96(%rbp)
	movq	%rdi, %rax
	movq	-96(%rbp), %rdi
	movq	%rax, -88(%rbp)
	movq	%rax, -80(%rbp)
	movq	%rdi, -32(%rbp)
Ltmp488:
	.loc	17 716 25 prologue_end
	movq	%rdi, %rsi
	addq	$1, %rsi
	.loc	17 716 12 is_stmt 0
	callq	__ZN4core3cmp5impls54_$LT$impl$u20$core..cmp..PartialOrd$u20$for$u20$u8$GT$2lt17haf10b036d0cbfbf0E
	testb	$1, %al
	jne	LBB133_2
	.loc	17 0 12
	movq	-88(%rbp), %rax
	.loc	17 720 17 is_stmt 1
	movq	$0, -40(%rbp)
	movq	$1, -48(%rbp)
	.loc	17 720 13 is_stmt 0
	movq	$0, (%rax)
	movq	-48(%rbp), %rdx
	movq	-40(%rbp), %rcx
	movq	%rdx, 8(%rax)
	movq	%rcx, 16(%rax)
	.loc	17 716 9 is_stmt 1
	jmp	LBB133_6
LBB133_2:
	.loc	17 0 9 is_stmt 0
	movq	-96(%rbp), %rdi
	.loc	17 717 57 is_stmt 1
	movq	%rdi, %rsi
	addq	$1, %rsi
	.loc	17 717 24 is_stmt 0
	callq	__ZN46_$LT$u8$u20$as$u20$core..iter..range..Step$GT$13steps_between17h44beb3186fb70d8fE
	movq	%rax, -112(%rbp)
	movq	%rdx, -104(%rbp)
	movq	%rax, -24(%rbp)
	movq	%rdx, -16(%rbp)
Ltmp489:
	.loc	17 718 14 is_stmt 1
	movq	%rax, -64(%rbp)
	movq	%rdx, -56(%rbp)
Ltmp490:
	.loc	14 848 9
	cmpq	$0, -64(%rbp)
	jne	LBB133_4
	.loc	14 850 21
	movq	$-1, -72(%rbp)
	jmp	LBB133_5
LBB133_4:
	.loc	14 849 18
	movq	-56(%rbp), %rax
	movq	%rax, -8(%rbp)
Ltmp491:
	.loc	14 849 24 is_stmt 0
	movq	%rax, -72(%rbp)
Ltmp492:
LBB133_5:
	.loc	14 0 24
	movq	-88(%rbp), %rax
	movq	-104(%rbp), %rcx
	movq	-112(%rbp), %rdx
	.loc	17 718 13 is_stmt 1
	movq	-72(%rbp), %rsi
	movq	%rsi, (%rax)
	movq	%rdx, 8(%rax)
	movq	%rcx, 16(%rax)
Ltmp493:
LBB133_6:
	.loc	17 0 13 is_stmt 0
	movq	-80(%rbp), %rax
	.loc	17 722 6 is_stmt 1
	addq	$112, %rsp
	popq	%rbp
	retq
Ltmp494:
Lfunc_end133:
	.cfi_endproc

	.globl	__ZN4core4iter5range101_$LT$impl$u20$core..iter..traits..iterator..Iterator$u20$for$u20$core..ops..range..Range$LT$A$GT$$GT$9size_hint17h7a0ab0825a2a711eE
	.p2align	4, 0x90
__ZN4core4iter5range101_$LT$impl$u20$core..iter..traits..iterator..Iterator$u20$for$u20$core..ops..range..Range$LT$A$GT$$GT$9size_hint17h7a0ab0825a2a711eE:
Lfunc_begin134:
	.loc	17 715 0
	.cfi_startproc
	pushq	%rbp
	.cfi_def_cfa_offset 16
	.cfi_offset %rbp, -16
	movq	%rsp, %rbp
	.cfi_def_cfa_register %rbp
	subq	$112, %rsp
	movq	%rsi, -96(%rbp)
	movq	%rdi, %rax
	movq	-96(%rbp), %rdi
	movq	%rax, -88(%rbp)
	movq	%rax, -80(%rbp)
	movq	%rdi, -32(%rbp)
Ltmp495:
	.loc	17 716 25 prologue_end
	movq	%rdi, %rsi
	addq	$2, %rsi
	.loc	17 716 12 is_stmt 0
	callq	__ZN4core3cmp5impls55_$LT$impl$u20$core..cmp..PartialOrd$u20$for$u20$u16$GT$2lt17h4590feea4e21b8e9E
	testb	$1, %al
	jne	LBB134_2
	.loc	17 0 12
	movq	-88(%rbp), %rax
	.loc	17 720 17 is_stmt 1
	movq	$0, -40(%rbp)
	movq	$1, -48(%rbp)
	.loc	17 720 13 is_stmt 0
	movq	$0, (%rax)
	movq	-48(%rbp), %rdx
	movq	-40(%rbp), %rcx
	movq	%rdx, 8(%rax)
	movq	%rcx, 16(%rax)
	.loc	17 716 9 is_stmt 1
	jmp	LBB134_6
LBB134_2:
	.loc	17 0 9 is_stmt 0
	movq	-96(%rbp), %rdi
	.loc	17 717 57 is_stmt 1
	movq	%rdi, %rsi
	addq	$2, %rsi
	.loc	17 717 24 is_stmt 0
	callq	__ZN47_$LT$u16$u20$as$u20$core..iter..range..Step$GT$13steps_between17h28c8862a74c6a228E
	movq	%rax, -112(%rbp)
	movq	%rdx, -104(%rbp)
	movq	%rax, -24(%rbp)
	movq	%rdx, -16(%rbp)
Ltmp496:
	.loc	17 718 14 is_stmt 1
	movq	%rax, -64(%rbp)
	movq	%rdx, -56(%rbp)
Ltmp497:
	.loc	14 848 9
	cmpq	$0, -64(%rbp)
	jne	LBB134_4
	.loc	14 850 21
	movq	$-1, -72(%rbp)
	jmp	LBB134_5
LBB134_4:
	.loc	14 849 18
	movq	-56(%rbp), %rax
	movq	%rax, -8(%rbp)
Ltmp498:
	.loc	14 849 24 is_stmt 0
	movq	%rax, -72(%rbp)
Ltmp499:
LBB134_5:
	.loc	14 0 24
	movq	-88(%rbp), %rax
	movq	-104(%rbp), %rcx
	movq	-112(%rbp), %rdx
	.loc	17 718 13 is_stmt 1
	movq	-72(%rbp), %rsi
	movq	%rsi, (%rax)
	movq	%rdx, 8(%rax)
	movq	%rcx, 16(%rax)
Ltmp500:
LBB134_6:
	.loc	17 0 13 is_stmt 0
	movq	-80(%rbp), %rax
	.loc	17 722 6 is_stmt 1
	addq	$112, %rsp
	popq	%rbp
	retq
Ltmp501:
Lfunc_end134:
	.cfi_endproc

	.globl	__ZN4core4iter5range101_$LT$impl$u20$core..iter..traits..iterator..Iterator$u20$for$u20$core..ops..range..Range$LT$A$GT$$GT$9size_hint17ha6831a46e61f06d5E
	.p2align	4, 0x90
__ZN4core4iter5range101_$LT$impl$u20$core..iter..traits..iterator..Iterator$u20$for$u20$core..ops..range..Range$LT$A$GT$$GT$9size_hint17ha6831a46e61f06d5E:
Lfunc_begin135:
	.loc	17 715 0
	.cfi_startproc
	pushq	%rbp
	.cfi_def_cfa_offset 16
	.cfi_offset %rbp, -16
	movq	%rsp, %rbp
	.cfi_def_cfa_register %rbp
	subq	$112, %rsp
	movq	%rsi, -96(%rbp)
	movq	%rdi, %rax
	movq	-96(%rbp), %rdi
	movq	%rax, -88(%rbp)
	movq	%rax, -80(%rbp)
	movq	%rdi, -32(%rbp)
Ltmp502:
	.loc	17 716 25 prologue_end
	movq	%rdi, %rsi
	addq	$2, %rsi
	.loc	17 716 12 is_stmt 0
	callq	__ZN4core3cmp5impls55_$LT$impl$u20$core..cmp..PartialOrd$u20$for$u20$i16$GT$2lt17h68f8a99cbbc46578E
	testb	$1, %al
	jne	LBB135_2
	.loc	17 0 12
	movq	-88(%rbp), %rax
	.loc	17 720 17 is_stmt 1
	movq	$0, -40(%rbp)
	movq	$1, -48(%rbp)
	.loc	17 720 13 is_stmt 0
	movq	$0, (%rax)
	movq	-48(%rbp), %rdx
	movq	-40(%rbp), %rcx
	movq	%rdx, 8(%rax)
	movq	%rcx, 16(%rax)
	.loc	17 716 9 is_stmt 1
	jmp	LBB135_6
LBB135_2:
	.loc	17 0 9 is_stmt 0
	movq	-96(%rbp), %rdi
	.loc	17 717 57 is_stmt 1
	movq	%rdi, %rsi
	addq	$2, %rsi
	.loc	17 717 24 is_stmt 0
	callq	__ZN47_$LT$i16$u20$as$u20$core..iter..range..Step$GT$13steps_between17h5c8e0fec188e3b78E
	movq	%rax, -112(%rbp)
	movq	%rdx, -104(%rbp)
	movq	%rax, -24(%rbp)
	movq	%rdx, -16(%rbp)
Ltmp503:
	.loc	17 718 14 is_stmt 1
	movq	%rax, -64(%rbp)
	movq	%rdx, -56(%rbp)
Ltmp504:
	.loc	14 848 9
	cmpq	$0, -64(%rbp)
	jne	LBB135_4
	.loc	14 850 21
	movq	$-1, -72(%rbp)
	jmp	LBB135_5
LBB135_4:
	.loc	14 849 18
	movq	-56(%rbp), %rax
	movq	%rax, -8(%rbp)
Ltmp505:
	.loc	14 849 24 is_stmt 0
	movq	%rax, -72(%rbp)
Ltmp506:
LBB135_5:
	.loc	14 0 24
	movq	-88(%rbp), %rax
	movq	-104(%rbp), %rcx
	movq	-112(%rbp), %rdx
	.loc	17 718 13 is_stmt 1
	movq	-72(%rbp), %rsi
	movq	%rsi, (%rax)
	movq	%rdx, 8(%rax)
	movq	%rcx, 16(%rax)
Ltmp507:
LBB135_6:
	.loc	17 0 13 is_stmt 0
	movq	-80(%rbp), %rax
	.loc	17 722 6 is_stmt 1
	addq	$112, %rsp
	popq	%rbp
	retq
Ltmp508:
Lfunc_end135:
	.cfi_endproc

	.globl	__ZN4core4iter5range101_$LT$impl$u20$core..iter..traits..iterator..Iterator$u20$for$u20$core..ops..range..Range$LT$A$GT$$GT$9size_hint17hd5f2136672d226c5E
	.p2align	4, 0x90
__ZN4core4iter5range101_$LT$impl$u20$core..iter..traits..iterator..Iterator$u20$for$u20$core..ops..range..Range$LT$A$GT$$GT$9size_hint17hd5f2136672d226c5E:
Lfunc_begin136:
	.loc	17 715 0
	.cfi_startproc
	pushq	%rbp
	.cfi_def_cfa_offset 16
	.cfi_offset %rbp, -16
	movq	%rsp, %rbp
	.cfi_def_cfa_register %rbp
	subq	$112, %rsp
	movq	%rsi, -96(%rbp)
	movq	%rdi, %rax
	movq	-96(%rbp), %rdi
	movq	%rax, -88(%rbp)
	movq	%rax, -80(%rbp)
	movq	%rdi, -32(%rbp)
Ltmp509:
	.loc	17 716 25 prologue_end
	movq	%rdi, %rsi
	addq	$1, %rsi
	.loc	17 716 12 is_stmt 0
	callq	__ZN4core3cmp5impls54_$LT$impl$u20$core..cmp..PartialOrd$u20$for$u20$i8$GT$2lt17h99def62b57c116e2E
	testb	$1, %al
	jne	LBB136_2
	.loc	17 0 12
	movq	-88(%rbp), %rax
	.loc	17 720 17 is_stmt 1
	movq	$0, -40(%rbp)
	movq	$1, -48(%rbp)
	.loc	17 720 13 is_stmt 0
	movq	$0, (%rax)
	movq	-48(%rbp), %rdx
	movq	-40(%rbp), %rcx
	movq	%rdx, 8(%rax)
	movq	%rcx, 16(%rax)
	.loc	17 716 9 is_stmt 1
	jmp	LBB136_6
LBB136_2:
	.loc	17 0 9 is_stmt 0
	movq	-96(%rbp), %rdi
	.loc	17 717 57 is_stmt 1
	movq	%rdi, %rsi
	addq	$1, %rsi
	.loc	17 717 24 is_stmt 0
	callq	__ZN46_$LT$i8$u20$as$u20$core..iter..range..Step$GT$13steps_between17h3f1dfc229f9a2aeaE
	movq	%rax, -112(%rbp)
	movq	%rdx, -104(%rbp)
	movq	%rax, -24(%rbp)
	movq	%rdx, -16(%rbp)
Ltmp510:
	.loc	17 718 14 is_stmt 1
	movq	%rax, -64(%rbp)
	movq	%rdx, -56(%rbp)
Ltmp511:
	.loc	14 848 9
	cmpq	$0, -64(%rbp)
	jne	LBB136_4
	.loc	14 850 21
	movq	$-1, -72(%rbp)
	jmp	LBB136_5
LBB136_4:
	.loc	14 849 18
	movq	-56(%rbp), %rax
	movq	%rax, -8(%rbp)
Ltmp512:
	.loc	14 849 24 is_stmt 0
	movq	%rax, -72(%rbp)
Ltmp513:
LBB136_5:
	.loc	14 0 24
	movq	-88(%rbp), %rax
	movq	-104(%rbp), %rcx
	movq	-112(%rbp), %rdx
	.loc	17 718 13 is_stmt 1
	movq	-72(%rbp), %rsi
	movq	%rsi, (%rax)
	movq	%rdx, 8(%rax)
	movq	%rcx, 16(%rax)
Ltmp514:
LBB136_6:
	.loc	17 0 13 is_stmt 0
	movq	-80(%rbp), %rax
	.loc	17 722 6 is_stmt 1
	addq	$112, %rsp
	popq	%rbp
	retq
Ltmp515:
Lfunc_end136:
	.cfi_endproc

	.globl	__ZN4core4iter5range101_$LT$impl$u20$core..iter..traits..iterator..Iterator$u20$for$u20$core..ops..range..Range$LT$A$GT$$GT$9size_hint17heaf3ddbec49626b0E
	.p2align	4, 0x90
__ZN4core4iter5range101_$LT$impl$u20$core..iter..traits..iterator..Iterator$u20$for$u20$core..ops..range..Range$LT$A$GT$$GT$9size_hint17heaf3ddbec49626b0E:
Lfunc_begin137:
	.loc	17 715 0
	.cfi_startproc
	pushq	%rbp
	.cfi_def_cfa_offset 16
	.cfi_offset %rbp, -16
	movq	%rsp, %rbp
	.cfi_def_cfa_register %rbp
	subq	$112, %rsp
	movq	%rsi, -96(%rbp)
	movq	%rdi, %rax
	movq	-96(%rbp), %rdi
	movq	%rax, -88(%rbp)
	movq	%rax, -80(%rbp)
	movq	%rdi, -32(%rbp)
Ltmp516:
	.loc	17 716 25 prologue_end
	movq	%rdi, %rsi
	addq	$4, %rsi
	.loc	17 716 12 is_stmt 0
	callq	__ZN4core3cmp5impls55_$LT$impl$u20$core..cmp..PartialOrd$u20$for$u20$i32$GT$2lt17hd2eede0f30e013c2E
	testb	$1, %al
	jne	LBB137_2
	.loc	17 0 12
	movq	-88(%rbp), %rax
	.loc	17 720 17 is_stmt 1
	movq	$0, -40(%rbp)
	movq	$1, -48(%rbp)
	.loc	17 720 13 is_stmt 0
	movq	$0, (%rax)
	movq	-48(%rbp), %rdx
	movq	-40(%rbp), %rcx
	movq	%rdx, 8(%rax)
	movq	%rcx, 16(%rax)
	.loc	17 716 9 is_stmt 1
	jmp	LBB137_6
LBB137_2:
	.loc	17 0 9 is_stmt 0
	movq	-96(%rbp), %rdi
	.loc	17 717 57 is_stmt 1
	movq	%rdi, %rsi
	addq	$4, %rsi
	.loc	17 717 24 is_stmt 0
	callq	__ZN47_$LT$i32$u20$as$u20$core..iter..range..Step$GT$13steps_between17ha670cc88351e9f48E
	movq	%rax, -112(%rbp)
	movq	%rdx, -104(%rbp)
	movq	%rax, -24(%rbp)
	movq	%rdx, -16(%rbp)
Ltmp517:
	.loc	17 718 14 is_stmt 1
	movq	%rax, -64(%rbp)
	movq	%rdx, -56(%rbp)
Ltmp518:
	.loc	14 848 9
	cmpq	$0, -64(%rbp)
	jne	LBB137_4
	.loc	14 850 21
	movq	$-1, -72(%rbp)
	jmp	LBB137_5
LBB137_4:
	.loc	14 849 18
	movq	-56(%rbp), %rax
	movq	%rax, -8(%rbp)
Ltmp519:
	.loc	14 849 24 is_stmt 0
	movq	%rax, -72(%rbp)
Ltmp520:
LBB137_5:
	.loc	14 0 24
	movq	-88(%rbp), %rax
	movq	-104(%rbp), %rcx
	movq	-112(%rbp), %rdx
	.loc	17 718 13 is_stmt 1
	movq	-72(%rbp), %rsi
	movq	%rsi, (%rax)
	movq	%rdx, 8(%rax)
	movq	%rcx, 16(%rax)
Ltmp521:
LBB137_6:
	.loc	17 0 13 is_stmt 0
	movq	-80(%rbp), %rax
	.loc	17 722 6 is_stmt 1
	addq	$112, %rsp
	popq	%rbp
	retq
Ltmp522:
Lfunc_end137:
	.cfi_endproc

	.globl	__ZN4core4iter5range101_$LT$impl$u20$core..iter..traits..iterator..Iterator$u20$for$u20$core..ops..range..Range$LT$A$GT$$GT$9size_hint17hfe82c52708583b9dE
	.p2align	4, 0x90
__ZN4core4iter5range101_$LT$impl$u20$core..iter..traits..iterator..Iterator$u20$for$u20$core..ops..range..Range$LT$A$GT$$GT$9size_hint17hfe82c52708583b9dE:
Lfunc_begin138:
	.loc	17 715 0
	.cfi_startproc
	pushq	%rbp
	.cfi_def_cfa_offset 16
	.cfi_offset %rbp, -16
	movq	%rsp, %rbp
	.cfi_def_cfa_register %rbp
	subq	$112, %rsp
	movq	%rsi, -96(%rbp)
	movq	%rdi, %rax
	movq	-96(%rbp), %rdi
	movq	%rax, -88(%rbp)
	movq	%rax, -80(%rbp)
	movq	%rdi, -32(%rbp)
Ltmp523:
	.loc	17 716 25 prologue_end
	movq	%rdi, %rsi
	addq	$8, %rsi
	.loc	17 716 12 is_stmt 0
	callq	__ZN4core3cmp5impls57_$LT$impl$u20$core..cmp..PartialOrd$u20$for$u20$isize$GT$2lt17hb7d7373cf87d538fE
	testb	$1, %al
	jne	LBB138_2
	.loc	17 0 12
	movq	-88(%rbp), %rax
	.loc	17 720 17 is_stmt 1
	movq	$0, -40(%rbp)
	movq	$1, -48(%rbp)
	.loc	17 720 13 is_stmt 0
	movq	$0, (%rax)
	movq	-48(%rbp), %rdx
	movq	-40(%rbp), %rcx
	movq	%rdx, 8(%rax)
	movq	%rcx, 16(%rax)
	.loc	17 716 9 is_stmt 1
	jmp	LBB138_6
LBB138_2:
	.loc	17 0 9 is_stmt 0
	movq	-96(%rbp), %rdi
	.loc	17 717 57 is_stmt 1
	movq	%rdi, %rsi
	addq	$8, %rsi
	.loc	17 717 24 is_stmt 0
	callq	__ZN49_$LT$isize$u20$as$u20$core..iter..range..Step$GT$13steps_between17hc52c6eb58c78d14aE
	movq	%rax, -112(%rbp)
	movq	%rdx, -104(%rbp)
	movq	%rax, -24(%rbp)
	movq	%rdx, -16(%rbp)
Ltmp524:
	.loc	17 718 14 is_stmt 1
	movq	%rax, -64(%rbp)
	movq	%rdx, -56(%rbp)
Ltmp525:
	.loc	14 848 9
	cmpq	$0, -64(%rbp)
	jne	LBB138_4
	.loc	14 850 21
	movq	$-1, -72(%rbp)
	jmp	LBB138_5
LBB138_4:
	.loc	14 849 18
	movq	-56(%rbp), %rax
	movq	%rax, -8(%rbp)
Ltmp526:
	.loc	14 849 24 is_stmt 0
	movq	%rax, -72(%rbp)
Ltmp527:
LBB138_5:
	.loc	14 0 24
	movq	-88(%rbp), %rax
	movq	-104(%rbp), %rcx
	movq	-112(%rbp), %rdx
	.loc	17 718 13 is_stmt 1
	movq	-72(%rbp), %rsi
	movq	%rsi, (%rax)
	movq	%rdx, 8(%rax)
	movq	%rcx, 16(%rax)
Ltmp528:
LBB138_6:
	.loc	17 0 13 is_stmt 0
	movq	-80(%rbp), %rax
	.loc	17 722 6 is_stmt 1
	addq	$112, %rsp
	popq	%rbp
	retq
Ltmp529:
Lfunc_end138:
	.cfi_endproc

	.globl	__ZN4core4iter5range110_$LT$impl$u20$core..iter..traits..iterator..Iterator$u20$for$u20$core..ops..range..RangeInclusive$LT$A$GT$$GT$9size_hint17h11f18a1adb0a68c3E
	.p2align	4, 0x90
__ZN4core4iter5range110_$LT$impl$u20$core..iter..traits..iterator..Iterator$u20$for$u20$core..ops..range..RangeInclusive$LT$A$GT$$GT$9size_hint17h11f18a1adb0a68c3E:
Lfunc_begin139:
	.loc	17 1104 0
	.cfi_startproc
	pushq	%rbp
	.cfi_def_cfa_offset 16
	.cfi_offset %rbp, -16
	movq	%rsp, %rbp
	.cfi_def_cfa_register %rbp
	subq	$128, %rsp
	movq	%rsi, -120(%rbp)
	movq	%rdi, -112(%rbp)
	movq	%rdi, -104(%rbp)
	movq	%rsi, -40(%rbp)
Ltmp530:
	.loc	17 1105 12 prologue_end
	movq	%rsi, -32(%rbp)
Ltmp531:
	.loc	22 540 9
	testb	$1, 2(%rsi)
	jne	LBB139_2
	.loc	22 0 9 is_stmt 0
	movq	-120(%rbp), %rdi
	.loc	22 540 43
	movq	%rdi, %rsi
	addq	$1, %rsi
	.loc	22 540 28
	callq	__ZN4core3cmp5impls54_$LT$impl$u20$core..cmp..PartialOrd$u20$for$u20$i8$GT$2le17hf52b99e55104d95fE
	.loc	22 540 27
	xorb	$-1, %al
	.loc	22 540 9
	andb	$1, %al
	movb	%al, -89(%rbp)
	jmp	LBB139_3
LBB139_2:
	movb	$1, -89(%rbp)
Ltmp532:
LBB139_3:
	.loc	17 1105 12 is_stmt 1
	testb	$1, -89(%rbp)
	jne	LBB139_5
	.loc	17 0 12 is_stmt 0
	movq	-120(%rbp), %rdi
	.loc	17 1109 48 is_stmt 1
	movq	%rdi, %rsi
	incq	%rsi
	.loc	17 1109 15 is_stmt 0
	callq	__ZN46_$LT$i8$u20$as$u20$core..iter..range..Step$GT$13steps_between17h3f1dfc229f9a2aeaE
	movq	%rdx, -64(%rbp)
	movq	%rax, -72(%rbp)
	.loc	17 1109 9
	cmpq	$0, -72(%rbp)
	je	LBB139_7
	jmp	LBB139_8
LBB139_5:
	.loc	17 0 9
	movq	-112(%rbp), %rax
	.loc	17 1106 24 is_stmt 1
	movq	$0, -80(%rbp)
	movq	$1, -88(%rbp)
	.loc	17 1106 20 is_stmt 0
	movq	$0, (%rax)
	movq	-88(%rbp), %rdx
	movq	-80(%rbp), %rcx
	movq	%rdx, 8(%rax)
	movq	%rcx, 16(%rax)
LBB139_6:
	.loc	17 0 20
	movq	-104(%rbp), %rax
	.loc	17 1113 6 is_stmt 1
	addq	$128, %rsp
	popq	%rbp
	retq
LBB139_7:
	.loc	17 0 6 is_stmt 0
	movq	-112(%rbp), %rax
	.loc	17 1111 34 is_stmt 1
	movq	$0, -56(%rbp)
	.loc	17 1111 21 is_stmt 0
	movq	$-1, (%rax)
	movq	-56(%rbp), %rdx
	movq	-48(%rbp), %rcx
	movq	%rdx, 8(%rax)
	movq	%rcx, 16(%rax)
	.loc	17 1111 38
	jmp	LBB139_9
LBB139_8:
	.loc	17 1110 18 is_stmt 1
	movq	-64(%rbp), %rdi
	movq	%rdi, -24(%rbp)
Ltmp533:
	.loc	17 1110 28 is_stmt 0
	movq	%rdi, -16(%rbp)
Ltmp534:
	.loc	21 1022 13 is_stmt 1
	movq	%rdi, %rax
	incq	%rax
	movq	$-1, %rcx
	cmoveq	%rcx, %rax
	movq	%rax, -8(%rbp)
	movq	-8(%rbp), %rax
	movq	%rax, -128(%rbp)
Ltmp535:
	.loc	17 1110 52
	movl	$1, %esi
	callq	__ZN4core3num23_$LT$impl$u20$usize$GT$11checked_add17h574c4e36cf9f7707E
	movq	-128(%rbp), %rsi
	movq	%rax, %rcx
	movq	-112(%rbp), %rax
	.loc	17 1110 27 is_stmt 0
	movq	%rsi, (%rax)
	movq	%rcx, 8(%rax)
	movq	%rdx, 16(%rax)
Ltmp536:
LBB139_9:
	.loc	17 1113 6 is_stmt 1
	jmp	LBB139_6
Ltmp537:
Lfunc_end139:
	.cfi_endproc

	.globl	__ZN4core4iter5range110_$LT$impl$u20$core..iter..traits..iterator..Iterator$u20$for$u20$core..ops..range..RangeInclusive$LT$A$GT$$GT$9size_hint17h243f848128f88018E
	.p2align	4, 0x90
__ZN4core4iter5range110_$LT$impl$u20$core..iter..traits..iterator..Iterator$u20$for$u20$core..ops..range..RangeInclusive$LT$A$GT$$GT$9size_hint17h243f848128f88018E:
Lfunc_begin140:
	.loc	17 1104 0
	.cfi_startproc
	pushq	%rbp
	.cfi_def_cfa_offset 16
	.cfi_offset %rbp, -16
	movq	%rsp, %rbp
	.cfi_def_cfa_register %rbp
	subq	$128, %rsp
	movq	%rsi, -120(%rbp)
	movq	%rdi, -112(%rbp)
	movq	%rdi, -104(%rbp)
	movq	%rsi, -40(%rbp)
Ltmp538:
	.loc	17 1105 12 prologue_end
	movq	%rsi, -32(%rbp)
Ltmp539:
	.loc	22 540 9
	testb	$1, 4(%rsi)
	jne	LBB140_2
	.loc	22 0 9 is_stmt 0
	movq	-120(%rbp), %rdi
	.loc	22 540 43
	movq	%rdi, %rsi
	addq	$2, %rsi
	.loc	22 540 28
	callq	__ZN4core3cmp5impls55_$LT$impl$u20$core..cmp..PartialOrd$u20$for$u20$i16$GT$2le17h5de2fb1e0dd9267aE
	.loc	22 540 27
	xorb	$-1, %al
	.loc	22 540 9
	andb	$1, %al
	movb	%al, -89(%rbp)
	jmp	LBB140_3
LBB140_2:
	movb	$1, -89(%rbp)
Ltmp540:
LBB140_3:
	.loc	17 1105 12 is_stmt 1
	testb	$1, -89(%rbp)
	jne	LBB140_5
	.loc	17 0 12 is_stmt 0
	movq	-120(%rbp), %rdi
	.loc	17 1109 48 is_stmt 1
	movq	%rdi, %rsi
	addq	$2, %rsi
	.loc	17 1109 15 is_stmt 0
	callq	__ZN47_$LT$i16$u20$as$u20$core..iter..range..Step$GT$13steps_between17h5c8e0fec188e3b78E
	movq	%rdx, -64(%rbp)
	movq	%rax, -72(%rbp)
	.loc	17 1109 9
	cmpq	$0, -72(%rbp)
	je	LBB140_7
	jmp	LBB140_8
LBB140_5:
	.loc	17 0 9
	movq	-112(%rbp), %rax
	.loc	17 1106 24 is_stmt 1
	movq	$0, -80(%rbp)
	movq	$1, -88(%rbp)
	.loc	17 1106 20 is_stmt 0
	movq	$0, (%rax)
	movq	-88(%rbp), %rdx
	movq	-80(%rbp), %rcx
	movq	%rdx, 8(%rax)
	movq	%rcx, 16(%rax)
LBB140_6:
	.loc	17 0 20
	movq	-104(%rbp), %rax
	.loc	17 1113 6 is_stmt 1
	addq	$128, %rsp
	popq	%rbp
	retq
LBB140_7:
	.loc	17 0 6 is_stmt 0
	movq	-112(%rbp), %rax
	.loc	17 1111 34 is_stmt 1
	movq	$0, -56(%rbp)
	.loc	17 1111 21 is_stmt 0
	movq	$-1, (%rax)
	movq	-56(%rbp), %rdx
	movq	-48(%rbp), %rcx
	movq	%rdx, 8(%rax)
	movq	%rcx, 16(%rax)
	.loc	17 1111 38
	jmp	LBB140_9
LBB140_8:
	.loc	17 1110 18 is_stmt 1
	movq	-64(%rbp), %rdi
	movq	%rdi, -24(%rbp)
Ltmp541:
	.loc	17 1110 28 is_stmt 0
	movq	%rdi, -16(%rbp)
Ltmp542:
	.loc	21 1022 13 is_stmt 1
	movq	%rdi, %rax
	incq	%rax
	movq	$-1, %rcx
	cmoveq	%rcx, %rax
	movq	%rax, -8(%rbp)
	movq	-8(%rbp), %rax
	movq	%rax, -128(%rbp)
Ltmp543:
	.loc	17 1110 52
	movl	$1, %esi
	callq	__ZN4core3num23_$LT$impl$u20$usize$GT$11checked_add17h574c4e36cf9f7707E
	movq	-128(%rbp), %rsi
	movq	%rax, %rcx
	movq	-112(%rbp), %rax
	.loc	17 1110 27 is_stmt 0
	movq	%rsi, (%rax)
	movq	%rcx, 8(%rax)
	movq	%rdx, 16(%rax)
Ltmp544:
LBB140_9:
	.loc	17 1113 6 is_stmt 1
	jmp	LBB140_6
Ltmp545:
Lfunc_end140:
	.cfi_endproc

	.globl	__ZN4core4iter5range110_$LT$impl$u20$core..iter..traits..iterator..Iterator$u20$for$u20$core..ops..range..RangeInclusive$LT$A$GT$$GT$9size_hint17hc7e04d832a0cb604E
	.p2align	4, 0x90
__ZN4core4iter5range110_$LT$impl$u20$core..iter..traits..iterator..Iterator$u20$for$u20$core..ops..range..RangeInclusive$LT$A$GT$$GT$9size_hint17hc7e04d832a0cb604E:
Lfunc_begin141:
	.loc	17 1104 0
	.cfi_startproc
	pushq	%rbp
	.cfi_def_cfa_offset 16
	.cfi_offset %rbp, -16
	movq	%rsp, %rbp
	.cfi_def_cfa_register %rbp
	subq	$128, %rsp
	movq	%rsi, -120(%rbp)
	movq	%rdi, -112(%rbp)
	movq	%rdi, -104(%rbp)
	movq	%rsi, -40(%rbp)
Ltmp546:
	.loc	17 1105 12 prologue_end
	movq	%rsi, -32(%rbp)
Ltmp547:
	.loc	22 540 9
	testb	$1, 4(%rsi)
	jne	LBB141_2
	.loc	22 0 9 is_stmt 0
	movq	-120(%rbp), %rdi
	.loc	22 540 43
	movq	%rdi, %rsi
	addq	$2, %rsi
	.loc	22 540 28
	callq	__ZN4core3cmp5impls55_$LT$impl$u20$core..cmp..PartialOrd$u20$for$u20$u16$GT$2le17h306442623df081e6E
	.loc	22 540 27
	xorb	$-1, %al
	.loc	22 540 9
	andb	$1, %al
	movb	%al, -89(%rbp)
	jmp	LBB141_3
LBB141_2:
	movb	$1, -89(%rbp)
Ltmp548:
LBB141_3:
	.loc	17 1105 12 is_stmt 1
	testb	$1, -89(%rbp)
	jne	LBB141_5
	.loc	17 0 12 is_stmt 0
	movq	-120(%rbp), %rdi
	.loc	17 1109 48 is_stmt 1
	movq	%rdi, %rsi
	addq	$2, %rsi
	.loc	17 1109 15 is_stmt 0
	callq	__ZN47_$LT$u16$u20$as$u20$core..iter..range..Step$GT$13steps_between17h28c8862a74c6a228E
	movq	%rdx, -64(%rbp)
	movq	%rax, -72(%rbp)
	.loc	17 1109 9
	cmpq	$0, -72(%rbp)
	je	LBB141_7
	jmp	LBB141_8
LBB141_5:
	.loc	17 0 9
	movq	-112(%rbp), %rax
	.loc	17 1106 24 is_stmt 1
	movq	$0, -80(%rbp)
	movq	$1, -88(%rbp)
	.loc	17 1106 20 is_stmt 0
	movq	$0, (%rax)
	movq	-88(%rbp), %rdx
	movq	-80(%rbp), %rcx
	movq	%rdx, 8(%rax)
	movq	%rcx, 16(%rax)
LBB141_6:
	.loc	17 0 20
	movq	-104(%rbp), %rax
	.loc	17 1113 6 is_stmt 1
	addq	$128, %rsp
	popq	%rbp
	retq
LBB141_7:
	.loc	17 0 6 is_stmt 0
	movq	-112(%rbp), %rax
	.loc	17 1111 34 is_stmt 1
	movq	$0, -56(%rbp)
	.loc	17 1111 21 is_stmt 0
	movq	$-1, (%rax)
	movq	-56(%rbp), %rdx
	movq	-48(%rbp), %rcx
	movq	%rdx, 8(%rax)
	movq	%rcx, 16(%rax)
	.loc	17 1111 38
	jmp	LBB141_9
LBB141_8:
	.loc	17 1110 18 is_stmt 1
	movq	-64(%rbp), %rdi
	movq	%rdi, -24(%rbp)
Ltmp549:
	.loc	17 1110 28 is_stmt 0
	movq	%rdi, -16(%rbp)
Ltmp550:
	.loc	21 1022 13 is_stmt 1
	movq	%rdi, %rax
	incq	%rax
	movq	$-1, %rcx
	cmoveq	%rcx, %rax
	movq	%rax, -8(%rbp)
	movq	-8(%rbp), %rax
	movq	%rax, -128(%rbp)
Ltmp551:
	.loc	17 1110 52
	movl	$1, %esi
	callq	__ZN4core3num23_$LT$impl$u20$usize$GT$11checked_add17h574c4e36cf9f7707E
	movq	-128(%rbp), %rsi
	movq	%rax, %rcx
	movq	-112(%rbp), %rax
	.loc	17 1110 27 is_stmt 0
	movq	%rsi, (%rax)
	movq	%rcx, 8(%rax)
	movq	%rdx, 16(%rax)
Ltmp552:
LBB141_9:
	.loc	17 1113 6 is_stmt 1
	jmp	LBB141_6
Ltmp553:
Lfunc_end141:
	.cfi_endproc

	.globl	__ZN4core4iter5range110_$LT$impl$u20$core..iter..traits..iterator..Iterator$u20$for$u20$core..ops..range..RangeInclusive$LT$A$GT$$GT$9size_hint17he30ca95b98b6dfb0E
	.p2align	4, 0x90
__ZN4core4iter5range110_$LT$impl$u20$core..iter..traits..iterator..Iterator$u20$for$u20$core..ops..range..RangeInclusive$LT$A$GT$$GT$9size_hint17he30ca95b98b6dfb0E:
Lfunc_begin142:
	.loc	17 1104 0
	.cfi_startproc
	pushq	%rbp
	.cfi_def_cfa_offset 16
	.cfi_offset %rbp, -16
	movq	%rsp, %rbp
	.cfi_def_cfa_register %rbp
	subq	$128, %rsp
	movq	%rsi, -120(%rbp)
	movq	%rdi, -112(%rbp)
	movq	%rdi, -104(%rbp)
	movq	%rsi, -40(%rbp)
Ltmp554:
	.loc	17 1105 12 prologue_end
	movq	%rsi, -32(%rbp)
Ltmp555:
	.loc	22 540 9
	testb	$1, 2(%rsi)
	jne	LBB142_2
	.loc	22 0 9 is_stmt 0
	movq	-120(%rbp), %rdi
	.loc	22 540 43
	movq	%rdi, %rsi
	addq	$1, %rsi
	.loc	22 540 28
	callq	__ZN4core3cmp5impls54_$LT$impl$u20$core..cmp..PartialOrd$u20$for$u20$u8$GT$2le17h55e4a0a5d8757d93E
	.loc	22 540 27
	xorb	$-1, %al
	.loc	22 540 9
	andb	$1, %al
	movb	%al, -89(%rbp)
	jmp	LBB142_3
LBB142_2:
	movb	$1, -89(%rbp)
Ltmp556:
LBB142_3:
	.loc	17 1105 12 is_stmt 1
	testb	$1, -89(%rbp)
	jne	LBB142_5
	.loc	17 0 12 is_stmt 0
	movq	-120(%rbp), %rdi
	.loc	17 1109 48 is_stmt 1
	movq	%rdi, %rsi
	incq	%rsi
	.loc	17 1109 15 is_stmt 0
	callq	__ZN46_$LT$u8$u20$as$u20$core..iter..range..Step$GT$13steps_between17h44beb3186fb70d8fE
	movq	%rdx, -64(%rbp)
	movq	%rax, -72(%rbp)
	.loc	17 1109 9
	cmpq	$0, -72(%rbp)
	je	LBB142_7
	jmp	LBB142_8
LBB142_5:
	.loc	17 0 9
	movq	-112(%rbp), %rax
	.loc	17 1106 24 is_stmt 1
	movq	$0, -80(%rbp)
	movq	$1, -88(%rbp)
	.loc	17 1106 20 is_stmt 0
	movq	$0, (%rax)
	movq	-88(%rbp), %rdx
	movq	-80(%rbp), %rcx
	movq	%rdx, 8(%rax)
	movq	%rcx, 16(%rax)
LBB142_6:
	.loc	17 0 20
	movq	-104(%rbp), %rax
	.loc	17 1113 6 is_stmt 1
	addq	$128, %rsp
	popq	%rbp
	retq
LBB142_7:
	.loc	17 0 6 is_stmt 0
	movq	-112(%rbp), %rax
	.loc	17 1111 34 is_stmt 1
	movq	$0, -56(%rbp)
	.loc	17 1111 21 is_stmt 0
	movq	$-1, (%rax)
	movq	-56(%rbp), %rdx
	movq	-48(%rbp), %rcx
	movq	%rdx, 8(%rax)
	movq	%rcx, 16(%rax)
	.loc	17 1111 38
	jmp	LBB142_9
LBB142_8:
	.loc	17 1110 18 is_stmt 1
	movq	-64(%rbp), %rdi
	movq	%rdi, -24(%rbp)
Ltmp557:
	.loc	17 1110 28 is_stmt 0
	movq	%rdi, -16(%rbp)
Ltmp558:
	.loc	21 1022 13 is_stmt 1
	movq	%rdi, %rax
	incq	%rax
	movq	$-1, %rcx
	cmoveq	%rcx, %rax
	movq	%rax, -8(%rbp)
	movq	-8(%rbp), %rax
	movq	%rax, -128(%rbp)
Ltmp559:
	.loc	17 1110 52
	movl	$1, %esi
	callq	__ZN4core3num23_$LT$impl$u20$usize$GT$11checked_add17h574c4e36cf9f7707E
	movq	-128(%rbp), %rsi
	movq	%rax, %rcx
	movq	-112(%rbp), %rax
	.loc	17 1110 27 is_stmt 0
	movq	%rsi, (%rax)
	movq	%rcx, 8(%rax)
	movq	%rdx, 16(%rax)
Ltmp560:
LBB142_9:
	.loc	17 1113 6 is_stmt 1
	jmp	LBB142_6
Ltmp561:
Lfunc_end142:
	.cfi_endproc

	.globl	__ZN4core4iter6traits10exact_size17ExactSizeIterator3len17h12cacc41a3370d8cE
	.p2align	4, 0x90
__ZN4core4iter6traits10exact_size17ExactSizeIterator3len17h12cacc41a3370d8cE:
Lfunc_begin143:
	.file	31 "/rustc/2c8cc343237b8f7d5a3c3703e3a87f2eb2c54a74/library/core/src/iter/traits" "exact_size.rs"
	.loc	31 106 0
	.cfi_startproc
	pushq	%rbp
	.cfi_def_cfa_offset 16
	.cfi_offset %rbp, -16
	movq	%rsp, %rbp
	.cfi_def_cfa_register %rbp
	subq	$192, %rsp
	movq	%rdi, %rsi
	movq	%rsi, -48(%rbp)
Ltmp562:
	.loc	31 107 30 prologue_end
	leaq	-152(%rbp), %rdi
	callq	__ZN4core4iter5range101_$LT$impl$u20$core..iter..traits..iterator..Iterator$u20$for$u20$core..ops..range..Range$LT$A$GT$$GT$9size_hint17h6aa256a8ee50bb97E
	.loc	31 107 14 is_stmt 0
	movq	-152(%rbp), %rax
	movq	%rax, -192(%rbp)
	movq	%rax, -40(%rbp)
	.loc	31 107 21
	movq	-144(%rbp), %rdx
	movq	-136(%rbp), %rcx
	movq	%rdx, -168(%rbp)
	movq	%rcx, -160(%rbp)
Ltmp563:
	.loc	31 112 27 is_stmt 1
	movq	%rax, -104(%rbp)
	movq	$1, -112(%rbp)
	.loc	31 112 9 is_stmt 0
	leaq	-168(%rbp), %rax
	movq	%rax, -128(%rbp)
	leaq	-112(%rbp), %rax
	movq	%rax, -120(%rbp)
	movq	-128(%rbp), %rdi
	movq	%rdi, -184(%rbp)
	movq	%rdi, -32(%rbp)
	movq	-120(%rbp), %rsi
	movq	%rsi, -176(%rbp)
	movq	%rsi, -24(%rbp)
Ltmp564:
	.loc	31 112 9
	movq	%rdi, -16(%rbp)
	movq	%rsi, -8(%rbp)
Ltmp565:
	.loc	14 2089 9 is_stmt 1
	callq	__ZN55_$LT$T$u20$as$u20$core..option..SpecOptionPartialEq$GT$2eq17h458d6bb13bd1d8eeE
Ltmp566:
	.loc	31 112 9
	xorb	$-1, %al
	testb	$1, %al
	jne	LBB143_2
Ltmp567:
	.loc	31 0 9 is_stmt 0
	movq	-192(%rbp), %rax
	.loc	31 114 6 is_stmt 1
	addq	$192, %rsp
	popq	%rbp
	retq
LBB143_2:
	.loc	31 0 6 is_stmt 0
	movq	-176(%rbp), %rdx
	movq	-184(%rbp), %rsi
Ltmp568:
	.loc	31 112 9 is_stmt 1
	movq	$0, -80(%rbp)
	leaq	l___unnamed_13(%rip), %r8
	xorl	%edi, %edi
	leaq	-96(%rbp), %rcx
	callq	__ZN4core9panicking13assert_failed17h9531cfd33793eb18E
Ltmp569:
Lfunc_end143:
	.cfi_endproc

	.globl	__ZN4core4iter6traits10exact_size17ExactSizeIterator3len17h1dbc7ba84e8da138E
	.p2align	4, 0x90
__ZN4core4iter6traits10exact_size17ExactSizeIterator3len17h1dbc7ba84e8da138E:
Lfunc_begin144:
	.loc	31 106 0
	.cfi_startproc
	pushq	%rbp
	.cfi_def_cfa_offset 16
	.cfi_offset %rbp, -16
	movq	%rsp, %rbp
	.cfi_def_cfa_register %rbp
	subq	$192, %rsp
	movq	%rdi, %rsi
	movq	%rsi, -48(%rbp)
Ltmp570:
	.loc	31 107 30 prologue_end
	leaq	-152(%rbp), %rdi
	callq	__ZN4core4iter5range101_$LT$impl$u20$core..iter..traits..iterator..Iterator$u20$for$u20$core..ops..range..Range$LT$A$GT$$GT$9size_hint17hfe82c52708583b9dE
	.loc	31 107 14 is_stmt 0
	movq	-152(%rbp), %rax
	movq	%rax, -192(%rbp)
	movq	%rax, -40(%rbp)
	.loc	31 107 21
	movq	-144(%rbp), %rdx
	movq	-136(%rbp), %rcx
	movq	%rdx, -168(%rbp)
	movq	%rcx, -160(%rbp)
Ltmp571:
	.loc	31 112 27 is_stmt 1
	movq	%rax, -104(%rbp)
	movq	$1, -112(%rbp)
	.loc	31 112 9 is_stmt 0
	leaq	-168(%rbp), %rax
	movq	%rax, -128(%rbp)
	leaq	-112(%rbp), %rax
	movq	%rax, -120(%rbp)
	movq	-128(%rbp), %rdi
	movq	%rdi, -184(%rbp)
	movq	%rdi, -32(%rbp)
	movq	-120(%rbp), %rsi
	movq	%rsi, -176(%rbp)
	movq	%rsi, -24(%rbp)
Ltmp572:
	.loc	31 112 9
	movq	%rdi, -16(%rbp)
	movq	%rsi, -8(%rbp)
Ltmp573:
	.loc	14 2089 9 is_stmt 1
	callq	__ZN55_$LT$T$u20$as$u20$core..option..SpecOptionPartialEq$GT$2eq17h458d6bb13bd1d8eeE
Ltmp574:
	.loc	31 112 9
	xorb	$-1, %al
	testb	$1, %al
	jne	LBB144_2
Ltmp575:
	.loc	31 0 9 is_stmt 0
	movq	-192(%rbp), %rax
	.loc	31 114 6 is_stmt 1
	addq	$192, %rsp
	popq	%rbp
	retq
LBB144_2:
	.loc	31 0 6 is_stmt 0
	movq	-176(%rbp), %rdx
	movq	-184(%rbp), %rsi
Ltmp576:
	.loc	31 112 9 is_stmt 1
	movq	$0, -80(%rbp)
	leaq	l___unnamed_13(%rip), %r8
	xorl	%edi, %edi
	leaq	-96(%rbp), %rcx
	callq	__ZN4core9panicking13assert_failed17h9531cfd33793eb18E
Ltmp577:
Lfunc_end144:
	.cfi_endproc

	.globl	__ZN4core4iter6traits10exact_size17ExactSizeIterator3len17h317f184c689ba7d4E
	.p2align	4, 0x90
__ZN4core4iter6traits10exact_size17ExactSizeIterator3len17h317f184c689ba7d4E:
Lfunc_begin145:
	.loc	31 106 0
	.cfi_startproc
	pushq	%rbp
	.cfi_def_cfa_offset 16
	.cfi_offset %rbp, -16
	movq	%rsp, %rbp
	.cfi_def_cfa_register %rbp
	subq	$192, %rsp
	movq	%rdi, %rsi
	movq	%rsi, -48(%rbp)
Ltmp578:
	.loc	31 107 30 prologue_end
	leaq	-152(%rbp), %rdi
	callq	__ZN4core4iter5range101_$LT$impl$u20$core..iter..traits..iterator..Iterator$u20$for$u20$core..ops..range..Range$LT$A$GT$$GT$9size_hint17h7a0ab0825a2a711eE
	.loc	31 107 14 is_stmt 0
	movq	-152(%rbp), %rax
	movq	%rax, -192(%rbp)
	movq	%rax, -40(%rbp)
	.loc	31 107 21
	movq	-144(%rbp), %rdx
	movq	-136(%rbp), %rcx
	movq	%rdx, -168(%rbp)
	movq	%rcx, -160(%rbp)
Ltmp579:
	.loc	31 112 27 is_stmt 1
	movq	%rax, -104(%rbp)
	movq	$1, -112(%rbp)
	.loc	31 112 9 is_stmt 0
	leaq	-168(%rbp), %rax
	movq	%rax, -128(%rbp)
	leaq	-112(%rbp), %rax
	movq	%rax, -120(%rbp)
	movq	-128(%rbp), %rdi
	movq	%rdi, -184(%rbp)
	movq	%rdi, -32(%rbp)
	movq	-120(%rbp), %rsi
	movq	%rsi, -176(%rbp)
	movq	%rsi, -24(%rbp)
Ltmp580:
	.loc	31 112 9
	movq	%rdi, -16(%rbp)
	movq	%rsi, -8(%rbp)
Ltmp581:
	.loc	14 2089 9 is_stmt 1
	callq	__ZN55_$LT$T$u20$as$u20$core..option..SpecOptionPartialEq$GT$2eq17h458d6bb13bd1d8eeE
Ltmp582:
	.loc	31 112 9
	xorb	$-1, %al
	testb	$1, %al
	jne	LBB145_2
Ltmp583:
	.loc	31 0 9 is_stmt 0
	movq	-192(%rbp), %rax
	.loc	31 114 6 is_stmt 1
	addq	$192, %rsp
	popq	%rbp
	retq
LBB145_2:
	.loc	31 0 6 is_stmt 0
	movq	-176(%rbp), %rdx
	movq	-184(%rbp), %rsi
Ltmp584:
	.loc	31 112 9 is_stmt 1
	movq	$0, -80(%rbp)
	leaq	l___unnamed_13(%rip), %r8
	xorl	%edi, %edi
	leaq	-96(%rbp), %rcx
	callq	__ZN4core9panicking13assert_failed17h9531cfd33793eb18E
Ltmp585:
Lfunc_end145:
	.cfi_endproc

	.globl	__ZN4core4iter6traits10exact_size17ExactSizeIterator3len17h45368e173a622c39E
	.p2align	4, 0x90
__ZN4core4iter6traits10exact_size17ExactSizeIterator3len17h45368e173a622c39E:
Lfunc_begin146:
	.loc	31 106 0
	.cfi_startproc
	pushq	%rbp
	.cfi_def_cfa_offset 16
	.cfi_offset %rbp, -16
	movq	%rsp, %rbp
	.cfi_def_cfa_register %rbp
	subq	$192, %rsp
	movq	%rdi, %rsi
	movq	%rsi, -48(%rbp)
Ltmp586:
	.loc	31 107 30 prologue_end
	leaq	-152(%rbp), %rdi
	callq	__ZN4core4iter5range101_$LT$impl$u20$core..iter..traits..iterator..Iterator$u20$for$u20$core..ops..range..Range$LT$A$GT$$GT$9size_hint17ha5f35ce3bd6d6ee5E
	.loc	31 107 14 is_stmt 0
	movq	-152(%rbp), %rax
	movq	%rax, -192(%rbp)
	movq	%rax, -40(%rbp)
	.loc	31 107 21
	movq	-144(%rbp), %rdx
	movq	-136(%rbp), %rcx
	movq	%rdx, -168(%rbp)
	movq	%rcx, -160(%rbp)
Ltmp587:
	.loc	31 112 27 is_stmt 1
	movq	%rax, -104(%rbp)
	movq	$1, -112(%rbp)
	.loc	31 112 9 is_stmt 0
	leaq	-168(%rbp), %rax
	movq	%rax, -128(%rbp)
	leaq	-112(%rbp), %rax
	movq	%rax, -120(%rbp)
	movq	-128(%rbp), %rdi
	movq	%rdi, -184(%rbp)
	movq	%rdi, -32(%rbp)
	movq	-120(%rbp), %rsi
	movq	%rsi, -176(%rbp)
	movq	%rsi, -24(%rbp)
Ltmp588:
	.loc	31 112 9
	movq	%rdi, -16(%rbp)
	movq	%rsi, -8(%rbp)
Ltmp589:
	.loc	14 2089 9 is_stmt 1
	callq	__ZN55_$LT$T$u20$as$u20$core..option..SpecOptionPartialEq$GT$2eq17h458d6bb13bd1d8eeE
Ltmp590:
	.loc	31 112 9
	xorb	$-1, %al
	testb	$1, %al
	jne	LBB146_2
Ltmp591:
	.loc	31 0 9 is_stmt 0
	movq	-192(%rbp), %rax
	.loc	31 114 6 is_stmt 1
	addq	$192, %rsp
	popq	%rbp
	retq
LBB146_2:
	.loc	31 0 6 is_stmt 0
	movq	-176(%rbp), %rdx
	movq	-184(%rbp), %rsi
Ltmp592:
	.loc	31 112 9 is_stmt 1
	movq	$0, -80(%rbp)
	leaq	l___unnamed_13(%rip), %r8
	xorl	%edi, %edi
	leaq	-96(%rbp), %rcx
	callq	__ZN4core9panicking13assert_failed17h9531cfd33793eb18E
Ltmp593:
Lfunc_end146:
	.cfi_endproc

	.globl	__ZN4core4iter6traits10exact_size17ExactSizeIterator3len17h5be5f5670468d842E
	.p2align	4, 0x90
__ZN4core4iter6traits10exact_size17ExactSizeIterator3len17h5be5f5670468d842E:
Lfunc_begin147:
	.loc	31 106 0
	.cfi_startproc
	pushq	%rbp
	.cfi_def_cfa_offset 16
	.cfi_offset %rbp, -16
	movq	%rsp, %rbp
	.cfi_def_cfa_register %rbp
	subq	$192, %rsp
	movq	%rdi, %rsi
	movq	%rsi, -48(%rbp)
Ltmp594:
	.loc	31 107 30 prologue_end
	leaq	-152(%rbp), %rdi
	callq	__ZN4core4iter5range101_$LT$impl$u20$core..iter..traits..iterator..Iterator$u20$for$u20$core..ops..range..Range$LT$A$GT$$GT$9size_hint17ha6831a46e61f06d5E
	.loc	31 107 14 is_stmt 0
	movq	-152(%rbp), %rax
	movq	%rax, -192(%rbp)
	movq	%rax, -40(%rbp)
	.loc	31 107 21
	movq	-144(%rbp), %rdx
	movq	-136(%rbp), %rcx
	movq	%rdx, -168(%rbp)
	movq	%rcx, -160(%rbp)
Ltmp595:
	.loc	31 112 27 is_stmt 1
	movq	%rax, -104(%rbp)
	movq	$1, -112(%rbp)
	.loc	31 112 9 is_stmt 0
	leaq	-168(%rbp), %rax
	movq	%rax, -128(%rbp)
	leaq	-112(%rbp), %rax
	movq	%rax, -120(%rbp)
	movq	-128(%rbp), %rdi
	movq	%rdi, -184(%rbp)
	movq	%rdi, -32(%rbp)
	movq	-120(%rbp), %rsi
	movq	%rsi, -176(%rbp)
	movq	%rsi, -24(%rbp)
Ltmp596:
	.loc	31 112 9
	movq	%rdi, -16(%rbp)
	movq	%rsi, -8(%rbp)
Ltmp597:
	.loc	14 2089 9 is_stmt 1
	callq	__ZN55_$LT$T$u20$as$u20$core..option..SpecOptionPartialEq$GT$2eq17h458d6bb13bd1d8eeE
Ltmp598:
	.loc	31 112 9
	xorb	$-1, %al
	testb	$1, %al
	jne	LBB147_2
Ltmp599:
	.loc	31 0 9 is_stmt 0
	movq	-192(%rbp), %rax
	.loc	31 114 6 is_stmt 1
	addq	$192, %rsp
	popq	%rbp
	retq
LBB147_2:
	.loc	31 0 6 is_stmt 0
	movq	-176(%rbp), %rdx
	movq	-184(%rbp), %rsi
Ltmp600:
	.loc	31 112 9 is_stmt 1
	movq	$0, -80(%rbp)
	leaq	l___unnamed_13(%rip), %r8
	xorl	%edi, %edi
	leaq	-96(%rbp), %rcx
	callq	__ZN4core9panicking13assert_failed17h9531cfd33793eb18E
Ltmp601:
Lfunc_end147:
	.cfi_endproc

	.globl	__ZN4core4iter6traits10exact_size17ExactSizeIterator3len17h791232c81ec28800E
	.p2align	4, 0x90
__ZN4core4iter6traits10exact_size17ExactSizeIterator3len17h791232c81ec28800E:
Lfunc_begin148:
	.loc	31 106 0
	.cfi_startproc
	pushq	%rbp
	.cfi_def_cfa_offset 16
	.cfi_offset %rbp, -16
	movq	%rsp, %rbp
	.cfi_def_cfa_register %rbp
	subq	$192, %rsp
	movq	%rdi, %rsi
	movq	%rsi, -48(%rbp)
Ltmp602:
	.loc	31 107 30 prologue_end
	leaq	-152(%rbp), %rdi
	callq	__ZN4core4iter5range110_$LT$impl$u20$core..iter..traits..iterator..Iterator$u20$for$u20$core..ops..range..RangeInclusive$LT$A$GT$$GT$9size_hint17he30ca95b98b6dfb0E
	.loc	31 107 14 is_stmt 0
	movq	-152(%rbp), %rax
	movq	%rax, -192(%rbp)
	movq	%rax, -40(%rbp)
	.loc	31 107 21
	movq	-144(%rbp), %rdx
	movq	-136(%rbp), %rcx
	movq	%rdx, -168(%rbp)
	movq	%rcx, -160(%rbp)
Ltmp603:
	.loc	31 112 27 is_stmt 1
	movq	%rax, -104(%rbp)
	movq	$1, -112(%rbp)
	.loc	31 112 9 is_stmt 0
	leaq	-168(%rbp), %rax
	movq	%rax, -128(%rbp)
	leaq	-112(%rbp), %rax
	movq	%rax, -120(%rbp)
	movq	-128(%rbp), %rdi
	movq	%rdi, -184(%rbp)
	movq	%rdi, -32(%rbp)
	movq	-120(%rbp), %rsi
	movq	%rsi, -176(%rbp)
	movq	%rsi, -24(%rbp)
Ltmp604:
	.loc	31 112 9
	movq	%rdi, -16(%rbp)
	movq	%rsi, -8(%rbp)
Ltmp605:
	.loc	14 2089 9 is_stmt 1
	callq	__ZN55_$LT$T$u20$as$u20$core..option..SpecOptionPartialEq$GT$2eq17h458d6bb13bd1d8eeE
Ltmp606:
	.loc	31 112 9
	xorb	$-1, %al
	testb	$1, %al
	jne	LBB148_2
Ltmp607:
	.loc	31 0 9 is_stmt 0
	movq	-192(%rbp), %rax
	.loc	31 114 6 is_stmt 1
	addq	$192, %rsp
	popq	%rbp
	retq
LBB148_2:
	.loc	31 0 6 is_stmt 0
	movq	-176(%rbp), %rdx
	movq	-184(%rbp), %rsi
Ltmp608:
	.loc	31 112 9 is_stmt 1
	movq	$0, -80(%rbp)
	leaq	l___unnamed_13(%rip), %r8
	xorl	%edi, %edi
	leaq	-96(%rbp), %rcx
	callq	__ZN4core9panicking13assert_failed17h9531cfd33793eb18E
Ltmp609:
Lfunc_end148:
	.cfi_endproc

	.globl	__ZN4core4iter6traits10exact_size17ExactSizeIterator3len17h84274837fa74d351E
	.p2align	4, 0x90
__ZN4core4iter6traits10exact_size17ExactSizeIterator3len17h84274837fa74d351E:
Lfunc_begin149:
	.loc	31 106 0
	.cfi_startproc
	pushq	%rbp
	.cfi_def_cfa_offset 16
	.cfi_offset %rbp, -16
	movq	%rsp, %rbp
	.cfi_def_cfa_register %rbp
	subq	$192, %rsp
	movq	%rdi, %rsi
	movq	%rsi, -48(%rbp)
Ltmp610:
	.loc	31 107 30 prologue_end
	leaq	-152(%rbp), %rdi
	callq	__ZN4core4iter5range110_$LT$impl$u20$core..iter..traits..iterator..Iterator$u20$for$u20$core..ops..range..RangeInclusive$LT$A$GT$$GT$9size_hint17hc7e04d832a0cb604E
	.loc	31 107 14 is_stmt 0
	movq	-152(%rbp), %rax
	movq	%rax, -192(%rbp)
	movq	%rax, -40(%rbp)
	.loc	31 107 21
	movq	-144(%rbp), %rdx
	movq	-136(%rbp), %rcx
	movq	%rdx, -168(%rbp)
	movq	%rcx, -160(%rbp)
Ltmp611:
	.loc	31 112 27 is_stmt 1
	movq	%rax, -104(%rbp)
	movq	$1, -112(%rbp)
	.loc	31 112 9 is_stmt 0
	leaq	-168(%rbp), %rax
	movq	%rax, -128(%rbp)
	leaq	-112(%rbp), %rax
	movq	%rax, -120(%rbp)
	movq	-128(%rbp), %rdi
	movq	%rdi, -184(%rbp)
	movq	%rdi, -32(%rbp)
	movq	-120(%rbp), %rsi
	movq	%rsi, -176(%rbp)
	movq	%rsi, -24(%rbp)
Ltmp612:
	.loc	31 112 9
	movq	%rdi, -16(%rbp)
	movq	%rsi, -8(%rbp)
Ltmp613:
	.loc	14 2089 9 is_stmt 1
	callq	__ZN55_$LT$T$u20$as$u20$core..option..SpecOptionPartialEq$GT$2eq17h458d6bb13bd1d8eeE
Ltmp614:
	.loc	31 112 9
	xorb	$-1, %al
	testb	$1, %al
	jne	LBB149_2
Ltmp615:
	.loc	31 0 9 is_stmt 0
	movq	-192(%rbp), %rax
	.loc	31 114 6 is_stmt 1
	addq	$192, %rsp
	popq	%rbp
	retq
LBB149_2:
	.loc	31 0 6 is_stmt 0
	movq	-176(%rbp), %rdx
	movq	-184(%rbp), %rsi
Ltmp616:
	.loc	31 112 9 is_stmt 1
	movq	$0, -80(%rbp)
	leaq	l___unnamed_13(%rip), %r8
	xorl	%edi, %edi
	leaq	-96(%rbp), %rcx
	callq	__ZN4core9panicking13assert_failed17h9531cfd33793eb18E
Ltmp617:
Lfunc_end149:
	.cfi_endproc

	.globl	__ZN4core4iter6traits10exact_size17ExactSizeIterator3len17h9413cc397c040e93E
	.p2align	4, 0x90
__ZN4core4iter6traits10exact_size17ExactSizeIterator3len17h9413cc397c040e93E:
Lfunc_begin150:
	.loc	31 106 0
	.cfi_startproc
	pushq	%rbp
	.cfi_def_cfa_offset 16
	.cfi_offset %rbp, -16
	movq	%rsp, %rbp
	.cfi_def_cfa_register %rbp
	subq	$192, %rsp
	movq	%rdi, %rsi
	movq	%rsi, -48(%rbp)
Ltmp618:
	.loc	31 107 30 prologue_end
	leaq	-152(%rbp), %rdi
	callq	__ZN4core4iter5range101_$LT$impl$u20$core..iter..traits..iterator..Iterator$u20$for$u20$core..ops..range..Range$LT$A$GT$$GT$9size_hint17hd5f2136672d226c5E
	.loc	31 107 14 is_stmt 0
	movq	-152(%rbp), %rax
	movq	%rax, -192(%rbp)
	movq	%rax, -40(%rbp)
	.loc	31 107 21
	movq	-144(%rbp), %rdx
	movq	-136(%rbp), %rcx
	movq	%rdx, -168(%rbp)
	movq	%rcx, -160(%rbp)
Ltmp619:
	.loc	31 112 27 is_stmt 1
	movq	%rax, -104(%rbp)
	movq	$1, -112(%rbp)
	.loc	31 112 9 is_stmt 0
	leaq	-168(%rbp), %rax
	movq	%rax, -128(%rbp)
	leaq	-112(%rbp), %rax
	movq	%rax, -120(%rbp)
	movq	-128(%rbp), %rdi
	movq	%rdi, -184(%rbp)
	movq	%rdi, -32(%rbp)
	movq	-120(%rbp), %rsi
	movq	%rsi, -176(%rbp)
	movq	%rsi, -24(%rbp)
Ltmp620:
	.loc	31 112 9
	movq	%rdi, -16(%rbp)
	movq	%rsi, -8(%rbp)
Ltmp621:
	.loc	14 2089 9 is_stmt 1
	callq	__ZN55_$LT$T$u20$as$u20$core..option..SpecOptionPartialEq$GT$2eq17h458d6bb13bd1d8eeE
Ltmp622:
	.loc	31 112 9
	xorb	$-1, %al
	testb	$1, %al
	jne	LBB150_2
Ltmp623:
	.loc	31 0 9 is_stmt 0
	movq	-192(%rbp), %rax
	.loc	31 114 6 is_stmt 1
	addq	$192, %rsp
	popq	%rbp
	retq
LBB150_2:
	.loc	31 0 6 is_stmt 0
	movq	-176(%rbp), %rdx
	movq	-184(%rbp), %rsi
Ltmp624:
	.loc	31 112 9 is_stmt 1
	movq	$0, -80(%rbp)
	leaq	l___unnamed_13(%rip), %r8
	xorl	%edi, %edi
	leaq	-96(%rbp), %rcx
	callq	__ZN4core9panicking13assert_failed17h9531cfd33793eb18E
Ltmp625:
Lfunc_end150:
	.cfi_endproc

	.globl	__ZN4core4iter6traits10exact_size17ExactSizeIterator3len17hc9e12359ea468f1fE
	.p2align	4, 0x90
__ZN4core4iter6traits10exact_size17ExactSizeIterator3len17hc9e12359ea468f1fE:
Lfunc_begin151:
	.loc	31 106 0
	.cfi_startproc
	pushq	%rbp
	.cfi_def_cfa_offset 16
	.cfi_offset %rbp, -16
	movq	%rsp, %rbp
	.cfi_def_cfa_register %rbp
	subq	$192, %rsp
	movq	%rdi, %rsi
	movq	%rsi, -48(%rbp)
Ltmp626:
	.loc	31 107 30 prologue_end
	leaq	-152(%rbp), %rdi
	callq	__ZN4core4iter5range110_$LT$impl$u20$core..iter..traits..iterator..Iterator$u20$for$u20$core..ops..range..RangeInclusive$LT$A$GT$$GT$9size_hint17h243f848128f88018E
	.loc	31 107 14 is_stmt 0
	movq	-152(%rbp), %rax
	movq	%rax, -192(%rbp)
	movq	%rax, -40(%rbp)
	.loc	31 107 21
	movq	-144(%rbp), %rdx
	movq	-136(%rbp), %rcx
	movq	%rdx, -168(%rbp)
	movq	%rcx, -160(%rbp)
Ltmp627:
	.loc	31 112 27 is_stmt 1
	movq	%rax, -104(%rbp)
	movq	$1, -112(%rbp)
	.loc	31 112 9 is_stmt 0
	leaq	-168(%rbp), %rax
	movq	%rax, -128(%rbp)
	leaq	-112(%rbp), %rax
	movq	%rax, -120(%rbp)
	movq	-128(%rbp), %rdi
	movq	%rdi, -184(%rbp)
	movq	%rdi, -32(%rbp)
	movq	-120(%rbp), %rsi
	movq	%rsi, -176(%rbp)
	movq	%rsi, -24(%rbp)
Ltmp628:
	.loc	31 112 9
	movq	%rdi, -16(%rbp)
	movq	%rsi, -8(%rbp)
Ltmp629:
	.loc	14 2089 9 is_stmt 1
	callq	__ZN55_$LT$T$u20$as$u20$core..option..SpecOptionPartialEq$GT$2eq17h458d6bb13bd1d8eeE
Ltmp630:
	.loc	31 112 9
	xorb	$-1, %al
	testb	$1, %al
	jne	LBB151_2
Ltmp631:
	.loc	31 0 9 is_stmt 0
	movq	-192(%rbp), %rax
	.loc	31 114 6 is_stmt 1
	addq	$192, %rsp
	popq	%rbp
	retq
LBB151_2:
	.loc	31 0 6 is_stmt 0
	movq	-176(%rbp), %rdx
	movq	-184(%rbp), %rsi
Ltmp632:
	.loc	31 112 9 is_stmt 1
	movq	$0, -80(%rbp)
	leaq	l___unnamed_13(%rip), %r8
	xorl	%edi, %edi
	leaq	-96(%rbp), %rcx
	callq	__ZN4core9panicking13assert_failed17h9531cfd33793eb18E
Ltmp633:
Lfunc_end151:
	.cfi_endproc

	.globl	__ZN4core4iter6traits10exact_size17ExactSizeIterator3len17hd4d52f74b3339afeE
	.p2align	4, 0x90
__ZN4core4iter6traits10exact_size17ExactSizeIterator3len17hd4d52f74b3339afeE:
Lfunc_begin152:
	.loc	31 106 0
	.cfi_startproc
	pushq	%rbp
	.cfi_def_cfa_offset 16
	.cfi_offset %rbp, -16
	movq	%rsp, %rbp
	.cfi_def_cfa_register %rbp
	subq	$192, %rsp
	movq	%rdi, %rsi
	movq	%rsi, -48(%rbp)
Ltmp634:
	.loc	31 107 30 prologue_end
	leaq	-152(%rbp), %rdi
	callq	__ZN4core4iter5range101_$LT$impl$u20$core..iter..traits..iterator..Iterator$u20$for$u20$core..ops..range..Range$LT$A$GT$$GT$9size_hint17heaf3ddbec49626b0E
	.loc	31 107 14 is_stmt 0
	movq	-152(%rbp), %rax
	movq	%rax, -192(%rbp)
	movq	%rax, -40(%rbp)
	.loc	31 107 21
	movq	-144(%rbp), %rdx
	movq	-136(%rbp), %rcx
	movq	%rdx, -168(%rbp)
	movq	%rcx, -160(%rbp)
Ltmp635:
	.loc	31 112 27 is_stmt 1
	movq	%rax, -104(%rbp)
	movq	$1, -112(%rbp)
	.loc	31 112 9 is_stmt 0
	leaq	-168(%rbp), %rax
	movq	%rax, -128(%rbp)
	leaq	-112(%rbp), %rax
	movq	%rax, -120(%rbp)
	movq	-128(%rbp), %rdi
	movq	%rdi, -184(%rbp)
	movq	%rdi, -32(%rbp)
	movq	-120(%rbp), %rsi
	movq	%rsi, -176(%rbp)
	movq	%rsi, -24(%rbp)
Ltmp636:
	.loc	31 112 9
	movq	%rdi, -16(%rbp)
	movq	%rsi, -8(%rbp)
Ltmp637:
	.loc	14 2089 9 is_stmt 1
	callq	__ZN55_$LT$T$u20$as$u20$core..option..SpecOptionPartialEq$GT$2eq17h458d6bb13bd1d8eeE
Ltmp638:
	.loc	31 112 9
	xorb	$-1, %al
	testb	$1, %al
	jne	LBB152_2
Ltmp639:
	.loc	31 0 9 is_stmt 0
	movq	-192(%rbp), %rax
	.loc	31 114 6 is_stmt 1
	addq	$192, %rsp
	popq	%rbp
	retq
LBB152_2:
	.loc	31 0 6 is_stmt 0
	movq	-176(%rbp), %rdx
	movq	-184(%rbp), %rsi
Ltmp640:
	.loc	31 112 9 is_stmt 1
	movq	$0, -80(%rbp)
	leaq	l___unnamed_13(%rip), %r8
	xorl	%edi, %edi
	leaq	-96(%rbp), %rcx
	callq	__ZN4core9panicking13assert_failed17h9531cfd33793eb18E
Ltmp641:
Lfunc_end152:
	.cfi_endproc

	.globl	__ZN4core4iter6traits10exact_size17ExactSizeIterator3len17hdc97e10e3ed3f41eE
	.p2align	4, 0x90
__ZN4core4iter6traits10exact_size17ExactSizeIterator3len17hdc97e10e3ed3f41eE:
Lfunc_begin153:
	.loc	31 106 0
	.cfi_startproc
	pushq	%rbp
	.cfi_def_cfa_offset 16
	.cfi_offset %rbp, -16
	movq	%rsp, %rbp
	.cfi_def_cfa_register %rbp
	subq	$192, %rsp
	movq	%rdi, %rsi
	movq	%rsi, -48(%rbp)
Ltmp642:
	.loc	31 107 30 prologue_end
	leaq	-152(%rbp), %rdi
	callq	__ZN4core4iter5range110_$LT$impl$u20$core..iter..traits..iterator..Iterator$u20$for$u20$core..ops..range..RangeInclusive$LT$A$GT$$GT$9size_hint17h11f18a1adb0a68c3E
	.loc	31 107 14 is_stmt 0
	movq	-152(%rbp), %rax
	movq	%rax, -192(%rbp)
	movq	%rax, -40(%rbp)
	.loc	31 107 21
	movq	-144(%rbp), %rdx
	movq	-136(%rbp), %rcx
	movq	%rdx, -168(%rbp)
	movq	%rcx, -160(%rbp)
Ltmp643:
	.loc	31 112 27 is_stmt 1
	movq	%rax, -104(%rbp)
	movq	$1, -112(%rbp)
	.loc	31 112 9 is_stmt 0
	leaq	-168(%rbp), %rax
	movq	%rax, -128(%rbp)
	leaq	-112(%rbp), %rax
	movq	%rax, -120(%rbp)
	movq	-128(%rbp), %rdi
	movq	%rdi, -184(%rbp)
	movq	%rdi, -32(%rbp)
	movq	-120(%rbp), %rsi
	movq	%rsi, -176(%rbp)
	movq	%rsi, -24(%rbp)
Ltmp644:
	.loc	31 112 9
	movq	%rdi, -16(%rbp)
	movq	%rsi, -8(%rbp)
Ltmp645:
	.loc	14 2089 9 is_stmt 1
	callq	__ZN55_$LT$T$u20$as$u20$core..option..SpecOptionPartialEq$GT$2eq17h458d6bb13bd1d8eeE
Ltmp646:
	.loc	31 112 9
	xorb	$-1, %al
	testb	$1, %al
	jne	LBB153_2
Ltmp647:
	.loc	31 0 9 is_stmt 0
	movq	-192(%rbp), %rax
	.loc	31 114 6 is_stmt 1
	addq	$192, %rsp
	popq	%rbp
	retq
LBB153_2:
	.loc	31 0 6 is_stmt 0
	movq	-176(%rbp), %rdx
	movq	-184(%rbp), %rsi
Ltmp648:
	.loc	31 112 9 is_stmt 1
	movq	$0, -80(%rbp)
	leaq	l___unnamed_13(%rip), %r8
	xorl	%edi, %edi
	leaq	-96(%rbp), %rcx
	callq	__ZN4core9panicking13assert_failed17h9531cfd33793eb18E
Ltmp649:
Lfunc_end153:
	.cfi_endproc

	.globl	__ZN4core4iter6traits10exact_size17ExactSizeIterator3len17he753339ccc0bf28dE
	.p2align	4, 0x90
__ZN4core4iter6traits10exact_size17ExactSizeIterator3len17he753339ccc0bf28dE:
Lfunc_begin154:
	.loc	31 106 0
	.cfi_startproc
	pushq	%rbp
	.cfi_def_cfa_offset 16
	.cfi_offset %rbp, -16
	movq	%rsp, %rbp
	.cfi_def_cfa_register %rbp
	subq	$192, %rsp
	movq	%rdi, %rsi
	movq	%rsi, -48(%rbp)
Ltmp650:
	.loc	31 107 30 prologue_end
	leaq	-152(%rbp), %rdi
	callq	__ZN4core4iter5range101_$LT$impl$u20$core..iter..traits..iterator..Iterator$u20$for$u20$core..ops..range..Range$LT$A$GT$$GT$9size_hint17h7882dfb243472620E
	.loc	31 107 14 is_stmt 0
	movq	-152(%rbp), %rax
	movq	%rax, -192(%rbp)
	movq	%rax, -40(%rbp)
	.loc	31 107 21
	movq	-144(%rbp), %rdx
	movq	-136(%rbp), %rcx
	movq	%rdx, -168(%rbp)
	movq	%rcx, -160(%rbp)
Ltmp651:
	.loc	31 112 27 is_stmt 1
	movq	%rax, -104(%rbp)
	movq	$1, -112(%rbp)
	.loc	31 112 9 is_stmt 0
	leaq	-168(%rbp), %rax
	movq	%rax, -128(%rbp)
	leaq	-112(%rbp), %rax
	movq	%rax, -120(%rbp)
	movq	-128(%rbp), %rdi
	movq	%rdi, -184(%rbp)
	movq	%rdi, -32(%rbp)
	movq	-120(%rbp), %rsi
	movq	%rsi, -176(%rbp)
	movq	%rsi, -24(%rbp)
Ltmp652:
	.loc	31 112 9
	movq	%rdi, -16(%rbp)
	movq	%rsi, -8(%rbp)
Ltmp653:
	.loc	14 2089 9 is_stmt 1
	callq	__ZN55_$LT$T$u20$as$u20$core..option..SpecOptionPartialEq$GT$2eq17h458d6bb13bd1d8eeE
Ltmp654:
	.loc	31 112 9
	xorb	$-1, %al
	testb	$1, %al
	jne	LBB154_2
Ltmp655:
	.loc	31 0 9 is_stmt 0
	movq	-192(%rbp), %rax
	.loc	31 114 6 is_stmt 1
	addq	$192, %rsp
	popq	%rbp
	retq
LBB154_2:
	.loc	31 0 6 is_stmt 0
	movq	-176(%rbp), %rdx
	movq	-184(%rbp), %rsi
Ltmp656:
	.loc	31 112 9 is_stmt 1
	movq	$0, -80(%rbp)
	leaq	l___unnamed_13(%rip), %r8
	xorl	%edi, %edi
	leaq	-96(%rbp), %rcx
	callq	__ZN4core9panicking13assert_failed17h9531cfd33793eb18E
Ltmp657:
Lfunc_end154:
	.cfi_endproc

	.globl	__ZN4core4iter6traits12double_ended19DoubleEndedIterator9try_rfold17h5afef68d241e762dE
	.p2align	4, 0x90
__ZN4core4iter6traits12double_ended19DoubleEndedIterator9try_rfold17h5afef68d241e762dE:
Lfunc_begin155:
	.file	32 "/rustc/2c8cc343237b8f7d5a3c3703e3a87f2eb2c54a74/library/core/src/iter/traits" "double_ended.rs"
	.loc	32 221 0
	.cfi_startproc
	.cfi_personality 155, _rust_eh_personality
	.cfi_lsda 16, Lexception5
	pushq	%rbp
	.cfi_def_cfa_offset 16
	.cfi_offset %rbp, -16
	movq	%rsp, %rbp
	.cfi_def_cfa_register %rbp
	subq	$224, %rsp
	movq	%rdi, -144(%rbp)
	movq	%rdi, -56(%rbp)
	movq	%rsi, -48(%rbp)
Ltmp669:
	.loc	32 227 25 prologue_end
	movb	$1, -57(%rbp)
	movq	%rsi, -112(%rbp)
LBB155_1:
Ltmp658:
	.loc	32 0 25 is_stmt 0
	movq	-144(%rbp), %rdi
Ltmp670:
	.loc	32 228 29 is_stmt 1
	callq	__ZN106_$LT$core..slice..iter..Iter$LT$T$GT$$u20$as$u20$core..iter..traits..double_ended..DoubleEndedIterator$GT$9next_back17hda722b6353f6d8b4E
Ltmp659:
	movq	%rax, -152(%rbp)
	jmp	LBB155_4
Ltmp671:
LBB155_2:
	.loc	32 232 5
	testb	$1, -57(%rbp)
	jne	LBB155_16
	jmp	LBB155_15
LBB155_3:
Ltmp668:
	.loc	32 0 5 is_stmt 0
	movq	%rax, %rcx
	movl	%edx, %eax
	movq	%rcx, -40(%rbp)
	movl	%eax, -32(%rbp)
	jmp	LBB155_2
LBB155_4:
	movq	-152(%rbp), %rax
Ltmp672:
	.loc	32 228 29 is_stmt 1
	movq	%rax, -104(%rbp)
	.loc	32 228 19 is_stmt 0
	movq	-104(%rbp), %rdx
	movl	$1, %eax
	xorl	%ecx, %ecx
	cmpq	$0, %rdx
	cmoveq	%rcx, %rax
	cmpq	$1, %rax
	jne	LBB155_6
	.loc	32 228 24
	movq	-104(%rbp), %rax
	movq	%rax, -24(%rbp)
	.loc	32 229 23 is_stmt 1
	movb	$0, -57(%rbp)
	movq	-112(%rbp), %rcx
	.loc	32 229 21 is_stmt 0
	movq	%rcx, -80(%rbp)
	movq	%rax, -72(%rbp)
	movq	-80(%rbp), %rsi
	movq	-72(%rbp), %rdx
Ltmp662:
	leaq	-136(%rbp), %rdi
	callq	__ZN4core4iter8adapters6copied13copy_try_fold28_$u7b$$u7b$closure$u7d$$u7d$17hf6ca5e6f1c6e6eacE
Ltmp663:
	movq	%rdx, -168(%rbp)
	movq	%rax, -160(%rbp)
	jmp	LBB155_10
Ltmp673:
LBB155_6:
	.loc	32 228 9 is_stmt 1
	jmp	LBB155_7
LBB155_7:
	.loc	32 231 15
	movb	$0, -57(%rbp)
	movq	-112(%rbp), %rdi
Ltmp660:
	callq	__ZN95_$LT$core..ops..control_flow..ControlFlow$LT$B$C$C$GT$$u20$as$u20$core..ops..try_trait..Try$GT$11from_output17h1337b74fda90e23dE
Ltmp661:
	movq	%rdx, -184(%rbp)
	movq	%rax, -176(%rbp)
	jmp	LBB155_8
LBB155_8:
	.loc	32 0 15 is_stmt 0
	movq	-184(%rbp), %rax
	movq	-176(%rbp), %rcx
	.loc	32 231 15
	movq	%rcx, -128(%rbp)
	movq	%rax, -120(%rbp)
Ltmp674:
LBB155_9:
	.loc	32 232 6 is_stmt 1
	movq	-128(%rbp), %rax
	movq	-120(%rbp), %rdx
	addq	$224, %rsp
	popq	%rbp
	retq
LBB155_10:
Ltmp664:
	.loc	32 0 6 is_stmt 0
	movq	-168(%rbp), %rsi
	movq	-160(%rbp), %rdi
Ltmp675:
	.loc	32 229 21 is_stmt 1
	callq	__ZN95_$LT$core..ops..control_flow..ControlFlow$LT$B$C$C$GT$$u20$as$u20$core..ops..try_trait..Try$GT$6branch17hb329f5fecfba26b4E
Ltmp665:
	movq	%rdx, -200(%rbp)
	movq	%rax, -192(%rbp)
	jmp	LBB155_11
LBB155_11:
	.loc	32 0 21 is_stmt 0
	movq	-200(%rbp), %rax
	movq	-192(%rbp), %rcx
	.loc	32 229 21
	movq	%rcx, -96(%rbp)
	movq	%rax, -88(%rbp)
	cmpq	$0, -96(%rbp)
	jne	LBB155_13
	movq	-88(%rbp), %rax
	movq	%rax, -8(%rbp)
	.loc	32 229 13
	movb	$1, -57(%rbp)
	movq	%rax, -112(%rbp)
Ltmp676:
	.loc	32 228 9 is_stmt 1
	jmp	LBB155_1
LBB155_13:
Ltmp677:
	.loc	32 229 32
	movq	-88(%rbp), %rdi
	movq	%rdi, -16(%rbp)
Ltmp666:
Ltmp678:
	.loc	32 229 21 is_stmt 0
	callq	__ZN104_$LT$core..ops..control_flow..ControlFlow$LT$B$C$C$GT$$u20$as$u20$core..ops..try_trait..FromResidual$GT$13from_residual17hc2227c3f8ea51192E
Ltmp667:
	movq	%rdx, -216(%rbp)
	movq	%rax, -208(%rbp)
	jmp	LBB155_14
LBB155_14:
	.loc	32 0 21
	movq	-216(%rbp), %rax
	movq	-208(%rbp), %rcx
	.loc	32 229 21
	movq	%rcx, -128(%rbp)
	movq	%rax, -120(%rbp)
Ltmp679:
	.loc	32 232 5 is_stmt 1
	jmp	LBB155_9
LBB155_15:
	.loc	32 221 5
	movq	-40(%rbp), %rdi
	callq	__Unwind_Resume
LBB155_16:
	.loc	32 232 5
	jmp	LBB155_15
Ltmp680:
Lfunc_end155:
	.cfi_endproc
	.section	__TEXT,__gcc_except_tab
	.p2align	2
GCC_except_table155:
Lexception5:
	.byte	255
	.byte	255
	.byte	1
	.uleb128 Lcst_end5-Lcst_begin5
Lcst_begin5:
	.uleb128 Ltmp658-Lfunc_begin155
	.uleb128 Ltmp667-Ltmp658
	.uleb128 Ltmp668-Lfunc_begin155
	.byte	0
	.uleb128 Ltmp667-Lfunc_begin155
	.uleb128 Lfunc_end155-Ltmp667
	.byte	0
	.byte	0
Lcst_end5:
	.p2align	2

	.section	__TEXT,__text,regular,pure_instructions
	.globl	__ZN4core4iter6traits8iterator8Iterator3map17h5c3d52df71043a05E
	.p2align	4, 0x90
__ZN4core4iter6traits8iterator8Iterator3map17h5c3d52df71043a05E:
Lfunc_begin156:
	.file	33 "/rustc/2c8cc343237b8f7d5a3c3703e3a87f2eb2c54a74/library/core/src/iter/traits" "iterator.rs"
	.loc	33 782 0
	.cfi_startproc
	pushq	%rbp
	.cfi_def_cfa_offset 16
	.cfi_offset %rbp, -16
	movq	%rsp, %rbp
	.cfi_def_cfa_register %rbp
	subq	$48, %rsp
	movq	%rdi, %rax
	movq	%rax, -40(%rbp)
Ltmp681:
	.loc	33 787 18 prologue_end
	movq	(%rsi), %rax
	movq	%rax, -32(%rbp)
	movq	8(%rsi), %rax
	movq	%rax, -24(%rbp)
	movq	16(%rsi), %rax
	movq	%rax, -16(%rbp)
	.loc	33 787 9 is_stmt 0
	leaq	-32(%rbp), %rsi
Ltmp682:
	callq	__ZN4core4iter8adapters3map16Map$LT$I$C$F$GT$3new17hc26891cd95602c40E
	movq	-40(%rbp), %rax
	.loc	33 788 6 is_stmt 1
	addq	$48, %rsp
	popq	%rbp
	retq
Ltmp683:
Lfunc_end156:
	.cfi_endproc

	.globl	__ZN4core4iter6traits8iterator8Iterator3sum17hf9e07a8dec3f73d5E
	.p2align	4, 0x90
__ZN4core4iter6traits8iterator8Iterator3sum17hf9e07a8dec3f73d5E:
Lfunc_begin157:
	.loc	33 3403 0
	.cfi_startproc
	pushq	%rbp
	.cfi_def_cfa_offset 16
	.cfi_offset %rbp, -16
	movq	%rsp, %rbp
	.cfi_def_cfa_register %rbp
	subq	$32, %rsp
Ltmp684:
	.loc	33 3408 18 prologue_end
	movq	(%rdi), %rax
	movq	%rax, -24(%rbp)
	movq	8(%rdi), %rax
	movq	%rax, -16(%rbp)
	movq	16(%rdi), %rax
	movq	%rax, -8(%rbp)
	.loc	33 3408 9 is_stmt 0
	leaq	-24(%rbp), %rdi
Ltmp685:
	callq	__ZN56_$LT$usize$u20$as$u20$core..iter..traits..accum..Sum$GT$3sum17he51c815795cea0b1E
	.loc	33 3409 6 is_stmt 1
	addq	$32, %rsp
	popq	%rbp
	retq
Ltmp686:
Lfunc_end157:
	.cfi_endproc

	.globl	__ZN4core4iter6traits8iterator8Iterator4fold17h46a6b26e7d870f72E
	.p2align	4, 0x90
__ZN4core4iter6traits8iterator8Iterator4fold17h46a6b26e7d870f72E:
Lfunc_begin158:
	.loc	33 2431 0
	.cfi_startproc
	.cfi_personality 155, _rust_eh_personality
	.cfi_lsda 16, Lexception6
	pushq	%rbp
	.cfi_def_cfa_offset 16
	.cfi_offset %rbp, -16
	movq	%rsp, %rbp
	.cfi_def_cfa_register %rbp
	subq	$112, %rsp
	movq	%rdi, -88(%rbp)
Ltmp692:
	movq	%rsi, -32(%rbp)
Ltmp693:
	.loc	33 2436 25 prologue_end
	movb	$1, -33(%rbp)
	movq	%rsi, -72(%rbp)
Ltmp694:
LBB158_1:
Ltmp687:
	.loc	33 0 25 is_stmt 0
	movq	-88(%rbp), %rdi
Ltmp695:
	.loc	33 2437 29 is_stmt 1
	callq	__ZN105_$LT$alloc..collections..linked_list..Iter$LT$T$GT$$u20$as$u20$core..iter..traits..iterator..Iterator$GT$4next17h81357adecd96baaeE
Ltmp688:
	movq	%rax, -96(%rbp)
	jmp	LBB158_4
Ltmp696:
LBB158_2:
	.loc	33 2441 5
	testb	$1, -33(%rbp)
	jne	LBB158_11
	jmp	LBB158_10
Ltmp697:
LBB158_3:
Ltmp691:
	.loc	33 0 5 is_stmt 0
	movq	%rax, %rcx
	movl	%edx, %eax
	movq	%rcx, -24(%rbp)
	movl	%eax, -16(%rbp)
	jmp	LBB158_2
Ltmp698:
LBB158_4:
	movq	-96(%rbp), %rax
Ltmp699:
	.loc	33 2437 29 is_stmt 1
	movq	%rax, -64(%rbp)
	.loc	33 2437 19 is_stmt 0
	movq	-64(%rbp), %rdx
	movl	$1, %eax
	xorl	%ecx, %ecx
	cmpq	$0, %rdx
	cmoveq	%rcx, %rax
	cmpq	$1, %rax
	jne	LBB158_6
Ltmp700:
	.loc	33 2437 24
	movq	-64(%rbp), %rax
	movq	%rax, -8(%rbp)
	.loc	33 2438 23 is_stmt 1
	movb	$0, -33(%rbp)
	movq	-72(%rbp), %rcx
	.loc	33 2438 21 is_stmt 0
	movq	%rcx, -56(%rbp)
	movq	%rax, -48(%rbp)
	movq	-56(%rbp), %rsi
	movq	-48(%rbp), %rdx
Ltmp689:
	leaq	-80(%rbp), %rdi
	callq	__ZN4core4iter8adapters3map8map_fold28_$u7b$$u7b$closure$u7d$$u7d$17h941e1ff1b1927ba9E
Ltmp690:
	movq	%rax, -104(%rbp)
	jmp	LBB158_9
Ltmp701:
LBB158_6:
	.loc	33 2437 9 is_stmt 1
	jmp	LBB158_7
Ltmp702:
LBB158_7:
	.loc	33 2441 5
	jmp	LBB158_8
Ltmp703:
LBB158_8:
	.loc	33 2441 6 is_stmt 0
	movq	-72(%rbp), %rax
	addq	$112, %rsp
	popq	%rbp
	retq
Ltmp704:
LBB158_9:
	.loc	33 0 6
	movq	-104(%rbp), %rax
Ltmp705:
	.loc	33 2438 13 is_stmt 1
	movb	$1, -33(%rbp)
	movq	%rax, -72(%rbp)
Ltmp706:
	.loc	33 2437 9
	jmp	LBB158_1
Ltmp707:
LBB158_10:
	.loc	33 2441 5
	jmp	LBB158_12
Ltmp708:
LBB158_11:
	jmp	LBB158_10
Ltmp709:
LBB158_12:
	.loc	33 2431 5
	movq	-24(%rbp), %rdi
	callq	__Unwind_Resume
Ltmp710:
Lfunc_end158:
	.cfi_endproc
	.section	__TEXT,__gcc_except_tab
	.p2align	2
GCC_except_table158:
Lexception6:
	.byte	255
	.byte	255
	.byte	1
	.uleb128 Lcst_end6-Lcst_begin6
Lcst_begin6:
	.uleb128 Ltmp687-Lfunc_begin158
	.uleb128 Ltmp690-Ltmp687
	.uleb128 Ltmp691-Lfunc_begin158
	.byte	0
	.uleb128 Ltmp690-Lfunc_begin158
	.uleb128 Lfunc_end158-Ltmp690
	.byte	0
	.byte	0
Lcst_end6:
	.p2align	2

	.section	__TEXT,__text,regular,pure_instructions
	.globl	__ZN4core4iter6traits8iterator8Iterator4fold17h4cd6a0eb83acd7bcE
	.p2align	4, 0x90
__ZN4core4iter6traits8iterator8Iterator4fold17h4cd6a0eb83acd7bcE:
Lfunc_begin159:
	.loc	33 2431 0
	.cfi_startproc
	.cfi_personality 155, _rust_eh_personality
	.cfi_lsda 16, Lexception7
	pushq	%rbp
	.cfi_def_cfa_offset 16
	.cfi_offset %rbp, -16
	movq	%rsp, %rbp
	.cfi_def_cfa_register %rbp
	subq	$160, %rsp
	movq	%rdi, -152(%rbp)
Ltmp721:
	movq	%rsi, -144(%rbp)
Ltmp722:
	.loc	33 2436 25 prologue_end
	movb	$1, -33(%rbp)
Ltmp723:
LBB159_1:
Ltmp711:
	.loc	33 0 25 is_stmt 0
	movq	-152(%rbp), %rsi
	leaq	-136(%rbp), %rdi
Ltmp724:
	.loc	33 2437 29 is_stmt 1
	callq	__ZN109_$LT$alloc..collections..linked_list..IntoIter$LT$T$GT$$u20$as$u20$core..iter..traits..iterator..Iterator$GT$4next17he1696df64e195de8E
Ltmp712:
	jmp	LBB159_4
Ltmp725:
LBB159_2:
	.loc	33 2441 5
	testb	$1, -33(%rbp)
	jne	LBB159_11
	jmp	LBB159_10
Ltmp726:
LBB159_3:
Ltmp717:
	.loc	33 0 5 is_stmt 0
	movq	%rax, %rcx
	movl	%edx, %eax
	movq	%rcx, -16(%rbp)
	movl	%eax, -8(%rbp)
	jmp	LBB159_2
Ltmp727:
LBB159_4:
	.loc	33 2437 19 is_stmt 1
	movq	-128(%rbp), %rdx
	movl	$1, %eax
	xorl	%ecx, %ecx
	cmpq	$0, %rdx
	cmoveq	%rcx, %rax
	cmpq	$1, %rax
	jne	LBB159_6
Ltmp728:
	.loc	33 2437 24 is_stmt 0
	movq	-120(%rbp), %rax
	movq	%rax, -96(%rbp)
	movq	-136(%rbp), %rax
	movq	-128(%rbp), %rcx
	movq	%rcx, -104(%rbp)
	movq	%rax, -112(%rbp)
	.loc	33 2438 23 is_stmt 1
	movb	$0, -33(%rbp)
	.loc	33 2438 30 is_stmt 0
	movq	-96(%rbp), %rax
	movq	%rax, -48(%rbp)
	movq	-112(%rbp), %rax
	movq	-104(%rbp), %rcx
	movq	%rcx, -56(%rbp)
	movq	%rax, -64(%rbp)
	.loc	33 2438 21
	movq	-48(%rbp), %rax
	movq	%rax, -72(%rbp)
	movq	-64(%rbp), %rax
	movq	-56(%rbp), %rcx
	movq	%rcx, -80(%rbp)
	movq	%rax, -88(%rbp)
Ltmp715:
	leaq	-144(%rbp), %rdi
	leaq	-88(%rbp), %rsi
	callq	__ZN4core4iter6traits8iterator8Iterator8for_each4call28_$u7b$$u7b$closure$u7d$$u7d$17h8b02f2e52535f248E
Ltmp716:
	jmp	LBB159_9
Ltmp729:
LBB159_6:
Ltmp713:
	.loc	33 0 21
	leaq	-136(%rbp), %rdi
	.loc	33 2437 9 is_stmt 1
	callq	__ZN4core3ptr70drop_in_place$LT$core..option..Option$LT$alloc..string..String$GT$$GT$17h9d56854f2a4bc5a3E
Ltmp714:
	jmp	LBB159_7
Ltmp730:
LBB159_7:
	.loc	33 2441 5
	jmp	LBB159_8
Ltmp731:
LBB159_8:
	.loc	33 0 5 is_stmt 0
	movq	-152(%rbp), %rdi
	.loc	33 2441 5
	callq	__ZN4core3ptr91drop_in_place$LT$alloc..collections..linked_list..IntoIter$LT$alloc..string..String$GT$$GT$17h1f200e3021c9018dE
	.loc	33 2441 6
	addq	$160, %rsp
	popq	%rbp
	retq
Ltmp732:
LBB159_9:
	.loc	33 2438 13 is_stmt 1
	movb	$1, -33(%rbp)
Ltmp733:
	.loc	33 2437 9
	jmp	LBB159_1
Ltmp734:
LBB159_10:
	.loc	33 2441 5
	jmp	LBB159_12
Ltmp735:
LBB159_11:
	jmp	LBB159_10
Ltmp736:
LBB159_12:
Ltmp718:
	.loc	33 0 5 is_stmt 0
	movq	-152(%rbp), %rdi
	.loc	33 2441 5
	callq	__ZN4core3ptr91drop_in_place$LT$alloc..collections..linked_list..IntoIter$LT$alloc..string..String$GT$$GT$17h1f200e3021c9018dE
Ltmp719:
	jmp	LBB159_14
Ltmp737:
LBB159_13:
Ltmp720:
	.loc	33 2431 5 is_stmt 1
	callq	__ZN4core9panicking19panic_cannot_unwind17h1fbca7e1d7f56ae1E
Ltmp738:
LBB159_14:
	movq	-16(%rbp), %rdi
	callq	__Unwind_Resume
Ltmp739:
Lfunc_end159:
	.cfi_endproc
	.section	__TEXT,__gcc_except_tab
	.p2align	2
GCC_except_table159:
Lexception7:
	.byte	255
	.byte	255
	.byte	1
	.uleb128 Lcst_end7-Lcst_begin7
Lcst_begin7:
	.uleb128 Ltmp711-Lfunc_begin159
	.uleb128 Ltmp714-Ltmp711
	.uleb128 Ltmp717-Lfunc_begin159
	.byte	0
	.uleb128 Ltmp714-Lfunc_begin159
	.uleb128 Ltmp718-Ltmp714
	.byte	0
	.byte	0
	.uleb128 Ltmp718-Lfunc_begin159
	.uleb128 Ltmp719-Ltmp718
	.uleb128 Ltmp720-Lfunc_begin159
	.byte	0
	.uleb128 Ltmp719-Lfunc_begin159
	.uleb128 Lfunc_end159-Ltmp719
	.byte	0
	.byte	0
Lcst_end7:
	.p2align	2

	.section	__TEXT,__text,regular,pure_instructions
	.globl	__ZN4core4iter6traits8iterator8Iterator6copied17h37090e717629cb8fE
	.p2align	4, 0x90
__ZN4core4iter6traits8iterator8Iterator6copied17h37090e717629cb8fE:
Lfunc_begin160:
	.loc	33 3249 0
	.cfi_startproc
	pushq	%rbp
	.cfi_def_cfa_offset 16
	.cfi_offset %rbp, -16
	movq	%rsp, %rbp
	.cfi_def_cfa_register %rbp
	subq	$16, %rsp
	movq	%rdi, -16(%rbp)
	movq	%rsi, -8(%rbp)
Ltmp740:
	.loc	33 3254 9 prologue_end
	callq	__ZN4core4iter8adapters6copied15Copied$LT$I$GT$3new17h1b68de6f9c8cc974E
	.loc	33 3255 6
	addq	$16, %rsp
	popq	%rbp
	retq
Ltmp741:
Lfunc_end160:
	.cfi_endproc

	.globl	__ZN4core4iter6traits8iterator8Iterator8for_each17h6d2d1ae458351f53E
	.p2align	4, 0x90
__ZN4core4iter6traits8iterator8Iterator8for_each17h6d2d1ae458351f53E:
Lfunc_begin161:
	.loc	33 827 0
	.cfi_startproc
	.cfi_personality 155, _rust_eh_personality
	.cfi_lsda 16, Lexception8
	pushq	%rbp
	.cfi_def_cfa_offset 16
	.cfi_offset %rbp, -16
	movq	%rsp, %rbp
	.cfi_def_cfa_register %rbp
	subq	$64, %rsp
	movq	%rsi, -32(%rbp)
Ltmp748:
	.loc	33 837 9 prologue_end
	movq	16(%rdi), %rax
	movq	%rax, -48(%rbp)
	movq	(%rdi), %rax
	movq	8(%rdi), %rcx
	movq	%rcx, -56(%rbp)
	movq	%rax, -64(%rbp)
	.loc	33 837 28 is_stmt 0
	movq	%rsi, -24(%rbp)
Ltmp749:
	.loc	33 834 13 is_stmt 1
	movq	%rsi, -40(%rbp)
Ltmp750:
	.loc	33 837 9
	movq	-40(%rbp), %rsi
Ltmp742:
	leaq	-64(%rbp), %rdi
Ltmp751:
	callq	__ZN4core4iter6traits8iterator8Iterator4fold17h4cd6a0eb83acd7bcE
Ltmp743:
	jmp	LBB161_3
Ltmp752:
LBB161_1:
	.loc	33 837 30 is_stmt 0
	xorl	%eax, %eax
	testb	$1, %al
	jne	LBB161_5
	jmp	LBB161_4
Ltmp753:
LBB161_2:
Ltmp744:
	.loc	33 0 30
	movq	%rax, %rcx
	movl	%edx, %eax
	movq	%rcx, -16(%rbp)
	movl	%eax, -8(%rbp)
	jmp	LBB161_1
Ltmp754:
LBB161_3:
	.loc	33 838 6 is_stmt 1
	addq	$64, %rsp
	popq	%rbp
	retq
Ltmp755:
LBB161_4:
	.loc	33 827 5
	movq	-16(%rbp), %rdi
	callq	__Unwind_Resume
Ltmp756:
LBB161_5:
Ltmp745:
	.loc	33 0 5 is_stmt 0
	leaq	-64(%rbp), %rdi
	.loc	33 837 30 is_stmt 1
	callq	__ZN4core3ptr91drop_in_place$LT$alloc..collections..linked_list..IntoIter$LT$alloc..string..String$GT$$GT$17h1f200e3021c9018dE
Ltmp746:
	jmp	LBB161_4
Ltmp757:
LBB161_6:
Ltmp747:
	.loc	33 827 5
	callq	__ZN4core9panicking19panic_cannot_unwind17h1fbca7e1d7f56ae1E
Ltmp758:
Lfunc_end161:
	.cfi_endproc
	.section	__TEXT,__gcc_except_tab
	.p2align	2
GCC_except_table161:
Lexception8:
	.byte	255
	.byte	255
	.byte	1
	.uleb128 Lcst_end8-Lcst_begin8
Lcst_begin8:
	.uleb128 Ltmp742-Lfunc_begin161
	.uleb128 Ltmp743-Ltmp742
	.uleb128 Ltmp744-Lfunc_begin161
	.byte	0
	.uleb128 Ltmp743-Lfunc_begin161
	.uleb128 Ltmp745-Ltmp743
	.byte	0
	.byte	0
	.uleb128 Ltmp745-Lfunc_begin161
	.uleb128 Ltmp746-Ltmp745
	.uleb128 Ltmp747-Lfunc_begin161
	.byte	0
Lcst_end8:
	.p2align	2

	.section	__TEXT,__text,regular,pure_instructions
	.globl	__ZN4core4iter6traits8iterator8Iterator8for_each4call28_$u7b$$u7b$closure$u7d$$u7d$17h8b02f2e52535f248E
	.p2align	4, 0x90
__ZN4core4iter6traits8iterator8Iterator8for_each4call28_$u7b$$u7b$closure$u7d$$u7d$17h8b02f2e52535f248E:
Lfunc_begin162:
	.loc	33 834 0
	.cfi_startproc
	pushq	%rbp
	.cfi_def_cfa_offset 16
	.cfi_offset %rbp, -16
	movq	%rsp, %rbp
	.cfi_def_cfa_register %rbp
	subq	$64, %rsp
	movq	%rdi, -16(%rbp)
Ltmp759:
	.loc	33 834 31 prologue_end
	movq	(%rsi), %rax
	movq	%rax, -40(%rbp)
	movq	8(%rsi), %rax
	movq	%rax, -32(%rbp)
	movq	16(%rsi), %rax
	movq	%rax, -24(%rbp)
	.loc	33 834 29 is_stmt 0
	movq	-40(%rbp), %rax
	movq	%rax, -64(%rbp)
	movq	-32(%rbp), %rax
	movq	%rax, -56(%rbp)
	movq	-24(%rbp), %rax
	movq	%rax, -48(%rbp)
	leaq	-64(%rbp), %rsi
Ltmp760:
	callq	__ZN106_$LT$alloc..string..String$u20$as$u20$core..iter..traits..collect..Extend$LT$alloc..string..String$GT$$GT$6extend28_$u7b$$u7b$closure$u7d$$u7d$17h9c240483e8182731E
	.loc	33 834 36
	addq	$64, %rsp
	popq	%rbp
	retq
Ltmp761:
Lfunc_end162:
	.cfi_endproc

	.globl	__ZN4core4iter6traits8iterator8Iterator8position17hed2cec1f5743af5aE
	.p2align	4, 0x90
__ZN4core4iter6traits8iterator8Iterator8position17hed2cec1f5743af5aE:
Lfunc_begin163:
	.loc	33 2881 0 is_stmt 1
	.cfi_startproc
	pushq	%rbp
	.cfi_def_cfa_offset 16
	.cfi_offset %rbp, -16
	movq	%rsp, %rbp
	.cfi_def_cfa_register %rbp
	subq	$80, %rsp
	movq	%rdi, -32(%rbp)
	xorl	%eax, %eax
	movl	%eax, %esi
Ltmp762:
	.loc	33 2896 9 prologue_end
	callq	__ZN104_$LT$core..iter..adapters..copied..Copied$LT$I$GT$$u20$as$u20$core..iter..traits..iterator..Iterator$GT$8try_fold17h073c9243613846cfE
	movq	%rdx, -48(%rbp)
	movq	%rax, -56(%rbp)
Ltmp763:
	.loc	3 184 9
	cmpq	$0, -56(%rbp)
	jne	LBB163_2
	.loc	3 185 42
	movq	$0, -72(%rbp)
	jmp	LBB163_3
LBB163_2:
	.loc	3 186 32
	movq	-48(%rbp), %rax
	movq	%rax, -8(%rbp)
Ltmp764:
	.loc	3 186 38 is_stmt 0
	movq	%rax, -64(%rbp)
	movq	$1, -72(%rbp)
Ltmp765:
LBB163_3:
	.loc	33 2897 6 is_stmt 1
	movq	-72(%rbp), %rax
	movq	-64(%rbp), %rdx
	addq	$80, %rsp
	popq	%rbp
	retq
Ltmp766:
Lfunc_end163:
	.cfi_endproc

	.globl	__ZN4core4iter6traits8iterator8Iterator8position5check28_$u7b$$u7b$closure$u7d$$u7d$17h1455941a5417d9b9E
	.p2align	4, 0x90
__ZN4core4iter6traits8iterator8Iterator8position5check28_$u7b$$u7b$closure$u7d$$u7d$17h1455941a5417d9b9E:
Lfunc_begin164:
	.loc	33 2891 0
	.cfi_startproc
	pushq	%rbp
	.cfi_def_cfa_offset 16
	.cfi_offset %rbp, -16
	movq	%rsp, %rbp
	.cfi_def_cfa_register %rbp
	subq	$64, %rsp
	movq	%rsi, -56(%rbp)
	movb	%dl, %al
	movq	%rdi, -24(%rbp)
	movq	%rsi, -16(%rbp)
	movb	%al, -1(%rbp)
Ltmp767:
	.loc	33 2892 20 prologue_end
	movb	%al, -25(%rbp)
	movzbl	-25(%rbp), %esi
	callq	__ZN4core3ops8function5FnMut8call_mut17h4933aeb0cb35b1e7E
	testb	$1, %al
	jne	LBB164_2
	.loc	33 0 20 is_stmt 0
	movq	-56(%rbp), %rax
	.loc	33 2892 88
	addq	$1, %rax
	movq	%rax, -64(%rbp)
	setb	%al
	testb	$1, %al
	jne	LBB164_5
	jmp	LBB164_4
LBB164_2:
	.loc	33 0 88
	movq	-56(%rbp), %rax
	.loc	33 2892 35
	movq	%rax, -40(%rbp)
	movq	$1, -48(%rbp)
LBB164_3:
	.loc	33 2893 14 is_stmt 1
	movq	-48(%rbp), %rax
	movq	-40(%rbp), %rdx
	addq	$64, %rsp
	popq	%rbp
	retq
LBB164_4:
	.loc	33 0 14 is_stmt 0
	movq	-64(%rbp), %rax
	.loc	33 2892 66 is_stmt 1
	movq	%rax, -40(%rbp)
	movq	$0, -48(%rbp)
	.loc	33 2892 17 is_stmt 0
	jmp	LBB164_3
LBB164_5:
	.loc	33 2892 88
	leaq	_str.0(%rip), %rdi
	leaq	l___unnamed_14(%rip), %rdx
	movl	$28, %esi
	callq	__ZN4core9panicking5panic17hc1bc45270cf64b03E
Ltmp768:
Lfunc_end164:
	.cfi_endproc

	.globl	__ZN4core4iter6traits8iterator8Iterator8try_fold17h7421a2a3bb3b0dcfE
	.p2align	4, 0x90
__ZN4core4iter6traits8iterator8Iterator8try_fold17h7421a2a3bb3b0dcfE:
Lfunc_begin165:
	.loc	33 2254 0 is_stmt 1
	.cfi_startproc
	.cfi_personality 155, _rust_eh_personality
	.cfi_lsda 16, Lexception9
	pushq	%rbp
	.cfi_def_cfa_offset 16
	.cfi_offset %rbp, -16
	movq	%rsp, %rbp
	.cfi_def_cfa_register %rbp
	subq	$224, %rsp
	movq	%rdi, -144(%rbp)
	movq	%rdi, -56(%rbp)
	movq	%rsi, -48(%rbp)
Ltmp780:
	.loc	33 2260 25 prologue_end
	movb	$1, -57(%rbp)
	movq	%rsi, -112(%rbp)
LBB165_1:
Ltmp769:
	.loc	33 0 25 is_stmt 0
	movq	-144(%rbp), %rdi
Ltmp781:
	.loc	33 2261 29 is_stmt 1
	callq	__ZN91_$LT$core..slice..iter..Iter$LT$T$GT$$u20$as$u20$core..iter..traits..iterator..Iterator$GT$4next17hfaeae3a7431e4b7cE
Ltmp770:
	movq	%rax, -152(%rbp)
	jmp	LBB165_4
Ltmp782:
LBB165_2:
	.loc	33 2265 5
	testb	$1, -57(%rbp)
	jne	LBB165_16
	jmp	LBB165_15
LBB165_3:
Ltmp779:
	.loc	33 0 5 is_stmt 0
	movq	%rax, %rcx
	movl	%edx, %eax
	movq	%rcx, -40(%rbp)
	movl	%eax, -32(%rbp)
	jmp	LBB165_2
LBB165_4:
	movq	-152(%rbp), %rax
Ltmp783:
	.loc	33 2261 29 is_stmt 1
	movq	%rax, -104(%rbp)
	.loc	33 2261 19 is_stmt 0
	movq	-104(%rbp), %rdx
	movl	$1, %eax
	xorl	%ecx, %ecx
	cmpq	$0, %rdx
	cmoveq	%rcx, %rax
	cmpq	$1, %rax
	jne	LBB165_6
	.loc	33 2261 24
	movq	-104(%rbp), %rax
	movq	%rax, -24(%rbp)
	.loc	33 2262 23 is_stmt 1
	movb	$0, -57(%rbp)
	movq	-112(%rbp), %rcx
	.loc	33 2262 21 is_stmt 0
	movq	%rcx, -80(%rbp)
	movq	%rax, -72(%rbp)
	movq	-80(%rbp), %rsi
	movq	-72(%rbp), %rdx
Ltmp773:
	leaq	-136(%rbp), %rdi
	callq	__ZN4core4iter8adapters6copied13copy_try_fold28_$u7b$$u7b$closure$u7d$$u7d$17h56c07a63d258c929E
Ltmp774:
	movq	%rdx, -168(%rbp)
	movq	%rax, -160(%rbp)
	jmp	LBB165_10
Ltmp784:
LBB165_6:
	.loc	33 2261 9 is_stmt 1
	jmp	LBB165_7
LBB165_7:
	.loc	33 2264 15
	movb	$0, -57(%rbp)
	movq	-112(%rbp), %rdi
Ltmp771:
	callq	__ZN95_$LT$core..ops..control_flow..ControlFlow$LT$B$C$C$GT$$u20$as$u20$core..ops..try_trait..Try$GT$11from_output17h1337b74fda90e23dE
Ltmp772:
	movq	%rdx, -184(%rbp)
	movq	%rax, -176(%rbp)
	jmp	LBB165_8
LBB165_8:
	.loc	33 0 15 is_stmt 0
	movq	-184(%rbp), %rax
	movq	-176(%rbp), %rcx
	.loc	33 2264 15
	movq	%rcx, -128(%rbp)
	movq	%rax, -120(%rbp)
Ltmp785:
LBB165_9:
	.loc	33 2265 6 is_stmt 1
	movq	-128(%rbp), %rax
	movq	-120(%rbp), %rdx
	addq	$224, %rsp
	popq	%rbp
	retq
LBB165_10:
Ltmp775:
	.loc	33 0 6 is_stmt 0
	movq	-168(%rbp), %rsi
	movq	-160(%rbp), %rdi
Ltmp786:
	.loc	33 2262 21 is_stmt 1
	callq	__ZN95_$LT$core..ops..control_flow..ControlFlow$LT$B$C$C$GT$$u20$as$u20$core..ops..try_trait..Try$GT$6branch17hb329f5fecfba26b4E
Ltmp776:
	movq	%rdx, -200(%rbp)
	movq	%rax, -192(%rbp)
	jmp	LBB165_11
LBB165_11:
	.loc	33 0 21 is_stmt 0
	movq	-200(%rbp), %rax
	movq	-192(%rbp), %rcx
	.loc	33 2262 21
	movq	%rcx, -96(%rbp)
	movq	%rax, -88(%rbp)
	cmpq	$0, -96(%rbp)
	jne	LBB165_13
	movq	-88(%rbp), %rax
	movq	%rax, -8(%rbp)
	.loc	33 2262 13
	movb	$1, -57(%rbp)
	movq	%rax, -112(%rbp)
Ltmp787:
	.loc	33 2261 9 is_stmt 1
	jmp	LBB165_1
LBB165_13:
Ltmp788:
	.loc	33 2262 32
	movq	-88(%rbp), %rdi
	movq	%rdi, -16(%rbp)
Ltmp777:
Ltmp789:
	.loc	33 2262 21 is_stmt 0
	callq	__ZN104_$LT$core..ops..control_flow..ControlFlow$LT$B$C$C$GT$$u20$as$u20$core..ops..try_trait..FromResidual$GT$13from_residual17hc2227c3f8ea51192E
Ltmp778:
	movq	%rdx, -216(%rbp)
	movq	%rax, -208(%rbp)
	jmp	LBB165_14
LBB165_14:
	.loc	33 0 21
	movq	-216(%rbp), %rax
	movq	-208(%rbp), %rcx
	.loc	33 2262 21
	movq	%rcx, -128(%rbp)
	movq	%rax, -120(%rbp)
Ltmp790:
	.loc	33 2265 5 is_stmt 1
	jmp	LBB165_9
LBB165_15:
	.loc	33 2254 5
	movq	-40(%rbp), %rdi
	callq	__Unwind_Resume
LBB165_16:
	.loc	33 2265 5
	jmp	LBB165_15
Ltmp791:
Lfunc_end165:
	.cfi_endproc
	.section	__TEXT,__gcc_except_tab
	.p2align	2
GCC_except_table165:
Lexception9:
	.byte	255
	.byte	255
	.byte	1
	.uleb128 Lcst_end9-Lcst_begin9
Lcst_begin9:
	.uleb128 Ltmp769-Lfunc_begin165
	.uleb128 Ltmp778-Ltmp769
	.uleb128 Ltmp779-Lfunc_begin165
	.byte	0
	.uleb128 Ltmp778-Lfunc_begin165
	.uleb128 Lfunc_end165-Ltmp778
	.byte	0
	.byte	0
Lcst_end9:
	.p2align	2

	.section	__TEXT,__text,regular,pure_instructions
	.globl	__ZN4core4iter6traits8iterator8Iterator9rposition17h6e7ff7cd84be4aabE
	.p2align	4, 0x90
__ZN4core4iter6traits8iterator8Iterator9rposition17h6e7ff7cd84be4aabE:
Lfunc_begin166:
	.loc	33 2938 0
	.cfi_startproc
	.cfi_personality 155, _rust_eh_personality
	.cfi_lsda 16, Lexception10
	pushq	%rbp
	.cfi_def_cfa_offset 16
	.cfi_offset %rbp, -16
	movq	%rsp, %rbp
	.cfi_def_cfa_register %rbp
	subq	$128, %rsp
	movq	%rdi, -96(%rbp)
Ltmp797:
	.loc	33 2955 13 prologue_end
	movb	$1, -49(%rbp)
Ltmp792:
	leaq	-96(%rbp), %rdi
	.loc	33 2955 17 is_stmt 0
	callq	__ZN83_$LT$$RF$mut$u20$I$u20$as$u20$core..iter..traits..exact_size..ExactSizeIterator$GT$3len17h1e9baf72d2cc0f90E
Ltmp793:
	movq	%rax, -104(%rbp)
	jmp	LBB166_3
LBB166_1:
	.loc	33 2957 5 is_stmt 1
	testb	$1, -49(%rbp)
	jne	LBB166_6
	jmp	LBB166_5
LBB166_2:
Ltmp796:
	.loc	33 0 5 is_stmt 0
	movq	%rax, %rcx
	movl	%edx, %eax
	movq	%rcx, -32(%rbp)
	movl	%eax, -24(%rbp)
	jmp	LBB166_1
LBB166_3:
	movq	-104(%rbp), %rsi
	.loc	33 2955 17 is_stmt 1
	movq	%rsi, -16(%rbp)
Ltmp798:
	.loc	33 2956 9
	movq	-96(%rbp), %rdi
	.loc	33 2956 33 is_stmt 0
	movb	$0, -49(%rbp)
Ltmp794:
	.loc	33 2956 9
	callq	__ZN119_$LT$core..iter..adapters..copied..Copied$LT$I$GT$$u20$as$u20$core..iter..traits..double_ended..DoubleEndedIterator$GT$9try_rfold17h85b4b286189b7993E
Ltmp795:
	movq	%rdx, -120(%rbp)
	movq	%rax, -112(%rbp)
	jmp	LBB166_4
LBB166_4:
	.loc	33 0 9
	movq	-120(%rbp), %rax
	movq	-112(%rbp), %rcx
	.loc	33 2956 9
	movq	%rcx, -72(%rbp)
	movq	%rax, -64(%rbp)
Ltmp799:
	.loc	3 184 9 is_stmt 1
	cmpq	$0, -72(%rbp)
	je	LBB166_7
	jmp	LBB166_8
Ltmp800:
LBB166_5:
	.loc	33 2938 5
	movq	-32(%rbp), %rdi
	callq	__Unwind_Resume
LBB166_6:
	.loc	33 2957 5
	jmp	LBB166_5
LBB166_7:
Ltmp801:
	.loc	3 185 42
	movq	$0, -88(%rbp)
	jmp	LBB166_9
LBB166_8:
	.loc	3 186 32
	movq	-64(%rbp), %rax
	movq	%rax, -8(%rbp)
Ltmp802:
	.loc	3 186 38 is_stmt 0
	movq	%rax, -80(%rbp)
	movq	$1, -88(%rbp)
Ltmp803:
LBB166_9:
	.loc	33 2957 6 is_stmt 1
	movq	-88(%rbp), %rax
	movq	-80(%rbp), %rdx
	addq	$128, %rsp
	popq	%rbp
	retq
Ltmp804:
Lfunc_end166:
	.cfi_endproc
	.section	__TEXT,__gcc_except_tab
	.p2align	2
GCC_except_table166:
Lexception10:
	.byte	255
	.byte	255
	.byte	1
	.uleb128 Lcst_end10-Lcst_begin10
Lcst_begin10:
	.uleb128 Ltmp792-Lfunc_begin166
	.uleb128 Ltmp795-Ltmp792
	.uleb128 Ltmp796-Lfunc_begin166
	.byte	0
	.uleb128 Ltmp795-Lfunc_begin166
	.uleb128 Lfunc_end166-Ltmp795
	.byte	0
	.byte	0
Lcst_end10:
	.p2align	2

	.section	__TEXT,__text,regular,pure_instructions
	.globl	__ZN4core4iter6traits8iterator8Iterator9rposition5check28_$u7b$$u7b$closure$u7d$$u7d$17hbdda1b6253dc3936E
	.p2align	4, 0x90
__ZN4core4iter6traits8iterator8Iterator9rposition5check28_$u7b$$u7b$closure$u7d$$u7d$17hbdda1b6253dc3936E:
Lfunc_begin167:
	.loc	33 2949 0
	.cfi_startproc
	pushq	%rbp
	.cfi_def_cfa_offset 16
	.cfi_offset %rbp, -16
	movq	%rsp, %rbp
	.cfi_def_cfa_register %rbp
	subq	$64, %rsp
	movb	%dl, %al
	movq	%rdi, -32(%rbp)
	movq	%rsi, -24(%rbp)
	movb	%al, -9(%rbp)
Ltmp805:
	.loc	33 2950 25 prologue_end
	subq	$1, %rsi
	movq	%rsi, -64(%rbp)
	movq	%rsi, -8(%rbp)
Ltmp806:
	.loc	33 2951 20
	movb	%al, -33(%rbp)
	movzbl	-33(%rbp), %esi
	callq	__ZN4core3ops8function5FnMut8call_mut17h4933aeb0cb35b1e7E
	testb	$1, %al
	jne	LBB167_2
	.loc	33 0 20 is_stmt 0
	movq	-64(%rbp), %rax
	.loc	33 2951 66
	movq	%rax, -48(%rbp)
	movq	$0, -56(%rbp)
	.loc	33 2951 17
	jmp	LBB167_3
LBB167_2:
	.loc	33 0 17
	movq	-64(%rbp), %rax
	.loc	33 2951 35
	movq	%rax, -48(%rbp)
	movq	$1, -56(%rbp)
Ltmp807:
LBB167_3:
	.loc	33 2952 14 is_stmt 1
	movq	-56(%rbp), %rax
	movq	-48(%rbp), %rdx
	addq	$64, %rsp
	popq	%rbp
	retq
Ltmp808:
Lfunc_end167:
	.cfi_endproc

	.globl	__ZN4core4iter8adapters3map16Map$LT$I$C$F$GT$3new17hc26891cd95602c40E
	.p2align	4, 0x90
__ZN4core4iter8adapters3map16Map$LT$I$C$F$GT$3new17hc26891cd95602c40E:
Lfunc_begin168:
	.loc	1 68 0
	.cfi_startproc
	pushq	%rbp
	.cfi_def_cfa_offset 16
	.cfi_offset %rbp, -16
	movq	%rsp, %rbp
	.cfi_def_cfa_register %rbp
	subq	$32, %rsp
	movq	%rdi, %rax
Ltmp809:
	.loc	1 69 15 prologue_end
	movq	(%rsi), %rcx
	movq	%rcx, -32(%rbp)
	movq	8(%rsi), %rcx
	movq	%rcx, -24(%rbp)
	movq	16(%rsi), %rcx
	movq	%rcx, -16(%rbp)
	.loc	1 69 9 is_stmt 0
	movq	-32(%rbp), %rcx
	movq	%rcx, (%rdi)
	movq	-24(%rbp), %rcx
	movq	%rcx, 8(%rdi)
	movq	-16(%rbp), %rcx
	movq	%rcx, 16(%rdi)
	.loc	1 70 6 is_stmt 1
	addq	$32, %rsp
	popq	%rbp
	retq
Ltmp810:
Lfunc_end168:
	.cfi_endproc

	.globl	__ZN4core4iter8adapters3map8map_fold17h559a346fdb2d7f88E
	.p2align	4, 0x90
__ZN4core4iter8adapters3map8map_fold17h559a346fdb2d7f88E:
Lfunc_begin169:
	.loc	1 80 0
	.cfi_startproc
	pushq	%rbp
	.cfi_def_cfa_offset 16
	.cfi_offset %rbp, -16
	movq	%rsp, %rbp
	.cfi_def_cfa_register %rbp
Ltmp811:
	.loc	1 85 2 prologue_end
	popq	%rbp
	retq
Ltmp812:
Lfunc_end169:
	.cfi_endproc

	.globl	__ZN4core4iter8adapters3map8map_fold28_$u7b$$u7b$closure$u7d$$u7d$17h941e1ff1b1927ba9E
	.p2align	4, 0x90
__ZN4core4iter8adapters3map8map_fold28_$u7b$$u7b$closure$u7d$$u7d$17h941e1ff1b1927ba9E:
Lfunc_begin170:
	.loc	1 84 0
	.cfi_startproc
	.cfi_personality 155, _rust_eh_personality
	.cfi_lsda 16, Lexception11
	pushq	%rbp
	.cfi_def_cfa_offset 16
	.cfi_offset %rbp, -16
	movq	%rsp, %rbp
	.cfi_def_cfa_register %rbp
	subq	$112, %rsp
	movq	%rdi, -96(%rbp)
	movq	%rsi, -88(%rbp)
	movq	%rdi, -40(%rbp)
	movq	%rsi, -32(%rbp)
	movq	%rdx, -24(%rbp)
Ltmp818:
	.loc	1 84 23 prologue_end
	movb	$1, -41(%rbp)
	.loc	1 84 28 is_stmt 0
	movq	%rdx, -56(%rbp)
	movq	-56(%rbp), %rsi
Ltmp813:
	callq	__ZN4core3ops8function5FnMut8call_mut17ha75b426901391766E
Ltmp814:
	movq	%rax, -80(%rbp)
	jmp	LBB170_3
LBB170_1:
	.loc	1 84 34
	testb	$1, -41(%rbp)
	jne	LBB170_6
	jmp	LBB170_5
LBB170_2:
Ltmp817:
	.loc	1 0 34
	movq	%rax, %rcx
	movl	%edx, %eax
	movq	%rcx, -16(%rbp)
	movl	%eax, -8(%rbp)
	jmp	LBB170_1
LBB170_3:
	movq	-96(%rbp), %rdi
	movq	-80(%rbp), %rax
	movq	-88(%rbp), %rcx
	.loc	1 84 21
	movb	$0, -41(%rbp)
	movq	%rcx, -72(%rbp)
	movq	%rax, -64(%rbp)
	movq	-72(%rbp), %rsi
	movq	-64(%rbp), %rdx
Ltmp815:
	callq	__ZN56_$LT$usize$u20$as$u20$core..iter..traits..accum..Sum$GT$3sum28_$u7b$$u7b$closure$u7d$$u7d$17hae250a16620853c7E
Ltmp816:
	movq	%rax, -104(%rbp)
	jmp	LBB170_4
LBB170_4:
	.loc	1 0 21
	movq	-104(%rbp), %rax
	.loc	1 84 35
	addq	$112, %rsp
	popq	%rbp
	retq
LBB170_5:
	.loc	1 84 5
	movq	-16(%rbp), %rdi
	callq	__Unwind_Resume
LBB170_6:
	.loc	1 84 34
	jmp	LBB170_5
Ltmp819:
Lfunc_end170:
	.cfi_endproc
	.section	__TEXT,__gcc_except_tab
	.p2align	2
GCC_except_table170:
Lexception11:
	.byte	255
	.byte	255
	.byte	1
	.uleb128 Lcst_end11-Lcst_begin11
Lcst_begin11:
	.uleb128 Ltmp813-Lfunc_begin170
	.uleb128 Ltmp816-Ltmp813
	.uleb128 Ltmp817-Lfunc_begin170
	.byte	0
	.uleb128 Ltmp816-Lfunc_begin170
	.uleb128 Lfunc_end170-Ltmp816
	.byte	0
	.byte	0
Lcst_end11:
	.p2align	2

	.section	__TEXT,__text,regular,pure_instructions
	.globl	__ZN4core4iter8adapters6copied13copy_try_fold17h216d91014e69b7feE
	.p2align	4, 0x90
__ZN4core4iter8adapters6copied13copy_try_fold17h216d91014e69b7feE:
Lfunc_begin171:
	.loc	2 34 0 is_stmt 1
	.cfi_startproc
	pushq	%rbp
	.cfi_def_cfa_offset 16
	.cfi_offset %rbp, -16
	movq	%rsp, %rbp
	.cfi_def_cfa_register %rbp
Ltmp820:
	.loc	2 36 2 prologue_end
	popq	%rbp
	retq
Ltmp821:
Lfunc_end171:
	.cfi_endproc

	.globl	__ZN4core4iter8adapters6copied13copy_try_fold17hf95c50be5f160211E
	.p2align	4, 0x90
__ZN4core4iter8adapters6copied13copy_try_fold17hf95c50be5f160211E:
Lfunc_begin172:
	.loc	2 34 0
	.cfi_startproc
	pushq	%rbp
	.cfi_def_cfa_offset 16
	.cfi_offset %rbp, -16
	movq	%rsp, %rbp
	.cfi_def_cfa_register %rbp
Ltmp822:
	.loc	2 36 2 prologue_end
	popq	%rbp
	retq
Ltmp823:
Lfunc_end172:
	.cfi_endproc

	.globl	__ZN4core4iter8adapters6copied13copy_try_fold28_$u7b$$u7b$closure$u7d$$u7d$17h56c07a63d258c929E
	.p2align	4, 0x90
__ZN4core4iter8adapters6copied13copy_try_fold28_$u7b$$u7b$closure$u7d$$u7d$17h56c07a63d258c929E:
Lfunc_begin173:
	.loc	2 35 0
	.cfi_startproc
	pushq	%rbp
	.cfi_def_cfa_offset 16
	.cfi_offset %rbp, -16
	movq	%rsp, %rbp
	.cfi_def_cfa_register %rbp
	subq	$48, %rsp
	movq	%rdi, -32(%rbp)
	movq	%rsi, -24(%rbp)
	movq	%rdx, -16(%rbp)
Ltmp824:
	.loc	2 35 17 prologue_end
	movb	(%rdx), %al
	movb	%al, -1(%rbp)
Ltmp825:
	.loc	2 35 22 is_stmt 0
	movq	%rsi, -48(%rbp)
	movb	%al, -40(%rbp)
	movq	-48(%rbp), %rsi
	movl	-40(%rbp), %edx
	callq	__ZN4core4iter6traits8iterator8Iterator8position5check28_$u7b$$u7b$closure$u7d$$u7d$17h1455941a5417d9b9E
Ltmp826:
	.loc	2 35 33
	addq	$48, %rsp
	popq	%rbp
	retq
Ltmp827:
Lfunc_end173:
	.cfi_endproc

	.globl	__ZN4core4iter8adapters6copied13copy_try_fold28_$u7b$$u7b$closure$u7d$$u7d$17hf6ca5e6f1c6e6eacE
	.p2align	4, 0x90
__ZN4core4iter8adapters6copied13copy_try_fold28_$u7b$$u7b$closure$u7d$$u7d$17hf6ca5e6f1c6e6eacE:
Lfunc_begin174:
	.loc	2 35 0 is_stmt 1
	.cfi_startproc
	pushq	%rbp
	.cfi_def_cfa_offset 16
	.cfi_offset %rbp, -16
	movq	%rsp, %rbp
	.cfi_def_cfa_register %rbp
	subq	$48, %rsp
	movq	%rdi, -32(%rbp)
	movq	%rsi, -24(%rbp)
	movq	%rdx, -16(%rbp)
Ltmp828:
	.loc	2 35 17 prologue_end
	movb	(%rdx), %al
	movb	%al, -1(%rbp)
Ltmp829:
	.loc	2 35 22 is_stmt 0
	movq	%rsi, -48(%rbp)
	movb	%al, -40(%rbp)
	movq	-48(%rbp), %rsi
	movl	-40(%rbp), %edx
	callq	__ZN4core4iter6traits8iterator8Iterator9rposition5check28_$u7b$$u7b$closure$u7d$$u7d$17hbdda1b6253dc3936E
Ltmp830:
	.loc	2 35 33
	addq	$48, %rsp
	popq	%rbp
	retq
Ltmp831:
Lfunc_end174:
	.cfi_endproc

	.globl	__ZN4core4iter8adapters6copied15Copied$LT$I$GT$3new17h1b68de6f9c8cc974E
	.p2align	4, 0x90
__ZN4core4iter8adapters6copied15Copied$LT$I$GT$3new17h1b68de6f9c8cc974E:
Lfunc_begin175:
	.loc	2 25 0 is_stmt 1
	.cfi_startproc
	pushq	%rbp
	.cfi_def_cfa_offset 16
	.cfi_offset %rbp, -16
	movq	%rsp, %rbp
	.cfi_def_cfa_register %rbp
	subq	$32, %rsp
	movq	%rdi, -16(%rbp)
	movq	%rsi, -8(%rbp)
Ltmp832:
	.loc	2 26 9 prologue_end
	movq	%rdi, -32(%rbp)
	movq	%rsi, -24(%rbp)
	.loc	2 27 6
	movq	-32(%rbp), %rax
	movq	-24(%rbp), %rdx
	addq	$32, %rsp
	popq	%rbp
	retq
Ltmp833:
Lfunc_end175:
	.cfi_endproc

	.p2align	4, 0x90
__ZN4core5alloc6layout6Layout5array5inner17h44d30db43abc8bd1E:
Lfunc_begin176:
	.file	34 "/rustc/2c8cc343237b8f7d5a3c3703e3a87f2eb2c54a74/library/core/src/alloc" "layout.rs"
	.loc	34 441 0
	.cfi_startproc
	pushq	%rbp
	.cfi_def_cfa_offset 16
	.cfi_offset %rbp, -16
	movq	%rsp, %rbp
	.cfi_def_cfa_register %rbp
	subq	$176, %rsp
	movq	%rdi, -168(%rbp)
	movq	%rsi, -160(%rbp)
	movq	%rdx, -152(%rbp)
	movq	%rdi, -88(%rbp)
	movq	%rsi, -80(%rbp)
	movq	%rdx, -72(%rbp)
Ltmp834:
	.loc	34 452 16 prologue_end
	cmpq	$0, %rdi
	jne	LBB176_2
	movb	$0, -121(%rbp)
	jmp	LBB176_5
LBB176_2:
	.loc	34 0 16 is_stmt 0
	movq	-168(%rbp), %rax
	movq	-160(%rbp), %rcx
	.loc	34 452 68
	movq	%rcx, -64(%rbp)
Ltmp835:
	.loc	34 93 32 is_stmt 1
	movq	%rcx, -56(%rbp)
Ltmp836:
	.file	35 "/rustc/2c8cc343237b8f7d5a3c3703e3a87f2eb2c54a74/library/core/src/ptr" "alignment.rs"
	.loc	35 97 9
	movq	%rcx, -104(%rbp)
	movq	-104(%rbp), %rdx
Ltmp837:
	.loc	34 93 31
	subq	$1, %rdx
	.loc	34 93 9 is_stmt 0
	movabsq	$9223372036854775807, %rcx
	subq	%rdx, %rcx
	movq	%rcx, -176(%rbp)
Ltmp838:
	.loc	34 452 41 is_stmt 1
	cmpq	$0, %rax
	sete	%al
	testb	$1, %al
	jne	LBB176_4
	.loc	34 0 41 is_stmt 0
	movq	-168(%rbp), %rcx
	movq	-176(%rbp), %rax
	.loc	34 452 41
	xorl	%edx, %edx
	divq	%rcx
	movq	%rax, %rcx
	movq	-152(%rbp), %rax
	.loc	34 452 37
	cmpq	%rcx, %rax
	seta	%al
	.loc	34 452 16
	andb	$1, %al
	movb	%al, -121(%rbp)
	jmp	LBB176_5
LBB176_4:
	.loc	34 452 41
	leaq	_str.1(%rip), %rdi
	leaq	l___unnamed_15(%rip), %rdx
	movl	$25, %esi
	callq	__ZN4core9panicking5panic17hc1bc45270cf64b03E
LBB176_5:
	.loc	34 452 16
	testb	$1, -121(%rbp)
	jne	LBB176_7
	.loc	34 0 16
	movq	-160(%rbp), %rax
	movq	-152(%rbp), %rdx
	movq	-168(%rbp), %rcx
	.loc	34 456 30 is_stmt 1
	imulq	%rdx, %rcx
	movq	%rcx, -48(%rbp)
Ltmp839:
	.loc	34 461 59
	movq	%rcx, -40(%rbp)
	.loc	34 461 71 is_stmt 0
	movq	%rax, -32(%rbp)
Ltmp840:
	.loc	35 97 9 is_stmt 1
	movq	%rax, -96(%rbp)
	movq	-96(%rbp), %rax
	movq	%rax, -24(%rbp)
Ltmp841:
	.loc	34 120 65
	movq	%rax, -16(%rbp)
Ltmp842:
	.loc	35 89 18
	movq	%rax, -8(%rbp)
	movq	-8(%rbp), %rax
Ltmp843:
	.loc	34 120 18
	movq	%rcx, -120(%rbp)
	movq	%rax, -112(%rbp)
Ltmp844:
	.loc	34 461 22
	movq	-120(%rbp), %rcx
	movq	-112(%rbp), %rax
	movq	%rcx, -144(%rbp)
	movq	%rax, -136(%rbp)
Ltmp845:
	.loc	34 462 10
	jmp	LBB176_8
LBB176_7:
	.loc	34 453 24
	movq	$0, -136(%rbp)
LBB176_8:
	.loc	34 462 10
	movq	-144(%rbp), %rax
	movq	-136(%rbp), %rdx
	addq	$176, %rsp
	popq	%rbp
	retq
Ltmp846:
Lfunc_end176:
	.cfi_endproc

	.globl	__ZN4core5slice29_$LT$impl$u20$$u5b$T$u5d$$GT$18split_at_unchecked17h3c46d8b0cca82c22E
	.p2align	4, 0x90
__ZN4core5slice29_$LT$impl$u20$$u5b$T$u5d$$GT$18split_at_unchecked17h3c46d8b0cca82c22E:
Lfunc_begin177:
	.loc	26 1673 0
	.cfi_startproc
	pushq	%rbp
	.cfi_def_cfa_offset 16
	.cfi_offset %rbp, -16
	movq	%rsp, %rbp
	.cfi_def_cfa_register %rbp
	subq	$272, %rsp
	movq	%rcx, %r9
	movq	%rsi, %rcx
	movq	%rdi, %rax
	movq	%rcx, -208(%rbp)
	movq	%rdx, -200(%rbp)
	movq	%r9, -192(%rbp)
Ltmp847:
	.loc	26 1678 19 prologue_end
	movq	%rdx, -184(%rbp)
Ltmp848:
	.loc	26 1679 19
	movq	%rcx, -176(%rbp)
	movq	%rdx, -168(%rbp)
Ltmp849:
	.loc	26 477 9
	movq	%rcx, -160(%rbp)
Ltmp850:
	.loc	26 1682 34
	movq	%rcx, -152(%rbp)
	.loc	26 1682 39 is_stmt 0
	movq	%r9, -144(%rbp)
Ltmp851:
	.file	36 "/rustc/2c8cc343237b8f7d5a3c3703e3a87f2eb2c54a74/library/core/src/slice" "raw.rs"
	.loc	36 100 37 is_stmt 1
	movq	%rcx, -136(%rbp)
	.loc	36 100 43 is_stmt 0
	movq	%r9, -128(%rbp)
Ltmp852:
	.loc	24 734 20 is_stmt 1
	movq	%rcx, -120(%rbp)
Ltmp853:
	.loc	11 61 9
	movq	%rcx, -112(%rbp)
Ltmp854:
	.loc	24 734 33
	movq	%r9, -104(%rbp)
Ltmp855:
	.loc	12 118 36
	movq	%rcx, -256(%rbp)
	movq	%r9, -248(%rbp)
	.loc	12 118 14 is_stmt 0
	movq	-256(%rbp), %r8
	movq	-248(%rbp), %rsi
	movq	%r8, -272(%rbp)
	movq	%rsi, -264(%rbp)
	movq	-272(%rbp), %r8
	movq	-264(%rbp), %rsi
Ltmp856:
	.loc	26 1682 60 is_stmt 1
	movq	%rcx, -96(%rbp)
	.loc	26 1682 68 is_stmt 0
	movq	%r9, -88(%rbp)
Ltmp857:
	.loc	11 932 18 is_stmt 1
	movq	%rcx, -80(%rbp)
	.loc	11 932 30 is_stmt 0
	movq	%r9, -72(%rbp)
Ltmp858:
	.loc	11 473 18 is_stmt 1
	addq	%r9, %rcx
	movq	%rcx, -64(%rbp)
	movq	-64(%rbp), %rcx
	movq	%rcx, -56(%rbp)
Ltmp859:
	.loc	26 1682 74
	subq	%r9, %rdx
	movq	%rdx, -48(%rbp)
Ltmp860:
	.loc	36 100 37
	movq	%rcx, -40(%rbp)
	.loc	36 100 43 is_stmt 0
	movq	%rdx, -32(%rbp)
Ltmp861:
	.loc	24 734 20 is_stmt 1
	movq	%rcx, -24(%rbp)
Ltmp862:
	.loc	11 61 9
	movq	%rcx, -16(%rbp)
Ltmp863:
	.loc	24 734 33
	movq	%rdx, -8(%rbp)
Ltmp864:
	.loc	12 118 36
	movq	%rcx, -224(%rbp)
	movq	%rdx, -216(%rbp)
	.loc	12 118 14 is_stmt 0
	movq	-224(%rbp), %rdx
	movq	-216(%rbp), %rcx
	movq	%rdx, -240(%rbp)
	movq	%rcx, -232(%rbp)
	movq	-240(%rbp), %rdx
	movq	-232(%rbp), %rcx
Ltmp865:
	.loc	26 1682 18 is_stmt 1
	movq	%r8, (%rdi)
	movq	%rsi, 8(%rdi)
	movq	%rdx, 16(%rdi)
	movq	%rcx, 24(%rdi)
Ltmp866:
	.loc	26 1683 6
	addq	$272, %rsp
	popq	%rbp
	retq
Ltmp867:
Lfunc_end177:
	.cfi_endproc

	.globl	__ZN4core5slice29_$LT$impl$u20$$u5b$T$u5d$$GT$4iter17h7b01b4bba89e7c7aE
	.p2align	4, 0x90
__ZN4core5slice29_$LT$impl$u20$$u5b$T$u5d$$GT$4iter17h7b01b4bba89e7c7aE:
Lfunc_begin178:
	.loc	26 741 0
	.cfi_startproc
	pushq	%rbp
	.cfi_def_cfa_offset 16
	.cfi_offset %rbp, -16
	movq	%rsp, %rbp
	.cfi_def_cfa_register %rbp
	subq	$16, %rsp
	movq	%rdi, -16(%rbp)
	movq	%rsi, -8(%rbp)
Ltmp868:
	.loc	26 742 9 prologue_end
	callq	__ZN4core5slice4iter13Iter$LT$T$GT$3new17h1f2c2c67b80329f6E
	.loc	26 743 6
	addq	$16, %rsp
	popq	%rbp
	retq
Ltmp869:
Lfunc_end178:
	.cfi_endproc

	.globl	__ZN4core5slice29_$LT$impl$u20$$u5b$T$u5d$$GT$8split_at17hdbeee7a423981c5dE
	.p2align	4, 0x90
__ZN4core5slice29_$LT$impl$u20$$u5b$T$u5d$$GT$8split_at17hdbeee7a423981c5dE:
Lfunc_begin179:
	.loc	26 1587 0
	.cfi_startproc
	pushq	%rbp
	.cfi_def_cfa_offset 16
	.cfi_offset %rbp, -16
	movq	%rsp, %rbp
	.cfi_def_cfa_register %rbp
	subq	$80, %rsp
	movq	%r8, -72(%rbp)
	movq	%rcx, -64(%rbp)
	movq	%rdx, -56(%rbp)
	movq	%rsi, -48(%rbp)
	movq	%rdi, -40(%rbp)
	movq	%rdi, -32(%rbp)
	movq	%rsi, -24(%rbp)
	movq	%rdx, -16(%rbp)
	movq	%rcx, -8(%rbp)
Ltmp870:
	.loc	26 1588 17 prologue_end
	cmpq	%rdx, %rcx
	setbe	%al
	.loc	26 1588 9 is_stmt 0
	xorb	$-1, %al
	testb	$1, %al
	jne	LBB179_2
	.loc	26 0 9
	movq	-64(%rbp), %rcx
	movq	-56(%rbp), %rdx
	movq	-48(%rbp), %rsi
	movq	-40(%rbp), %rdi
	.loc	26 1591 18 is_stmt 1
	callq	__ZN4core5slice29_$LT$impl$u20$$u5b$T$u5d$$GT$18split_at_unchecked17h3c46d8b0cca82c22E
	movq	-32(%rbp), %rax
	.loc	26 1592 6
	addq	$80, %rsp
	popq	%rbp
	retq
LBB179_2:
	.loc	26 0 6 is_stmt 0
	movq	-72(%rbp), %rdx
	.loc	26 1588 9 is_stmt 1
	leaq	l___unnamed_16(%rip), %rdi
	movl	$35, %esi
	callq	__ZN4core9panicking5panic17hc1bc45270cf64b03E
Ltmp871:
Lfunc_end179:
	.cfi_endproc

	.globl	__ZN4core5slice4iter13Iter$LT$T$GT$3new17h1f2c2c67b80329f6E
	.p2align	4, 0x90
__ZN4core5slice4iter13Iter$LT$T$GT$3new17h1f2c2c67b80329f6E:
Lfunc_begin180:
	.file	37 "/rustc/2c8cc343237b8f7d5a3c3703e3a87f2eb2c54a74/library/core/src/slice" "iter.rs"
	.loc	37 82 0
	.cfi_startproc
	pushq	%rbp
	.cfi_def_cfa_offset 16
	.cfi_offset %rbp, -16
	movq	%rsp, %rbp
	.cfi_def_cfa_register %rbp
	subq	$280, %rsp
	movq	%rdi, -280(%rbp)
	movq	%rsi, -272(%rbp)
	movq	%rdi, -208(%rbp)
	movq	%rsi, -200(%rbp)
Ltmp872:
	.loc	37 83 19 prologue_end
	movq	%rdi, -184(%rbp)
	movq	%rsi, -176(%rbp)
Ltmp873:
	.loc	26 477 9
	movq	%rdi, -168(%rbp)
Ltmp874:
	.loc	37 86 21
	movq	%rdi, -160(%rbp)
Ltmp875:
	.loc	11 53 36
	movq	%rdi, -232(%rbp)
	.loc	11 53 18 is_stmt 0
	movq	-232(%rbp), %rax
	movq	%rax, -152(%rbp)
Ltmp876:
	.loc	11 39 13 is_stmt 1
	movq	%rax, -144(%rbp)
Ltmp877:
	.loc	11 209 33
	movq	%rax, -136(%rbp)
	.loc	11 209 18 is_stmt 0
	movq	%rax, -128(%rbp)
Ltmp878:
	.loc	37 89 20 is_stmt 1
	xorl	%eax, %eax
	testb	$1, %al
	jne	LBB180_2
	.loc	37 0 20 is_stmt 0
	movq	-272(%rbp), %rcx
	movq	-280(%rbp), %rax
	.loc	37 89 76
	movq	%rax, -40(%rbp)
	.loc	37 89 84
	movq	%rcx, -32(%rbp)
Ltmp879:
	.loc	11 932 18 is_stmt 1
	movq	%rax, -24(%rbp)
	.loc	11 932 30 is_stmt 0
	movq	%rcx, -16(%rbp)
Ltmp880:
	.loc	11 473 18 is_stmt 1
	addq	%rcx, %rax
	movq	%rax, -248(%rbp)
Ltmp881:
	.loc	37 89 17
	jmp	LBB180_3
LBB180_2:
	.loc	37 0 17 is_stmt 0
	movq	-272(%rbp), %rcx
	movq	-280(%rbp), %rax
	.loc	37 89 32
	movq	%rax, -120(%rbp)
	.loc	37 89 54
	movq	%rcx, -112(%rbp)
Ltmp882:
	.loc	11 1118 9 is_stmt 1
	movq	%rax, -104(%rbp)
Ltmp883:
	.loc	11 61 9
	movq	%rax, -96(%rbp)
Ltmp884:
	.loc	11 1118 40
	movq	%rcx, -88(%rbp)
Ltmp885:
	.loc	11 1100 9
	movq	%rax, -80(%rbp)
	.loc	11 1100 30 is_stmt 0
	movq	%rcx, -72(%rbp)
Ltmp886:
	.loc	11 555 18 is_stmt 1
	addq	%rcx, %rax
	movq	%rax, -64(%rbp)
	movq	-64(%rbp), %rax
	movq	%rax, -56(%rbp)
Ltmp887:
	.loc	11 100 29
	movq	%rax, -48(%rbp)
Ltmp888:
	.loc	12 118 36
	movq	%rax, -216(%rbp)
	.loc	12 118 14 is_stmt 0
	movq	-216(%rbp), %rax
	movq	%rax, -224(%rbp)
	movq	-224(%rbp), %rax
	movq	%rax, -248(%rbp)
Ltmp889:
LBB180_3:
	.loc	12 0 14
	movq	-280(%rbp), %rax
Ltmp890:
	.loc	37 91 48 is_stmt 1
	movq	%rax, -8(%rbp)
Ltmp891:
	.loc	9 201 13
	movq	%rax, -240(%rbp)
Ltmp892:
	.loc	37 91 64
	movq	-248(%rbp), %rax
	.loc	37 91 13 is_stmt 0
	movq	-240(%rbp), %rcx
	movq	%rcx, -256(%rbp)
	movq	%rax, -264(%rbp)
Ltmp893:
	.loc	37 93 6 is_stmt 1
	movq	-264(%rbp), %rax
	movq	-256(%rbp), %rdx
	addq	$280, %rsp
	popq	%rbp
	retq
Ltmp894:
Lfunc_end180:
	.cfi_endproc

	.globl	__ZN4core5slice4iter13Iter$LT$T$GT$8as_slice17ha0ce64c56345ffc4E
	.p2align	4, 0x90
__ZN4core5slice4iter13Iter$LT$T$GT$8as_slice17ha0ce64c56345ffc4E:
Lfunc_begin181:
	.loc	37 122 0
	.cfi_startproc
	pushq	%rbp
	.cfi_def_cfa_offset 16
	.cfi_offset %rbp, -16
	movq	%rsp, %rbp
	.cfi_def_cfa_register %rbp
	subq	$224, %rsp
	movq	%rdi, -224(%rbp)
	movq	%rdi, -160(%rbp)
Ltmp895:
	.loc	37 123 9 prologue_end
	movq	%rdi, -152(%rbp)
Ltmp896:
	.loc	8 68 41
	movq	8(%rdi), %rax
	movq	%rax, -216(%rbp)
	movq	%rax, -144(%rbp)
	movq	%rax, -136(%rbp)
	.loc	8 16 21
	movq	8(%rdi), %rax
	movq	%rax, -208(%rbp)
	movq	%rax, -128(%rbp)
Ltmp897:
	.loc	8 17 12
	xorl	%eax, %eax
	testb	$1, %al
	jne	LBB181_2
	.loc	8 0 12 is_stmt 0
	movq	-208(%rbp), %rsi
	movq	-224(%rbp), %rax
	.loc	8 25 22 is_stmt 1
	movq	(%rax), %rdi
	.loc	8 25 40 is_stmt 0
	movq	%rsi, -48(%rbp)
	.loc	8 25 22
	callq	__ZN4core3ptr9const_ptr33_$LT$impl$u20$$BP$const$u20$T$GT$7sub_ptr17h201b3bd7e208bf53E
	movq	%rax, -200(%rbp)
	.loc	8 17 9 is_stmt 1
	jmp	LBB181_3
LBB181_2:
	.loc	8 0 9 is_stmt 0
	movq	-208(%rbp), %rcx
	movq	-224(%rbp), %rax
	.loc	8 20 13 is_stmt 1
	movq	(%rax), %rax
	movq	%rax, -120(%rbp)
Ltmp898:
	.loc	11 209 33
	movq	%rax, -112(%rbp)
	.loc	11 209 18 is_stmt 0
	movq	%rax, -104(%rbp)
	movq	-104(%rbp), %rax
	movq	%rax, -96(%rbp)
Ltmp899:
	.loc	8 20 43 is_stmt 1
	movq	%rcx, -88(%rbp)
Ltmp900:
	.loc	9 326 9
	movq	%rcx, -80(%rbp)
Ltmp901:
	.loc	10 215 33
	movq	%rcx, -72(%rbp)
	.loc	10 215 18 is_stmt 0
	movq	%rcx, -64(%rbp)
	movq	-64(%rbp), %rcx
	movq	%rcx, -56(%rbp)
Ltmp902:
	.loc	21 1203 13 is_stmt 1
	subq	%rcx, %rax
	movq	%rax, -200(%rbp)
Ltmp903:
LBB181_3:
	.loc	21 0 13 is_stmt 0
	movq	-216(%rbp), %rcx
Ltmp904:
	.loc	36 100 37 is_stmt 1
	movq	%rcx, -40(%rbp)
	.loc	36 100 43 is_stmt 0
	movq	-200(%rbp), %rax
	movq	%rax, -32(%rbp)
Ltmp905:
	.loc	24 734 20 is_stmt 1
	movq	%rcx, -24(%rbp)
Ltmp906:
	.loc	11 61 9
	movq	%rcx, -16(%rbp)
Ltmp907:
	.loc	24 734 33
	movq	%rax, -8(%rbp)
Ltmp908:
	.loc	12 118 36
	movq	%rcx, -176(%rbp)
	movq	%rax, -168(%rbp)
	.loc	12 118 14 is_stmt 0
	movq	-176(%rbp), %rcx
	movq	-168(%rbp), %rax
	movq	%rcx, -192(%rbp)
	movq	%rax, -184(%rbp)
	movq	-192(%rbp), %rax
	movq	-184(%rbp), %rdx
Ltmp909:
	.loc	37 124 6 is_stmt 1
	addq	$224, %rsp
	popq	%rbp
	retq
Ltmp910:
Lfunc_end181:
	.cfi_endproc

	.globl	__ZN4core5slice5index5range17h232b453ba043fa4aE
	.p2align	4, 0x90
__ZN4core5slice5index5range17h232b453ba043fa4aE:
Lfunc_begin182:
	.loc	30 693 0
	.cfi_startproc
	.cfi_personality 155, _rust_eh_personality
	.cfi_lsda 16, Lexception12
	pushq	%rbp
	.cfi_def_cfa_offset 16
	.cfi_offset %rbp, -16
	movq	%rsp, %rbp
	.cfi_def_cfa_register %rbp
	subq	$320, %rsp
	movq	%rdx, -240(%rbp)
	movq	%rcx, -232(%rbp)
	movq	%rdi, -208(%rbp)
	movq	%rsi, -200(%rbp)
	movq	%rdx, -96(%rbp)
Ltmp928:
	.loc	30 697 15 prologue_end
	movq	%rdx, -72(%rbp)
Ltmp911:
	leaq	-208(%rbp), %rdi
Ltmp929:
	.loc	30 699 37
	callq	__ZN91_$LT$core..ops..range..Range$LT$T$GT$$u20$as$u20$core..ops..range..RangeBounds$LT$T$GT$$GT$11start_bound17h306fe8832003014aE
Ltmp912:
	movq	%rdx, -224(%rbp)
	movq	%rax, -216(%rbp)
	jmp	LBB182_3
Ltmp930:
LBB182_1:
	.loc	30 693 1
	movq	-64(%rbp), %rdi
	callq	__Unwind_Resume
LBB182_2:
Ltmp927:
	.loc	30 0 1 is_stmt 0
	movq	%rax, %rcx
	movl	%edx, %eax
	movq	%rcx, -64(%rbp)
	movl	%eax, -56(%rbp)
	jmp	LBB182_1
LBB182_3:
	movq	-224(%rbp), %rax
	movq	-216(%rbp), %rcx
Ltmp931:
	.loc	30 699 37 is_stmt 1
	movq	%rcx, -176(%rbp)
	movq	%rax, -168(%rbp)
Ltmp932:
	.loc	30 700 23
	movq	-176(%rbp), %rax
	movq	%rax, -248(%rbp)
	.loc	30 700 17 is_stmt 0
	testq	%rax, %rax
	je	LBB182_5
	jmp	LBB182_30
LBB182_30:
	.loc	30 0 17
	movq	-248(%rbp), %rax
	.loc	30 700 17
	subq	$1, %rax
	je	LBB182_6
	jmp	LBB182_31
LBB182_31:
	jmp	LBB182_7
	.loc	30 700 23
	ud2
LBB182_5:
	.loc	30 701 31 is_stmt 1
	movq	-168(%rbp), %rax
	movq	(%rax), %rax
	movq	%rax, -32(%rbp)
Ltmp933:
	.loc	30 701 41 is_stmt 0
	movq	%rax, -160(%rbp)
Ltmp934:
	.loc	30 701 45
	jmp	LBB182_8
LBB182_6:
	.loc	30 702 30 is_stmt 1
	movq	-168(%rbp), %rax
	movq	%rax, -48(%rbp)
Ltmp935:
	.loc	30 703 13
	movq	(%rax), %rdi
Ltmp913:
	movl	$1, %esi
	callq	__ZN4core3num23_$LT$impl$u20$usize$GT$11checked_add17h574c4e36cf9f7707E
Ltmp914:
	movq	%rdx, -264(%rbp)
	movq	%rax, -256(%rbp)
	jmp	LBB182_9
Ltmp936:
LBB182_7:
	.loc	30 705 34
	movq	$0, -160(%rbp)
LBB182_8:
Ltmp917:
	.loc	30 0 34 is_stmt 0
	leaq	-208(%rbp), %rdi
Ltmp937:
	.loc	30 708 35 is_stmt 1
	callq	__ZN91_$LT$core..ops..range..Range$LT$T$GT$$u20$as$u20$core..ops..range..RangeBounds$LT$T$GT$$GT$9end_bound17hebe36ca1f82402a9E
Ltmp918:
	movq	%rdx, -280(%rbp)
	movq	%rax, -272(%rbp)
	jmp	LBB182_14
Ltmp938:
LBB182_9:
	.loc	30 0 35 is_stmt 0
	movq	-264(%rbp), %rax
	movq	-256(%rbp), %rcx
Ltmp939:
	.loc	30 703 13 is_stmt 1
	movq	%rcx, -152(%rbp)
	movq	%rax, -144(%rbp)
Ltmp940:
	.loc	14 871 9
	cmpq	$0, -152(%rbp)
	jne	LBB182_11
Ltmp915:
	.loc	14 873 21
	callq	__ZN4core5slice5index5range28_$u7b$$u7b$closure$u7d$$u7d$17hcd9a299d31002cfaE
Ltmp916:
	movq	%rax, -288(%rbp)
	jmp	LBB182_13
LBB182_11:
	.loc	14 872 18
	movq	-144(%rbp), %rax
	movq	%rax, -40(%rbp)
Ltmp941:
	.loc	14 872 24 is_stmt 0
	movq	%rax, -160(%rbp)
Ltmp942:
LBB182_12:
	.loc	30 704 9 is_stmt 1
	jmp	LBB182_8
LBB182_13:
	.loc	30 0 9 is_stmt 0
	movq	-288(%rbp), %rax
Ltmp943:
	.loc	14 873 21 is_stmt 1
	movq	%rax, -160(%rbp)
	.loc	14 873 23 is_stmt 0
	jmp	LBB182_12
Ltmp944:
LBB182_14:
	.loc	14 0 23
	movq	-280(%rbp), %rax
	movq	-272(%rbp), %rcx
Ltmp945:
	.loc	30 708 35 is_stmt 1
	movq	%rcx, -136(%rbp)
	movq	%rax, -128(%rbp)
Ltmp946:
	.loc	30 709 21
	movq	-136(%rbp), %rax
	movq	%rax, -296(%rbp)
	.loc	30 709 15 is_stmt 0
	testq	%rax, %rax
	je	LBB182_16
	jmp	LBB182_32
LBB182_32:
	.loc	30 0 15
	movq	-296(%rbp), %rax
	.loc	30 709 15
	subq	$1, %rax
	je	LBB182_17
	jmp	LBB182_33
LBB182_33:
	jmp	LBB182_18
	.loc	30 709 21
	ud2
LBB182_16:
	.loc	30 710 30 is_stmt 1
	movq	-128(%rbp), %rax
	movq	%rax, -16(%rbp)
Ltmp947:
	.loc	30 711 13
	movq	(%rax), %rdi
Ltmp919:
	movl	$1, %esi
	callq	__ZN4core3num23_$LT$impl$u20$usize$GT$11checked_add17h574c4e36cf9f7707E
Ltmp920:
	movq	%rdx, -312(%rbp)
	movq	%rax, -304(%rbp)
	jmp	LBB182_20
Ltmp948:
LBB182_17:
	.loc	30 713 31
	movq	-128(%rbp), %rax
	movq	(%rax), %rax
	movq	%rax, -24(%rbp)
Ltmp949:
	.loc	30 713 39 is_stmt 0
	movq	%rax, -120(%rbp)
Ltmp950:
	.loc	30 713 41
	jmp	LBB182_19
LBB182_18:
	.loc	30 0 41
	movq	-240(%rbp), %rax
	.loc	30 714 34 is_stmt 1
	movq	%rax, -120(%rbp)
LBB182_19:
Ltmp951:
	.loc	30 717 8
	movq	-160(%rbp), %rax
	cmpq	-120(%rbp), %rax
	ja	LBB182_26
	jmp	LBB182_25
Ltmp952:
LBB182_20:
	.loc	30 0 8 is_stmt 0
	movq	-312(%rbp), %rax
	movq	-304(%rbp), %rcx
Ltmp953:
	.loc	30 711 13 is_stmt 1
	movq	%rcx, -112(%rbp)
	movq	%rax, -104(%rbp)
Ltmp954:
	.loc	14 871 9
	cmpq	$0, -112(%rbp)
	jne	LBB182_22
Ltmp921:
	.loc	14 873 21
	callq	__ZN4core5slice5index5range28_$u7b$$u7b$closure$u7d$$u7d$17h5c64726389de25c6E
Ltmp922:
	movq	%rax, -320(%rbp)
	jmp	LBB182_24
LBB182_22:
	.loc	14 872 18
	movq	-104(%rbp), %rax
	movq	%rax, -8(%rbp)
Ltmp955:
	.loc	14 872 24 is_stmt 0
	movq	%rax, -120(%rbp)
Ltmp956:
LBB182_23:
	.loc	30 712 9 is_stmt 1
	jmp	LBB182_19
LBB182_24:
	.loc	30 0 9 is_stmt 0
	movq	-320(%rbp), %rax
Ltmp957:
	.loc	14 873 21 is_stmt 1
	movq	%rax, -120(%rbp)
	.loc	14 873 23 is_stmt 0
	jmp	LBB182_23
Ltmp958:
LBB182_25:
	.loc	14 0 23
	movq	-240(%rbp), %rax
Ltmp959:
	.loc	30 720 8 is_stmt 1
	cmpq	%rax, -120(%rbp)
	ja	LBB182_29
	jmp	LBB182_28
LBB182_26:
	.loc	30 0 8 is_stmt 0
	movq	-232(%rbp), %rdx
	.loc	30 718 32 is_stmt 1
	movq	-160(%rbp), %rdi
	.loc	30 718 39 is_stmt 0
	movq	-120(%rbp), %rsi
Ltmp925:
	.loc	30 718 9
	callq	__ZN4core5slice5index22slice_index_order_fail17h0d8f800a07d5f26eE
Ltmp926:
	jmp	LBB182_27
LBB182_27:
	.loc	30 0 9
	ud2
LBB182_28:
	.loc	30 724 18 is_stmt 1
	movq	-160(%rbp), %rcx
	.loc	30 724 25 is_stmt 0
	movq	-120(%rbp), %rax
	.loc	30 724 5
	movq	%rcx, -192(%rbp)
	movq	%rax, -184(%rbp)
Ltmp960:
	.loc	30 725 2 is_stmt 1
	movq	-192(%rbp), %rax
	movq	-184(%rbp), %rdx
	addq	$320, %rsp
	popq	%rbp
	retq
LBB182_29:
	.loc	30 0 2 is_stmt 0
	movq	-232(%rbp), %rdx
	movq	-240(%rbp), %rsi
Ltmp961:
	.loc	30 721 34 is_stmt 1
	movq	-120(%rbp), %rdi
Ltmp923:
	.loc	30 721 9 is_stmt 0
	callq	__ZN4core5slice5index24slice_end_index_len_fail17hc921cb2f1513645aE
Ltmp924:
	jmp	LBB182_27
Ltmp962:
Lfunc_end182:
	.cfi_endproc
	.section	__TEXT,__gcc_except_tab
	.p2align	2
GCC_except_table182:
Lexception12:
	.byte	255
	.byte	255
	.byte	1
	.uleb128 Lcst_end12-Lcst_begin12
Lcst_begin12:
	.uleb128 Ltmp911-Lfunc_begin182
	.uleb128 Ltmp912-Ltmp911
	.uleb128 Ltmp927-Lfunc_begin182
	.byte	0
	.uleb128 Ltmp912-Lfunc_begin182
	.uleb128 Ltmp913-Ltmp912
	.byte	0
	.byte	0
	.uleb128 Ltmp913-Lfunc_begin182
	.uleb128 Ltmp924-Ltmp913
	.uleb128 Ltmp927-Lfunc_begin182
	.byte	0
Lcst_end12:
	.p2align	2

	.section	__TEXT,__text,regular,pure_instructions
	.globl	__ZN4core5slice5index5range28_$u7b$$u7b$closure$u7d$$u7d$17h5c64726389de25c6E
	.p2align	4, 0x90
__ZN4core5slice5index5range28_$u7b$$u7b$closure$u7d$$u7d$17h5c64726389de25c6E:
Lfunc_begin183:
	.loc	30 711 0 is_stmt 1
	.cfi_startproc
	pushq	%rbp
	.cfi_def_cfa_offset 16
	.cfi_offset %rbp, -16
	movq	%rsp, %rbp
	.cfi_def_cfa_register %rbp
	subq	$16, %rsp
Ltmp963:
	.loc	30 711 50 prologue_end
	leaq	l___unnamed_17(%rip), %rdi
	callq	__ZN4core5slice5index29slice_end_index_overflow_fail17h1d13ef50abb383daE
Ltmp964:
Lfunc_end183:
	.cfi_endproc

	.globl	__ZN4core5slice5index5range28_$u7b$$u7b$closure$u7d$$u7d$17hcd9a299d31002cfaE
	.p2align	4, 0x90
__ZN4core5slice5index5range28_$u7b$$u7b$closure$u7d$$u7d$17hcd9a299d31002cfaE:
Lfunc_begin184:
	.loc	30 703 0
	.cfi_startproc
	pushq	%rbp
	.cfi_def_cfa_offset 16
	.cfi_offset %rbp, -16
	movq	%rsp, %rbp
	.cfi_def_cfa_register %rbp
	subq	$16, %rsp
Ltmp965:
	.loc	30 703 52 prologue_end
	leaq	l___unnamed_18(%rip), %rdi
	callq	__ZN4core5slice5index31slice_start_index_overflow_fail17hc7b0075dfb7ecc80E
Ltmp966:
Lfunc_end184:
	.cfi_endproc

	.globl	__ZN4core6option15Option$LT$T$GT$3map17h0174fe0999ff1110E
	.p2align	4, 0x90
__ZN4core6option15Option$LT$T$GT$3map17h0174fe0999ff1110E:
Lfunc_begin185:
	.loc	14 964 0
	.cfi_startproc
	pushq	%rbp
	.cfi_def_cfa_offset 16
	.cfi_offset %rbp, -16
	movq	%rsp, %rbp
	.cfi_def_cfa_register %rbp
	subq	$80, %rsp
	movq	%rsi, -72(%rbp)
Ltmp967:
	movq	%rdi, -64(%rbp)
Ltmp968:
	.loc	14 969 15 prologue_end
	movb	$1, -9(%rbp)
	movq	-64(%rbp), %rdx
	movl	$1, %eax
	xorl	%ecx, %ecx
	cmpq	$0, %rdx
	cmoveq	%rcx, %rax
	.loc	14 969 9 is_stmt 0
	cmpq	$0, %rax
Ltmp969:
	jne	LBB185_2
Ltmp970:
	.loc	14 971 21 is_stmt 1
	movq	$0, -56(%rbp)
	jmp	LBB185_3
Ltmp971:
LBB185_2:
	.loc	14 0 21 is_stmt 0
	movq	-72(%rbp), %rcx
	.loc	14 970 18 is_stmt 1
	movq	-64(%rbp), %rax
	movq	%rax, -8(%rbp)
Ltmp972:
	.loc	14 970 29 is_stmt 0
	movb	$0, -9(%rbp)
	movq	(%rcx), %rdx
	movq	%rdx, -48(%rbp)
	movq	8(%rcx), %rdx
	movq	%rdx, -40(%rbp)
	movq	16(%rcx), %rcx
	movq	%rcx, -32(%rbp)
	movq	%rax, -24(%rbp)
	movq	-24(%rbp), %rsi
	leaq	-48(%rbp), %rdi
	callq	__ZN5alloc11collections11linked_list19LinkedList$LT$T$GT$14pop_front_node28_$u7b$$u7b$closure$u7d$$u7d$17hf9716f28268a5237E
	.loc	14 970 24
	movq	%rax, -56(%rbp)
Ltmp973:
LBB185_3:
	.loc	14 973 5 is_stmt 1
	testb	$1, -9(%rbp)
	jne	LBB185_5
Ltmp974:
LBB185_4:
	.loc	14 973 6 is_stmt 0
	movq	-56(%rbp), %rax
	addq	$80, %rsp
	popq	%rbp
	retq
Ltmp975:
LBB185_5:
	.loc	14 973 5
	jmp	LBB185_4
Ltmp976:
Lfunc_end185:
	.cfi_endproc

	.globl	__ZN4core6option15Option$LT$T$GT$3map17h0dcebdd8255bb0faE
	.p2align	4, 0x90
__ZN4core6option15Option$LT$T$GT$3map17h0dcebdd8255bb0faE:
Lfunc_begin186:
	.loc	14 964 0 is_stmt 1
	.cfi_startproc
	pushq	%rbp
	.cfi_def_cfa_offset 16
	.cfi_offset %rbp, -16
	movq	%rsp, %rbp
	.cfi_def_cfa_register %rbp
	subq	$80, %rsp
	movq	%rsi, -72(%rbp)
	movq	%rdx, -64(%rbp)
	movq	%rdi, -56(%rbp)
	movq	%rsi, -24(%rbp)
	movq	%rdx, -16(%rbp)
Ltmp977:
	.loc	14 969 15 prologue_end
	movb	$1, -25(%rbp)
	movq	-56(%rbp), %rdx
	movl	$1, %eax
	xorl	%ecx, %ecx
	cmpq	$0, %rdx
	cmoveq	%rcx, %rax
	.loc	14 969 9 is_stmt 0
	cmpq	$0, %rax
	jne	LBB186_2
	.loc	14 971 21 is_stmt 1
	movq	$0, -48(%rbp)
	jmp	LBB186_3
LBB186_2:
	.loc	14 0 21 is_stmt 0
	movq	-64(%rbp), %rsi
	movq	-72(%rbp), %rdi
	.loc	14 970 18 is_stmt 1
	movq	-56(%rbp), %rax
	movq	%rax, -8(%rbp)
Ltmp978:
	.loc	14 970 29 is_stmt 0
	movb	$0, -25(%rbp)
	movq	%rax, -40(%rbp)
	movq	-40(%rbp), %rdx
	callq	__ZN105_$LT$alloc..collections..linked_list..Iter$LT$T$GT$$u20$as$u20$core..iter..traits..iterator..Iterator$GT$4next28_$u7b$$u7b$closure$u7d$$u7d$17h1e92bc28df3ec388E
	.loc	14 970 24
	movq	%rax, -48(%rbp)
Ltmp979:
LBB186_3:
	.loc	14 973 5 is_stmt 1
	testb	$1, -25(%rbp)
	jne	LBB186_5
LBB186_4:
	.loc	14 973 6 is_stmt 0
	movq	-48(%rbp), %rax
	addq	$80, %rsp
	popq	%rbp
	retq
LBB186_5:
	.loc	14 973 5
	jmp	LBB186_4
Ltmp980:
Lfunc_end186:
	.cfi_endproc

	.globl	__ZN4core6option15Option$LT$T$GT$3map17heaa25081a70e9035E
	.p2align	4, 0x90
__ZN4core6option15Option$LT$T$GT$3map17heaa25081a70e9035E:
Lfunc_begin187:
	.loc	14 964 0 is_stmt 1
	.cfi_startproc
	pushq	%rbp
	.cfi_def_cfa_offset 16
	.cfi_offset %rbp, -16
	movq	%rsp, %rbp
	.cfi_def_cfa_register %rbp
	subq	$80, %rsp
	movq	%rdi, -80(%rbp)
	movq	%rdi, -72(%rbp)
	movq	%rsi, -64(%rbp)
Ltmp981:
	.loc	14 969 15 prologue_end
	movb	$1, -17(%rbp)
	movq	-64(%rbp), %rdx
	movl	$1, %eax
	xorl	%ecx, %ecx
	cmpq	$0, %rdx
	cmoveq	%rcx, %rax
	.loc	14 969 9 is_stmt 0
	cmpq	$0, %rax
	jne	LBB187_2
	.loc	14 0 9
	movq	-80(%rbp), %rax
	.loc	14 971 21 is_stmt 1
	movq	$0, 8(%rax)
	jmp	LBB187_3
LBB187_2:
	.loc	14 970 18
	movq	-64(%rbp), %rax
	movq	%rax, -8(%rbp)
Ltmp982:
	.loc	14 970 29 is_stmt 0
	movb	$0, -17(%rbp)
	movq	%rax, -32(%rbp)
	movq	-32(%rbp), %rsi
	leaq	-56(%rbp), %rdi
	callq	__ZN4core3ops8function6FnOnce9call_once17haeebe8590f37c95cE
	movq	-80(%rbp), %rax
	.loc	14 970 24
	movq	-56(%rbp), %rcx
	movq	%rcx, (%rax)
	movq	-48(%rbp), %rcx
	movq	%rcx, 8(%rax)
	movq	-40(%rbp), %rcx
	movq	%rcx, 16(%rax)
Ltmp983:
LBB187_3:
	.loc	14 973 5 is_stmt 1
	testb	$1, -17(%rbp)
	jne	LBB187_5
LBB187_4:
	.loc	14 0 5 is_stmt 0
	movq	-72(%rbp), %rax
	.loc	14 973 6
	addq	$80, %rsp
	popq	%rbp
	retq
LBB187_5:
	.loc	14 973 5
	jmp	LBB187_4
Ltmp984:
Lfunc_end187:
	.cfi_endproc

	.globl	__ZN4core6option15Option$LT$T$GT$9unwrap_or17h1c9eaec7b9a4d3baE
	.p2align	4, 0x90
__ZN4core6option15Option$LT$T$GT$9unwrap_or17h1c9eaec7b9a4d3baE:
Lfunc_begin188:
	.loc	14 844 0 is_stmt 1
	.cfi_startproc
	pushq	%rbp
	.cfi_def_cfa_offset 16
	.cfi_offset %rbp, -16
	movq	%rsp, %rbp
	.cfi_def_cfa_register %rbp
	subq	$56, %rsp
	movq	%rdx, -56(%rbp)
	movq	%rdi, -48(%rbp)
	movq	%rsi, -40(%rbp)
	movq	%rdx, -16(%rbp)
Ltmp985:
	.loc	14 848 15 prologue_end
	movb	$1, -17(%rbp)
	.loc	14 848 9 is_stmt 0
	cmpq	$0, -48(%rbp)
	jne	LBB188_2
	.loc	14 0 9
	movq	-56(%rbp), %rax
	.loc	14 850 21 is_stmt 1
	movb	$0, -17(%rbp)
	movq	%rax, -32(%rbp)
	jmp	LBB188_3
LBB188_2:
	.loc	14 849 18
	movq	-40(%rbp), %rax
	movq	%rax, -8(%rbp)
Ltmp986:
	.loc	14 849 24 is_stmt 0
	movq	%rax, -32(%rbp)
Ltmp987:
LBB188_3:
	.loc	14 852 5 is_stmt 1
	testb	$1, -17(%rbp)
	jne	LBB188_5
LBB188_4:
	.loc	14 852 6 is_stmt 0
	movq	-32(%rbp), %rax
	addq	$56, %rsp
	popq	%rbp
	retq
LBB188_5:
	.loc	14 852 5
	jmp	LBB188_4
Ltmp988:
Lfunc_end188:
	.cfi_endproc

	.globl	__ZN4core6result19Result$LT$T$C$E$GT$2ok17h543d89ae0751913eE
	.p2align	4, 0x90
__ZN4core6result19Result$LT$T$C$E$GT$2ok17h543d89ae0751913eE:
Lfunc_begin189:
	.file	38 "/rustc/2c8cc343237b8f7d5a3c3703e3a87f2eb2c54a74/library/core/src" "result.rs"
	.loc	38 642 0 is_stmt 1
	.cfi_startproc
	pushq	%rbp
	.cfi_def_cfa_offset 16
	.cfi_offset %rbp, -16
	movq	%rsp, %rbp
	.cfi_def_cfa_register %rbp
	subq	$48, %rsp
	movq	%rdi, -48(%rbp)
	movq	%rsi, -40(%rbp)
Ltmp989:
	.loc	38 646 9 prologue_end
	cmpq	$0, -48(%rbp)
	jne	LBB189_2
	.loc	38 647 16
	movq	-40(%rbp), %rax
	movq	%rax, -8(%rbp)
Ltmp990:
	.loc	38 647 22 is_stmt 0
	movq	%rax, -24(%rbp)
	movq	$1, -32(%rbp)
Ltmp991:
	.loc	38 647 28
	jmp	LBB189_3
LBB189_2:
Ltmp992:
	.loc	38 650 23 is_stmt 1
	movq	$0, -32(%rbp)
Ltmp993:
LBB189_3:
	.loc	38 652 6
	movq	-32(%rbp), %rax
	movq	-24(%rbp), %rdx
	addq	$48, %rsp
	popq	%rbp
	retq
Ltmp994:
Lfunc_end189:
	.cfi_endproc

	.p2align	4, 0x90
__ZN4core7convert3num18ptr_try_from_impls69_$LT$impl$u20$core..convert..TryFrom$LT$u64$GT$$u20$for$u20$usize$GT$8try_from17h119d583b5e355ef9E:
Lfunc_begin190:
	.file	39 "/rustc/2c8cc343237b8f7d5a3c3703e3a87f2eb2c54a74/library/core/src/convert" "num.rs"
	.loc	39 203 0
	.cfi_startproc
	pushq	%rbp
	.cfi_def_cfa_offset 16
	.cfi_offset %rbp, -16
	movq	%rsp, %rbp
	.cfi_def_cfa_register %rbp
	subq	$24, %rsp
	movq	%rdi, -8(%rbp)
Ltmp995:
	.loc	39 204 17 prologue_end
	movq	%rdi, -16(%rbp)
	movq	$0, -24(%rbp)
	.loc	39 205 14
	movq	-24(%rbp), %rax
	movq	-16(%rbp), %rdx
	addq	$24, %rsp
	popq	%rbp
	retq
Ltmp996:
Lfunc_end190:
	.cfi_endproc

	.p2align	4, 0x90
__ZN4core7convert3num18ptr_try_from_impls70_$LT$impl$u20$core..convert..TryFrom$LT$u128$GT$$u20$for$u20$usize$GT$8try_from17h333a268aab1871bdE:
Lfunc_begin191:
	.loc	39 245 0
	.cfi_startproc
	pushq	%rbp
	.cfi_def_cfa_offset 16
	.cfi_offset %rbp, -16
	movq	%rsp, %rbp
	.cfi_def_cfa_register %rbp
	subq	$40, %rsp
	movq	%rdi, -40(%rbp)
	movq	%rdi, -16(%rbp)
	movq	%rsi, -8(%rbp)
Ltmp997:
	.loc	39 246 20 prologue_end
	testq	%rsi, %rsi
	jne	LBB191_2
	jmp	LBB191_1
LBB191_1:
	.loc	39 0 20 is_stmt 0
	movq	-40(%rbp), %rax
	.loc	39 249 21 is_stmt 1
	movq	%rax, -24(%rbp)
	movq	$0, -32(%rbp)
	.loc	39 246 17
	jmp	LBB191_3
LBB191_2:
	.loc	39 247 21
	movq	$1, -32(%rbp)
LBB191_3:
	.loc	39 251 14
	movq	-32(%rbp), %rax
	movq	-24(%rbp), %rdx
	addq	$40, %rsp
	popq	%rbp
	retq
Ltmp998:
Lfunc_end191:
	.cfi_endproc

	.globl	__ZN50_$LT$$RF$mut$u20$T$u20$as$u20$core..fmt..Debug$GT$3fmt17hc7f0d47aeb5dfbecE
	.p2align	4, 0x90
__ZN50_$LT$$RF$mut$u20$T$u20$as$u20$core..fmt..Debug$GT$3fmt17hc7f0d47aeb5dfbecE:
Lfunc_begin192:
	.loc	16 2381 0
	.cfi_startproc
	pushq	%rbp
	.cfi_def_cfa_offset 16
	.cfi_offset %rbp, -16
	movq	%rsp, %rbp
	.cfi_def_cfa_register %rbp
	subq	$16, %rsp
	movq	%rdi, -16(%rbp)
	movq	%rsi, -8(%rbp)
Ltmp999:
	.loc	16 2381 71 prologue_end
	movq	(%rdi), %rdi
	.loc	16 2381 62 is_stmt 0
	callq	__ZN58_$LT$alloc..string..String$u20$as$u20$core..fmt..Debug$GT$3fmt17h54f740a666f4e699E
	.loc	16 2381 84
	andb	$1, %al
	movzbl	%al, %eax
	addq	$16, %rsp
	popq	%rbp
	retq
Ltmp1000:
Lfunc_end192:
	.cfi_endproc

	.globl	__ZN50_$LT$T$u20$as$u20$core..convert..Into$LT$U$GT$$GT$4into17h7c4094aba42ce704E
	.p2align	4, 0x90
__ZN50_$LT$T$u20$as$u20$core..convert..Into$LT$U$GT$$GT$4into17h7c4094aba42ce704E:
Lfunc_begin193:
	.file	40 "/rustc/2c8cc343237b8f7d5a3c3703e3a87f2eb2c54a74/library/core/src/convert" "mod.rs"
	.loc	40 725 0 is_stmt 1
	.cfi_startproc
	pushq	%rbp
	.cfi_def_cfa_offset 16
	.cfi_offset %rbp, -16
	movq	%rsp, %rbp
	.cfi_def_cfa_register %rbp
	subq	$16, %rsp
	movq	%rdi, -8(%rbp)
Ltmp1001:
	.loc	40 726 9 prologue_end
	callq	__ZN98_$LT$core..ptr..non_null..NonNull$LT$T$GT$$u20$as$u20$core..convert..From$LT$$RF$mut$u20$T$GT$$GT$4from17h71d65938eef45269E
	.loc	40 727 6
	addq	$16, %rsp
	popq	%rbp
	retq
Ltmp1002:
Lfunc_end193:
	.cfi_endproc

	.globl	__ZN56_$LT$usize$u20$as$u20$core..iter..traits..accum..Sum$GT$3sum17he51c815795cea0b1E
	.p2align	4, 0x90
__ZN56_$LT$usize$u20$as$u20$core..iter..traits..accum..Sum$GT$3sum17he51c815795cea0b1E:
Lfunc_begin194:
	.file	41 "/rustc/2c8cc343237b8f7d5a3c3703e3a87f2eb2c54a74/library/core/src/iter/traits" "accum.rs"
	.loc	41 49 0
	.cfi_startproc
	pushq	%rbp
	.cfi_def_cfa_offset 16
	.cfi_offset %rbp, -16
	movq	%rsp, %rbp
	.cfi_def_cfa_register %rbp
	subq	$32, %rsp
Ltmp1003:
	.loc	41 50 17 prologue_end
	movq	(%rdi), %rax
	movq	%rax, -24(%rbp)
	movq	8(%rdi), %rax
	movq	%rax, -16(%rbp)
	movq	16(%rdi), %rax
	movq	%rax, -8(%rbp)
	leaq	-24(%rbp), %rdi
Ltmp1004:
	xorl	%eax, %eax
	movl	%eax, %esi
	callq	__ZN102_$LT$core..iter..adapters..map..Map$LT$I$C$F$GT$$u20$as$u20$core..iter..traits..iterator..Iterator$GT$4fold17hea633a65135f2234E
	.loc	41 55 14
	addq	$32, %rsp
	popq	%rbp
	retq
Ltmp1005:
Lfunc_end194:
	.cfi_endproc

	.globl	__ZN56_$LT$usize$u20$as$u20$core..iter..traits..accum..Sum$GT$3sum28_$u7b$$u7b$closure$u7d$$u7d$17hae250a16620853c7E
	.p2align	4, 0x90
__ZN56_$LT$usize$u20$as$u20$core..iter..traits..accum..Sum$GT$3sum28_$u7b$$u7b$closure$u7d$$u7d$17hae250a16620853c7E:
Lfunc_begin195:
	.loc	41 53 0
	.cfi_startproc
	pushq	%rbp
	.cfi_def_cfa_offset 16
	.cfi_offset %rbp, -16
	movq	%rsp, %rbp
	.cfi_def_cfa_register %rbp
	subq	$32, %rsp
	movq	%rdi, -24(%rbp)
	movq	%rsi, -16(%rbp)
	movq	%rdx, -8(%rbp)
Ltmp1006:
	.loc	41 53 28 prologue_end
	addq	%rdx, %rsi
	movq	%rsi, -32(%rbp)
	setb	%al
	testb	$1, %al
	jne	LBB195_2
	.loc	41 0 28 is_stmt 0
	movq	-32(%rbp), %rax
	.loc	41 53 33
	addq	$32, %rsp
	popq	%rbp
	retq
LBB195_2:
	.loc	41 53 28
	leaq	_str.0(%rip), %rdi
	leaq	l___unnamed_19(%rip), %rdx
	movl	$28, %esi
	callq	__ZN4core9panicking5panic17hc1bc45270cf64b03E
Ltmp1007:
Lfunc_end195:
	.cfi_endproc

	.p2align	4, 0x90
__ZN58_$LT$alloc..string..String$u20$as$u20$core..fmt..Debug$GT$3fmt17h54f740a666f4e699E:
Lfunc_begin196:
	.loc	5 2282 0 is_stmt 1
	.cfi_startproc
	pushq	%rbp
	.cfi_def_cfa_offset 16
	.cfi_offset %rbp, -16
	movq	%rsp, %rbp
	.cfi_def_cfa_register %rbp
	subq	$64, %rsp
	movq	%rsi, -64(%rbp)
	movq	%rdi, -56(%rbp)
	movq	%rsi, -48(%rbp)
Ltmp1008:
	.loc	5 2283 27 prologue_end
	movq	%rdi, -40(%rbp)
Ltmp1009:
	.loc	5 2460 43
	callq	__ZN72_$LT$alloc..vec..Vec$LT$T$C$A$GT$$u20$as$u20$core..ops..deref..Deref$GT$5deref17h6083e7f545195753E
	movq	%rax, %rcx
	movq	%rdx, %rax
	movq	-64(%rbp), %rdx
	movq	%rcx, -32(%rbp)
	movq	%rax, -24(%rbp)
Ltmp1010:
	.loc	6 173 14
	movq	%rcx, -16(%rbp)
	movq	%rax, -8(%rbp)
	movq	-16(%rbp), %rdi
	movq	-8(%rbp), %rsi
Ltmp1011:
	.loc	5 2283 9
	callq	__ZN40_$LT$str$u20$as$u20$core..fmt..Debug$GT$3fmt17h4564f13343f2ac60E
	.loc	5 2284 6
	andb	$1, %al
	movzbl	%al, %eax
	addq	$64, %rsp
	popq	%rbp
	retq
Ltmp1012:
Lfunc_end196:
	.cfi_endproc

	.globl	__ZN5alloc11collections11linked_list13Node$LT$T$GT$12into_element17hd5cf904d15911d73E
	.p2align	4, 0x90
__ZN5alloc11collections11linked_list13Node$LT$T$GT$12into_element17hd5cf904d15911d73E:
Lfunc_begin197:
	.loc	4 152 0
	.cfi_startproc
	pushq	%rbp
	.cfi_def_cfa_offset 16
	.cfi_offset %rbp, -16
	movq	%rsp, %rbp
	.cfi_def_cfa_register %rbp
	subq	$32, %rsp
	movq	%rsi, -24(%rbp)
	movq	%rdi, %rax
	movq	-24(%rbp), %rdi
	movq	%rax, %rcx
	movq	%rcx, -16(%rbp)
	movq	%rdi, -8(%rbp)
Ltmp1013:
	.loc	4 153 9 prologue_end
	movq	16(%rdi), %rcx
	movq	%rcx, (%rax)
	movq	24(%rdi), %rcx
	movq	%rcx, 8(%rax)
	movq	32(%rdi), %rcx
	movq	%rcx, 16(%rax)
	.loc	4 154 5
	callq	__ZN5alloc5alloc8box_free17h50954de310c5a84dE
	movq	-16(%rbp), %rax
	.loc	4 154 6 is_stmt 0
	addq	$32, %rsp
	popq	%rbp
	retq
Ltmp1014:
Lfunc_end197:
	.cfi_endproc

	.globl	__ZN5alloc11collections11linked_list13Node$LT$T$GT$3new17h3a25f7296919e0aeE
	.p2align	4, 0x90
__ZN5alloc11collections11linked_list13Node$LT$T$GT$3new17h3a25f7296919e0aeE:
Lfunc_begin198:
	.loc	4 148 0 is_stmt 1
	.cfi_startproc
	pushq	%rbp
	.cfi_def_cfa_offset 16
	.cfi_offset %rbp, -16
	movq	%rsp, %rbp
	.cfi_def_cfa_register %rbp
	subq	$40, %rsp
	movq	%rdi, %rax
Ltmp1015:
	.loc	4 149 22 prologue_end
	movq	$0, -40(%rbp)
	.loc	4 149 34 is_stmt 0
	movq	$0, -32(%rbp)
	.loc	4 149 40
	movq	(%rsi), %rcx
	movq	%rcx, -24(%rbp)
	movq	8(%rsi), %rcx
	movq	%rcx, -16(%rbp)
	movq	16(%rsi), %rcx
	movq	%rcx, -8(%rbp)
	.loc	4 149 9
	movq	-40(%rbp), %rcx
	movq	%rcx, (%rdi)
	movq	-32(%rbp), %rcx
	movq	%rcx, 8(%rdi)
	movq	-24(%rbp), %rcx
	movq	%rcx, 16(%rdi)
	movq	-16(%rbp), %rcx
	movq	%rcx, 24(%rdi)
	movq	-8(%rbp), %rcx
	movq	%rcx, 32(%rdi)
	.loc	4 150 6 is_stmt 1
	addq	$40, %rsp
	popq	%rbp
	retq
Ltmp1016:
Lfunc_end198:
	.cfi_endproc

	.globl	__ZN5alloc11collections11linked_list19LinkedList$LT$T$GT$14pop_front_node28_$u7b$$u7b$closure$u7d$$u7d$17hf9716f28268a5237E
	.p2align	4, 0x90
__ZN5alloc11collections11linked_list19LinkedList$LT$T$GT$14pop_front_node28_$u7b$$u7b$closure$u7d$$u7d$17hf9716f28268a5237E:
Lfunc_begin199:
	.loc	4 185 0
	.cfi_startproc
	pushq	%rbp
	.cfi_def_cfa_offset 16
	.cfi_offset %rbp, -16
	movq	%rsp, %rbp
	.cfi_def_cfa_register %rbp
	subq	$120, %rsp
	movq	%rdi, -120(%rbp)
Ltmp1017:
	movq	%rsi, -72(%rbp)
Ltmp1018:
	.loc	4 186 38 prologue_end
	movq	%rsi, -56(%rbp)
Ltmp1019:
	.loc	9 326 9
	movq	%rsi, -48(%rbp)
Ltmp1020:
	.file	42 "/rustc/2c8cc343237b8f7d5a3c3703e3a87f2eb2c54a74/library/alloc/src" "boxed.rs"
	.loc	42 958 36
	movq	%rsi, -40(%rbp)
Ltmp1021:
	.loc	42 1014 44
	movq	%rsi, -32(%rbp)
Ltmp1022:
	.file	43 "/rustc/2c8cc343237b8f7d5a3c3703e3a87f2eb2c54a74/library/core/src/ptr" "unique.rs"
	.loc	43 87 59
	movq	%rsi, -24(%rbp)
Ltmp1023:
	.loc	9 201 13
	movq	%rsi, -80(%rbp)
Ltmp1024:
	.loc	43 87 18
	movq	-80(%rbp), %rax
	movq	%rax, -88(%rbp)
Ltmp1025:
	.loc	42 1014 9
	movq	-88(%rbp), %rax
	movq	%rax, -112(%rbp)
Ltmp1026:
	.loc	4 187 25
	movq	-112(%rbp), %rax
	movq	(%rax), %rcx
	.loc	4 187 13 is_stmt 0
	movq	(%rdi), %rax
	movq	%rcx, (%rax)
	.loc	4 189 19 is_stmt 1
	movq	(%rdi), %rax
	movq	(%rax), %rdx
	movl	$1, %eax
	xorl	%ecx, %ecx
	cmpq	$0, %rdx
	cmoveq	%rcx, %rax
	.loc	4 189 13 is_stmt 0
	cmpq	$0, %rax
Ltmp1027:
	jne	LBB199_2
Ltmp1028:
	.loc	4 0 13
	movq	-120(%rbp), %rax
	.loc	4 190 37 is_stmt 1
	movq	$0, -104(%rbp)
	.loc	4 190 25 is_stmt 0
	movq	8(%rax), %rax
	movq	-104(%rbp), %rcx
	movq	%rcx, (%rax)
	.loc	4 190 40
	jmp	LBB199_3
Ltmp1029:
LBB199_2:
	.loc	4 0 40
	movq	-120(%rbp), %rax
	.loc	4 192 22 is_stmt 1
	movq	(%rax), %rax
	movq	(%rax), %rax
	movq	%rax, -16(%rbp)
Ltmp1030:
	.loc	4 192 55 is_stmt 0
	movq	$0, -96(%rbp)
	.loc	4 192 33
	movq	%rax, -8(%rbp)
	.loc	4 192 31
	movq	-96(%rbp), %rcx
	movq	%rcx, 8(%rax)
Ltmp1031:
LBB199_3:
	.loc	4 0 31
	movq	-120(%rbp), %rcx
	.loc	4 195 13 is_stmt 1
	movq	16(%rcx), %rax
	movq	16(%rcx), %rcx
	movq	(%rcx), %rcx
	subq	$1, %rcx
	movq	%rcx, (%rax)
Ltmp1032:
	.loc	4 197 10
	movq	-112(%rbp), %rax
	addq	$120, %rsp
	popq	%rbp
	retq
Ltmp1033:
Lfunc_end199:
	.cfi_endproc

	.globl	__ZN5alloc11collections11linked_list19LinkedList$LT$T$GT$14push_back_node17h1e5b22d57231725eE
	.p2align	4, 0x90
__ZN5alloc11collections11linked_list19LinkedList$LT$T$GT$14push_back_node17h1e5b22d57231725eE:
Lfunc_begin200:
	.loc	4 202 0
	.cfi_startproc
	pushq	%rbp
	.cfi_def_cfa_offset 16
	.cfi_offset %rbp, -16
	movq	%rsp, %rbp
	.cfi_def_cfa_register %rbp
	subq	$112, %rsp
	movq	%rdi, -104(%rbp)
	movq	%rdi, -72(%rbp)
	movq	%rsi, -64(%rbp)
Ltmp1034:
	.loc	4 206 25 prologue_end
	movq	$0, -96(%rbp)
	.loc	4 206 13 is_stmt 0
	movq	-96(%rbp), %rax
	movq	%rax, (%rsi)
	.loc	4 207 25 is_stmt 1
	movq	8(%rdi), %rax
	.loc	4 207 13 is_stmt 0
	movq	%rax, 8(%rsi)
	.loc	4 208 39 is_stmt 1
	movq	%rsi, -56(%rbp)
Ltmp1035:
	.loc	42 1188 47
	movq	%rsi, -48(%rbp)
Ltmp1036:
	.file	44 "/rustc/2c8cc343237b8f7d5a3c3703e3a87f2eb2c54a74/library/core/src/mem" "manually_drop.rs"
	.loc	44 71 9
	movq	%rsi, -80(%rbp)
Ltmp1037:
	.loc	42 1188 24
	leaq	-80(%rbp), %rax
	movq	%rax, -40(%rbp)
	movq	-80(%rbp), %rdi
	movq	%rdi, -32(%rbp)
Ltmp1038:
	.loc	43 104 9
	movq	%rdi, -24(%rbp)
Ltmp1039:
	.loc	4 208 29
	callq	__ZN50_$LT$T$u20$as$u20$core..convert..Into$LT$U$GT$$GT$4into17h7c4094aba42ce704E
	movq	-104(%rbp), %rdi
	.loc	4 208 24 is_stmt 0
	movq	%rax, -88(%rbp)
Ltmp1040:
	.loc	4 210 19 is_stmt 1
	movq	8(%rdi), %rdx
	movl	$1, %eax
	xorl	%ecx, %ecx
	cmpq	$0, %rdx
	cmoveq	%rcx, %rax
	.loc	4 210 13 is_stmt 0
	cmpq	$0, %rax
	jne	LBB200_2
	.loc	4 0 13
	movq	-104(%rbp), %rax
	.loc	4 211 37 is_stmt 1
	movq	-88(%rbp), %rcx
	.loc	4 211 25 is_stmt 0
	movq	%rcx, (%rax)
	.loc	4 211 40
	jmp	LBB200_3
LBB200_2:
	.loc	4 0 40
	movq	-104(%rbp), %rax
	.loc	4 213 22 is_stmt 1
	movq	8(%rax), %rax
	movq	%rax, -16(%rbp)
Ltmp1041:
	.loc	4 213 55 is_stmt 0
	movq	-88(%rbp), %rcx
	.loc	4 213 33
	movq	%rax, -8(%rbp)
	.loc	4 213 31
	movq	%rcx, (%rax)
Ltmp1042:
LBB200_3:
	.loc	4 0 31
	movq	-104(%rbp), %rax
	.loc	4 216 25 is_stmt 1
	movq	-88(%rbp), %rcx
	.loc	4 216 13 is_stmt 0
	movq	%rcx, 8(%rax)
	.loc	4 217 13 is_stmt 1
	movq	16(%rax), %rcx
	addq	$1, %rcx
	movq	%rcx, 16(%rax)
Ltmp1043:
	.loc	4 219 6
	addq	$112, %rsp
	popq	%rbp
	retq
Ltmp1044:
Lfunc_end200:
	.cfi_endproc

	.globl	__ZN5alloc11collections11linked_list19LinkedList$LT$T$GT$3new17h5c97b12f735c150dE
	.p2align	4, 0x90
__ZN5alloc11collections11linked_list19LinkedList$LT$T$GT$3new17h5c97b12f735c150dE:
Lfunc_begin201:
	.loc	4 423 0
	.cfi_startproc
	pushq	%rbp
	.cfi_def_cfa_offset 16
	.cfi_offset %rbp, -16
	movq	%rsp, %rbp
	.cfi_def_cfa_register %rbp
	movq	%rdi, %rax
Ltmp1045:
	.loc	4 424 9 prologue_end
	movq	$0, (%rdi)
	movq	$0, 8(%rdi)
	movq	$0, 16(%rdi)
	.loc	4 425 6
	popq	%rbp
	retq
Ltmp1046:
Lfunc_end201:
	.cfi_endproc

	.globl	__ZN5alloc11collections11linked_list19LinkedList$LT$T$GT$4iter17h798ef84a3f647653E
	.p2align	4, 0x90
__ZN5alloc11collections11linked_list19LinkedList$LT$T$GT$4iter17h798ef84a3f647653E:
Lfunc_begin202:
	.loc	4 497 0
	.cfi_startproc
	pushq	%rbp
	.cfi_def_cfa_offset 16
	.cfi_offset %rbp, -16
	movq	%rsp, %rbp
	.cfi_def_cfa_register %rbp
	pushq	%rax
	movq	%rsi, %rcx
	movq	%rdi, %rax
	movq	%rcx, -8(%rbp)
Ltmp1047:
	.loc	4 498 22 prologue_end
	movq	(%rcx), %rsi
	.loc	4 498 39 is_stmt 0
	movq	8(%rcx), %rdx
	.loc	4 498 55
	movq	16(%rcx), %rcx
	.loc	4 498 9
	movq	%rsi, (%rdi)
	movq	%rdx, 8(%rdi)
	movq	%rcx, 16(%rdi)
	.loc	4 499 6 is_stmt 1
	addq	$8, %rsp
	popq	%rbp
	retq
Ltmp1048:
Lfunc_end202:
	.cfi_endproc

	.globl	__ZN5alloc11collections11linked_list19LinkedList$LT$T$GT$9pop_front17h925996ae6e0e1ddcE
	.p2align	4, 0x90
__ZN5alloc11collections11linked_list19LinkedList$LT$T$GT$9pop_front17h925996ae6e0e1ddcE:
Lfunc_begin203:
	.loc	4 817 0
	.cfi_startproc
	pushq	%rbp
	.cfi_def_cfa_offset 16
	.cfi_offset %rbp, -16
	movq	%rsp, %rbp
	.cfi_def_cfa_register %rbp
	subq	$64, %rsp
	movq	%rsi, %rcx
	movq	%rdi, -56(%rbp)
	movq	%rdi, -48(%rbp)
	movq	%rcx, -16(%rbp)
Ltmp1049:
	.loc	4 818 9 prologue_end
	movq	%rcx, -8(%rbp)
Ltmp1050:
	.loc	4 185 9
	movq	(%rcx), %rdi
	.loc	4 185 23 is_stmt 0
	movq	%rcx, %rax
	addq	$8, %rax
	movq	%rcx, %rsi
	addq	$16, %rsi
	movq	%rcx, -40(%rbp)
	movq	%rax, -32(%rbp)
	movq	%rsi, -24(%rbp)
	.loc	4 185 9
	leaq	-40(%rbp), %rsi
	callq	__ZN4core6option15Option$LT$T$GT$3map17h0174fe0999ff1110E
	movq	-56(%rbp), %rdi
	movq	%rax, %rsi
Ltmp1051:
	.loc	4 818 9 is_stmt 1
	callq	__ZN4core6option15Option$LT$T$GT$3map17heaa25081a70e9035E
	movq	-48(%rbp), %rax
	.loc	4 819 6
	addq	$64, %rsp
	popq	%rbp
	retq
Ltmp1052:
Lfunc_end203:
	.cfi_endproc

	.globl	__ZN5alloc11collections11linked_list19LinkedList$LT$T$GT$9push_back17h7a2ad115668c1b56E
	.p2align	4, 0x90
__ZN5alloc11collections11linked_list19LinkedList$LT$T$GT$9push_back17h7a2ad115668c1b56E:
Lfunc_begin204:
	.loc	4 836 0
	.cfi_startproc
	.cfi_personality 155, _rust_eh_personality
	.cfi_lsda 16, Lexception13
	pushq	%rbp
	.cfi_def_cfa_offset 16
	.cfi_offset %rbp, -16
	movq	%rsp, %rbp
	.cfi_def_cfa_register %rbp
	subq	$112, %rsp
	movq	%rdi, -104(%rbp)
Ltmp1059:
	movq	%rdi, -24(%rbp)
Ltmp1060:
	.loc	4 837 48 prologue_end
	movq	16(%rsi), %rax
	movq	%rax, -32(%rbp)
	movq	(%rsi), %rax
	movq	8(%rsi), %rcx
	movq	%rcx, -40(%rbp)
	movq	%rax, -48(%rbp)
	leaq	-88(%rbp), %rdi
	leaq	-48(%rbp), %rsi
Ltmp1061:
	.loc	4 837 38 is_stmt 0
	callq	__ZN5alloc11collections11linked_list13Node$LT$T$GT$3new17h3a25f7296919e0aeE
Ltmp1053:
	movl	$40, %edi
	movl	$8, %esi
Ltmp1062:
	.loc	42 219 9 is_stmt 1
	callq	__ZN5alloc5alloc15exchange_malloc17hf1faea3b60e93d5dE
Ltmp1054:
	movq	%rax, -96(%rbp)
	jmp	LBB204_3
Ltmp1063:
LBB204_1:
Ltmp1056:
	.loc	42 0 9 is_stmt 0
	leaq	-88(%rbp), %rdi
	.loc	42 220 5 is_stmt 1
	callq	__ZN4core3ptr87drop_in_place$LT$alloc..collections..linked_list..Node$LT$alloc..string..String$GT$$GT$17hc2030aa0cb794884E
Ltmp1057:
	jmp	LBB204_5
Ltmp1064:
LBB204_2:
Ltmp1055:
	.loc	42 0 5 is_stmt 0
	movq	%rax, %rcx
	movl	%edx, %eax
	movq	%rcx, -16(%rbp)
	movl	%eax, -8(%rbp)
	jmp	LBB204_1
Ltmp1065:
LBB204_3:
	movq	-96(%rbp), %rdi
	.loc	42 219 18 is_stmt 1
	leaq	-88(%rbp), %rsi
	movl	$40, %edx
	callq	_memcpy
	movq	-104(%rbp), %rdi
	movq	-96(%rbp), %rsi
Ltmp1066:
	.loc	4 837 9
	callq	__ZN5alloc11collections11linked_list19LinkedList$LT$T$GT$14push_back_node17h1e5b22d57231725eE
	.loc	4 838 6
	addq	$112, %rsp
	popq	%rbp
	retq
Ltmp1067:
LBB204_4:
Ltmp1058:
	.loc	4 836 5
	callq	__ZN4core9panicking19panic_cannot_unwind17h1fbca7e1d7f56ae1E
Ltmp1068:
LBB204_5:
	movq	-16(%rbp), %rdi
	callq	__Unwind_Resume
Ltmp1069:
Lfunc_end204:
	.cfi_endproc
	.section	__TEXT,__gcc_except_tab
	.p2align	2
GCC_except_table204:
Lexception13:
	.byte	255
	.byte	255
	.byte	1
	.uleb128 Lcst_end13-Lcst_begin13
Lcst_begin13:
	.uleb128 Lfunc_begin204-Lfunc_begin204
	.uleb128 Ltmp1053-Lfunc_begin204
	.byte	0
	.byte	0
	.uleb128 Ltmp1053-Lfunc_begin204
	.uleb128 Ltmp1054-Ltmp1053
	.uleb128 Ltmp1055-Lfunc_begin204
	.byte	0
	.uleb128 Ltmp1056-Lfunc_begin204
	.uleb128 Ltmp1057-Ltmp1056
	.uleb128 Ltmp1058-Lfunc_begin204
	.byte	0
	.uleb128 Ltmp1057-Lfunc_begin204
	.uleb128 Lfunc_end204-Ltmp1057
	.byte	0
	.byte	0
Lcst_end13:
	.p2align	2

	.section	__TEXT,__text,regular,pure_instructions
	.globl	__ZN5alloc3vec16Vec$LT$T$C$A$GT$15append_elements17he47226f3c860d220E
	.p2align	4, 0x90
__ZN5alloc3vec16Vec$LT$T$C$A$GT$15append_elements17he47226f3c860d220E:
Lfunc_begin205:
	.file	45 "/rustc/2c8cc343237b8f7d5a3c3703e3a87f2eb2c54a74/library/alloc/src/vec" "mod.rs"
	.loc	45 1950 0
	.cfi_startproc
	pushq	%rbp
	.cfi_def_cfa_offset 16
	.cfi_offset %rbp, -16
	movq	%rsp, %rbp
	.cfi_def_cfa_register %rbp
	subq	$224, %rsp
	movq	%rdx, -224(%rbp)
	movq	%rsi, %rax
	movq	-224(%rbp), %rsi
	movq	%rdi, -200(%rbp)
	movq	%rax, -216(%rbp)
	movq	%rsi, -208(%rbp)
	movq	%rdi, -184(%rbp)
	movq	%rax, -176(%rbp)
	movq	%rsi, -168(%rbp)
Ltmp1070:
	.loc	45 1951 30 prologue_end
	movq	%rsi, -160(%rbp)
Ltmp1071:
	.loc	45 1952 9
	callq	__ZN5alloc3vec16Vec$LT$T$C$A$GT$7reserve17ha315412ac508ad33E
	movq	-216(%rbp), %rsi
	movq	-208(%rbp), %rdx
	movq	-200(%rbp), %rdi
	.loc	45 1953 19
	movq	%rdi, -152(%rbp)
Ltmp1072:
	.loc	45 2062 9
	movq	16(%rdi), %rcx
	movq	%rcx, -144(%rbp)
Ltmp1073:
	.loc	45 1954 43
	movq	%rsi, -136(%rbp)
	.loc	45 1954 62 is_stmt 0
	movq	%rdi, -128(%rbp)
Ltmp1074:
	.loc	45 1280 19 is_stmt 1
	movq	%rdi, -120(%rbp)
Ltmp1075:
	.file	46 "/rustc/2c8cc343237b8f7d5a3c3703e3a87f2eb2c54a74/library/alloc/src" "raw_vec.rs"
	.loc	46 224 9
	movq	8(%rdi), %rax
	movq	%rax, -112(%rbp)
Ltmp1076:
	.loc	43 104 9
	movq	%rax, -104(%rbp)
Ltmp1077:
	.loc	9 326 9
	movq	%rax, -96(%rbp)
Ltmp1078:
	.loc	45 1282 21
	movq	%rax, -88(%rbp)
Ltmp1079:
	.loc	10 52 36
	movq	%rax, -192(%rbp)
	.loc	10 52 18 is_stmt 0
	movq	-192(%rbp), %rdi
	movq	%rdi, -80(%rbp)
Ltmp1080:
	.loc	10 38 13 is_stmt 1
	movq	%rdi, -72(%rbp)
Ltmp1081:
	.loc	10 215 33
	movq	%rdi, -64(%rbp)
	.loc	10 215 18 is_stmt 0
	movq	%rdi, -56(%rbp)
Ltmp1082:
	.loc	45 1954 84 is_stmt 1
	movq	%rcx, -48(%rbp)
Ltmp1083:
	.loc	10 1034 18
	movq	%rax, -40(%rbp)
	.loc	10 1034 30 is_stmt 0
	movq	%rcx, -32(%rbp)
Ltmp1084:
	.loc	10 487 18 is_stmt 1
	addq	%rcx, %rax
	movq	%rax, -24(%rbp)
	movq	-24(%rbp), %rdi
	movq	%rdi, -16(%rbp)
Ltmp1085:
	.loc	45 1954 90
	movq	%rdx, -8(%rbp)
Ltmp1086:
	.file	47 "/rustc/2c8cc343237b8f7d5a3c3703e3a87f2eb2c54a74/library/core/src" "intrinsics.rs"
	.loc	47 2372 9
	shlq	$0, %rdx
	callq	_memcpy
	movq	-208(%rbp), %rdx
	movq	-200(%rbp), %rdi
Ltmp1087:
	.loc	45 1955 9
	addq	16(%rdi), %rdx
	movq	%rdx, 16(%rdi)
Ltmp1088:
	.loc	45 1956 6
	addq	$224, %rsp
	popq	%rbp
	retq
Ltmp1089:
Lfunc_end205:
	.cfi_endproc

	.globl	__ZN5alloc3vec16Vec$LT$T$C$A$GT$17extend_from_slice17h4f128ef42ee3a1efE
	.p2align	4, 0x90
__ZN5alloc3vec16Vec$LT$T$C$A$GT$17extend_from_slice17h4f128ef42ee3a1efE:
Lfunc_begin206:
	.loc	45 2397 0
	.cfi_startproc
	pushq	%rbp
	.cfi_def_cfa_offset 16
	.cfi_offset %rbp, -16
	movq	%rsp, %rbp
	.cfi_def_cfa_register %rbp
	subq	$64, %rsp
	movq	%rdx, -64(%rbp)
	movq	%rsi, %rax
	movq	-64(%rbp), %rsi
	movq	%rax, -56(%rbp)
	movq	%rdi, %rax
	movq	-56(%rbp), %rdi
	movq	%rax, -48(%rbp)
	movq	%rax, -40(%rbp)
	movq	%rdi, -32(%rbp)
	movq	%rsi, -24(%rbp)
Ltmp1090:
	.loc	45 2398 26 prologue_end
	movq	%rdi, -16(%rbp)
	movq	%rsi, -8(%rbp)
Ltmp1091:
	.loc	26 742 9
	callq	__ZN4core5slice4iter13Iter$LT$T$GT$3new17h1f2c2c67b80329f6E
	movq	-48(%rbp), %rdi
	movq	%rax, %rsi
Ltmp1092:
	.loc	45 2398 9
	callq	__ZN132_$LT$alloc..vec..Vec$LT$T$C$A$GT$$u20$as$u20$alloc..vec..spec_extend..SpecExtend$LT$$RF$T$C$core..slice..iter..Iter$LT$T$GT$$GT$$GT$11spec_extend17hd80530fe2a3e3bddE
	.loc	45 2399 6
	addq	$64, %rsp
	popq	%rbp
	retq
Ltmp1093:
Lfunc_end206:
	.cfi_endproc

	.globl	__ZN5alloc3vec16Vec$LT$T$C$A$GT$4push17h0ad8548aa8846a65E
	.p2align	4, 0x90
__ZN5alloc3vec16Vec$LT$T$C$A$GT$4push17h0ad8548aa8846a65E:
Lfunc_begin207:
	.loc	45 1836 0
	.cfi_startproc
	.cfi_personality 155, _rust_eh_personality
	.cfi_lsda 16, Lexception14
	pushq	%rbp
	.cfi_def_cfa_offset 16
	.cfi_offset %rbp, -16
	movq	%rsp, %rbp
	.cfi_def_cfa_register %rbp
	subq	$240, %rsp
	movq	%rdi, -216(%rbp)
	movb	%sil, %al
	movb	%al, -201(%rbp)
	movq	%rdi, -168(%rbp)
	movb	%al, -153(%rbp)
Ltmp1097:
	.loc	45 1839 12 prologue_end
	movq	16(%rdi), %rax
	movq	%rax, -200(%rbp)
	.loc	45 1839 24 is_stmt 0
	movq	%rdi, -152(%rbp)
Ltmp1098:
	.loc	46 232 12 is_stmt 1
	xorl	%eax, %eax
	testb	$1, %al
	jne	LBB207_2
	.loc	46 0 12 is_stmt 0
	movq	-216(%rbp), %rax
	.loc	46 232 44
	movq	(%rax), %rax
	movq	%rax, -192(%rbp)
	.loc	46 232 9
	jmp	LBB207_3
LBB207_2:
	.loc	46 232 24
	movq	$-1, -192(%rbp)
Ltmp1099:
LBB207_3:
	.loc	46 0 24
	movq	-200(%rbp), %rax
	.loc	45 1839 12 is_stmt 1
	cmpq	-192(%rbp), %rax
	je	LBB207_5
LBB207_4:
	.loc	45 0 12 is_stmt 0
	movq	-216(%rbp), %rax
	.loc	45 1843 23 is_stmt 1
	movq	%rax, -128(%rbp)
Ltmp1100:
	.loc	45 1280 19
	movq	%rax, -120(%rbp)
Ltmp1101:
	.loc	46 224 9
	movq	8(%rax), %rax
	movq	%rax, -224(%rbp)
	movq	%rax, -112(%rbp)
Ltmp1102:
	.loc	43 104 9
	movq	%rax, -104(%rbp)
Ltmp1103:
	.loc	9 326 9
	movq	%rax, -96(%rbp)
Ltmp1104:
	.loc	45 1282 21
	movq	%rax, -88(%rbp)
Ltmp1105:
	.loc	10 52 36
	movq	%rax, -176(%rbp)
	.loc	10 52 18 is_stmt 0
	movq	-176(%rbp), %rax
	movq	%rax, -80(%rbp)
Ltmp1106:
	.loc	10 38 13 is_stmt 1
	movq	%rax, -72(%rbp)
Ltmp1107:
	.loc	10 215 33
	movq	%rax, -64(%rbp)
	.loc	10 215 18 is_stmt 0
	movq	%rax, -56(%rbp)
	movq	-56(%rbp), %rax
	jmp	LBB207_9
Ltmp1108:
LBB207_5:
	.loc	10 0 18
	movq	-216(%rbp), %rdi
	.loc	45 1840 39 is_stmt 1
	movq	16(%rdi), %rsi
Ltmp1094:
	.loc	45 1840 13 is_stmt 0
	callq	__ZN5alloc7raw_vec19RawVec$LT$T$C$A$GT$16reserve_for_push17h479e56d992a172feE
Ltmp1095:
	jmp	LBB207_8
LBB207_6:
	.loc	45 1847 5 is_stmt 1
	movb	$1, %al
	testb	$1, %al
	jne	LBB207_12
	jmp	LBB207_11
LBB207_7:
Ltmp1096:
	.loc	45 0 5 is_stmt 0
	movq	%rax, %rcx
	movl	%edx, %eax
	movq	%rcx, -144(%rbp)
	movl	%eax, -136(%rbp)
	jmp	LBB207_6
LBB207_8:
	.loc	45 1839 9 is_stmt 1
	jmp	LBB207_4
LBB207_9:
	.loc	45 0 9 is_stmt 0
	movq	-224(%rbp), %rax
	movq	-216(%rbp), %rcx
	.loc	45 1843 45 is_stmt 1
	movq	16(%rcx), %rcx
	movq	%rcx, -48(%rbp)
Ltmp1109:
	.loc	10 1034 18
	movq	%rax, -40(%rbp)
	.loc	10 1034 30 is_stmt 0
	movq	%rcx, -32(%rbp)
Ltmp1110:
	.loc	10 487 18 is_stmt 1
	addq	%rcx, %rax
	movq	%rax, -24(%rbp)
	movq	-24(%rbp), %rax
	movq	%rax, -232(%rbp)
	.loc	10 0 18 is_stmt 0
	movq	-216(%rbp), %rax
	movq	-232(%rbp), %rcx
	movb	-201(%rbp), %dl
	.loc	10 487 18
	movq	%rcx, -16(%rbp)
Ltmp1111:
	.loc	45 1844 24 is_stmt 1
	movq	%rcx, -8(%rbp)
	.loc	45 1844 29 is_stmt 0
	movb	%dl, -177(%rbp)
Ltmp1112:
	.loc	24 1354 9 is_stmt 1
	movb	-177(%rbp), %dl
	movb	%dl, (%rcx)
