	.section	__TEXT,__text,regular,pure_instructions
	.macosx_version_min 10, 7
	.globl	__ZN42_$LT$$RF$T$u20$as$u20$core..fmt..Debug$GT$3fmt17h2364b318aebbc5b0E
	.p2align	4, 0x90
__ZN42_$LT$$RF$T$u20$as$u20$core..fmt..Debug$GT$3fmt17h2364b318aebbc5b0E:
Lfunc_begin0:
	.file	1 "/rustc/2c8cc343237b8f7d5a3c3703e3a87f2eb2c54a74/library/core/src/fmt" "mod.rs"
	.loc	1 2377 0
	.cfi_startproc
	pushq	%rbp
	.cfi_def_cfa_offset 16
	.cfi_offset %rbp, -16
	movq	%rsp, %rbp
	.cfi_def_cfa_register %rbp
	subq	$16, %rsp
	movq	%rdi, -16(%rbp)
	movq	%rsi, -8(%rbp)
Ltmp0:
	.loc	1 2377 71 prologue_end
	movq	(%rdi), %rdi
	.loc	1 2377 62 is_stmt 0
	callq	__ZN65_$LT$smallvec..CollectionAllocErr$u20$as$u20$core..fmt..Debug$GT$3fmt17ha860acc43f392beeE
	.loc	1 2377 84
	andb	$1, %al
	movzbl	%al, %eax
	addq	$16, %rsp
	popq	%rbp
	retq
Ltmp1:
Lfunc_end0:
	.cfi_endproc

	.globl	__ZN42_$LT$$RF$T$u20$as$u20$core..fmt..Debug$GT$3fmt17h4ae0d4322217a4e4E
	.p2align	4, 0x90
__ZN42_$LT$$RF$T$u20$as$u20$core..fmt..Debug$GT$3fmt17h4ae0d4322217a4e4E:
Lfunc_begin1:
	.loc	1 2377 0 is_stmt 1
	.cfi_startproc
	pushq	%rbp
	.cfi_def_cfa_offset 16
	.cfi_offset %rbp, -16
	movq	%rsp, %rbp
	.cfi_def_cfa_register %rbp
	subq	$16, %rsp
	movq	%rdi, -16(%rbp)
	movq	%rsi, -8(%rbp)
Ltmp2:
	.loc	1 2377 71 prologue_end
	movq	(%rdi), %rdi
	.loc	1 2377 62 is_stmt 0
	callq	__ZN64_$LT$core..alloc..layout..Layout$u20$as$u20$core..fmt..Debug$GT$3fmt17h55405217653748b1E
	.loc	1 2377 84
	andb	$1, %al
	movzbl	%al, %eax
	addq	$16, %rsp
	popq	%rbp
	retq
Ltmp3:
Lfunc_end1:
	.cfi_endproc

	.globl	__ZN4core3fmt10ArgumentV19new_debug17h6d3c99e757673d0eE
	.p2align	4, 0x90
__ZN4core3fmt10ArgumentV19new_debug17h6d3c99e757673d0eE:
Lfunc_begin2:
	.loc	1 327 0 is_stmt 1
	.cfi_startproc
	pushq	%rbp
	.cfi_def_cfa_offset 16
	.cfi_offset %rbp, -16
	movq	%rsp, %rbp
	.cfi_def_cfa_register %rbp
	subq	$56, %rsp
	movq	%rdi, -40(%rbp)
Ltmp4:
	.loc	1 328 23 prologue_end
	movq	%rdi, -32(%rbp)
	.loc	1 328 26 is_stmt 0
	leaq	__ZN42_$LT$$RF$T$u20$as$u20$core..fmt..Debug$GT$3fmt17h2364b318aebbc5b0E(%rip), %rax
	movq	%rax, -24(%rbp)
Ltmp5:
	.loc	1 347 42 is_stmt 1
	movq	%rax, -16(%rbp)
	movq	-16(%rbp), %rax
	.loc	1 347 68 is_stmt 0
	movq	%rdi, -8(%rbp)
	movq	-8(%rbp), %rcx
	.loc	1 347 18
	movq	%rcx, -56(%rbp)
	movq	%rax, -48(%rbp)
Ltmp6:
	.loc	1 329 10 is_stmt 1
	movq	-56(%rbp), %rax
	movq	-48(%rbp), %rdx
	addq	$56, %rsp
	popq	%rbp
	retq
Ltmp7:
Lfunc_end2:
	.cfi_endproc

	.p2align	4, 0x90
__ZN4core3fmt9Arguments6new_v117hce1d249b1d0cb4eaE:
Lfunc_begin3:
	.loc	1 399 0
	.cfi_startproc
	pushq	%rbp
	.cfi_def_cfa_offset 16
	.cfi_offset %rbp, -16
	movq	%rsp, %rbp
	.cfi_def_cfa_register %rbp
	subq	$160, %rsp
	movq	%r8, -152(%rbp)
	movq	%rcx, -144(%rbp)
	movq	%rdx, -136(%rbp)
	movq	%rsi, -128(%rbp)
	movq	%rdi, -120(%rbp)
	movq	%rdi, -112(%rbp)
	movq	%rsi, -32(%rbp)
	movq	%rdx, -24(%rbp)
	movq	%rcx, -16(%rbp)
	movq	%r8, -8(%rbp)
Ltmp8:
	.loc	1 400 12 prologue_end
	cmpq	%r8, %rdx
	jb	LBB3_2
	.loc	1 0 12 is_stmt 0
	movq	-136(%rbp), %rax
	movq	-152(%rbp), %rcx
	.loc	1 400 56
	addq	$1, %rcx
	.loc	1 400 41
	cmpq	%rcx, %rax
	seta	%al
	.loc	1 400 12
	andb	$1, %al
	movb	%al, -97(%rbp)
	jmp	LBB3_3
LBB3_2:
	movb	$1, -97(%rbp)
LBB3_3:
	testb	$1, -97(%rbp)
	jne	LBB3_5
	.loc	1 0 12
	movq	-112(%rbp), %rax
	movq	-120(%rbp), %rcx
	movq	-152(%rbp), %rdx
	movq	-144(%rbp), %rsi
	movq	-136(%rbp), %rdi
	movq	-128(%rbp), %r8
	.loc	1 403 34 is_stmt 1
	movq	$0, -48(%rbp)
	.loc	1 403 9 is_stmt 0
	movq	%r8, 16(%rcx)
	movq	%rdi, 24(%rcx)
	movq	-48(%rbp), %r8
	movq	-40(%rbp), %rdi
	movq	%r8, (%rcx)
	movq	%rdi, 8(%rcx)
	movq	%rsi, 32(%rcx)
	movq	%rdx, 40(%rcx)
	.loc	1 404 6 is_stmt 1
	addq	$160, %rsp
	popq	%rbp
	retq
LBB3_5:
	.loc	1 401 13
	leaq	l___unnamed_2(%rip), %rsi
	leaq	l___unnamed_3(%rip), %rcx
	xorl	%eax, %eax
	movl	%eax, %r8d
	leaq	-96(%rbp), %rdi
	movq	%rdi, -160(%rbp)
	movl	$1, %edx
	callq	__ZN4core3fmt9Arguments6new_v117hce1d249b1d0cb4eaE
	movq	-160(%rbp), %rdi
	leaq	l___unnamed_4(%rip), %rsi
	callq	__ZN4core9panicking9panic_fmt17h9b5d807e24bcaaedE
Ltmp9:
Lfunc_end3:
	.cfi_endproc

	.p2align	4, 0x90
__ZN4core3ptr52drop_in_place$LT$$RF$core..alloc..layout..Layout$GT$17h37f502f33a78dd9bE:
Lfunc_begin4:
	.file	2 "/rustc/2c8cc343237b8f7d5a3c3703e3a87f2eb2c54a74/library/core/src/ptr" "mod.rs"
	.loc	2 490 0
	.cfi_startproc
	pushq	%rbp
	.cfi_def_cfa_offset 16
	.cfi_offset %rbp, -16
	movq	%rsp, %rbp
	.cfi_def_cfa_register %rbp
	pushq	%rax
	movq	%rdi, -8(%rbp)
Ltmp10:
	.loc	2 490 1 prologue_end
	addq	$8, %rsp
	popq	%rbp
	retq
Ltmp11:
Lfunc_end4:
	.cfi_endproc

	.globl	__ZN67_$LT$smallvec..CollectionAllocErr$u20$as$u20$core..fmt..Display$GT$3fmt17h62e8ec4d667857dfE
	.p2align	4, 0x90
__ZN67_$LT$smallvec..CollectionAllocErr$u20$as$u20$core..fmt..Display$GT$3fmt17h62e8ec4d667857dfE:
Lfunc_begin5:
	.file	3 "/Users/natalie/.cargo/registry/src/github.com-1ecc6299db9ec823/smallvec-1.10.0" "src/lib.rs"
	.loc	3 294 0
	.cfi_startproc
	pushq	%rbp
	.cfi_def_cfa_offset 16
	.cfi_offset %rbp, -16
	movq	%rsp, %rbp
	.cfi_def_cfa_register %rbp
	subq	$96, %rsp
	movq	%rsi, -88(%rbp)
	movq	%rdi, -80(%rbp)
	movq	%rsi, -8(%rbp)
Ltmp12:
	.loc	3 295 9 prologue_end
	leaq	-80(%rbp), %rdi
	callq	__ZN4core3fmt10ArgumentV19new_debug17h6d3c99e757673d0eE
	movq	%rax, -24(%rbp)
	movq	%rdx, -16(%rbp)
	leaq	-72(%rbp), %rdi
	leaq	l___unnamed_5(%rip), %rsi
	movl	$1, %r8d
	leaq	-24(%rbp), %rcx
	movq	%r8, %rdx
	callq	__ZN4core3fmt9Arguments6new_v117hce1d249b1d0cb4eaE
	movq	-88(%rbp), %rdi
	leaq	-72(%rbp), %rsi
	callq	__ZN4core3fmt9Formatter9write_fmt17h9bb7721c944aee26E
	.loc	3 296 6
	andb	$1, %al
	movzbl	%al, %eax
	addq	$96, %rsp
	popq	%rbp
	retq
Ltmp13:
Lfunc_end5:
	.cfi_endproc

	.globl	__ZN108_$LT$smallvec..CollectionAllocErr$u20$as$u20$core..convert..From$LT$core..alloc..layout..LayoutError$GT$$GT$4from17h449f5d6884d99822E
	.p2align	4, 0x90
__ZN108_$LT$smallvec..CollectionAllocErr$u20$as$u20$core..convert..From$LT$core..alloc..layout..LayoutError$GT$$GT$4from17h449f5d6884d99822E:
Lfunc_begin6:
	.loc	3 301 0
	.cfi_startproc
	pushq	%rbp
	.cfi_def_cfa_offset 16
	.cfi_offset %rbp, -16
	movq	%rsp, %rbp
	.cfi_def_cfa_register %rbp
	subq	$24, %rsp
Ltmp14:
	.loc	3 302 9 prologue_end
	movq	$0, -16(%rbp)
	.loc	3 303 6
	movq	-24(%rbp), %rax
	movq	-16(%rbp), %rdx
	addq	$24, %rsp
	popq	%rbp
	retq
Ltmp15:
Lfunc_end6:
	.cfi_endproc

	.globl	__ZN65_$LT$smallvec..CollectionAllocErr$u20$as$u20$core..fmt..Debug$GT$3fmt17ha860acc43f392beeE
	.p2align	4, 0x90
__ZN65_$LT$smallvec..CollectionAllocErr$u20$as$u20$core..fmt..Debug$GT$3fmt17ha860acc43f392beeE:
Lfunc_begin7:
	.loc	3 282 0
	.cfi_startproc
	pushq	%rbp
	.cfi_def_cfa_offset 16
	.cfi_offset %rbp, -16
	movq	%rsp, %rbp
	.cfi_def_cfa_register %rbp
	subq	$64, %rsp
	movq	%rdi, -48(%rbp)
	movq	%rsi, -40(%rbp)
	movq	%rdi, -16(%rbp)
	movq	%rsi, -8(%rbp)
Ltmp16:
	.loc	3 282 10 prologue_end
	movl	$1, %eax
	xorl	%ecx, %ecx
	cmpq	$0, 8(%rdi)
	cmoveq	%rcx, %rax
	cmpq	$0, %rax
	jne	LBB7_2
	.loc	3 0 10 is_stmt 0
	movq	-40(%rbp), %rdi
	.loc	3 282 10
	leaq	L___unnamed_6(%rip), %rsi
	movl	$16, %edx
	callq	__ZN4core3fmt9Formatter9write_str17hb029d9999327a35fE
	andb	$1, %al
	movb	%al, -25(%rbp)
	jmp	LBB7_3
LBB7_2:
	.loc	3 0 10
	movq	-40(%rbp), %rdi
	movq	-48(%rbp), %rax
	.loc	3 289 9 is_stmt 1
	movq	%rax, -24(%rbp)
Ltmp17:
	.loc	3 282 10
	leaq	L___unnamed_7(%rip), %rsi
	movl	$8, %edx
	leaq	l___unnamed_8(%rip), %rcx
	movl	$6, %r8d
	leaq	-24(%rbp), %r9
	leaq	l___unnamed_1(%rip), %rax
	movq	%rax, (%rsp)
	callq	__ZN4core3fmt9Formatter26debug_struct_field1_finish17ha7aba2fd90afbefeE
	andb	$1, %al
	movb	%al, -25(%rbp)
Ltmp18:
LBB7_3:
	.loc	3 282 15 is_stmt 0
	movb	-25(%rbp), %al
	andb	$1, %al
	movzbl	%al, %eax
	addq	$64, %rsp
	popq	%rbp
	retq
Ltmp19:
Lfunc_end7:
	.cfi_endproc

	.section	__TEXT,__const
l___unnamed_9:
	.ascii	"invalid args"

	.section	__DATA,__const
	.p2align	3
l___unnamed_2:
	.quad	l___unnamed_9
	.asciz	"\f\000\000\000\000\000\000"

	.section	__TEXT,__const
	.p2align	3
l___unnamed_3:
	.byte	0

l___unnamed_10:
	.ascii	"/rustc/2c8cc343237b8f7d5a3c3703e3a87f2eb2c54a74/library/core/src/fmt/mod.rs"

	.section	__DATA,__const
	.p2align	3
l___unnamed_4:
	.quad	l___unnamed_10
	.asciz	"K\000\000\000\000\000\000\000\221\001\000\000\r\000\000"

	.section	__TEXT,__const
l___unnamed_11:
	.ascii	"Allocation error: "

	.section	__DATA,__const
	.p2align	3
l___unnamed_5:
	.quad	l___unnamed_11
	.asciz	"\022\000\000\000\000\000\000"

	.section	__TEXT,__literal8,8byte_literals
L___unnamed_7:
	.ascii	"AllocErr"

	.section	__TEXT,__const
l___unnamed_8:
	.ascii	"layout"

	.section	__DATA,__const
	.p2align	3
l___unnamed_1:
	.quad	__ZN4core3ptr52drop_in_place$LT$$RF$core..alloc..layout..Layout$GT$17h37f502f33a78dd9bE
	.asciz	"\b\000\000\000\000\000\000\000\b\000\000\000\000\000\000"
	.quad	__ZN42_$LT$$RF$T$u20$as$u20$core..fmt..Debug$GT$3fmt17h4ae0d4322217a4e4E

	.section	__TEXT,__literal16,16byte_literals
L___unnamed_6:
	.ascii	"CapacityOverflow"

	.section	__DATA,__const
Lsec_end0:
	.section	__TEXT,__text,regular,pure_instructions
Lsec_end1: