	.section	__TEXT,__text,regular,pure_instructions
	.macosx_version_min 10, 7
	.p2align	4, 0x90
__ZN4core3fmt9Arguments6new_v117h784ab3a891a4f404E:
Lfunc_begin0:
	.file	1 "/rustc/2c8cc343237b8f7d5a3c3703e3a87f2eb2c54a74/library/core/src/fmt" "mod.rs"
	.loc	1 399 0
	.cfi_startproc
	pushq	%rbp
	.cfi_def_cfa_offset 16
	.cfi_offset %rbp, -16
	movq	%rsp, %rbp
	.cfi_def_cfa_register %rbp
	subq	$160, %rsp
	movq	%r8, -152(%rbp)
	movq	%rcx, -144(%rbp)
	movq	%rdx, -136(%rbp)
	movq	%rsi, -128(%rbp)
	movq	%rdi, -120(%rbp)
	movq	%rdi, -112(%rbp)
	movq	%rsi, -32(%rbp)
	movq	%rdx, -24(%rbp)
	movq	%rcx, -16(%rbp)
	movq	%r8, -8(%rbp)
Ltmp0:
	.loc	1 400 12 prologue_end
	cmpq	%r8, %rdx
	jb	LBB0_2
	.loc	1 0 12 is_stmt 0
	movq	-136(%rbp), %rax
	movq	-152(%rbp), %rcx
	.loc	1 400 56
	addq	$1, %rcx
	.loc	1 400 41
	cmpq	%rcx, %rax
	seta	%al
	.loc	1 400 12
	andb	$1, %al
	movb	%al, -97(%rbp)
	jmp	LBB0_3
LBB0_2:
	movb	$1, -97(%rbp)
LBB0_3:
	testb	$1, -97(%rbp)
	jne	LBB0_5
	.loc	1 0 12
	movq	-112(%rbp), %rax
	movq	-120(%rbp), %rcx
	movq	-152(%rbp), %rdx
	movq	-144(%rbp), %rsi
	movq	-136(%rbp), %rdi
	movq	-128(%rbp), %r8
	.loc	1 403 34 is_stmt 1
	movq	$0, -48(%rbp)
	.loc	1 403 9 is_stmt 0
	movq	%r8, 16(%rcx)
	movq	%rdi, 24(%rcx)
	movq	-48(%rbp), %r8
	movq	-40(%rbp), %rdi
	movq	%r8, (%rcx)
	movq	%rdi, 8(%rcx)
	movq	%rsi, 32(%rcx)
	movq	%rdx, 40(%rcx)
	.loc	1 404 6 is_stmt 1
	addq	$160, %rsp
	popq	%rbp
	retq
LBB0_5:
	.loc	1 401 13
	leaq	l___unnamed_1(%rip), %rsi
	leaq	l___unnamed_2(%rip), %rcx
	xorl	%eax, %eax
	movl	%eax, %r8d
	leaq	-96(%rbp), %rdi
	movq	%rdi, -160(%rbp)
	movl	$1, %edx
	callq	__ZN4core3fmt9Arguments6new_v117h784ab3a891a4f404E
	movq	-160(%rbp), %rdi
	leaq	l___unnamed_3(%rip), %rsi
	callq	__ZN4core9panicking9panic_fmt17h9b5d807e24bcaaedE
Ltmp1:
Lfunc_end0:
	.cfi_endproc

	.globl	__ZN4core4sync6atomic12atomic_store17h22d857bacb7d39cbE
	.p2align	4, 0x90
__ZN4core4sync6atomic12atomic_store17h22d857bacb7d39cbE:
Lfunc_begin1:
	.file	2 "/rustc/2c8cc343237b8f7d5a3c3703e3a87f2eb2c54a74/library/core/src/sync" "atomic.rs"
	.loc	2 3004 0
	.cfi_startproc
	pushq	%rbp
	.cfi_def_cfa_offset 16
	.cfi_offset %rbp, -16
	movq	%rsp, %rbp
	.cfi_def_cfa_register %rbp
	subq	$160, %rsp
	movq	%rdi, -144(%rbp)
	movb	%dl, %cl
	movb	%sil, %al
	movb	%al, -129(%rbp)
	movb	%cl, -113(%rbp)
	movq	%rdi, -16(%rbp)
	movb	%al, -1(%rbp)
Ltmp2:
	.loc	2 3007 15 prologue_end
	movzbl	-113(%rbp), %eax
	movq	%rax, -128(%rbp)
	.loc	2 0 15 is_stmt 0
	movq	-128(%rbp), %rax
	leaq	LJTI1_0(%rip), %rcx
	movslq	(%rcx,%rax,4), %rax
	addq	%rcx, %rax
	jmpq	*%rax
	.loc	2 3007 15
	ud2
LBB1_2:
	.loc	2 0 15
	movq	-144(%rbp), %rax
	movb	-129(%rbp), %cl
	.loc	2 3008 24 is_stmt 1
	movb	%cl, (%rax)
	.loc	2 3008 65 is_stmt 0
	jmp	LBB1_7
LBB1_3:
	.loc	2 0 65
	movq	-144(%rbp), %rax
	movb	-129(%rbp), %cl
	.loc	2 3009 24 is_stmt 1
	movb	%cl, (%rax)
	.loc	2 3009 65 is_stmt 0
	jmp	LBB1_7
LBB1_4:
	.loc	2 3011 24 is_stmt 1
	leaq	l___unnamed_4(%rip), %rsi
	leaq	l___unnamed_2(%rip), %rcx
	xorl	%eax, %eax
	movl	%eax, %r8d
	leaq	-112(%rbp), %rdi
	movq	%rdi, -152(%rbp)
	movl	$1, %edx
	callq	__ZN4core3fmt9Arguments6new_v117h784ab3a891a4f404E
	movq	-152(%rbp), %rdi
	leaq	l___unnamed_5(%rip), %rsi
	callq	__ZN4core9panicking9panic_fmt17h9b5d807e24bcaaedE
LBB1_5:
	.loc	2 3012 23
	leaq	l___unnamed_6(%rip), %rsi
	leaq	l___unnamed_2(%rip), %rcx
	xorl	%eax, %eax
	movl	%eax, %r8d
	leaq	-64(%rbp), %rdi
	movq	%rdi, -160(%rbp)
	movl	$1, %edx
	callq	__ZN4core3fmt9Arguments6new_v117h784ab3a891a4f404E
	movq	-160(%rbp), %rdi
	leaq	l___unnamed_7(%rip), %rsi
	callq	__ZN4core9panicking9panic_fmt17h9b5d807e24bcaaedE
LBB1_6:
	.loc	2 0 23 is_stmt 0
	movq	-144(%rbp), %rcx
	movb	-129(%rbp), %al
	.loc	2 3010 23 is_stmt 1
	xchgb	%al, (%rcx)
LBB1_7:
	.loc	2 3015 2
	addq	$160, %rsp
	popq	%rbp
	retq
Ltmp3:
Lfunc_end1:
	.cfi_endproc
	.p2align	2, 0x90
	.data_region jt32
.set L1_0_set_2, LBB1_2-LJTI1_0
.set L1_0_set_3, LBB1_3-LJTI1_0
.set L1_0_set_4, LBB1_4-LJTI1_0
.set L1_0_set_5, LBB1_5-LJTI1_0
.set L1_0_set_6, LBB1_6-LJTI1_0
LJTI1_0:
	.long	L1_0_set_2
	.long	L1_0_set_3
	.long	L1_0_set_4
	.long	L1_0_set_5
	.long	L1_0_set_6
	.end_data_region

	.p2align	4, 0x90
__ZN4core4sync6atomic8AtomicU85store17hdf810078846bb044E:
Lfunc_begin2:
	.loc	2 2152 0
	.cfi_startproc
	pushq	%rbp
	.cfi_def_cfa_offset 16
	.cfi_offset %rbp, -16
	movq	%rsp, %rbp
	.cfi_def_cfa_register %rbp
	subq	$32, %rsp
	movb	%dl, %al
	movb	%sil, %cl
	movq	%rdi, -24(%rbp)
	movb	%cl, -10(%rbp)
	movb	%al, -9(%rbp)
Ltmp4:
	.loc	2 2154 39 prologue_end
	movq	%rdi, -8(%rbp)
	.loc	2 2154 26 is_stmt 0
	movzbl	%cl, %esi
	movzbl	%al, %edx
	callq	__ZN4core4sync6atomic12atomic_store17h22d857bacb7d39cbE
	.loc	2 2155 14 is_stmt 1
	addq	$32, %rsp
	popq	%rbp
	retq
Ltmp5:
Lfunc_end2:
	.cfi_endproc

	.globl	__ZN4spin7barrier17BarrierWaitResult9is_leader17hdb03cbd2ea3e173cE
	.p2align	4, 0x90
__ZN4spin7barrier17BarrierWaitResult9is_leader17hdb03cbd2ea3e173cE:
Lfunc_begin3:
	.file	3 "/Users/natalie/.cargo/registry/src/github.com-1ecc6299db9ec823/spin-0.9.4" "src/barrier.rs"
	.loc	3 179 0
	.cfi_startproc
	pushq	%rbp
	.cfi_def_cfa_offset 16
	.cfi_offset %rbp, -16
	movq	%rsp, %rbp
	.cfi_def_cfa_register %rbp
	pushq	%rax
	movq	%rdi, -8(%rbp)
Ltmp6:
	.loc	3 179 39 prologue_end
	movb	(%rdi), %al
	.loc	3 179 47 is_stmt 0
	andb	$1, %al
	movzbl	%al, %eax
	addq	$8, %rsp
	popq	%rbp
	retq
Ltmp7:
Lfunc_end3:
	.cfi_endproc

	.globl	__ZN4spin4once6status6Status13new_unchecked17h19050d8bb2c9286bE
	.p2align	4, 0x90
__ZN4spin4once6status6Status13new_unchecked17h19050d8bb2c9286bE:
Lfunc_begin4:
	.file	4 "/Users/natalie/.cargo/registry/src/github.com-1ecc6299db9ec823/spin-0.9.4" "src/once.rs"
	.loc	4 85 0 is_stmt 1
	.cfi_startproc
	pushq	%rbp
	.cfi_def_cfa_offset 16
	.cfi_offset %rbp, -16
	movq	%rsp, %rbp
	.cfi_def_cfa_register %rbp
	subq	$2, %rsp
	movb	%dil, %al
	movb	%al, -2(%rbp)
Ltmp8:
	.loc	4 86 13 prologue_end
	movb	%al, -1(%rbp)
	movb	-1(%rbp), %al
	.loc	4 87 10
	addq	$2, %rsp
	popq	%rbp
	retq
Ltmp9:
Lfunc_end4:
	.cfi_endproc

	.globl	__ZN60_$LT$spin..once..Finish$u20$as$u20$core..ops..drop..Drop$GT$4drop17h5d60b39ecefaa607E
	.p2align	4, 0x90
__ZN60_$LT$spin..once..Finish$u20$as$u20$core..ops..drop..Drop$GT$4drop17h5d60b39ecefaa607E:
Lfunc_begin5:
	.loc	4 498 0
	.cfi_startproc
	pushq	%rbp
	.cfi_def_cfa_offset 16
	.cfi_offset %rbp, -16
	movq	%rsp, %rbp
	.cfi_def_cfa_register %rbp
	subq	$48, %rsp
	movq	%rdi, -32(%rbp)
Ltmp10:
	.loc	4 505 9 prologue_end
	movq	(%rdi), %rdi
	.loc	4 505 27 is_stmt 0
	movb	$3, -34(%rbp)
	.loc	4 505 45
	movb	$4, -33(%rbp)
	.loc	4 505 9
	movb	-34(%rbp), %cl
	movb	-33(%rbp), %al
	movq	%rdi, -16(%rbp)
	movb	%cl, -2(%rbp)
	movb	%al, -1(%rbp)
Ltmp11:
	.loc	4 106 26 is_stmt 1
	movb	%cl, -17(%rbp)
	movb	-17(%rbp), %cl
	.loc	4 106 13 is_stmt 0
	movzbl	%cl, %esi
	movzbl	%al, %edx
	callq	__ZN4core4sync6atomic8AtomicU85store17hdf810078846bb044E
Ltmp12:
	.loc	4 506 6 is_stmt 1
	addq	$48, %rsp
	popq	%rbp
	retq
Ltmp13:
Lfunc_end5:
	.cfi_endproc

	.globl	__ZN63_$LT$spin..once..status..Status$u20$as$u20$core..fmt..Debug$GT$3fmt17h60128491d09b5d40E
	.p2align	4, 0x90
__ZN63_$LT$spin..once..status..Status$u20$as$u20$core..fmt..Debug$GT$3fmt17h60128491d09b5d40E:
Lfunc_begin6:
	.loc	4 72 0
	.cfi_startproc
	pushq	%rbp
	.cfi_def_cfa_offset 16
	.cfi_offset %rbp, -16
	movq	%rsp, %rbp
	.cfi_def_cfa_register %rbp
	subq	$48, %rsp
	movq	%rsi, -48(%rbp)
	movq	%rdi, -16(%rbp)
	movq	%rsi, -8(%rbp)
Ltmp14:
	.loc	4 72 27 prologue_end
	movzbl	(%rdi), %eax
	movq	%rax, -40(%rbp)
	.loc	4 0 27 is_stmt 0
	movq	-40(%rbp), %rax
	leaq	LJTI6_0(%rip), %rcx
	movslq	(%rcx,%rax,4), %rax
	addq	%rcx, %rax
	jmpq	*%rax
	.loc	4 72 27
	ud2
LBB6_2:
	leaq	l___unnamed_8(%rip), %rax
	movq	%rax, -32(%rbp)
	movq	$10, -24(%rbp)
	.loc	4 72 31
	jmp	LBB6_6
LBB6_3:
	.loc	4 72 27
	leaq	l___unnamed_9(%rip), %rax
	movq	%rax, -32(%rbp)
	movq	$7, -24(%rbp)
	.loc	4 72 31
	jmp	LBB6_6
LBB6_4:
	.loc	4 72 27
	leaq	L___unnamed_10(%rip), %rax
	movq	%rax, -32(%rbp)
	movq	$8, -24(%rbp)
	.loc	4 72 31
	jmp	LBB6_6
LBB6_5:
	.loc	4 72 27
	leaq	L___unnamed_11(%rip), %rax
	movq	%rax, -32(%rbp)
	movq	$8, -24(%rbp)
LBB6_6:
	.loc	4 0 27
	movq	-48(%rbp), %rdi
	.loc	4 72 27
	movq	-32(%rbp), %rsi
	movq	-24(%rbp), %rdx
	callq	__ZN4core3fmt9Formatter9write_str17hb029d9999327a35fE
	.loc	4 72 32
	andb	$1, %al
	movzbl	%al, %eax
	addq	$48, %rsp
	popq	%rbp
	retq
Ltmp15:
Lfunc_end6:
	.cfi_endproc
	.p2align	2, 0x90
	.data_region jt32
.set L6_0_set_2, LBB6_2-LJTI6_0
.set L6_0_set_3, LBB6_3-LJTI6_0
.set L6_0_set_4, LBB6_4-LJTI6_0
.set L6_0_set_5, LBB6_5-LJTI6_0
LJTI6_0:
	.long	L6_0_set_2
	.long	L6_0_set_3
	.long	L6_0_set_4
	.long	L6_0_set_5
	.end_data_region

	.section	__TEXT,__const
l___unnamed_12:
	.ascii	"invalid args"

	.section	__DATA,__const
	.p2align	3
l___unnamed_1:
	.quad	l___unnamed_12
	.asciz	"\f\000\000\000\000\000\000"

	.section	__TEXT,__const
	.p2align	3
l___unnamed_2:
	.byte	0

l___unnamed_13:
	.ascii	"/rustc/2c8cc343237b8f7d5a3c3703e3a87f2eb2c54a74/library/core/src/fmt/mod.rs"

	.section	__DATA,__const
	.p2align	3
l___unnamed_3:
	.quad	l___unnamed_13
	.asciz	"K\000\000\000\000\000\000\000\221\001\000\000\r\000\000"

	.section	__TEXT,__const
l___unnamed_14:
	.ascii	"there is no such thing as an acquire-release store"

	.section	__DATA,__const
	.p2align	3
l___unnamed_6:
	.quad	l___unnamed_14
	.asciz	"2\000\000\000\000\000\000"

	.section	__TEXT,__const
l___unnamed_15:
	.ascii	"/rustc/2c8cc343237b8f7d5a3c3703e3a87f2eb2c54a74/library/core/src/sync/atomic.rs"

	.section	__DATA,__const
	.p2align	3
l___unnamed_7:
	.quad	l___unnamed_15
	.asciz	"O\000\000\000\000\000\000\000\304\013\000\000\027\000\000"

	.section	__TEXT,__const
l___unnamed_16:
	.ascii	"there is no such thing as an acquire store"

	.section	__DATA,__const
	.p2align	3
l___unnamed_4:
	.quad	l___unnamed_16
	.asciz	"*\000\000\000\000\000\000"

	.p2align	3
l___unnamed_5:
	.quad	l___unnamed_15
	.asciz	"O\000\000\000\000\000\000\000\303\013\000\000\030\000\000"

	.section	__TEXT,__literal8,8byte_literals
L___unnamed_11:
	.ascii	"Panicked"

L___unnamed_10:
	.ascii	"Complete"

	.section	__TEXT,__const
l___unnamed_9:
	.ascii	"Running"

l___unnamed_8:
	.ascii	"Incomplete"

	.section	__TEXT,__text,regular,pure_instructions
Lsec_end0: