	.section	__TEXT,__text,regular,pure_instructions
	.macosx_version_min 10, 7
	.globl	__ZN3std4path4Path3new17hd2cecee48dc930deE
	.p2align	4, 0x90
__ZN3std4path4Path3new17hd2cecee48dc930deE:
Lfunc_begin0:
	.file	1 "/rustc/2c8cc343237b8f7d5a3c3703e3a87f2eb2c54a74/library/std/src" "path.rs"
	.loc	1 2037 0
	.cfi_startproc
	pushq	%rbp
	.cfi_def_cfa_offset 16
	.cfi_offset %rbp, -16
	movq	%rsp, %rbp
	.cfi_def_cfa_register %rbp
	subq	$16, %rsp
	movq	%rdi, -8(%rbp)
Ltmp0:
	.loc	1 2038 21 prologue_end
	callq	__ZN98_$LT$std..ffi..os_str..OsString$u20$as$u20$core..convert..AsRef$LT$std..ffi..os_str..OsStr$GT$$GT$6as_ref17hd9b86fce0dafa824E
	.loc	1 2039 6
	addq	$16, %rsp
	popq	%rbp
	retq
Ltmp1:
Lfunc_end0:
	.cfi_endproc

	.p2align	4, 0x90
__ZN3std4path4Path7display17h76eb94f98ff0acc3E:
Lfunc_begin1:
	.loc	1 2702 0
	.cfi_startproc
	pushq	%rbp
	.cfi_def_cfa_offset 16
	.cfi_offset %rbp, -16
	movq	%rsp, %rbp
	.cfi_def_cfa_register %rbp
	subq	$32, %rsp
	movq	%rdi, -16(%rbp)
	movq	%rsi, -8(%rbp)
Ltmp2:
	.loc	1 2703 9 prologue_end
	movq	%rdi, -32(%rbp)
	movq	%rsi, -24(%rbp)
	.loc	1 2704 6
	movq	-32(%rbp), %rax
	movq	-24(%rbp), %rdx
	addq	$32, %rsp
	popq	%rbp
	retq
Ltmp3:
Lfunc_end1:
	.cfi_endproc

	.p2align	4, 0x90
__ZN62_$LT$std..path..PathBuf$u20$as$u20$core..ops..deref..Deref$GT$5deref17h3662e3165e3690aaE:
Lfunc_begin2:
	.loc	1 1776 0
	.cfi_startproc
	pushq	%rbp
	.cfi_def_cfa_offset 16
	.cfi_offset %rbp, -16
	movq	%rsp, %rbp
	.cfi_def_cfa_register %rbp
	subq	$16, %rsp
	movq	%rdi, -8(%rbp)
Ltmp4:
	.loc	1 1777 9 prologue_end
	callq	__ZN3std4path4Path3new17hd2cecee48dc930deE
	.loc	1 1778 6
	addq	$16, %rsp
	popq	%rbp
	retq
Ltmp5:
Lfunc_end2:
	.cfi_endproc

	.globl	__ZN72_$LT$alloc..vec..Vec$LT$T$C$A$GT$$u20$as$u20$core..ops..deref..Deref$GT$5deref17hd8b1a95d0d6e517cE
	.p2align	4, 0x90
__ZN72_$LT$alloc..vec..Vec$LT$T$C$A$GT$$u20$as$u20$core..ops..deref..Deref$GT$5deref17hd8b1a95d0d6e517cE:
Lfunc_begin3:
	.file	2 "/rustc/2c8cc343237b8f7d5a3c3703e3a87f2eb2c54a74/library/alloc/src/vec" "mod.rs"
	.loc	2 2636 0
	.cfi_startproc
	pushq	%rbp
	.cfi_def_cfa_offset 16
	.cfi_offset %rbp, -16
	movq	%rsp, %rbp
	.cfi_def_cfa_register %rbp
	subq	$184, %rsp
	movq	%rdi, -144(%rbp)
Ltmp6:
	.loc	2 2637 40 prologue_end
	movq	%rdi, -136(%rbp)
Ltmp7:
	.loc	2 1243 19
	movq	%rdi, -128(%rbp)
Ltmp8:
	.file	3 "/rustc/2c8cc343237b8f7d5a3c3703e3a87f2eb2c54a74/library/alloc/src" "raw_vec.rs"
	.loc	3 224 9
	movq	8(%rdi), %rcx
	movq	%rcx, -120(%rbp)
Ltmp9:
	.file	4 "/rustc/2c8cc343237b8f7d5a3c3703e3a87f2eb2c54a74/library/core/src/ptr" "unique.rs"
	.loc	4 104 9
	movq	%rcx, -112(%rbp)
Ltmp10:
	.file	5 "/rustc/2c8cc343237b8f7d5a3c3703e3a87f2eb2c54a74/library/core/src/ptr" "non_null.rs"
	.loc	5 326 9
	movq	%rcx, -104(%rbp)
Ltmp11:
	.loc	2 1245 21
	movq	%rcx, -96(%rbp)
Ltmp12:
	.file	6 "/rustc/2c8cc343237b8f7d5a3c3703e3a87f2eb2c54a74/library/core/src/ptr" "mut_ptr.rs"
	.loc	6 52 36
	movq	%rcx, -184(%rbp)
	.loc	6 52 18 is_stmt 0
	movq	-184(%rbp), %rax
	movq	%rax, -88(%rbp)
Ltmp13:
	.loc	6 38 13 is_stmt 1
	movq	%rax, -80(%rbp)
Ltmp14:
	.loc	6 215 33
	movq	%rax, -72(%rbp)
	.loc	6 215 18 is_stmt 0
	movq	%rax, -64(%rbp)
Ltmp15:
	.loc	2 1247 9 is_stmt 1
	movq	%rcx, -56(%rbp)
Ltmp16:
	.loc	2 2637 55
	movq	16(%rdi), %rax
	movq	%rax, -48(%rbp)
Ltmp17:
	.file	7 "/rustc/2c8cc343237b8f7d5a3c3703e3a87f2eb2c54a74/library/core/src/slice" "raw.rs"
	.loc	7 100 37
	movq	%rcx, -40(%rbp)
	.loc	7 100 43 is_stmt 0
	movq	%rax, -32(%rbp)
Ltmp18:
	.file	8 "/rustc/2c8cc343237b8f7d5a3c3703e3a87f2eb2c54a74/library/core/src/ptr" "mod.rs"
	.loc	8 734 20 is_stmt 1
	movq	%rcx, -24(%rbp)
Ltmp19:
	.file	9 "/rustc/2c8cc343237b8f7d5a3c3703e3a87f2eb2c54a74/library/core/src/ptr" "const_ptr.rs"
	.loc	9 61 9
	movq	%rcx, -16(%rbp)
Ltmp20:
	.loc	8 734 33
	movq	%rax, -8(%rbp)
Ltmp21:
	.file	10 "/rustc/2c8cc343237b8f7d5a3c3703e3a87f2eb2c54a74/library/core/src/ptr" "metadata.rs"
	.loc	10 118 36
	movq	%rcx, -160(%rbp)
	movq	%rax, -152(%rbp)
	.loc	10 118 14 is_stmt 0
	movq	-160(%rbp), %rcx
	movq	-152(%rbp), %rax
	movq	%rcx, -176(%rbp)
	movq	%rax, -168(%rbp)
	movq	-176(%rbp), %rax
	movq	-168(%rbp), %rdx
Ltmp22:
	.loc	2 2638 6 is_stmt 1
	addq	$184, %rsp
	popq	%rbp
	retq
Ltmp23:
Lfunc_end3:
	.cfi_endproc

	.p2align	4, 0x90
__ZN98_$LT$std..ffi..os_str..OsString$u20$as$u20$core..convert..AsRef$LT$std..ffi..os_str..OsStr$GT$$GT$6as_ref17hd9b86fce0dafa824E:
Lfunc_begin4:
	.file	11 "/rustc/2c8cc343237b8f7d5a3c3703e3a87f2eb2c54a74/library/std/src/ffi" "os_str.rs"
	.loc	11 1313 0
	.cfi_startproc
	pushq	%rbp
	.cfi_def_cfa_offset 16
	.cfi_offset %rbp, -16
	movq	%rsp, %rbp
	.cfi_def_cfa_register %rbp
	subq	$80, %rsp
	movq	%rdi, -72(%rbp)
Ltmp24:
	.loc	11 1314 9 prologue_end
	movq	%rdi, -56(%rbp)
Ltmp25:
	.loc	11 515 10
	movq	%rdi, -48(%rbp)
Ltmp26:
	.loc	11 497 27
	movq	%rdi, -40(%rbp)
Ltmp27:
	.file	12 "/rustc/2c8cc343237b8f7d5a3c3703e3a87f2eb2c54a74/library/std/src/sys/unix" "os_str.rs"
	.loc	12 152 34
	callq	__ZN72_$LT$alloc..vec..Vec$LT$T$C$A$GT$$u20$as$u20$core..ops..deref..Deref$GT$5deref17hd8b1a95d0d6e517cE
	.loc	12 152 18 is_stmt 0
	movq	%rax, -32(%rbp)
	movq	%rdx, -24(%rbp)
	movq	-32(%rbp), %rax
	movq	-24(%rbp), %rdx
Ltmp28:
	.loc	11 497 27 is_stmt 1
	movq	%rax, -16(%rbp)
	movq	%rdx, -8(%rbp)
Ltmp29:
	.loc	11 1315 6
	addq	$80, %rsp
	popq	%rbp
	retq
Ltmp30:
Lfunc_end4:
	.cfi_endproc

	.globl	__ZN69_$LT$std..path..Path$u20$as$u20$thiserror..display..PathAsDisplay$GT$10as_display17ha54b2c441ab75e22E
	.p2align	4, 0x90
__ZN69_$LT$std..path..Path$u20$as$u20$thiserror..display..PathAsDisplay$GT$10as_display17ha54b2c441ab75e22E:
Lfunc_begin5:
	.file	13 "/Users/natalie/.cargo/registry/src/github.com-1ecc6299db9ec823/thiserror-1.0.37" "src/display.rs"
	.loc	13 19 0
	.cfi_startproc
	pushq	%rbp
	.cfi_def_cfa_offset 16
	.cfi_offset %rbp, -16
	movq	%rsp, %rbp
	.cfi_def_cfa_register %rbp
	subq	$16, %rsp
	movq	%rdi, -16(%rbp)
	movq	%rsi, -8(%rbp)
Ltmp31:
	.loc	13 20 9 prologue_end
	callq	__ZN3std4path4Path7display17h76eb94f98ff0acc3E
	.loc	13 21 6
	addq	$16, %rsp
	popq	%rbp
	retq
Ltmp32:
Lfunc_end5:
	.cfi_endproc

	.globl	__ZN72_$LT$std..path..PathBuf$u20$as$u20$thiserror..display..PathAsDisplay$GT$10as_display17hb46813de52cefa8aE
	.p2align	4, 0x90
__ZN72_$LT$std..path..PathBuf$u20$as$u20$thiserror..display..PathAsDisplay$GT$10as_display17hb46813de52cefa8aE:
Lfunc_begin6:
	.loc	13 25 0
	.cfi_startproc
	pushq	%rbp
	.cfi_def_cfa_offset 16
	.cfi_offset %rbp, -16
	movq	%rsp, %rbp
	.cfi_def_cfa_register %rbp
	subq	$16, %rsp
	movq	%rdi, -8(%rbp)
Ltmp33:
	.loc	13 26 9 prologue_end
	callq	__ZN62_$LT$std..path..PathBuf$u20$as$u20$core..ops..deref..Deref$GT$5deref17h3662e3165e3690aaE
	movq	%rax, %rdi
	movq	%rdx, %rsi
	callq	__ZN3std4path4Path7display17h76eb94f98ff0acc3E
	.loc	13 27 6
	addq	$16, %rsp
	popq	%rbp
	retq
Ltmp34:
Lfunc_end6:
	.cfi_endproc

	.section	__TEXT,__text,regular,pure_instructions
Lsec_end0: