	.section	__TEXT,__text,regular,pure_instructions
	.macosx_version_min 10, 7
	.globl	__ZN104_$LT$core..ops..control_flow..ControlFlow$LT$B$C$C$GT$$u20$as$u20$core..ops..try_trait..FromResidual$GT$13from_residual17h4afbc9f55e5003f7E
	.p2align	4, 0x90
__ZN104_$LT$core..ops..control_flow..ControlFlow$LT$B$C$C$GT$$u20$as$u20$core..ops..try_trait..FromResidual$GT$13from_residual17h4afbc9f55e5003f7E:
Lfunc_begin0:
	.file	1 "/rustc/2c8cc343237b8f7d5a3c3703e3a87f2eb2c54a74/library/core/src/ops" "control_flow.rs"
	.loc	1 123 0
	.cfi_startproc
	pushq	%rbp
	.cfi_def_cfa_offset 16
	.cfi_offset %rbp, -16
	movq	%rsp, %rbp
	.cfi_def_cfa_register %rbp
	subq	$48, %rsp
	movq	%rdi, -48(%rbp)
	movq	%rsi, -40(%rbp)
Ltmp0:
	.loc	1 125 32 prologue_end
	movq	-48(%rbp), %rcx
	movq	-40(%rbp), %rax
	movq	%rcx, -16(%rbp)
	movq	%rax, -8(%rbp)
Ltmp1:
	.loc	1 125 38 is_stmt 0
	movq	%rcx, -32(%rbp)
	movq	%rax, -24(%rbp)
Ltmp2:
	.loc	1 127 6 is_stmt 1
	movq	-32(%rbp), %rax
	movq	-24(%rbp), %rdx
	addq	$48, %rsp
	popq	%rbp
	retq
Ltmp3:
Lfunc_end0:
	.cfi_endproc

	.globl	__ZN104_$LT$std..thread..Builder..spawn_unchecked_..MaybeDangling$LT$T$GT$$u20$as$u20$core..ops..drop..Drop$GT$4drop17h570f1ed9460c11fbE
	.p2align	4, 0x90
__ZN104_$LT$std..thread..Builder..spawn_unchecked_..MaybeDangling$LT$T$GT$$u20$as$u20$core..ops..drop..Drop$GT$4drop17h570f1ed9460c11fbE:
Lfunc_begin1:
	.file	2 "/rustc/2c8cc343237b8f7d5a3c3703e3a87f2eb2c54a74/library/std/src/thread" "mod.rs"
	.loc	2 537 0
	.cfi_startproc
	pushq	%rbp
	.cfi_def_cfa_offset 16
	.cfi_offset %rbp, -16
	movq	%rsp, %rbp
	.cfi_def_cfa_register %rbp
	subq	$16, %rsp
	movq	%rdi, -8(%rbp)
Ltmp4:
	.loc	2 539 26 prologue_end
	callq	__ZN4core3mem12maybe_uninit20MaybeUninit$LT$T$GT$16assume_init_drop17h4b7565954cae375aE
	.loc	2 540 14
	addq	$16, %rsp
	popq	%rbp
	retq
Ltmp5:
Lfunc_end1:
	.cfi_endproc

	.globl	__ZN106_$LT$core..ops..range..Range$LT$usize$GT$$u20$as$u20$core..slice..index..SliceIndex$LT$$u5b$T$u5d$$GT$$GT$13get_unchecked17haa97047cd21ae72aE
	.p2align	4, 0x90
__ZN106_$LT$core..ops..range..Range$LT$usize$GT$$u20$as$u20$core..slice..index..SliceIndex$LT$$u5b$T$u5d$$GT$$GT$13get_unchecked17haa97047cd21ae72aE:
Lfunc_begin2:
	.file	3 "/rustc/2c8cc343237b8f7d5a3c3703e3a87f2eb2c54a74/library/core/src/slice" "index.rs"
	.loc	3 373 0
	.cfi_startproc
	pushq	%rbp
	.cfi_def_cfa_offset 16
	.cfi_offset %rbp, -16
	movq	%rsp, %rbp
	.cfi_def_cfa_register %rbp
	subq	$160, %rsp
	movq	%rdi, -128(%rbp)
	movq	%rsi, -120(%rbp)
	movq	%rdx, -112(%rbp)
	movq	%rcx, -104(%rbp)
Ltmp6:
	.loc	3 386 39 prologue_end
	movq	%rdx, -96(%rbp)
	movq	%rcx, -88(%rbp)
Ltmp7:
	.file	4 "/rustc/2c8cc343237b8f7d5a3c3703e3a87f2eb2c54a74/library/core/src/ptr" "const_ptr.rs"
	.loc	4 1650 9
	movq	%rdx, -80(%rbp)
Ltmp8:
	.loc	3 386 58
	movq	%rdi, -72(%rbp)
Ltmp9:
	.loc	4 932 18
	movq	%rdx, -64(%rbp)
	.loc	4 932 30 is_stmt 0
	movq	%rdi, -56(%rbp)
Ltmp10:
	.loc	4 473 18 is_stmt 1
	addq	%rdi, %rdx
	movq	%rdx, -48(%rbp)
	movq	-48(%rbp), %rax
	movq	%rax, -40(%rbp)
Ltmp11:
	.loc	3 386 71
	subq	%rdi, %rsi
	movq	%rsi, -32(%rbp)
Ltmp12:
	.file	5 "/rustc/2c8cc343237b8f7d5a3c3703e3a87f2eb2c54a74/library/core/src/ptr" "mod.rs"
	.loc	5 734 20
	movq	%rax, -24(%rbp)
Ltmp13:
	.loc	4 61 9
	movq	%rax, -16(%rbp)
Ltmp14:
	.loc	5 734 33
	movq	%rsi, -8(%rbp)
Ltmp15:
	.file	6 "/rustc/2c8cc343237b8f7d5a3c3703e3a87f2eb2c54a74/library/core/src/ptr" "metadata.rs"
	.loc	6 118 36
	movq	%rax, -144(%rbp)
	movq	%rsi, -136(%rbp)
	.loc	6 118 14 is_stmt 0
	movq	-144(%rbp), %rcx
	movq	-136(%rbp), %rax
	movq	%rcx, -160(%rbp)
	movq	%rax, -152(%rbp)
	movq	-160(%rbp), %rax
	movq	-152(%rbp), %rdx
Ltmp16:
	.loc	3 388 6 is_stmt 1
	addq	$160, %rsp
	popq	%rbp
	retq
Ltmp17:
Lfunc_end2:
	.cfi_endproc

	.globl	__ZN106_$LT$core..ops..range..Range$LT$usize$GT$$u20$as$u20$core..slice..index..SliceIndex$LT$$u5b$T$u5d$$GT$$GT$17get_unchecked_mut17h221e8f09bfe3302aE
	.p2align	4, 0x90
__ZN106_$LT$core..ops..range..Range$LT$usize$GT$$u20$as$u20$core..slice..index..SliceIndex$LT$$u5b$T$u5d$$GT$$GT$17get_unchecked_mut17h221e8f09bfe3302aE:
Lfunc_begin3:
	.loc	3 391 0
	.cfi_startproc
	pushq	%rbp
	.cfi_def_cfa_offset 16
	.cfi_offset %rbp, -16
	movq	%rsp, %rbp
	.cfi_def_cfa_register %rbp
	subq	$160, %rsp
	movq	%rdi, -128(%rbp)
	movq	%rsi, -120(%rbp)
	movq	%rdx, -112(%rbp)
	movq	%rcx, -104(%rbp)
Ltmp18:
	.loc	3 400 43 prologue_end
	movq	%rdx, -96(%rbp)
	movq	%rcx, -88(%rbp)
Ltmp19:
	.file	7 "/rustc/2c8cc343237b8f7d5a3c3703e3a87f2eb2c54a74/library/core/src/ptr" "mut_ptr.rs"
	.loc	7 2037 9
	movq	%rdx, -80(%rbp)
Ltmp20:
	.loc	3 400 66
	movq	%rdi, -72(%rbp)
Ltmp21:
	.loc	7 1034 18
	movq	%rdx, -64(%rbp)
	.loc	7 1034 30 is_stmt 0
	movq	%rdi, -56(%rbp)
Ltmp22:
	.loc	7 487 18 is_stmt 1
	addq	%rdi, %rdx
	movq	%rdx, -48(%rbp)
	movq	-48(%rbp), %rax
	movq	%rax, -40(%rbp)
Ltmp23:
	.loc	3 400 79
	subq	%rdi, %rsi
	movq	%rsi, -32(%rbp)
Ltmp24:
	.loc	5 766 24
	movq	%rax, -24(%rbp)
Ltmp25:
	.loc	7 60 9
	movq	%rax, -16(%rbp)
Ltmp26:
	.loc	5 766 37
	movq	%rsi, -8(%rbp)
Ltmp27:
	.loc	6 135 36
	movq	%rax, -144(%rbp)
	movq	%rsi, -136(%rbp)
	.loc	6 135 14 is_stmt 0
	movq	-144(%rbp), %rcx
	movq	-136(%rbp), %rax
	movq	%rcx, -160(%rbp)
	movq	%rax, -152(%rbp)
	movq	-160(%rbp), %rax
	movq	-152(%rbp), %rdx
Ltmp28:
	.loc	3 402 6 is_stmt 1
	addq	$160, %rsp
	popq	%rbp
	retq
Ltmp29:
Lfunc_end3:
	.cfi_endproc

	.globl	__ZN106_$LT$core..ops..range..Range$LT$usize$GT$$u20$as$u20$core..slice..index..SliceIndex$LT$$u5b$T$u5d$$GT$$GT$9index_mut17h865f3aa6bd02250eE
	.p2align	4, 0x90
__ZN106_$LT$core..ops..range..Range$LT$usize$GT$$u20$as$u20$core..slice..index..SliceIndex$LT$$u5b$T$u5d$$GT$$GT$9index_mut17h865f3aa6bd02250eE:
Lfunc_begin4:
	.loc	3 416 0
	.cfi_startproc
	pushq	%rbp
	.cfi_def_cfa_offset 16
	.cfi_offset %rbp, -16
	movq	%rsp, %rbp
	.cfi_def_cfa_register %rbp
	subq	$80, %rsp
	movq	%rdi, -72(%rbp)
	movq	%rsi, -64(%rbp)
	movq	%rdx, -56(%rbp)
	movq	%rcx, -48(%rbp)
	movq	%r8, -40(%rbp)
	movq	%rdi, -32(%rbp)
	movq	%rsi, -24(%rbp)
	movq	%rdx, -16(%rbp)
	movq	%rcx, -8(%rbp)
Ltmp30:
	.loc	3 417 12 prologue_end
	cmpq	%rsi, %rdi
	ja	LBB4_2
	.loc	3 0 12 is_stmt 0
	movq	-64(%rbp), %rax
	movq	-48(%rbp), %rcx
	.loc	3 419 19 is_stmt 1
	cmpq	%rcx, %rax
	ja	LBB4_4
	jmp	LBB4_3
LBB4_2:
	.loc	3 0 19 is_stmt 0
	movq	-40(%rbp), %rdx
	movq	-64(%rbp), %rsi
	movq	-72(%rbp), %rdi
	.loc	3 418 13 is_stmt 1
	callq	__ZN4core5slice5index22slice_index_order_fail17h0d8f800a07d5f26eE
LBB4_3:
	.loc	3 0 13 is_stmt 0
	movq	-48(%rbp), %rcx
	movq	-56(%rbp), %rdx
	movq	-64(%rbp), %rsi
	movq	-72(%rbp), %rdi
	.loc	3 423 24 is_stmt 1
	callq	__ZN106_$LT$core..ops..range..Range$LT$usize$GT$$u20$as$u20$core..slice..index..SliceIndex$LT$$u5b$T$u5d$$GT$$GT$17get_unchecked_mut17h221e8f09bfe3302aE
	.loc	3 424 6
	addq	$80, %rsp
	popq	%rbp
	retq
LBB4_4:
	.loc	3 0 6 is_stmt 0
	movq	-40(%rbp), %rdx
	movq	-48(%rbp), %rsi
	movq	-64(%rbp), %rdi
	.loc	3 420 13 is_stmt 1
	callq	__ZN4core5slice5index24slice_end_index_len_fail17hc921cb2f1513645aE
Ltmp31:
Lfunc_end4:
	.cfi_endproc

	.globl	__ZN110_$LT$core..iter..adapters..enumerate..Enumerate$LT$I$GT$$u20$as$u20$core..iter..traits..iterator..Iterator$GT$8try_fold17h9ba4423bc6803067E
	.p2align	4, 0x90
__ZN110_$LT$core..iter..adapters..enumerate..Enumerate$LT$I$GT$$u20$as$u20$core..iter..traits..iterator..Iterator$GT$8try_fold17h9ba4423bc6803067E:
Lfunc_begin5:
	.file	8 "/rustc/2c8cc343237b8f7d5a3c3703e3a87f2eb2c54a74/library/core/src/iter/adapters" "enumerate.rs"
	.loc	8 72 0
	.cfi_startproc
	.cfi_personality 155, _rust_eh_personality
	.cfi_lsda 16, Lexception0
	pushq	%rbp
	.cfi_def_cfa_offset 16
	.cfi_offset %rbp, -16
	movq	%rsp, %rbp
	.cfi_def_cfa_register %rbp
	subq	$96, %rsp
	movq	%rdi, -56(%rbp)
	movq	%rsi, -40(%rbp)
Ltmp35:
	.loc	8 91 44 prologue_end
	movq	%rdi, %rax
	addq	$16, %rax
	movq	%rax, -32(%rbp)
	.loc	8 91 61 is_stmt 0
	movq	%rsi, -24(%rbp)
Ltmp36:
	.loc	8 84 13 is_stmt 1
	movq	%rsi, -72(%rbp)
	movq	%rax, -64(%rbp)
Ltmp37:
	.loc	8 91 9
	movq	-72(%rbp), %rsi
	movq	-64(%rbp), %rdx
Ltmp32:
	callq	__ZN4core4iter6traits8iterator8Iterator8try_fold17hd6b816244456e774E
Ltmp33:
	movq	%rdx, -88(%rbp)
	movq	%rax, -80(%rbp)
	jmp	LBB5_3
LBB5_1:
	.loc	8 91 66 is_stmt 0
	xorl	%eax, %eax
	testb	$1, %al
	jne	LBB5_5
	jmp	LBB5_4
LBB5_2:
Ltmp34:
	.loc	8 0 66
	movq	%rax, %rcx
	movl	%edx, %eax
	movq	%rcx, -16(%rbp)
	movl	%eax, -8(%rbp)
	jmp	LBB5_1
LBB5_3:
	movq	-88(%rbp), %rdx
	movq	-80(%rbp), %rax
	.loc	8 92 6 is_stmt 1
	addq	$96, %rsp
	popq	%rbp
	retq
LBB5_4:
	.loc	8 72 5
	movq	-16(%rbp), %rdi
	callq	__Unwind_Resume
LBB5_5:
	.loc	8 91 66
	jmp	LBB5_4
Ltmp38:
Lfunc_end5:
	.cfi_endproc
	.section	__TEXT,__gcc_except_tab
	.p2align	2
GCC_except_table5:
Lexception0:
	.byte	255
	.byte	255
	.byte	1
	.uleb128 Lcst_end0-Lcst_begin0
Lcst_begin0:
	.uleb128 Ltmp32-Lfunc_begin5
	.uleb128 Ltmp33-Ltmp32
	.uleb128 Ltmp34-Lfunc_begin5
	.byte	0
	.uleb128 Ltmp33-Lfunc_begin5
	.uleb128 Lfunc_end5-Ltmp33
	.byte	0
	.byte	0
Lcst_end0:
	.p2align	2

	.section	__TEXT,__text,regular,pure_instructions
	.globl	__ZN110_$LT$core..iter..adapters..enumerate..Enumerate$LT$I$GT$$u20$as$u20$core..iter..traits..iterator..Iterator$GT$8try_fold9enumerate28_$u7b$$u7b$closure$u7d$$u7d$17h8d8ddcec4d630168E
	.p2align	4, 0x90
__ZN110_$LT$core..iter..adapters..enumerate..Enumerate$LT$I$GT$$u20$as$u20$core..iter..traits..iterator..Iterator$GT$8try_fold9enumerate28_$u7b$$u7b$closure$u7d$$u7d$17h8d8ddcec4d630168E:
Lfunc_begin6:
	.loc	8 84 0
	.cfi_startproc
	.cfi_personality 155, _rust_eh_personality
	.cfi_lsda 16, Lexception1
	pushq	%rbp
	.cfi_def_cfa_offset 16
	.cfi_offset %rbp, -16
	movq	%rsp, %rbp
	.cfi_def_cfa_register %rbp
	subq	$128, %rsp
	movq	%rdi, -120(%rbp)
	movq	%rdi, -56(%rbp)
	movq	%rsi, -40(%rbp)
Ltmp42:
	.loc	8 85 38 prologue_end
	movq	8(%rdi), %rax
	movq	(%rax), %rax
	.loc	8 85 37 is_stmt 0
	movq	%rax, -72(%rbp)
	movq	%rsi, -64(%rbp)
	.loc	8 85 27
	movq	-72(%rbp), %rcx
	movq	-64(%rbp), %rax
	movq	%rcx, -88(%rbp)
	movq	%rax, -80(%rbp)
	movq	-88(%rbp), %rsi
	movq	-80(%rbp), %rdx
	callq	__ZN4core4iter6traits8iterator8Iterator4find5check28_$u7b$$u7b$closure$u7d$$u7d$17h79e69f680d6b5d18E
	movq	-120(%rbp), %rdi
	movq	%rax, -112(%rbp)
	movq	%rdx, -104(%rbp)
	movq	%rax, -32(%rbp)
	movq	%rdx, -24(%rbp)
Ltmp43:
	.loc	8 86 17 is_stmt 1
	movq	8(%rdi), %rax
	movq	(%rax), %rax
	addq	$1, %rax
	movq	%rax, -96(%rbp)
	setb	%al
	testb	$1, %al
	jne	LBB6_2
	.loc	8 0 17 is_stmt 0
	movq	-104(%rbp), %rdx
	movq	-112(%rbp), %rax
	movq	-96(%rbp), %rsi
	movq	-120(%rbp), %rcx
	.loc	8 86 17
	movq	8(%rcx), %rcx
	movq	%rsi, (%rcx)
Ltmp44:
	.loc	8 88 14 is_stmt 1
	addq	$128, %rsp
	popq	%rbp
	retq
LBB6_2:
Ltmp39:
Ltmp45:
	.loc	8 86 17
	leaq	_str.0(%rip), %rdi
	leaq	l___unnamed_14(%rip), %rdx
	movl	$28, %esi
	callq	__ZN4core9panicking5panic17hc1bc45270cf64b03E
Ltmp40:
	jmp	LBB6_5
Ltmp46:
LBB6_3:
	.loc	8 84 13
	movq	-16(%rbp), %rdi
	callq	__Unwind_Resume
Ltmp47:
LBB6_4:
Ltmp41:
	.loc	8 0 13 is_stmt 0
	movq	%rax, %rcx
	movl	%edx, %eax
	movq	%rcx, -16(%rbp)
	movl	%eax, -8(%rbp)
	jmp	LBB6_3
LBB6_5:
	ud2
Lfunc_end6:
	.cfi_endproc
	.section	__TEXT,__gcc_except_tab
	.p2align	2
GCC_except_table6:
Lexception1:
	.byte	255
	.byte	255
	.byte	1
	.uleb128 Lcst_end1-Lcst_begin1
Lcst_begin1:
	.uleb128 Lfunc_begin6-Lfunc_begin6
	.uleb128 Ltmp39-Lfunc_begin6
	.byte	0
	.byte	0
	.uleb128 Ltmp39-Lfunc_begin6
	.uleb128 Ltmp40-Ltmp39
	.uleb128 Ltmp41-Lfunc_begin6
	.byte	0
	.uleb128 Ltmp40-Lfunc_begin6
	.uleb128 Lfunc_end6-Ltmp40
	.byte	0
	.byte	0
Lcst_end1:
	.p2align	2

	.section	__TEXT,__text,regular,pure_instructions
	.globl	__ZN110_$LT$core..ops..range..RangeFrom$LT$usize$GT$$u20$as$u20$core..slice..index..SliceIndex$LT$$u5b$T$u5d$$GT$$GT$5index17h6f94cf52da0254b7E
	.p2align	4, 0x90
__ZN110_$LT$core..ops..range..RangeFrom$LT$usize$GT$$u20$as$u20$core..slice..index..SliceIndex$LT$$u5b$T$u5d$$GT$$GT$5index17h6f94cf52da0254b7E:
Lfunc_begin7:
	.loc	3 493 0 is_stmt 1
	.cfi_startproc
	pushq	%rbp
	.cfi_def_cfa_offset 16
	.cfi_offset %rbp, -16
	movq	%rsp, %rbp
	.cfi_def_cfa_register %rbp
	subq	$144, %rsp
	movq	%rdi, -144(%rbp)
	movq	%rsi, -136(%rbp)
	movq	%rdx, -128(%rbp)
	movq	%rcx, -120(%rbp)
	movq	%rdi, -80(%rbp)
	movq	%rsi, -72(%rbp)
	movq	%rdx, -64(%rbp)
Ltmp48:
	.loc	3 494 12 prologue_end
	cmpq	%rdx, %rdi
	ja	LBB7_2
	.loc	3 0 12 is_stmt 0
	movq	-128(%rbp), %rcx
	movq	-136(%rbp), %rdx
	movq	-144(%rbp), %rsi
	.loc	3 498 20 is_stmt 1
	movq	%rsi, -56(%rbp)
	.loc	3 498 39 is_stmt 0
	movq	%rdx, -48(%rbp)
	movq	%rcx, -40(%rbp)
Ltmp49:
	.loc	3 483 31 is_stmt 1
	movq	%rdx, -32(%rbp)
	movq	%rcx, -24(%rbp)
Ltmp50:
	.loc	4 1630 18
	movq	%rdx, -16(%rbp)
	movq	%rcx, -8(%rbp)
Ltmp51:
	.loc	6 98 14
	movq	%rdx, -96(%rbp)
	movq	%rcx, -88(%rbp)
	movq	-88(%rbp), %rax
Ltmp52:
	.loc	3 483 18
	movq	%rsi, -112(%rbp)
	movq	%rax, -104(%rbp)
	movq	-112(%rbp), %rdi
	movq	-104(%rbp), %rsi
	callq	__ZN106_$LT$core..ops..range..Range$LT$usize$GT$$u20$as$u20$core..slice..index..SliceIndex$LT$$u5b$T$u5d$$GT$$GT$13get_unchecked17haa97047cd21ae72aE
Ltmp53:
	.loc	3 499 6
	addq	$144, %rsp
	popq	%rbp
	retq
LBB7_2:
	.loc	3 0 6 is_stmt 0
	movq	-120(%rbp), %rdx
	movq	-128(%rbp), %rsi
	movq	-144(%rbp), %rdi
	.loc	3 495 13 is_stmt 1
	callq	__ZN4core5slice5index26slice_start_index_len_fail17h9d301bb51ec3e351E
Ltmp54:
Lfunc_end7:
	.cfi_endproc

	.globl	__ZN115_$LT$core..panic..unwind_safe..AssertUnwindSafe$LT$F$GT$$u20$as$u20$core..ops..function..FnOnce$LT$$LP$$RP$$GT$$GT$9call_once17h1574d33e5fdd39c2E
	.p2align	4, 0x90
__ZN115_$LT$core..panic..unwind_safe..AssertUnwindSafe$LT$F$GT$$u20$as$u20$core..ops..function..FnOnce$LT$$LP$$RP$$GT$$GT$9call_once17h1574d33e5fdd39c2E:
Lfunc_begin8:
	.file	9 "/rustc/2c8cc343237b8f7d5a3c3703e3a87f2eb2c54a74/library/core/src/panic" "unwind_safe.rs"
	.loc	9 270 0
	.cfi_startproc
	pushq	%rbp
	.cfi_def_cfa_offset 16
	.cfi_offset %rbp, -16
	movq	%rsp, %rbp
	.cfi_def_cfa_register %rbp
	subq	$16, %rsp
	movq	%rdi, -8(%rbp)
Ltmp55:
	.loc	9 271 9 prologue_end
	callq	__ZN4core3ops8function6FnOnce9call_once17h1af6165d485f28fcE
	.loc	9 272 6
	addq	$16, %rsp
	popq	%rbp
	retq
Ltmp56:
Lfunc_end8:
	.cfi_endproc

	.globl	__ZN115_$LT$core..panic..unwind_safe..AssertUnwindSafe$LT$F$GT$$u20$as$u20$core..ops..function..FnOnce$LT$$LP$$RP$$GT$$GT$9call_once17h1818a9b922703a19E
	.p2align	4, 0x90
__ZN115_$LT$core..panic..unwind_safe..AssertUnwindSafe$LT$F$GT$$u20$as$u20$core..ops..function..FnOnce$LT$$LP$$RP$$GT$$GT$9call_once17h1818a9b922703a19E:
Lfunc_begin9:
	.loc	9 270 0
	.cfi_startproc
	pushq	%rbp
	.cfi_def_cfa_offset 16
	.cfi_offset %rbp, -16
	movq	%rsp, %rbp
	.cfi_def_cfa_register %rbp
	subq	$16, %rsp
	movq	%rdi, -8(%rbp)
Ltmp57:
	.loc	9 271 9 prologue_end
	callq	__ZN4core3ops8function6FnOnce9call_once17he9422708dff8dad6E
	.loc	9 272 6
	addq	$16, %rsp
	popq	%rbp
	retq
Ltmp58:
Lfunc_end9:
	.cfi_endproc

	.globl	__ZN115_$LT$core..panic..unwind_safe..AssertUnwindSafe$LT$F$GT$$u20$as$u20$core..ops..function..FnOnce$LT$$LP$$RP$$GT$$GT$9call_once17h60923f0632134642E
	.p2align	4, 0x90
__ZN115_$LT$core..panic..unwind_safe..AssertUnwindSafe$LT$F$GT$$u20$as$u20$core..ops..function..FnOnce$LT$$LP$$RP$$GT$$GT$9call_once17h60923f0632134642E:
Lfunc_begin10:
	.loc	9 270 0
	.cfi_startproc
	pushq	%rbp
	.cfi_def_cfa_offset 16
	.cfi_offset %rbp, -16
	movq	%rsp, %rbp
	.cfi_def_cfa_register %rbp
	subq	$16, %rsp
	movq	%rdi, -8(%rbp)
Ltmp59:
	.loc	9 271 9 prologue_end
	callq	__ZN4core3ops8function6FnOnce9call_once17hb2ed14ab12eaff04E
	.loc	9 272 6
	addq	$16, %rsp
	popq	%rbp
	retq
Ltmp60:
Lfunc_end10:
	.cfi_endproc

	.globl	__ZN115_$LT$core..panic..unwind_safe..AssertUnwindSafe$LT$F$GT$$u20$as$u20$core..ops..function..FnOnce$LT$$LP$$RP$$GT$$GT$9call_once17hc79e47a94ca6c057E
	.p2align	4, 0x90
__ZN115_$LT$core..panic..unwind_safe..AssertUnwindSafe$LT$F$GT$$u20$as$u20$core..ops..function..FnOnce$LT$$LP$$RP$$GT$$GT$9call_once17hc79e47a94ca6c057E:
Lfunc_begin11:
	.loc	9 270 0
	.cfi_startproc
	pushq	%rbp
	.cfi_def_cfa_offset 16
	.cfi_offset %rbp, -16
	movq	%rsp, %rbp
	.cfi_def_cfa_register %rbp
	subq	$16, %rsp
	movq	%rdi, -8(%rbp)
Ltmp61:
	.loc	9 271 9 prologue_end
	callq	__ZN3std6thread7Builder16spawn_unchecked_28_$u7b$$u7b$closure$u7d$$u7d$28_$u7b$$u7b$closure$u7d$$u7d$17hbc92ae200bd57110E
	.loc	9 272 6
	addq	$16, %rsp
	popq	%rbp
	retq
Ltmp62:
Lfunc_end11:
	.cfi_endproc

	.globl	__ZN119_$LT$core..ptr..non_null..NonNull$LT$T$GT$$u20$as$u20$core..convert..From$LT$core..ptr..unique..Unique$LT$T$GT$$GT$$GT$4from17h7eda8c873c2821feE
	.p2align	4, 0x90
__ZN119_$LT$core..ptr..non_null..NonNull$LT$T$GT$$u20$as$u20$core..convert..From$LT$core..ptr..unique..Unique$LT$T$GT$$GT$$GT$4from17h7eda8c873c2821feE:
Lfunc_begin12:
	.file	10 "/rustc/2c8cc343237b8f7d5a3c3703e3a87f2eb2c54a74/library/core/src/ptr" "non_null.rs"
	.loc	10 765 0
	.cfi_startproc
	pushq	%rbp
	.cfi_def_cfa_offset 16
	.cfi_offset %rbp, -16
	movq	%rsp, %rbp
	.cfi_def_cfa_register %rbp
	subq	$40, %rsp
	movq	%rdi, -32(%rbp)
Ltmp63:
	.loc	10 768 41 prologue_end
	movq	%rdi, -24(%rbp)
Ltmp64:
	.file	11 "/rustc/2c8cc343237b8f7d5a3c3703e3a87f2eb2c54a74/library/core/src/ptr" "unique.rs"
	.loc	11 104 9
	movq	%rdi, -16(%rbp)
Ltmp65:
	.loc	10 326 9
	movq	%rdi, -8(%rbp)
Ltmp66:
	.loc	10 201 13
	movq	%rdi, -40(%rbp)
Ltmp67:
	.loc	10 769 6
	movq	-40(%rbp), %rax
	addq	$40, %rsp
	popq	%rbp
	retq
Ltmp68:
Lfunc_end12:
	.cfi_endproc

	.p2align	4, 0x90
__ZN122_$LT$alloc..collections..TryReserveError$u20$as$u20$core..convert..From$LT$alloc..collections..TryReserveErrorKind$GT$$GT$4from17hd88fec9c8851b018E:
Lfunc_begin13:
	.file	12 "/rustc/2c8cc343237b8f7d5a3c3703e3a87f2eb2c54a74/library/alloc/src/collections" "mod.rs"
	.loc	12 116 0
	.cfi_startproc
	pushq	%rbp
	.cfi_def_cfa_offset 16
	.cfi_offset %rbp, -16
	movq	%rsp, %rbp
	.cfi_def_cfa_register %rbp
	subq	$32, %rsp
	movq	%rdi, -16(%rbp)
	movq	%rsi, -8(%rbp)
Ltmp69:
	.loc	12 117 9 prologue_end
	movq	%rdi, -32(%rbp)
	movq	%rsi, -24(%rbp)
	.loc	12 118 6
	movq	-32(%rbp), %rax
	movq	-24(%rbp), %rdx
	addq	$32, %rsp
	popq	%rbp
	retq
Ltmp70:
Lfunc_end13:
	.cfi_endproc

	.globl	__ZN150_$LT$$LT$alloc..vec..drain..Drain$LT$T$C$A$GT$$u20$as$u20$core..ops..drop..Drop$GT$..drop..DropGuard$LT$T$C$A$GT$$u20$as$u20$core..ops..drop..Drop$GT$4drop17hec58d56e332ee7d4E
	.p2align	4, 0x90
__ZN150_$LT$$LT$alloc..vec..drain..Drain$LT$T$C$A$GT$$u20$as$u20$core..ops..drop..Drop$GT$..drop..DropGuard$LT$T$C$A$GT$$u20$as$u20$core..ops..drop..Drop$GT$4drop17hec58d56e332ee7d4E:
Lfunc_begin14:
	.file	13 "/rustc/2c8cc343237b8f7d5a3c3703e3a87f2eb2c54a74/library/alloc/src/vec" "drain.rs"
	.loc	13 182 0
	.cfi_startproc
	pushq	%rbp
	.cfi_def_cfa_offset 16
	.cfi_offset %rbp, -16
	movq	%rsp, %rbp
	.cfi_def_cfa_register %rbp
	subq	$400, %rsp
	movq	%rdi, -368(%rbp)
	movq	%rdi, -344(%rbp)
Ltmp71:
	.loc	13 183 20 prologue_end
	movq	(%rdi), %rax
	cmpq	$0, 24(%rax)
	ja	LBB14_2
LBB14_1:
	.loc	13 197 14
	addq	$400, %rsp
	popq	%rbp
	retq
LBB14_2:
	.loc	13 0 14 is_stmt 0
	movq	-368(%rbp), %rax
	.loc	13 185 42 is_stmt 1
	movq	(%rax), %rcx
	movq	%rcx, %rdx
	addq	$32, %rdx
	movq	%rdx, -336(%rbp)
Ltmp72:
	.loc	10 427 24
	movq	32(%rcx), %rcx
	movq	%rcx, -392(%rbp)
	movq	%rcx, -328(%rbp)
	.loc	10 427 9 is_stmt 0
	movq	%rcx, -320(%rbp)
Ltmp73:
	.loc	13 187 37 is_stmt 1
	movq	%rcx, -312(%rbp)
Ltmp74:
	.file	14 "/rustc/2c8cc343237b8f7d5a3c3703e3a87f2eb2c54a74/library/alloc/src/vec" "mod.rs"
	.loc	14 2062 9
	movq	16(%rcx), %rcx
	movq	%rcx, -384(%rbp)
	movq	%rcx, -304(%rbp)
Ltmp75:
	.loc	13 188 36
	movq	(%rax), %rax
	movq	16(%rax), %rax
	movq	%rax, -376(%rbp)
	movq	%rax, -296(%rbp)
Ltmp76:
	.loc	13 189 28
	cmpq	%rcx, %rax
	jne	LBB14_4
LBB14_3:
	.loc	13 0 28 is_stmt 0
	movq	-392(%rbp), %rax
	movq	-384(%rbp), %rcx
	movq	-368(%rbp), %rdx
	.loc	13 194 25 is_stmt 1
	movq	%rax, -16(%rbp)
	.loc	13 194 52 is_stmt 0
	movq	(%rdx), %rdx
	.loc	13 194 44
	addq	24(%rdx), %rcx
	movq	%rcx, -8(%rbp)
Ltmp77:
	.loc	14 1377 9 is_stmt 1
	movq	%rcx, 16(%rax)
Ltmp78:
	.loc	13 183 17
	jmp	LBB14_1
LBB14_4:
	.loc	13 0 17 is_stmt 0
	movq	-368(%rbp), %rax
	movq	-384(%rbp), %rdx
	movq	-392(%rbp), %rcx
	movq	-376(%rbp), %rdi
Ltmp79:
	.loc	13 190 39 is_stmt 1
	movq	%rcx, -288(%rbp)
Ltmp80:
	.loc	14 1243 19
	movq	%rcx, -280(%rbp)
Ltmp81:
	.file	15 "/rustc/2c8cc343237b8f7d5a3c3703e3a87f2eb2c54a74/library/alloc/src" "raw_vec.rs"
	.loc	15 224 9
	movq	8(%rcx), %rsi
	movq	%rsi, -400(%rbp)
	movq	%rsi, -272(%rbp)
Ltmp82:
	.loc	11 104 9
	movq	%rsi, -264(%rbp)
Ltmp83:
	.loc	10 326 9
	movq	%rsi, -256(%rbp)
Ltmp84:
	.loc	14 1245 21
	movq	%rsi, -248(%rbp)
Ltmp85:
	.loc	7 52 36
	movq	%rsi, -360(%rbp)
	.loc	7 52 18 is_stmt 0
	movq	-360(%rbp), %r8
	movq	%r8, -240(%rbp)
Ltmp86:
	.loc	7 38 13 is_stmt 1
	movq	%r8, -232(%rbp)
Ltmp87:
	.loc	7 215 33
	movq	%r8, -224(%rbp)
	.loc	7 215 18 is_stmt 0
	movq	%r8, -216(%rbp)
Ltmp88:
	.loc	14 1247 9 is_stmt 1
	movq	%rsi, -208(%rbp)
Ltmp89:
	.loc	13 190 63
	movq	%rdi, -200(%rbp)
Ltmp90:
	.loc	4 932 18
	movq	%rsi, -192(%rbp)
	.loc	4 932 30 is_stmt 0
	movq	%rdi, -184(%rbp)
Ltmp91:
	.loc	4 473 18 is_stmt 1
	imulq	$24, %rdi, %rdi
	addq	%rdi, %rsi
	movq	%rsi, -176(%rbp)
	movq	-176(%rbp), %rsi
	movq	%rsi, -168(%rbp)
Ltmp92:
	.loc	13 191 39
	movq	%rcx, -160(%rbp)
Ltmp93:
	.loc	14 1280 19
	movq	%rcx, -152(%rbp)
Ltmp94:
	.loc	15 224 9
	movq	8(%rcx), %rcx
	movq	%rcx, -144(%rbp)
Ltmp95:
	.loc	11 104 9
	movq	%rcx, -136(%rbp)
Ltmp96:
	.loc	10 326 9
	movq	%rcx, -128(%rbp)
Ltmp97:
	.loc	14 1282 21
	movq	%rcx, -120(%rbp)
Ltmp98:
	.loc	7 52 36
	movq	%rcx, -352(%rbp)
	.loc	7 52 18 is_stmt 0
	movq	-352(%rbp), %rdi
	movq	%rdi, -112(%rbp)
Ltmp99:
	.loc	7 38 13 is_stmt 1
	movq	%rdi, -104(%rbp)
Ltmp100:
	.loc	7 215 33
	movq	%rdi, -96(%rbp)
	.loc	7 215 18 is_stmt 0
	movq	%rdi, -88(%rbp)
Ltmp101:
	.loc	13 191 67 is_stmt 1
	movq	%rdx, -80(%rbp)
Ltmp102:
	.loc	7 1034 18
	movq	%rcx, -72(%rbp)
	.loc	7 1034 30 is_stmt 0
	movq	%rdx, -64(%rbp)
Ltmp103:
	.loc	7 487 18 is_stmt 1
	imulq	$24, %rdx, %rdx
	addq	%rdx, %rcx
	movq	%rcx, -56(%rbp)
	movq	-56(%rbp), %rdi
	movq	%rdi, -48(%rbp)
Ltmp104:
	.loc	13 192 39
	movq	%rsi, -40(%rbp)
	.loc	13 192 44 is_stmt 0
	movq	%rdi, -32(%rbp)
	.loc	13 192 49
	movq	(%rax), %rax
	movq	24(%rax), %rax
	movq	%rax, -24(%rbp)
Ltmp105:
	.file	16 "/rustc/2c8cc343237b8f7d5a3c3703e3a87f2eb2c54a74/library/core/src" "intrinsics.rs"
	.loc	16 2458 9 is_stmt 1
	imulq	$24, %rax, %rdx
	callq	_memmove
Ltmp106:
	.loc	13 189 25
	jmp	LBB14_3
Ltmp107:
Lfunc_end14:
	.cfi_endproc

	.globl	__ZN3std10sys_common8lazy_box16LazyBox$LT$T$GT$10initialize17h2b047336427e3cc8E
	.p2align	4, 0x90
__ZN3std10sys_common8lazy_box16LazyBox$LT$T$GT$10initialize17h2b047336427e3cc8E:
Lfunc_begin15:
	.file	17 "/rustc/2c8cc343237b8f7d5a3c3703e3a87f2eb2c54a74/library/std/src/sys_common" "lazy_box.rs"
	.loc	17 54 0
	.cfi_startproc
	pushq	%rbp
	.cfi_def_cfa_offset 16
	.cfi_offset %rbp, -16
	movq	%rsp, %rbp
	.cfi_def_cfa_register %rbp
	subq	$272, %rsp
	movq	%rdi, -256(%rbp)
	movq	%rdi, -168(%rbp)
Ltmp108:
	.loc	17 55 37 prologue_end
	callq	__ZN112_$LT$std..sys..unix..locks..pthread_condvar..AllocatedCondvar$u20$as$u20$std..sys_common..lazy_box..LazyInit$GT$4init17hd89de97cadb96c4fE
	movq	%rax, %rdi
	movq	%rdi, -136(%rbp)
Ltmp109:
	.file	18 "/rustc/2c8cc343237b8f7d5a3c3703e3a87f2eb2c54a74/library/alloc/src" "boxed.rs"
	.loc	18 1059 39
	movq	%rdi, -128(%rbp)
Ltmp110:
	.loc	18 1112 31
	callq	__ZN5alloc5boxed16Box$LT$T$C$A$GT$11into_unique17hd1d7d6ed8c4147d2E
	movq	-256(%rbp), %rdi
	.loc	18 1112 14 is_stmt 0
	movq	%rax, -120(%rbp)
Ltmp111:
	.loc	18 1113 10 is_stmt 1
	movq	%rax, -112(%rbp)
Ltmp112:
	.loc	11 104 9
	movq	%rax, -104(%rbp)
Ltmp113:
	.loc	18 1113 9
	movq	%rax, -208(%rbp)
Ltmp114:
	.loc	18 1059 9
	movq	-208(%rbp), %rdx
	movq	%rdx, -248(%rbp)
	movq	%rdx, -96(%rbp)
Ltmp115:
	.loc	17 56 15
	movq	%rdi, -88(%rbp)
Ltmp116:
	.loc	5 599 14
	movq	$0, -80(%rbp)
	movq	-80(%rbp), %rax
	movq	%rax, -72(%rbp)
Ltmp117:
	.loc	6 135 36
	movq	%rax, -192(%rbp)
	.loc	6 135 14 is_stmt 0
	movq	-192(%rbp), %rax
	movq	%rax, -200(%rbp)
	movq	-200(%rbp), %rsi
	movq	%rsi, -64(%rbp)
Ltmp118:
	.loc	17 56 53 is_stmt 1
	movq	%rdx, -56(%rbp)
Ltmp119:
	.file	19 "/rustc/2c8cc343237b8f7d5a3c3703e3a87f2eb2c54a74/library/core/src/sync" "atomic.rs"
	.loc	19 1355 42
	movq	%rdi, -48(%rbp)
	movl	$3, %ecx
	movl	$2, %r8d
	.loc	19 1355 18 is_stmt 0
	callq	__ZN4core4sync6atomic23atomic_compare_exchange17hdaa71a7d01ca11f3E
	movq	%rdx, -224(%rbp)
	movq	%rax, -232(%rbp)
Ltmp120:
	.loc	17 56 9 is_stmt 1
	cmpq	$0, -232(%rbp)
	jne	LBB15_2
	.loc	17 0 9 is_stmt 0
	movq	-248(%rbp), %rax
	.loc	17 57 22 is_stmt 1
	movq	%rax, -240(%rbp)
	jmp	LBB15_3
LBB15_2:
	.loc	17 0 22 is_stmt 0
	movq	-248(%rbp), %rax
	.loc	17 58 17 is_stmt 1
	movq	-224(%rbp), %rcx
	movq	%rcx, -264(%rbp)
	movq	%rcx, -40(%rbp)
Ltmp121:
	.loc	17 61 55
	movq	%rax, -32(%rbp)
Ltmp122:
	.loc	18 958 36
	movq	%rax, -24(%rbp)
Ltmp123:
	.loc	18 1014 44
	movq	%rax, -16(%rbp)
Ltmp124:
	.loc	11 87 59
	movq	%rax, -8(%rbp)
Ltmp125:
	.loc	10 201 13
	movq	%rax, -176(%rbp)
Ltmp126:
	.loc	11 87 18
	movq	-176(%rbp), %rax
	movq	%rax, -184(%rbp)
Ltmp127:
	.loc	18 1014 9
	movq	-184(%rbp), %rax
	movq	%rax, -216(%rbp)
Ltmp128:
	.loc	17 61 17
	movq	-216(%rbp), %rdi
	callq	__ZN3std10sys_common8lazy_box8LazyInit11cancel_init17h89ce13164a84e7d3E
	movq	-264(%rbp), %rax
	.loc	17 62 17
	movq	%rax, -240(%rbp)
Ltmp129:
LBB15_3:
	.loc	17 65 6
	movq	-240(%rbp), %rax
	addq	$272, %rsp
	popq	%rbp
	retq
Ltmp130:
Lfunc_end15:
	.cfi_endproc

	.globl	__ZN3std10sys_common8lazy_box16LazyBox$LT$T$GT$10initialize17h64a99f85d9e21cebE
	.p2align	4, 0x90
__ZN3std10sys_common8lazy_box16LazyBox$LT$T$GT$10initialize17h64a99f85d9e21cebE:
Lfunc_begin16:
	.loc	17 54 0
	.cfi_startproc
	pushq	%rbp
	.cfi_def_cfa_offset 16
	.cfi_offset %rbp, -16
	movq	%rsp, %rbp
	.cfi_def_cfa_register %rbp
	subq	$272, %rsp
	movq	%rdi, -256(%rbp)
	movq	%rdi, -168(%rbp)
Ltmp131:
	.loc	17 55 37 prologue_end
	callq	__ZN108_$LT$std..sys..unix..locks..pthread_mutex..AllocatedMutex$u20$as$u20$std..sys_common..lazy_box..LazyInit$GT$4init17hd5ce1e30fed3afacE
	movq	%rax, %rdi
	movq	%rdi, -136(%rbp)
Ltmp132:
	.loc	18 1059 39
	movq	%rdi, -128(%rbp)
Ltmp133:
	.loc	18 1112 31
	callq	__ZN5alloc5boxed16Box$LT$T$C$A$GT$11into_unique17ha494e9e5e1d3c98fE
	movq	-256(%rbp), %rdi
	.loc	18 1112 14 is_stmt 0
	movq	%rax, -120(%rbp)
Ltmp134:
	.loc	18 1113 10 is_stmt 1
	movq	%rax, -112(%rbp)
Ltmp135:
	.loc	11 104 9
	movq	%rax, -104(%rbp)
Ltmp136:
	.loc	18 1113 9
	movq	%rax, -208(%rbp)
Ltmp137:
	.loc	18 1059 9
	movq	-208(%rbp), %rdx
	movq	%rdx, -248(%rbp)
	movq	%rdx, -96(%rbp)
Ltmp138:
	.loc	17 56 15
	movq	%rdi, -88(%rbp)
Ltmp139:
	.loc	5 599 14
	movq	$0, -80(%rbp)
	movq	-80(%rbp), %rax
	movq	%rax, -72(%rbp)
Ltmp140:
	.loc	6 135 36
	movq	%rax, -192(%rbp)
	.loc	6 135 14 is_stmt 0
	movq	-192(%rbp), %rax
	movq	%rax, -200(%rbp)
	movq	-200(%rbp), %rsi
	movq	%rsi, -64(%rbp)
Ltmp141:
	.loc	17 56 53 is_stmt 1
	movq	%rdx, -56(%rbp)
Ltmp142:
	.loc	19 1355 42
	movq	%rdi, -48(%rbp)
	movl	$3, %ecx
	movl	$2, %r8d
	.loc	19 1355 18 is_stmt 0
	callq	__ZN4core4sync6atomic23atomic_compare_exchange17h8c5051dfa3871daaE
	movq	%rdx, -224(%rbp)
	movq	%rax, -232(%rbp)
Ltmp143:
	.loc	17 56 9 is_stmt 1
	cmpq	$0, -232(%rbp)
	jne	LBB16_2
	.loc	17 0 9 is_stmt 0
	movq	-248(%rbp), %rax
	.loc	17 57 22 is_stmt 1
	movq	%rax, -240(%rbp)
	jmp	LBB16_3
LBB16_2:
	.loc	17 0 22 is_stmt 0
	movq	-248(%rbp), %rax
	.loc	17 58 17 is_stmt 1
	movq	-224(%rbp), %rcx
	movq	%rcx, -264(%rbp)
	movq	%rcx, -40(%rbp)
Ltmp144:
	.loc	17 61 55
	movq	%rax, -32(%rbp)
Ltmp145:
	.loc	18 958 36
	movq	%rax, -24(%rbp)
Ltmp146:
	.loc	18 1014 44
	movq	%rax, -16(%rbp)
Ltmp147:
	.loc	11 87 59
	movq	%rax, -8(%rbp)
Ltmp148:
	.loc	10 201 13
	movq	%rax, -176(%rbp)
Ltmp149:
	.loc	11 87 18
	movq	-176(%rbp), %rax
	movq	%rax, -184(%rbp)
Ltmp150:
	.loc	18 1014 9
	movq	-184(%rbp), %rax
	movq	%rax, -216(%rbp)
Ltmp151:
	.loc	17 61 17
	movq	-216(%rbp), %rdi
	callq	__ZN108_$LT$std..sys..unix..locks..pthread_mutex..AllocatedMutex$u20$as$u20$std..sys_common..lazy_box..LazyInit$GT$11cancel_init17h0378143b8d0c004eE
	movq	-264(%rbp), %rax
	.loc	17 62 17
	movq	%rax, -240(%rbp)
Ltmp152:
LBB16_3:
	.loc	17 65 6
	movq	-240(%rbp), %rax
	addq	$272, %rsp
	popq	%rbp
	retq
Ltmp153:
Lfunc_end16:
	.cfi_endproc

	.globl	__ZN3std10sys_common8lazy_box16LazyBox$LT$T$GT$11get_pointer17h2735450018bcaa30E
	.p2align	4, 0x90
__ZN3std10sys_common8lazy_box16LazyBox$LT$T$GT$11get_pointer17h2735450018bcaa30E:
Lfunc_begin17:
	.loc	17 48 0
	.cfi_startproc
	pushq	%rbp
	.cfi_def_cfa_offset 16
	.cfi_offset %rbp, -16
	movq	%rsp, %rbp
	.cfi_def_cfa_register %rbp
	subq	$112, %rsp
	movq	%rdi, -104(%rbp)
	movq	%rdi, -72(%rbp)
Ltmp154:
	.loc	17 49 19 prologue_end
	movq	%rdi, -64(%rbp)
Ltmp155:
	.loc	19 1191 30
	movq	%rdi, -56(%rbp)
	.loc	19 1191 18 is_stmt 0
	movl	$2, %esi
	callq	__ZN4core4sync6atomic11atomic_load17ha6ae1c07dca30174E
	movq	%rax, -96(%rbp)
	movq	%rax, -48(%rbp)
Ltmp156:
	.loc	17 50 12 is_stmt 1
	movq	%rax, -40(%rbp)
Ltmp157:
	.loc	7 52 36
	movq	%rax, -80(%rbp)
	.loc	7 52 18 is_stmt 0
	movq	-80(%rbp), %rax
	movq	%rax, -32(%rbp)
Ltmp158:
	.loc	7 38 13 is_stmt 1
	movq	%rax, -24(%rbp)
Ltmp159:
	.loc	7 215 33
	movq	%rax, -16(%rbp)
	.loc	7 215 18 is_stmt 0
	movq	%rax, -8(%rbp)
Ltmp160:
	.loc	17 50 12 is_stmt 1
	cmpq	$0, -8(%rbp)
	jne	LBB17_2
	.loc	17 0 12 is_stmt 0
	movq	-104(%rbp), %rdi
	.loc	17 50 28
	callq	__ZN3std10sys_common8lazy_box16LazyBox$LT$T$GT$10initialize17h2b047336427e3cc8E
	movq	%rax, -88(%rbp)
	.loc	17 50 9
	jmp	LBB17_3
LBB17_2:
	.loc	17 0 9
	movq	-96(%rbp), %rax
	.loc	17 50 55
	movq	%rax, -88(%rbp)
Ltmp161:
LBB17_3:
	.loc	17 51 6 is_stmt 1
	movq	-88(%rbp), %rax
	addq	$112, %rsp
	popq	%rbp
	retq
Ltmp162:
Lfunc_end17:
	.cfi_endproc

	.globl	__ZN3std10sys_common8lazy_box16LazyBox$LT$T$GT$11get_pointer17hf2e8799a4f63d8e9E
	.p2align	4, 0x90
__ZN3std10sys_common8lazy_box16LazyBox$LT$T$GT$11get_pointer17hf2e8799a4f63d8e9E:
Lfunc_begin18:
	.loc	17 48 0
	.cfi_startproc
	pushq	%rbp
	.cfi_def_cfa_offset 16
	.cfi_offset %rbp, -16
	movq	%rsp, %rbp
	.cfi_def_cfa_register %rbp
	subq	$112, %rsp
	movq	%rdi, -104(%rbp)
	movq	%rdi, -72(%rbp)
Ltmp163:
	.loc	17 49 19 prologue_end
	movq	%rdi, -64(%rbp)
Ltmp164:
	.loc	19 1191 30
	movq	%rdi, -56(%rbp)
	.loc	19 1191 18 is_stmt 0
	movl	$2, %esi
	callq	__ZN4core4sync6atomic11atomic_load17hf9b7d2728473b8e9E
	movq	%rax, -96(%rbp)
	movq	%rax, -48(%rbp)
Ltmp165:
	.loc	17 50 12 is_stmt 1
	movq	%rax, -40(%rbp)
Ltmp166:
	.loc	7 52 36
	movq	%rax, -80(%rbp)
	.loc	7 52 18 is_stmt 0
	movq	-80(%rbp), %rax
	movq	%rax, -32(%rbp)
Ltmp167:
	.loc	7 38 13 is_stmt 1
	movq	%rax, -24(%rbp)
Ltmp168:
	.loc	7 215 33
	movq	%rax, -16(%rbp)
	.loc	7 215 18 is_stmt 0
	movq	%rax, -8(%rbp)
Ltmp169:
	.loc	17 50 12 is_stmt 1
	cmpq	$0, -8(%rbp)
	jne	LBB18_2
	.loc	17 0 12 is_stmt 0
	movq	-104(%rbp), %rdi
	.loc	17 50 28
	callq	__ZN3std10sys_common8lazy_box16LazyBox$LT$T$GT$10initialize17h64a99f85d9e21cebE
	movq	%rax, -88(%rbp)
	.loc	17 50 9
	jmp	LBB18_3
LBB18_2:
	.loc	17 0 9
	movq	-96(%rbp), %rax
	.loc	17 50 55
	movq	%rax, -88(%rbp)
Ltmp170:
LBB18_3:
	.loc	17 51 6 is_stmt 1
	movq	-88(%rbp), %rax
	addq	$112, %rsp
	popq	%rbp
	retq
Ltmp171:
Lfunc_end18:
	.cfi_endproc

	.globl	__ZN3std10sys_common8lazy_box8LazyInit11cancel_init17h89ce13164a84e7d3E
	.p2align	4, 0x90
__ZN3std10sys_common8lazy_box8LazyInit11cancel_init17h89ce13164a84e7d3E:
Lfunc_begin19:
	.loc	17 31 0
	.cfi_startproc
	pushq	%rbp
	.cfi_def_cfa_offset 16
	.cfi_offset %rbp, -16
	movq	%rsp, %rbp
	.cfi_def_cfa_register %rbp
	subq	$16, %rsp
	movq	%rdi, -8(%rbp)
Ltmp172:
	.loc	17 32 9 prologue_end
	callq	__ZN3std10sys_common8lazy_box8LazyInit7destroy17ha1b7c153045194fbE
	.loc	17 33 6
	addq	$16, %rsp
	popq	%rbp
	retq
Ltmp173:
Lfunc_end19:
	.cfi_endproc

	.globl	__ZN3std10sys_common8lazy_box8LazyInit7destroy17ha1b7c153045194fbE
	.p2align	4, 0x90
__ZN3std10sys_common8lazy_box8LazyInit7destroy17ha1b7c153045194fbE:
Lfunc_begin20:
	.loc	17 38 0
	.cfi_startproc
	pushq	%rbp
	.cfi_def_cfa_offset 16
	.cfi_offset %rbp, -16
	movq	%rsp, %rbp
	.cfi_def_cfa_register %rbp
	subq	$16, %rsp
	movq	%rdi, -8(%rbp)
Ltmp174:
	.loc	17 38 31 prologue_end
	leaq	-8(%rbp), %rdi
	callq	__ZN4core3ptr102drop_in_place$LT$alloc..boxed..Box$LT$std..sys..unix..locks..pthread_condvar..AllocatedCondvar$GT$$GT$17h2981b04398acf1a2E
	.loc	17 38 32 is_stmt 0
	addq	$16, %rsp
	popq	%rbp
	retq
Ltmp175:
Lfunc_end20:
	.cfi_endproc

	.globl	__ZN3std10sys_common9backtrace28__rust_begin_short_backtrace17h505b8515620e4558E
	.p2align	4, 0x90
__ZN3std10sys_common9backtrace28__rust_begin_short_backtrace17h505b8515620e4558E:
Lfunc_begin21:
	.file	20 "/rustc/2c8cc343237b8f7d5a3c3703e3a87f2eb2c54a74/library/std/src/sys_common" "backtrace.rs"
	.loc	20 117 0 is_stmt 1
	.cfi_startproc
	pushq	%rbp
	.cfi_def_cfa_offset 16
	.cfi_offset %rbp, -16
	movq	%rsp, %rbp
	.cfi_def_cfa_register %rbp
	subq	$48, %rsp
	movq	%rdi, -32(%rbp)
Ltmp176:
	.loc	20 121 18 prologue_end
	callq	__ZN10threadpool13spawn_in_pool28_$u7b$$u7b$closure$u7d$$u7d$17h7530a780ba61ff19E
Ltmp177:
	.file	21 "/rustc/2c8cc343237b8f7d5a3c3703e3a87f2eb2c54a74/library/core/src" "hint.rs"
	.loc	21 295 5
	## InlineAsm Start
	## InlineAsm End
Ltmp178:
	.loc	20 127 2
	addq	$48, %rsp
	popq	%rbp
	retq
Ltmp179:
Lfunc_end21:
	.cfi_endproc

	.globl	__ZN3std2io5Write9write_all17h805ef163edebe587E
	.p2align	4, 0x90
__ZN3std2io5Write9write_all17h805ef163edebe587E:
Lfunc_begin22:
	.file	22 "/rustc/2c8cc343237b8f7d5a3c3703e3a87f2eb2c54a74/library/std/src/io" "mod.rs"
	.loc	22 1540 0
	.cfi_startproc
	.cfi_personality 155, _rust_eh_personality
	.cfi_lsda 16, Lexception2
	pushq	%rbp
	.cfi_def_cfa_offset 16
	.cfi_offset %rbp, -16
	movq	%rsp, %rbp
	.cfi_def_cfa_register %rbp
	subq	$256, %rsp
	movq	%rdi, -232(%rbp)
	movq	%rsi, -224(%rbp)
	movq	%rdx, -216(%rbp)
	movq	%rdi, -136(%rbp)
LBB22_1:
Ltmp188:
	.loc	22 1541 16 prologue_end
	movq	-224(%rbp), %rcx
	movq	-216(%rbp), %rax
	movq	%rcx, -128(%rbp)
	movq	%rax, -120(%rbp)
Ltmp189:
	.file	23 "/rustc/2c8cc343237b8f7d5a3c3703e3a87f2eb2c54a74/library/core/src/slice" "mod.rs"
	.loc	23 153 9
	cmpq	$0, %rax
	sete	%al
Ltmp190:
	.loc	22 1541 15
	xorb	$-1, %al
	testb	$1, %al
	jne	LBB22_3
	.loc	22 1554 9
	movq	$0, -208(%rbp)
	.loc	22 1555 6
	jmp	LBB22_23
LBB22_3:
	.loc	22 0 6 is_stmt 0
	movq	-232(%rbp), %rsi
	.loc	22 1542 30 is_stmt 1
	movq	-224(%rbp), %rdx
	movq	-216(%rbp), %rcx
	.loc	22 1542 19 is_stmt 0
	leaq	-200(%rbp), %rdi
	callq	__ZN64_$LT$std..sys..unix..stdio..Stderr$u20$as$u20$std..io..Write$GT$5write17hfeaf20e5669f7ee8E
	.loc	22 1542 13
	cmpq	$0, -200(%rbp)
	jne	LBB22_5
	cmpq	$0, -192(%rbp)
	je	LBB22_13
	jmp	LBB22_14
LBB22_5:
	.loc	22 1550 21 is_stmt 1
	leaq	-192(%rbp), %rax
	movq	%rax, -168(%rbp)
	leaq	-168(%rbp), %rax
	movq	%rax, -112(%rbp)
	.loc	22 1550 31 is_stmt 0
	movq	-168(%rbp), %rdi
Ltmp180:
	callq	__ZN3std2io5error5Error4kind17h1887545d6d55d0a7E
Ltmp181:
	movb	%al, -233(%rbp)
	jmp	LBB22_8
LBB22_6:
	.loc	22 1553 9 is_stmt 1
	cmpq	$1, -200(%rbp)
	je	LBB22_16
	jmp	LBB22_17
LBB22_7:
Ltmp184:
	.loc	22 0 9 is_stmt 0
	movq	%rax, %rcx
	movl	%edx, %eax
	movq	%rcx, -104(%rbp)
	movl	%eax, -96(%rbp)
	jmp	LBB22_6
LBB22_8:
	movb	-233(%rbp), %al
	.loc	22 1550 31 is_stmt 1
	movb	%al, -153(%rbp)
	leaq	-153(%rbp), %rax
	movq	%rax, -88(%rbp)
	.loc	22 1550 43 is_stmt 0
	leaq	l___unnamed_15(%rip), %rax
	movq	%rax, -80(%rbp)
Ltmp191:
	.file	24 "/rustc/2c8cc343237b8f7d5a3c3703e3a87f2eb2c54a74/library/std/src/io" "error.rs"
	.loc	24 165 45 is_stmt 1
	movzbl	-153(%rbp), %eax
	movq	%rax, -72(%rbp)
Ltmp192:
	.loc	24 165 45 is_stmt 0
	movzbl	l___unnamed_15(%rip), %ecx
	movq	%rcx, -64(%rbp)
Ltmp193:
	.loc	24 165 45
	cmpq	%rcx, %rax
Ltmp194:
	.loc	22 1550 31 is_stmt 1
	je	LBB22_10
	.loc	22 1551 21
	movq	-192(%rbp), %rax
	movq	%rax, -56(%rbp)
Ltmp195:
	.loc	22 1551 34 is_stmt 0
	movq	%rax, -208(%rbp)
Ltmp196:
	.file	25 "/Users/natalie/.cargo/registry/src/github.com-1ecc6299db9ec823/threadpool-1.8.1" "src/lib.rs"
	.loc	25 1 1 is_stmt 1
	jmp	LBB22_12
LBB22_10:
	.loc	22 1550 70
	jmp	LBB22_11
LBB22_11:
	.loc	22 1553 9
	cmpq	$1, -200(%rbp)
	je	LBB22_20
	jmp	LBB22_21
LBB22_12:
	.loc	22 1555 6
	jmp	LBB22_23
LBB22_13:
	.loc	22 1544 32
	leaq	l___unnamed_16(%rip), %rax
	movq	%rax, -24(%rbp)
Ltmp197:
	.loc	24 554 47
	leaq	l___unnamed_16(%rip), %rax
	movq	%rax, -16(%rbp)
Ltmp198:
	.file	26 "/rustc/2c8cc343237b8f7d5a3c3703e3a87f2eb2c54a74/library/std/src/io/error" "repr_bitpacked.rs"
	.loc	26 206 46
	leaq	l___unnamed_16(%rip), %rax
	movq	%rax, -8(%rbp)
Ltmp199:
	.loc	10 201 13
	leaq	l___unnamed_16(%rip), %rax
	movq	%rax, -144(%rbp)
Ltmp200:
	.loc	26 206 9
	movq	-144(%rbp), %rax
	movq	%rax, -152(%rbp)
Ltmp201:
	.loc	24 554 9
	movq	-152(%rbp), %rax
	movq	%rax, -184(%rbp)
Ltmp202:
	.loc	22 1544 28
	movq	-184(%rbp), %rax
	movq	%rax, -208(%rbp)
	.loc	25 1 1
	jmp	LBB22_12
LBB22_14:
	.loc	22 1549 20
	movq	-192(%rbp), %rax
	movq	%rax, -48(%rbp)
Ltmp203:
	.loc	22 1549 33 is_stmt 0
	movq	-224(%rbp), %rsi
	movq	-216(%rbp), %rdx
	movq	%rsi, -40(%rbp)
	movq	%rdx, -32(%rbp)
	.loc	22 1549 37
	movq	%rax, -176(%rbp)
Ltmp204:
	.loc	3 18 9 is_stmt 1
	movq	-176(%rbp), %rdi
Ltmp182:
	leaq	l___unnamed_17(%rip), %rcx
	callq	__ZN110_$LT$core..ops..range..RangeFrom$LT$usize$GT$$u20$as$u20$core..slice..index..SliceIndex$LT$$u5b$T$u5d$$GT$$GT$5index17h6f94cf52da0254b7E
Ltmp183:
	movq	%rdx, -256(%rbp)
	movq	%rax, -248(%rbp)
	jmp	LBB22_15
Ltmp205:
LBB22_15:
	.loc	3 0 9 is_stmt 0
	movq	-256(%rbp), %rax
	movq	-248(%rbp), %rcx
	.loc	22 1549 26 is_stmt 1
	movq	%rcx, -224(%rbp)
	movq	%rax, -216(%rbp)
Ltmp206:
	.loc	22 1549 40 is_stmt 0
	jmp	LBB22_11
LBB22_16:
	.loc	22 1553 9 is_stmt 1
	movb	$1, %al
	testb	$1, %al
	jne	LBB22_18
	jmp	LBB22_17
LBB22_17:
	.loc	22 1540 5
	movq	-104(%rbp), %rdi
	callq	__Unwind_Resume
LBB22_18:
	.loc	22 1553 9
	leaq	-192(%rbp), %rdi
Ltmp185:
	callq	__ZN4core3ptr42drop_in_place$LT$std..io..error..Error$GT$17h8cec368a0f945d9dE
Ltmp186:
	jmp	LBB22_17
LBB22_19:
Ltmp187:
	.loc	22 1540 5
	callq	__ZN4core9panicking19panic_cannot_unwind17h1fbca7e1d7f56ae1E
LBB22_20:
	.loc	22 1553 9
	movb	$1, %al
	testb	$1, %al
	jne	LBB22_22
	jmp	LBB22_21
LBB22_21:
	.loc	22 1541 9
	jmp	LBB22_1
LBB22_22:
	.loc	22 1553 9
	leaq	-200(%rbp), %rdi
	addq	$8, %rdi
	callq	__ZN4core3ptr42drop_in_place$LT$std..io..error..Error$GT$17h8cec368a0f945d9dE
	jmp	LBB22_21
LBB22_23:
	.loc	22 1555 6
	movq	-208(%rbp), %rax
	addq	$256, %rsp
	popq	%rbp
	retq
Ltmp207:
Lfunc_end22:
	.cfi_endproc
	.section	__TEXT,__gcc_except_tab
	.p2align	2
GCC_except_table22:
Lexception2:
	.byte	255
	.byte	255
	.byte	1
	.uleb128 Lcst_end2-Lcst_begin2
Lcst_begin2:
	.uleb128 Lfunc_begin22-Lfunc_begin22
	.uleb128 Ltmp180-Lfunc_begin22
	.byte	0
	.byte	0
	.uleb128 Ltmp180-Lfunc_begin22
	.uleb128 Ltmp183-Ltmp180
	.uleb128 Ltmp184-Lfunc_begin22
	.byte	0
	.uleb128 Ltmp183-Lfunc_begin22
	.uleb128 Ltmp185-Ltmp183
	.byte	0
	.byte	0
	.uleb128 Ltmp185-Lfunc_begin22
	.uleb128 Ltmp186-Ltmp185
	.uleb128 Ltmp187-Lfunc_begin22
	.byte	0
	.uleb128 Ltmp186-Lfunc_begin22
	.uleb128 Lfunc_end22-Ltmp186
	.byte	0
	.byte	0
Lcst_end2:
	.p2align	2

	.section	__TEXT,__text,regular,pure_instructions
	.globl	__ZN3std2io5Write9write_fmt17h615aceeac8928cbbE
	.p2align	4, 0x90
__ZN3std2io5Write9write_fmt17h615aceeac8928cbbE:
Lfunc_begin23:
	.loc	22 1661 0
	.cfi_startproc
	.cfi_personality 155, _rust_eh_personality
	.cfi_lsda 16, Lexception3
	pushq	%rbp
	.cfi_def_cfa_offset 16
	.cfi_offset %rbp, -16
	movq	%rsp, %rbp
	.cfi_def_cfa_register %rbp
	subq	$192, %rsp
	movq	%rdi, -64(%rbp)
Ltmp214:
	.loc	22 1681 56 prologue_end
	movq	$0, -160(%rbp)
	.loc	22 1681 26 is_stmt 0
	movb	$1, -82(%rbp)
	movq	%rdi, -168(%rbp)
	movq	-160(%rbp), %rax
	movq	%rax, -176(%rbp)
Ltmp215:
	.loc	22 1682 39 is_stmt 1
	movq	40(%rsi), %rax
	movq	%rax, -104(%rbp)
	movq	32(%rsi), %rax
	movq	%rax, -112(%rbp)
	movq	24(%rsi), %rax
	movq	%rax, -120(%rbp)
	movq	16(%rsi), %rax
	movq	%rax, -128(%rbp)
	movq	(%rsi), %rax
	movq	8(%rsi), %rcx
	movq	%rcx, -136(%rbp)
	movq	%rax, -144(%rbp)
Ltmp208:
	.loc	22 1682 15 is_stmt 0
	leaq	l___unnamed_1(%rip), %rsi
Ltmp216:
	.loc	22 0 15
	leaq	-176(%rbp), %rdi
	leaq	-144(%rbp), %rdx
	.loc	22 1682 15
	callq	__ZN4core3fmt5write17hfa389e524187f2c6E
Ltmp209:
	movb	%al, -185(%rbp)
	jmp	LBB23_3
Ltmp217:
LBB23_1:
Ltmp211:
	.loc	22 0 15
	leaq	-176(%rbp), %rdi
	.loc	22 1693 5 is_stmt 1
	callq	__ZN4core3ptr92drop_in_place$LT$std..io..Write..write_fmt..Adapter$LT$std..sys..unix..stdio..Stderr$GT$$GT$17hdaae4dc3dd74be86E
Ltmp212:
	jmp	LBB23_5
Ltmp218:
LBB23_2:
Ltmp210:
	.loc	22 0 5 is_stmt 0
	movq	%rax, %rcx
	movl	%edx, %eax
	movq	%rcx, -56(%rbp)
	movl	%eax, -48(%rbp)
	jmp	LBB23_1
Ltmp219:
LBB23_3:
	movb	-185(%rbp), %al
Ltmp220:
	.loc	22 1682 15 is_stmt 1
	andb	$1, %al
	movb	%al, -145(%rbp)
	movb	-145(%rbp), %al
	andb	$1, %al
	movzbl	%al, %eax
	.loc	22 1682 9 is_stmt 0
	cmpq	$0, %rax
	je	LBB23_6
	jmp	LBB23_7
Ltmp221:
LBB23_4:
Ltmp213:
	.loc	22 1661 5 is_stmt 1
	callq	__ZN4core9panicking19panic_cannot_unwind17h1fbca7e1d7f56ae1E
Ltmp222:
LBB23_5:
	movq	-56(%rbp), %rdi
	callq	__Unwind_Resume
Ltmp223:
LBB23_6:
	.loc	22 1683 23
	movq	$0, -184(%rbp)
	.loc	22 1683 28 is_stmt 0
	jmp	LBB23_14
Ltmp224:
LBB23_7:
	.loc	22 1686 20 is_stmt 1
	leaq	-176(%rbp), %rax
	movq	%rax, -40(%rbp)
Ltmp225:
	.file	27 "/rustc/2c8cc343237b8f7d5a3c3703e3a87f2eb2c54a74/library/core/src" "result.rs"
	.loc	27 589 10
	leaq	-176(%rbp), %rax
	movq	%rax, -32(%rbp)
Ltmp226:
	.loc	27 542 18
	movq	-176(%rbp), %rdx
	movl	$1, %eax
	xorl	%ecx, %ecx
	cmpq	$0, %rdx
	cmoveq	%rcx, %rax
	.file	28 "/rustc/2c8cc343237b8f7d5a3c3703e3a87f2eb2c54a74/library/core/src/macros" "mod.rs"
	.loc	28 344 9
	cmpq	$0, %rax
	jne	LBB23_9
Ltmp227:
	.loc	28 345 48
	movb	$1, -81(%rbp)
	jmp	LBB23_10
Ltmp228:
LBB23_9:
	.loc	28 346 18
	movb	$0, -81(%rbp)
Ltmp229:
LBB23_10:
	.loc	27 589 9
	movb	-81(%rbp), %al
	xorb	$-1, %al
Ltmp230:
	.loc	22 1686 20
	testb	$1, %al
	jne	LBB23_12
Ltmp231:
	.loc	22 1689 25
	leaq	l___unnamed_18(%rip), %rax
	movq	%rax, -24(%rbp)
Ltmp232:
	.loc	24 554 47
	leaq	l___unnamed_18(%rip), %rax
	movq	%rax, -16(%rbp)
Ltmp233:
	.loc	26 206 46
	leaq	l___unnamed_18(%rip), %rax
	movq	%rax, -8(%rbp)
Ltmp234:
	.loc	10 201 13
	leaq	l___unnamed_18(%rip), %rax
	movq	%rax, -72(%rbp)
Ltmp235:
	.loc	26 206 9
	movq	-72(%rbp), %rax
	movq	%rax, -80(%rbp)
Ltmp236:
	.loc	24 554 9
	movq	-80(%rbp), %rax
	movq	%rax, -96(%rbp)
Ltmp237:
	.loc	22 1689 21
	movq	-96(%rbp), %rax
	movq	%rax, -184(%rbp)
	.loc	22 1686 17
	jmp	LBB23_13
Ltmp238:
LBB23_12:
	.loc	22 1687 21
	movb	$0, -82(%rbp)
	movq	-176(%rbp), %rax
	movq	%rax, -184(%rbp)
Ltmp239:
LBB23_13:
	.loc	22 1690 17
	jmp	LBB23_14
Ltmp240:
LBB23_14:
	.loc	22 1693 5
	testb	$1, -82(%rbp)
	jne	LBB23_16
Ltmp241:
LBB23_15:
	.loc	22 1693 6 is_stmt 0
	movq	-184(%rbp), %rax
	addq	$192, %rsp
	popq	%rbp
	retq
Ltmp242:
LBB23_16:
	.loc	22 1693 5
	leaq	-176(%rbp), %rdi
	callq	__ZN4core3ptr81drop_in_place$LT$core..result..Result$LT$$LP$$RP$$C$std..io..error..Error$GT$$GT$17hb94c713506acedd6E
	jmp	LBB23_15
Ltmp243:
Lfunc_end23:
	.cfi_endproc
	.section	__TEXT,__gcc_except_tab
	.p2align	2
GCC_except_table23:
Lexception3:
	.byte	255
	.byte	255
	.byte	1
	.uleb128 Lcst_end3-Lcst_begin3
Lcst_begin3:
	.uleb128 Ltmp208-Lfunc_begin23
	.uleb128 Ltmp209-Ltmp208
	.uleb128 Ltmp210-Lfunc_begin23
	.byte	0
	.uleb128 Ltmp211-Lfunc_begin23
	.uleb128 Ltmp212-Ltmp211
	.uleb128 Ltmp213-Lfunc_begin23
	.byte	0
	.uleb128 Ltmp212-Lfunc_begin23
	.uleb128 Lfunc_end23-Ltmp212
	.byte	0
	.byte	0
Lcst_end3:
	.p2align	2

	.section	__TEXT,__text,regular,pure_instructions
	.globl	__ZN3std2io5error14repr_bitpacked11decode_repr17h04316d81ea7d061bE
	.p2align	4, 0x90
__ZN3std2io5error14repr_bitpacked11decode_repr17h04316d81ea7d061bE:
Lfunc_begin24:
	.loc	26 246 0 is_stmt 1
	.cfi_startproc
	.cfi_personality 155, _rust_eh_personality
	.cfi_lsda 16, Lexception4
	pushq	%rbp
	.cfi_def_cfa_offset 16
	.cfi_offset %rbp, -16
	movq	%rsp, %rbp
	.cfi_def_cfa_register %rbp
	subq	$320, %rsp
	movq	%rsi, -272(%rbp)
	movq	%rdi, -264(%rbp)
	movq	%rdi, -256(%rbp)
	movq	%rsi, -184(%rbp)
Ltmp253:
	.loc	26 250 9 prologue_end
	movb	$1, -201(%rbp)
	.loc	26 250 16 is_stmt 0
	movq	%rsi, -160(%rbp)
Ltmp254:
	.loc	10 326 9 is_stmt 1
	movq	%rsi, -152(%rbp)
Ltmp255:
	.loc	7 215 33
	movq	%rsi, -144(%rbp)
	.loc	7 215 18 is_stmt 0
	movq	%rsi, -248(%rbp)
Ltmp256:
	.loc	26 251 11 is_stmt 1
	movq	-248(%rbp), %rax
	andl	$3, %eax
	movq	%rax, -280(%rbp)
	.loc	26 251 5 is_stmt 0
	subq	$3, %rax
	ja	LBB24_2
	.loc	26 0 5
	movq	-280(%rbp), %rax
	leaq	LJTI24_0(%rip), %rcx
	movslq	(%rcx,%rax,4), %rax
	addq	%rcx, %rax
	jmpq	*%rax
LBB24_2:
Ltmp250:
	.loc	26 280 13 is_stmt 1
	leaq	l___unnamed_19(%rip), %rdi
	leaq	l___unnamed_20(%rip), %rdx
	movl	$40, %esi
	callq	__ZN4core9panicking5panic17hc1bc45270cf64b03E
Ltmp251:
	jmp	LBB24_9
LBB24_3:
	.loc	26 0 13 is_stmt 0
	movq	-264(%rbp), %rax
	.loc	26 253 26 is_stmt 1
	movq	-248(%rbp), %rcx
	.loc	26 253 24 is_stmt 0
	sarq	$32, %rcx
	movl	%ecx, -4(%rbp)
Ltmp257:
	.loc	26 254 13 is_stmt 1
	movl	%ecx, 4(%rax)
	movb	$0, (%rax)
Ltmp258:
	.loc	26 255 9
	jmp	LBB24_12
LBB24_4:
	.loc	26 257 30
	movl	-244(%rbp), %edi
	.loc	26 257 29 is_stmt 0
	movl	%edi, -12(%rbp)
Ltmp246:
Ltmp259:
	.loc	26 258 24 is_stmt 1
	callq	__ZN3std2io5error14repr_bitpacked14kind_from_prim17h86432d3c4743a5f0E
Ltmp247:
	movb	%al, -281(%rbp)
	jmp	LBB24_13
Ltmp260:
LBB24_5:
	.loc	26 0 24 is_stmt 0
	movq	-264(%rbp), %rax
	movq	-272(%rbp), %rcx
	.loc	26 270 58 is_stmt 1
	movq	%rcx, -40(%rbp)
Ltmp261:
	.loc	10 450 41
	movq	%rcx, -32(%rbp)
	movq	%rcx, -24(%rbp)
Ltmp262:
	.loc	10 201 13
	movq	%rcx, -224(%rbp)
Ltmp263:
	.loc	10 326 9
	movq	-224(%rbp), %rcx
Ltmp264:
	.loc	26 270 31
	movq	%rcx, 8(%rax)
	movb	$2, (%rax)
	.loc	26 270 94 is_stmt 0
	jmp	LBB24_12
LBB24_6:
	.loc	26 0 94
	movq	-272(%rbp), %rax
	.loc	26 275 26 is_stmt 1
	movq	%rax, -120(%rbp)
Ltmp265:
	.loc	10 326 9
	movq	%rax, -112(%rbp)
Ltmp266:
	.loc	7 1300 9
	movq	%rax, -104(%rbp)
Ltmp267:
	.loc	7 60 9
	movq	%rax, -96(%rbp)
Ltmp268:
	.loc	7 1282 9
	movq	%rax, -88(%rbp)
Ltmp269:
	.loc	7 568 18
	addq	$-1, %rax
	movq	%rax, -80(%rbp)
	movq	-80(%rbp), %rax
	movq	%rax, -296(%rbp)
	jmp	LBB24_10
Ltmp270:
LBB24_7:
	.loc	26 283 1
	testb	$1, -201(%rbp)
	jne	LBB24_19
	jmp	LBB24_18
LBB24_8:
Ltmp252:
	.loc	26 0 1 is_stmt 0
	movq	%rax, %rcx
	movl	%edx, %eax
	movq	%rcx, -136(%rbp)
	movl	%eax, -128(%rbp)
	jmp	LBB24_7
LBB24_9:
	ud2
LBB24_10:
	movq	-296(%rbp), %rax
Ltmp271:
	.loc	7 568 18 is_stmt 1
	movq	%rax, -72(%rbp)
Ltmp272:
	.loc	7 99 33
	movq	%rax, -64(%rbp)
Ltmp273:
	.loc	6 135 36
	movq	%rax, -192(%rbp)
	.loc	6 135 14 is_stmt 0
	movq	-192(%rbp), %rax
	movq	%rax, -200(%rbp)
	movq	-200(%rbp), %rax
	movq	%rax, -56(%rbp)
Ltmp274:
	.loc	7 60 9 is_stmt 1
	movq	%rax, -48(%rbp)
Ltmp275:
	.loc	26 276 31
	movb	$0, -201(%rbp)
	movq	%rax, -216(%rbp)
	movq	-216(%rbp), %rdi
Ltmp244:
	callq	__ZN78_$LT$std..io..error..repr_bitpacked..Repr$u20$as$u20$core..ops..drop..Drop$GT$4drop28_$u7b$$u7b$closure$u7d$$u7d$17ha6dbd0b52591fa47E
Ltmp245:
	movq	%rax, -304(%rbp)
	jmp	LBB24_11
LBB24_11:
	.loc	26 0 31 is_stmt 0
	movq	-264(%rbp), %rax
	movq	-304(%rbp), %rcx
	.loc	26 276 13
	movq	%rcx, 8(%rax)
	movb	$3, (%rax)
Ltmp276:
LBB24_12:
	.loc	26 283 1 is_stmt 1
	testb	$1, -201(%rbp)
	jne	LBB24_21
	jmp	LBB24_20
LBB24_13:
	.loc	26 0 1 is_stmt 0
	movb	-281(%rbp), %al
Ltmp277:
	.loc	26 258 24 is_stmt 1
	movb	%al, -233(%rbp)
	.loc	26 258 65 is_stmt 0
	leaq	-248(%rbp), %rax
	movq	%rax, -232(%rbp)
Ltmp278:
	.file	29 "/rustc/2c8cc343237b8f7d5a3c3703e3a87f2eb2c54a74/library/core/src" "option.rs"
	.loc	29 871 15 is_stmt 1
	movl	$1, %eax
	xorl	%ecx, %ecx
	cmpb	$41, -233(%rbp)
	cmoveq	%rcx, %rax
	.loc	29 871 9 is_stmt 0
	cmpq	$0, %rax
	jne	LBB24_15
	.loc	29 873 21 is_stmt 1
	movq	-232(%rbp), %rdi
Ltmp248:
	callq	__ZN3std2io5error14repr_bitpacked11decode_repr28_$u7b$$u7b$closure$u7d$$u7d$17hedaeaf0e901f08bdE
Ltmp249:
	movb	%al, -305(%rbp)
	jmp	LBB24_17
LBB24_15:
	.loc	29 872 18
	movb	-233(%rbp), %al
	movb	%al, -5(%rbp)
Ltmp279:
	.loc	29 872 24 is_stmt 0
	movb	%al, -234(%rbp)
Ltmp280:
LBB24_16:
	.loc	29 0 24
	movq	-264(%rbp), %rax
Ltmp281:
	.loc	26 268 31 is_stmt 1
	movb	-234(%rbp), %cl
	.loc	26 268 13 is_stmt 0
	movb	%cl, 1(%rax)
	movb	$1, (%rax)
Ltmp282:
	.loc	26 269 9 is_stmt 1
	jmp	LBB24_12
LBB24_17:
	.loc	26 0 9 is_stmt 0
	movb	-305(%rbp), %al
Ltmp283:
	.loc	29 873 21 is_stmt 1
	movb	%al, -234(%rbp)
	.loc	29 873 23 is_stmt 0
	jmp	LBB24_16
Ltmp284:
LBB24_18:
	.loc	26 246 1 is_stmt 1
	movq	-136(%rbp), %rdi
	callq	__Unwind_Resume
LBB24_19:
	.loc	26 283 1
	jmp	LBB24_18
LBB24_20:
	.loc	26 0 1 is_stmt 0
	movq	-256(%rbp), %rax
	.loc	26 283 2
	addq	$320, %rsp
	popq	%rbp
	retq
LBB24_21:
	.loc	26 283 1
	jmp	LBB24_20
Ltmp285:
Lfunc_end24:
	.cfi_endproc
	.p2align	2, 0x90
	.data_region jt32
.set L24_0_set_5, LBB24_5-LJTI24_0
.set L24_0_set_6, LBB24_6-LJTI24_0
.set L24_0_set_3, LBB24_3-LJTI24_0
.set L24_0_set_4, LBB24_4-LJTI24_0
LJTI24_0:
	.long	L24_0_set_5
	.long	L24_0_set_6
	.long	L24_0_set_3
	.long	L24_0_set_4
	.end_data_region
	.section	__TEXT,__gcc_except_tab
	.p2align	2
GCC_except_table24:
Lexception4:
	.byte	255
	.byte	255
	.byte	1
	.uleb128 Lcst_end4-Lcst_begin4
Lcst_begin4:
	.uleb128 Ltmp250-Lfunc_begin24
	.uleb128 Ltmp249-Ltmp250
	.uleb128 Ltmp252-Lfunc_begin24
	.byte	0
	.uleb128 Ltmp249-Lfunc_begin24
	.uleb128 Lfunc_end24-Ltmp249
	.byte	0
	.byte	0
Lcst_end4:
	.p2align	2

	.section	__TEXT,__text,regular,pure_instructions
	.globl	__ZN3std2io5error14repr_bitpacked11decode_repr17h2ef86b9e31e6b76bE
	.p2align	4, 0x90
__ZN3std2io5error14repr_bitpacked11decode_repr17h2ef86b9e31e6b76bE:
Lfunc_begin25:
	.loc	26 246 0 is_stmt 1
	.cfi_startproc
	.cfi_personality 155, _rust_eh_personality
	.cfi_lsda 16, Lexception5
	pushq	%rbp
	.cfi_def_cfa_offset 16
	.cfi_offset %rbp, -16
	movq	%rsp, %rbp
	.cfi_def_cfa_register %rbp
	subq	$320, %rsp
	movq	%rsi, -272(%rbp)
	movq	%rdi, -264(%rbp)
	movq	%rdi, -256(%rbp)
	movq	%rsi, -184(%rbp)
Ltmp295:
	.loc	26 250 9 prologue_end
	movb	$1, -201(%rbp)
	.loc	26 250 16 is_stmt 0
	movq	%rsi, -160(%rbp)
Ltmp296:
	.loc	10 326 9 is_stmt 1
	movq	%rsi, -152(%rbp)
Ltmp297:
	.loc	7 215 33
	movq	%rsi, -144(%rbp)
	.loc	7 215 18 is_stmt 0
	movq	%rsi, -248(%rbp)
Ltmp298:
	.loc	26 251 11 is_stmt 1
	movq	-248(%rbp), %rax
	andl	$3, %eax
	movq	%rax, -280(%rbp)
	.loc	26 251 5 is_stmt 0
	subq	$3, %rax
	ja	LBB25_2
	.loc	26 0 5
	movq	-280(%rbp), %rax
	leaq	LJTI25_0(%rip), %rcx
	movslq	(%rcx,%rax,4), %rax
	addq	%rcx, %rax
	jmpq	*%rax
LBB25_2:
Ltmp292:
	.loc	26 280 13 is_stmt 1
	leaq	l___unnamed_19(%rip), %rdi
	leaq	l___unnamed_20(%rip), %rdx
	movl	$40, %esi
	callq	__ZN4core9panicking5panic17hc1bc45270cf64b03E
Ltmp293:
	jmp	LBB25_9
LBB25_3:
	.loc	26 0 13 is_stmt 0
	movq	-264(%rbp), %rax
	.loc	26 253 26 is_stmt 1
	movq	-248(%rbp), %rcx
	.loc	26 253 24 is_stmt 0
	sarq	$32, %rcx
	movl	%ecx, -4(%rbp)
Ltmp299:
	.loc	26 254 13 is_stmt 1
	movl	%ecx, 4(%rax)
	movb	$0, (%rax)
Ltmp300:
	.loc	26 255 9
	jmp	LBB25_12
LBB25_4:
	.loc	26 257 30
	movl	-244(%rbp), %edi
	.loc	26 257 29 is_stmt 0
	movl	%edi, -12(%rbp)
Ltmp288:
Ltmp301:
	.loc	26 258 24 is_stmt 1
	callq	__ZN3std2io5error14repr_bitpacked14kind_from_prim17h86432d3c4743a5f0E
Ltmp289:
	movb	%al, -281(%rbp)
	jmp	LBB25_13
Ltmp302:
LBB25_5:
	.loc	26 0 24 is_stmt 0
	movq	-264(%rbp), %rax
	movq	-272(%rbp), %rcx
	.loc	26 270 58 is_stmt 1
	movq	%rcx, -40(%rbp)
Ltmp303:
	.loc	10 450 41
	movq	%rcx, -32(%rbp)
	movq	%rcx, -24(%rbp)
Ltmp304:
	.loc	10 201 13
	movq	%rcx, -224(%rbp)
Ltmp305:
	.loc	10 326 9
	movq	-224(%rbp), %rcx
Ltmp306:
	.loc	26 270 31
	movq	%rcx, 8(%rax)
	movb	$2, (%rax)
	.loc	26 270 94 is_stmt 0
	jmp	LBB25_12
LBB25_6:
	.loc	26 0 94
	movq	-272(%rbp), %rax
	.loc	26 275 26 is_stmt 1
	movq	%rax, -120(%rbp)
Ltmp307:
	.loc	10 326 9
	movq	%rax, -112(%rbp)
Ltmp308:
	.loc	7 1300 9
	movq	%rax, -104(%rbp)
Ltmp309:
	.loc	7 60 9
	movq	%rax, -96(%rbp)
Ltmp310:
	.loc	7 1282 9
	movq	%rax, -88(%rbp)
Ltmp311:
	.loc	7 568 18
	addq	$-1, %rax
	movq	%rax, -80(%rbp)
	movq	-80(%rbp), %rax
	movq	%rax, -296(%rbp)
	jmp	LBB25_10
Ltmp312:
LBB25_7:
	.loc	26 283 1
	testb	$1, -201(%rbp)
	jne	LBB25_19
	jmp	LBB25_18
LBB25_8:
Ltmp294:
	.loc	26 0 1 is_stmt 0
	movq	%rax, %rcx
	movl	%edx, %eax
	movq	%rcx, -136(%rbp)
	movl	%eax, -128(%rbp)
	jmp	LBB25_7
LBB25_9:
	ud2
LBB25_10:
	movq	-296(%rbp), %rax
Ltmp313:
	.loc	7 568 18 is_stmt 1
	movq	%rax, -72(%rbp)
Ltmp314:
	.loc	7 99 33
	movq	%rax, -64(%rbp)
Ltmp315:
	.loc	6 135 36
	movq	%rax, -192(%rbp)
	.loc	6 135 14 is_stmt 0
	movq	-192(%rbp), %rax
	movq	%rax, -200(%rbp)
	movq	-200(%rbp), %rax
	movq	%rax, -56(%rbp)
Ltmp316:
	.loc	7 60 9 is_stmt 1
	movq	%rax, -48(%rbp)
Ltmp317:
	.loc	26 276 31
	movb	$0, -201(%rbp)
	movq	%rax, -216(%rbp)
	movq	-216(%rbp), %rdi
Ltmp286:
	callq	__ZN3std2io5error14repr_bitpacked4Repr4data28_$u7b$$u7b$closure$u7d$$u7d$17h82a67adbec151fcfE
Ltmp287:
	movq	%rax, -304(%rbp)
	jmp	LBB25_11
LBB25_11:
	.loc	26 0 31 is_stmt 0
	movq	-264(%rbp), %rax
	movq	-304(%rbp), %rcx
	.loc	26 276 13
	movq	%rcx, 8(%rax)
	movb	$3, (%rax)
Ltmp318:
LBB25_12:
	.loc	26 283 1 is_stmt 1
	testb	$1, -201(%rbp)
	jne	LBB25_21
	jmp	LBB25_20
LBB25_13:
	.loc	26 0 1 is_stmt 0
	movb	-281(%rbp), %al
Ltmp319:
	.loc	26 258 24 is_stmt 1
	movb	%al, -233(%rbp)
	.loc	26 258 65 is_stmt 0
	leaq	-248(%rbp), %rax
	movq	%rax, -232(%rbp)
Ltmp320:
	.loc	29 871 15 is_stmt 1
	movl	$1, %eax
	xorl	%ecx, %ecx
	cmpb	$41, -233(%rbp)
	cmoveq	%rcx, %rax
	.loc	29 871 9 is_stmt 0
	cmpq	$0, %rax
	jne	LBB25_15
	.loc	29 873 21 is_stmt 1
	movq	-232(%rbp), %rdi
Ltmp290:
	callq	__ZN3std2io5error14repr_bitpacked11decode_repr28_$u7b$$u7b$closure$u7d$$u7d$17hb5d4d357c8176063E
Ltmp291:
	movb	%al, -305(%rbp)
	jmp	LBB25_17
LBB25_15:
	.loc	29 872 18
	movb	-233(%rbp), %al
	movb	%al, -5(%rbp)
Ltmp321:
	.loc	29 872 24 is_stmt 0
	movb	%al, -234(%rbp)
Ltmp322:
LBB25_16:
	.loc	29 0 24
	movq	-264(%rbp), %rax
Ltmp323:
	.loc	26 268 31 is_stmt 1
	movb	-234(%rbp), %cl
	.loc	26 268 13 is_stmt 0
	movb	%cl, 1(%rax)
	movb	$1, (%rax)
Ltmp324:
	.loc	26 269 9 is_stmt 1
	jmp	LBB25_12
LBB25_17:
	.loc	26 0 9 is_stmt 0
	movb	-305(%rbp), %al
Ltmp325:
	.loc	29 873 21 is_stmt 1
	movb	%al, -234(%rbp)
	.loc	29 873 23 is_stmt 0
	jmp	LBB25_16
Ltmp326:
LBB25_18:
	.loc	26 246 1 is_stmt 1
	movq	-136(%rbp), %rdi
	callq	__Unwind_Resume
LBB25_19:
	.loc	26 283 1
	jmp	LBB25_18
LBB25_20:
	.loc	26 0 1 is_stmt 0
	movq	-256(%rbp), %rax
	.loc	26 283 2
	addq	$320, %rsp
	popq	%rbp
	retq
LBB25_21:
	.loc	26 283 1
	jmp	LBB25_20
Ltmp327:
Lfunc_end25:
	.cfi_endproc
	.p2align	2, 0x90
	.data_region jt32
.set L25_0_set_5, LBB25_5-LJTI25_0
.set L25_0_set_6, LBB25_6-LJTI25_0
.set L25_0_set_3, LBB25_3-LJTI25_0
.set L25_0_set_4, LBB25_4-LJTI25_0
LJTI25_0:
	.long	L25_0_set_5
	.long	L25_0_set_6
	.long	L25_0_set_3
	.long	L25_0_set_4
	.end_data_region
	.section	__TEXT,__gcc_except_tab
	.p2align	2
GCC_except_table25:
Lexception5:
	.byte	255
	.byte	255
	.byte	1
	.uleb128 Lcst_end5-Lcst_begin5
Lcst_begin5:
	.uleb128 Ltmp292-Lfunc_begin25
	.uleb128 Ltmp291-Ltmp292
	.uleb128 Ltmp294-Lfunc_begin25
	.byte	0
	.uleb128 Ltmp291-Lfunc_begin25
	.uleb128 Lfunc_end25-Ltmp291
	.byte	0
	.byte	0
Lcst_end5:
	.p2align	2

	.section	__TEXT,__text,regular,pure_instructions
	.globl	__ZN3std2io5error14repr_bitpacked11decode_repr28_$u7b$$u7b$closure$u7d$$u7d$17hb5d4d357c8176063E
	.p2align	4, 0x90
__ZN3std2io5error14repr_bitpacked11decode_repr28_$u7b$$u7b$closure$u7d$$u7d$17hb5d4d357c8176063E:
Lfunc_begin26:
	.loc	26 258 0 is_stmt 1
	.cfi_startproc
	pushq	%rbp
	.cfi_def_cfa_offset 16
	.cfi_offset %rbp, -16
	movq	%rsp, %rbp
	.cfi_def_cfa_register %rbp
	subq	$16, %rsp
	movq	%rdi, -16(%rbp)
Ltmp328:
	.loc	26 266 17 prologue_end
	callq	__ZN4core4hint21unreachable_unchecked17hab3a443c2a5bf30eE
Ltmp329:
Lfunc_end26:
	.cfi_endproc

	.globl	__ZN3std2io5error14repr_bitpacked11decode_repr28_$u7b$$u7b$closure$u7d$$u7d$17hedaeaf0e901f08bdE
	.p2align	4, 0x90
__ZN3std2io5error14repr_bitpacked11decode_repr28_$u7b$$u7b$closure$u7d$$u7d$17hedaeaf0e901f08bdE:
Lfunc_begin27:
	.loc	26 258 0
	.cfi_startproc
	pushq	%rbp
	.cfi_def_cfa_offset 16
	.cfi_offset %rbp, -16
	movq	%rsp, %rbp
	.cfi_def_cfa_register %rbp
	subq	$16, %rsp
	movq	%rdi, -16(%rbp)
Ltmp330:
	.loc	26 266 17 prologue_end
	callq	__ZN4core4hint21unreachable_unchecked17hab3a443c2a5bf30eE
Ltmp331:
Lfunc_end27:
	.cfi_endproc

	.p2align	4, 0x90
__ZN3std2io5error14repr_bitpacked14kind_from_prim17h86432d3c4743a5f0E:
Lfunc_begin28:
	.loc	26 289 0
	.cfi_startproc
	pushq	%rbp
	.cfi_def_cfa_offset 16
	.cfi_offset %rbp, -16
	movq	%rsp, %rbp
	.cfi_def_cfa_register %rbp
	subq	$336, %rsp
	movl	%edi, -336(%rbp)
Ltmp332:
	.loc	26 302 5 prologue_end
	leaq	-336(%rbp), %rax
	movq	%rax, -328(%rbp)
	cmpl	$0, -336(%rbp)
	je	LBB28_2
	leaq	-336(%rbp), %rax
	movq	%rax, -320(%rbp)
	cmpl	$1, -336(%rbp)
	je	LBB28_5
	jmp	LBB28_4
LBB28_2:
Ltmp333:
	.loc	26 302 5 is_stmt 0
	movb	$0, -329(%rbp)
Ltmp334:
LBB28_3:
	.loc	26 345 2 is_stmt 1
	movb	-329(%rbp), %al
	addq	$336, %rsp
	popq	%rbp
	retq
LBB28_4:
	.loc	26 302 5
	leaq	-336(%rbp), %rax
	movq	%rax, -312(%rbp)
	cmpl	$2, -336(%rbp)
	je	LBB28_7
	jmp	LBB28_6
LBB28_5:
Ltmp335:
	.loc	26 302 5 is_stmt 0
	movb	$1, -329(%rbp)
Ltmp336:
	.loc	26 302 5
	jmp	LBB28_3
LBB28_6:
	leaq	-336(%rbp), %rax
	movq	%rax, -304(%rbp)
	cmpl	$3, -336(%rbp)
	je	LBB28_9
	jmp	LBB28_8
LBB28_7:
Ltmp337:
	.loc	26 302 5
	movb	$2, -329(%rbp)
Ltmp338:
	.loc	26 302 5
	jmp	LBB28_3
LBB28_8:
	leaq	-336(%rbp), %rax
	movq	%rax, -296(%rbp)
	cmpl	$4, -336(%rbp)
	je	LBB28_11
	jmp	LBB28_10
LBB28_9:
Ltmp339:
	.loc	26 302 5
	movb	$3, -329(%rbp)
Ltmp340:
	.loc	26 302 5
	jmp	LBB28_3
LBB28_10:
	leaq	-336(%rbp), %rax
	movq	%rax, -288(%rbp)
	cmpl	$5, -336(%rbp)
	je	LBB28_13
	jmp	LBB28_12
LBB28_11:
Ltmp341:
	.loc	26 302 5
	movb	$4, -329(%rbp)
Ltmp342:
	.loc	26 302 5
	jmp	LBB28_3
LBB28_12:
	leaq	-336(%rbp), %rax
	movq	%rax, -280(%rbp)
	cmpl	$6, -336(%rbp)
	je	LBB28_15
	jmp	LBB28_14
LBB28_13:
Ltmp343:
	.loc	26 302 5
	movb	$5, -329(%rbp)
Ltmp344:
	.loc	26 302 5
	jmp	LBB28_3
LBB28_14:
	leaq	-336(%rbp), %rax
	movq	%rax, -272(%rbp)
	cmpl	$7, -336(%rbp)
	je	LBB28_17
	jmp	LBB28_16
LBB28_15:
Ltmp345:
	.loc	26 302 5
	movb	$6, -329(%rbp)
Ltmp346:
	.loc	26 302 5
	jmp	LBB28_3
LBB28_16:
	leaq	-336(%rbp), %rax
	movq	%rax, -264(%rbp)
	cmpl	$8, -336(%rbp)
	je	LBB28_19
	jmp	LBB28_18
LBB28_17:
Ltmp347:
	.loc	26 302 5
	movb	$7, -329(%rbp)
Ltmp348:
	.loc	26 302 5
	jmp	LBB28_3
LBB28_18:
	leaq	-336(%rbp), %rax
	movq	%rax, -256(%rbp)
	cmpl	$9, -336(%rbp)
	je	LBB28_21
	jmp	LBB28_20
LBB28_19:
Ltmp349:
	.loc	26 302 5
	movb	$8, -329(%rbp)
Ltmp350:
	.loc	26 302 5
	jmp	LBB28_3
LBB28_20:
	leaq	-336(%rbp), %rax
	movq	%rax, -248(%rbp)
	cmpl	$10, -336(%rbp)
	je	LBB28_23
	jmp	LBB28_22
LBB28_21:
Ltmp351:
	.loc	26 302 5
	movb	$9, -329(%rbp)
Ltmp352:
	.loc	26 302 5
	jmp	LBB28_3
LBB28_22:
	leaq	-336(%rbp), %rax
	movq	%rax, -240(%rbp)
	cmpl	$11, -336(%rbp)
	je	LBB28_25
	jmp	LBB28_24
LBB28_23:
Ltmp353:
	.loc	26 302 5
	movb	$10, -329(%rbp)
Ltmp354:
	.loc	26 302 5
	jmp	LBB28_3
LBB28_24:
	leaq	-336(%rbp), %rax
	movq	%rax, -232(%rbp)
	cmpl	$12, -336(%rbp)
	je	LBB28_27
	jmp	LBB28_26
LBB28_25:
Ltmp355:
	.loc	26 302 5
	movb	$11, -329(%rbp)
Ltmp356:
	.loc	26 302 5
	jmp	LBB28_3
LBB28_26:
	leaq	-336(%rbp), %rax
	movq	%rax, -224(%rbp)
	cmpl	$13, -336(%rbp)
	je	LBB28_29
	jmp	LBB28_28
LBB28_27:
Ltmp357:
	.loc	26 302 5
	movb	$12, -329(%rbp)
Ltmp358:
	.loc	26 302 5
	jmp	LBB28_3
LBB28_28:
	leaq	-336(%rbp), %rax
	movq	%rax, -216(%rbp)
	cmpl	$14, -336(%rbp)
	je	LBB28_31
	jmp	LBB28_30
LBB28_29:
Ltmp359:
	.loc	26 302 5
	movb	$13, -329(%rbp)
Ltmp360:
	.loc	26 302 5
	jmp	LBB28_3
LBB28_30:
	leaq	-336(%rbp), %rax
	movq	%rax, -208(%rbp)
	cmpl	$15, -336(%rbp)
	je	LBB28_33
	jmp	LBB28_32
LBB28_31:
Ltmp361:
	.loc	26 302 5
	movb	$14, -329(%rbp)
Ltmp362:
	.loc	26 302 5
	jmp	LBB28_3
LBB28_32:
	leaq	-336(%rbp), %rax
	movq	%rax, -200(%rbp)
	cmpl	$16, -336(%rbp)
	je	LBB28_35
	jmp	LBB28_34
LBB28_33:
Ltmp363:
	.loc	26 302 5
	movb	$15, -329(%rbp)
Ltmp364:
	.loc	26 302 5
	jmp	LBB28_3
LBB28_34:
	leaq	-336(%rbp), %rax
	movq	%rax, -192(%rbp)
	cmpl	$17, -336(%rbp)
	je	LBB28_37
	jmp	LBB28_36
LBB28_35:
Ltmp365:
	.loc	26 302 5
	movb	$16, -329(%rbp)
Ltmp366:
	.loc	26 302 5
	jmp	LBB28_3
LBB28_36:
	leaq	-336(%rbp), %rax
	movq	%rax, -184(%rbp)
	cmpl	$18, -336(%rbp)
	je	LBB28_39
	jmp	LBB28_38
LBB28_37:
Ltmp367:
	.loc	26 302 5
	movb	$17, -329(%rbp)
Ltmp368:
	.loc	26 302 5
	jmp	LBB28_3
LBB28_38:
	leaq	-336(%rbp), %rax
	movq	%rax, -176(%rbp)
	cmpl	$19, -336(%rbp)
	je	LBB28_41
	jmp	LBB28_40
LBB28_39:
Ltmp369:
	.loc	26 302 5
	movb	$18, -329(%rbp)
Ltmp370:
	.loc	26 302 5
	jmp	LBB28_3
LBB28_40:
	leaq	-336(%rbp), %rax
	movq	%rax, -168(%rbp)
	cmpl	$20, -336(%rbp)
	je	LBB28_43
	jmp	LBB28_42
LBB28_41:
Ltmp371:
	.loc	26 302 5
	movb	$19, -329(%rbp)
Ltmp372:
	.loc	26 302 5
	jmp	LBB28_3
LBB28_42:
	leaq	-336(%rbp), %rax
	movq	%rax, -160(%rbp)
	cmpl	$21, -336(%rbp)
	je	LBB28_45
	jmp	LBB28_44
LBB28_43:
Ltmp373:
	.loc	26 302 5
	movb	$20, -329(%rbp)
Ltmp374:
	.loc	26 302 5
	jmp	LBB28_3
LBB28_44:
	leaq	-336(%rbp), %rax
	movq	%rax, -152(%rbp)
	cmpl	$22, -336(%rbp)
	je	LBB28_47
	jmp	LBB28_46
LBB28_45:
Ltmp375:
	.loc	26 302 5
	movb	$21, -329(%rbp)
Ltmp376:
	.loc	26 302 5
	jmp	LBB28_3
LBB28_46:
	leaq	-336(%rbp), %rax
	movq	%rax, -144(%rbp)
	cmpl	$23, -336(%rbp)
	je	LBB28_49
	jmp	LBB28_48
LBB28_47:
Ltmp377:
	.loc	26 302 5
	movb	$22, -329(%rbp)
Ltmp378:
	.loc	26 302 5
	jmp	LBB28_3
LBB28_48:
	leaq	-336(%rbp), %rax
	movq	%rax, -136(%rbp)
	cmpl	$24, -336(%rbp)
	je	LBB28_51
	jmp	LBB28_50
LBB28_49:
Ltmp379:
	.loc	26 302 5
	movb	$23, -329(%rbp)
Ltmp380:
	.loc	26 302 5
	jmp	LBB28_3
LBB28_50:
	leaq	-336(%rbp), %rax
	movq	%rax, -128(%rbp)
	cmpl	$25, -336(%rbp)
	je	LBB28_53
	jmp	LBB28_52
LBB28_51:
Ltmp381:
	.loc	26 302 5
	movb	$24, -329(%rbp)
Ltmp382:
	.loc	26 302 5
	jmp	LBB28_3
LBB28_52:
	leaq	-336(%rbp), %rax
	movq	%rax, -120(%rbp)
	cmpl	$26, -336(%rbp)
	je	LBB28_55
	jmp	LBB28_54
LBB28_53:
Ltmp383:
	.loc	26 302 5
	movb	$25, -329(%rbp)
Ltmp384:
	.loc	26 302 5
	jmp	LBB28_3
LBB28_54:
	leaq	-336(%rbp), %rax
	movq	%rax, -112(%rbp)
	cmpl	$27, -336(%rbp)
	je	LBB28_57
	jmp	LBB28_56
LBB28_55:
Ltmp385:
	.loc	26 302 5
	movb	$26, -329(%rbp)
Ltmp386:
	.loc	26 302 5
	jmp	LBB28_3
LBB28_56:
	leaq	-336(%rbp), %rax
	movq	%rax, -104(%rbp)
	cmpl	$28, -336(%rbp)
	je	LBB28_59
	jmp	LBB28_58
LBB28_57:
Ltmp387:
	.loc	26 302 5
	movb	$27, -329(%rbp)
Ltmp388:
	.loc	26 302 5
	jmp	LBB28_3
LBB28_58:
	leaq	-336(%rbp), %rax
	movq	%rax, -96(%rbp)
	cmpl	$29, -336(%rbp)
	je	LBB28_61
	jmp	LBB28_60
LBB28_59:
Ltmp389:
	.loc	26 302 5
	movb	$28, -329(%rbp)
Ltmp390:
	.loc	26 302 5
	jmp	LBB28_3
LBB28_60:
	leaq	-336(%rbp), %rax
	movq	%rax, -88(%rbp)
	cmpl	$30, -336(%rbp)
	je	LBB28_63
	jmp	LBB28_62
LBB28_61:
Ltmp391:
	.loc	26 302 5
	movb	$29, -329(%rbp)
Ltmp392:
	.loc	26 302 5
	jmp	LBB28_3
LBB28_62:
	leaq	-336(%rbp), %rax
	movq	%rax, -80(%rbp)
	cmpl	$31, -336(%rbp)
	je	LBB28_65
	jmp	LBB28_64
LBB28_63:
Ltmp393:
	.loc	26 302 5
	movb	$30, -329(%rbp)
Ltmp394:
	.loc	26 302 5
	jmp	LBB28_3
LBB28_64:
	leaq	-336(%rbp), %rax
	movq	%rax, -72(%rbp)
	cmpl	$32, -336(%rbp)
	je	LBB28_67
	jmp	LBB28_66
LBB28_65:
Ltmp395:
	.loc	26 302 5
	movb	$31, -329(%rbp)
Ltmp396:
	.loc	26 302 5
	jmp	LBB28_3
LBB28_66:
	leaq	-336(%rbp), %rax
	movq	%rax, -64(%rbp)
	cmpl	$33, -336(%rbp)
	je	LBB28_69
	jmp	LBB28_68
LBB28_67:
Ltmp397:
	.loc	26 302 5
	movb	$32, -329(%rbp)
Ltmp398:
	.loc	26 302 5
	jmp	LBB28_3
LBB28_68:
	leaq	-336(%rbp), %rax
	movq	%rax, -56(%rbp)
	cmpl	$34, -336(%rbp)
	je	LBB28_71
	jmp	LBB28_70
LBB28_69:
Ltmp399:
	.loc	26 302 5
	movb	$33, -329(%rbp)
Ltmp400:
	.loc	26 302 5
	jmp	LBB28_3
LBB28_70:
	leaq	-336(%rbp), %rax
	movq	%rax, -48(%rbp)
	cmpl	$35, -336(%rbp)
	je	LBB28_73
	jmp	LBB28_72
LBB28_71:
Ltmp401:
	.loc	26 302 5
	movb	$34, -329(%rbp)
Ltmp402:
	.loc	26 302 5
	jmp	LBB28_3
LBB28_72:
	leaq	-336(%rbp), %rax
	movq	%rax, -40(%rbp)
	cmpl	$39, -336(%rbp)
	je	LBB28_75
	jmp	LBB28_74
LBB28_73:
Ltmp403:
	.loc	26 302 5
	movb	$35, -329(%rbp)
Ltmp404:
	.loc	26 302 5
	jmp	LBB28_3
LBB28_74:
	leaq	-336(%rbp), %rax
	movq	%rax, -32(%rbp)
	cmpl	$37, -336(%rbp)
	je	LBB28_77
	jmp	LBB28_76
LBB28_75:
Ltmp405:
	.loc	26 302 5
	movb	$39, -329(%rbp)
Ltmp406:
	.loc	26 302 5
	jmp	LBB28_3
LBB28_76:
	leaq	-336(%rbp), %rax
	movq	%rax, -24(%rbp)
	cmpl	$36, -336(%rbp)
	je	LBB28_79
	jmp	LBB28_78
LBB28_77:
Ltmp407:
	.loc	26 302 5
	movb	$37, -329(%rbp)
Ltmp408:
	.loc	26 302 5
	jmp	LBB28_3
LBB28_78:
	leaq	-336(%rbp), %rax
	movq	%rax, -16(%rbp)
	cmpl	$38, -336(%rbp)
	je	LBB28_81
	jmp	LBB28_80
LBB28_79:
Ltmp409:
	.loc	26 302 5
	movb	$36, -329(%rbp)
Ltmp410:
	.loc	26 302 5
	jmp	LBB28_3
LBB28_80:
	leaq	-336(%rbp), %rax
	movq	%rax, -8(%rbp)
	cmpl	$40, -336(%rbp)
	je	LBB28_83
	jmp	LBB28_82
LBB28_81:
Ltmp411:
	.loc	26 302 5
	movb	$38, -329(%rbp)
Ltmp412:
	.loc	26 302 5
	jmp	LBB28_3
LBB28_82:
	movb	$41, -329(%rbp)
	jmp	LBB28_3
LBB28_83:
Ltmp413:
	.loc	26 302 5
	movb	$40, -329(%rbp)
Ltmp414:
	.loc	26 302 5
	jmp	LBB28_3
Ltmp415:
Lfunc_end28:
	.cfi_endproc

	.globl	__ZN3std2io5error14repr_bitpacked4Repr4data28_$u7b$$u7b$closure$u7d$$u7d$17h82a67adbec151fcfE
	.p2align	4, 0x90
__ZN3std2io5error14repr_bitpacked4Repr4data28_$u7b$$u7b$closure$u7d$$u7d$17h82a67adbec151fcfE:
Lfunc_begin29:
	.loc	26 212 0 is_stmt 1
	.cfi_startproc
	pushq	%rbp
	.cfi_def_cfa_offset 16
	.cfi_offset %rbp, -16
	movq	%rsp, %rbp
	.cfi_def_cfa_register %rbp
	subq	$16, %rsp
	movq	%rdi, %rax
	movq	%rax, -8(%rbp)
Ltmp416:
	.loc	26 212 45 prologue_end
	addq	$16, %rsp
	popq	%rbp
	retq
Ltmp417:
Lfunc_end29:
	.cfi_endproc

	.p2align	4, 0x90
__ZN3std2io5error5Error4kind17h1887545d6d55d0a7E:
Lfunc_begin30:
	.loc	24 893 0
	.cfi_startproc
	pushq	%rbp
	.cfi_def_cfa_offset 16
	.cfi_offset %rbp, -16
	movq	%rsp, %rbp
	.cfi_def_cfa_register %rbp
	subq	$80, %rsp
	movq	%rdi, -40(%rbp)
Ltmp418:
	.loc	24 894 15 prologue_end
	movq	%rdi, -32(%rbp)
Ltmp419:
	.loc	26 212 30
	movq	(%rdi), %rsi
	leaq	-56(%rbp), %rdi
	.loc	26 212 18 is_stmt 0
	callq	__ZN3std2io5error14repr_bitpacked11decode_repr17h2ef86b9e31e6b76bE
Ltmp420:
	.loc	24 894 15 is_stmt 1
	movzbl	-56(%rbp), %eax
	movq	%rax, -72(%rbp)
	.loc	24 0 15 is_stmt 0
	movq	-72(%rbp), %rax
	leaq	LJTI30_0(%rip), %rcx
	movslq	(%rcx,%rax,4), %rax
	addq	%rcx, %rax
	jmpq	*%rax
	.loc	24 894 15
	ud2
LBB30_2:
	.loc	24 895 27 is_stmt 1
	movl	-52(%rbp), %edi
	movl	%edi, -4(%rbp)
Ltmp421:
	.loc	24 895 36 is_stmt 0
	callq	__ZN3std3sys4unix17decode_error_kind17h50ab8511eed7ed72E
	movb	%al, -57(%rbp)
Ltmp422:
	.loc	24 895 63
	jmp	LBB30_6
LBB30_3:
	.loc	24 897 31 is_stmt 1
	movb	-55(%rbp), %al
	movb	%al, -5(%rbp)
Ltmp423:
	.loc	24 897 40 is_stmt 0
	movb	%al, -57(%rbp)
Ltmp424:
	.loc	24 897 43
	jmp	LBB30_6
LBB30_4:
	.loc	24 898 38 is_stmt 1
	movq	-48(%rbp), %rax
	movq	%rax, -16(%rbp)
Ltmp425:
	.loc	24 898 44 is_stmt 0
	movb	16(%rax), %al
	movb	%al, -57(%rbp)
Ltmp426:
	.loc	24 898 49
	jmp	LBB30_6
LBB30_5:
	.loc	24 896 31 is_stmt 1
	movq	-48(%rbp), %rax
	movq	%rax, -24(%rbp)
Ltmp427:
	.loc	24 896 37 is_stmt 0
	movb	16(%rax), %al
	movb	%al, -57(%rbp)
Ltmp428:
LBB30_6:
	.loc	24 900 6 is_stmt 1
	movb	-57(%rbp), %al
	addq	$80, %rsp
	popq	%rbp
	retq
Ltmp429:
Lfunc_end30:
	.cfi_endproc
	.p2align	2, 0x90
	.data_region jt32
.set L30_0_set_2, LBB30_2-LJTI30_0
.set L30_0_set_3, LBB30_3-LJTI30_0
.set L30_0_set_4, LBB30_4-LJTI30_0
.set L30_0_set_5, LBB30_5-LJTI30_0
LJTI30_0:
	.long	L30_0_set_2
	.long	L30_0_set_3
	.long	L30_0_set_4
	.long	L30_0_set_5
	.end_data_region

	.p2align	4, 0x90
__ZN3std3sys4unix5locks15pthread_condvar7Condvar4wait17h47babbf9c1c950f1E:
Lfunc_begin31:
	.file	30 "/rustc/2c8cc343237b8f7d5a3c3703e3a87f2eb2c54a74/library/std/src/sys/unix/locks" "pthread_condvar.rs"
	.loc	30 110 0
	.cfi_startproc
	pushq	%rbp
	.cfi_def_cfa_offset 16
	.cfi_offset %rbp, -16
	movq	%rsp, %rbp
	.cfi_def_cfa_register %rbp
	subq	$112, %rsp
	movq	%rsi, -104(%rbp)
	movq	%rdi, %rax
	movq	-104(%rbp), %rdi
	movq	%rax, -96(%rbp)
	movq	%rax, -80(%rbp)
	movq	%rdi, -72(%rbp)
Ltmp430:
	.loc	30 111 40 prologue_end
	movq	%rdi, -64(%rbp)
Ltmp431:
	.file	31 "/rustc/2c8cc343237b8f7d5a3c3703e3a87f2eb2c54a74/library/std/src/sys/unix/locks" "pthread_mutex.rs"
	.loc	31 14 5
	movq	%rdi, -56(%rbp)
Ltmp432:
	.loc	17 72 20
	callq	__ZN3std10sys_common8lazy_box16LazyBox$LT$T$GT$11get_pointer17hf2e8799a4f63d8e9E
	movq	-96(%rbp), %rdi
	movq	%rax, %rsi
	movq	%rsi, -88(%rbp)
Ltmp433:
	.loc	31 14 5
	movq	%rsi, -48(%rbp)
Ltmp434:
	.file	32 "/rustc/2c8cc343237b8f7d5a3c3703e3a87f2eb2c54a74/library/core/src" "cell.rs"
	.loc	32 1999 9
	movq	%rsi, -40(%rbp)
Ltmp435:
	.loc	30 112 9
	callq	__ZN3std3sys4unix5locks15pthread_condvar7Condvar6verify17h193cadeb27ebcc3aE
	movq	-96(%rbp), %rdi
	.loc	30 113 45
	movq	%rdi, -32(%rbp)
Ltmp436:
	.loc	30 18 5
	movq	%rdi, -24(%rbp)
Ltmp437:
	.loc	17 72 20
	callq	__ZN3std10sys_common8lazy_box16LazyBox$LT$T$GT$11get_pointer17h2735450018bcaa30E
	movq	-88(%rbp), %rsi
	movq	%rax, %rdi
Ltmp438:
	.loc	30 18 5
	movq	%rdi, -16(%rbp)
Ltmp439:
	.loc	30 113 17
	callq	_pthread_cond_wait
	movl	%eax, -4(%rbp)
Ltmp440:
	.loc	30 115 6
	addq	$112, %rsp
	popq	%rbp
	retq
Ltmp441:
Lfunc_end31:
	.cfi_endproc

	.p2align	4, 0x90
__ZN3std3sys4unix5locks15pthread_condvar7Condvar6verify17h193cadeb27ebcc3aE:
Lfunc_begin32:
	.loc	30 87 0
	.cfi_startproc
	pushq	%rbp
	.cfi_def_cfa_offset 16
	.cfi_offset %rbp, -16
	movq	%rsp, %rbp
	.cfi_def_cfa_register %rbp
	subq	$176, %rsp
	movq	%rsi, %rdx
	movq	%rdx, -168(%rbp)
	movq	%rdi, -80(%rbp)
	movq	%rdx, -72(%rbp)
Ltmp442:
	.loc	30 90 15 prologue_end
	addq	$8, %rdi
	movq	%rdi, -56(%rbp)
Ltmp443:
	.loc	5 599 14
	movq	$0, -48(%rbp)
	movq	-48(%rbp), %rax
	movq	%rax, -40(%rbp)
Ltmp444:
	.loc	6 135 36
	movq	%rax, -88(%rbp)
	.loc	6 135 14 is_stmt 0
	movq	-88(%rbp), %rax
	movq	%rax, -96(%rbp)
	movq	-96(%rbp), %rsi
	movq	%rsi, -32(%rbp)
Ltmp445:
	.loc	30 90 60 is_stmt 1
	movq	%rdx, -24(%rbp)
Ltmp446:
	.loc	19 1355 42
	movq	%rdi, -16(%rbp)
	xorl	%r8d, %r8d
	.loc	19 1355 18 is_stmt 0
	movl	%r8d, %ecx
	callq	__ZN4core4sync6atomic23atomic_compare_exchange17hb24d578d88077d8eE
	movq	%rdx, -152(%rbp)
	movq	%rax, -160(%rbp)
Ltmp447:
	.loc	30 90 9 is_stmt 1
	cmpq	$0, -160(%rbp)
	jne	LBB32_2
LBB32_1:
	.loc	30 95 6
	addq	$176, %rsp
	popq	%rbp
	retq
LBB32_2:
	.loc	30 0 6 is_stmt 0
	movq	-168(%rbp), %rax
	.loc	30 92 17 is_stmt 1
	leaq	-160(%rbp), %rcx
	addq	$8, %rcx
	movq	%rcx, -8(%rbp)
	.loc	30 92 23 is_stmt 0
	cmpq	%rax, -152(%rbp)
	je	LBB32_4
	.loc	30 93 18 is_stmt 1
	leaq	l___unnamed_21(%rip), %rsi
	leaq	l___unnamed_22(%rip), %rcx
	xorl	%eax, %eax
	movl	%eax, %r8d
	leaq	-144(%rbp), %rdi
	movq	%rdi, -176(%rbp)
	movl	$1, %edx
	callq	__ZN4core3fmt9Arguments6new_v117h72772773fff33d67E
	movq	-176(%rbp), %rdi
	leaq	l___unnamed_23(%rip), %rsi
	callq	__ZN4core9panicking9panic_fmt17h9b5d807e24bcaaedE
LBB32_4:
	.loc	30 92 38
	jmp	LBB32_1
Ltmp448:
Lfunc_end32:
	.cfi_endproc

	.globl	__ZN3std4sync4mpmc17Receiver$LT$T$GT$4recv17he7ccd0676c35c338E
	.p2align	4, 0x90
__ZN3std4sync4mpmc17Receiver$LT$T$GT$4recv17he7ccd0676c35c338E:
Lfunc_begin33:
	.file	33 "/rustc/2c8cc343237b8f7d5a3c3703e3a87f2eb2c54a74/library/std/src/sync/mpmc" "mod.rs"
	.loc	33 304 0
	.cfi_startproc
	pushq	%rbp
	.cfi_def_cfa_offset 16
	.cfi_offset %rbp, -16
	movq	%rsp, %rbp
	.cfi_def_cfa_register %rbp
	subq	$112, %rsp
	movq	%rdi, -112(%rbp)
	movq	%rdi, -32(%rbp)
Ltmp449:
	.loc	33 305 15 prologue_end
	movq	(%rdi), %rax
	movq	%rax, -104(%rbp)
	.loc	33 305 9 is_stmt 0
	testq	%rax, %rax
	je	LBB33_2
	jmp	LBB33_6
LBB33_6:
	.loc	33 0 9
	movq	-104(%rbp), %rax
	.loc	33 305 9
	subq	$1, %rax
	je	LBB33_3
	jmp	LBB33_7
LBB33_7:
	jmp	LBB33_4
	.loc	33 305 15
	ud2
LBB33_2:
	.loc	33 0 15
	movq	-112(%rbp), %rdi
	.loc	33 306 35 is_stmt 1
	addq	$8, %rdi
	movq	%rdi, -8(%rbp)
Ltmp450:
	.loc	33 306 44 is_stmt 0
	callq	__ZN87_$LT$std..sync..mpmc..counter..Receiver$LT$C$GT$$u20$as$u20$core..ops..deref..Deref$GT$5deref17h8af493c37f632084E
	movq	%rax, %rsi
	.loc	33 306 54
	movq	$0, -80(%rbp)
	.loc	33 306 44
	movq	-80(%rbp), %rdx
	movq	-72(%rbp), %rcx
	leaq	-96(%rbp), %rdi
	callq	__ZN3std4sync4mpmc5array16Channel$LT$T$GT$4recv17hae009948c2a349c0E
Ltmp451:
	.loc	33 306 58
	jmp	LBB33_5
LBB33_3:
	.loc	33 0 58
	movq	-112(%rbp), %rdi
	.loc	33 307 34 is_stmt 1
	addq	$8, %rdi
	movq	%rdi, -16(%rbp)
Ltmp452:
	.loc	33 307 43 is_stmt 0
	callq	__ZN87_$LT$std..sync..mpmc..counter..Receiver$LT$C$GT$$u20$as$u20$core..ops..deref..Deref$GT$5deref17hb796d0fa6cb4fec9E
	movq	%rax, %rsi
	.loc	33 307 53
	movq	$0, -64(%rbp)
	.loc	33 307 43
	movq	-64(%rbp), %rdx
	movq	-56(%rbp), %rcx
	leaq	-96(%rbp), %rdi
	callq	__ZN3std4sync4mpmc4list16Channel$LT$T$GT$4recv17haa417a53cd8c554eE
Ltmp453:
	.loc	33 307 57
	jmp	LBB33_5
LBB33_4:
	.loc	33 0 57
	movq	-112(%rbp), %rdi
	.loc	33 308 34 is_stmt 1
	addq	$8, %rdi
	movq	%rdi, -24(%rbp)
Ltmp454:
	.loc	33 308 43 is_stmt 0
	callq	__ZN87_$LT$std..sync..mpmc..counter..Receiver$LT$C$GT$$u20$as$u20$core..ops..deref..Deref$GT$5deref17hb62ceaa676df3d11E
	movq	%rax, %rsi
	.loc	33 308 53
	movq	$0, -48(%rbp)
	.loc	33 308 43
	movq	-48(%rbp), %rdx
	movq	-40(%rbp), %rcx
	leaq	-96(%rbp), %rdi
	callq	__ZN3std4sync4mpmc4zero16Channel$LT$T$GT$4recv17h031bc85067bf7948E
Ltmp455:
LBB33_5:
	.loc	33 0 43
	leaq	-96(%rbp), %rdi
	.loc	33 305 9 is_stmt 1
	callq	__ZN4core6result19Result$LT$T$C$E$GT$7map_err17h7f9c086c289a6ac8E
	.loc	33 311 6
	addq	$112, %rsp
	popq	%rbp
	retq
Ltmp456:
Lfunc_end33:
	.cfi_endproc

	.globl	__ZN3std4sync4mpmc17Receiver$LT$T$GT$4recv28_$u7b$$u7b$closure$u7d$$u7d$17hc6c3e794cb1bb982E
	.p2align	4, 0x90
__ZN3std4sync4mpmc17Receiver$LT$T$GT$4recv28_$u7b$$u7b$closure$u7d$$u7d$17hc6c3e794cb1bb982E:
Lfunc_begin34:
	.loc	33 310 0
	.cfi_startproc
	pushq	%rbp
	.cfi_def_cfa_offset 16
	.cfi_offset %rbp, -16
	movq	%rsp, %rbp
	.cfi_def_cfa_register %rbp
	pushq	%rax
	movb	%dil, %al
	andb	$1, %al
	movb	%al, -1(%rbp)
Ltmp457:
	.loc	33 310 31 prologue_end
	addq	$8, %rsp
	popq	%rbp
	retq
Ltmp458:
Lfunc_end34:
	.cfi_endproc

	.globl	__ZN3std4sync4mpmc4list13Slot$LT$T$GT$10wait_write17h5ab3f13e4bb61e85E
	.p2align	4, 0x90
__ZN3std4sync4mpmc4list13Slot$LT$T$GT$10wait_write17h5ab3f13e4bb61e85E:
Lfunc_begin35:
	.file	34 "/rustc/2c8cc343237b8f7d5a3c3703e3a87f2eb2c54a74/library/std/src/sync/mpmc" "list.rs"
	.loc	34 46 0
	.cfi_startproc
	pushq	%rbp
	.cfi_def_cfa_offset 16
	.cfi_offset %rbp, -16
	movq	%rsp, %rbp
	.cfi_def_cfa_register %rbp
	subq	$48, %rsp
	movq	%rdi, -40(%rbp)
	movq	%rdi, -24(%rbp)
Ltmp459:
	.loc	34 47 23 prologue_end
	callq	__ZN3std4sync4mpmc5utils7Backoff3new17he8f9e4a8703c1ea7E
	movl	%eax, -28(%rbp)
LBB35_1:
	.loc	34 0 23 is_stmt 0
	movq	-40(%rbp), %rdi
Ltmp460:
	.loc	34 48 15 is_stmt 1
	addq	$16, %rdi
	movq	%rdi, -16(%rbp)
Ltmp461:
	.loc	19 2127 38
	movq	%rdi, -8(%rbp)
	.loc	19 2127 26 is_stmt 0
	movl	$2, %esi
	callq	__ZN4core4sync6atomic11atomic_load17h02119c845b0293e5E
Ltmp462:
	.loc	34 48 15 is_stmt 1
	andq	$1, %rax
	cmpq	$0, %rax
	jne	LBB35_3
	.loc	34 49 13
	leaq	-28(%rbp), %rdi
	callq	__ZN3std4sync4mpmc5utils7Backoff10spin_heavy17haca4868445df5df8E
	.loc	34 48 9
	jmp	LBB35_1
Ltmp463:
LBB35_3:
	.loc	34 51 6
	addq	$48, %rsp
	popq	%rbp
	retq
Ltmp464:
Lfunc_end35:
	.cfi_endproc

	.globl	__ZN3std4sync4mpmc4list14Block$LT$T$GT$7destroy17h6aeb687def31f723E
	.p2align	4, 0x90
__ZN3std4sync4mpmc4list14Block$LT$T$GT$7destroy17h6aeb687def31f723E:
Lfunc_begin36:
	.loc	34 90 0
	.cfi_startproc
	pushq	%rbp
	.cfi_def_cfa_offset 16
	.cfi_offset %rbp, -16
	movq	%rsp, %rbp
	.cfi_def_cfa_register %rbp
	subq	$320, %rsp
	movq	%rdi, -304(%rbp)
	movq	%rdi, -216(%rbp)
	movq	%rsi, -208(%rbp)
Ltmp465:
	.loc	34 93 18 prologue_end
	movq	%rsi, -296(%rbp)
	movq	$30, -288(%rbp)
Ltmp466:
	.file	35 "/rustc/2c8cc343237b8f7d5a3c3703e3a87f2eb2c54a74/library/core/src/iter/traits" "collect.rs"
	.loc	35 273 9
	movq	-296(%rbp), %rcx
	movq	-288(%rbp), %rax
Ltmp467:
	.loc	34 93 18
	movq	%rcx, -280(%rbp)
	movq	%rax, -272(%rbp)
LBB36_1:
	.loc	34 0 18 is_stmt 0
	leaq	-280(%rbp), %rdi
Ltmp468:
	.loc	34 93 18
	movq	%rdi, -192(%rbp)
Ltmp469:
	.file	36 "/rustc/2c8cc343237b8f7d5a3c3703e3a87f2eb2c54a74/library/core/src/iter" "range.rs"
	.loc	36 711 9 is_stmt 1
	callq	__ZN89_$LT$core..ops..range..Range$LT$T$GT$$u20$as$u20$core..iter..range..RangeIteratorImpl$GT$9spec_next17ha09ba2895e48263aE
	movq	%rdx, -256(%rbp)
	movq	%rax, -264(%rbp)
Ltmp470:
	.loc	34 93 18
	cmpq	$0, -264(%rbp)
	jne	LBB36_3
Ltmp471:
	.loc	34 0 18 is_stmt 0
	movq	-304(%rbp), %rax
	.loc	34 106 28 is_stmt 1
	movq	%rax, -32(%rbp)
Ltmp472:
	.loc	18 958 36
	movq	%rax, -24(%rbp)
Ltmp473:
	.loc	18 1014 44
	movq	%rax, -16(%rbp)
Ltmp474:
	.loc	11 87 59
	movq	%rax, -8(%rbp)
Ltmp475:
	.loc	10 201 13
	movq	%rax, -224(%rbp)
Ltmp476:
	.loc	11 87 18
	movq	-224(%rbp), %rax
	movq	%rax, -232(%rbp)
Ltmp477:
	.loc	18 1014 9
	movq	-232(%rbp), %rax
	movq	%rax, -240(%rbp)
Ltmp478:
	.file	37 "/rustc/2c8cc343237b8f7d5a3c3703e3a87f2eb2c54a74/library/core/src/mem" "mod.rs"
	.loc	37 980 24
	leaq	-240(%rbp), %rdi
	callq	__ZN4core3ptr155drop_in_place$LT$alloc..boxed..Box$LT$std..sync..mpmc..list..Block$LT$alloc..boxed..Box$LT$dyn$u20$threadpool..FnBox$u2b$core..marker..Send$GT$$GT$$GT$$GT$17h4b41210a361a9a8aE
Ltmp479:
	.loc	34 107 6
	jmp	LBB36_9
LBB36_3:
	.loc	34 0 6 is_stmt 0
	movq	-304(%rbp), %rax
Ltmp480:
	.loc	34 93 13 is_stmt 1
	movq	-256(%rbp), %rcx
	movq	%rcx, -184(%rbp)
Ltmp481:
	.loc	34 94 24
	addq	$8, %rax
	movq	%rax, -176(%rbp)
	movq	$31, -168(%rbp)
	.loc	34 94 52 is_stmt 0
	movq	%rcx, -160(%rbp)
Ltmp482:
	.loc	23 405 20 is_stmt 1
	movq	%rcx, -152(%rbp)
	.loc	23 405 40 is_stmt 0
	movq	%rax, -144(%rbp)
	movq	$31, -136(%rbp)
Ltmp483:
	.loc	3 240 13 is_stmt 1
	movq	%rax, -128(%rbp)
	movq	$31, -120(%rbp)
Ltmp484:
	.loc	4 1650 9
	movq	%rax, -112(%rbp)
Ltmp485:
	.loc	3 240 32
	movq	%rcx, -104(%rbp)
Ltmp486:
	.loc	4 932 18
	movq	%rax, -96(%rbp)
	.loc	4 932 30 is_stmt 0
	movq	%rcx, -88(%rbp)
Ltmp487:
	.loc	4 473 18 is_stmt 1
	imulq	$24, %rcx, %rcx
	addq	%rcx, %rax
	movq	%rax, -80(%rbp)
	movq	-80(%rbp), %rdi
	movq	%rdi, -312(%rbp)
Ltmp488:
	.loc	23 405 18
	movq	%rdi, -72(%rbp)
Ltmp489:
	.loc	34 97 16
	addq	$16, %rdi
	movq	%rdi, -64(%rbp)
Ltmp490:
	.loc	19 2127 38
	movq	%rdi, -56(%rbp)
	.loc	19 2127 26 is_stmt 0
	movl	$2, %esi
	callq	__ZN4core4sync6atomic11atomic_load17h02119c845b0293e5E
Ltmp491:
	.loc	34 97 16 is_stmt 1
	andq	$2, %rax
	cmpq	$0, %rax
	jne	LBB36_5
	.loc	34 0 16 is_stmt 0
	movq	-312(%rbp), %rdi
	.loc	34 98 20 is_stmt 1
	addq	$16, %rdi
	movq	%rdi, -48(%rbp)
Ltmp492:
	.loc	19 2508 36
	movq	%rdi, -40(%rbp)
	.loc	19 2508 26 is_stmt 0
	movl	$4, %esi
	movl	$3, %edx
	callq	__ZN4core4sync6atomic9atomic_or17h5b7eb60a134696a2E
Ltmp493:
	.loc	34 98 20 is_stmt 1
	andq	$2, %rax
	cmpq	$0, %rax
	sete	%al
	.loc	34 97 16
	andb	$1, %al
	movb	%al, -241(%rbp)
	jmp	LBB36_6
LBB36_5:
	movb	$0, -241(%rbp)
LBB36_6:
	testb	$1, -241(%rbp)
	jne	LBB36_8
Ltmp494:
	.loc	34 93 9
	jmp	LBB36_1
Ltmp495:
LBB36_8:
	.loc	34 107 6
	jmp	LBB36_9
LBB36_9:
	addq	$320, %rsp
	popq	%rbp
	retq
Ltmp496:
Lfunc_end36:
	.cfi_endproc

	.globl	__ZN3std4sync4mpmc4list14Block$LT$T$GT$9wait_next17h9536e6c2aa4f571fE
	.p2align	4, 0x90
__ZN3std4sync4mpmc4list14Block$LT$T$GT$9wait_next17h9536e6c2aa4f571fE:
Lfunc_begin37:
	.loc	34 78 0
	.cfi_startproc
	pushq	%rbp
	.cfi_def_cfa_offset 16
	.cfi_offset %rbp, -16
	movq	%rsp, %rbp
	.cfi_def_cfa_register %rbp
	subq	$112, %rsp
	movq	%rdi, -96(%rbp)
	movq	%rdi, -72(%rbp)
Ltmp497:
	.loc	34 79 23 prologue_end
	callq	__ZN3std4sync4mpmc5utils7Backoff3new17he8f9e4a8703c1ea7E
	movl	%eax, -84(%rbp)
LBB37_1:
	.loc	34 0 23 is_stmt 0
	movq	-96(%rbp), %rdi
Ltmp498:
	.loc	34 81 24 is_stmt 1
	movq	%rdi, -64(%rbp)
Ltmp499:
	.loc	19 1191 30
	movq	%rdi, -56(%rbp)
	.loc	19 1191 18 is_stmt 0
	movl	$2, %esi
	callq	__ZN4core4sync6atomic11atomic_load17h150fa61814838578E
	movq	%rax, -104(%rbp)
	movq	%rax, -48(%rbp)
Ltmp500:
	.loc	34 82 17 is_stmt 1
	movq	%rax, -40(%rbp)
Ltmp501:
	.loc	7 52 36
	movq	%rax, -80(%rbp)
	.loc	7 52 18 is_stmt 0
	movq	-80(%rbp), %rax
	movq	%rax, -32(%rbp)
Ltmp502:
	.loc	7 38 13 is_stmt 1
	movq	%rax, -24(%rbp)
Ltmp503:
	.loc	7 215 33
	movq	%rax, -16(%rbp)
	.loc	7 215 18 is_stmt 0
	movq	%rax, -8(%rbp)
Ltmp504:
	.loc	7 38 13 is_stmt 1
	cmpq	$0, -8(%rbp)
	sete	%al
Ltmp505:
	.loc	34 82 16
	xorb	$-1, %al
	testb	$1, %al
	jne	LBB37_3
	.loc	34 85 13
	leaq	-84(%rbp), %rdi
	callq	__ZN3std4sync4mpmc5utils7Backoff10spin_heavy17haca4868445df5df8E
Ltmp506:
	.loc	34 80 9
	jmp	LBB37_1
Ltmp507:
LBB37_3:
	.loc	34 0 9 is_stmt 0
	movq	-104(%rbp), %rax
	.loc	34 87 6 is_stmt 1
	addq	$112, %rsp
	popq	%rbp
	retq
Ltmp508:
Lfunc_end37:
	.cfi_endproc

	.globl	__ZN3std4sync4mpmc4list16Channel$LT$T$GT$10start_recv17ha2f995940af74ecdE
	.p2align	4, 0x90
__ZN3std4sync4mpmc4list16Channel$LT$T$GT$10start_recv17ha2f995940af74ecdE:
Lfunc_begin38:
	.loc	34 278 0
	.cfi_startproc
	pushq	%rbp
	.cfi_def_cfa_offset 16
	.cfi_offset %rbp, -16
	movq	%rsp, %rbp
	.cfi_def_cfa_register %rbp
	subq	$528, %rsp
	movq	%rdi, -496(%rbp)
	movq	%rsi, -504(%rbp)
	movq	%rdi, -392(%rbp)
	movq	%rsi, -384(%rbp)
Ltmp509:
	.loc	34 279 23 prologue_end
	callq	__ZN3std4sync4mpmc5utils7Backoff3new17he8f9e4a8703c1ea7E
	movq	-496(%rbp), %rdi
	movl	%eax, -484(%rbp)
Ltmp510:
	.loc	34 280 24
	callq	__ZN88_$LT$std..sync..mpmc..utils..CachePadded$LT$T$GT$$u20$as$u20$core..ops..deref..Deref$GT$5deref17h7a08992fb3550e86E
	movq	%rax, %rdi
	movq	%rdi, -368(%rbp)
Ltmp511:
	.loc	19 2127 38
	movq	%rdi, -360(%rbp)
	.loc	19 2127 26 is_stmt 0
	movl	$2, %esi
	callq	__ZN4core4sync6atomic11atomic_load17h02119c845b0293e5E
	movq	-496(%rbp), %rdi
	movq	%rax, -480(%rbp)
Ltmp512:
	.loc	34 281 25 is_stmt 1
	callq	__ZN88_$LT$std..sync..mpmc..utils..CachePadded$LT$T$GT$$u20$as$u20$core..ops..deref..Deref$GT$5deref17h7a08992fb3550e86E
	movq	%rax, %rdi
	addq	$8, %rdi
	movq	%rdi, -352(%rbp)
Ltmp513:
	.loc	19 1191 30
	movq	%rdi, -344(%rbp)
	.loc	19 1191 18 is_stmt 0
	movl	$2, %esi
	callq	__ZN4core4sync6atomic11atomic_load17h150fa61814838578E
	movq	%rax, -472(%rbp)
Ltmp514:
LBB38_1:
	.loc	34 285 27 is_stmt 1
	movq	-480(%rbp), %rax
	.loc	34 285 26 is_stmt 0
	shrq	$1, %rax
	andq	$31, %rax
	movq	%rax, -512(%rbp)
	movq	%rax, -336(%rbp)
Ltmp515:
	.loc	34 288 16 is_stmt 1
	cmpq	$31, %rax
	je	LBB38_3
	.loc	34 295 32
	movq	-480(%rbp), %rax
	addq	$2, %rax
	movq	%rax, -464(%rbp)
Ltmp516:
	.loc	34 297 16
	movq	-464(%rbp), %rax
	andq	$1, %rax
	cmpq	$0, %rax
	je	LBB38_5
	jmp	LBB38_6
Ltmp517:
LBB38_3:
	.loc	34 289 17
	leaq	-484(%rbp), %rdi
	callq	__ZN3std4sync4mpmc5utils7Backoff10spin_heavy17haca4868445df5df8E
	movq	-496(%rbp), %rdi
	.loc	34 290 24
	callq	__ZN88_$LT$std..sync..mpmc..utils..CachePadded$LT$T$GT$$u20$as$u20$core..ops..deref..Deref$GT$5deref17h7a08992fb3550e86E
	movq	%rax, %rdi
	movq	%rdi, -328(%rbp)
Ltmp518:
	.loc	19 2127 38
	movq	%rdi, -320(%rbp)
	.loc	19 2127 26 is_stmt 0
	movl	$2, %esi
	callq	__ZN4core4sync6atomic11atomic_load17h02119c845b0293e5E
	movq	-496(%rbp), %rdi
Ltmp519:
	.loc	34 290 17 is_stmt 1
	movq	%rax, -480(%rbp)
	.loc	34 291 25
	callq	__ZN88_$LT$std..sync..mpmc..utils..CachePadded$LT$T$GT$$u20$as$u20$core..ops..deref..Deref$GT$5deref17h7a08992fb3550e86E
	movq	%rax, %rdi
	addq	$8, %rdi
	movq	%rdi, -312(%rbp)
Ltmp520:
	.loc	19 1191 30
	movq	%rdi, -304(%rbp)
	.loc	19 1191 18 is_stmt 0
	movl	$2, %esi
	callq	__ZN4core4sync6atomic11atomic_load17h150fa61814838578E
Ltmp521:
	.loc	34 291 17 is_stmt 1
	movq	%rax, -472(%rbp)
Ltmp522:
LBB38_4:
	.loc	25 1 1
	jmp	LBB38_1
LBB38_5:
Ltmp523:
	.loc	34 298 31
	movb	$4, -449(%rbp)
	.loc	34 298 17 is_stmt 0
	movzbl	-449(%rbp), %edi
	callq	__ZN4core4sync6atomic5fence17h33503aa3d11291d7E
	movq	-496(%rbp), %rdi
	.loc	34 299 28 is_stmt 1
	addq	$128, %rdi
	callq	__ZN88_$LT$std..sync..mpmc..utils..CachePadded$LT$T$GT$$u20$as$u20$core..ops..deref..Deref$GT$5deref17h7a08992fb3550e86E
	movq	%rax, %rdi
	movq	%rdi, -296(%rbp)
Ltmp524:
	.loc	19 2127 38
	movq	%rdi, -288(%rbp)
	.loc	19 2127 26 is_stmt 0
	xorl	%esi, %esi
	callq	__ZN4core4sync6atomic11atomic_load17h02119c845b0293e5E
	movq	%rax, %rcx
	movq	%rcx, -520(%rbp)
	movq	%rcx, -280(%rbp)
Ltmp525:
	.loc	34 302 20 is_stmt 1
	movq	-480(%rbp), %rax
	shrq	$1, %rax
	.loc	34 302 37 is_stmt 0
	shrq	$1, %rcx
	.loc	34 302 20
	cmpq	%rcx, %rax
	je	LBB38_9
	jmp	LBB38_8
Ltmp526:
LBB38_6:
	.loc	34 297 13 is_stmt 1
	jmp	LBB38_7
LBB38_7:
	.loc	34 322 16
	movq	-472(%rbp), %rax
	movq	%rax, -256(%rbp)
Ltmp527:
	.loc	7 52 36
	movq	%rax, -408(%rbp)
	.loc	7 52 18 is_stmt 0
	movq	-408(%rbp), %rax
	movq	%rax, -248(%rbp)
Ltmp528:
	.loc	7 38 13 is_stmt 1
	movq	%rax, -240(%rbp)
Ltmp529:
	.loc	7 215 33
	movq	%rax, -232(%rbp)
	.loc	7 215 18 is_stmt 0
	movq	%rax, -224(%rbp)
Ltmp530:
	.loc	34 322 16 is_stmt 1
	cmpq	$0, -224(%rbp)
	je	LBB38_16
	jmp	LBB38_17
LBB38_8:
	.loc	34 0 16 is_stmt 0
	movq	-520(%rbp), %rcx
Ltmp531:
	.loc	34 315 21 is_stmt 1
	movq	-480(%rbp), %rax
	.loc	34 315 20 is_stmt 0
	shrq	$1, %rax
	shrq	$5, %rax
	.loc	34 315 45
	shrq	$1, %rcx
	shrq	$5, %rcx
	.loc	34 315 20
	cmpq	%rcx, %rax
	jne	LBB38_15
	jmp	LBB38_14
LBB38_9:
	.loc	34 0 20
	movq	-520(%rbp), %rax
	.loc	34 304 24 is_stmt 1
	andq	$1, %rax
	cmpq	$0, %rax
	jne	LBB38_11
	.loc	34 310 32
	movb	$0, -485(%rbp)
	.loc	34 310 25 is_stmt 0
	jmp	LBB38_12
LBB38_11:
	.loc	34 0 25
	movq	-504(%rbp), %rax
Ltmp532:
	.loc	5 568 14 is_stmt 1
	movq	$0, -272(%rbp)
	movq	-272(%rbp), %rcx
	movq	%rcx, -264(%rbp)
Ltmp533:
	.loc	6 118 36
	movq	%rcx, -416(%rbp)
	.loc	6 118 14 is_stmt 0
	movq	-416(%rbp), %rcx
	movq	%rcx, -424(%rbp)
	movq	-424(%rbp), %rcx
Ltmp534:
	.loc	34 306 25 is_stmt 1
	movq	%rcx, 16(%rax)
	.loc	34 307 32
	movb	$1, -485(%rbp)
Ltmp535:
LBB38_12:
	.loc	25 1 1
	jmp	LBB38_13
Ltmp536:
LBB38_13:
	.loc	34 360 6
	movb	-485(%rbp), %al
	andb	$1, %al
	movzbl	%al, %eax
	addq	$528, %rsp
	popq	%rbp
	retq
LBB38_14:
Ltmp537:
	.loc	34 297 13
	jmp	LBB38_7
LBB38_15:
Ltmp538:
	.loc	34 316 21
	movq	-464(%rbp), %rax
	orq	$1, %rax
	movq	%rax, -464(%rbp)
	.loc	34 315 17
	jmp	LBB38_14
Ltmp539:
LBB38_16:
	.loc	34 323 17
	leaq	-484(%rbp), %rdi
	callq	__ZN3std4sync4mpmc5utils7Backoff10spin_heavy17haca4868445df5df8E
	movq	-496(%rbp), %rdi
	.loc	34 324 24
	callq	__ZN88_$LT$std..sync..mpmc..utils..CachePadded$LT$T$GT$$u20$as$u20$core..ops..deref..Deref$GT$5deref17h7a08992fb3550e86E
	movq	%rax, %rdi
	movq	%rdi, -32(%rbp)
Ltmp540:
	.loc	19 2127 38
	movq	%rdi, -24(%rbp)
	.loc	19 2127 26 is_stmt 0
	movl	$2, %esi
	callq	__ZN4core4sync6atomic11atomic_load17h02119c845b0293e5E
	movq	-496(%rbp), %rdi
Ltmp541:
	.loc	34 324 17 is_stmt 1
	movq	%rax, -480(%rbp)
	.loc	34 325 25
	callq	__ZN88_$LT$std..sync..mpmc..utils..CachePadded$LT$T$GT$$u20$as$u20$core..ops..deref..Deref$GT$5deref17h7a08992fb3550e86E
	movq	%rax, %rdi
	addq	$8, %rdi
	movq	%rdi, -16(%rbp)
Ltmp542:
	.loc	19 1191 30
	movq	%rdi, -8(%rbp)
	.loc	19 1191 18 is_stmt 0
	movl	$2, %esi
	callq	__ZN4core4sync6atomic11atomic_load17h150fa61814838578E
Ltmp543:
	.loc	34 325 17 is_stmt 1
	movq	%rax, -472(%rbp)
Ltmp544:
	.loc	25 1 1
	jmp	LBB38_4
LBB38_17:
	.loc	25 0 1 is_stmt 0
	movq	-496(%rbp), %rdi
Ltmp545:
	.loc	34 330 19 is_stmt 1
	callq	__ZN88_$LT$std..sync..mpmc..utils..CachePadded$LT$T$GT$$u20$as$u20$core..ops..deref..Deref$GT$5deref17h7a08992fb3550e86E
	movq	%rax, %rdi
	movq	%rdi, -216(%rbp)
	.loc	34 331 17
	movq	-480(%rbp), %rsi
	movq	%rsi, -208(%rbp)
	.loc	34 332 17
	movq	-464(%rbp), %rdx
	movq	%rdx, -200(%rbp)
Ltmp546:
	.loc	19 2348 50
	movq	%rdi, -192(%rbp)
	movl	$4, %ecx
	movl	$2, %r8d
	.loc	19 2348 21 is_stmt 0
	callq	__ZN4core4sync6atomic28atomic_compare_exchange_weak17hc4df1c161841f008E
	movq	%rdx, -440(%rbp)
	movq	%rax, -448(%rbp)
Ltmp547:
	.loc	34 330 13 is_stmt 1
	cmpq	$0, -448(%rbp)
	jne	LBB38_19
	.loc	34 0 13 is_stmt 0
	movq	-512(%rbp), %rax
	.loc	34 338 24 is_stmt 1
	addq	$1, %rax
	cmpq	$31, %rax
	je	LBB38_21
	jmp	LBB38_20
LBB38_19:
	.loc	34 354 21
	leaq	-484(%rbp), %rdi
	callq	__ZN3std4sync4mpmc5utils7Backoff10spin_light17hc134e1460d48d480E
	movq	-496(%rbp), %rdi
	.loc	34 355 28
	callq	__ZN88_$LT$std..sync..mpmc..utils..CachePadded$LT$T$GT$$u20$as$u20$core..ops..deref..Deref$GT$5deref17h7a08992fb3550e86E
	movq	%rax, %rdi
	movq	%rdi, -184(%rbp)
Ltmp548:
	.loc	19 2127 38
	movq	%rdi, -176(%rbp)
	.loc	19 2127 26 is_stmt 0
	movl	$2, %esi
	callq	__ZN4core4sync6atomic11atomic_load17h02119c845b0293e5E
	movq	-496(%rbp), %rdi
Ltmp549:
	.loc	34 355 21 is_stmt 1
	movq	%rax, -480(%rbp)
	.loc	34 356 29
	callq	__ZN88_$LT$std..sync..mpmc..utils..CachePadded$LT$T$GT$$u20$as$u20$core..ops..deref..Deref$GT$5deref17h7a08992fb3550e86E
	movq	%rax, %rdi
	addq	$8, %rdi
	movq	%rdi, -168(%rbp)
Ltmp550:
	.loc	19 1191 30
	movq	%rdi, -160(%rbp)
	.loc	19 1191 18 is_stmt 0
	movl	$2, %esi
	callq	__ZN4core4sync6atomic11atomic_load17h150fa61814838578E
Ltmp551:
	.loc	34 356 21 is_stmt 1
	movq	%rax, -472(%rbp)
Ltmp552:
	.loc	34 283 9
	jmp	LBB38_1
LBB38_20:
	.loc	34 0 9 is_stmt 0
	movq	-504(%rbp), %rax
	movq	-512(%rbp), %rcx
Ltmp553:
	.loc	34 349 40 is_stmt 1
	movq	-472(%rbp), %rdx
	.loc	34 349 21 is_stmt 0
	movq	%rdx, 16(%rax)
	.loc	34 350 21 is_stmt 1
	movq	%rcx, 24(%rax)
	.loc	34 351 28
	movb	$1, -485(%rbp)
Ltmp554:
	.loc	25 1 1
	jmp	LBB38_13
LBB38_21:
Ltmp555:
	.loc	34 339 36
	movq	-472(%rbp), %rdi
	callq	__ZN3std4sync4mpmc4list14Block$LT$T$GT$9wait_next17h9536e6c2aa4f571fE
	movq	%rax, %rdi
	movq	%rdi, -528(%rbp)
	movq	%rdi, -152(%rbp)
Ltmp556:
	.loc	34 340 47
	movq	-464(%rbp), %rax
	.loc	34 340 46 is_stmt 0
	andq	$-2, %rax
	movq	%rax, -144(%rbp)
Ltmp557:
	.file	38 "/rustc/2c8cc343237b8f7d5a3c3703e3a87f2eb2c54a74/library/core/src/num" "uint_macros.rs"
	.loc	38 1162 13 is_stmt 1
	addq	$2, %rax
	movq	%rax, -432(%rbp)
Ltmp558:
	.loc	34 341 29
	movq	%rdi, -136(%rbp)
Ltmp559:
	.loc	19 1191 30
	movq	%rdi, -128(%rbp)
	.loc	19 1191 18 is_stmt 0
	xorl	%esi, %esi
	callq	__ZN4core4sync6atomic11atomic_load17h150fa61814838578E
	movq	%rax, -120(%rbp)
Ltmp560:
	.loc	7 52 36 is_stmt 1
	movq	%rax, -400(%rbp)
	.loc	7 52 18 is_stmt 0
	movq	-400(%rbp), %rax
	movq	%rax, -112(%rbp)
Ltmp561:
	.loc	7 38 13 is_stmt 1
	movq	%rax, -104(%rbp)
Ltmp562:
	.loc	7 215 33
	movq	%rax, -96(%rbp)
	.loc	7 215 18 is_stmt 0
	movq	%rax, -88(%rbp)
Ltmp563:
	.loc	7 38 13 is_stmt 1
	cmpq	$0, -88(%rbp)
	sete	%al
Ltmp564:
	.loc	34 341 28
	xorb	$-1, %al
	testb	$1, %al
	jne	LBB38_23
LBB38_22:
	.loc	34 0 28 is_stmt 0
	movq	-496(%rbp), %rdi
	.loc	34 345 25 is_stmt 1
	callq	__ZN88_$LT$std..sync..mpmc..utils..CachePadded$LT$T$GT$$u20$as$u20$core..ops..deref..Deref$GT$5deref17h7a08992fb3550e86E
	movq	-528(%rbp), %rsi
	movq	%rax, %rdi
	addq	$8, %rdi
	movq	%rdi, -80(%rbp)
	.loc	34 345 47 is_stmt 0
	movq	%rsi, -72(%rbp)
Ltmp565:
	.loc	19 1221 26 is_stmt 1
	movq	%rdi, -64(%rbp)
	.loc	19 1221 13 is_stmt 0
	movl	$1, %edx
	callq	__ZN4core4sync6atomic12atomic_store17h8a03d05563aa3d8fE
	movq	-496(%rbp), %rdi
Ltmp566:
	.loc	34 346 25 is_stmt 1
	callq	__ZN88_$LT$std..sync..mpmc..utils..CachePadded$LT$T$GT$$u20$as$u20$core..ops..deref..Deref$GT$5deref17h7a08992fb3550e86E
	movq	%rax, %rdi
	movq	%rdi, -56(%rbp)
	.loc	34 346 47 is_stmt 0
	movq	-432(%rbp), %rsi
	movq	%rsi, -48(%rbp)
Ltmp567:
	.loc	19 2154 39 is_stmt 1
	movq	%rdi, -40(%rbp)
	.loc	19 2154 26 is_stmt 0
	movl	$1, %edx
	callq	__ZN4core4sync6atomic12atomic_store17h47641797d0f7f2b6E
Ltmp568:
	.loc	34 338 21 is_stmt 1
	jmp	LBB38_20
LBB38_23:
Ltmp569:
	.loc	34 342 29
	movq	-432(%rbp), %rax
	orq	$1, %rax
	movq	%rax, -432(%rbp)
	.loc	34 341 25
	jmp	LBB38_22
Ltmp570:
Lfunc_end38:
	.cfi_endproc

	.globl	__ZN3std4sync4mpmc4list16Channel$LT$T$GT$15is_disconnected17ha37e446c876343d9E
	.p2align	4, 0x90
__ZN3std4sync4mpmc4list16Channel$LT$T$GT$15is_disconnected17ha37e446c876343d9E:
Lfunc_begin39:
	.loc	34 585 0
	.cfi_startproc
	pushq	%rbp
	.cfi_def_cfa_offset 16
	.cfi_offset %rbp, -16
	movq	%rsp, %rbp
	.cfi_def_cfa_register %rbp
	subq	$32, %rsp
	movq	%rdi, -24(%rbp)
Ltmp571:
	.loc	34 586 9 prologue_end
	addq	$128, %rdi
	callq	__ZN88_$LT$std..sync..mpmc..utils..CachePadded$LT$T$GT$$u20$as$u20$core..ops..deref..Deref$GT$5deref17h7a08992fb3550e86E
	movq	%rax, %rdi
	movq	%rdi, -16(%rbp)
Ltmp572:
	.loc	19 2127 38
	movq	%rdi, -8(%rbp)
	.loc	19 2127 26 is_stmt 0
	movl	$4, %esi
	callq	__ZN4core4sync6atomic11atomic_load17h02119c845b0293e5E
Ltmp573:
	.loc	34 586 9 is_stmt 1
	andq	$1, %rax
	cmpq	$0, %rax
	setne	%al
	.loc	34 587 6
	andb	$1, %al
	movzbl	%al, %eax
	addq	$32, %rsp
	popq	%rbp
	retq
Ltmp574:
Lfunc_end39:
	.cfi_endproc

	.globl	__ZN3std4sync4mpmc4list16Channel$LT$T$GT$18disconnect_senders17h039383c9e55e75fdE
	.p2align	4, 0x90
__ZN3std4sync4mpmc4list16Channel$LT$T$GT$18disconnect_senders17h039383c9e55e75fdE:
Lfunc_begin40:
	.loc	34 503 0
	.cfi_startproc
	pushq	%rbp
	.cfi_def_cfa_offset 16
	.cfi_offset %rbp, -16
	movq	%rsp, %rbp
	.cfi_def_cfa_register %rbp
	subq	$48, %rsp
	movq	%rdi, -48(%rbp)
	movq	%rdi, -32(%rbp)
Ltmp575:
	.loc	34 504 20 prologue_end
	addq	$128, %rdi
	callq	__ZN88_$LT$std..sync..mpmc..utils..CachePadded$LT$T$GT$$u20$as$u20$core..ops..deref..Deref$GT$5deref17h7a08992fb3550e86E
	movq	%rax, %rdi
	movq	%rdi, -24(%rbp)
Ltmp576:
	.loc	19 2508 36
	movq	%rdi, -16(%rbp)
	.loc	19 2508 26 is_stmt 0
	movl	$1, %esi
	movl	$4, %edx
	callq	__ZN4core4sync6atomic9atomic_or17h5b7eb60a134696a2E
	movq	%rax, -8(%rbp)
Ltmp577:
	.loc	34 506 12 is_stmt 1
	andq	$1, %rax
	cmpq	$0, %rax
	jne	LBB40_2
	.loc	34 0 12 is_stmt 0
	movq	-48(%rbp), %rdi
	.loc	34 507 13 is_stmt 1
	addq	$256, %rdi
	callq	__ZN3std4sync4mpmc5waker9SyncWaker10disconnect17h379a45e66e0cdc47E
	.loc	34 508 13
	movb	$1, -33(%rbp)
	.loc	34 506 9
	jmp	LBB40_3
LBB40_2:
	.loc	34 510 13
	movb	$0, -33(%rbp)
Ltmp578:
LBB40_3:
	.loc	34 512 6
	movb	-33(%rbp), %al
	andb	$1, %al
	movzbl	%al, %eax
	addq	$48, %rsp
	popq	%rbp
	retq
Ltmp579:
Lfunc_end40:
	.cfi_endproc

	.globl	__ZN3std4sync4mpmc4list16Channel$LT$T$GT$20discard_all_messages17h5ae1e2ae8c72a212E
	.p2align	4, 0x90
__ZN3std4sync4mpmc4list16Channel$LT$T$GT$20discard_all_messages17h5ae1e2ae8c72a212E:
Lfunc_begin41:
	.loc	34 533 0
	.cfi_startproc
	pushq	%rbp
	.cfi_def_cfa_offset 16
	.cfi_offset %rbp, -16
	movq	%rsp, %rbp
	.cfi_def_cfa_register %rbp
	subq	$592, %rsp
	movq	%rdi, -568(%rbp)
	movq	%rdi, -456(%rbp)
Ltmp580:
	.loc	34 534 23 prologue_end
	callq	__ZN3std4sync4mpmc5utils7Backoff3new17he8f9e4a8703c1ea7E
	movq	-568(%rbp), %rdi
	movl	%eax, -556(%rbp)
Ltmp581:
	.loc	34 535 24
	addq	$128, %rdi
	callq	__ZN88_$LT$std..sync..mpmc..utils..CachePadded$LT$T$GT$$u20$as$u20$core..ops..deref..Deref$GT$5deref17h7a08992fb3550e86E
	movq	%rax, %rdi
	movq	%rdi, -424(%rbp)
Ltmp582:
	.loc	19 2127 38
	movq	%rdi, -416(%rbp)
	.loc	19 2127 26 is_stmt 0
	movl	$2, %esi
	callq	__ZN4core4sync6atomic11atomic_load17h02119c845b0293e5E
	movq	%rax, -552(%rbp)
Ltmp583:
LBB41_1:
	.loc	34 537 27 is_stmt 1
	movq	-552(%rbp), %rax
	.loc	34 537 26 is_stmt 0
	shrq	$1, %rax
	andq	$31, %rax
	movq	%rax, -408(%rbp)
Ltmp584:
	.loc	34 538 16 is_stmt 1
	cmpq	$31, %rax
	jne	LBB41_3
	.loc	34 545 13
	leaq	-556(%rbp), %rdi
	callq	__ZN3std4sync4mpmc5utils7Backoff10spin_heavy17haca4868445df5df8E
	movq	-568(%rbp), %rdi
	.loc	34 546 20
	addq	$128, %rdi
	callq	__ZN88_$LT$std..sync..mpmc..utils..CachePadded$LT$T$GT$$u20$as$u20$core..ops..deref..Deref$GT$5deref17h7a08992fb3550e86E
	movq	%rax, %rdi
	movq	%rdi, -16(%rbp)
Ltmp585:
	.loc	19 2127 38
	movq	%rdi, -8(%rbp)
	.loc	19 2127 26 is_stmt 0
	movl	$2, %esi
	callq	__ZN4core4sync6atomic11atomic_load17h02119c845b0293e5E
Ltmp586:
	.loc	34 546 13 is_stmt 1
	movq	%rax, -552(%rbp)
Ltmp587:
	.loc	34 536 9
	jmp	LBB41_1
LBB41_3:
	.loc	34 0 9 is_stmt 0
	movq	-568(%rbp), %rdi
	.loc	34 549 24 is_stmt 1
	callq	__ZN88_$LT$std..sync..mpmc..utils..CachePadded$LT$T$GT$$u20$as$u20$core..ops..deref..Deref$GT$5deref17h7a08992fb3550e86E
	movq	%rax, %rdi
	movq	%rdi, -400(%rbp)
Ltmp588:
	.loc	19 2127 38
	movq	%rdi, -392(%rbp)
	.loc	19 2127 26 is_stmt 0
	movl	$2, %esi
	callq	__ZN4core4sync6atomic11atomic_load17h02119c845b0293e5E
	movq	-568(%rbp), %rdi
	movq	%rax, -544(%rbp)
Ltmp589:
	.loc	34 550 25 is_stmt 1
	callq	__ZN88_$LT$std..sync..mpmc..utils..CachePadded$LT$T$GT$$u20$as$u20$core..ops..deref..Deref$GT$5deref17h7a08992fb3550e86E
	movq	%rax, %rdi
	addq	$8, %rdi
	movq	%rdi, -384(%rbp)
Ltmp590:
	.loc	19 1191 30
	movq	%rdi, -376(%rbp)
	.loc	19 1191 18 is_stmt 0
	movl	$2, %esi
	callq	__ZN4core4sync6atomic11atomic_load17h150fa61814838578E
	movq	%rax, -536(%rbp)
Ltmp591:
LBB41_4:
	.loc	34 554 19 is_stmt 1
	movq	-544(%rbp), %rax
	shrq	$1, %rax
	.loc	34 554 36 is_stmt 0
	movq	-552(%rbp), %rcx
	shrq	$1, %rcx
	.loc	34 554 19
	cmpq	%rcx, %rax
	jne	LBB41_6
	.loc	34 575 17 is_stmt 1
	movq	-536(%rbp), %rax
	movq	%rax, -152(%rbp)
Ltmp592:
	.loc	7 52 36
	movq	%rax, -496(%rbp)
	.loc	7 52 18 is_stmt 0
	movq	-496(%rbp), %rax
	movq	%rax, -144(%rbp)
Ltmp593:
	.loc	7 38 13 is_stmt 1
	movq	%rax, -136(%rbp)
Ltmp594:
	.loc	7 215 33
	movq	%rax, -128(%rbp)
	.loc	7 215 18 is_stmt 0
	movq	%rax, -120(%rbp)
Ltmp595:
	.loc	7 38 13 is_stmt 1
	cmpq	$0, -120(%rbp)
	sete	%al
Ltmp596:
	.loc	34 575 16
	xorb	$-1, %al
	testb	$1, %al
	jne	LBB41_11
	jmp	LBB41_10
LBB41_6:
	.loc	34 555 31
	movq	-544(%rbp), %rax
	.loc	34 555 30 is_stmt 0
	shrq	$1, %rax
	andq	$31, %rax
	movq	%rax, -576(%rbp)
	movq	%rax, -368(%rbp)
Ltmp597:
	.loc	34 557 20 is_stmt 1
	cmpq	$31, %rax
	jb	LBB41_8
	.loc	34 564 21
	movq	-536(%rbp), %rdi
	callq	__ZN3std4sync4mpmc4list14Block$LT$T$GT$9wait_next17h9536e6c2aa4f571fE
	.loc	34 566 32
	movq	-536(%rbp), %rdi
	movq	%rdi, -216(%rbp)
Ltmp598:
	.loc	19 1191 30
	movq	%rdi, -208(%rbp)
	.loc	19 1191 18 is_stmt 0
	movl	$2, %esi
	callq	__ZN4core4sync6atomic11atomic_load17h150fa61814838578E
	movq	%rax, -584(%rbp)
	movq	%rax, -200(%rbp)
Ltmp599:
	.loc	34 567 40 is_stmt 1
	movq	-536(%rbp), %rax
	movq	%rax, -192(%rbp)
Ltmp600:
	.loc	18 958 36
	movq	%rax, -184(%rbp)
Ltmp601:
	.loc	18 1014 44
	movq	%rax, -176(%rbp)
Ltmp602:
	.loc	11 87 59
	movq	%rax, -168(%rbp)
Ltmp603:
	.loc	10 201 13
	movq	%rax, -504(%rbp)
Ltmp604:
	.loc	11 87 18
	movq	-504(%rbp), %rax
	movq	%rax, -512(%rbp)
Ltmp605:
	.loc	18 1014 9
	movq	-512(%rbp), %rax
	movq	%rax, -528(%rbp)
Ltmp606:
	.loc	37 980 24
	leaq	-528(%rbp), %rdi
	callq	__ZN4core3ptr155drop_in_place$LT$alloc..boxed..Box$LT$std..sync..mpmc..list..Block$LT$alloc..boxed..Box$LT$dyn$u20$threadpool..FnBox$u2b$core..marker..Send$GT$$GT$$GT$$GT$17h4b41210a361a9a8aE
	movq	-584(%rbp), %rax
Ltmp607:
	.loc	34 568 21
	movq	%rax, -536(%rbp)
Ltmp608:
	.loc	34 557 17
	jmp	LBB41_9
LBB41_8:
	.loc	34 0 17 is_stmt 0
	movq	-576(%rbp), %rcx
	.loc	34 559 32 is_stmt 1
	movq	-536(%rbp), %rax
	addq	$8, %rax
	movq	%rax, -360(%rbp)
	movq	$31, -352(%rbp)
	.loc	34 559 61 is_stmt 0
	movq	%rcx, -344(%rbp)
Ltmp609:
	.loc	23 405 20 is_stmt 1
	movq	%rcx, -336(%rbp)
	.loc	23 405 40 is_stmt 0
	movq	%rax, -328(%rbp)
	movq	$31, -320(%rbp)
Ltmp610:
	.loc	3 240 13 is_stmt 1
	movq	%rax, -312(%rbp)
	movq	$31, -304(%rbp)
Ltmp611:
	.loc	4 1650 9
	movq	%rax, -296(%rbp)
Ltmp612:
	.loc	3 240 32
	movq	%rcx, -288(%rbp)
Ltmp613:
	.loc	4 932 18
	movq	%rax, -280(%rbp)
	.loc	4 932 30 is_stmt 0
	movq	%rcx, -272(%rbp)
Ltmp614:
	.loc	4 473 18 is_stmt 1
	imulq	$24, %rcx, %rcx
	addq	%rcx, %rax
	movq	%rax, -264(%rbp)
	movq	-264(%rbp), %rdi
	movq	%rdi, -592(%rbp)
Ltmp615:
	.loc	23 405 18
	movq	%rdi, -256(%rbp)
Ltmp616:
	.loc	34 560 21
	callq	__ZN3std4sync4mpmc4list13Slot$LT$T$GT$10wait_write17h5ab3f13e4bb61e85E
	movq	-592(%rbp), %rdi
	.loc	34 561 35
	movq	%rdi, -248(%rbp)
	.loc	34 561 29 is_stmt 0
	movq	%rdi, -240(%rbp)
Ltmp617:
	.loc	34 562 21 is_stmt 1
	movq	%rdi, -232(%rbp)
Ltmp618:
	.file	39 "/rustc/2c8cc343237b8f7d5a3c3703e3a87f2eb2c54a74/library/core/src/mem" "maybe_uninit.rs"
	.loc	39 569 9
	movq	%rdi, -224(%rbp)
Ltmp619:
	.loc	7 1451 18
	callq	__ZN4core3ptr94drop_in_place$LT$alloc..boxed..Box$LT$dyn$u20$threadpool..FnBox$u2b$core..marker..Send$GT$$GT$17h34fee65df116ba20E
Ltmp620:
LBB41_9:
	.loc	34 571 24
	movq	-544(%rbp), %rax
	movq	%rax, -160(%rbp)
Ltmp621:
	.loc	38 1162 13
	addq	$2, %rax
Ltmp622:
	.loc	34 571 17
	movq	%rax, -544(%rbp)
Ltmp623:
	.loc	34 554 13
	jmp	LBB41_4
LBB41_10:
	.loc	34 0 13 is_stmt 0
	movq	-568(%rbp), %rdi
	.loc	34 579 9 is_stmt 1
	movq	-544(%rbp), %rax
	andq	$-2, %rax
	movq	%rax, -544(%rbp)
	.loc	34 580 9
	callq	__ZN88_$LT$std..sync..mpmc..utils..CachePadded$LT$T$GT$$u20$as$u20$core..ops..deref..Deref$GT$5deref17h7a08992fb3550e86E
	movq	%rax, %rdi
	addq	$8, %rdi
	movq	%rdi, -80(%rbp)
Ltmp624:
	.loc	5 599 14
	movq	$0, -72(%rbp)
	movq	-72(%rbp), %rax
	movq	%rax, -64(%rbp)
Ltmp625:
	.loc	6 135 36
	movq	%rax, -464(%rbp)
	.loc	6 135 14 is_stmt 0
	movq	-464(%rbp), %rax
	movq	%rax, -472(%rbp)
	movq	-472(%rbp), %rsi
	movq	%rsi, -56(%rbp)
Ltmp626:
	.loc	19 1221 26 is_stmt 1
	movq	%rdi, -48(%rbp)
	.loc	19 1221 13 is_stmt 0
	movl	$1, %edx
	callq	__ZN4core4sync6atomic12atomic_store17h8a03d05563aa3d8fE
	movq	-568(%rbp), %rdi
Ltmp627:
	.loc	34 581 9 is_stmt 1
	callq	__ZN88_$LT$std..sync..mpmc..utils..CachePadded$LT$T$GT$$u20$as$u20$core..ops..deref..Deref$GT$5deref17h7a08992fb3550e86E
	movq	%rax, %rdi
	movq	%rdi, -40(%rbp)
	.loc	34 581 31 is_stmt 0
	movq	-544(%rbp), %rsi
	movq	%rsi, -32(%rbp)
Ltmp628:
	.loc	19 2154 39 is_stmt 1
	movq	%rdi, -24(%rbp)
	.loc	19 2154 26 is_stmt 0
	movl	$1, %edx
	callq	__ZN4core4sync6atomic12atomic_store17h47641797d0f7f2b6E
Ltmp629:
	.loc	34 582 6 is_stmt 1
	addq	$592, %rsp
	popq	%rbp
	retq
LBB41_11:
Ltmp630:
	.loc	34 576 36
	movq	-536(%rbp), %rax
	movq	%rax, -112(%rbp)
Ltmp631:
	.loc	18 958 36
	movq	%rax, -104(%rbp)
Ltmp632:
	.loc	18 1014 44
	movq	%rax, -96(%rbp)
Ltmp633:
	.loc	11 87 59
	movq	%rax, -88(%rbp)
Ltmp634:
	.loc	10 201 13
	movq	%rax, -480(%rbp)
Ltmp635:
	.loc	11 87 18
	movq	-480(%rbp), %rax
	movq	%rax, -488(%rbp)
Ltmp636:
	.loc	18 1014 9
	movq	-488(%rbp), %rax
	movq	%rax, -520(%rbp)
Ltmp637:
	.loc	37 980 24
	leaq	-520(%rbp), %rdi
	callq	__ZN4core3ptr155drop_in_place$LT$alloc..boxed..Box$LT$std..sync..mpmc..list..Block$LT$alloc..boxed..Box$LT$dyn$u20$threadpool..FnBox$u2b$core..marker..Send$GT$$GT$$GT$$GT$17h4b41210a361a9a8aE
Ltmp638:
	.loc	34 575 13
	jmp	LBB41_10
Ltmp639:
Lfunc_end41:
	.cfi_endproc

	.globl	__ZN3std4sync4mpmc4list16Channel$LT$T$GT$20disconnect_receivers17hfbb5fbdd997311e0E
	.p2align	4, 0x90
__ZN3std4sync4mpmc4list16Channel$LT$T$GT$20disconnect_receivers17hfbb5fbdd997311e0E:
Lfunc_begin42:
	.loc	34 517 0
	.cfi_startproc
	pushq	%rbp
	.cfi_def_cfa_offset 16
	.cfi_offset %rbp, -16
	movq	%rsp, %rbp
	.cfi_def_cfa_register %rbp
	subq	$48, %rsp
	movq	%rdi, -48(%rbp)
	movq	%rdi, -32(%rbp)
Ltmp640:
	.loc	34 518 20 prologue_end
	addq	$128, %rdi
	callq	__ZN88_$LT$std..sync..mpmc..utils..CachePadded$LT$T$GT$$u20$as$u20$core..ops..deref..Deref$GT$5deref17h7a08992fb3550e86E
	movq	%rax, %rdi
	movq	%rdi, -24(%rbp)
Ltmp641:
	.loc	19 2508 36
	movq	%rdi, -16(%rbp)
	.loc	19 2508 26 is_stmt 0
	movl	$1, %esi
	movl	$4, %edx
	callq	__ZN4core4sync6atomic9atomic_or17h5b7eb60a134696a2E
	movq	%rax, -8(%rbp)
Ltmp642:
	.loc	34 520 12 is_stmt 1
	andq	$1, %rax
	cmpq	$0, %rax
	jne	LBB42_2
	.loc	34 0 12 is_stmt 0
	movq	-48(%rbp), %rdi
	.loc	34 523 13 is_stmt 1
	callq	__ZN3std4sync4mpmc4list16Channel$LT$T$GT$20discard_all_messages17h5ae1e2ae8c72a212E
	.loc	34 524 13
	movb	$1, -33(%rbp)
	.loc	34 520 9
	jmp	LBB42_3
LBB42_2:
	.loc	34 526 13
	movb	$0, -33(%rbp)
Ltmp643:
LBB42_3:
	.loc	34 528 6
	movb	-33(%rbp), %al
	andb	$1, %al
	movzbl	%al, %eax
	addq	$48, %rsp
	popq	%rbp
	retq
Ltmp644:
Lfunc_end42:
	.cfi_endproc

	.globl	__ZN3std4sync4mpmc4list16Channel$LT$T$GT$3new17h923429b197034c73E
	.p2align	4, 0x90
__ZN3std4sync4mpmc4list16Channel$LT$T$GT$3new17h923429b197034c73E:
Lfunc_begin43:
	.loc	34 160 0
	.cfi_startproc
	pushq	%rbp
	.cfi_def_cfa_offset 16
	.cfi_offset %rbp, -16
	movq	%rsp, %rbp
	.cfi_def_cfa_register %rbp
	andq	$-128, %rsp
	subq	$1024, %rsp
	movq	%rdi, 112(%rsp)
	movq	%rdi, 120(%rsp)
Ltmp645:
	.loc	5 599 14 prologue_end
	movq	$0, 944(%rsp)
	movq	944(%rsp), %rax
	movq	%rax, 952(%rsp)
Ltmp646:
	.loc	6 135 36
	movq	%rax, 720(%rsp)
	.loc	6 135 14 is_stmt 0
	movq	720(%rsp), %rax
	movq	%rax, 712(%rsp)
	movq	712(%rsp), %rax
	movq	%rax, 960(%rsp)
Ltmp647:
	.loc	19 1017 40 is_stmt 1
	movq	%rax, 968(%rsp)
Ltmp648:
	.loc	32 1953 9
	movq	%rax, 728(%rsp)
Ltmp649:
	.loc	19 1017 9
	movq	728(%rsp), %rax
	movq	%rax, 368(%rsp)
Ltmp650:
	.loc	19 1957 17
	movq	$0, 376(%rsp)
Ltmp651:
	.loc	34 162 36
	movq	376(%rsp), %rax
	movq	%rax, 352(%rsp)
	movq	368(%rsp), %rax
	movq	%rax, 360(%rsp)
	.loc	34 162 19 is_stmt 0
	leaq	128(%rsp), %rdi
	leaq	352(%rsp), %rsi
	callq	__ZN3std4sync4mpmc5utils20CachePadded$LT$T$GT$3new17h85d16bd913eeeb7aE
Ltmp652:
	.loc	5 599 14 is_stmt 1
	movq	$0, 976(%rsp)
	movq	976(%rsp), %rax
	movq	%rax, 984(%rsp)
Ltmp653:
	.loc	6 135 36
	movq	%rax, 744(%rsp)
	.loc	6 135 14 is_stmt 0
	movq	744(%rsp), %rax
	movq	%rax, 736(%rsp)
	movq	736(%rsp), %rax
	movq	%rax, 992(%rsp)
Ltmp654:
	.loc	19 1017 40 is_stmt 1
	movq	%rax, 1000(%rsp)
Ltmp655:
	.loc	32 1953 9
	movq	%rax, 752(%rsp)
Ltmp656:
	.loc	19 1017 9
	movq	752(%rsp), %rax
	movq	%rax, 624(%rsp)
Ltmp657:
	.loc	19 1957 17
	movq	$0, 632(%rsp)
Ltmp658:
	.loc	34 166 36
	movq	632(%rsp), %rax
	movq	%rax, 608(%rsp)
	movq	624(%rsp), %rax
	movq	%rax, 616(%rsp)
	.loc	34 166 19 is_stmt 0
	leaq	384(%rsp), %rdi
	leaq	608(%rsp), %rsi
	callq	__ZN3std4sync4mpmc5utils20CachePadded$LT$T$GT$3new17h85d16bd913eeeb7aE
Ltmp659:
	.loc	14 425 20 is_stmt 1
	movq	L___unnamed_24(%rip), %rcx
	movq	L___unnamed_24+8(%rip), %rax
	.loc	14 425 9 is_stmt 0
	movq	%rcx, 880(%rsp)
	movq	%rax, 888(%rsp)
	movq	$0, 896(%rsp)
Ltmp660:
	.loc	14 425 20
	movq	L___unnamed_24(%rip), %rcx
	movq	L___unnamed_24+8(%rip), %rax
	.loc	14 425 9
	movq	%rcx, 904(%rsp)
	movq	%rax, 912(%rsp)
	movq	$0, 920(%rsp)
Ltmp661:
	.file	40 "/rustc/2c8cc343237b8f7d5a3c3703e3a87f2eb2c54a74/library/std/src/sync/mpmc" "waker.rs"
	.loc	40 38 9 is_stmt 1
	movq	880(%rsp), %rax
	movq	%rax, 824(%rsp)
	movq	888(%rsp), %rax
	movq	%rax, 832(%rsp)
	movq	896(%rsp), %rax
	movq	%rax, 840(%rsp)
	movq	904(%rsp), %rax
	movq	%rax, 848(%rsp)
	movq	912(%rsp), %rax
	movq	%rax, 856(%rsp)
	movq	920(%rsp), %rax
	movq	%rax, 864(%rsp)
Ltmp662:
	.loc	40 142 28
	leaq	760(%rsp), %rdi
	leaq	824(%rsp), %rsi
	callq	__ZN3std4sync5mutex14Mutex$LT$T$GT$3new17he68fa14dccf269fdE
Ltmp663:
	.loc	19 305 9
	movb	$1, 872(%rsp)
Ltmp664:
	.loc	40 142 9
	leaq	640(%rsp), %rdi
	leaq	760(%rsp), %rsi
	movl	$64, %edx
	callq	_memcpy
	movq	112(%rsp), %rdi
	movb	872(%rsp), %al
	movb	%al, 704(%rsp)
Ltmp665:
	.loc	34 161 9
	leaq	128(%rsp), %rsi
	movl	$128, %edx
	callq	_memcpy
	movq	112(%rsp), %rdi
	addq	$128, %rdi
	leaq	384(%rsp), %rsi
	movl	$128, %edx
	callq	_memcpy
	movq	112(%rsp), %rdi
	addq	$256, %rdi
	leaq	640(%rsp), %rsi
	movl	$72, %edx
	callq	_memcpy
	movq	120(%rsp), %rax
	.loc	34 173 6
	movq	%rbp, %rsp
	popq	%rbp
	retq
Ltmp666:
Lfunc_end43:
	.cfi_endproc

	.globl	__ZN3std4sync4mpmc4list16Channel$LT$T$GT$4read17h3062eeda23829407E
	.p2align	4, 0x90
__ZN3std4sync4mpmc4list16Channel$LT$T$GT$4read17h3062eeda23829407E:
Lfunc_begin44:
	.loc	34 363 0
	.cfi_startproc
	.cfi_personality 155, _rust_eh_personality
	.cfi_lsda 16, Lexception6
	pushq	%rbp
	.cfi_def_cfa_offset 16
	.cfi_offset %rbp, -16
	movq	%rsp, %rbp
	.cfi_def_cfa_register %rbp
	subq	$416, %rsp
	movq	%rsi, -376(%rbp)
	movq	%rdi, -312(%rbp)
	movq	%rsi, -304(%rbp)
Ltmp677:
	.loc	34 364 12 prologue_end
	movq	16(%rsi), %rax
	movq	%rax, -296(%rbp)
Ltmp678:
	.loc	4 53 36
	movq	%rax, -336(%rbp)
	.loc	4 53 18 is_stmt 0
	movq	-336(%rbp), %rax
	movq	%rax, -288(%rbp)
Ltmp679:
	.loc	4 39 13 is_stmt 1
	movq	%rax, -280(%rbp)
Ltmp680:
	.loc	4 209 33
	movq	%rax, -272(%rbp)
	.loc	4 209 18 is_stmt 0
	movq	%rax, -264(%rbp)
Ltmp681:
	.loc	34 364 12 is_stmt 1
	cmpq	$0, -264(%rbp)
	jne	LBB44_2
	.loc	34 366 20
	movq	$0, -368(%rbp)
	.loc	34 385 6
	jmp	LBB44_15
LBB44_2:
	.loc	34 0 6 is_stmt 0
	movq	-376(%rbp), %rcx
	.loc	34 370 21 is_stmt 1
	movq	16(%rcx), %rax
	movq	%rax, -400(%rbp)
	movq	%rax, -256(%rbp)
Ltmp682:
	.loc	34 371 22
	movq	24(%rcx), %rcx
	movq	%rcx, -384(%rbp)
	movq	%rcx, -248(%rbp)
Ltmp683:
	.loc	34 372 20
	addq	$8, %rax
	movq	%rax, -240(%rbp)
	movq	$31, -232(%rbp)
	.loc	34 372 49 is_stmt 0
	movq	%rcx, -224(%rbp)
Ltmp684:
	.loc	23 405 20 is_stmt 1
	movq	%rcx, -216(%rbp)
	.loc	23 405 40 is_stmt 0
	movq	%rax, -208(%rbp)
	movq	$31, -200(%rbp)
Ltmp685:
	.loc	3 240 13 is_stmt 1
	movq	%rax, -192(%rbp)
	movq	$31, -184(%rbp)
Ltmp686:
	.loc	4 1650 9
	movq	%rax, -176(%rbp)
Ltmp687:
	.loc	3 240 32
	movq	%rcx, -168(%rbp)
Ltmp688:
	.loc	4 932 18
	movq	%rax, -160(%rbp)
	.loc	4 932 30 is_stmt 0
	movq	%rcx, -152(%rbp)
Ltmp689:
	.loc	4 473 18 is_stmt 1
	imulq	$24, %rcx, %rcx
	addq	%rcx, %rax
	movq	%rax, -144(%rbp)
	movq	-144(%rbp), %rdi
	movq	%rdi, -392(%rbp)
Ltmp690:
	.loc	23 405 18
	movq	%rdi, -136(%rbp)
Ltmp691:
	.loc	34 373 9
	callq	__ZN3std4sync4mpmc4list13Slot$LT$T$GT$10wait_write17h5ab3f13e4bb61e85E
	movq	-392(%rbp), %rcx
	movq	-384(%rbp), %rax
	.loc	34 374 19
	movq	%rcx, -128(%rbp)
Ltmp692:
	.loc	32 1999 9
	movq	%rcx, -120(%rbp)
Ltmp693:
	.loc	7 1318 23
	movq	%rcx, -112(%rbp)
Ltmp694:
	.loc	5 1157 34
	leaq	-328(%rbp), %rdx
	movq	%rdx, -104(%rbp)
	.loc	5 1157 9 is_stmt 0
	movq	(%rcx), %rdx
	movq	%rdx, -328(%rbp)
	movq	8(%rcx), %rcx
	movq	%rcx, -320(%rbp)
	.loc	5 1158 9 is_stmt 1
	movq	-328(%rbp), %rdx
	movq	-320(%rbp), %rcx
	movq	%rdx, -96(%rbp)
	movq	%rcx, -88(%rbp)
Ltmp695:
	.loc	39 627 38
	movq	%rdx, -80(%rbp)
	movq	%rcx, -72(%rbp)
Ltmp696:
	.file	41 "/rustc/2c8cc343237b8f7d5a3c3703e3a87f2eb2c54a74/library/core/src/mem" "manually_drop.rs"
	.loc	41 89 9
	movq	%rdx, -64(%rbp)
	movq	%rcx, -56(%rbp)
Ltmp697:
	.loc	39 627 38
	movq	%rdx, -48(%rbp)
	movq	%rcx, -40(%rbp)
Ltmp698:
	.loc	41 89 9
	movq	%rdx, -352(%rbp)
	movq	%rcx, -344(%rbp)
Ltmp699:
	.loc	34 378 12
	addq	$1, %rax
	cmpq	$31, %rax
	je	LBB44_4
	.loc	34 0 12 is_stmt 0
	movq	-392(%rbp), %rdi
	.loc	34 380 19 is_stmt 1
	addq	$16, %rdi
	movq	%rdi, -16(%rbp)
Ltmp700:
	.loc	19 2508 36
	movq	%rdi, -8(%rbp)
Ltmp667:
	movl	$2, %esi
	movl	$3, %edx
	.loc	19 2508 26 is_stmt 0
	callq	__ZN4core4sync6atomic9atomic_or17h5b7eb60a134696a2E
Ltmp668:
	movq	%rax, -408(%rbp)
	jmp	LBB44_9
Ltmp701:
LBB44_4:
Ltmp671:
	.loc	19 0 26
	movq	-400(%rbp), %rdi
	xorl	%eax, %eax
	movl	%eax, %esi
	.loc	34 379 13 is_stmt 1
	callq	__ZN3std4sync4mpmc4list14Block$LT$T$GT$7destroy17h6aeb687def31f723E
Ltmp672:
	jmp	LBB44_7
Ltmp702:
LBB44_5:
Ltmp674:
	.loc	34 0 13 is_stmt 0
	leaq	-352(%rbp), %rdi
	.loc	34 385 5 is_stmt 1
	callq	__ZN4core3ptr94drop_in_place$LT$alloc..boxed..Box$LT$dyn$u20$threadpool..FnBox$u2b$core..marker..Send$GT$$GT$17h34fee65df116ba20E
Ltmp675:
	jmp	LBB44_14
LBB44_6:
Ltmp673:
	.loc	34 0 5 is_stmt 0
	movq	%rax, %rcx
	movl	%edx, %eax
	movq	%rcx, -32(%rbp)
	movl	%eax, -24(%rbp)
	jmp	LBB44_5
LBB44_7:
Ltmp703:
	.loc	34 378 9 is_stmt 1
	jmp	LBB44_8
LBB44_8:
	.loc	34 384 12
	movq	-352(%rbp), %rcx
	movq	-344(%rbp), %rax
	.loc	34 384 9 is_stmt 0
	movq	%rcx, -368(%rbp)
	movq	%rax, -360(%rbp)
Ltmp704:
	.loc	34 385 6 is_stmt 1
	jmp	LBB44_15
LBB44_9:
	.loc	34 0 6 is_stmt 0
	movq	-408(%rbp), %rax
Ltmp705:
	.loc	34 380 19 is_stmt 1
	andq	$4, %rax
	cmpq	$0, %rax
	jne	LBB44_11
	.loc	34 380 16 is_stmt 0
	jmp	LBB44_8
LBB44_11:
	.loc	34 0 16
	movq	-400(%rbp), %rdi
	movq	-384(%rbp), %rsi
	.loc	34 381 35 is_stmt 1
	incq	%rsi
Ltmp669:
	.loc	34 381 13 is_stmt 0
	callq	__ZN3std4sync4mpmc4list14Block$LT$T$GT$7destroy17h6aeb687def31f723E
Ltmp670:
	jmp	LBB44_12
LBB44_12:
	.loc	34 380 16 is_stmt 1
	jmp	LBB44_8
Ltmp706:
LBB44_13:
Ltmp676:
	.loc	34 363 5
	callq	__ZN4core9panicking19panic_cannot_unwind17h1fbca7e1d7f56ae1E
LBB44_14:
	movq	-32(%rbp), %rdi
	callq	__Unwind_Resume
LBB44_15:
	.loc	34 385 6
	movq	-368(%rbp), %rax
	movq	-360(%rbp), %rdx
	addq	$416, %rsp
	popq	%rbp
	retq
Ltmp707:
Lfunc_end44:
	.cfi_endproc
	.section	__TEXT,__gcc_except_tab
	.p2align	2
GCC_except_table44:
Lexception6:
	.byte	255
	.byte	255
	.byte	1
	.uleb128 Lcst_end6-Lcst_begin6
Lcst_begin6:
	.uleb128 Lfunc_begin44-Lfunc_begin44
	.uleb128 Ltmp667-Lfunc_begin44
	.byte	0
	.byte	0
	.uleb128 Ltmp667-Lfunc_begin44
	.uleb128 Ltmp672-Ltmp667
	.uleb128 Ltmp673-Lfunc_begin44
	.byte	0
	.uleb128 Ltmp674-Lfunc_begin44
	.uleb128 Ltmp675-Ltmp674
	.uleb128 Ltmp676-Lfunc_begin44
	.byte	0
	.uleb128 Ltmp669-Lfunc_begin44
	.uleb128 Ltmp670-Ltmp669
	.uleb128 Ltmp673-Lfunc_begin44
	.byte	0
	.uleb128 Ltmp670-Lfunc_begin44
	.uleb128 Lfunc_end44-Ltmp670
	.byte	0
	.byte	0
Lcst_end6:
	.p2align	2

	.section	__TEXT,__text,regular,pure_instructions
	.globl	__ZN3std4sync4mpmc4list16Channel$LT$T$GT$4recv17haa417a53cd8c554eE
	.p2align	4, 0x90
__ZN3std4sync4mpmc4list16Channel$LT$T$GT$4recv17haa417a53cd8c554eE:
Lfunc_begin45:
	.loc	34 418 0
	.cfi_startproc
	pushq	%rbp
	.cfi_def_cfa_offset 16
	.cfi_offset %rbp, -16
	movq	%rsp, %rbp
	.cfi_def_cfa_register %rbp
	subq	$208, %rsp
	movq	%rsi, -208(%rbp)
	movq	%rdi, -200(%rbp)
	movq	%rdi, -192(%rbp)
	movq	%rdx, -184(%rbp)
	movq	%rcx, -176(%rbp)
	movq	%rsi, -64(%rbp)
Ltmp708:
	.loc	34 419 26 prologue_end
	leaq	-168(%rbp), %rdi
	callq	__ZN73_$LT$std..sync..mpmc..select..Token$u20$as$u20$core..default..Default$GT$7default17h7ebf05d2b0e5cf47E
	.loc	34 419 21 is_stmt 0
	leaq	-168(%rbp), %rax
	movq	%rax, -56(%rbp)
LBB45_1:
	.loc	34 0 21
	movq	-208(%rbp), %rdi
Ltmp709:
	.loc	34 421 16 is_stmt 1
	leaq	-168(%rbp), %rsi
	callq	__ZN3std4sync4mpmc4list16Channel$LT$T$GT$10start_recv17ha2f995940af74ecdE
	testb	$1, %al
	jne	LBB45_3
Ltmp710:
	.loc	34 427 20
	cmpq	$1, -184(%rbp)
	je	LBB45_5
	jmp	LBB45_6
Ltmp711:
LBB45_3:
	.loc	34 0 20 is_stmt 0
	movq	-208(%rbp), %rdi
	.loc	34 423 28 is_stmt 1
	leaq	-168(%rbp), %rsi
	callq	__ZN3std4sync4mpmc4list16Channel$LT$T$GT$4read17h3062eeda23829407E
	movq	-200(%rbp), %rdi
	movq	%rax, %rsi
	callq	__ZN4core6result19Result$LT$T$C$E$GT$7map_err17h995dfade47fe8220E
Ltmp712:
LBB45_4:
	.loc	34 0 28 is_stmt 0
	movq	-192(%rbp), %rax
	.loc	34 457 6 is_stmt 1
	addq	$208, %rsp
	popq	%rbp
	retq
LBB45_5:
Ltmp713:
	.loc	34 427 25
	movq	-176(%rbp), %rax
	movq	%rax, -128(%rbp)
	.loc	34 428 20
	callq	__ZN3std4time7Instant3now17h325ddce48db31cf2E
	movq	%rax, -112(%rbp)
	leaq	-112(%rbp), %rax
	movq	%rax, -48(%rbp)
	.loc	34 428 38 is_stmt 0
	leaq	-128(%rbp), %rax
	movq	%rax, -40(%rbp)
Ltmp714:
	.file	42 "/rustc/2c8cc343237b8f7d5a3c3703e3a87f2eb2c54a74/library/core/src" "cmp.rs"
	.loc	42 1153 18 is_stmt 1
	leaq	-112(%rbp), %rax
	movq	%rax, -32(%rbp)
	.loc	42 1153 35 is_stmt 0
	leaq	-128(%rbp), %rax
	movq	%rax, -24(%rbp)
Ltmp715:
	.file	43 "/rustc/2c8cc343237b8f7d5a3c3703e3a87f2eb2c54a74/library/std/src" "time.rs"
	.loc	43 154 20 is_stmt 1
	leaq	-112(%rbp), %rax
	movq	%rax, -16(%rbp)
	leaq	-128(%rbp), %rax
	movq	%rax, -8(%rbp)
Ltmp716:
	.file	44 "/rustc/2c8cc343237b8f7d5a3c3703e3a87f2eb2c54a74/library/std/src/sys/unix" "time.rs"
	.loc	44 170 9
	leaq	-112(%rbp), %rdi
	leaq	-128(%rbp), %rsi
	callq	__ZN4core3cmp5impls55_$LT$impl$u20$core..cmp..PartialOrd$u20$for$u20$u64$GT$11partial_cmp17he4cde27e5fdb2d79E
	movb	%al, -65(%rbp)
Ltmp717:
	.loc	42 1153 18
	movl	$1, %eax
	xorl	%ecx, %ecx
	cmpb	$2, -65(%rbp)
	cmoveq	%rcx, %rax
	.loc	28 344 9
	cmpq	$1, %rax
	je	LBB45_7
	jmp	LBB45_8
Ltmp718:
LBB45_6:
	.loc	28 0 9 is_stmt 0
	movq	-208(%rbp), %rax
	.loc	34 434 27 is_stmt 1
	leaq	-168(%rbp), %rcx
	movq	%rcx, -96(%rbp)
	movq	%rax, -88(%rbp)
	leaq	-184(%rbp), %rax
	movq	%rax, -80(%rbp)
	.loc	34 434 13 is_stmt 0
	leaq	-96(%rbp), %rdi
	callq	__ZN3std4sync4mpmc7context7Context4with17h7de50acd8af799c0E
	.loc	34 420 9 is_stmt 1
	jmp	LBB45_1
LBB45_7:
Ltmp719:
	.loc	42 1153 18
	movb	-65(%rbp), %al
	.loc	28 344 9
	subb	$2, %al
	jb	LBB45_9
	jmp	LBB45_8
LBB45_8:
	.loc	28 346 18
	movb	$0, -113(%rbp)
	jmp	LBB45_10
LBB45_9:
	.loc	28 345 48
	movb	$1, -113(%rbp)
Ltmp720:
LBB45_10:
	.loc	34 428 20
	testb	$1, -113(%rbp)
	jne	LBB45_12
Ltmp721:
	.loc	34 427 13
	jmp	LBB45_6
LBB45_12:
	.loc	34 0 13 is_stmt 0
	movq	-200(%rbp), %rax
Ltmp722:
	.loc	34 429 32 is_stmt 1
	movb	$0, -97(%rbp)
	.loc	34 429 28 is_stmt 0
	movb	-97(%rbp), %cl
	andb	$1, %cl
	movb	%cl, 8(%rax)
	movq	$0, (%rax)
Ltmp723:
	.loc	25 1 1 is_stmt 1
	jmp	LBB45_4
Ltmp724:
Lfunc_end45:
	.cfi_endproc

	.globl	__ZN3std4sync4mpmc4list16Channel$LT$T$GT$4recv28_$u7b$$u7b$closure$u7d$$u7d$17h848e5057c2d0ebaeE
	.p2align	4, 0x90
__ZN3std4sync4mpmc4list16Channel$LT$T$GT$4recv28_$u7b$$u7b$closure$u7d$$u7d$17h848e5057c2d0ebaeE:
Lfunc_begin46:
	.loc	34 434 0
	.cfi_startproc
	pushq	%rbp
	.cfi_def_cfa_offset 16
	.cfi_offset %rbp, -16
	movq	%rsp, %rbp
	.cfi_def_cfa_register %rbp
	subq	$160, %rsp
	movq	%rdi, -144(%rbp)
Ltmp725:
	movq	%rsi, -136(%rbp)
Ltmp726:
	movq	%rsi, -24(%rbp)
Ltmp727:
	.loc	34 435 44 prologue_end
	movq	(%rdi), %rax
	movq	%rax, -128(%rbp)
	movq	%rax, -16(%rbp)
Ltmp728:
	.file	45 "/rustc/2c8cc343237b8f7d5a3c3703e3a87f2eb2c54a74/library/std/src/sync/mpmc" "select.rs"
	.loc	45 25 19
	movq	%rax, -8(%rbp)
Ltmp729:
	.loc	45 28 17
	cmpq	$2, %rax
	seta	%al
	.loc	45 28 9 is_stmt 0
	xorb	$-1, %al
	testb	$1, %al
Ltmp730:
	jne	LBB46_2
Ltmp731:
	.loc	45 0 9
	movq	-144(%rbp), %rax
	movq	-136(%rbp), %rdx
	movq	-128(%rbp), %rcx
	.loc	45 29 9 is_stmt 1
	movq	%rcx, -120(%rbp)
Ltmp732:
	.loc	34 436 17
	movq	8(%rax), %rdi
	addq	$256, %rdi
	.loc	34 436 41 is_stmt 0
	movq	-120(%rbp), %rsi
	.loc	34 436 17
	callq	__ZN3std4sync4mpmc5waker9SyncWaker8register17h2776a0c36810bdd5E
	movq	-144(%rbp), %rax
	.loc	34 439 21 is_stmt 1
	movq	8(%rax), %rdi
	callq	__ZN3std4sync4mpmc4list16Channel$LT$T$GT$8is_empty17hd412fad1761aecf2E
	.loc	34 439 20 is_stmt 0
	xorb	$-1, %al
	testb	$1, %al
	jne	LBB46_4
	jmp	LBB46_3
Ltmp733:
LBB46_2:
	.loc	45 28 9 is_stmt 1
	leaq	l___unnamed_25(%rip), %rdi
	leaq	l___unnamed_26(%rip), %rdx
	movl	$25, %esi
	callq	__ZN4core9panicking5panic17hc1bc45270cf64b03E
Ltmp734:
LBB46_3:
	.loc	45 0 9 is_stmt 0
	movq	-144(%rbp), %rax
Ltmp735:
	.loc	34 439 40 is_stmt 1
	movq	8(%rax), %rdi
	callq	__ZN3std4sync4mpmc4list16Channel$LT$T$GT$15is_disconnected17ha37e446c876343d9E
	.loc	34 439 20 is_stmt 0
	andb	$1, %al
	movb	%al, -105(%rbp)
	jmp	LBB46_5
Ltmp736:
LBB46_4:
	movb	$1, -105(%rbp)
Ltmp737:
LBB46_5:
	testb	$1, -105(%rbp)
	jne	LBB46_7
Ltmp738:
LBB46_6:
	.loc	34 0 20
	movq	-136(%rbp), %rdi
	movq	-144(%rbp), %rax
	.loc	34 444 41 is_stmt 1
	movq	16(%rax), %rax
	movq	(%rax), %rsi
	movq	8(%rax), %rdx
	.loc	34 444 27 is_stmt 0
	callq	__ZN3std4sync4mpmc7context7Context10wait_until17h38a3c2d333acb010E
	movq	%rdx, -80(%rbp)
	movq	%rax, -88(%rbp)
Ltmp739:
	.loc	34 446 23 is_stmt 1
	movq	-88(%rbp), %rax
	movq	%rax, -152(%rbp)
	.loc	34 446 17 is_stmt 0
	testq	%rax, %rax
	je	LBB46_9
	jmp	LBB46_14
Ltmp740:
LBB46_14:
	.loc	34 0 17
	movq	-152(%rbp), %rax
	.loc	34 446 17
	decq	%rax
	subq	$2, %rax
	jb	LBB46_10
	jmp	LBB46_15
Ltmp741:
LBB46_15:
	jmp	LBB46_11
Ltmp742:
LBB46_7:
	.loc	34 0 17
	movq	-136(%rbp), %rdi
	.loc	34 440 43 is_stmt 1
	movq	$1, -104(%rbp)
	.loc	34 440 29 is_stmt 0
	movq	-104(%rbp), %rsi
	movq	-96(%rbp), %rdx
	callq	__ZN3std4sync4mpmc7context7Context10try_select17h1eaae579495c2b2aE
	.loc	34 439 17 is_stmt 1
	jmp	LBB46_6
Ltmp743:
	.loc	34 446 23
	ud2
LBB46_9:
Ltmp744:
	.loc	34 447 42
	leaq	l___unnamed_19(%rip), %rdi
	leaq	l___unnamed_27(%rip), %rdx
	movl	$40, %esi
	callq	__ZN4core9panicking5panic17hc1bc45270cf64b03E
Ltmp745:
LBB46_10:
	.loc	34 0 42 is_stmt 0
	movq	-144(%rbp), %rax
	.loc	34 449 25 is_stmt 1
	movq	8(%rax), %rsi
	addq	$256, %rsi
	.loc	34 449 51 is_stmt 0
	movq	-120(%rbp), %rdx
	.loc	34 449 25
	leaq	-48(%rbp), %rdi
	callq	__ZN3std4sync4mpmc5waker9SyncWaker10unregister17h1eb7e79a4b59facaE
Ltmp746:
	.loc	29 821 15 is_stmt 1
	movq	-32(%rbp), %rdx
	movl	$1, %eax
	xorl	%ecx, %ecx
	cmpq	$0, %rdx
	cmoveq	%rcx, %rax
	.loc	29 821 9 is_stmt 0
	cmpq	$0, %rax
	je	LBB46_12
	jmp	LBB46_13
Ltmp747:
LBB46_11:
	.loc	34 455 14 is_stmt 1
	addq	$160, %rsp
	popq	%rbp
	retq
Ltmp748:
LBB46_12:
	.loc	29 823 21
	leaq	l___unnamed_28(%rip), %rdi
	leaq	l___unnamed_29(%rip), %rdx
	movl	$43, %esi
	callq	__ZN4core9panicking5panic17hc1bc45270cf64b03E
Ltmp749:
LBB46_13:
	.loc	29 822 18
	movq	-48(%rbp), %rax
	movq	%rax, -72(%rbp)
	movq	-40(%rbp), %rax
	movq	%rax, -64(%rbp)
	movq	-32(%rbp), %rax
	movq	%rax, -56(%rbp)
Ltmp750:
	.loc	34 449 65
	leaq	-72(%rbp), %rdi
	callq	__ZN4core3ptr50drop_in_place$LT$std..sync..mpmc..waker..Entry$GT$17h081aa359e2f0e863E
	.loc	34 448 67
	jmp	LBB46_11
Ltmp751:
Lfunc_end46:
	.cfi_endproc

	.globl	__ZN3std4sync4mpmc4list16Channel$LT$T$GT$4recv28_$u7b$$u7b$closure$u7d$$u7d$17hca67ded797be30d5E
	.p2align	4, 0x90
__ZN3std4sync4mpmc4list16Channel$LT$T$GT$4recv28_$u7b$$u7b$closure$u7d$$u7d$17hca67ded797be30d5E:
Lfunc_begin47:
	.loc	34 423 0
	.cfi_startproc
	pushq	%rbp
	.cfi_def_cfa_offset 16
	.cfi_offset %rbp, -16
	movq	%rsp, %rbp
	.cfi_def_cfa_register %rbp
	subq	$24, %rsp
Ltmp752:
	.loc	34 423 57 prologue_end
	movb	$1, -17(%rbp)
	.loc	34 423 87 is_stmt 0
	movb	-17(%rbp), %al
	andb	$1, %al
	movzbl	%al, %eax
	addq	$24, %rsp
	popq	%rbp
	retq
Ltmp753:
Lfunc_end47:
	.cfi_endproc

	.globl	__ZN3std4sync4mpmc4list16Channel$LT$T$GT$8is_empty17hd412fad1761aecf2E
	.p2align	4, 0x90
__ZN3std4sync4mpmc4list16Channel$LT$T$GT$8is_empty17hd412fad1761aecf2E:
Lfunc_begin48:
	.loc	34 590 0 is_stmt 1
	.cfi_startproc
	pushq	%rbp
	.cfi_def_cfa_offset 16
	.cfi_offset %rbp, -16
	movq	%rsp, %rbp
	.cfi_def_cfa_register %rbp
	subq	$80, %rsp
	movq	%rdi, -72(%rbp)
	movq	%rdi, -56(%rbp)
Ltmp754:
	.loc	34 591 20 prologue_end
	callq	__ZN88_$LT$std..sync..mpmc..utils..CachePadded$LT$T$GT$$u20$as$u20$core..ops..deref..Deref$GT$5deref17h7a08992fb3550e86E
	movq	%rax, %rdi
	movq	%rdi, -48(%rbp)
Ltmp755:
	.loc	19 2127 38
	movq	%rdi, -40(%rbp)
	.loc	19 2127 26 is_stmt 0
	movl	$4, %esi
	callq	__ZN4core4sync6atomic11atomic_load17h02119c845b0293e5E
	movq	-72(%rbp), %rdi
	movq	%rax, -64(%rbp)
	movq	%rax, -32(%rbp)
Ltmp756:
	.loc	34 592 20 is_stmt 1
	addq	$128, %rdi
	callq	__ZN88_$LT$std..sync..mpmc..utils..CachePadded$LT$T$GT$$u20$as$u20$core..ops..deref..Deref$GT$5deref17h7a08992fb3550e86E
	movq	%rax, %rdi
	movq	%rdi, -24(%rbp)
Ltmp757:
	.loc	19 2127 38
	movq	%rdi, -16(%rbp)
	.loc	19 2127 26 is_stmt 0
	movl	$4, %esi
	callq	__ZN4core4sync6atomic11atomic_load17h02119c845b0293e5E
	movq	%rax, %rcx
	movq	-64(%rbp), %rax
	movq	%rcx, -8(%rbp)
Ltmp758:
	.loc	34 593 9 is_stmt 1
	shrq	$1, %rax
	.loc	34 593 26 is_stmt 0
	shrq	$1, %rcx
	.loc	34 593 9
	cmpq	%rcx, %rax
	sete	%al
Ltmp759:
	.loc	34 594 6 is_stmt 1
	andb	$1, %al
	movzbl	%al, %eax
	addq	$80, %rsp
	popq	%rbp
	retq
Ltmp760:
Lfunc_end48:
	.cfi_endproc

	.globl	__ZN3std4sync4mpmc4zero15Packet$LT$T$GT$10wait_ready17h5768133d3e8bc2baE
	.p2align	4, 0x90
__ZN3std4sync4mpmc4zero15Packet$LT$T$GT$10wait_ready17h5768133d3e8bc2baE:
Lfunc_begin49:
	.file	46 "/rustc/2c8cc343237b8f7d5a3c3703e3a87f2eb2c54a74/library/std/src/sync/mpmc" "zero.rs"
	.loc	46 57 0
	.cfi_startproc
	pushq	%rbp
	.cfi_def_cfa_offset 16
	.cfi_offset %rbp, -16
	movq	%rsp, %rbp
	.cfi_def_cfa_register %rbp
	subq	$48, %rsp
	movq	%rdi, -40(%rbp)
	movq	%rdi, -24(%rbp)
Ltmp761:
	.loc	46 58 23 prologue_end
	callq	__ZN3std4sync4mpmc5utils7Backoff3new17he8f9e4a8703c1ea7E
	movl	%eax, -28(%rbp)
LBB49_1:
	.loc	46 0 23 is_stmt 0
	movq	-40(%rbp), %rdi
Ltmp762:
	.loc	46 59 16 is_stmt 1
	addq	$16, %rdi
	movq	%rdi, -16(%rbp)
Ltmp763:
	.loc	19 456 30
	movq	%rdi, -8(%rbp)
	.loc	19 456 18 is_stmt 0
	movl	$2, %esi
	callq	__ZN4core4sync6atomic11atomic_load17h0c38a0cf1f277e9fE
	cmpb	$0, %al
	setne	%al
Ltmp764:
	.loc	46 59 15 is_stmt 1
	xorb	$-1, %al
	testb	$1, %al
	jne	LBB49_3
Ltmp765:
	.loc	46 62 6
	addq	$48, %rsp
	popq	%rbp
	retq
LBB49_3:
Ltmp766:
	.loc	46 60 13
	leaq	-28(%rbp), %rdi
	callq	__ZN3std4sync4mpmc5utils7Backoff10spin_heavy17haca4868445df5df8E
	.loc	46 59 9
	jmp	LBB49_1
Ltmp767:
Lfunc_end49:
	.cfi_endproc

	.globl	__ZN3std4sync4mpmc4zero15Packet$LT$T$GT$14empty_on_stack17heff1c84de7f457fdE
	.p2align	4, 0x90
__ZN3std4sync4mpmc4zero15Packet$LT$T$GT$14empty_on_stack17heff1c84de7f457fdE:
Lfunc_begin50:
	.loc	46 47 0
	.cfi_startproc
	pushq	%rbp
	.cfi_def_cfa_offset 16
	.cfi_offset %rbp, -16
	movq	%rsp, %rbp
	.cfi_def_cfa_register %rbp
	subq	$40, %rsp
	movq	%rdi, %rax
Ltmp768:
	.loc	19 305 9 prologue_end
	movb	$0, -40(%rbp)
Ltmp769:
	.loc	46 48 86
	movq	$0, -16(%rbp)
Ltmp770:
	.loc	32 1953 22
	movq	-16(%rbp), %rdx
	movq	-8(%rbp), %rcx
	.loc	32 1953 9 is_stmt 0
	movq	%rdx, -32(%rbp)
	movq	%rcx, -24(%rbp)
Ltmp771:
	.loc	46 48 9 is_stmt 1
	movb	$1, 17(%rdi)
	movb	-40(%rbp), %cl
	movb	%cl, 16(%rdi)
	movq	-32(%rbp), %rdx
	movq	-24(%rbp), %rcx
	movq	%rdx, (%rdi)
	movq	%rcx, 8(%rdi)
	.loc	46 49 6
	addq	$40, %rsp
	popq	%rbp
	retq
Ltmp772:
Lfunc_end50:
	.cfi_endproc

	.globl	__ZN3std4sync4mpmc4zero16Channel$LT$T$GT$10disconnect17h3a34154a7b00be24E
	.p2align	4, 0x90
__ZN3std4sync4mpmc4zero16Channel$LT$T$GT$10disconnect17h3a34154a7b00be24E:
Lfunc_begin51:
	.loc	46 285 0
	.cfi_startproc
	.cfi_personality 155, _rust_eh_personality
	.cfi_lsda 16, Lexception7
	pushq	%rbp
	.cfi_def_cfa_offset 16
	.cfi_offset %rbp, -16
	movq	%rsp, %rbp
	.cfi_def_cfa_register %rbp
	subq	$112, %rsp
	movq	%rdi, %rsi
	movq	%rsi, -24(%rbp)
	leaq	-48(%rbp), %rdi
	movq	%rdi, -88(%rbp)
Ltmp789:
	.loc	46 286 25 prologue_end
	callq	__ZN3std4sync5mutex14Mutex$LT$T$GT$4lock17ha36d11b56e3deecbE
	movq	-88(%rbp), %rdi
	leaq	l___unnamed_30(%rip), %rsi
	callq	__ZN4core6result19Result$LT$T$C$E$GT$6unwrap17h21e4f761cad4010dE
	movb	%dl, -56(%rbp)
	movq	%rax, -64(%rbp)
Ltmp773:
	leaq	-64(%rbp), %rdi
Ltmp790:
	.loc	46 288 13
	callq	__ZN81_$LT$std..sync..mutex..MutexGuard$LT$T$GT$$u20$as$u20$core..ops..deref..Deref$GT$5deref17hbd7be63ed8d30680E
Ltmp774:
	movq	%rax, -80(%rbp)
	jmp	LBB51_3
Ltmp791:
LBB51_1:
Ltmp786:
	.loc	46 0 13 is_stmt 0
	leaq	-64(%rbp), %rdi
	.loc	46 296 5 is_stmt 1
	callq	__ZN4core3ptr85drop_in_place$LT$std..sync..mutex..MutexGuard$LT$std..sync..mpmc..zero..Inner$GT$$GT$17hd50930ac5ac5bfa2E
Ltmp787:
	jmp	LBB51_12
LBB51_2:
Ltmp785:
	.loc	46 0 5 is_stmt 0
	movq	%rax, %rcx
	movl	%edx, %eax
	movq	%rcx, -16(%rbp)
	movl	%eax, -8(%rbp)
	jmp	LBB51_1
LBB51_3:
	movq	-80(%rbp), %rax
Ltmp792:
	.loc	46 288 13 is_stmt 1
	movb	96(%rax), %al
	.loc	46 288 12 is_stmt 0
	xorb	$-1, %al
	testb	$1, %al
	jne	LBB51_5
	.loc	46 294 13 is_stmt 1
	movb	$0, -65(%rbp)
	.loc	46 288 9
	jmp	LBB51_13
LBB51_5:
Ltmp775:
	.loc	46 0 9 is_stmt 0
	leaq	-64(%rbp), %rdi
	.loc	46 289 13 is_stmt 1
	callq	__ZN84_$LT$std..sync..mutex..MutexGuard$LT$T$GT$$u20$as$u20$core..ops..deref..DerefMut$GT$9deref_mut17ha93e764c1b6752e6E
Ltmp776:
	movq	%rax, -96(%rbp)
	jmp	LBB51_6
LBB51_6:
	.loc	46 0 13 is_stmt 0
	movq	-96(%rbp), %rax
	.loc	46 289 13
	movb	$1, 96(%rax)
Ltmp777:
	leaq	-64(%rbp), %rdi
	.loc	46 290 13 is_stmt 1
	callq	__ZN84_$LT$std..sync..mutex..MutexGuard$LT$T$GT$$u20$as$u20$core..ops..deref..DerefMut$GT$9deref_mut17ha93e764c1b6752e6E
Ltmp778:
	movq	%rax, -104(%rbp)
	jmp	LBB51_7
LBB51_7:
Ltmp779:
	.loc	46 0 13 is_stmt 0
	movq	-104(%rbp), %rdi
	.loc	46 290 13
	callq	__ZN3std4sync4mpmc5waker5Waker10disconnect17h8bae8ba8cde31daeE
Ltmp780:
	jmp	LBB51_8
LBB51_8:
Ltmp781:
	.loc	46 0 13
	leaq	-64(%rbp), %rdi
	.loc	46 291 13 is_stmt 1
	callq	__ZN84_$LT$std..sync..mutex..MutexGuard$LT$T$GT$$u20$as$u20$core..ops..deref..DerefMut$GT$9deref_mut17ha93e764c1b6752e6E
Ltmp782:
	movq	%rax, -112(%rbp)
	jmp	LBB51_9
LBB51_9:
	.loc	46 0 13 is_stmt 0
	movq	-112(%rbp), %rdi
	.loc	46 291 13
	addq	$48, %rdi
Ltmp783:
	callq	__ZN3std4sync4mpmc5waker5Waker10disconnect17h8bae8ba8cde31daeE
Ltmp784:
	jmp	LBB51_10
LBB51_10:
	.loc	46 292 13 is_stmt 1
	movb	$1, -65(%rbp)
	.loc	46 288 9
	jmp	LBB51_13
Ltmp793:
LBB51_11:
Ltmp788:
	.loc	46 285 5
	callq	__ZN4core9panicking19panic_cannot_unwind17h1fbca7e1d7f56ae1E
LBB51_12:
	movq	-16(%rbp), %rdi
	callq	__Unwind_Resume
LBB51_13:
	.loc	46 296 5
	leaq	-64(%rbp), %rdi
	callq	__ZN4core3ptr85drop_in_place$LT$std..sync..mutex..MutexGuard$LT$std..sync..mpmc..zero..Inner$GT$$GT$17hd50930ac5ac5bfa2E
	.loc	46 296 6 is_stmt 0
	movb	-65(%rbp), %al
	andb	$1, %al
	movzbl	%al, %eax
	addq	$112, %rsp
	popq	%rbp
	retq
Ltmp794:
Lfunc_end51:
	.cfi_endproc
	.section	__TEXT,__gcc_except_tab
	.p2align	2
GCC_except_table51:
Lexception7:
	.byte	255
	.byte	255
	.byte	1
	.uleb128 Lcst_end7-Lcst_begin7
Lcst_begin7:
	.uleb128 Lfunc_begin51-Lfunc_begin51
	.uleb128 Ltmp773-Lfunc_begin51
	.byte	0
	.byte	0
	.uleb128 Ltmp773-Lfunc_begin51
	.uleb128 Ltmp774-Ltmp773
	.uleb128 Ltmp785-Lfunc_begin51
	.byte	0
	.uleb128 Ltmp786-Lfunc_begin51
	.uleb128 Ltmp787-Ltmp786
	.uleb128 Ltmp788-Lfunc_begin51
	.byte	0
	.uleb128 Ltmp775-Lfunc_begin51
	.uleb128 Ltmp784-Ltmp775
	.uleb128 Ltmp785-Lfunc_begin51
	.byte	0
	.uleb128 Ltmp784-Lfunc_begin51
	.uleb128 Lfunc_end51-Ltmp784
	.byte	0
	.byte	0
Lcst_end7:
	.p2align	2

	.section	__TEXT,__text,regular,pure_instructions
	.globl	__ZN3std4sync4mpmc4zero16Channel$LT$T$GT$4read17h3bd5bf1f39941789E
	.p2align	4, 0x90
__ZN3std4sync4mpmc4zero16Channel$LT$T$GT$4read17h3bd5bf1f39941789E:
Lfunc_begin52:
	.loc	46 113 0 is_stmt 1
	.cfi_startproc
	.cfi_personality 155, _rust_eh_personality
	.cfi_lsda 16, Lexception8
	pushq	%rbp
	.cfi_def_cfa_offset 16
	.cfi_offset %rbp, -16
	movq	%rsp, %rbp
	.cfi_def_cfa_register %rbp
	subq	$336, %rsp
	movq	%rsi, -320(%rbp)
	movq	%rdi, -168(%rbp)
	movq	%rsi, -160(%rbp)
Ltmp806:
	.loc	46 115 12 prologue_end
	movq	32(%rsi), %rax
	movq	%rax, -144(%rbp)
Ltmp807:
	.loc	7 52 36
	movq	%rax, -192(%rbp)
	.loc	7 52 18 is_stmt 0
	movq	-192(%rbp), %rax
	movq	%rax, -136(%rbp)
Ltmp808:
	.loc	7 38 13 is_stmt 1
	movq	%rax, -128(%rbp)
Ltmp809:
	.loc	7 215 33
	movq	%rax, -120(%rbp)
	.loc	7 215 18 is_stmt 0
	movq	%rax, -112(%rbp)
Ltmp810:
	.loc	46 115 12 is_stmt 1
	cmpq	$0, -112(%rbp)
	jne	LBB52_2
	.loc	46 116 20
	movq	$0, -312(%rbp)
	.loc	46 136 6
	jmp	LBB52_18
LBB52_2:
	.loc	46 0 6 is_stmt 0
	movq	-320(%rbp), %rax
	.loc	46 119 25 is_stmt 1
	movq	32(%rax), %rax
	movq	%rax, -328(%rbp)
	.loc	46 119 22 is_stmt 0
	movq	%rax, -104(%rbp)
Ltmp811:
	.loc	46 121 12 is_stmt 1
	testb	$1, 17(%rax)
	jne	LBB52_4
	.loc	46 0 12 is_stmt 0
	movq	-328(%rbp), %rdi
	.loc	46 131 13 is_stmt 1
	callq	__ZN3std4sync4mpmc4zero15Packet$LT$T$GT$10wait_ready17h5768133d3e8bc2baE
	movq	-328(%rbp), %rdi
	.loc	46 132 23
	movq	%rdi, -48(%rbp)
Ltmp812:
	.loc	32 1999 9
	movq	%rdi, -40(%rbp)
Ltmp813:
	.loc	46 132 48
	movq	$0, -216(%rbp)
Ltmp814:
	.loc	7 1545 32
	movq	-216(%rbp), %rsi
	movq	-208(%rbp), %rdx
	.loc	7 1545 18 is_stmt 0
	callq	__ZN4core3ptr7replace17h24d1193218c1ea1bE
	movq	%rdx, -224(%rbp)
	movq	%rax, -232(%rbp)
Ltmp815:
	.loc	29 821 15 is_stmt 1
	movq	-232(%rbp), %rdx
	movl	$1, %eax
	xorl	%ecx, %ecx
	cmpq	$0, %rdx
	cmoveq	%rcx, %rax
	.loc	29 821 9 is_stmt 0
	cmpq	$0, %rax
	je	LBB52_13
	jmp	LBB52_14
Ltmp816:
LBB52_4:
	.loc	29 0 9
	movq	-328(%rbp), %rdi
	.loc	46 125 23 is_stmt 1
	movq	%rdi, -96(%rbp)
Ltmp817:
	.loc	32 1999 9
	movq	%rdi, -88(%rbp)
Ltmp818:
	.loc	46 125 48
	movq	$0, -264(%rbp)
Ltmp819:
	.loc	7 1545 32
	movq	-264(%rbp), %rsi
	movq	-256(%rbp), %rdx
	.loc	7 1545 18 is_stmt 0
	callq	__ZN4core3ptr7replace17h24d1193218c1ea1bE
	movq	%rdx, -272(%rbp)
	movq	%rax, -280(%rbp)
Ltmp820:
	.loc	29 821 15 is_stmt 1
	movq	-280(%rbp), %rdx
	movl	$1, %eax
	xorl	%ecx, %ecx
	cmpq	$0, %rdx
	cmoveq	%rcx, %rax
	.loc	29 821 9 is_stmt 0
	cmpq	$0, %rax
	jne	LBB52_6
	.loc	29 823 21 is_stmt 1
	leaq	l___unnamed_28(%rip), %rdi
	leaq	l___unnamed_31(%rip), %rdx
	movl	$43, %esi
	callq	__ZN4core9panicking5panic17hc1bc45270cf64b03E
LBB52_6:
	.loc	29 0 21 is_stmt 0
	movq	-328(%rbp), %rdi
	.loc	29 822 18 is_stmt 1
	movq	-280(%rbp), %rcx
	movq	-272(%rbp), %rax
	movq	%rcx, -296(%rbp)
	movq	%rax, -288(%rbp)
Ltmp821:
	.loc	46 126 13
	addq	$16, %rdi
	movq	%rdi, -80(%rbp)
Ltmp822:
	.loc	19 485 26
	movq	%rdi, -72(%rbp)
Ltmp800:
	movl	$1, %edx
	.loc	19 485 13 is_stmt 0
	movl	%edx, %esi
	callq	__ZN4core4sync6atomic12atomic_store17haf7066a6da67f28dE
Ltmp801:
	jmp	LBB52_9
Ltmp823:
LBB52_7:
Ltmp803:
	.loc	19 0 13
	leaq	-296(%rbp), %rdi
	.loc	46 128 9 is_stmt 1
	callq	__ZN4core3ptr94drop_in_place$LT$alloc..boxed..Box$LT$dyn$u20$threadpool..FnBox$u2b$core..marker..Send$GT$$GT$17h34fee65df116ba20E
Ltmp804:
	jmp	LBB52_11
LBB52_8:
Ltmp802:
	.loc	46 0 9 is_stmt 0
	movq	%rax, %rcx
	movl	%edx, %eax
	movq	%rcx, -64(%rbp)
	movl	%eax, -56(%rbp)
	jmp	LBB52_7
LBB52_9:
Ltmp824:
	.loc	46 127 16 is_stmt 1
	movq	-296(%rbp), %rcx
	movq	-288(%rbp), %rax
	.loc	46 127 13 is_stmt 0
	movq	%rcx, -312(%rbp)
	movq	%rax, -304(%rbp)
Ltmp825:
	.loc	46 121 9 is_stmt 1
	jmp	LBB52_12
Ltmp826:
LBB52_10:
Ltmp805:
	.loc	46 113 5
	callq	__ZN4core9panicking19panic_cannot_unwind17h1fbca7e1d7f56ae1E
LBB52_11:
	movq	-64(%rbp), %rdi
	callq	__Unwind_Resume
LBB52_12:
	.loc	46 136 6
	jmp	LBB52_18
LBB52_13:
Ltmp827:
	.loc	29 823 21
	leaq	l___unnamed_28(%rip), %rdi
	leaq	l___unnamed_32(%rip), %rdx
	movl	$43, %esi
	callq	__ZN4core9panicking5panic17hc1bc45270cf64b03E
LBB52_14:
	.loc	29 0 21 is_stmt 0
	movq	-320(%rbp), %rax
	.loc	29 822 18 is_stmt 1
	movq	-232(%rbp), %rdx
	movq	-224(%rbp), %rcx
	movq	%rdx, -248(%rbp)
	movq	%rcx, -240(%rbp)
Ltmp828:
	.loc	46 133 32
	movq	32(%rax), %rax
	movq	%rax, -32(%rbp)
Ltmp829:
	.loc	18 958 36
	movq	%rax, -24(%rbp)
Ltmp830:
	.loc	18 1014 44
	movq	%rax, -16(%rbp)
Ltmp831:
	.loc	11 87 59
	movq	%rax, -8(%rbp)
Ltmp832:
	.loc	10 201 13
	movq	%rax, -176(%rbp)
Ltmp833:
	.loc	11 87 18
	movq	-176(%rbp), %rax
	movq	%rax, -184(%rbp)
Ltmp834:
	.loc	18 1014 9
	movq	-184(%rbp), %rax
	movq	%rax, -200(%rbp)
Ltmp795:
	leaq	-200(%rbp), %rdi
Ltmp835:
	.loc	37 980 24
	callq	__ZN4core3ptr156drop_in_place$LT$alloc..boxed..Box$LT$std..sync..mpmc..zero..Packet$LT$alloc..boxed..Box$LT$dyn$u20$threadpool..FnBox$u2b$core..marker..Send$GT$$GT$$GT$$GT$17hc24a4baa64621a34E
Ltmp796:
	jmp	LBB52_17
Ltmp836:
LBB52_15:
Ltmp798:
	.loc	37 0 24 is_stmt 0
	leaq	-248(%rbp), %rdi
	.loc	46 135 9 is_stmt 1
	callq	__ZN4core3ptr94drop_in_place$LT$alloc..boxed..Box$LT$dyn$u20$threadpool..FnBox$u2b$core..marker..Send$GT$$GT$17h34fee65df116ba20E
Ltmp799:
	jmp	LBB52_11
LBB52_16:
Ltmp797:
	.loc	46 0 9 is_stmt 0
	movq	%rax, %rcx
	movl	%edx, %eax
	movq	%rcx, -64(%rbp)
	movl	%eax, -56(%rbp)
	jmp	LBB52_15
LBB52_17:
Ltmp837:
	.loc	46 134 16 is_stmt 1
	movq	-248(%rbp), %rcx
	movq	-240(%rbp), %rax
	.loc	46 134 13 is_stmt 0
	movq	%rcx, -312(%rbp)
	movq	%rax, -304(%rbp)
Ltmp838:
	.loc	46 121 9 is_stmt 1
	jmp	LBB52_12
Ltmp839:
LBB52_18:
	.loc	46 136 6
	movq	-312(%rbp), %rax
	movq	-304(%rbp), %rdx
	addq	$336, %rsp
	popq	%rbp
	retq
Ltmp840:
Lfunc_end52:
	.cfi_endproc
	.section	__TEXT,__gcc_except_tab
	.p2align	2
GCC_except_table52:
Lexception8:
	.byte	255
	.byte	255
	.byte	1
	.uleb128 Lcst_end8-Lcst_begin8
Lcst_begin8:
	.uleb128 Lfunc_begin52-Lfunc_begin52
	.uleb128 Ltmp800-Lfunc_begin52
	.byte	0
	.byte	0
	.uleb128 Ltmp800-Lfunc_begin52
	.uleb128 Ltmp801-Ltmp800
	.uleb128 Ltmp802-Lfunc_begin52
	.byte	0
	.uleb128 Ltmp803-Lfunc_begin52
	.uleb128 Ltmp804-Ltmp803
	.uleb128 Ltmp805-Lfunc_begin52
	.byte	0
	.uleb128 Ltmp804-Lfunc_begin52
	.uleb128 Ltmp795-Ltmp804
	.byte	0
	.byte	0
	.uleb128 Ltmp795-Lfunc_begin52
	.uleb128 Ltmp796-Ltmp795
	.uleb128 Ltmp797-Lfunc_begin52
	.byte	0
	.uleb128 Ltmp798-Lfunc_begin52
	.uleb128 Ltmp799-Ltmp798
	.uleb128 Ltmp805-Lfunc_begin52
	.byte	0
Lcst_end8:
	.p2align	2

	.section	__TEXT,__text,regular,pure_instructions
	.globl	__ZN3std4sync4mpmc4zero16Channel$LT$T$GT$4recv17h031bc85067bf7948E
	.p2align	4, 0x90
__ZN3std4sync4mpmc4zero16Channel$LT$T$GT$4recv17h031bc85067bf7948E:
Lfunc_begin53:
	.loc	46 231 0
	.cfi_startproc
	.cfi_personality 155, _rust_eh_personality
	.cfi_lsda 16, Lexception9
	pushq	%rbp
	.cfi_def_cfa_offset 16
	.cfi_offset %rbp, -16
	movq	%rsp, %rbp
	.cfi_def_cfa_register %rbp
	subq	$320, %rsp
	movq	%rsi, -272(%rbp)
	movq	%rdi, -296(%rbp)
	movq	%rdi, -288(%rbp)
	movq	%rdx, -248(%rbp)
	movq	%rcx, -240(%rbp)
	movq	%rsi, -32(%rbp)
	leaq	-232(%rbp), %rdi
	movq	%rdi, -280(%rbp)
Ltmp866:
	.loc	46 232 26 prologue_end
	callq	__ZN73_$LT$std..sync..mpmc..select..Token$u20$as$u20$core..default..Default$GT$7default17h7ebf05d2b0e5cf47E
	movq	-280(%rbp), %rax
	movq	-272(%rbp), %rsi
	.loc	46 232 21 is_stmt 0
	movq	%rax, -24(%rbp)
	leaq	-176(%rbp), %rdi
	movq	%rdi, -264(%rbp)
Ltmp867:
	.loc	46 233 25 is_stmt 1
	callq	__ZN3std4sync5mutex14Mutex$LT$T$GT$4lock17ha36d11b56e3deecbE
	movq	-264(%rbp), %rdi
	leaq	l___unnamed_33(%rip), %rsi
	callq	__ZN4core6result19Result$LT$T$C$E$GT$6unwrap17h21e4f761cad4010dE
	movb	%dl, -184(%rbp)
	movq	%rax, -192(%rbp)
	.loc	46 233 50 is_stmt 0
	movb	$1, -33(%rbp)
Ltmp841:
	leaq	-192(%rbp), %rdi
Ltmp868:
	.loc	46 236 34 is_stmt 1
	callq	__ZN84_$LT$std..sync..mutex..MutexGuard$LT$T$GT$$u20$as$u20$core..ops..deref..DerefMut$GT$9deref_mut17ha93e764c1b6752e6E
Ltmp842:
	movq	%rax, -256(%rbp)
	jmp	LBB53_3
Ltmp869:
LBB53_1:
	.loc	46 280 5
	testb	$1, -33(%rbp)
	jne	LBB53_22
	jmp	LBB53_21
LBB53_2:
Ltmp862:
	.loc	46 0 5 is_stmt 0
	movq	%rax, %rcx
	movl	%edx, %eax
	movq	%rcx, -16(%rbp)
	movl	%eax, -8(%rbp)
	jmp	LBB53_1
LBB53_3:
Ltmp843:
	movq	-256(%rbp), %rsi
	leaq	-152(%rbp), %rdi
Ltmp870:
	.loc	46 236 34 is_stmt 1
	callq	__ZN3std4sync4mpmc5waker5Waker10try_select17hcc704da0babd84f7E
Ltmp844:
	jmp	LBB53_4
LBB53_4:
	.loc	46 236 16 is_stmt 0
	movq	-136(%rbp), %rdx
	movl	$1, %eax
	xorl	%ecx, %ecx
	cmpq	$0, %rdx
	cmoveq	%rcx, %rax
	cmpq	$1, %rax
	jne	LBB53_6
	.loc	46 236 21
	movq	-136(%rbp), %rax
	movq	%rax, -112(%rbp)
	movq	-152(%rbp), %rax
	movq	-144(%rbp), %rcx
	movq	%rcx, -120(%rbp)
	movq	%rax, -128(%rbp)
	.loc	46 237 28 is_stmt 1
	movq	-120(%rbp), %rax
	.loc	46 237 13 is_stmt 0
	movq	%rax, -200(%rbp)
	.loc	46 238 18 is_stmt 1
	movb	$0, -33(%rbp)
	movq	-192(%rbp), %rcx
	movb	-184(%rbp), %al
	movq	%rcx, -104(%rbp)
	movb	%al, -96(%rbp)
Ltmp851:
	leaq	-104(%rbp), %rdi
Ltmp871:
	.loc	37 980 24
	callq	__ZN4core3ptr85drop_in_place$LT$std..sync..mutex..MutexGuard$LT$std..sync..mpmc..zero..Inner$GT$$GT$17hd50930ac5ac5bfa2E
Ltmp852:
	jmp	LBB53_16
Ltmp872:
LBB53_6:
Ltmp845:
	.loc	37 0 24 is_stmt 0
	leaq	-152(%rbp), %rdi
	.loc	46 242 9 is_stmt 1
	callq	__ZN4core3ptr78drop_in_place$LT$core..option..Option$LT$std..sync..mpmc..waker..Entry$GT$$GT$17h4c774b1b5ad3dc78E
Ltmp846:
	jmp	LBB53_7
LBB53_7:
Ltmp847:
	.loc	46 0 9 is_stmt 0
	leaq	-192(%rbp), %rdi
	.loc	46 244 12 is_stmt 1
	callq	__ZN81_$LT$std..sync..mutex..MutexGuard$LT$T$GT$$u20$as$u20$core..ops..deref..Deref$GT$5deref17hbd7be63ed8d30680E
Ltmp848:
	movq	%rax, -304(%rbp)
	jmp	LBB53_8
LBB53_8:
	.loc	46 0 12 is_stmt 0
	movq	-304(%rbp), %rax
	.loc	46 244 12
	testb	$1, 96(%rax)
	jne	LBB53_10
	.loc	46 0 12
	movq	-296(%rbp), %rdi
	movq	-272(%rbp), %rax
	.loc	46 248 23 is_stmt 1
	movb	$0, -33(%rbp)
	leaq	-232(%rbp), %rcx
	movq	%rcx, -64(%rbp)
	movq	-192(%rbp), %rdx
	movb	-184(%rbp), %cl
	movq	%rdx, -80(%rbp)
	movb	%cl, -72(%rbp)
	leaq	-248(%rbp), %rcx
	movq	%rcx, -56(%rbp)
	movq	%rax, -48(%rbp)
Ltmp849:
	leaq	-80(%rbp), %rsi
	.loc	46 248 9 is_stmt 0
	callq	__ZN3std4sync4mpmc7context7Context4with17h51555fc9007a7932E
Ltmp850:
	jmp	LBB53_12
LBB53_10:
	.loc	46 0 9
	movq	-296(%rbp), %rax
	.loc	46 245 24 is_stmt 1
	movb	$1, -81(%rbp)
	.loc	46 245 20 is_stmt 0
	movb	-81(%rbp), %cl
	andb	$1, %cl
	movb	%cl, 8(%rax)
	movq	$0, (%rax)
Ltmp873:
LBB53_11:
	.loc	46 280 5 is_stmt 1
	testb	$1, -33(%rbp)
	jne	LBB53_24
	jmp	LBB53_23
Ltmp874:
LBB53_12:
	.loc	46 280 6 is_stmt 0
	jmp	LBB53_13
LBB53_13:
	.loc	46 0 6
	movq	-288(%rbp), %rax
	.loc	46 280 6
	addq	$320, %rsp
	popq	%rbp
	retq
LBB53_14:
Ltmp858:
	.loc	46 0 6
	leaq	-128(%rbp), %rdi
Ltmp875:
	.loc	46 242 9 is_stmt 1
	callq	__ZN4core3ptr50drop_in_place$LT$std..sync..mpmc..waker..Entry$GT$17h081aa359e2f0e863E
Ltmp859:
	jmp	LBB53_1
LBB53_15:
Ltmp857:
	.loc	46 0 9 is_stmt 0
	movq	%rax, %rcx
	movl	%edx, %eax
	movq	%rcx, -16(%rbp)
	movl	%eax, -8(%rbp)
	jmp	LBB53_14
LBB53_16:
Ltmp853:
	movq	-272(%rbp), %rdi
	leaq	-232(%rbp), %rsi
Ltmp876:
	.loc	46 240 24 is_stmt 1
	callq	__ZN3std4sync4mpmc4zero16Channel$LT$T$GT$4read17h3bd5bf1f39941789E
Ltmp854:
	movq	%rdx, -320(%rbp)
	movq	%rax, -312(%rbp)
	jmp	LBB53_17
LBB53_17:
Ltmp855:
	.loc	46 0 24 is_stmt 0
	movq	-320(%rbp), %rdx
	movq	-312(%rbp), %rsi
	movq	-296(%rbp), %rdi
	.loc	46 240 24
	callq	__ZN4core6result19Result$LT$T$C$E$GT$7map_err17h1b570fc3176658fcE
Ltmp856:
	jmp	LBB53_18
Ltmp877:
LBB53_18:
Ltmp860:
	.loc	46 0 24
	leaq	-128(%rbp), %rdi
	.loc	46 242 9 is_stmt 1
	callq	__ZN4core3ptr50drop_in_place$LT$std..sync..mpmc..waker..Entry$GT$17h081aa359e2f0e863E
Ltmp861:
	jmp	LBB53_20
Ltmp878:
LBB53_19:
Ltmp865:
	.loc	46 231 5
	callq	__ZN4core9panicking19panic_cannot_unwind17h1fbca7e1d7f56ae1E
LBB53_20:
Ltmp879:
	.loc	25 1 1
	jmp	LBB53_11
Ltmp880:
LBB53_21:
	.loc	46 231 5
	movq	-16(%rbp), %rdi
	callq	__Unwind_Resume
LBB53_22:
Ltmp863:
	.loc	46 0 5 is_stmt 0
	leaq	-192(%rbp), %rdi
Ltmp881:
	.loc	46 280 5 is_stmt 1
	callq	__ZN4core3ptr85drop_in_place$LT$std..sync..mutex..MutexGuard$LT$std..sync..mpmc..zero..Inner$GT$$GT$17hd50930ac5ac5bfa2E
Ltmp864:
	jmp	LBB53_21
Ltmp882:
LBB53_23:
	.loc	46 280 6 is_stmt 0
	jmp	LBB53_13
LBB53_24:
Ltmp883:
	.loc	46 280 5
	leaq	-192(%rbp), %rdi
	callq	__ZN4core3ptr85drop_in_place$LT$std..sync..mutex..MutexGuard$LT$std..sync..mpmc..zero..Inner$GT$$GT$17hd50930ac5ac5bfa2E
	jmp	LBB53_23
Ltmp884:
Lfunc_end53:
	.cfi_endproc
	.section	__TEXT,__gcc_except_tab
	.p2align	2
GCC_except_table53:
Lexception9:
	.byte	255
	.byte	255
	.byte	1
	.uleb128 Lcst_end9-Lcst_begin9
Lcst_begin9:
	.uleb128 Lfunc_begin53-Lfunc_begin53
	.uleb128 Ltmp841-Lfunc_begin53
	.byte	0
	.byte	0
	.uleb128 Ltmp841-Lfunc_begin53
	.uleb128 Ltmp844-Ltmp841
	.uleb128 Ltmp862-Lfunc_begin53
	.byte	0
	.uleb128 Ltmp851-Lfunc_begin53
	.uleb128 Ltmp852-Ltmp851
	.uleb128 Ltmp857-Lfunc_begin53
	.byte	0
	.uleb128 Ltmp845-Lfunc_begin53
	.uleb128 Ltmp850-Ltmp845
	.uleb128 Ltmp862-Lfunc_begin53
	.byte	0
	.uleb128 Ltmp858-Lfunc_begin53
	.uleb128 Ltmp859-Ltmp858
	.uleb128 Ltmp865-Lfunc_begin53
	.byte	0
	.uleb128 Ltmp853-Lfunc_begin53
	.uleb128 Ltmp856-Ltmp853
	.uleb128 Ltmp857-Lfunc_begin53
	.byte	0
	.uleb128 Ltmp860-Lfunc_begin53
	.uleb128 Ltmp861-Ltmp860
	.uleb128 Ltmp862-Lfunc_begin53
	.byte	0
	.uleb128 Ltmp861-Lfunc_begin53
	.uleb128 Ltmp863-Ltmp861
	.byte	0
	.byte	0
	.uleb128 Ltmp863-Lfunc_begin53
	.uleb128 Ltmp864-Ltmp863
	.uleb128 Ltmp865-Lfunc_begin53
	.byte	0
	.uleb128 Ltmp864-Lfunc_begin53
	.uleb128 Lfunc_end53-Ltmp864
	.byte	0
	.byte	0
Lcst_end9:
	.p2align	2

	.section	__TEXT,__text,regular,pure_instructions
	.globl	__ZN3std4sync4mpmc4zero16Channel$LT$T$GT$4recv28_$u7b$$u7b$closure$u7d$$u7d$17h350a688c7c250995E
	.p2align	4, 0x90
__ZN3std4sync4mpmc4zero16Channel$LT$T$GT$4recv28_$u7b$$u7b$closure$u7d$$u7d$17h350a688c7c250995E:
Lfunc_begin54:
	.loc	46 240 0 is_stmt 1
	.cfi_startproc
	pushq	%rbp
	.cfi_def_cfa_offset 16
	.cfi_offset %rbp, -16
	movq	%rsp, %rbp
	.cfi_def_cfa_register %rbp
	subq	$24, %rsp
Ltmp885:
	.loc	46 240 53 prologue_end
	movb	$1, -17(%rbp)
	.loc	46 240 83 is_stmt 0
	movb	-17(%rbp), %al
	andb	$1, %al
	movzbl	%al, %eax
	addq	$24, %rsp
	popq	%rbp
	retq
Ltmp886:
Lfunc_end54:
	.cfi_endproc

	.globl	__ZN3std4sync4mpmc4zero16Channel$LT$T$GT$4recv28_$u7b$$u7b$closure$u7d$$u7d$17h432c9946fcb99df2E
	.p2align	4, 0x90
__ZN3std4sync4mpmc4zero16Channel$LT$T$GT$4recv28_$u7b$$u7b$closure$u7d$$u7d$17h432c9946fcb99df2E:
Lfunc_begin55:
	.loc	46 248 0 is_stmt 1
	.cfi_startproc
	.cfi_personality 155, _rust_eh_personality
	.cfi_lsda 16, Lexception10
	pushq	%rbp
	.cfi_def_cfa_offset 16
	.cfi_offset %rbp, -16
	movq	%rsp, %rbp
	.cfi_def_cfa_register %rbp
	subq	$608, %rsp
	movq	%rdx, -480(%rbp)
	movq	%rsi, -472(%rbp)
Ltmp956:
	movq	%rdi, -464(%rbp)
	movq	%rdi, -456(%rbp)
Ltmp957:
	movq	%rdx, -112(%rbp)
Ltmp958:
	.loc	46 250 17 prologue_end
	movb	$1, -145(%rbp)
	.loc	46 250 40 is_stmt 0
	movq	16(%rsi), %rax
	movq	%rax, -448(%rbp)
	movq	%rax, -104(%rbp)
Ltmp959:
	.loc	45 25 19 is_stmt 1
	movq	%rax, -96(%rbp)
Ltmp960:
	.loc	45 28 17
	cmpq	$2, %rax
	seta	%al
	.loc	45 28 9 is_stmt 0
	xorb	$-1, %al
	testb	$1, %al
Ltmp961:
	jne	LBB55_2
Ltmp962:
	.loc	45 0 9
	movq	-448(%rbp), %rax
	.loc	45 29 9 is_stmt 1
	movq	%rax, -440(%rbp)
Ltmp887:
	leaq	-432(%rbp), %rdi
Ltmp963:
	.loc	46 251 30
	callq	__ZN3std4sync4mpmc4zero15Packet$LT$T$GT$14empty_on_stack17heff1c84de7f457fdE
Ltmp888:
	jmp	LBB55_6
Ltmp964:
LBB55_2:
Ltmp950:
	.loc	45 28 9
	leaq	l___unnamed_25(%rip), %rdi
	leaq	l___unnamed_26(%rip), %rdx
	movl	$25, %esi
	callq	__ZN4core9panicking5panic17hc1bc45270cf64b03E
Ltmp951:
	jmp	LBB55_5
Ltmp965:
LBB55_3:
	.loc	46 279 9
	testb	$1, -145(%rbp)
	jne	LBB55_49
	jmp	LBB55_48
Ltmp966:
LBB55_4:
Ltmp952:
	.loc	46 0 9 is_stmt 0
	movq	%rax, %rcx
	movl	%edx, %eax
	movq	%rcx, -88(%rbp)
	movl	%eax, -80(%rbp)
	jmp	LBB55_3
Ltmp967:
LBB55_5:
	ud2
Ltmp968:
LBB55_6:
Ltmp889:
	movq	-472(%rbp), %rdi
Ltmp969:
	.loc	46 252 13 is_stmt 1
	callq	__ZN84_$LT$std..sync..mutex..MutexGuard$LT$T$GT$$u20$as$u20$core..ops..deref..DerefMut$GT$9deref_mut17ha93e764c1b6752e6E
Ltmp890:
	movq	%rax, -488(%rbp)
	jmp	LBB55_9
Ltmp970:
LBB55_7:
Ltmp948:
	.loc	46 0 13 is_stmt 0
	leaq	-432(%rbp), %rdi
	.loc	46 279 9 is_stmt 1
	callq	__ZN4core3ptr131drop_in_place$LT$std..sync..mpmc..zero..Packet$LT$alloc..boxed..Box$LT$dyn$u20$threadpool..FnBox$u2b$core..marker..Send$GT$$GT$$GT$17h2f2304273c794954E
Ltmp949:
	jmp	LBB55_3
Ltmp971:
LBB55_8:
Ltmp947:
	.loc	46 0 9 is_stmt 0
	movq	%rax, %rcx
	movl	%edx, %eax
	movq	%rcx, -88(%rbp)
	movl	%eax, -80(%rbp)
	jmp	LBB55_7
Ltmp972:
LBB55_9:
	movq	-480(%rbp), %rdi
	movq	-488(%rbp), %rax
Ltmp973:
	.loc	46 252 13 is_stmt 1
	addq	$48, %rax
	movq	%rax, -512(%rbp)
	movq	%rax, -72(%rbp)
	.loc	46 253 17
	movq	-440(%rbp), %rax
	movq	%rax, -504(%rbp)
	movq	%rax, -64(%rbp)
	leaq	-432(%rbp), %rax
	.loc	46 254 17
	movq	%rax, -56(%rbp)
	.loc	46 255 17
	movq	%rdi, -48(%rbp)
Ltmp974:
	.loc	40 50 55
	movq	%rdi, -40(%rbp)
Ltmp891:
Ltmp975:
	.file	47 "/rustc/2c8cc343237b8f7d5a3c3703e3a87f2eb2c54a74/library/std/src/sync/mpmc" "context.rs"
	.loc	47 16 5
	callq	__ZN64_$LT$alloc..sync..Arc$LT$T$GT$$u20$as$u20$core..clone..Clone$GT$5clone17h452e741b7bb32debE
Ltmp892:
	movq	%rax, -496(%rbp)
	jmp	LBB55_10
Ltmp976:
LBB55_10:
	.loc	47 0 5 is_stmt 0
	movq	-512(%rbp), %rdi
	movq	-504(%rbp), %rax
	movq	-496(%rbp), %rcx
	.loc	47 14 17 is_stmt 1
	movq	%rcx, -120(%rbp)
Ltmp977:
	.loc	40 50 29
	movq	%rax, -144(%rbp)
	leaq	-432(%rbp), %rax
	movq	%rax, -136(%rbp)
	movq	-120(%rbp), %rax
	movq	%rax, -128(%rbp)
Ltmp893:
	leaq	-144(%rbp), %rsi
	.loc	40 50 9 is_stmt 0
	callq	__ZN5alloc3vec16Vec$LT$T$C$A$GT$4push17h6a4da3bdbe66af59E
Ltmp894:
	jmp	LBB55_11
Ltmp978:
LBB55_11:
Ltmp895:
	.loc	40 0 9
	movq	-472(%rbp), %rdi
	.loc	46 257 13 is_stmt 1
	callq	__ZN84_$LT$std..sync..mutex..MutexGuard$LT$T$GT$$u20$as$u20$core..ops..deref..DerefMut$GT$9deref_mut17ha93e764c1b6752e6E
Ltmp896:
	movq	%rax, -520(%rbp)
	jmp	LBB55_12
Ltmp979:
LBB55_12:
Ltmp897:
	.loc	46 0 13 is_stmt 0
	movq	-520(%rbp), %rdi
	.loc	46 257 13
	callq	__ZN3std4sync4mpmc5waker5Waker6notify17h471a865f0401af31E
Ltmp898:
	jmp	LBB55_13
Ltmp980:
LBB55_13:
	.loc	46 0 13
	movq	-472(%rbp), %rax
	.loc	46 258 18 is_stmt 1
	movb	$0, -145(%rbp)
	movq	(%rax), %rcx
	movb	8(%rax), %al
	movq	%rcx, -408(%rbp)
	movb	%al, -400(%rbp)
Ltmp899:
	leaq	-408(%rbp), %rdi
Ltmp981:
	.loc	37 980 24
	callq	__ZN4core3ptr85drop_in_place$LT$std..sync..mutex..MutexGuard$LT$std..sync..mpmc..zero..Inner$GT$$GT$17hd50930ac5ac5bfa2E
Ltmp900:
	jmp	LBB55_14
Ltmp982:
LBB55_14:
	.loc	37 0 24 is_stmt 0
	movq	-480(%rbp), %rdi
	movq	-472(%rbp), %rax
	.loc	46 261 37 is_stmt 1
	movq	24(%rax), %rax
	movq	(%rax), %rsi
	movq	8(%rax), %rdx
Ltmp901:
	.loc	46 261 23 is_stmt 0
	callq	__ZN3std4sync4mpmc7context7Context10wait_until17h38a3c2d333acb010E
Ltmp902:
	movq	%rdx, -536(%rbp)
	movq	%rax, -528(%rbp)
	jmp	LBB55_15
Ltmp983:
LBB55_15:
	.loc	46 0 23
	movq	-536(%rbp), %rax
	movq	-528(%rbp), %rcx
	.loc	46 261 23
	movq	%rcx, -392(%rbp)
	movq	%rax, -384(%rbp)
Ltmp984:
	.loc	46 263 19 is_stmt 1
	movq	-392(%rbp), %rax
	movq	%rax, -544(%rbp)
Ltmp985:
	.loc	46 0 19 is_stmt 0
	movq	-544(%rbp), %rax
	leaq	LJTI55_0(%rip), %rcx
	movslq	(%rcx,%rax,4), %rax
	addq	%rcx, %rax
	jmpq	*%rax
Ltmp986:
	.loc	46 263 19
	ud2
LBB55_17:
Ltmp987:
Ltmp945:
	.loc	46 264 38 is_stmt 1
	leaq	l___unnamed_19(%rip), %rdi
	leaq	l___unnamed_34(%rip), %rdx
	movl	$40, %esi
	callq	__ZN4core9panicking5panic17hc1bc45270cf64b03E
Ltmp946:
	jmp	LBB55_5
Ltmp988:
LBB55_18:
	.loc	46 0 38 is_stmt 0
	movq	-472(%rbp), %rax
	.loc	46 266 21 is_stmt 1
	movq	32(%rax), %rsi
Ltmp926:
	leaq	-312(%rbp), %rdi
	callq	__ZN3std4sync5mutex14Mutex$LT$T$GT$4lock17ha36d11b56e3deecbE
Ltmp927:
	jmp	LBB55_37
Ltmp989:
LBB55_19:
	.loc	46 0 21 is_stmt 0
	movq	-472(%rbp), %rax
	.loc	46 270 21 is_stmt 1
	movq	32(%rax), %rsi
Ltmp909:
	leaq	-216(%rbp), %rdi
	callq	__ZN3std4sync5mutex14Mutex$LT$T$GT$4lock17ha36d11b56e3deecbE
Ltmp910:
	jmp	LBB55_26
Ltmp990:
LBB55_20:
Ltmp903:
	.loc	46 0 21 is_stmt 0
	leaq	-432(%rbp), %rdi
	.loc	46 275 21 is_stmt 1
	callq	__ZN3std4sync4mpmc4zero15Packet$LT$T$GT$10wait_ready17h5768133d3e8bc2baE
Ltmp904:
	jmp	LBB55_21
Ltmp991:
LBB55_21:
	.loc	46 0 21 is_stmt 0
	leaq	-432(%rbp), %rdi
	.loc	46 276 33 is_stmt 1
	movq	%rdi, -32(%rbp)
Ltmp992:
	.loc	32 1999 9
	movq	%rdi, -24(%rbp)
Ltmp993:
	.loc	46 276 58
	movq	$0, -168(%rbp)
Ltmp994:
	.loc	7 1545 32
	movq	-168(%rbp), %rsi
	movq	-160(%rbp), %rdx
Ltmp905:
	.loc	7 1545 18 is_stmt 0
	callq	__ZN4core3ptr7replace17h24d1193218c1ea1bE
Ltmp906:
	movq	%rdx, -560(%rbp)
	movq	%rax, -552(%rbp)
	jmp	LBB55_22
Ltmp995:
LBB55_22:
	.loc	7 0 18
	movq	-560(%rbp), %rax
	movq	-552(%rbp), %rcx
	.loc	7 1545 18
	movq	%rcx, -184(%rbp)
	movq	%rax, -176(%rbp)
Ltmp996:
	.loc	29 821 15 is_stmt 1
	movq	-184(%rbp), %rdx
	movl	$1, %eax
	xorl	%ecx, %ecx
	cmpq	$0, %rdx
	cmoveq	%rcx, %rax
	.loc	29 821 9 is_stmt 0
	cmpq	$0, %rax
	jne	LBB55_24
Ltmp997:
Ltmp907:
	.loc	29 823 21 is_stmt 1
	leaq	l___unnamed_28(%rip), %rdi
	leaq	l___unnamed_35(%rip), %rdx
	movl	$43, %esi
	callq	__ZN4core9panicking5panic17hc1bc45270cf64b03E
Ltmp908:
	jmp	LBB55_5
Ltmp998:
LBB55_24:
	.loc	29 0 21 is_stmt 0
	movq	-464(%rbp), %rax
	.loc	29 822 18 is_stmt 1
	movq	-184(%rbp), %rdx
	movq	-176(%rbp), %rcx
	movq	%rdx, -16(%rbp)
	movq	%rcx, -8(%rbp)
Ltmp999:
	.loc	46 276 30
	movq	%rdx, (%rax)
	movq	%rcx, 8(%rax)
Ltmp1000:
LBB55_25:
Ltmp938:
	.loc	46 0 30 is_stmt 0
	leaq	-432(%rbp), %rdi
	.loc	46 279 9 is_stmt 1
	callq	__ZN4core3ptr131drop_in_place$LT$std..sync..mpmc..zero..Packet$LT$alloc..boxed..Box$LT$dyn$u20$threadpool..FnBox$u2b$core..marker..Send$GT$$GT$$GT$17h2f2304273c794954E
Ltmp939:
	jmp	LBB55_47
Ltmp1001:
LBB55_26:
Ltmp911:
	.loc	46 270 21
	leaq	l___unnamed_36(%rip), %rsi
	leaq	-216(%rbp), %rdi
	callq	__ZN4core6result19Result$LT$T$C$E$GT$6unwrap17h21e4f761cad4010dE
Ltmp912:
	movb	%dl, -569(%rbp)
	movq	%rax, -568(%rbp)
	jmp	LBB55_27
Ltmp1002:
LBB55_27:
	.loc	46 0 21 is_stmt 0
	movb	-569(%rbp), %al
	movq	-568(%rbp), %rcx
	.loc	46 270 21
	movq	%rcx, -232(%rbp)
	movb	%al, -224(%rbp)
Ltmp913:
	leaq	-232(%rbp), %rdi
	callq	__ZN84_$LT$std..sync..mutex..MutexGuard$LT$T$GT$$u20$as$u20$core..ops..deref..DerefMut$GT$9deref_mut17ha93e764c1b6752e6E
Ltmp914:
	movq	%rax, -584(%rbp)
	jmp	LBB55_30
Ltmp1003:
LBB55_28:
Ltmp924:
	.loc	46 0 21
	leaq	-232(%rbp), %rdi
	.loc	46 270 83
	callq	__ZN4core3ptr85drop_in_place$LT$std..sync..mutex..MutexGuard$LT$std..sync..mpmc..zero..Inner$GT$$GT$17hd50930ac5ac5bfa2E
Ltmp925:
	jmp	LBB55_7
Ltmp1004:
LBB55_29:
Ltmp923:
	.loc	46 0 83
	movq	%rax, %rcx
	movl	%edx, %eax
	movq	%rcx, -88(%rbp)
	movl	%eax, -80(%rbp)
	jmp	LBB55_28
Ltmp1005:
LBB55_30:
	movq	-584(%rbp), %rsi
	.loc	46 270 21
	addq	$48, %rsi
	.loc	46 270 69
	movq	-440(%rbp), %rdx
Ltmp915:
	leaq	-256(%rbp), %rdi
	.loc	46 270 21
	callq	__ZN3std4sync4mpmc5waker5Waker10unregister17h37eea2e3914e0248E
Ltmp916:
	jmp	LBB55_31
Ltmp1006:
LBB55_31:
	.loc	29 821 15 is_stmt 1
	movq	-240(%rbp), %rdx
	movl	$1, %eax
	xorl	%ecx, %ecx
	cmpq	$0, %rdx
	cmoveq	%rcx, %rax
	.loc	29 821 9 is_stmt 0
	cmpq	$0, %rax
	jne	LBB55_33
Ltmp1007:
Ltmp921:
	.loc	29 823 21 is_stmt 1
	leaq	l___unnamed_28(%rip), %rdi
	leaq	l___unnamed_37(%rip), %rdx
	movl	$43, %esi
	callq	__ZN4core9panicking5panic17hc1bc45270cf64b03E
Ltmp922:
	jmp	LBB55_5
Ltmp1008:
LBB55_33:
	.loc	29 822 18
	movq	-240(%rbp), %rax
	movq	%rax, -264(%rbp)
	movq	-256(%rbp), %rax
	movq	-248(%rbp), %rcx
	movq	%rcx, -272(%rbp)
	movq	%rax, -280(%rbp)
Ltmp917:
	leaq	-280(%rbp), %rdi
Ltmp1009:
	.loc	46 270 83
	callq	__ZN4core3ptr50drop_in_place$LT$std..sync..mpmc..waker..Entry$GT$17h081aa359e2f0e863E
Ltmp918:
	jmp	LBB55_34
Ltmp1010:
LBB55_34:
Ltmp919:
	.loc	46 0 83 is_stmt 0
	leaq	-232(%rbp), %rdi
	.loc	46 270 83
	callq	__ZN4core3ptr85drop_in_place$LT$std..sync..mutex..MutexGuard$LT$std..sync..mpmc..zero..Inner$GT$$GT$17hd50930ac5ac5bfa2E
Ltmp920:
	jmp	LBB55_35
Ltmp1011:
LBB55_35:
	.loc	46 0 83
	movq	-464(%rbp), %rax
	.loc	46 271 25 is_stmt 1
	movb	$1, -185(%rbp)
	.loc	46 271 21 is_stmt 0
	movb	-185(%rbp), %cl
	andb	$1, %cl
	movb	%cl, 8(%rax)
	movq	$0, (%rax)
	.loc	46 271 55
	jmp	LBB55_25
Ltmp1012:
LBB55_36:
Ltmp955:
	.loc	46 248 23 is_stmt 1
	callq	__ZN4core9panicking19panic_cannot_unwind17h1fbca7e1d7f56ae1E
Ltmp1013:
LBB55_37:
Ltmp928:
	.loc	46 266 21
	leaq	l___unnamed_38(%rip), %rsi
	leaq	-312(%rbp), %rdi
	callq	__ZN4core6result19Result$LT$T$C$E$GT$6unwrap17h21e4f761cad4010dE
Ltmp929:
	movb	%dl, -593(%rbp)
	movq	%rax, -592(%rbp)
	jmp	LBB55_38
Ltmp1014:
LBB55_38:
	.loc	46 0 21 is_stmt 0
	movb	-593(%rbp), %al
	movq	-592(%rbp), %rcx
	.loc	46 266 21
	movq	%rcx, -328(%rbp)
	movb	%al, -320(%rbp)
Ltmp930:
	leaq	-328(%rbp), %rdi
	callq	__ZN84_$LT$std..sync..mutex..MutexGuard$LT$T$GT$$u20$as$u20$core..ops..deref..DerefMut$GT$9deref_mut17ha93e764c1b6752e6E
Ltmp931:
	movq	%rax, -608(%rbp)
	jmp	LBB55_41
Ltmp1015:
LBB55_39:
Ltmp943:
	.loc	46 0 21
	leaq	-328(%rbp), %rdi
	.loc	46 266 83
	callq	__ZN4core3ptr85drop_in_place$LT$std..sync..mutex..MutexGuard$LT$std..sync..mpmc..zero..Inner$GT$$GT$17hd50930ac5ac5bfa2E
Ltmp944:
	jmp	LBB55_7
Ltmp1016:
LBB55_40:
Ltmp942:
	.loc	46 0 83
	movq	%rax, %rcx
	movl	%edx, %eax
	movq	%rcx, -88(%rbp)
	movl	%eax, -80(%rbp)
	jmp	LBB55_39
Ltmp1017:
LBB55_41:
	movq	-608(%rbp), %rsi
	.loc	46 266 21
	addq	$48, %rsi
	.loc	46 266 69
	movq	-440(%rbp), %rdx
Ltmp932:
	leaq	-352(%rbp), %rdi
	.loc	46 266 21
	callq	__ZN3std4sync4mpmc5waker5Waker10unregister17h37eea2e3914e0248E
Ltmp933:
	jmp	LBB55_42
Ltmp1018:
LBB55_42:
	.loc	29 821 15 is_stmt 1
	movq	-336(%rbp), %rdx
	movl	$1, %eax
	xorl	%ecx, %ecx
	cmpq	$0, %rdx
	cmoveq	%rcx, %rax
	.loc	29 821 9 is_stmt 0
	cmpq	$0, %rax
	jne	LBB55_44
Ltmp1019:
Ltmp940:
	.loc	29 823 21 is_stmt 1
	leaq	l___unnamed_28(%rip), %rdi
	leaq	l___unnamed_39(%rip), %rdx
	movl	$43, %esi
	callq	__ZN4core9panicking5panic17hc1bc45270cf64b03E
Ltmp941:
	jmp	LBB55_5
Ltmp1020:
LBB55_44:
	.loc	29 822 18
	movq	-336(%rbp), %rax
	movq	%rax, -360(%rbp)
	movq	-352(%rbp), %rax
	movq	-344(%rbp), %rcx
	movq	%rcx, -368(%rbp)
	movq	%rax, -376(%rbp)
Ltmp934:
	leaq	-376(%rbp), %rdi
Ltmp1021:
	.loc	46 266 83
	callq	__ZN4core3ptr50drop_in_place$LT$std..sync..mpmc..waker..Entry$GT$17h081aa359e2f0e863E
Ltmp935:
	jmp	LBB55_45
Ltmp1022:
LBB55_45:
Ltmp936:
	.loc	46 0 83 is_stmt 0
	leaq	-328(%rbp), %rdi
	.loc	46 266 83
	callq	__ZN4core3ptr85drop_in_place$LT$std..sync..mutex..MutexGuard$LT$std..sync..mpmc..zero..Inner$GT$$GT$17hd50930ac5ac5bfa2E
Ltmp937:
	jmp	LBB55_46
Ltmp1023:
LBB55_46:
	.loc	46 0 83
	movq	-464(%rbp), %rax
	.loc	46 267 25 is_stmt 1
	movb	$0, -281(%rbp)
	.loc	46 267 21 is_stmt 0
	movb	-281(%rbp), %cl
	andb	$1, %cl
	movb	%cl, 8(%rax)
	movq	$0, (%rax)
	.loc	46 267 50
	jmp	LBB55_25
Ltmp1024:
LBB55_47:
	.loc	46 0 50
	movq	-456(%rbp), %rax
	.loc	46 279 10 is_stmt 1
	addq	$608, %rsp
	popq	%rbp
	retq
Ltmp1025:
LBB55_48:
	.loc	46 248 23
	movq	-88(%rbp), %rdi
	callq	__Unwind_Resume
Ltmp1026:
LBB55_49:
Ltmp953:
	.loc	46 0 23 is_stmt 0
	movq	-472(%rbp), %rdi
	.loc	46 279 9 is_stmt 1
	callq	__ZN4core3ptr85drop_in_place$LT$std..sync..mutex..MutexGuard$LT$std..sync..mpmc..zero..Inner$GT$$GT$17hd50930ac5ac5bfa2E
Ltmp954:
	jmp	LBB55_48
Ltmp1027:
Lfunc_end55:
	.cfi_endproc
	.p2align	2, 0x90
	.data_region jt32
.set L55_0_set_17, LBB55_17-LJTI55_0
.set L55_0_set_18, LBB55_18-LJTI55_0
.set L55_0_set_19, LBB55_19-LJTI55_0
.set L55_0_set_20, LBB55_20-LJTI55_0
LJTI55_0:
	.long	L55_0_set_17
	.long	L55_0_set_18
	.long	L55_0_set_19
	.long	L55_0_set_20
	.end_data_region
	.section	__TEXT,__gcc_except_tab
	.p2align	2
GCC_except_table55:
Lexception10:
	.byte	255
	.byte	255
	.byte	1
	.uleb128 Lcst_end10-Lcst_begin10
Lcst_begin10:
	.uleb128 Ltmp887-Lfunc_begin55
	.uleb128 Ltmp951-Ltmp887
	.uleb128 Ltmp952-Lfunc_begin55
	.byte	0
	.uleb128 Ltmp889-Lfunc_begin55
	.uleb128 Ltmp890-Ltmp889
	.uleb128 Ltmp947-Lfunc_begin55
	.byte	0
	.uleb128 Ltmp948-Lfunc_begin55
	.uleb128 Ltmp949-Ltmp948
	.uleb128 Ltmp955-Lfunc_begin55
	.byte	0
	.uleb128 Ltmp891-Lfunc_begin55
	.uleb128 Ltmp908-Ltmp891
	.uleb128 Ltmp947-Lfunc_begin55
	.byte	0
	.uleb128 Ltmp938-Lfunc_begin55
	.uleb128 Ltmp939-Ltmp938
	.uleb128 Ltmp952-Lfunc_begin55
	.byte	0
	.uleb128 Ltmp911-Lfunc_begin55
	.uleb128 Ltmp912-Ltmp911
	.uleb128 Ltmp947-Lfunc_begin55
	.byte	0
	.uleb128 Ltmp913-Lfunc_begin55
	.uleb128 Ltmp914-Ltmp913
	.uleb128 Ltmp923-Lfunc_begin55
	.byte	0
	.uleb128 Ltmp924-Lfunc_begin55
	.uleb128 Ltmp925-Ltmp924
	.uleb128 Ltmp955-Lfunc_begin55
	.byte	0
	.uleb128 Ltmp915-Lfunc_begin55
	.uleb128 Ltmp918-Ltmp915
	.uleb128 Ltmp923-Lfunc_begin55
	.byte	0
	.uleb128 Ltmp919-Lfunc_begin55
	.uleb128 Ltmp929-Ltmp919
	.uleb128 Ltmp947-Lfunc_begin55
	.byte	0
	.uleb128 Ltmp930-Lfunc_begin55
	.uleb128 Ltmp931-Ltmp930
	.uleb128 Ltmp942-Lfunc_begin55
	.byte	0
	.uleb128 Ltmp943-Lfunc_begin55
	.uleb128 Ltmp944-Ltmp943
	.uleb128 Ltmp955-Lfunc_begin55
	.byte	0
	.uleb128 Ltmp932-Lfunc_begin55
	.uleb128 Ltmp935-Ltmp932
	.uleb128 Ltmp942-Lfunc_begin55
	.byte	0
	.uleb128 Ltmp936-Lfunc_begin55
	.uleb128 Ltmp937-Ltmp936
	.uleb128 Ltmp947-Lfunc_begin55
	.byte	0
	.uleb128 Ltmp937-Lfunc_begin55
	.uleb128 Ltmp953-Ltmp937
	.byte	0
	.byte	0
	.uleb128 Ltmp953-Lfunc_begin55
	.uleb128 Ltmp954-Ltmp953
	.uleb128 Ltmp955-Lfunc_begin55
	.byte	0
Lcst_end10:
	.p2align	2

	.section	__TEXT,__text,regular,pure_instructions
	.globl	__ZN3std4sync4mpmc5array16Channel$LT$T$GT$10disconnect17h905368f8b72d24e6E
	.p2align	4, 0x90
__ZN3std4sync4mpmc5array16Channel$LT$T$GT$10disconnect17h905368f8b72d24e6E:
Lfunc_begin56:
	.file	48 "/rustc/2c8cc343237b8f7d5a3c3703e3a87f2eb2c54a74/library/std/src/sync/mpmc" "array.rs"
	.loc	48 453 0
	.cfi_startproc
	pushq	%rbp
	.cfi_def_cfa_offset 16
	.cfi_offset %rbp, -16
	movq	%rsp, %rbp
	.cfi_def_cfa_register %rbp
	subq	$64, %rsp
	movq	%rdi, -56(%rbp)
	movq	%rdi, -40(%rbp)
Ltmp1028:
	.loc	48 454 20 prologue_end
	addq	$128, %rdi
	callq	__ZN88_$LT$std..sync..mpmc..utils..CachePadded$LT$T$GT$$u20$as$u20$core..ops..deref..Deref$GT$5deref17h92af23830a34ae9eE
	movq	%rax, %rdi
	movq	-56(%rbp), %rax
	movq	%rdi, -32(%rbp)
	.loc	48 454 39 is_stmt 0
	movq	288(%rax), %rsi
	movq	%rsi, -24(%rbp)
Ltmp1029:
	.loc	19 2508 36 is_stmt 1
	movq	%rdi, -16(%rbp)
	.loc	19 2508 26 is_stmt 0
	movl	$4, %edx
	callq	__ZN4core4sync6atomic9atomic_or17h5b7eb60a134696a2E
	movq	-56(%rbp), %rdi
	movq	%rax, -8(%rbp)
Ltmp1030:
	.loc	48 456 12 is_stmt 1
	andq	288(%rdi), %rax
	cmpq	$0, %rax
	jne	LBB56_2
	.loc	48 0 12 is_stmt 0
	movq	-56(%rbp), %rdi
	.loc	48 457 13 is_stmt 1
	addq	$296, %rdi
	callq	__ZN3std4sync4mpmc5waker9SyncWaker10disconnect17h379a45e66e0cdc47E
	movq	-56(%rbp), %rdi
	.loc	48 458 13
	addq	$368, %rdi
	callq	__ZN3std4sync4mpmc5waker9SyncWaker10disconnect17h379a45e66e0cdc47E
	.loc	48 459 13
	movb	$1, -41(%rbp)
	.loc	48 456 9
	jmp	LBB56_3
LBB56_2:
	.loc	48 461 13
	movb	$0, -41(%rbp)
Ltmp1031:
LBB56_3:
	.loc	48 463 6
	movb	-41(%rbp), %al
	andb	$1, %al
	movzbl	%al, %eax
	addq	$64, %rsp
	popq	%rbp
	retq
Ltmp1032:
Lfunc_end56:
	.cfi_endproc

	.globl	__ZN3std4sync4mpmc5array16Channel$LT$T$GT$10start_recv17hc5141349c0e2f76dE
	.p2align	4, 0x90
__ZN3std4sync4mpmc5array16Channel$LT$T$GT$10start_recv17hc5141349c0e2f76dE:
Lfunc_begin57:
	.loc	48 214 0
	.cfi_startproc
	pushq	%rbp
	.cfi_def_cfa_offset 16
	.cfi_offset %rbp, -16
	movq	%rsp, %rbp
	.cfi_def_cfa_register %rbp
	subq	$464, %rsp
	movq	%rdi, -416(%rbp)
	movq	%rsi, -424(%rbp)
	movq	%rdi, -344(%rbp)
	movq	%rsi, -336(%rbp)
Ltmp1033:
	.loc	48 215 23 prologue_end
	callq	__ZN3std4sync4mpmc5utils7Backoff3new17he8f9e4a8703c1ea7E
	movq	-416(%rbp), %rdi
	movl	%eax, -404(%rbp)
Ltmp1034:
	.loc	48 216 24
	callq	__ZN88_$LT$std..sync..mpmc..utils..CachePadded$LT$T$GT$$u20$as$u20$core..ops..deref..Deref$GT$5deref17h92af23830a34ae9eE
	movq	%rax, %rdi
	movq	%rdi, -320(%rbp)
Ltmp1035:
	.loc	19 2127 38
	movq	%rdi, -312(%rbp)
	.loc	19 2127 26 is_stmt 0
	xorl	%esi, %esi
	callq	__ZN4core4sync6atomic11atomic_load17h02119c845b0293e5E
	movq	%rax, -400(%rbp)
Ltmp1036:
LBB57_1:
	.loc	19 0 26
	movq	-416(%rbp), %rdx
Ltmp1037:
	.loc	48 220 25 is_stmt 1
	movq	-400(%rbp), %rcx
	.loc	48 220 33 is_stmt 0
	movq	288(%rdx), %rax
	.loc	48 220 32
	subq	$1, %rax
	.loc	48 220 25
	andq	%rax, %rcx
	movq	%rcx, -456(%rbp)
	movq	%rcx, -304(%rbp)
Ltmp1038:
	.loc	48 221 23 is_stmt 1
	movq	-400(%rbp), %rax
	.loc	48 221 32 is_stmt 0
	movq	280(%rdx), %rsi
	.loc	48 221 31
	subq	$1, %rsi
	.loc	48 221 30
	xorq	$-1, %rsi
	.loc	48 221 23
	andq	%rsi, %rax
	movq	%rax, -448(%rbp)
	movq	%rax, -296(%rbp)
Ltmp1039:
	.loc	48 225 33 is_stmt 1
	movq	256(%rdx), %rax
	movq	264(%rdx), %rdx
	movq	%rax, -288(%rbp)
	movq	%rdx, -280(%rbp)
	.loc	48 225 59 is_stmt 0
	movq	%rcx, -272(%rbp)
Ltmp1040:
	.loc	23 405 20 is_stmt 1
	movq	%rcx, -264(%rbp)
	.loc	23 405 40 is_stmt 0
	movq	%rax, -256(%rbp)
	movq	%rdx, -248(%rbp)
Ltmp1041:
	.loc	3 240 13 is_stmt 1
	movq	%rax, -240(%rbp)
	movq	%rdx, -232(%rbp)
Ltmp1042:
	.loc	4 1650 9
	movq	%rax, -224(%rbp)
Ltmp1043:
	.loc	3 240 32
	movq	%rcx, -216(%rbp)
Ltmp1044:
	.loc	4 932 18
	movq	%rax, -208(%rbp)
	.loc	4 932 30 is_stmt 0
	movq	%rcx, -200(%rbp)
Ltmp1045:
	.loc	4 473 18 is_stmt 1
	imulq	$24, %rcx, %rcx
	addq	%rcx, %rax
	movq	%rax, -192(%rbp)
	movq	-192(%rbp), %rdi
	movq	%rdi, -440(%rbp)
Ltmp1046:
	.loc	23 405 18
	movq	%rdi, -184(%rbp)
Ltmp1047:
	.loc	48 226 25
	addq	$16, %rdi
	movq	%rdi, -176(%rbp)
Ltmp1048:
	.loc	19 2127 38
	movq	%rdi, -168(%rbp)
	.loc	19 2127 26 is_stmt 0
	movl	$2, %esi
	callq	__ZN4core4sync6atomic11atomic_load17h02119c845b0293e5E
	movq	%rax, %rcx
	movq	%rcx, -432(%rbp)
	movq	%rcx, -160(%rbp)
Ltmp1049:
	.loc	48 229 16 is_stmt 1
	movq	-400(%rbp), %rax
	addq	$1, %rax
	cmpq	%rcx, %rax
	je	LBB57_3
	.loc	48 0 16 is_stmt 0
	movq	-432(%rbp), %rax
	.loc	48 258 23 is_stmt 1
	cmpq	-400(%rbp), %rax
	je	LBB57_12
	jmp	LBB57_11
LBB57_3:
	.loc	48 0 23 is_stmt 0
	movq	-416(%rbp), %rcx
	movq	-456(%rbp), %rax
	.loc	48 230 30 is_stmt 1
	addq	$1, %rax
	cmpq	272(%rcx), %rax
	jb	LBB57_5
	.loc	48 0 30 is_stmt 0
	movq	-448(%rbp), %rax
	movq	-416(%rbp), %rcx
	.loc	48 237 21 is_stmt 1
	movq	%rax, -152(%rbp)
	.loc	48 237 38 is_stmt 0
	movq	280(%rcx), %rcx
	movq	%rcx, -144(%rbp)
Ltmp1050:
	.loc	38 1162 13 is_stmt 1
	addq	%rcx, %rax
	movq	%rax, -392(%rbp)
Ltmp1051:
	.loc	48 230 27
	jmp	LBB57_6
LBB57_5:
	.loc	48 233 21
	movq	-400(%rbp), %rax
	addq	$1, %rax
	movq	%rax, -392(%rbp)
LBB57_6:
	.loc	48 0 21 is_stmt 0
	movq	-416(%rbp), %rdi
Ltmp1052:
	.loc	48 241 23 is_stmt 1
	callq	__ZN88_$LT$std..sync..mpmc..utils..CachePadded$LT$T$GT$$u20$as$u20$core..ops..deref..Deref$GT$5deref17h92af23830a34ae9eE
	movq	%rax, %rdi
	movq	%rdi, -136(%rbp)
	.loc	48 242 21
	movq	-400(%rbp), %rsi
	movq	%rsi, -128(%rbp)
	.loc	48 243 21
	movq	-392(%rbp), %rdx
	movq	%rdx, -120(%rbp)
Ltmp1053:
	.loc	19 2348 50
	movq	%rdi, -112(%rbp)
	movl	$4, %ecx
	xorl	%r8d, %r8d
	.loc	19 2348 21 is_stmt 0
	callq	__ZN4core4sync6atomic28atomic_compare_exchange_weak17hc4df1c161841f008E
	movq	%rdx, -376(%rbp)
	movq	%rax, -384(%rbp)
Ltmp1054:
	.loc	48 241 17 is_stmt 1
	cmpq	$0, -384(%rbp)
	jne	LBB57_8
	.loc	48 0 17 is_stmt 0
	movq	-424(%rbp), %rax
	movq	-416(%rbp), %rdx
	movq	-440(%rbp), %rcx
	.loc	48 249 25 is_stmt 1
	movq	%rcx, (%rax)
	.loc	48 250 45
	movq	-400(%rbp), %rcx
	movq	%rcx, -88(%rbp)
	.loc	48 250 63 is_stmt 0
	movq	280(%rdx), %rdx
	movq	%rdx, -80(%rbp)
Ltmp1055:
	.loc	38 1162 13 is_stmt 1
	addq	%rdx, %rcx
Ltmp1056:
	.loc	48 250 25
	movq	%rcx, 8(%rax)
	.loc	48 251 32
	movb	$1, -405(%rbp)
Ltmp1057:
	.loc	25 1 1
	jmp	LBB57_10
LBB57_8:
Ltmp1058:
	.loc	48 254 25
	leaq	-404(%rbp), %rdi
	callq	__ZN3std4sync4mpmc5utils7Backoff10spin_light17hc134e1460d48d480E
	movq	-416(%rbp), %rdi
	.loc	48 255 32
	callq	__ZN88_$LT$std..sync..mpmc..utils..CachePadded$LT$T$GT$$u20$as$u20$core..ops..deref..Deref$GT$5deref17h92af23830a34ae9eE
	movq	%rax, %rdi
	movq	%rdi, -104(%rbp)
Ltmp1059:
	.loc	19 2127 38
	movq	%rdi, -96(%rbp)
	.loc	19 2127 26 is_stmt 0
	xorl	%esi, %esi
	callq	__ZN4core4sync6atomic11atomic_load17h02119c845b0293e5E
Ltmp1060:
	.loc	48 255 25 is_stmt 1
	movq	%rax, -400(%rbp)
Ltmp1061:
LBB57_9:
	.loc	48 218 9
	jmp	LBB57_1
Ltmp1062:
LBB57_10:
	.loc	48 284 6
	movb	-405(%rbp), %al
	andb	$1, %al
	movzbl	%al, %eax
	addq	$464, %rsp
	popq	%rbp
	retq
LBB57_11:
Ltmp1063:
	.loc	48 280 17
	leaq	-404(%rbp), %rdi
	callq	__ZN3std4sync4mpmc5utils7Backoff10spin_heavy17haca4868445df5df8E
	movq	-416(%rbp), %rdi
	.loc	48 281 24
	callq	__ZN88_$LT$std..sync..mpmc..utils..CachePadded$LT$T$GT$$u20$as$u20$core..ops..deref..Deref$GT$5deref17h92af23830a34ae9eE
	movq	%rax, %rdi
	movq	%rdi, -16(%rbp)
Ltmp1064:
	.loc	19 2127 38
	movq	%rdi, -8(%rbp)
	.loc	19 2127 26 is_stmt 0
	xorl	%esi, %esi
	callq	__ZN4core4sync6atomic11atomic_load17h02119c845b0293e5E
Ltmp1065:
	.loc	48 281 17 is_stmt 1
	movq	%rax, -400(%rbp)
	.loc	48 258 20
	jmp	LBB57_18
LBB57_12:
	.loc	48 259 31
	movb	$4, -361(%rbp)
	.loc	48 259 17 is_stmt 0
	movzbl	-361(%rbp), %edi
	callq	__ZN4core4sync6atomic5fence17h33503aa3d11291d7E
	movq	-416(%rbp), %rdi
	.loc	48 260 28 is_stmt 1
	addq	$128, %rdi
	callq	__ZN88_$LT$std..sync..mpmc..utils..CachePadded$LT$T$GT$$u20$as$u20$core..ops..deref..Deref$GT$5deref17h92af23830a34ae9eE
	movq	%rax, %rdi
	movq	%rdi, -72(%rbp)
Ltmp1066:
	.loc	19 2127 38
	movq	%rdi, -64(%rbp)
	.loc	19 2127 26 is_stmt 0
	xorl	%esi, %esi
	callq	__ZN4core4sync6atomic11atomic_load17h02119c845b0293e5E
	movq	-416(%rbp), %rcx
	movq	%rax, -464(%rbp)
	movq	%rax, -56(%rbp)
Ltmp1067:
	.loc	48 263 29 is_stmt 1
	movq	288(%rcx), %rcx
	.loc	48 263 28 is_stmt 0
	xorq	$-1, %rcx
	.loc	48 263 20
	andq	%rcx, %rax
	cmpq	-400(%rbp), %rax
	je	LBB57_14
	.loc	48 276 17 is_stmt 1
	leaq	-404(%rbp), %rdi
	callq	__ZN3std4sync4mpmc5utils7Backoff10spin_light17hc134e1460d48d480E
	movq	-416(%rbp), %rdi
	.loc	48 277 24
	callq	__ZN88_$LT$std..sync..mpmc..utils..CachePadded$LT$T$GT$$u20$as$u20$core..ops..deref..Deref$GT$5deref17h92af23830a34ae9eE
	movq	%rax, %rdi
	movq	%rdi, -32(%rbp)
Ltmp1068:
	.loc	19 2127 38
	movq	%rdi, -24(%rbp)
	.loc	19 2127 26 is_stmt 0
	xorl	%esi, %esi
	callq	__ZN4core4sync6atomic11atomic_load17h02119c845b0293e5E
Ltmp1069:
	.loc	48 277 17 is_stmt 1
	movq	%rax, -400(%rbp)
Ltmp1070:
	.loc	48 258 20
	jmp	LBB57_18
LBB57_14:
	.loc	48 0 20 is_stmt 0
	movq	-416(%rbp), %rcx
	movq	-464(%rbp), %rax
Ltmp1071:
	.loc	48 265 24 is_stmt 1
	andq	288(%rcx), %rax
	cmpq	$0, %rax
	jne	LBB57_16
	.loc	48 272 32
	movb	$0, -405(%rbp)
	.loc	48 272 25 is_stmt 0
	jmp	LBB57_17
LBB57_16:
	.loc	48 0 25
	movq	-424(%rbp), %rax
Ltmp1072:
	.loc	5 568 14 is_stmt 1
	movq	$0, -48(%rbp)
	movq	-48(%rbp), %rcx
	movq	%rcx, -40(%rbp)
Ltmp1073:
	.loc	6 118 36
	movq	%rcx, -352(%rbp)
	.loc	6 118 14 is_stmt 0
	movq	-352(%rbp), %rcx
	movq	%rcx, -360(%rbp)
	movq	-360(%rbp), %rcx
Ltmp1074:
	.loc	48 267 25 is_stmt 1
	movq	%rcx, (%rax)
	.loc	48 268 25
	movq	$0, 8(%rax)
	.loc	48 269 32
	movb	$1, -405(%rbp)
Ltmp1075:
LBB57_17:
	.loc	25 1 1
	jmp	LBB57_10
LBB57_18:
	.loc	48 229 13
	jmp	LBB57_9
Ltmp1076:
Lfunc_end57:
	.cfi_endproc

	.globl	__ZN3std4sync4mpmc5array16Channel$LT$T$GT$15is_disconnected17hb9b8be726d10005fE
	.p2align	4, 0x90
__ZN3std4sync4mpmc5array16Channel$LT$T$GT$15is_disconnected17hb9b8be726d10005fE:
Lfunc_begin58:
	.loc	48 466 0
	.cfi_startproc
	pushq	%rbp
	.cfi_def_cfa_offset 16
	.cfi_offset %rbp, -16
	movq	%rsp, %rbp
	.cfi_def_cfa_register %rbp
	subq	$32, %rsp
	movq	%rdi, -32(%rbp)
	movq	%rdi, -24(%rbp)
Ltmp1077:
	.loc	48 467 9 prologue_end
	addq	$128, %rdi
	callq	__ZN88_$LT$std..sync..mpmc..utils..CachePadded$LT$T$GT$$u20$as$u20$core..ops..deref..Deref$GT$5deref17h92af23830a34ae9eE
	movq	%rax, %rdi
	movq	%rdi, -16(%rbp)
Ltmp1078:
	.loc	19 2127 38
	movq	%rdi, -8(%rbp)
	.loc	19 2127 26 is_stmt 0
	movl	$4, %esi
	callq	__ZN4core4sync6atomic11atomic_load17h02119c845b0293e5E
	movq	-32(%rbp), %rdi
Ltmp1079:
	.loc	48 467 9 is_stmt 1
	andq	288(%rdi), %rax
	cmpq	$0, %rax
	setne	%al
	.loc	48 468 6
	andb	$1, %al
	movzbl	%al, %eax
	addq	$32, %rsp
	popq	%rbp
	retq
Ltmp1080:
Lfunc_end58:
	.cfi_endproc

	.globl	__ZN3std4sync4mpmc5array16Channel$LT$T$GT$3len17h091cfef717729a3dE
	.p2align	4, 0x90
__ZN3std4sync4mpmc5array16Channel$LT$T$GT$3len17h091cfef717729a3dE:
Lfunc_begin59:
	.loc	48 420 0
	.cfi_startproc
	pushq	%rbp
	.cfi_def_cfa_offset 16
	.cfi_offset %rbp, -16
	movq	%rsp, %rbp
	.cfi_def_cfa_register %rbp
	subq	$144, %rsp
	movq	%rdi, -104(%rbp)
	movq	%rdi, -88(%rbp)
LBB59_1:
	movq	-104(%rbp), %rdi
Ltmp1081:
	.loc	48 423 24 prologue_end
	addq	$128, %rdi
	callq	__ZN88_$LT$std..sync..mpmc..utils..CachePadded$LT$T$GT$$u20$as$u20$core..ops..deref..Deref$GT$5deref17h92af23830a34ae9eE
	movq	%rax, %rdi
	movq	%rdi, -80(%rbp)
Ltmp1082:
	.loc	19 2127 38
	movq	%rdi, -72(%rbp)
	.loc	19 2127 26 is_stmt 0
	movl	$4, %esi
	callq	__ZN4core4sync6atomic11atomic_load17h02119c845b0293e5E
	movq	-104(%rbp), %rdi
	movq	%rax, -112(%rbp)
	movq	%rax, -64(%rbp)
Ltmp1083:
	.loc	48 424 24 is_stmt 1
	callq	__ZN88_$LT$std..sync..mpmc..utils..CachePadded$LT$T$GT$$u20$as$u20$core..ops..deref..Deref$GT$5deref17h92af23830a34ae9eE
	movq	%rax, %rdi
	movq	%rdi, -56(%rbp)
Ltmp1084:
	.loc	19 2127 38
	movq	%rdi, -48(%rbp)
	.loc	19 2127 26 is_stmt 0
	movl	$4, %esi
	callq	__ZN4core4sync6atomic11atomic_load17h02119c845b0293e5E
	movq	-104(%rbp), %rdi
	movq	%rax, -120(%rbp)
	movq	%rax, -40(%rbp)
Ltmp1085:
	.loc	48 427 16 is_stmt 1
	addq	$128, %rdi
	callq	__ZN88_$LT$std..sync..mpmc..utils..CachePadded$LT$T$GT$$u20$as$u20$core..ops..deref..Deref$GT$5deref17h92af23830a34ae9eE
	movq	%rax, %rdi
	movq	%rdi, -32(%rbp)
Ltmp1086:
	.loc	19 2127 38
	movq	%rdi, -24(%rbp)
	.loc	19 2127 26 is_stmt 0
	movl	$4, %esi
	callq	__ZN4core4sync6atomic11atomic_load17h02119c845b0293e5E
	movq	-112(%rbp), %rcx
Ltmp1087:
	.loc	48 427 16 is_stmt 1
	cmpq	%rcx, %rax
	je	LBB59_3
Ltmp1088:
	.loc	48 421 9
	jmp	LBB59_1
LBB59_3:
	.loc	48 0 9 is_stmt 0
	movq	-112(%rbp), %rcx
	movq	-104(%rbp), %rdx
	movq	-120(%rbp), %rax
Ltmp1089:
	.loc	48 428 35 is_stmt 1
	movq	288(%rdx), %rsi
	.loc	48 428 34 is_stmt 0
	subq	$1, %rsi
	.loc	48 428 27
	andq	%rsi, %rax
	movq	%rax, -136(%rbp)
	movq	%rax, -16(%rbp)
Ltmp1090:
	.loc	48 429 35 is_stmt 1
	movq	288(%rdx), %rdx
	.loc	48 429 34 is_stmt 0
	subq	$1, %rdx
	.loc	48 429 27
	andq	%rdx, %rcx
	movq	%rcx, -128(%rbp)
	movq	%rcx, -8(%rbp)
Ltmp1091:
	.loc	48 431 27 is_stmt 1
	cmpq	%rcx, %rax
	jb	LBB59_5
	.loc	48 0 27 is_stmt 0
	movq	-136(%rbp), %rax
	movq	-128(%rbp), %rcx
	.loc	48 433 27 is_stmt 1
	cmpq	%rcx, %rax
	ja	LBB59_8
	jmp	LBB59_7
LBB59_5:
	.loc	48 0 27 is_stmt 0
	movq	-136(%rbp), %rcx
	movq	-128(%rbp), %rax
	.loc	48 432 21 is_stmt 1
	subq	%rcx, %rax
	movq	%rax, -96(%rbp)
Ltmp1092:
LBB59_6:
	.loc	48 442 6
	movq	-96(%rbp), %rax
	addq	$144, %rsp
	popq	%rbp
	retq
LBB59_7:
	.loc	48 0 6 is_stmt 0
	movq	-120(%rbp), %rcx
	movq	-112(%rbp), %rax
	movq	-104(%rbp), %rdx
Ltmp1093:
	.loc	48 435 36 is_stmt 1
	movq	288(%rdx), %rdx
	.loc	48 435 35 is_stmt 0
	xorq	$-1, %rdx
	.loc	48 435 27
	andq	%rdx, %rax
	cmpq	%rcx, %rax
	je	LBB59_11
	jmp	LBB59_10
LBB59_8:
	.loc	48 0 27
	movq	-128(%rbp), %rcx
	movq	-136(%rbp), %rdx
	movq	-104(%rbp), %rax
	.loc	48 434 21 is_stmt 1
	movq	272(%rax), %rax
	subq	%rdx, %rax
	addq	%rcx, %rax
	movq	%rax, -96(%rbp)
LBB59_9:
	.loc	48 431 24
	jmp	LBB59_6
LBB59_10:
	.loc	48 0 24 is_stmt 0
	movq	-104(%rbp), %rax
	.loc	48 438 21 is_stmt 1
	movq	272(%rax), %rax
	movq	%rax, -96(%rbp)
	.loc	48 435 24
	jmp	LBB59_12
LBB59_11:
	.loc	48 436 21
	movq	$0, -96(%rbp)
LBB59_12:
	.loc	48 433 24
	jmp	LBB59_9
Ltmp1094:
Lfunc_end59:
	.cfi_endproc

	.globl	__ZN3std4sync4mpmc5array16Channel$LT$T$GT$4read17h93ab19276a81d2f8E
	.p2align	4, 0x90
__ZN3std4sync4mpmc5array16Channel$LT$T$GT$4read17h93ab19276a81d2f8E:
Lfunc_begin60:
	.loc	48 287 0
	.cfi_startproc
	.cfi_personality 155, _rust_eh_personality
	.cfi_lsda 16, Lexception11
	pushq	%rbp
	.cfi_def_cfa_offset 16
	.cfi_offset %rbp, -16
	movq	%rsp, %rbp
	.cfi_def_cfa_register %rbp
	subq	$272, %rsp
	movq	%rdi, -272(%rbp)
	movq	%rsi, -264(%rbp)
	movq	%rdi, -200(%rbp)
	movq	%rsi, -192(%rbp)
Ltmp1103:
	.loc	48 288 12 prologue_end
	movq	(%rsi), %rax
	movq	%rax, -184(%rbp)
Ltmp1104:
	.loc	4 53 36
	movq	%rax, -224(%rbp)
	.loc	4 53 18 is_stmt 0
	movq	-224(%rbp), %rax
	movq	%rax, -176(%rbp)
Ltmp1105:
	.loc	4 39 13 is_stmt 1
	movq	%rax, -168(%rbp)
Ltmp1106:
	.loc	4 209 33
	movq	%rax, -160(%rbp)
	.loc	4 209 18 is_stmt 0
	movq	%rax, -152(%rbp)
Ltmp1107:
	.loc	48 288 12 is_stmt 1
	cmpq	$0, -152(%rbp)
	jne	LBB60_2
	.loc	48 290 20
	movq	$0, -256(%rbp)
	.loc	48 302 6
	jmp	LBB60_9
LBB60_2:
	.loc	48 0 6 is_stmt 0
	movq	-264(%rbp), %rax
	.loc	48 293 33 is_stmt 1
	movq	(%rax), %rdi
	.loc	48 293 30 is_stmt 0
	movq	%rdi, -144(%rbp)
Ltmp1108:
	.loc	48 296 19 is_stmt 1
	movq	%rdi, -136(%rbp)
Ltmp1109:
	.loc	32 1999 9
	movq	%rdi, -128(%rbp)
Ltmp1110:
	.loc	7 1318 23
	movq	%rdi, -120(%rbp)
	leaq	-216(%rbp), %rcx
Ltmp1111:
	.loc	5 1157 34
	movq	%rcx, -112(%rbp)
	.loc	5 1157 9 is_stmt 0
	movq	(%rdi), %rcx
	movq	8(%rdi), %rdx
	movq	%rdx, -208(%rbp)
	movq	%rcx, -216(%rbp)
	.loc	5 1158 9 is_stmt 1
	movq	-216(%rbp), %rdx
	movq	-208(%rbp), %rcx
	movq	%rdx, -104(%rbp)
	movq	%rcx, -96(%rbp)
Ltmp1112:
	.loc	39 627 38
	movq	%rdx, -88(%rbp)
	movq	%rcx, -80(%rbp)
Ltmp1113:
	.loc	41 89 9
	movq	%rdx, -72(%rbp)
	movq	%rcx, -64(%rbp)
Ltmp1114:
	.loc	39 627 38
	movq	%rdx, -56(%rbp)
	movq	%rcx, -48(%rbp)
Ltmp1115:
	.loc	41 89 9
	movq	%rdx, -240(%rbp)
	movq	%rcx, -232(%rbp)
Ltmp1116:
	.loc	48 297 9
	addq	$16, %rdi
	movq	%rdi, -40(%rbp)
	.loc	48 297 26 is_stmt 0
	movq	8(%rax), %rsi
	movq	%rsi, -32(%rbp)
Ltmp1117:
	.loc	19 2154 39 is_stmt 1
	movq	%rdi, -24(%rbp)
Ltmp1095:
	movl	$1, %edx
	.loc	19 2154 26 is_stmt 0
	callq	__ZN4core4sync6atomic12atomic_store17h47641797d0f7f2b6E
Ltmp1096:
	jmp	LBB60_5
Ltmp1118:
LBB60_3:
Ltmp1100:
	.loc	19 0 26
	leaq	-240(%rbp), %rdi
	.loc	48 302 5 is_stmt 1
	callq	__ZN4core3ptr94drop_in_place$LT$alloc..boxed..Box$LT$dyn$u20$threadpool..FnBox$u2b$core..marker..Send$GT$$GT$17h34fee65df116ba20E
Ltmp1101:
	jmp	LBB60_8
LBB60_4:
Ltmp1099:
	.loc	48 0 5 is_stmt 0
	movq	%rax, %rcx
	movl	%edx, %eax
	movq	%rcx, -16(%rbp)
	movl	%eax, -8(%rbp)
	jmp	LBB60_3
LBB60_5:
	movq	-272(%rbp), %rdi
Ltmp1119:
	.loc	48 300 9 is_stmt 1
	addq	$296, %rdi
Ltmp1097:
	callq	__ZN3std4sync4mpmc5waker9SyncWaker6notify17h5348ac5af42bad8fE
Ltmp1098:
	jmp	LBB60_6
LBB60_6:
	.loc	48 301 12
	movq	-240(%rbp), %rcx
	movq	-232(%rbp), %rax
	.loc	48 301 9 is_stmt 0
	movq	%rcx, -256(%rbp)
	movq	%rax, -248(%rbp)
Ltmp1120:
	.loc	48 302 6 is_stmt 1
	jmp	LBB60_9
LBB60_7:
Ltmp1102:
	.loc	48 287 5
	callq	__ZN4core9panicking19panic_cannot_unwind17h1fbca7e1d7f56ae1E
LBB60_8:
	movq	-16(%rbp), %rdi
	callq	__Unwind_Resume
LBB60_9:
	.loc	48 302 6
	movq	-256(%rbp), %rax
	movq	-248(%rbp), %rdx
	addq	$272, %rsp
	popq	%rbp
	retq
Ltmp1121:
Lfunc_end60:
	.cfi_endproc
	.section	__TEXT,__gcc_except_tab
	.p2align	2
GCC_except_table60:
Lexception11:
	.byte	255
	.byte	255
	.byte	1
	.uleb128 Lcst_end11-Lcst_begin11
Lcst_begin11:
	.uleb128 Ltmp1095-Lfunc_begin60
	.uleb128 Ltmp1096-Ltmp1095
	.uleb128 Ltmp1099-Lfunc_begin60
	.byte	0
	.uleb128 Ltmp1100-Lfunc_begin60
	.uleb128 Ltmp1101-Ltmp1100
	.uleb128 Ltmp1102-Lfunc_begin60
	.byte	0
	.uleb128 Ltmp1097-Lfunc_begin60
	.uleb128 Ltmp1098-Ltmp1097
	.uleb128 Ltmp1099-Lfunc_begin60
	.byte	0
	.uleb128 Ltmp1098-Lfunc_begin60
	.uleb128 Lfunc_end60-Ltmp1098
	.byte	0
	.byte	0
Lcst_end11:
	.p2align	2

	.section	__TEXT,__text,regular,pure_instructions
	.globl	__ZN3std4sync4mpmc5array16Channel$LT$T$GT$4recv17hae009948c2a349c0E
	.p2align	4, 0x90
__ZN3std4sync4mpmc5array16Channel$LT$T$GT$4recv17hae009948c2a349c0E:
Lfunc_begin61:
	.loc	48 379 0
	.cfi_startproc
	pushq	%rbp
	.cfi_def_cfa_offset 16
	.cfi_offset %rbp, -16
	movq	%rsp, %rbp
	.cfi_def_cfa_register %rbp
	subq	$224, %rsp
	movq	%rsi, -224(%rbp)
	movq	%rdi, -216(%rbp)
	movq	%rdi, -208(%rbp)
	movq	%rdx, -200(%rbp)
	movq	%rcx, -192(%rbp)
	movq	%rsi, -80(%rbp)
Ltmp1122:
	.loc	48 380 26 prologue_end
	leaq	-184(%rbp), %rdi
	callq	__ZN73_$LT$std..sync..mpmc..select..Token$u20$as$u20$core..default..Default$GT$7default17h7ebf05d2b0e5cf47E
	.loc	48 380 21 is_stmt 0
	leaq	-184(%rbp), %rax
	movq	%rax, -72(%rbp)
LBB61_1:
	.loc	48 0 21
	movq	-224(%rbp), %rdi
Ltmp1123:
	.loc	48 382 16 is_stmt 1
	leaq	-184(%rbp), %rsi
	callq	__ZN3std4sync4mpmc5array16Channel$LT$T$GT$10start_recv17hc5141349c0e2f76dE
	testb	$1, %al
	jne	LBB61_3
Ltmp1124:
	.loc	48 387 20
	cmpq	$1, -200(%rbp)
	je	LBB61_5
	jmp	LBB61_6
Ltmp1125:
LBB61_3:
	.loc	48 0 20 is_stmt 0
	movq	-224(%rbp), %rdi
	.loc	48 383 36 is_stmt 1
	leaq	-184(%rbp), %rsi
	callq	__ZN3std4sync4mpmc5array16Channel$LT$T$GT$4read17h93ab19276a81d2f8E
	movq	-216(%rbp), %rdi
	movq	%rax, %rsi
	movq	%rsi, -64(%rbp)
	movq	%rdx, -56(%rbp)
Ltmp1126:
	.loc	48 384 24
	callq	__ZN4core6result19Result$LT$T$C$E$GT$7map_err17hc880b462791f7859E
Ltmp1127:
LBB61_4:
	.loc	48 0 24 is_stmt 0
	movq	-208(%rbp), %rax
	.loc	48 417 6 is_stmt 1
	addq	$224, %rsp
	popq	%rbp
	retq
LBB61_5:
Ltmp1128:
	.loc	48 387 25
	movq	-192(%rbp), %rax
	movq	%rax, -144(%rbp)
	.loc	48 388 20
	callq	__ZN3std4time7Instant3now17h325ddce48db31cf2E
	movq	%rax, -128(%rbp)
	leaq	-128(%rbp), %rax
	movq	%rax, -48(%rbp)
	.loc	48 388 38 is_stmt 0
	leaq	-144(%rbp), %rax
	movq	%rax, -40(%rbp)
Ltmp1129:
	.loc	42 1153 18 is_stmt 1
	leaq	-128(%rbp), %rax
	movq	%rax, -32(%rbp)
	.loc	42 1153 35 is_stmt 0
	leaq	-144(%rbp), %rax
	movq	%rax, -24(%rbp)
Ltmp1130:
	.loc	43 154 20 is_stmt 1
	leaq	-128(%rbp), %rax
	movq	%rax, -16(%rbp)
	leaq	-144(%rbp), %rax
	movq	%rax, -8(%rbp)
Ltmp1131:
	.loc	44 170 9
	leaq	-128(%rbp), %rdi
	leaq	-144(%rbp), %rsi
	callq	__ZN4core3cmp5impls55_$LT$impl$u20$core..cmp..PartialOrd$u20$for$u20$u64$GT$11partial_cmp17he4cde27e5fdb2d79E
	movb	%al, -81(%rbp)
Ltmp1132:
	.loc	42 1153 18
	movl	$1, %eax
	xorl	%ecx, %ecx
	cmpb	$2, -81(%rbp)
	cmoveq	%rcx, %rax
	.loc	28 344 9
	cmpq	$1, %rax
	je	LBB61_7
	jmp	LBB61_8
Ltmp1133:
LBB61_6:
	.loc	28 0 9 is_stmt 0
	movq	-224(%rbp), %rax
	.loc	48 393 27 is_stmt 1
	leaq	-184(%rbp), %rcx
	movq	%rcx, -112(%rbp)
	movq	%rax, -104(%rbp)
	leaq	-200(%rbp), %rax
	movq	%rax, -96(%rbp)
	.loc	48 393 13 is_stmt 0
	leaq	-112(%rbp), %rdi
	callq	__ZN3std4sync4mpmc7context7Context4with17h468a5ebd74300d70E
	.loc	48 381 9 is_stmt 1
	jmp	LBB61_1
LBB61_7:
Ltmp1134:
	.loc	42 1153 18
	movb	-81(%rbp), %al
	.loc	28 344 9
	subb	$2, %al
	jb	LBB61_9
	jmp	LBB61_8
LBB61_8:
	.loc	28 346 18
	movb	$0, -129(%rbp)
	jmp	LBB61_10
LBB61_9:
	.loc	28 345 48
	movb	$1, -129(%rbp)
Ltmp1135:
LBB61_10:
	.loc	48 388 20
	testb	$1, -129(%rbp)
	jne	LBB61_12
Ltmp1136:
	.loc	48 387 13
	jmp	LBB61_6
LBB61_12:
	.loc	48 0 13 is_stmt 0
	movq	-216(%rbp), %rax
Ltmp1137:
	.loc	48 389 32 is_stmt 1
	movb	$0, -113(%rbp)
	.loc	48 389 28 is_stmt 0
	movb	-113(%rbp), %cl
	andb	$1, %cl
	movb	%cl, 8(%rax)
	movq	$0, (%rax)
Ltmp1138:
	.loc	25 1 1 is_stmt 1
	jmp	LBB61_4
Ltmp1139:
Lfunc_end61:
	.cfi_endproc

	.globl	__ZN3std4sync4mpmc5array16Channel$LT$T$GT$4recv28_$u7b$$u7b$closure$u7d$$u7d$17hd1fba4a2cf27c5e4E
	.p2align	4, 0x90
__ZN3std4sync4mpmc5array16Channel$LT$T$GT$4recv28_$u7b$$u7b$closure$u7d$$u7d$17hd1fba4a2cf27c5e4E:
Lfunc_begin62:
	.loc	48 384 0
	.cfi_startproc
	pushq	%rbp
	.cfi_def_cfa_offset 16
	.cfi_offset %rbp, -16
	movq	%rsp, %rbp
	.cfi_def_cfa_register %rbp
	subq	$24, %rsp
Ltmp1140:
	.loc	48 384 40 prologue_end
	movb	$1, -17(%rbp)
	.loc	48 384 70 is_stmt 0
	movb	-17(%rbp), %al
	andb	$1, %al
	movzbl	%al, %eax
	addq	$24, %rsp
	popq	%rbp
	retq
Ltmp1141:
Lfunc_end62:
	.cfi_endproc

	.globl	__ZN3std4sync4mpmc5array16Channel$LT$T$GT$4recv28_$u7b$$u7b$closure$u7d$$u7d$17hd75e6d6ce5043452E
	.p2align	4, 0x90
__ZN3std4sync4mpmc5array16Channel$LT$T$GT$4recv28_$u7b$$u7b$closure$u7d$$u7d$17hd75e6d6ce5043452E:
Lfunc_begin63:
	.loc	48 393 0 is_stmt 1
	.cfi_startproc
	pushq	%rbp
	.cfi_def_cfa_offset 16
	.cfi_offset %rbp, -16
	movq	%rsp, %rbp
	.cfi_def_cfa_register %rbp
	subq	$160, %rsp
	movq	%rdi, -144(%rbp)
Ltmp1142:
	movq	%rsi, -136(%rbp)
Ltmp1143:
	movq	%rsi, -24(%rbp)
Ltmp1144:
	.loc	48 395 44 prologue_end
	movq	(%rdi), %rax
	movq	%rax, -128(%rbp)
	movq	%rax, -16(%rbp)
Ltmp1145:
	.loc	45 25 19
	movq	%rax, -8(%rbp)
Ltmp1146:
	.loc	45 28 17
	cmpq	$2, %rax
	seta	%al
	.loc	45 28 9 is_stmt 0
	xorb	$-1, %al
	testb	$1, %al
Ltmp1147:
	jne	LBB63_2
Ltmp1148:
	.loc	45 0 9
	movq	-144(%rbp), %rax
	movq	-136(%rbp), %rdx
	movq	-128(%rbp), %rcx
	.loc	45 29 9 is_stmt 1
	movq	%rcx, -120(%rbp)
Ltmp1149:
	.loc	48 396 17
	movq	8(%rax), %rdi
	addq	$368, %rdi
	.loc	48 396 41 is_stmt 0
	movq	-120(%rbp), %rsi
	.loc	48 396 17
	callq	__ZN3std4sync4mpmc5waker9SyncWaker8register17h2776a0c36810bdd5E
	movq	-144(%rbp), %rax
	.loc	48 399 21 is_stmt 1
	movq	8(%rax), %rdi
	callq	__ZN3std4sync4mpmc5array16Channel$LT$T$GT$8is_empty17hfd86e8f1c857f476E
	.loc	48 399 20 is_stmt 0
	xorb	$-1, %al
	testb	$1, %al
	jne	LBB63_4
	jmp	LBB63_3
Ltmp1150:
LBB63_2:
	.loc	45 28 9 is_stmt 1
	leaq	l___unnamed_25(%rip), %rdi
	leaq	l___unnamed_26(%rip), %rdx
	movl	$25, %esi
	callq	__ZN4core9panicking5panic17hc1bc45270cf64b03E
Ltmp1151:
LBB63_3:
	.loc	45 0 9 is_stmt 0
	movq	-144(%rbp), %rax
Ltmp1152:
	.loc	48 399 40 is_stmt 1
	movq	8(%rax), %rdi
	callq	__ZN3std4sync4mpmc5array16Channel$LT$T$GT$15is_disconnected17hb9b8be726d10005fE
	.loc	48 399 20 is_stmt 0
	andb	$1, %al
	movb	%al, -105(%rbp)
	jmp	LBB63_5
Ltmp1153:
LBB63_4:
	movb	$1, -105(%rbp)
Ltmp1154:
LBB63_5:
	testb	$1, -105(%rbp)
	jne	LBB63_7
Ltmp1155:
LBB63_6:
	.loc	48 0 20
	movq	-136(%rbp), %rdi
	movq	-144(%rbp), %rax
	.loc	48 404 41 is_stmt 1
	movq	16(%rax), %rax
	movq	(%rax), %rsi
	movq	8(%rax), %rdx
	.loc	48 404 27 is_stmt 0
	callq	__ZN3std4sync4mpmc7context7Context10wait_until17h38a3c2d333acb010E
	movq	%rdx, -80(%rbp)
	movq	%rax, -88(%rbp)
Ltmp1156:
	.loc	48 406 23 is_stmt 1
	movq	-88(%rbp), %rax
	movq	%rax, -152(%rbp)
	.loc	48 406 17 is_stmt 0
	testq	%rax, %rax
	je	LBB63_9
	jmp	LBB63_14
Ltmp1157:
LBB63_14:
	.loc	48 0 17
	movq	-152(%rbp), %rax
	.loc	48 406 17
	decq	%rax
	subq	$2, %rax
	jb	LBB63_10
	jmp	LBB63_15
Ltmp1158:
LBB63_15:
	jmp	LBB63_11
Ltmp1159:
LBB63_7:
	.loc	48 0 17
	movq	-136(%rbp), %rdi
	.loc	48 400 43 is_stmt 1
	movq	$1, -104(%rbp)
	.loc	48 400 29 is_stmt 0
	movq	-104(%rbp), %rsi
	movq	-96(%rbp), %rdx
	callq	__ZN3std4sync4mpmc7context7Context10try_select17h1eaae579495c2b2aE
	.loc	48 399 17 is_stmt 1
	jmp	LBB63_6
Ltmp1160:
	.loc	48 406 23
	ud2
LBB63_9:
Ltmp1161:
	.loc	48 407 42
	leaq	l___unnamed_19(%rip), %rdi
	leaq	l___unnamed_40(%rip), %rdx
	movl	$40, %esi
	callq	__ZN4core9panicking5panic17hc1bc45270cf64b03E
Ltmp1162:
LBB63_10:
	.loc	48 0 42 is_stmt 0
	movq	-144(%rbp), %rax
	.loc	48 409 25 is_stmt 1
	movq	8(%rax), %rsi
	addq	$368, %rsi
	.loc	48 409 51 is_stmt 0
	movq	-120(%rbp), %rdx
	.loc	48 409 25
	leaq	-48(%rbp), %rdi
	callq	__ZN3std4sync4mpmc5waker9SyncWaker10unregister17h1eb7e79a4b59facaE
Ltmp1163:
	.loc	29 821 15 is_stmt 1
	movq	-32(%rbp), %rdx
	movl	$1, %eax
	xorl	%ecx, %ecx
	cmpq	$0, %rdx
	cmoveq	%rcx, %rax
	.loc	29 821 9 is_stmt 0
	cmpq	$0, %rax
	je	LBB63_12
	jmp	LBB63_13
Ltmp1164:
LBB63_11:
	.loc	48 415 14 is_stmt 1
	addq	$160, %rsp
	popq	%rbp
	retq
Ltmp1165:
LBB63_12:
	.loc	29 823 21
	leaq	l___unnamed_28(%rip), %rdi
	leaq	l___unnamed_41(%rip), %rdx
	movl	$43, %esi
	callq	__ZN4core9panicking5panic17hc1bc45270cf64b03E
Ltmp1166:
LBB63_13:
	.loc	29 822 18
	movq	-48(%rbp), %rax
	movq	%rax, -72(%rbp)
	movq	-40(%rbp), %rax
	movq	%rax, -64(%rbp)
	movq	-32(%rbp), %rax
	movq	%rax, -56(%rbp)
Ltmp1167:
	.loc	48 409 65
	leaq	-72(%rbp), %rdi
	callq	__ZN4core3ptr50drop_in_place$LT$std..sync..mpmc..waker..Entry$GT$17h081aa359e2f0e863E
	.loc	48 408 67
	jmp	LBB63_11
Ltmp1168:
Lfunc_end63:
	.cfi_endproc

	.globl	__ZN3std4sync4mpmc5array16Channel$LT$T$GT$8is_empty17hfd86e8f1c857f476E
	.p2align	4, 0x90
__ZN3std4sync4mpmc5array16Channel$LT$T$GT$8is_empty17hfd86e8f1c857f476E:
Lfunc_begin64:
	.loc	48 471 0
	.cfi_startproc
	pushq	%rbp
	.cfi_def_cfa_offset 16
	.cfi_offset %rbp, -16
	movq	%rsp, %rbp
	.cfi_def_cfa_register %rbp
	subq	$80, %rsp
	movq	%rdi, -72(%rbp)
	movq	%rdi, -56(%rbp)
Ltmp1169:
	.loc	48 472 20 prologue_end
	callq	__ZN88_$LT$std..sync..mpmc..utils..CachePadded$LT$T$GT$$u20$as$u20$core..ops..deref..Deref$GT$5deref17h92af23830a34ae9eE
	movq	%rax, %rdi
	movq	%rdi, -48(%rbp)
Ltmp1170:
	.loc	19 2127 38
	movq	%rdi, -40(%rbp)
	.loc	19 2127 26 is_stmt 0
	movl	$4, %esi
	callq	__ZN4core4sync6atomic11atomic_load17h02119c845b0293e5E
	movq	-72(%rbp), %rdi
	movq	%rax, -64(%rbp)
	movq	%rax, -32(%rbp)
Ltmp1171:
	.loc	48 473 20 is_stmt 1
	addq	$128, %rdi
	callq	__ZN88_$LT$std..sync..mpmc..utils..CachePadded$LT$T$GT$$u20$as$u20$core..ops..deref..Deref$GT$5deref17h92af23830a34ae9eE
	movq	%rax, %rdi
	movq	%rdi, -24(%rbp)
Ltmp1172:
	.loc	19 2127 38
	movq	%rdi, -16(%rbp)
	.loc	19 2127 26 is_stmt 0
	movl	$4, %esi
	callq	__ZN4core4sync6atomic11atomic_load17h02119c845b0293e5E
	movq	-72(%rbp), %rdi
	movq	-64(%rbp), %rcx
	movq	%rax, -8(%rbp)
Ltmp1173:
	.loc	48 479 18 is_stmt 1
	movq	288(%rdi), %rdx
	.loc	48 479 17 is_stmt 0
	xorq	$-1, %rdx
	.loc	48 479 9
	andq	%rdx, %rax
	cmpq	%rcx, %rax
	sete	%al
Ltmp1174:
	.loc	48 480 6 is_stmt 1
	andb	$1, %al
	movzbl	%al, %eax
	addq	$80, %rsp
	popq	%rbp
	retq
Ltmp1175:
Lfunc_end64:
	.cfi_endproc

	.globl	__ZN3std4sync4mpmc5utils20CachePadded$LT$T$GT$3new17h85d16bd913eeeb7aE
	.p2align	4, 0x90
__ZN3std4sync4mpmc5utils20CachePadded$LT$T$GT$3new17h85d16bd913eeeb7aE:
Lfunc_begin65:
	.file	49 "/rustc/2c8cc343237b8f7d5a3c3703e3a87f2eb2c54a74/library/std/src/sync/mpmc" "utils.rs"
	.loc	49 74 0
	.cfi_startproc
	pushq	%rbp
	.cfi_def_cfa_offset 16
	.cfi_offset %rbp, -16
	movq	%rsp, %rbp
	.cfi_def_cfa_register %rbp
	subq	$16, %rsp
	movq	%rdi, %rax
Ltmp1176:
	.loc	49 75 28 prologue_end
	movq	(%rsi), %rcx
	movq	%rcx, -16(%rbp)
	movq	8(%rsi), %rcx
	movq	%rcx, -8(%rbp)
	.loc	49 75 9 is_stmt 0
	movq	-16(%rbp), %rcx
	movq	%rcx, (%rdi)
	movq	-8(%rbp), %rcx
	movq	%rcx, 8(%rdi)
	.loc	49 76 6 is_stmt 1
	addq	$16, %rsp
	popq	%rbp
	retq
Ltmp1177:
Lfunc_end65:
	.cfi_endproc

	.p2align	4, 0x90
__ZN3std4sync4mpmc5utils7Backoff10spin_heavy17haca4868445df5df8E:
Lfunc_begin66:
	.loc	49 126 0
	.cfi_startproc
	pushq	%rbp
	.cfi_def_cfa_offset 16
	.cfi_offset %rbp, -16
	movq	%rsp, %rbp
	.cfi_def_cfa_register %rbp
	subq	$112, %rsp
	movq	%rdi, -112(%rbp)
	movq	%rdi, -80(%rbp)
Ltmp1178:
	.loc	49 127 12 prologue_end
	movq	%rdi, -72(%rbp)
Ltmp1179:
	.loc	32 452 19
	movq	%rdi, -64(%rbp)
Ltmp1180:
	.loc	49 127 12
	cmpl	$6, (%rdi)
	jbe	LBB66_2
	.loc	49 132 13
	callq	__ZN3std6thread9yield_now17h7d864e69e75f42c9E
	.loc	49 127 9
	jmp	LBB66_6
LBB66_2:
	.loc	49 0 9 is_stmt 0
	movq	-112(%rbp), %rax
	.loc	49 128 25 is_stmt 1
	movq	%rax, -56(%rbp)
Ltmp1181:
	.loc	32 452 19
	movq	%rax, -48(%rbp)
	.loc	32 452 18 is_stmt 0
	movl	(%rax), %edi
Ltmp1182:
	.loc	49 128 25 is_stmt 1
	movl	$2, %esi
	callq	__ZN4core3num21_$LT$impl$u20$u32$GT$3pow17hcc2bf9ba7e55e8ecE
	.loc	49 128 22 is_stmt 0
	movl	$0, -104(%rbp)
	movl	%eax, -100(%rbp)
Ltmp1183:
	.loc	35 273 9 is_stmt 1
	movl	-104(%rbp), %ecx
	movl	-100(%rbp), %eax
Ltmp1184:
	.loc	49 128 22
	movl	%ecx, -96(%rbp)
	movl	%eax, -92(%rbp)
LBB66_3:
	.loc	49 0 22 is_stmt 0
	leaq	-96(%rbp), %rdi
Ltmp1185:
	.loc	49 128 22
	movq	%rdi, -40(%rbp)
Ltmp1186:
	.loc	36 711 9 is_stmt 1
	callq	__ZN89_$LT$core..ops..range..Range$LT$T$GT$$u20$as$u20$core..iter..range..RangeIteratorImpl$GT$9spec_next17had05edce6c197a90E
	movl	%edx, -84(%rbp)
	movl	%eax, -88(%rbp)
Ltmp1187:
	.loc	49 128 22
	movl	-88(%rbp), %eax
	cmpq	$0, %rax
	jne	LBB66_5
Ltmp1188:
	.loc	49 127 9
	jmp	LBB66_6
LBB66_5:
Ltmp1189:
	.file	50 "/rustc/2c8cc343237b8f7d5a3c3703e3a87f2eb2c54a74/library/core/src/../../stdarch/crates/core_arch/src/x86" "sse2.rs"
	.loc	50 25 5
	pause
Ltmp1190:
	.loc	49 128 13
	jmp	LBB66_3
Ltmp1191:
LBB66_6:
	.loc	49 0 13 is_stmt 0
	movq	-112(%rbp), %rdi
	.loc	49 135 9 is_stmt 1
	movq	%rdi, -32(%rbp)
	.loc	49 135 23 is_stmt 0
	movq	%rdi, -24(%rbp)
Ltmp1192:
	.loc	32 452 19 is_stmt 1
	movq	%rdi, -16(%rbp)
	.loc	32 452 18 is_stmt 0
	movl	(%rdi), %esi
Ltmp1193:
	.loc	49 135 23 is_stmt 1
	addl	$1, %esi
	movl	%esi, -8(%rbp)
Ltmp1194:
	.loc	32 363 19
	callq	__ZN4core4cell13Cell$LT$T$GT$7replace17hbc8b4a2f1ecb3c3dE
	movl	%eax, -4(%rbp)
Ltmp1195:
	.loc	49 136 6
	addq	$112, %rsp
	popq	%rbp
	retq
Ltmp1196:
Lfunc_end66:
	.cfi_endproc

	.p2align	4, 0x90
__ZN3std4sync4mpmc5utils7Backoff10spin_light17hc134e1460d48d480E:
Lfunc_begin67:
	.loc	49 113 0
	.cfi_startproc
	pushq	%rbp
	.cfi_def_cfa_offset 16
	.cfi_offset %rbp, -16
	movq	%rsp, %rbp
	.cfi_def_cfa_register %rbp
	subq	$112, %rsp
	movq	%rdi, -104(%rbp)
	movq	%rdi, -72(%rbp)
Ltmp1197:
	.loc	49 114 20 prologue_end
	movq	%rdi, -64(%rbp)
Ltmp1198:
	.loc	32 452 19
	movq	%rdi, -56(%rbp)
	.loc	32 452 18 is_stmt 0
	movl	(%rdi), %edi
	movl	%edi, -48(%rbp)
Ltmp1199:
	.loc	42 833 13 is_stmt 1
	movl	$6, %esi
	callq	__ZN4core3cmp6min_by17h103dc1453b74da52E
	movl	%eax, %edi
	movl	%edi, -44(%rbp)
Ltmp1200:
	.loc	49 115 21
	movl	$2, %esi
	callq	__ZN4core3num21_$LT$impl$u20$u32$GT$3pow17hcc2bf9ba7e55e8ecE
	.loc	49 115 18 is_stmt 0
	movl	$0, -96(%rbp)
	movl	%eax, -92(%rbp)
Ltmp1201:
	.loc	35 273 9 is_stmt 1
	movl	-96(%rbp), %ecx
	movl	-92(%rbp), %eax
Ltmp1202:
	.loc	49 115 18
	movl	%ecx, -88(%rbp)
	movl	%eax, -84(%rbp)
LBB67_1:
	.loc	49 0 18 is_stmt 0
	leaq	-88(%rbp), %rdi
Ltmp1203:
	.loc	49 115 18
	movq	%rdi, -40(%rbp)
Ltmp1204:
	.loc	36 711 9 is_stmt 1
	callq	__ZN89_$LT$core..ops..range..Range$LT$T$GT$$u20$as$u20$core..iter..range..RangeIteratorImpl$GT$9spec_next17had05edce6c197a90E
	movl	%edx, -76(%rbp)
	movl	%eax, -80(%rbp)
Ltmp1205:
	.loc	49 115 18
	movl	-80(%rbp), %eax
	cmpq	$0, %rax
	jne	LBB67_3
Ltmp1206:
	.loc	49 0 18 is_stmt 0
	movq	-104(%rbp), %rdi
	.loc	49 119 9 is_stmt 1
	movq	%rdi, -32(%rbp)
	.loc	49 119 23 is_stmt 0
	movq	%rdi, -24(%rbp)
Ltmp1207:
	.loc	32 452 19 is_stmt 1
	movq	%rdi, -16(%rbp)
	.loc	32 452 18 is_stmt 0
	movl	(%rdi), %esi
Ltmp1208:
	.loc	49 119 23 is_stmt 1
	addl	$1, %esi
	movl	%esi, -8(%rbp)
Ltmp1209:
	.loc	32 363 19
	callq	__ZN4core4cell13Cell$LT$T$GT$7replace17hbc8b4a2f1ecb3c3dE
	movl	%eax, -4(%rbp)
Ltmp1210:
	.loc	49 120 6
	addq	$112, %rsp
	popq	%rbp
	retq
LBB67_3:
Ltmp1211:
	.loc	50 25 5
	pause
Ltmp1212:
	.loc	49 115 9
	jmp	LBB67_1
Ltmp1213:
Lfunc_end67:
	.cfi_endproc

	.globl	__ZN3std4sync4mpmc5waker17current_thread_id28_$u7b$$u7b$closure$u7d$$u7d$17he837d9449cbc77d7E
	.p2align	4, 0x90
__ZN3std4sync4mpmc5waker17current_thread_id28_$u7b$$u7b$closure$u7d$$u7d$17he837d9449cbc77d7E:
Lfunc_begin68:
	.loc	40 203 0
	.cfi_startproc
	pushq	%rbp
	.cfi_def_cfa_offset 16
	.cfi_offset %rbp, -16
	movq	%rsp, %rbp
	.cfi_def_cfa_register %rbp
	subq	$40, %rsp
	movq	%rdi, -32(%rbp)
Ltmp1214:
	.loc	40 203 21 prologue_end
	movq	%rdi, -24(%rbp)
Ltmp1215:
	.loc	4 209 33
	movq	%rdi, -16(%rbp)
	.loc	4 209 18 is_stmt 0
	movq	%rdi, -8(%rbp)
	movq	-8(%rbp), %rax
Ltmp1216:
	.loc	40 203 43 is_stmt 1
	addq	$40, %rsp
	popq	%rbp
	retq
Ltmp1217:
Lfunc_end68:
	.cfi_endproc

	.p2align	4, 0x90
__ZN3std4sync4mpmc5waker17current_thread_id5DUMMY7__getit17h66513816675c626eE:
Lfunc_begin69:
	.file	51 "/rustc/2c8cc343237b8f7d5a3c3703e3a87f2eb2c54a74/library/std/src/thread" "local.rs"
	.loc	51 319 0
	.cfi_startproc
	pushq	%rbp
	.cfi_def_cfa_offset 16
	.cfi_offset %rbp, -16
	movq	%rsp, %rbp
	.cfi_def_cfa_register %rbp
	subq	$16, %rsp
	movq	%rdi, -8(%rbp)
Ltmp1218:
	.loc	51 346 31 prologue_end
	movq	%rdi, -16(%rbp)
	.loc	51 346 21 is_stmt 0
	movq	-16(%rbp), %rsi
	movq	__ZN3std4sync4mpmc5waker17current_thread_id5DUMMY7__getit5__KEY17h615871b7675c12daE@TLVP(%rip), %rdi
	callq	*(%rdi)
	movq	%rax, %rdi
	callq	__ZN3std6thread5local4fast12Key$LT$T$GT$3get17hc2c05fab3a1a605eE
	.loc	51 357 14 is_stmt 1
	addq	$16, %rsp
	popq	%rbp
	retq
Ltmp1219:
Lfunc_end69:
	.cfi_endproc

	.globl	__ZN3std4sync4mpmc5waker17current_thread_id5DUMMY7__getit28_$u7b$$u7b$closure$u7d$$u7d$17hd63c822f9022bcd6E
	.p2align	4, 0x90
__ZN3std4sync4mpmc5waker17current_thread_id5DUMMY7__getit28_$u7b$$u7b$closure$u7d$$u7d$17hd63c822f9022bcd6E:
Lfunc_begin70:
	.loc	51 346 0
	.cfi_startproc
	pushq	%rbp
	.cfi_def_cfa_offset 16
	.cfi_offset %rbp, -16
	movq	%rsp, %rbp
	.cfi_def_cfa_register %rbp
	subq	$64, %rsp
	movq	%rdi, -56(%rbp)
Ltmp1220:
	.loc	51 347 32 prologue_end
	movq	-56(%rbp), %rdx
	movl	$1, %eax
	xorl	%ecx, %ecx
	cmpq	$0, %rdx
	cmoveq	%rcx, %rax
	cmpq	$1, %rax
	jne	LBB70_2
	.loc	51 347 61 is_stmt 0
	movq	-56(%rbp), %rdi
	movq	%rdi, -24(%rbp)
Ltmp1221:
	.loc	51 348 74 is_stmt 1
	movq	%rdi, -16(%rbp)
Ltmp1222:
	.loc	29 1623 28
	movb	$0, -32(%rbp)
	.loc	29 1623 9 is_stmt 0
	movzbl	-32(%rbp), %esi
	movzbl	-31(%rbp), %edx
	callq	__ZN4core3mem7replace17h171e4eaa98477977E
	movb	%dl, -39(%rbp)
	movb	%al, -40(%rbp)
Ltmp1223:
	.loc	51 348 36 is_stmt 1
	movb	-40(%rbp), %al
	andb	$1, %al
	movzbl	%al, %eax
	cmpq	$1, %rax
	je	LBB70_3
	jmp	LBB70_4
Ltmp1224:
LBB70_2:
	.loc	40 202 40
	movb	$0, -41(%rbp)
Ltmp1225:
	.loc	51 294 40
	jmp	LBB70_5
LBB70_3:
Ltmp1226:
	.loc	51 348 65
	movb	-39(%rbp), %al
	movb	%al, -1(%rbp)
	.loc	51 349 40
	movb	%al, -41(%rbp)
Ltmp1227:
	.loc	51 355 22
	jmp	LBB70_5
LBB70_4:
	.loc	51 347 25
	jmp	LBB70_2
LBB70_5:
	.loc	51 355 22
	movb	-41(%rbp), %al
	addq	$64, %rsp
	popq	%rbp
	retq
Ltmp1228:
Lfunc_end70:
	.cfi_endproc

	.p2align	4, 0x90
__ZN3std4sync4mpmc5waker5Waker10disconnect17h8bae8ba8cde31daeE:
Lfunc_begin71:
	.loc	40 103 0
	.cfi_startproc
	pushq	%rbp
	.cfi_def_cfa_offset 16
	.cfi_offset %rbp, -16
	movq	%rsp, %rbp
	.cfi_def_cfa_register %rbp
	subq	$176, %rsp
	movq	%rdi, -168(%rbp)
	movq	%rdi, -96(%rbp)
Ltmp1229:
	.loc	40 104 22 prologue_end
	callq	__ZN72_$LT$alloc..vec..Vec$LT$T$C$A$GT$$u20$as$u20$core..ops..deref..Deref$GT$5deref17heb1a7e363c21719fE
	movq	%rax, %rdi
	movq	%rdx, %rsi
	movq	%rdi, -88(%rbp)
	movq	%rsi, -80(%rbp)
Ltmp1230:
	.loc	23 742 9
	callq	__ZN4core5slice4iter13Iter$LT$T$GT$3new17hf8d7eed233f42a4fE
	movq	%rax, -72(%rbp)
	movq	%rdx, -64(%rbp)
Ltmp1231:
	.loc	40 104 22
	movq	%rax, -160(%rbp)
	movq	%rdx, -152(%rbp)
LBB71_1:
Ltmp1232:
	.loc	40 104 22 is_stmt 0
	leaq	-160(%rbp), %rdi
	callq	__ZN91_$LT$core..slice..iter..Iter$LT$T$GT$$u20$as$u20$core..iter..traits..iterator..Iterator$GT$4next17hbb0552146827d603E
	movq	%rax, -144(%rbp)
	movq	-144(%rbp), %rdx
	movl	$1, %eax
	xorl	%ecx, %ecx
	cmpq	$0, %rdx
	cmoveq	%rcx, %rax
	cmpq	$0, %rax
	jne	LBB71_3
Ltmp1233:
	.loc	40 0 22
	movq	-168(%rbp), %rdi
	.loc	40 115 9 is_stmt 1
	callq	__ZN3std4sync4mpmc5waker5Waker6notify17h471a865f0401af31E
	.loc	40 116 6
	addq	$176, %rsp
	popq	%rbp
	retq
LBB71_3:
Ltmp1234:
	.loc	40 104 13
	movq	-144(%rbp), %rdi
	movq	%rdi, -176(%rbp)
	movq	%rdi, -56(%rbp)
Ltmp1235:
	.loc	40 105 16
	addq	$16, %rdi
	.loc	40 105 36 is_stmt 0
	movq	$2, -112(%rbp)
	.loc	40 105 16
	movq	-112(%rbp), %rsi
	movq	-104(%rbp), %rdx
	callq	__ZN3std4sync4mpmc7context7Context10try_select17h1eaae579495c2b2aE
	movq	%rdx, -120(%rbp)
	movq	%rax, -128(%rbp)
	leaq	-128(%rbp), %rax
	movq	%rax, -48(%rbp)
Ltmp1236:
	.loc	27 542 18 is_stmt 1
	movl	$1, %eax
	xorl	%ecx, %ecx
	cmpq	$4, -128(%rbp)
	cmoveq	%rcx, %rax
	.loc	28 344 9
	cmpq	$0, %rax
	jne	LBB71_5
	.loc	28 345 48
	movb	$1, -129(%rbp)
	jmp	LBB71_6
LBB71_5:
	.loc	28 346 18
	movb	$0, -129(%rbp)
Ltmp1237:
LBB71_6:
	.loc	40 105 16
	testb	$1, -129(%rbp)
	jne	LBB71_8
Ltmp1238:
LBB71_7:
	.loc	40 104 9
	jmp	LBB71_1
LBB71_8:
	.loc	40 0 9 is_stmt 0
	movq	-176(%rbp), %rax
Ltmp1239:
	.loc	40 111 17 is_stmt 1
	movq	%rax, %rcx
	addq	$16, %rcx
	movq	%rcx, -40(%rbp)
Ltmp1240:
	.loc	47 147 9
	movq	%rcx, -32(%rbp)
Ltmp1241:
	.file	52 "/rustc/2c8cc343237b8f7d5a3c3703e3a87f2eb2c54a74/library/alloc/src" "sync.rs"
	.loc	52 1391 10
	movq	%rcx, -24(%rbp)
Ltmp1242:
	.loc	52 1115 18
	movq	%rcx, -16(%rbp)
Ltmp1243:
	.loc	10 376 20
	movq	16(%rax), %rdi
	movq	%rdi, -8(%rbp)
Ltmp1244:
	.loc	52 1391 9
	addq	$16, %rdi
Ltmp1245:
	.loc	47 147 9
	addq	$24, %rdi
	callq	__ZN3std6thread6Thread6unpark17h6977269a4f1f331fE
Ltmp1246:
	.loc	40 105 13
	jmp	LBB71_7
Ltmp1247:
Lfunc_end71:
	.cfi_endproc

	.p2align	4, 0x90
__ZN3std4sync4mpmc5waker5Waker10try_select17hcc704da0babd84f7E:
Lfunc_begin72:
	.loc	40 68 0
	.cfi_startproc
	pushq	%rbp
	.cfi_def_cfa_offset 16
	.cfi_offset %rbp, -16
	movq	%rsp, %rbp
	.cfi_def_cfa_register %rbp
	subq	$80, %rsp
	movq	%rsi, -64(%rbp)
	movq	%rdi, %rax
	movq	-64(%rbp), %rdi
	movq	%rax, -72(%rbp)
	movq	%rax, -56(%rbp)
	movq	%rdi, -24(%rbp)
Ltmp1248:
	.loc	40 69 9 prologue_end
	callq	__ZN72_$LT$alloc..vec..Vec$LT$T$C$A$GT$$u20$as$u20$core..ops..deref..Deref$GT$5deref17heb1a7e363c21719fE
	movq	%rax, %rdi
	movq	%rdx, %rsi
	movq	%rdi, -16(%rbp)
	movq	%rsi, -8(%rbp)
Ltmp1249:
	.loc	23 742 9
	callq	__ZN4core5slice4iter13Iter$LT$T$GT$3new17hf8d7eed233f42a4fE
	movq	%rdx, -40(%rbp)
	movq	%rax, -48(%rbp)
Ltmp1250:
	.loc	40 69 9
	leaq	-48(%rbp), %rdi
	callq	__ZN91_$LT$core..slice..iter..Iter$LT$T$GT$$u20$as$u20$core..iter..traits..iterator..Iterator$GT$8position17h0de125afc16843c4E
	movq	-72(%rbp), %rdi
	movq	%rax, %rsi
	movq	-64(%rbp), %rax
	.loc	40 88 18
	movq	%rax, -32(%rbp)
	.loc	40 69 9
	movq	-32(%rbp), %rcx
	callq	__ZN4core6option15Option$LT$T$GT$3map17h62bdda08481eb4cfE
	movq	-56(%rbp), %rax
	.loc	40 89 6
	addq	$80, %rsp
	popq	%rbp
	retq
Ltmp1251:
Lfunc_end72:
	.cfi_endproc

	.globl	__ZN3std4sync4mpmc5waker5Waker10try_select28_$u7b$$u7b$closure$u7d$$u7d$17h4b60c042cb6a2098E
	.p2align	4, 0x90
__ZN3std4sync4mpmc5waker5Waker10try_select28_$u7b$$u7b$closure$u7d$$u7d$17h4b60c042cb6a2098E:
Lfunc_begin73:
	.loc	40 88 0
	.cfi_startproc
	pushq	%rbp
	.cfi_def_cfa_offset 16
	.cfi_offset %rbp, -16
	movq	%rsp, %rbp
	.cfi_def_cfa_register %rbp
	subq	$32, %rsp
	movq	%rdi, %rax
	movq	%rax, -24(%rbp)
	movq	%rsi, -16(%rbp)
	movq	%rdx, -8(%rbp)
Ltmp1252:
	.loc	40 88 24 prologue_end
	movq	-16(%rbp), %rsi
	leaq	l___unnamed_42(%rip), %rcx
	callq	__ZN5alloc3vec16Vec$LT$T$C$A$GT$6remove17h8f8d423d87828586E
	movq	-24(%rbp), %rax
	.loc	40 88 50 is_stmt 0
	addq	$32, %rsp
	popq	%rbp
	retq
Ltmp1253:
Lfunc_end73:
	.cfi_endproc

	.globl	__ZN3std4sync4mpmc5waker5Waker10try_select28_$u7b$$u7b$closure$u7d$$u7d$17hf0a5a15d0afd7a13E
	.p2align	4, 0x90
__ZN3std4sync4mpmc5waker5Waker10try_select28_$u7b$$u7b$closure$u7d$$u7d$17hf0a5a15d0afd7a13E:
Lfunc_begin74:
	.loc	40 71 0 is_stmt 1
	.cfi_startproc
	pushq	%rbp
	.cfi_def_cfa_offset 16
	.cfi_offset %rbp, -16
	movq	%rsp, %rbp
	.cfi_def_cfa_register %rbp
	subq	$160, %rsp
	movq	%rsi, -160(%rbp)
	movq	%rdi, -104(%rbp)
	movq	%rsi, -96(%rbp)
Ltmp1254:
	.loc	40 73 17 prologue_end
	movq	%rsi, %rax
	addq	$16, %rax
	movq	%rax, -88(%rbp)
Ltmp1255:
	.loc	47 153 9
	movq	%rax, -80(%rbp)
Ltmp1256:
	.loc	52 1391 10
	movq	%rax, -72(%rbp)
Ltmp1257:
	.loc	52 1115 18
	movq	%rax, -64(%rbp)
Ltmp1258:
	.loc	10 376 20
	movq	16(%rsi), %rax
	movq	%rax, -56(%rbp)
Ltmp1259:
	.loc	47 153 9
	movq	32(%rax), %rax
	movq	%rax, -152(%rbp)
Ltmp1260:
	.loc	40 203 5
	leaq	l___unnamed_43(%rip), %rdi
	callq	__ZN3std6thread5local17LocalKey$LT$T$GT$4with17h2f6e795261511b22E
	movq	%rax, %rcx
	movq	-152(%rbp), %rax
Ltmp1261:
	.loc	40 73 17
	cmpq	%rcx, %rax
	jne	LBB74_2
	movb	$0, -138(%rbp)
	jmp	LBB74_6
LBB74_2:
	.loc	40 0 17 is_stmt 0
	movq	-160(%rbp), %rax
	.loc	40 74 24 is_stmt 1
	movq	%rax, %rdi
	addq	$16, %rdi
	.loc	40 76 57
	movq	(%rax), %rax
	.loc	40 76 37 is_stmt 0
	movq	%rax, -112(%rbp)
	movq	$3, -120(%rbp)
	.loc	40 74 24 is_stmt 1
	movq	-120(%rbp), %rsi
	movq	-112(%rbp), %rdx
	callq	__ZN3std4sync4mpmc7context7Context10try_select17h1eaae579495c2b2aE
	movq	%rdx, -128(%rbp)
	movq	%rax, -136(%rbp)
	leaq	-136(%rbp), %rax
	movq	%rax, -48(%rbp)
Ltmp1262:
	.loc	27 542 18
	movl	$1, %eax
	xorl	%ecx, %ecx
	cmpq	$4, -136(%rbp)
	cmoveq	%rcx, %rax
	.loc	28 344 9
	cmpq	$0, %rax
	jne	LBB74_4
	.loc	28 345 48
	movb	$1, -137(%rbp)
	jmp	LBB74_5
LBB74_4:
	.loc	28 346 18
	movb	$0, -137(%rbp)
Ltmp1263:
LBB74_5:
	.loc	40 73 17
	movb	-137(%rbp), %al
	andb	$1, %al
	movb	%al, -138(%rbp)
LBB74_6:
	testb	$1, -138(%rbp)
	jne	LBB74_8
	movb	$0, -139(%rbp)
	jmp	LBB74_9
LBB74_8:
	.loc	40 0 17 is_stmt 0
	movq	-160(%rbp), %rax
	.loc	40 80 25 is_stmt 1
	movq	%rax, %rdi
	addq	$16, %rdi
	.loc	40 80 50 is_stmt 0
	movq	8(%rax), %rsi
	.loc	40 80 25
	callq	__ZN3std4sync4mpmc7context7Context12store_packet17hbf3ec5eb01b697edE
	movq	-160(%rbp), %rax
	.loc	40 82 25 is_stmt 1
	movq	%rax, %rcx
	addq	$16, %rcx
	movq	%rcx, -40(%rbp)
Ltmp1264:
	.loc	47 147 9
	movq	%rcx, -32(%rbp)
Ltmp1265:
	.loc	52 1391 10
	movq	%rcx, -24(%rbp)
Ltmp1266:
	.loc	52 1115 18
	movq	%rcx, -16(%rbp)
Ltmp1267:
	.loc	10 376 20
	movq	16(%rax), %rdi
	movq	%rdi, -8(%rbp)
Ltmp1268:
	.loc	52 1391 9
	addq	$16, %rdi
Ltmp1269:
	.loc	47 147 9
	addq	$24, %rdi
	callq	__ZN3std6thread6Thread6unpark17h6977269a4f1f331fE
Ltmp1270:
	.loc	40 73 17
	movb	$1, -139(%rbp)
LBB74_9:
	.loc	40 85 14
	movb	-139(%rbp), %al
	andb	$1, %al
	movzbl	%al, %eax
	addq	$160, %rsp
	popq	%rbp
	retq
Ltmp1271:
Lfunc_end74:
	.cfi_endproc

	.p2align	4, 0x90
__ZN3std4sync4mpmc5waker5Waker10unregister17h37eea2e3914e0248E:
Lfunc_begin75:
	.loc	40 55 0
	.cfi_startproc
	pushq	%rbp
	.cfi_def_cfa_offset 16
	.cfi_offset %rbp, -16
	movq	%rsp, %rbp
	.cfi_def_cfa_register %rbp
	subq	$240, %rsp
	movq	%rsi, -240(%rbp)
	movq	%rdi, %rax
	movq	-240(%rbp), %rdi
	movq	%rax, -232(%rbp)
	movq	%rax, -224(%rbp)
	movq	%rdx, -208(%rbp)
	movq	%rdi, -80(%rbp)
Ltmp1272:
	.loc	40 57 13 prologue_end
	callq	__ZN72_$LT$alloc..vec..Vec$LT$T$C$A$GT$$u20$as$u20$core..ops..deref..Deref$GT$5deref17heb1a7e363c21719fE
	movq	%rax, %rdi
	movq	%rdx, %rsi
	movq	%rdi, -72(%rbp)
	movq	%rsi, -64(%rbp)
Ltmp1273:
	.loc	23 742 9
	callq	__ZN4core5slice4iter13Iter$LT$T$GT$3new17hf8d7eed233f42a4fE
	movq	%rax, %rsi
	movq	%rsi, -56(%rbp)
	movq	%rdx, -48(%rbp)
	leaq	-184(%rbp), %rdi
	movq	%rdi, -216(%rbp)
Ltmp1274:
	.file	53 "/rustc/2c8cc343237b8f7d5a3c3703e3a87f2eb2c54a74/library/core/src/iter/traits" "iterator.rs"
	.loc	53 997 9
	callq	__ZN4core4iter8adapters9enumerate18Enumerate$LT$I$GT$3new17hb0f70fc4ceeee6f2E
	movq	-216(%rbp), %rdi
Ltmp1275:
	.loc	40 57 13
	movq	%rdi, -40(%rbp)
	leaq	-208(%rbp), %rax
	.loc	40 57 52 is_stmt 0
	movq	%rax, -160(%rbp)
Ltmp1276:
	.loc	53 2724 33 is_stmt 1
	movq	-160(%rbp), %rax
	movq	%rax, -32(%rbp)
Ltmp1277:
	.loc	53 2719 13
	movq	%rax, -88(%rbp)
Ltmp1278:
	.loc	53 2724 9
	movq	-88(%rbp), %rsi
	callq	__ZN110_$LT$core..iter..adapters..enumerate..Enumerate$LT$I$GT$$u20$as$u20$core..iter..traits..iterator..Iterator$GT$8try_fold17h9ba4423bc6803067E
	movq	%rdx, -96(%rbp)
	movq	%rax, -104(%rbp)
Ltmp1279:
	.loc	1 184 15
	movq	-96(%rbp), %rdx
	movl	$1, %eax
	xorl	%ecx, %ecx
	cmpq	$0, %rdx
	cmoveq	%rcx, %rax
	.loc	1 184 9 is_stmt 0
	cmpq	$0, %rax
	jne	LBB75_2
	.loc	1 185 42 is_stmt 1
	movq	$0, -192(%rbp)
	jmp	LBB75_3
LBB75_2:
	.loc	1 186 32
	movq	-104(%rbp), %rcx
	movq	-96(%rbp), %rax
	movq	%rcx, -24(%rbp)
	movq	%rax, -16(%rbp)
Ltmp1280:
	.loc	1 186 38 is_stmt 0
	movq	%rcx, -200(%rbp)
	movq	%rax, -192(%rbp)
Ltmp1281:
LBB75_3:
	.loc	40 56 16 is_stmt 1
	movq	-192(%rbp), %rdx
	movl	$1, %eax
	xorl	%ecx, %ecx
	cmpq	$0, %rdx
	cmoveq	%rcx, %rax
	cmpq	$1, %rax
	jne	LBB75_5
	.loc	40 0 16 is_stmt 0
	movq	-240(%rbp), %rsi
	.loc	40 56 22
	movq	-200(%rbp), %rdx
	movq	%rdx, -8(%rbp)
	.loc	40 59 25 is_stmt 1
	leaq	-152(%rbp), %rdi
	leaq	l___unnamed_44(%rip), %rcx
	callq	__ZN5alloc3vec16Vec$LT$T$C$A$GT$6remove17h8f8d423d87828586E
	movq	-232(%rbp), %rax
Ltmp1282:
	.loc	40 60 18
	movq	-152(%rbp), %rcx
	movq	%rcx, -128(%rbp)
	movq	-144(%rbp), %rcx
	movq	%rcx, -120(%rbp)
	movq	-136(%rbp), %rcx
	movq	%rcx, -112(%rbp)
	.loc	40 60 13 is_stmt 0
	movq	-128(%rbp), %rcx
	movq	%rcx, (%rax)
	movq	-120(%rbp), %rcx
	movq	%rcx, 8(%rax)
	movq	-112(%rbp), %rcx
	movq	%rcx, 16(%rax)
Ltmp1283:
	.loc	40 56 9 is_stmt 1
	jmp	LBB75_6
LBB75_5:
	.loc	40 0 9 is_stmt 0
	movq	-232(%rbp), %rax
	.loc	40 62 13 is_stmt 1
	movq	$0, 16(%rax)
LBB75_6:
	.loc	40 0 13 is_stmt 0
	movq	-224(%rbp), %rax
	.loc	40 64 6 is_stmt 1
	addq	$240, %rsp
	popq	%rbp
	retq
Ltmp1284:
Lfunc_end75:
	.cfi_endproc

	.globl	__ZN3std4sync4mpmc5waker5Waker10unregister28_$u7b$$u7b$closure$u7d$$u7d$17h863f151b9d42f653E
	.p2align	4, 0x90
__ZN3std4sync4mpmc5waker5Waker10unregister28_$u7b$$u7b$closure$u7d$$u7d$17h863f151b9d42f653E:
Lfunc_begin76:
	.loc	40 57 0
	.cfi_startproc
	pushq	%rbp
	.cfi_def_cfa_offset 16
	.cfi_offset %rbp, -16
	movq	%rsp, %rbp
	.cfi_def_cfa_register %rbp
	subq	$40, %rsp
	movq	%rdi, -40(%rbp)
	movq	%rsi, -32(%rbp)
Ltmp1285:
	.loc	40 57 58 prologue_end
	movq	8(%rsi), %rax
	movq	%rax, -24(%rbp)
Ltmp1286:
	.loc	40 57 66 is_stmt 0
	movq	%rax, -16(%rbp)
	.loc	40 57 80
	movq	(%rdi), %rcx
	movq	%rcx, -8(%rbp)
Ltmp1287:
	.loc	45 15 22 is_stmt 1
	movq	(%rax), %rax
	cmpq	(%rcx), %rax
	sete	%al
Ltmp1288:
	.loc	40 57 84
	andb	$1, %al
	movzbl	%al, %eax
	addq	$40, %rsp
	popq	%rbp
	retq
Ltmp1289:
Lfunc_end76:
	.cfi_endproc

	.p2align	4, 0x90
__ZN3std4sync4mpmc5waker5Waker6notify17h471a865f0401af31E:
Lfunc_begin77:
	.loc	40 93 0
	.cfi_startproc
	.cfi_personality 155, _rust_eh_personality
	.cfi_lsda 16, Lexception12
	pushq	%rbp
	.cfi_def_cfa_offset 16
	.cfi_offset %rbp, -16
	movq	%rsp, %rbp
	.cfi_def_cfa_register %rbp
	subq	$320, %rsp
	movq	%rdi, %rsi
	movq	%rsi, -80(%rbp)
Ltmp1307:
	.loc	40 94 22 prologue_end
	addq	$24, %rsi
	leaq	-248(%rbp), %rdi
	callq	__ZN5alloc3vec16Vec$LT$T$C$A$GT$5drain17h0afc2a5264dd1e52E
Ltmp1308:
	.loc	35 273 9
	leaq	-288(%rbp), %rdi
	leaq	-248(%rbp), %rsi
	movl	$40, %edx
	callq	_memcpy
Ltmp1309:
	.loc	40 94 22
	leaq	-208(%rbp), %rdi
	leaq	-288(%rbp), %rsi
	movl	$40, %edx
	callq	_memcpy
LBB77_1:
	.loc	40 0 22 is_stmt 0
	leaq	-208(%rbp), %rdi
Ltmp1310:
	.loc	40 94 22
	movq	%rdi, -72(%rbp)
Ltmp1290:
Ltmp1311:
	.loc	13 159 9 is_stmt 1
	callq	__ZN91_$LT$core..slice..iter..Iter$LT$T$GT$$u20$as$u20$core..iter..traits..iterator..Iterator$GT$4next17hbb0552146827d603E
Ltmp1291:
	movq	%rax, -296(%rbp)
	jmp	LBB77_4
Ltmp1312:
LBB77_2:
Ltmp1304:
	.loc	13 0 9 is_stmt 0
	leaq	-208(%rbp), %rdi
	.loc	40 94 9 is_stmt 1
	callq	__ZN4core3ptr82drop_in_place$LT$alloc..vec..drain..Drain$LT$std..sync..mpmc..waker..Entry$GT$$GT$17h6ceb05de26389dfcE
Ltmp1305:
	jmp	LBB77_19
LBB77_3:
Ltmp1303:
	.loc	40 0 9 is_stmt 0
	movq	%rax, %rcx
	movl	%edx, %eax
	movq	%rcx, -64(%rbp)
	movl	%eax, -56(%rbp)
	jmp	LBB77_2
LBB77_4:
Ltmp1292:
	movq	-296(%rbp), %rsi
	leaq	-168(%rbp), %rdi
Ltmp1313:
	.loc	13 159 9 is_stmt 1
	callq	__ZN4core6option15Option$LT$T$GT$3map17h872fcab2211b3440E
Ltmp1293:
	jmp	LBB77_5
Ltmp1314:
LBB77_5:
	.loc	40 94 22
	movq	-152(%rbp), %rdx
	movl	$1, %eax
	xorl	%ecx, %ecx
	cmpq	$0, %rdx
	cmoveq	%rcx, %rax
	cmpq	$0, %rax
	jne	LBB77_7
Ltmp1315:
	.loc	40 94 9 is_stmt 0
	leaq	-208(%rbp), %rdi
	callq	__ZN4core3ptr82drop_in_place$LT$alloc..vec..drain..Drain$LT$std..sync..mpmc..waker..Entry$GT$$GT$17h6ceb05de26389dfcE
	.loc	40 99 6 is_stmt 1
	addq	$320, %rsp
	popq	%rbp
	retq
LBB77_7:
Ltmp1316:
	.loc	40 94 13
	movq	-152(%rbp), %rax
	movq	%rax, -128(%rbp)
	movq	-168(%rbp), %rax
	movq	-160(%rbp), %rcx
	movq	%rcx, -136(%rbp)
	movq	%rax, -144(%rbp)
	leaq	-128(%rbp), %rdi
Ltmp1317:
	.loc	40 95 56
	movq	-144(%rbp), %rax
	.loc	40 95 36 is_stmt 0
	movq	%rax, -88(%rbp)
	movq	$3, -96(%rbp)
	.loc	40 95 16
	movq	-96(%rbp), %rsi
	movq	-88(%rbp), %rdx
Ltmp1294:
	callq	__ZN3std4sync4mpmc7context7Context10try_select17h1eaae579495c2b2aE
Ltmp1295:
	movq	%rdx, -312(%rbp)
	movq	%rax, -304(%rbp)
	jmp	LBB77_10
Ltmp1318:
LBB77_8:
Ltmp1299:
	.loc	40 0 16
	leaq	-144(%rbp), %rdi
	.loc	40 98 9 is_stmt 1
	callq	__ZN4core3ptr50drop_in_place$LT$std..sync..mpmc..waker..Entry$GT$17h081aa359e2f0e863E
Ltmp1300:
	jmp	LBB77_2
LBB77_9:
Ltmp1298:
	.loc	40 0 9 is_stmt 0
	movq	%rax, %rcx
	movl	%edx, %eax
	movq	%rcx, -64(%rbp)
	movl	%eax, -56(%rbp)
	jmp	LBB77_8
LBB77_10:
	movq	-312(%rbp), %rax
	movq	-304(%rbp), %rcx
Ltmp1319:
	.loc	40 95 16 is_stmt 1
	movq	%rcx, -112(%rbp)
	movq	%rax, -104(%rbp)
	leaq	-112(%rbp), %rax
	movq	%rax, -48(%rbp)
Ltmp1320:
	.loc	27 542 18
	movl	$1, %eax
	xorl	%ecx, %ecx
	cmpq	$4, -112(%rbp)
	cmoveq	%rcx, %rax
	.loc	28 344 9
	cmpq	$0, %rax
	jne	LBB77_12
	.loc	28 345 48
	movb	$1, -113(%rbp)
	jmp	LBB77_13
LBB77_12:
	.loc	28 346 18
	movb	$0, -113(%rbp)
Ltmp1321:
LBB77_13:
	.loc	40 95 16
	testb	$1, -113(%rbp)
	jne	LBB77_15
Ltmp1322:
LBB77_14:
Ltmp1301:
	.loc	40 0 16 is_stmt 0
	leaq	-144(%rbp), %rdi
	.loc	40 98 9 is_stmt 1
	callq	__ZN4core3ptr50drop_in_place$LT$std..sync..mpmc..waker..Entry$GT$17h081aa359e2f0e863E
Ltmp1302:
	jmp	LBB77_18
LBB77_15:
Ltmp1323:
	.loc	40 96 17
	leaq	-128(%rbp), %rax
	movq	%rax, -40(%rbp)
Ltmp1324:
	.loc	47 147 9
	movq	%rax, -32(%rbp)
Ltmp1325:
	.loc	52 1391 10
	movq	%rax, -24(%rbp)
Ltmp1326:
	.loc	52 1115 18
	movq	%rax, -16(%rbp)
Ltmp1327:
	.loc	10 376 20
	movq	-128(%rbp), %rdi
	movq	%rdi, -8(%rbp)
Ltmp1328:
	.loc	47 147 9
	addq	$40, %rdi
Ltmp1296:
	callq	__ZN3std6thread6Thread6unpark17h6977269a4f1f331fE
Ltmp1297:
	jmp	LBB77_16
Ltmp1329:
LBB77_16:
	.loc	40 95 13
	jmp	LBB77_14
Ltmp1330:
LBB77_17:
Ltmp1306:
	.loc	40 93 5
	callq	__ZN4core9panicking19panic_cannot_unwind17h1fbca7e1d7f56ae1E
LBB77_18:
Ltmp1331:
	.loc	40 94 9
	jmp	LBB77_1
Ltmp1332:
LBB77_19:
	.loc	40 93 5
	movq	-64(%rbp), %rdi
	callq	__Unwind_Resume
Ltmp1333:
Lfunc_end77:
	.cfi_endproc
	.section	__TEXT,__gcc_except_tab
	.p2align	2
GCC_except_table77:
Lexception12:
	.byte	255
	.byte	255
	.byte	1
	.uleb128 Lcst_end12-Lcst_begin12
Lcst_begin12:
	.uleb128 Lfunc_begin77-Lfunc_begin77
	.uleb128 Ltmp1290-Lfunc_begin77
	.byte	0
	.byte	0
	.uleb128 Ltmp1290-Lfunc_begin77
	.uleb128 Ltmp1291-Ltmp1290
	.uleb128 Ltmp1303-Lfunc_begin77
	.byte	0
	.uleb128 Ltmp1304-Lfunc_begin77
	.uleb128 Ltmp1305-Ltmp1304
	.uleb128 Ltmp1306-Lfunc_begin77
	.byte	0
	.uleb128 Ltmp1292-Lfunc_begin77
	.uleb128 Ltmp1293-Ltmp1292
	.uleb128 Ltmp1303-Lfunc_begin77
	.byte	0
	.uleb128 Ltmp1293-Lfunc_begin77
	.uleb128 Ltmp1294-Ltmp1293
	.byte	0
	.byte	0
	.uleb128 Ltmp1294-Lfunc_begin77
	.uleb128 Ltmp1295-Ltmp1294
	.uleb128 Ltmp1298-Lfunc_begin77
	.byte	0
	.uleb128 Ltmp1299-Lfunc_begin77
	.uleb128 Ltmp1300-Ltmp1299
	.uleb128 Ltmp1306-Lfunc_begin77
	.byte	0
	.uleb128 Ltmp1301-Lfunc_begin77
	.uleb128 Ltmp1302-Ltmp1301
	.uleb128 Ltmp1303-Lfunc_begin77
	.byte	0
	.uleb128 Ltmp1296-Lfunc_begin77
	.uleb128 Ltmp1297-Ltmp1296
	.uleb128 Ltmp1298-Lfunc_begin77
	.byte	0
	.uleb128 Ltmp1297-Lfunc_begin77
	.uleb128 Lfunc_end77-Ltmp1297
	.byte	0
	.byte	0
Lcst_end12:
	.p2align	2

	.section	__TEXT,__text,regular,pure_instructions
	.p2align	4, 0x90
__ZN3std4sync4mpmc5waker5Waker8register17he4293d33fbc29aaeE:
Lfunc_begin78:
	.loc	40 43 0
	.cfi_startproc
	pushq	%rbp
	.cfi_def_cfa_offset 16
	.cfi_offset %rbp, -16
	movq	%rsp, %rbp
	.cfi_def_cfa_register %rbp
	subq	$176, %rsp
	movq	%rdx, -168(%rbp)
	movq	%rdi, %rax
	movq	-168(%rbp), %rdi
	movq	%rax, -152(%rbp)
	movq	%rsi, -160(%rbp)
	movq	%rax, -88(%rbp)
	movq	%rsi, -80(%rbp)
	movq	%rdi, -72(%rbp)
Ltmp1334:
	.loc	40 44 9 prologue_end
	movq	%rax, -56(%rbp)
	.loc	40 44 35 is_stmt 0
	movq	%rsi, -48(%rbp)
Ltmp1335:
	.loc	5 599 14 is_stmt 1
	movq	$0, -40(%rbp)
	movq	-40(%rbp), %rax
	movq	%rax, -32(%rbp)
Ltmp1336:
	.loc	6 135 36
	movq	%rax, -128(%rbp)
	.loc	6 135 14 is_stmt 0
	movq	-128(%rbp), %rax
	movq	%rax, -136(%rbp)
	movq	-136(%rbp), %rax
	movq	%rax, -144(%rbp)
	movq	%rax, -24(%rbp)
Ltmp1337:
	.loc	40 44 58 is_stmt 1
	movq	%rdi, -16(%rbp)
Ltmp1338:
	.loc	40 50 55
	movq	%rdi, -8(%rbp)
Ltmp1339:
	.loc	47 16 5
	callq	__ZN64_$LT$alloc..sync..Arc$LT$T$GT$$u20$as$u20$core..clone..Clone$GT$5clone17h452e741b7bb32debE
	movq	-160(%rbp), %rsi
	movq	-152(%rbp), %rdi
	movq	%rax, %rcx
	movq	-144(%rbp), %rax
	.loc	47 14 17
	movq	%rcx, -96(%rbp)
Ltmp1340:
	.loc	40 50 29
	movq	%rsi, -120(%rbp)
	movq	%rax, -112(%rbp)
	movq	-96(%rbp), %rax
	movq	%rax, -104(%rbp)
	.loc	40 50 9 is_stmt 0
	leaq	-120(%rbp), %rsi
	callq	__ZN5alloc3vec16Vec$LT$T$C$A$GT$4push17h6a4da3bdbe66af59E
Ltmp1341:
	.loc	40 45 6 is_stmt 1
	addq	$176, %rsp
	popq	%rbp
	retq
Ltmp1342:
Lfunc_end78:
	.cfi_endproc

	.p2align	4, 0x90
__ZN3std4sync4mpmc5waker9SyncWaker10disconnect17h379a45e66e0cdc47E:
Lfunc_begin79:
	.loc	40 182 0
	.cfi_startproc
	.cfi_personality 155, _rust_eh_personality
	.cfi_lsda 16, Lexception13
	pushq	%rbp
	.cfi_def_cfa_offset 16
	.cfi_offset %rbp, -16
	movq	%rsp, %rbp
	.cfi_def_cfa_register %rbp
	subq	$160, %rsp
	movq	%rdi, %rsi
	movq	%rsi, -112(%rbp)
	movq	%rsi, -40(%rbp)
	leaq	-72(%rbp), %rdi
	movq	%rdi, -104(%rbp)
Ltmp1361:
	.loc	40 183 25 prologue_end
	callq	__ZN3std4sync5mutex14Mutex$LT$T$GT$4lock17h24be78b3f5903668E
	movq	-104(%rbp), %rdi
	leaq	l___unnamed_45(%rip), %rsi
	callq	__ZN4core6result19Result$LT$T$C$E$GT$6unwrap17hc03732dd36067699E
	movb	%dl, -80(%rbp)
	movq	%rax, -88(%rbp)
Ltmp1343:
	leaq	-88(%rbp), %rdi
Ltmp1362:
	.loc	40 184 9
	callq	__ZN84_$LT$std..sync..mutex..MutexGuard$LT$T$GT$$u20$as$u20$core..ops..deref..DerefMut$GT$9deref_mut17hc6089a352b479fa5E
Ltmp1344:
	movq	%rax, -96(%rbp)
	jmp	LBB79_3
Ltmp1363:
LBB79_1:
Ltmp1358:
	.loc	40 0 9 is_stmt 0
	leaq	-88(%rbp), %rdi
	.loc	40 187 5 is_stmt 1
	callq	__ZN4core3ptr86drop_in_place$LT$std..sync..mutex..MutexGuard$LT$std..sync..mpmc..waker..Waker$GT$$GT$17h632ab33a069b6f43E
Ltmp1359:
	jmp	LBB79_14
LBB79_2:
Ltmp1357:
	.loc	40 0 5 is_stmt 0
	movq	%rax, %rcx
	movl	%edx, %eax
	movq	%rcx, -32(%rbp)
	movl	%eax, -24(%rbp)
	jmp	LBB79_1
LBB79_3:
Ltmp1345:
	movq	-96(%rbp), %rdi
Ltmp1364:
	.loc	40 184 9 is_stmt 1
	callq	__ZN3std4sync4mpmc5waker5Waker10disconnect17h8bae8ba8cde31daeE
Ltmp1346:
	jmp	LBB79_4
LBB79_4:
	.loc	40 0 9 is_stmt 0
	movq	-112(%rbp), %rax
	.loc	40 185 9 is_stmt 1
	addq	$64, %rax
	movq	%rax, -128(%rbp)
	movq	%rax, -16(%rbp)
Ltmp1347:
	leaq	-88(%rbp), %rdi
	.loc	40 186 20
	callq	__ZN81_$LT$std..sync..mutex..MutexGuard$LT$T$GT$$u20$as$u20$core..ops..deref..Deref$GT$5deref17he17cdff2d4124acaE
Ltmp1348:
	movq	%rax, -120(%rbp)
	jmp	LBB79_5
LBB79_5:
Ltmp1349:
	.loc	40 0 20 is_stmt 0
	movq	-120(%rbp), %rdi
	.loc	40 186 20
	callq	__ZN5alloc3vec16Vec$LT$T$C$A$GT$8is_empty17h3c6c35c49279ccf9E
Ltmp1350:
	movb	%al, -129(%rbp)
	jmp	LBB79_6
LBB79_6:
	.loc	40 0 20
	movb	-129(%rbp), %al
	.loc	40 186 20
	testb	$1, %al
	jne	LBB79_8
	jmp	LBB79_7
LBB79_7:
	movb	$0, -41(%rbp)
	jmp	LBB79_11
LBB79_8:
Ltmp1351:
	.loc	40 0 20
	leaq	-88(%rbp), %rdi
	.loc	40 186 50
	callq	__ZN81_$LT$std..sync..mutex..MutexGuard$LT$T$GT$$u20$as$u20$core..ops..deref..Deref$GT$5deref17he17cdff2d4124acaE
Ltmp1352:
	movq	%rax, -144(%rbp)
	jmp	LBB79_9
LBB79_9:
	.loc	40 0 50
	movq	-144(%rbp), %rdi
	.loc	40 186 50
	addq	$24, %rdi
Ltmp1353:
	callq	__ZN5alloc3vec16Vec$LT$T$C$A$GT$8is_empty17h3c6c35c49279ccf9E
Ltmp1354:
	movb	%al, -145(%rbp)
	jmp	LBB79_10
LBB79_10:
	.loc	40 0 50
	movb	-145(%rbp), %al
	.loc	40 186 20
	andb	$1, %al
	movb	%al, -41(%rbp)
LBB79_11:
	.loc	40 0 20
	movq	-128(%rbp), %rdi
Ltmp1365:
	.loc	19 485 26 is_stmt 1
	movq	%rdi, -8(%rbp)
	.loc	19 485 40 is_stmt 0
	movzbl	-41(%rbp), %esi
Ltmp1355:
	movl	$4, %edx
	.loc	19 485 13
	callq	__ZN4core4sync6atomic12atomic_store17haf7066a6da67f28dE
Ltmp1356:
	jmp	LBB79_12
Ltmp1366:
LBB79_12:
	.loc	40 187 5 is_stmt 1
	leaq	-88(%rbp), %rdi
	callq	__ZN4core3ptr86drop_in_place$LT$std..sync..mutex..MutexGuard$LT$std..sync..mpmc..waker..Waker$GT$$GT$17h632ab33a069b6f43E
	.loc	40 187 6 is_stmt 0
	addq	$160, %rsp
	popq	%rbp
	retq
LBB79_13:
Ltmp1360:
	.loc	40 182 5 is_stmt 1
	callq	__ZN4core9panicking19panic_cannot_unwind17h1fbca7e1d7f56ae1E
LBB79_14:
	movq	-32(%rbp), %rdi
	callq	__Unwind_Resume
Ltmp1367:
Lfunc_end79:
	.cfi_endproc
	.section	__TEXT,__gcc_except_tab
	.p2align	2
GCC_except_table79:
Lexception13:
	.byte	255
	.byte	255
	.byte	1
	.uleb128 Lcst_end13-Lcst_begin13
Lcst_begin13:
	.uleb128 Lfunc_begin79-Lfunc_begin79
	.uleb128 Ltmp1343-Lfunc_begin79
	.byte	0
	.byte	0
	.uleb128 Ltmp1343-Lfunc_begin79
	.uleb128 Ltmp1344-Ltmp1343
	.uleb128 Ltmp1357-Lfunc_begin79
	.byte	0
	.uleb128 Ltmp1358-Lfunc_begin79
	.uleb128 Ltmp1359-Ltmp1358
	.uleb128 Ltmp1360-Lfunc_begin79
	.byte	0
	.uleb128 Ltmp1345-Lfunc_begin79
	.uleb128 Ltmp1356-Ltmp1345
	.uleb128 Ltmp1357-Lfunc_begin79
	.byte	0
	.uleb128 Ltmp1356-Lfunc_begin79
	.uleb128 Lfunc_end79-Ltmp1356
	.byte	0
	.byte	0
Lcst_end13:
	.p2align	2

	.section	__TEXT,__text,regular,pure_instructions
	.p2align	4, 0x90
__ZN3std4sync4mpmc5waker9SyncWaker10unregister17h1eb7e79a4b59facaE:
Lfunc_begin80:
	.loc	40 156 0
	.cfi_startproc
	.cfi_personality 155, _rust_eh_personality
	.cfi_lsda 16, Lexception14
	pushq	%rbp
	.cfi_def_cfa_offset 16
	.cfi_offset %rbp, -16
	movq	%rsp, %rbp
	.cfi_def_cfa_register %rbp
	subq	$192, %rsp
	movq	%rdx, -144(%rbp)
	movq	%rsi, -136(%rbp)
	movq	%rdi, -128(%rbp)
	movq	%rdi, -120(%rbp)
	movq	%rsi, -48(%rbp)
	movq	%rdx, -40(%rbp)
	leaq	-80(%rbp), %rdi
	movq	%rdi, -112(%rbp)
Ltmp1389:
	.loc	40 157 25 prologue_end
	callq	__ZN3std4sync5mutex14Mutex$LT$T$GT$4lock17h24be78b3f5903668E
	movq	-112(%rbp), %rdi
	leaq	l___unnamed_46(%rip), %rsi
	callq	__ZN4core6result19Result$LT$T$C$E$GT$6unwrap17hc03732dd36067699E
	movb	%dl, -88(%rbp)
	movq	%rax, -96(%rbp)
Ltmp1368:
	leaq	-96(%rbp), %rdi
Ltmp1390:
	.loc	40 158 21
	callq	__ZN84_$LT$std..sync..mutex..MutexGuard$LT$T$GT$$u20$as$u20$core..ops..deref..DerefMut$GT$9deref_mut17hc6089a352b479fa5E
Ltmp1369:
	movq	%rax, -104(%rbp)
	jmp	LBB80_3
Ltmp1391:
LBB80_1:
Ltmp1386:
	.loc	40 0 21 is_stmt 0
	leaq	-96(%rbp), %rdi
	.loc	40 162 5 is_stmt 1
	callq	__ZN4core3ptr86drop_in_place$LT$std..sync..mutex..MutexGuard$LT$std..sync..mpmc..waker..Waker$GT$$GT$17h632ab33a069b6f43E
Ltmp1387:
	jmp	LBB80_16
LBB80_2:
Ltmp1372:
	.loc	40 0 5 is_stmt 0
	movq	%rax, %rcx
	movl	%edx, %eax
	movq	%rcx, -32(%rbp)
	movl	%eax, -24(%rbp)
	jmp	LBB80_1
LBB80_3:
Ltmp1370:
	movq	-144(%rbp), %rdx
	movq	-104(%rbp), %rsi
	movq	-128(%rbp), %rdi
Ltmp1392:
	.loc	40 158 21 is_stmt 1
	callq	__ZN3std4sync4mpmc5waker5Waker10unregister17h37eea2e3914e0248E
Ltmp1371:
	jmp	LBB80_4
LBB80_4:
	.loc	40 0 21 is_stmt 0
	movq	-136(%rbp), %rax
Ltmp1393:
	.loc	40 159 9 is_stmt 1
	addq	$64, %rax
	movq	%rax, -160(%rbp)
	movq	%rax, -16(%rbp)
Ltmp1373:
	leaq	-96(%rbp), %rdi
	.loc	40 160 20
	callq	__ZN81_$LT$std..sync..mutex..MutexGuard$LT$T$GT$$u20$as$u20$core..ops..deref..Deref$GT$5deref17he17cdff2d4124acaE
Ltmp1374:
	movq	%rax, -152(%rbp)
	jmp	LBB80_7
Ltmp1394:
LBB80_5:
Ltmp1384:
	.loc	40 0 20 is_stmt 0
	movq	-128(%rbp), %rdi
	.loc	40 162 5 is_stmt 1
	callq	__ZN4core3ptr78drop_in_place$LT$core..option..Option$LT$std..sync..mpmc..waker..Entry$GT$$GT$17h4c774b1b5ad3dc78E
Ltmp1385:
	jmp	LBB80_1
LBB80_6:
Ltmp1383:
	.loc	40 0 5 is_stmt 0
	movq	%rax, %rcx
	movl	%edx, %eax
	movq	%rcx, -32(%rbp)
	movl	%eax, -24(%rbp)
	jmp	LBB80_5
LBB80_7:
Ltmp1375:
	movq	-152(%rbp), %rdi
Ltmp1395:
	.loc	40 160 20 is_stmt 1
	callq	__ZN5alloc3vec16Vec$LT$T$C$A$GT$8is_empty17h3c6c35c49279ccf9E
Ltmp1376:
	movb	%al, -161(%rbp)
	jmp	LBB80_8
LBB80_8:
	.loc	40 0 20 is_stmt 0
	movb	-161(%rbp), %al
	.loc	40 160 20
	testb	$1, %al
	jne	LBB80_10
	jmp	LBB80_9
LBB80_9:
	movb	$0, -49(%rbp)
	jmp	LBB80_13
LBB80_10:
Ltmp1377:
	.loc	40 0 20
	leaq	-96(%rbp), %rdi
	.loc	40 160 50
	callq	__ZN81_$LT$std..sync..mutex..MutexGuard$LT$T$GT$$u20$as$u20$core..ops..deref..Deref$GT$5deref17he17cdff2d4124acaE
Ltmp1378:
	movq	%rax, -176(%rbp)
	jmp	LBB80_11
LBB80_11:
	.loc	40 0 50
	movq	-176(%rbp), %rdi
	.loc	40 160 50
	addq	$24, %rdi
Ltmp1379:
	callq	__ZN5alloc3vec16Vec$LT$T$C$A$GT$8is_empty17h3c6c35c49279ccf9E
Ltmp1380:
	movb	%al, -177(%rbp)
	jmp	LBB80_12
LBB80_12:
	.loc	40 0 50
	movb	-177(%rbp), %al
	.loc	40 160 20
	andb	$1, %al
	movb	%al, -49(%rbp)
LBB80_13:
	.loc	40 0 20
	movq	-160(%rbp), %rdi
Ltmp1396:
	.loc	19 485 26 is_stmt 1
	movq	%rdi, -8(%rbp)
	.loc	19 485 40 is_stmt 0
	movzbl	-49(%rbp), %esi
Ltmp1381:
	movl	$4, %edx
	.loc	19 485 13
	callq	__ZN4core4sync6atomic12atomic_store17haf7066a6da67f28dE
Ltmp1382:
	jmp	LBB80_14
Ltmp1397:
LBB80_14:
	.loc	40 162 5 is_stmt 1
	leaq	-96(%rbp), %rdi
	callq	__ZN4core3ptr86drop_in_place$LT$std..sync..mutex..MutexGuard$LT$std..sync..mpmc..waker..Waker$GT$$GT$17h632ab33a069b6f43E
	movq	-120(%rbp), %rax
	.loc	40 162 6 is_stmt 0
	addq	$192, %rsp
	popq	%rbp
	retq
LBB80_15:
Ltmp1388:
	.loc	40 156 5 is_stmt 1
	callq	__ZN4core9panicking19panic_cannot_unwind17h1fbca7e1d7f56ae1E
LBB80_16:
	movq	-32(%rbp), %rdi
	callq	__Unwind_Resume
Ltmp1398:
Lfunc_end80:
	.cfi_endproc
	.section	__TEXT,__gcc_except_tab
	.p2align	2
GCC_except_table80:
Lexception14:
	.byte	255
	.byte	255
	.byte	1
	.uleb128 Lcst_end14-Lcst_begin14
Lcst_begin14:
	.uleb128 Lfunc_begin80-Lfunc_begin80
	.uleb128 Ltmp1368-Lfunc_begin80
	.byte	0
	.byte	0
	.uleb128 Ltmp1368-Lfunc_begin80
	.uleb128 Ltmp1369-Ltmp1368
	.uleb128 Ltmp1372-Lfunc_begin80
	.byte	0
	.uleb128 Ltmp1386-Lfunc_begin80
	.uleb128 Ltmp1387-Ltmp1386
	.uleb128 Ltmp1388-Lfunc_begin80
	.byte	0
	.uleb128 Ltmp1370-Lfunc_begin80
	.uleb128 Ltmp1371-Ltmp1370
	.uleb128 Ltmp1372-Lfunc_begin80
	.byte	0
	.uleb128 Ltmp1373-Lfunc_begin80
	.uleb128 Ltmp1374-Ltmp1373
	.uleb128 Ltmp1383-Lfunc_begin80
	.byte	0
	.uleb128 Ltmp1384-Lfunc_begin80
	.uleb128 Ltmp1385-Ltmp1384
	.uleb128 Ltmp1388-Lfunc_begin80
	.byte	0
	.uleb128 Ltmp1375-Lfunc_begin80
	.uleb128 Ltmp1382-Ltmp1375
	.uleb128 Ltmp1383-Lfunc_begin80
	.byte	0
	.uleb128 Ltmp1382-Lfunc_begin80
	.uleb128 Lfunc_end80-Ltmp1382
	.byte	0
	.byte	0
Lcst_end14:
	.p2align	2

	.section	__TEXT,__text,regular,pure_instructions
	.p2align	4, 0x90
__ZN3std4sync4mpmc5waker9SyncWaker6notify17h5348ac5af42bad8fE:
Lfunc_begin81:
	.loc	40 166 0
	.cfi_startproc
	.cfi_personality 155, _rust_eh_personality
	.cfi_lsda 16, Lexception15
	pushq	%rbp
	.cfi_def_cfa_offset 16
	.cfi_offset %rbp, -16
	movq	%rsp, %rbp
	.cfi_def_cfa_register %rbp
	subq	$224, %rsp
	movq	%rdi, -152(%rbp)
	movq	%rdi, -72(%rbp)
Ltmp1425:
	.loc	40 167 13 prologue_end
	addq	$64, %rdi
	movq	%rdi, -64(%rbp)
Ltmp1426:
	.loc	19 456 30
	movq	%rdi, -56(%rbp)
	.loc	19 456 18 is_stmt 0
	movl	$4, %esi
	callq	__ZN4core4sync6atomic11atomic_load17h0c38a0cf1f277e9fE
	cmpb	$0, %al
	setne	%al
Ltmp1427:
	.loc	40 167 12 is_stmt 1
	xorb	$-1, %al
	testb	$1, %al
	jne	LBB81_2
LBB81_1:
	.loc	40 178 6
	addq	$224, %rsp
	popq	%rbp
	retq
LBB81_2:
	.loc	40 0 6 is_stmt 0
	movq	-152(%rbp), %rsi
	leaq	-128(%rbp), %rdi
	movq	%rdi, -168(%rbp)
	.loc	40 168 29 is_stmt 1
	callq	__ZN3std4sync5mutex14Mutex$LT$T$GT$4lock17h24be78b3f5903668E
	movq	-168(%rbp), %rdi
	leaq	l___unnamed_47(%rip), %rsi
	callq	__ZN4core6result19Result$LT$T$C$E$GT$6unwrap17hc03732dd36067699E
	movq	-152(%rbp), %rdi
	movb	%dl, -136(%rbp)
	movq	%rax, -144(%rbp)
Ltmp1428:
	.loc	40 169 17
	addq	$64, %rdi
	movq	%rdi, -48(%rbp)
Ltmp1429:
	.loc	19 456 30
	movq	%rdi, -40(%rbp)
Ltmp1399:
	movl	$4, %esi
	.loc	19 456 18 is_stmt 0
	callq	__ZN4core4sync6atomic11atomic_load17h0c38a0cf1f277e9fE
Ltmp1400:
	movb	%al, -153(%rbp)
	jmp	LBB81_5
Ltmp1430:
LBB81_3:
Ltmp1422:
	.loc	19 0 18
	leaq	-144(%rbp), %rdi
	.loc	40 177 9 is_stmt 1
	callq	__ZN4core3ptr86drop_in_place$LT$std..sync..mutex..MutexGuard$LT$std..sync..mpmc..waker..Waker$GT$$GT$17h632ab33a069b6f43E
Ltmp1423:
	jmp	LBB81_22
LBB81_4:
Ltmp1421:
	.loc	40 0 9 is_stmt 0
	movq	%rax, %rcx
	movl	%edx, %eax
	movq	%rcx, -32(%rbp)
	movl	%eax, -24(%rbp)
	jmp	LBB81_3
LBB81_5:
	movb	-153(%rbp), %al
Ltmp1431:
	.loc	19 456 18 is_stmt 1
	cmpb	$0, %al
	setne	%al
Ltmp1432:
	.loc	40 169 16
	xorb	$-1, %al
	testb	$1, %al
	jne	LBB81_7
Ltmp1433:
LBB81_6:
	.loc	40 177 9
	leaq	-144(%rbp), %rdi
	callq	__ZN4core3ptr86drop_in_place$LT$std..sync..mutex..MutexGuard$LT$std..sync..mpmc..waker..Waker$GT$$GT$17h632ab33a069b6f43E
	.loc	40 167 9
	jmp	LBB81_1
LBB81_7:
Ltmp1401:
	.loc	40 0 9 is_stmt 0
	leaq	-144(%rbp), %rdi
Ltmp1434:
	.loc	40 170 17 is_stmt 1
	callq	__ZN84_$LT$std..sync..mutex..MutexGuard$LT$T$GT$$u20$as$u20$core..ops..deref..DerefMut$GT$9deref_mut17hc6089a352b479fa5E
Ltmp1402:
	movq	%rax, -176(%rbp)
	jmp	LBB81_8
LBB81_8:
Ltmp1403:
	.loc	40 0 17 is_stmt 0
	movq	-176(%rbp), %rsi
	leaq	-104(%rbp), %rdi
	.loc	40 170 17
	callq	__ZN3std4sync4mpmc5waker5Waker10try_select17hcc704da0babd84f7E
Ltmp1404:
	jmp	LBB81_9
LBB81_9:
Ltmp1405:
	.loc	40 0 17
	leaq	-104(%rbp), %rdi
	.loc	40 170 35
	callq	__ZN4core3ptr78drop_in_place$LT$core..option..Option$LT$std..sync..mpmc..waker..Entry$GT$$GT$17h4c774b1b5ad3dc78E
Ltmp1406:
	jmp	LBB81_10
LBB81_10:
Ltmp1407:
	.loc	40 0 35
	leaq	-144(%rbp), %rdi
	.loc	40 171 17 is_stmt 1
	callq	__ZN84_$LT$std..sync..mutex..MutexGuard$LT$T$GT$$u20$as$u20$core..ops..deref..DerefMut$GT$9deref_mut17hc6089a352b479fa5E
Ltmp1408:
	movq	%rax, -184(%rbp)
	jmp	LBB81_11
LBB81_11:
Ltmp1409:
	.loc	40 0 17 is_stmt 0
	movq	-184(%rbp), %rdi
	.loc	40 171 17
	callq	__ZN3std4sync4mpmc5waker5Waker6notify17h471a865f0401af31E
Ltmp1410:
	jmp	LBB81_12
LBB81_12:
	.loc	40 0 17
	movq	-152(%rbp), %rax
	.loc	40 172 17 is_stmt 1
	addq	$64, %rax
	movq	%rax, -200(%rbp)
	movq	%rax, -16(%rbp)
Ltmp1411:
	leaq	-144(%rbp), %rdi
	.loc	40 173 21
	callq	__ZN81_$LT$std..sync..mutex..MutexGuard$LT$T$GT$$u20$as$u20$core..ops..deref..Deref$GT$5deref17he17cdff2d4124acaE
Ltmp1412:
	movq	%rax, -192(%rbp)
	jmp	LBB81_13
LBB81_13:
Ltmp1413:
	.loc	40 0 21 is_stmt 0
	movq	-192(%rbp), %rdi
	.loc	40 173 21
	callq	__ZN5alloc3vec16Vec$LT$T$C$A$GT$8is_empty17h3c6c35c49279ccf9E
Ltmp1414:
	movb	%al, -201(%rbp)
	jmp	LBB81_14
LBB81_14:
	.loc	40 0 21
	movb	-201(%rbp), %al
	.loc	40 173 21
	testb	$1, %al
	jne	LBB81_16
	jmp	LBB81_15
LBB81_15:
	movb	$0, -73(%rbp)
	jmp	LBB81_19
LBB81_16:
Ltmp1415:
	.loc	40 0 21
	leaq	-144(%rbp), %rdi
	.loc	40 173 51
	callq	__ZN81_$LT$std..sync..mutex..MutexGuard$LT$T$GT$$u20$as$u20$core..ops..deref..Deref$GT$5deref17he17cdff2d4124acaE
Ltmp1416:
	movq	%rax, -216(%rbp)
	jmp	LBB81_17
LBB81_17:
	.loc	40 0 51
	movq	-216(%rbp), %rdi
	.loc	40 173 51
	addq	$24, %rdi
Ltmp1417:
	callq	__ZN5alloc3vec16Vec$LT$T$C$A$GT$8is_empty17h3c6c35c49279ccf9E
Ltmp1418:
	movb	%al, -217(%rbp)
	jmp	LBB81_18
LBB81_18:
	.loc	40 0 51
	movb	-217(%rbp), %al
	.loc	40 173 21
	andb	$1, %al
	movb	%al, -73(%rbp)
LBB81_19:
	.loc	40 0 21
	movq	-200(%rbp), %rdi
Ltmp1435:
	.loc	19 485 26 is_stmt 1
	movq	%rdi, -8(%rbp)
	.loc	19 485 40 is_stmt 0
	movzbl	-73(%rbp), %esi
Ltmp1419:
	movl	$4, %edx
	.loc	19 485 13
	callq	__ZN4core4sync6atomic12atomic_store17haf7066a6da67f28dE
Ltmp1420:
	jmp	LBB81_20
Ltmp1436:
LBB81_20:
	.loc	40 169 13 is_stmt 1
	jmp	LBB81_6
Ltmp1437:
LBB81_21:
Ltmp1424:
	.loc	40 166 5
	callq	__ZN4core9panicking19panic_cannot_unwind17h1fbca7e1d7f56ae1E
LBB81_22:
	movq	-32(%rbp), %rdi
	callq	__Unwind_Resume
Ltmp1438:
Lfunc_end81:
	.cfi_endproc
	.section	__TEXT,__gcc_except_tab
	.p2align	2
GCC_except_table81:
Lexception15:
	.byte	255
	.byte	255
	.byte	1
	.uleb128 Lcst_end15-Lcst_begin15
Lcst_begin15:
	.uleb128 Lfunc_begin81-Lfunc_begin81
	.uleb128 Ltmp1399-Lfunc_begin81
	.byte	0
	.byte	0
	.uleb128 Ltmp1399-Lfunc_begin81
	.uleb128 Ltmp1400-Ltmp1399
	.uleb128 Ltmp1421-Lfunc_begin81
	.byte	0
	.uleb128 Ltmp1422-Lfunc_begin81
	.uleb128 Ltmp1423-Ltmp1422
	.uleb128 Ltmp1424-Lfunc_begin81
	.byte	0
	.uleb128 Ltmp1423-Lfunc_begin81
	.uleb128 Ltmp1401-Ltmp1423
	.byte	0
	.byte	0
	.uleb128 Ltmp1401-Lfunc_begin81
	.uleb128 Ltmp1420-Ltmp1401
	.uleb128 Ltmp1421-Lfunc_begin81
	.byte	0
	.uleb128 Ltmp1420-Lfunc_begin81
	.uleb128 Lfunc_end81-Ltmp1420
	.byte	0
	.byte	0
Lcst_end15:
	.p2align	2

	.section	__TEXT,__text,regular,pure_instructions
	.p2align	4, 0x90
__ZN3std4sync4mpmc5waker9SyncWaker8register17h2776a0c36810bdd5E:
Lfunc_begin82:
	.loc	40 147 0
	.cfi_startproc
	.cfi_personality 155, _rust_eh_personality
	.cfi_lsda 16, Lexception16
	pushq	%rbp
	.cfi_def_cfa_offset 16
	.cfi_offset %rbp, -16
	movq	%rsp, %rbp
	.cfi_def_cfa_register %rbp
	subq	$192, %rsp
	movq	%rsi, %rax
	movq	%rdi, %rsi
	movq	%rsi, -144(%rbp)
	movq	%rax, -136(%rbp)
	movq	%rdx, -128(%rbp)
	movq	%rsi, -56(%rbp)
	movq	%rax, -48(%rbp)
	movq	%rdx, -40(%rbp)
	leaq	-88(%rbp), %rdi
	movq	%rdi, -120(%rbp)
Ltmp1457:
	.loc	40 148 25 prologue_end
	callq	__ZN3std4sync5mutex14Mutex$LT$T$GT$4lock17h24be78b3f5903668E
	movq	-120(%rbp), %rdi
	leaq	l___unnamed_48(%rip), %rsi
	callq	__ZN4core6result19Result$LT$T$C$E$GT$6unwrap17hc03732dd36067699E
	movb	%dl, -96(%rbp)
	movq	%rax, -104(%rbp)
Ltmp1439:
	leaq	-104(%rbp), %rdi
Ltmp1458:
	.loc	40 149 9
	callq	__ZN84_$LT$std..sync..mutex..MutexGuard$LT$T$GT$$u20$as$u20$core..ops..deref..DerefMut$GT$9deref_mut17hc6089a352b479fa5E
Ltmp1440:
	movq	%rax, -112(%rbp)
	jmp	LBB82_3
Ltmp1459:
LBB82_1:
Ltmp1454:
	.loc	40 0 9 is_stmt 0
	leaq	-104(%rbp), %rdi
	.loc	40 152 5 is_stmt 1
	callq	__ZN4core3ptr86drop_in_place$LT$std..sync..mutex..MutexGuard$LT$std..sync..mpmc..waker..Waker$GT$$GT$17h632ab33a069b6f43E
Ltmp1455:
	jmp	LBB82_14
LBB82_2:
Ltmp1453:
	.loc	40 0 5 is_stmt 0
	movq	%rax, %rcx
	movl	%edx, %eax
	movq	%rcx, -32(%rbp)
	movl	%eax, -24(%rbp)
	jmp	LBB82_1
LBB82_3:
Ltmp1441:
	movq	-128(%rbp), %rdx
	movq	-136(%rbp), %rsi
	movq	-112(%rbp), %rdi
Ltmp1460:
	.loc	40 149 9 is_stmt 1
	callq	__ZN3std4sync4mpmc5waker5Waker8register17he4293d33fbc29aaeE
Ltmp1442:
	jmp	LBB82_4
LBB82_4:
	.loc	40 0 9 is_stmt 0
	movq	-144(%rbp), %rax
	.loc	40 150 9 is_stmt 1
	addq	$64, %rax
	movq	%rax, -160(%rbp)
	movq	%rax, -16(%rbp)
Ltmp1443:
	leaq	-104(%rbp), %rdi
	.loc	40 151 20
	callq	__ZN81_$LT$std..sync..mutex..MutexGuard$LT$T$GT$$u20$as$u20$core..ops..deref..Deref$GT$5deref17he17cdff2d4124acaE
Ltmp1444:
	movq	%rax, -152(%rbp)
	jmp	LBB82_5
LBB82_5:
Ltmp1445:
	.loc	40 0 20 is_stmt 0
	movq	-152(%rbp), %rdi
	.loc	40 151 20
	callq	__ZN5alloc3vec16Vec$LT$T$C$A$GT$8is_empty17h3c6c35c49279ccf9E
Ltmp1446:
	movb	%al, -161(%rbp)
	jmp	LBB82_6
LBB82_6:
	.loc	40 0 20
	movb	-161(%rbp), %al
	.loc	40 151 20
	testb	$1, %al
	jne	LBB82_8
	jmp	LBB82_7
LBB82_7:
	movb	$0, -57(%rbp)
	jmp	LBB82_11
LBB82_8:
Ltmp1447:
	.loc	40 0 20
	leaq	-104(%rbp), %rdi
	.loc	40 151 50
	callq	__ZN81_$LT$std..sync..mutex..MutexGuard$LT$T$GT$$u20$as$u20$core..ops..deref..Deref$GT$5deref17he17cdff2d4124acaE
Ltmp1448:
	movq	%rax, -176(%rbp)
	jmp	LBB82_9
LBB82_9:
	.loc	40 0 50
	movq	-176(%rbp), %rdi
	.loc	40 151 50
	addq	$24, %rdi
Ltmp1449:
	callq	__ZN5alloc3vec16Vec$LT$T$C$A$GT$8is_empty17h3c6c35c49279ccf9E
Ltmp1450:
	movb	%al, -177(%rbp)
	jmp	LBB82_10
LBB82_10:
	.loc	40 0 50
	movb	-177(%rbp), %al
	.loc	40 151 20
	andb	$1, %al
	movb	%al, -57(%rbp)
LBB82_11:
	.loc	40 0 20
	movq	-160(%rbp), %rdi
Ltmp1461:
	.loc	19 485 26 is_stmt 1
	movq	%rdi, -8(%rbp)
	.loc	19 485 40 is_stmt 0
	movzbl	-57(%rbp), %esi
Ltmp1451:
	movl	$4, %edx
	.loc	19 485 13
	callq	__ZN4core4sync6atomic12atomic_store17haf7066a6da67f28dE
Ltmp1452:
	jmp	LBB82_12
Ltmp1462:
LBB82_12:
	.loc	40 152 5 is_stmt 1
	leaq	-104(%rbp), %rdi
	callq	__ZN4core3ptr86drop_in_place$LT$std..sync..mutex..MutexGuard$LT$std..sync..mpmc..waker..Waker$GT$$GT$17h632ab33a069b6f43E
	.loc	40 152 6 is_stmt 0
	addq	$192, %rsp
	popq	%rbp
	retq
LBB82_13:
Ltmp1456:
	.loc	40 147 5 is_stmt 1
	callq	__ZN4core9panicking19panic_cannot_unwind17h1fbca7e1d7f56ae1E
LBB82_14:
	movq	-32(%rbp), %rdi
	callq	__Unwind_Resume
Ltmp1463:
Lfunc_end82:
	.cfi_endproc
	.section	__TEXT,__gcc_except_tab
	.p2align	2
GCC_except_table82:
Lexception16:
	.byte	255
	.byte	255
	.byte	1
	.uleb128 Lcst_end16-Lcst_begin16
Lcst_begin16:
	.uleb128 Lfunc_begin82-Lfunc_begin82
	.uleb128 Ltmp1439-Lfunc_begin82
	.byte	0
	.byte	0
	.uleb128 Ltmp1439-Lfunc_begin82
	.uleb128 Ltmp1440-Ltmp1439
	.uleb128 Ltmp1453-Lfunc_begin82
	.byte	0
	.uleb128 Ltmp1454-Lfunc_begin82
	.uleb128 Ltmp1455-Ltmp1454
	.uleb128 Ltmp1456-Lfunc_begin82
	.byte	0
	.uleb128 Ltmp1441-Lfunc_begin82
	.uleb128 Ltmp1452-Ltmp1441
	.uleb128 Ltmp1453-Lfunc_begin82
	.byte	0
	.uleb128 Ltmp1452-Lfunc_begin82
	.uleb128 Lfunc_end82-Ltmp1452
	.byte	0
	.byte	0
Lcst_end16:
	.p2align	2

	.section	__TEXT,__text,regular,pure_instructions
	.globl	__ZN3std4sync4mpmc7channel17h82bcfea87a4b2b11E
	.p2align	4, 0x90
__ZN3std4sync4mpmc7channel17h82bcfea87a4b2b11E:
Lfunc_begin83:
	.loc	33 51 0
	.cfi_startproc
	pushq	%rbp
	.cfi_def_cfa_offset 16
	.cfi_offset %rbp, -16
	movq	%rsp, %rbp
	.cfi_def_cfa_register %rbp
	andq	$-128, %rsp
	subq	$640, %rsp
	movq	%rdi, 112(%rsp)
	movq	%rdi, 120(%rsp)
Ltmp1464:
	.loc	33 52 31 prologue_end
	leaq	128(%rsp), %rdi
	callq	__ZN3std4sync4mpmc4list16Channel$LT$T$GT$3new17h923429b197034c73E
	.loc	33 52 18 is_stmt 0
	leaq	128(%rsp), %rdi
	callq	__ZN3std4sync4mpmc7counter3new17h1fcd65b9e520df20E
	movq	112(%rsp), %rdi
	movq	%rax, %rcx
	movq	120(%rsp), %rax
	.loc	33 52 10
	movq	%rcx, 608(%rsp)
	.loc	33 52 13
	movq	%rdx, 616(%rsp)
Ltmp1465:
	.loc	33 53 30 is_stmt 1
	movq	%rcx, 568(%rsp)
	movq	$1, 560(%rsp)
	.loc	33 53 13 is_stmt 0
	movq	560(%rsp), %rsi
	movq	568(%rsp), %rcx
	movq	%rsi, 544(%rsp)
	movq	%rcx, 552(%rsp)
Ltmp1466:
	.loc	33 54 32 is_stmt 1
	movq	%rdx, 600(%rsp)
	movq	$1, 592(%rsp)
	.loc	33 54 13 is_stmt 0
	movq	592(%rsp), %rdx
	movq	600(%rsp), %rcx
	movq	%rdx, 576(%rsp)
	movq	%rcx, 584(%rsp)
Ltmp1467:
	.loc	33 55 6 is_stmt 1
	movq	544(%rsp), %r8
	movq	552(%rsp), %rsi
	.loc	33 55 9 is_stmt 0
	movq	576(%rsp), %rdx
	movq	584(%rsp), %rcx
	.loc	33 55 5
	movq	%r8, (%rdi)
	movq	%rsi, 8(%rdi)
	movq	%rdx, 16(%rdi)
	movq	%rcx, 24(%rdi)
Ltmp1468:
	.loc	33 56 2 is_stmt 1
	movq	%rbp, %rsp
	popq	%rbp
	retq
Ltmp1469:
Lfunc_end83:
	.cfi_endproc

	.p2align	4, 0x90
__ZN3std4sync4mpmc7context7Context10try_select17h1eaae579495c2b2aE:
Lfunc_begin84:
	.loc	47 90 0
	.cfi_startproc
	pushq	%rbp
	.cfi_def_cfa_offset 16
	.cfi_offset %rbp, -16
	movq	%rsp, %rbp
	.cfi_def_cfa_register %rbp
	subq	$128, %rsp
	movq	%rdi, -88(%rbp)
	movq	%rsi, -80(%rbp)
	movq	%rdx, -72(%rbp)
Ltmp1470:
	.loc	47 91 9 prologue_end
	movq	%rdi, -64(%rbp)
Ltmp1471:
	.loc	52 1391 10
	movq	%rdi, -56(%rbp)
Ltmp1472:
	.loc	52 1115 18
	movq	%rdi, -48(%rbp)
Ltmp1473:
	.loc	10 376 20
	movq	(%rdi), %rax
	movq	%rax, -40(%rbp)
Ltmp1474:
	.loc	52 1391 9
	addq	$16, %rax
	movq	%rax, -128(%rbp)
Ltmp1475:
	.loc	47 91 9
	movq	%rax, -32(%rbp)
Ltmp1476:
	.loc	45 65 34
	movq	$0, -24(%rbp)
Ltmp1477:
	.loc	47 95 17
	movq	%rsi, -104(%rbp)
	movq	%rdx, -96(%rbp)
Ltmp1478:
	.loc	45 64 15
	movq	-104(%rbp), %rax
	movq	%rax, -120(%rbp)
	.loc	45 0 15 is_stmt 0
	movq	-120(%rbp), %rax
	leaq	LJTI84_0(%rip), %rcx
	movslq	(%rcx,%rax,4), %rax
	addq	%rcx, %rax
	jmpq	*%rax
	.loc	45 64 15
	ud2
LBB84_2:
	.loc	45 65 34 is_stmt 1
	movq	$0, -112(%rbp)
	jmp	LBB84_6
LBB84_3:
	.loc	45 66 34
	movq	$1, -112(%rbp)
	jmp	LBB84_6
LBB84_4:
	.loc	45 67 39
	movq	$2, -112(%rbp)
	jmp	LBB84_6
LBB84_5:
	.loc	45 68 43
	movq	-96(%rbp), %rax
	movq	%rax, -16(%rbp)
Ltmp1479:
	.loc	45 68 52 is_stmt 0
	movq	%rax, -112(%rbp)
Ltmp1480:
LBB84_6:
	.loc	45 0 52
	movq	-128(%rbp), %rdi
Ltmp1481:
	.loc	19 2298 50 is_stmt 1
	movq	%rdi, -8(%rbp)
	.loc	19 2298 73 is_stmt 0
	movq	-112(%rbp), %rdx
	xorl	%eax, %eax
	movl	%eax, %esi
	movl	$3, %ecx
	movl	$2, %r8d
	.loc	19 2298 26
	callq	__ZN4core4sync6atomic23atomic_compare_exchange17hba5dc4d982778d51E
	movq	%rax, %rdi
	movq	%rdx, %rsi
Ltmp1482:
	.loc	47 91 9 is_stmt 1
	callq	__ZN4core6result19Result$LT$T$C$E$GT$3map17haf2e8f708bccf1b4E
	movq	%rax, %rdi
	movq	%rdx, %rsi
	callq	__ZN4core6result19Result$LT$T$C$E$GT$7map_err17hd882e1dd055a797cE
	.loc	47 101 6
	addq	$128, %rsp
	popq	%rbp
	retq
Ltmp1483:
Lfunc_end84:
	.cfi_endproc
	.p2align	2, 0x90
	.data_region jt32
.set L84_0_set_2, LBB84_2-LJTI84_0
.set L84_0_set_3, LBB84_3-LJTI84_0
.set L84_0_set_4, LBB84_4-LJTI84_0
.set L84_0_set_5, LBB84_5-LJTI84_0
LJTI84_0:
	.long	L84_0_set_2
	.long	L84_0_set_3
	.long	L84_0_set_4
	.long	L84_0_set_5
	.end_data_region

	.globl	__ZN3std4sync4mpmc7context7Context10try_select28_$u7b$$u7b$closure$u7d$$u7d$17h43904963fbe3da60E
	.p2align	4, 0x90
__ZN3std4sync4mpmc7context7Context10try_select28_$u7b$$u7b$closure$u7d$$u7d$17h43904963fbe3da60E:
Lfunc_begin85:
	.loc	47 99 0
	.cfi_startproc
	pushq	%rbp
	.cfi_def_cfa_offset 16
	.cfi_offset %rbp, -16
	movq	%rsp, %rbp
	.cfi_def_cfa_register %rbp
	subq	$16, %rsp
	movq	%rdi, -8(%rbp)
Ltmp1484:
	.loc	47 99 24 prologue_end
	addq	$16, %rsp
	popq	%rbp
	retq
Ltmp1485:
Lfunc_end85:
	.cfi_endproc

	.globl	__ZN3std4sync4mpmc7context7Context10try_select28_$u7b$$u7b$closure$u7d$$u7d$17h8bc5905c4474e46cE
	.p2align	4, 0x90
__ZN3std4sync4mpmc7context7Context10try_select28_$u7b$$u7b$closure$u7d$$u7d$17h8bc5905c4474e46cE:
Lfunc_begin86:
	.loc	47 100 0
	.cfi_startproc
	pushq	%rbp
	.cfi_def_cfa_offset 16
	.cfi_offset %rbp, -16
	movq	%rsp, %rbp
	.cfi_def_cfa_register %rbp
	subq	$16, %rsp
	movq	%rdi, -8(%rbp)
Ltmp1486:
	.loc	47 100 26 prologue_end
	callq	__ZN50_$LT$T$u20$as$u20$core..convert..Into$LT$U$GT$$GT$4into17h2250dfc1697f3bddE
	.loc	47 100 34 is_stmt 0
	addq	$16, %rsp
	popq	%rbp
	retq
Ltmp1487:
Lfunc_end86:
	.cfi_endproc

	.p2align	4, 0x90
__ZN3std4sync4mpmc7context7Context10wait_until17h38a3c2d333acb010E:
Lfunc_begin87:
	.loc	47 117 0 is_stmt 1
	.cfi_startproc
	pushq	%rbp
	.cfi_def_cfa_offset 16
	.cfi_offset %rbp, -16
	movq	%rsp, %rbp
	.cfi_def_cfa_register %rbp
	subq	$288, %rsp
	movq	%rdi, -280(%rbp)
	movq	%rsi, -272(%rbp)
	movq	%rdx, -264(%rbp)
	movq	%rdi, -152(%rbp)
LBB87_1:
	movq	-280(%rbp), %rax
Ltmp1488:
	.loc	47 120 38 prologue_end
	movq	%rax, -144(%rbp)
Ltmp1489:
	.loc	52 1391 10
	movq	%rax, -136(%rbp)
Ltmp1490:
	.loc	52 1115 18
	movq	%rax, -128(%rbp)
Ltmp1491:
	.loc	10 376 20
	movq	(%rax), %rdi
	movq	%rdi, -120(%rbp)
Ltmp1492:
	.loc	52 1391 9
	addq	$16, %rdi
Ltmp1493:
	.loc	47 120 38
	movq	%rdi, -112(%rbp)
Ltmp1494:
	.loc	19 2127 38
	movq	%rdi, -104(%rbp)
	movl	$2, %esi
	.loc	19 2127 26 is_stmt 0
	callq	__ZN4core4sync6atomic11atomic_load17h02119c845b0293e5E
	movq	%rax, %rcx
	movq	%rcx, -288(%rbp)
	movq	%rax, -96(%rbp)
Ltmp1495:
	.loc	45 52 9 is_stmt 1
	testq	%rax, %rax
	je	LBB87_3
	jmp	LBB87_22
LBB87_22:
	.loc	45 0 9 is_stmt 0
	movq	-288(%rbp), %rax
	.loc	45 52 9
	subq	$1, %rax
	je	LBB87_4
	jmp	LBB87_23
LBB87_23:
	.loc	45 0 9
	movq	-288(%rbp), %rax
	.loc	45 52 9
	subq	$2, %rax
	je	LBB87_5
	jmp	LBB87_2
LBB87_2:
	.loc	45 0 9
	movq	-288(%rbp), %rax
	.loc	45 56 13 is_stmt 1
	movq	%rax, -88(%rbp)
Ltmp1496:
	.loc	45 56 41 is_stmt 0
	movq	%rax, -168(%rbp)
	.loc	45 56 21
	movq	-168(%rbp), %rax
	movq	%rax, -232(%rbp)
	movq	$3, -240(%rbp)
Ltmp1497:
	.loc	45 56 56
	jmp	LBB87_6
LBB87_3:
	.loc	45 53 18 is_stmt 1
	movq	$0, -240(%rbp)
	jmp	LBB87_6
LBB87_4:
	.loc	45 54 18
	movq	$1, -240(%rbp)
	jmp	LBB87_6
LBB87_5:
	.loc	45 55 18
	movq	$2, -240(%rbp)
Ltmp1498:
LBB87_6:
	.loc	47 121 16
	leaq	-240(%rbp), %rax
	movq	%rax, -80(%rbp)
	.loc	47 121 23 is_stmt 0
	leaq	L___unnamed_49(%rip), %rax
	movq	%rax, -72(%rbp)
Ltmp1499:
	.loc	42 228 10 is_stmt 1
	leaq	-240(%rbp), %rdi
	leaq	L___unnamed_49(%rip), %rsi
	callq	__ZN74_$LT$std..sync..mpmc..select..Selected$u20$as$u20$core..cmp..PartialEq$GT$2eq17he59c7a18a320d72dE
	.loc	42 228 9 is_stmt 0
	xorb	$-1, %al
Ltmp1500:
	.loc	47 121 16 is_stmt 1
	testb	$1, %al
	jne	LBB87_8
Ltmp1501:
	.loc	47 126 20
	cmpq	$1, -272(%rbp)
	je	LBB87_10
	jmp	LBB87_11
Ltmp1502:
LBB87_8:
	.loc	47 122 24
	movq	-240(%rbp), %rcx
	movq	-232(%rbp), %rax
	movq	%rcx, -256(%rbp)
	movq	%rax, -248(%rbp)
Ltmp1503:
LBB87_9:
	.loc	47 142 6
	movq	-256(%rbp), %rax
	movq	-248(%rbp), %rdx
	addq	$288, %rsp
	popq	%rbp
	retq
LBB87_10:
Ltmp1504:
	.loc	47 126 25
	movq	-264(%rbp), %rax
	movq	%rax, -224(%rbp)
	.loc	47 127 27
	callq	__ZN3std4time7Instant3now17h325ddce48db31cf2E
	movq	%rax, -216(%rbp)
Ltmp1505:
	.loc	47 129 20
	leaq	-216(%rbp), %rax
	movq	%rax, -64(%rbp)
	.loc	47 129 26 is_stmt 0
	leaq	-224(%rbp), %rax
	movq	%rax, -56(%rbp)
Ltmp1506:
	.loc	42 1097 18 is_stmt 1
	leaq	-216(%rbp), %rax
	movq	%rax, -48(%rbp)
	.loc	42 1097 35 is_stmt 0
	leaq	-224(%rbp), %rax
	movq	%rax, -40(%rbp)
Ltmp1507:
	.loc	43 154 20 is_stmt 1
	leaq	-216(%rbp), %rax
	movq	%rax, -32(%rbp)
	leaq	-224(%rbp), %rax
	movq	%rax, -24(%rbp)
Ltmp1508:
	.loc	44 170 9
	leaq	-216(%rbp), %rdi
	leaq	-224(%rbp), %rsi
	callq	__ZN4core3cmp5impls55_$LT$impl$u20$core..cmp..PartialOrd$u20$for$u20$u64$GT$11partial_cmp17he4cde27e5fdb2d79E
	movb	%al, -153(%rbp)
Ltmp1509:
	.loc	42 1097 18
	movl	$1, %eax
	xorl	%ecx, %ecx
	cmpb	$2, -153(%rbp)
	cmoveq	%rcx, %rax
	.loc	28 344 9
	cmpq	$1, %rax
	je	LBB87_13
	jmp	LBB87_14
Ltmp1510:
LBB87_11:
	.loc	47 139 17
	callq	__ZN3std6thread4park17h06945b24b7e50112E
Ltmp1511:
LBB87_12:
	.loc	47 118 9
	jmp	LBB87_1
LBB87_13:
Ltmp1512:
	.loc	28 344 9
	cmpb	$-1, -153(%rbp)
	je	LBB87_15
LBB87_14:
	.loc	28 346 18
	movb	$0, -201(%rbp)
	jmp	LBB87_16
LBB87_15:
	.loc	28 345 48
	movb	$1, -201(%rbp)
Ltmp1513:
LBB87_16:
	.loc	47 129 20
	testb	$1, -201(%rbp)
	jne	LBB87_18
	.loc	47 0 20 is_stmt 0
	movq	-280(%rbp), %rdi
	.loc	47 133 50 is_stmt 1
	movq	$1, -184(%rbp)
	.loc	47 133 34 is_stmt 0
	movq	-184(%rbp), %rsi
	movq	-176(%rbp), %rdx
	callq	__ZN3std4sync4mpmc7context7Context10try_select17h1eaae579495c2b2aE
	movq	%rdx, -192(%rbp)
	movq	%rax, -200(%rbp)
	movl	$1, %eax
	xorl	%ecx, %ecx
	cmpq	$4, -200(%rbp)
	cmoveq	%rcx, %rax
	.loc	47 133 28
	cmpq	$0, %rax
	je	LBB87_19
	jmp	LBB87_20
LBB87_18:
	.loc	47 130 42 is_stmt 1
	movq	-224(%rbp), %rdi
	.loc	47 130 48 is_stmt 0
	movq	-216(%rbp), %rsi
	.loc	47 130 42
	callq	__ZN60_$LT$std..time..Instant$u20$as$u20$core..ops..arith..Sub$GT$3sub17h4c8fd491bec4973fE
	movq	%rax, %rdi
	movl	%edx, %esi
	.loc	47 130 21
	callq	__ZN3std6thread12park_timeout17h8a335830497dfac5E
Ltmp1514:
	.loc	47 126 13 is_stmt 1
	jmp	LBB87_12
LBB87_19:
Ltmp1515:
	.loc	47 134 35
	movq	$1, -256(%rbp)
	jmp	LBB87_21
LBB87_20:
	.loc	47 135 29
	movq	-200(%rbp), %rcx
	movq	-192(%rbp), %rax
	movq	%rcx, -16(%rbp)
	movq	%rax, -8(%rbp)
Ltmp1516:
	.loc	47 135 35 is_stmt 0
	movq	%rcx, -256(%rbp)
	movq	%rax, -248(%rbp)
Ltmp1517:
LBB87_21:
	.loc	25 1 1 is_stmt 1
	jmp	LBB87_9
Ltmp1518:
Lfunc_end87:
	.cfi_endproc

	.p2align	4, 0x90
__ZN3std4sync4mpmc7context7Context12store_packet17hbf3ec5eb01b697edE:
Lfunc_begin88:
	.loc	47 107 0
	.cfi_startproc
	pushq	%rbp
	.cfi_def_cfa_offset 16
	.cfi_offset %rbp, -16
	movq	%rsp, %rbp
	.cfi_def_cfa_register %rbp
	subq	$144, %rsp
	movq	%rdi, -136(%rbp)
	movq	%rsi, -128(%rbp)
	movq	%rdi, -112(%rbp)
	movq	%rsi, -104(%rbp)
Ltmp1519:
	.loc	47 108 13 prologue_end
	movq	%rsi, -96(%rbp)
Ltmp1520:
	.loc	7 52 36
	movq	%rsi, -120(%rbp)
	.loc	7 52 18 is_stmt 0
	movq	-120(%rbp), %rax
	movq	%rax, -88(%rbp)
Ltmp1521:
	.loc	7 38 13 is_stmt 1
	movq	%rax, -80(%rbp)
Ltmp1522:
	.loc	7 215 33
	movq	%rax, -72(%rbp)
	.loc	7 215 18 is_stmt 0
	movq	%rax, -64(%rbp)
Ltmp1523:
	.loc	7 38 13 is_stmt 1
	cmpq	$0, -64(%rbp)
	sete	%al
Ltmp1524:
	.loc	47 108 12
	xorb	$-1, %al
	testb	$1, %al
	jne	LBB88_2
LBB88_1:
	.loc	47 111 6
	addq	$144, %rsp
	popq	%rbp
	retq
LBB88_2:
	.loc	47 0 6 is_stmt 0
	movq	-128(%rbp), %rsi
	movq	-136(%rbp), %rax
	.loc	47 109 13 is_stmt 1
	movq	%rax, -56(%rbp)
Ltmp1525:
	.loc	52 1391 10
	movq	%rax, -48(%rbp)
Ltmp1526:
	.loc	52 1115 18
	movq	%rax, -40(%rbp)
Ltmp1527:
	.loc	10 376 20
	movq	(%rax), %rdi
	movq	%rdi, -32(%rbp)
Ltmp1528:
	.loc	52 1391 9
	addq	$16, %rdi
Ltmp1529:
	.loc	47 109 13
	addq	$8, %rdi
	movq	%rdi, -24(%rbp)
	.loc	47 109 37 is_stmt 0
	movq	%rsi, -16(%rbp)
Ltmp1530:
	.loc	19 1221 26 is_stmt 1
	movq	%rdi, -8(%rbp)
	.loc	19 1221 13 is_stmt 0
	movl	$1, %edx
	callq	__ZN4core4sync6atomic12atomic_store17ha2010c4bcd607138E
Ltmp1531:
	.loc	47 108 9 is_stmt 1
	jmp	LBB88_1
Ltmp1532:
Lfunc_end88:
	.cfi_endproc

	.globl	__ZN3std4sync4mpmc7context7Context4with17h468a5ebd74300d70E
	.p2align	4, 0x90
__ZN3std4sync4mpmc7context7Context4with17h468a5ebd74300d70E:
Lfunc_begin89:
	.loc	47 38 0
	.cfi_startproc
	.cfi_personality 155, _rust_eh_personality
	.cfi_lsda 16, Lexception17
	pushq	%rbp
	.cfi_def_cfa_offset 16
	.cfi_offset %rbp, -16
	movq	%rsp, %rbp
	.cfi_def_cfa_register %rbp
	subq	$96, %rsp
Ltmp1538:
	.loc	47 47 26 prologue_end
	movq	16(%rdi), %rax
	movq	%rax, -48(%rbp)
	movq	(%rdi), %rax
	movq	8(%rdi), %rcx
	movq	%rcx, -56(%rbp)
	movq	%rax, -64(%rbp)
	.loc	47 47 21 is_stmt 0
	movq	-48(%rbp), %rax
	movq	%rax, -72(%rbp)
	movq	-64(%rbp), %rax
	movq	-56(%rbp), %rcx
	movq	%rcx, -80(%rbp)
	movq	%rax, -88(%rbp)
	leaq	-88(%rbp), %rax
Ltmp1539:
	.loc	47 48 21 is_stmt 1
	movq	%rax, -40(%rbp)
	leaq	-40(%rbp), %rax
Ltmp1540:
	.loc	47 54 23
	movq	%rax, -32(%rbp)
	.loc	47 53 9
	movq	-32(%rbp), %rsi
Ltmp1533:
	leaq	l___unnamed_50(%rip), %rdi
Ltmp1541:
	callq	__ZN3std6thread5local17LocalKey$LT$T$GT$8try_with17h792fa2ddb7de1247E
Ltmp1534:
	movb	%al, -89(%rbp)
	jmp	LBB89_3
Ltmp1542:
LBB89_1:
	.loc	47 38 5
	movq	-16(%rbp), %rdi
	callq	__Unwind_Resume
Ltmp1543:
LBB89_2:
Ltmp1537:
	.loc	47 0 5 is_stmt 0
	movq	%rax, %rcx
	movl	%edx, %eax
	movq	%rcx, -16(%rbp)
	movl	%eax, -8(%rbp)
	jmp	LBB89_1
Ltmp1544:
LBB89_3:
	movb	-89(%rbp), %al
	leaq	-40(%rbp), %rcx
Ltmp1545:
	.loc	47 63 29 is_stmt 1
	movq	%rcx, -24(%rbp)
	.loc	47 53 9
	movq	-24(%rbp), %rsi
Ltmp1535:
	movzbl	%al, %edi
	andl	$1, %edi
	callq	__ZN4core6result19Result$LT$T$C$E$GT$14unwrap_or_else17h1efd4ad512407e1cE
Ltmp1536:
	jmp	LBB89_4
Ltmp1546:
LBB89_4:
	.loc	47 64 6
	addq	$96, %rsp
	popq	%rbp
	retq
Ltmp1547:
Lfunc_end89:
	.cfi_endproc
	.section	__TEXT,__gcc_except_tab
	.p2align	2
GCC_except_table89:
Lexception17:
	.byte	255
	.byte	255
	.byte	1
	.uleb128 Lcst_end17-Lcst_begin17
Lcst_begin17:
	.uleb128 Ltmp1533-Lfunc_begin89
	.uleb128 Ltmp1534-Ltmp1533
	.uleb128 Ltmp1537-Lfunc_begin89
	.byte	0
	.uleb128 Ltmp1534-Lfunc_begin89
	.uleb128 Ltmp1535-Ltmp1534
	.byte	0
	.byte	0
	.uleb128 Ltmp1535-Lfunc_begin89
	.uleb128 Ltmp1536-Ltmp1535
	.uleb128 Ltmp1537-Lfunc_begin89
	.byte	0
Lcst_end17:
	.p2align	2

	.section	__TEXT,__text,regular,pure_instructions
	.globl	__ZN3std4sync4mpmc7context7Context4with17h51555fc9007a7932E
	.p2align	4, 0x90
__ZN3std4sync4mpmc7context7Context4with17h51555fc9007a7932E:
Lfunc_begin90:
	.loc	47 38 0
	.cfi_startproc
	.cfi_personality 155, _rust_eh_personality
	.cfi_lsda 16, Lexception18
	pushq	%rbp
	.cfi_def_cfa_offset 16
	.cfi_offset %rbp, -16
	movq	%rsp, %rbp
	.cfi_def_cfa_register %rbp
	subq	$160, %rsp
	movq	%rdi, -160(%rbp)
	movq	%rdi, -152(%rbp)
Ltmp1556:
	.loc	47 47 26 prologue_end
	movq	32(%rsi), %rax
	movq	%rax, -72(%rbp)
	movq	24(%rsi), %rax
	movq	%rax, -80(%rbp)
	movq	16(%rsi), %rax
	movq	%rax, -88(%rbp)
	movq	(%rsi), %rax
	movq	8(%rsi), %rcx
	movq	%rcx, -96(%rbp)
	movq	%rax, -104(%rbp)
	.loc	47 47 21 is_stmt 0
	movq	-72(%rbp), %rax
	movq	%rax, -112(%rbp)
	movq	-80(%rbp), %rax
	movq	%rax, -120(%rbp)
	movq	-88(%rbp), %rax
	movq	%rax, -128(%rbp)
	movq	-104(%rbp), %rax
	movq	-96(%rbp), %rcx
	movq	%rcx, -136(%rbp)
	movq	%rax, -144(%rbp)
	leaq	-144(%rbp), %rax
Ltmp1557:
	.loc	47 48 21 is_stmt 1
	movq	%rax, -64(%rbp)
	leaq	-64(%rbp), %rax
Ltmp1558:
	.loc	47 54 23
	movq	%rax, -32(%rbp)
	.loc	47 53 9
	movq	-32(%rbp), %rdx
Ltmp1548:
	leaq	l___unnamed_50(%rip), %rsi
Ltmp1559:
	.loc	47 0 9 is_stmt 0
	leaq	-56(%rbp), %rdi
	.loc	47 53 9
	callq	__ZN3std6thread5local17LocalKey$LT$T$GT$8try_with17h5d9876c5737a338fE
Ltmp1549:
	jmp	LBB90_3
Ltmp1560:
LBB90_1:
Ltmp1553:
	.loc	47 0 9
	leaq	-144(%rbp), %rdi
	.loc	47 64 5 is_stmt 1
	callq	__ZN4core3ptr195drop_in_place$LT$core..option..Option$LT$std..sync..mpmc..zero..Channel$LT$alloc..boxed..Box$LT$dyn$u20$threadpool..FnBox$u2b$core..marker..Send$GT$$GT$..recv..$u7b$$u7b$closure$u7d$$u7d$$GT$$GT$17h33d1017c87827a6dE
Ltmp1554:
	jmp	LBB90_6
Ltmp1561:
LBB90_2:
Ltmp1552:
	.loc	47 0 5 is_stmt 0
	movq	%rax, %rcx
	movl	%edx, %eax
	movq	%rcx, -16(%rbp)
	movl	%eax, -8(%rbp)
	jmp	LBB90_1
Ltmp1562:
LBB90_3:
	movq	-160(%rbp), %rdi
	leaq	-64(%rbp), %rax
Ltmp1563:
	.loc	47 63 29 is_stmt 1
	movq	%rax, -24(%rbp)
	.loc	47 53 9
	movq	-24(%rbp), %rdx
Ltmp1550:
	leaq	-56(%rbp), %rsi
	callq	__ZN4core6result19Result$LT$T$C$E$GT$14unwrap_or_else17hf014d9b98a5178daE
Ltmp1551:
	jmp	LBB90_4
Ltmp1564:
LBB90_4:
	.loc	47 64 5
	leaq	-144(%rbp), %rdi
	callq	__ZN4core3ptr195drop_in_place$LT$core..option..Option$LT$std..sync..mpmc..zero..Channel$LT$alloc..boxed..Box$LT$dyn$u20$threadpool..FnBox$u2b$core..marker..Send$GT$$GT$..recv..$u7b$$u7b$closure$u7d$$u7d$$GT$$GT$17h33d1017c87827a6dE
	movq	-152(%rbp), %rax
	.loc	47 64 6 is_stmt 0
	addq	$160, %rsp
	popq	%rbp
	retq
Ltmp1565:
LBB90_5:
Ltmp1555:
	.loc	47 38 5 is_stmt 1
	callq	__ZN4core9panicking19panic_cannot_unwind17h1fbca7e1d7f56ae1E
Ltmp1566:
LBB90_6:
	movq	-16(%rbp), %rdi
	callq	__Unwind_Resume
Ltmp1567:
Lfunc_end90:
	.cfi_endproc
	.section	__TEXT,__gcc_except_tab
	.p2align	2
GCC_except_table90:
Lexception18:
	.byte	255
	.byte	255
	.byte	1
	.uleb128 Lcst_end18-Lcst_begin18
Lcst_begin18:
	.uleb128 Ltmp1548-Lfunc_begin90
	.uleb128 Ltmp1549-Ltmp1548
	.uleb128 Ltmp1552-Lfunc_begin90
	.byte	0
	.uleb128 Ltmp1553-Lfunc_begin90
	.uleb128 Ltmp1554-Ltmp1553
	.uleb128 Ltmp1555-Lfunc_begin90
	.byte	0
	.uleb128 Ltmp1550-Lfunc_begin90
	.uleb128 Ltmp1551-Ltmp1550
	.uleb128 Ltmp1552-Lfunc_begin90
	.byte	0
	.uleb128 Ltmp1551-Lfunc_begin90
	.uleb128 Lfunc_end90-Ltmp1551
	.byte	0
	.byte	0
Lcst_end18:
	.p2align	2

	.section	__TEXT,__text,regular,pure_instructions
	.globl	__ZN3std4sync4mpmc7context7Context4with17h7de50acd8af799c0E
	.p2align	4, 0x90
__ZN3std4sync4mpmc7context7Context4with17h7de50acd8af799c0E:
Lfunc_begin91:
	.loc	47 38 0
	.cfi_startproc
	.cfi_personality 155, _rust_eh_personality
	.cfi_lsda 16, Lexception19
	pushq	%rbp
	.cfi_def_cfa_offset 16
	.cfi_offset %rbp, -16
	movq	%rsp, %rbp
	.cfi_def_cfa_register %rbp
	subq	$96, %rsp
Ltmp1573:
	.loc	47 47 26 prologue_end
	movq	16(%rdi), %rax
	movq	%rax, -48(%rbp)
	movq	(%rdi), %rax
	movq	8(%rdi), %rcx
	movq	%rcx, -56(%rbp)
	movq	%rax, -64(%rbp)
	.loc	47 47 21 is_stmt 0
	movq	-48(%rbp), %rax
	movq	%rax, -72(%rbp)
	movq	-64(%rbp), %rax
	movq	-56(%rbp), %rcx
	movq	%rcx, -80(%rbp)
	movq	%rax, -88(%rbp)
	leaq	-88(%rbp), %rax
Ltmp1574:
	.loc	47 48 21 is_stmt 1
	movq	%rax, -40(%rbp)
	leaq	-40(%rbp), %rax
Ltmp1575:
	.loc	47 54 23
	movq	%rax, -32(%rbp)
	.loc	47 53 9
	movq	-32(%rbp), %rsi
Ltmp1568:
	leaq	l___unnamed_50(%rip), %rdi
Ltmp1576:
	callq	__ZN3std6thread5local17LocalKey$LT$T$GT$8try_with17hac700c31e34744cdE
Ltmp1569:
	movb	%al, -89(%rbp)
	jmp	LBB91_3
Ltmp1577:
LBB91_1:
	.loc	47 38 5
	movq	-16(%rbp), %rdi
	callq	__Unwind_Resume
Ltmp1578:
LBB91_2:
Ltmp1572:
	.loc	47 0 5 is_stmt 0
	movq	%rax, %rcx
	movl	%edx, %eax
	movq	%rcx, -16(%rbp)
	movl	%eax, -8(%rbp)
	jmp	LBB91_1
Ltmp1579:
LBB91_3:
	movb	-89(%rbp), %al
	leaq	-40(%rbp), %rcx
Ltmp1580:
	.loc	47 63 29 is_stmt 1
	movq	%rcx, -24(%rbp)
	.loc	47 53 9
	movq	-24(%rbp), %rsi
Ltmp1570:
	movzbl	%al, %edi
	andl	$1, %edi
	callq	__ZN4core6result19Result$LT$T$C$E$GT$14unwrap_or_else17hcb4cdf894b2745d0E
Ltmp1571:
	jmp	LBB91_4
Ltmp1581:
LBB91_4:
	.loc	47 64 6
	addq	$96, %rsp
	popq	%rbp
	retq
Ltmp1582:
Lfunc_end91:
	.cfi_endproc
	.section	__TEXT,__gcc_except_tab
	.p2align	2
GCC_except_table91:
Lexception19:
	.byte	255
	.byte	255
	.byte	1
	.uleb128 Lcst_end19-Lcst_begin19
Lcst_begin19:
	.uleb128 Ltmp1568-Lfunc_begin91
	.uleb128 Ltmp1569-Ltmp1568
	.uleb128 Ltmp1572-Lfunc_begin91
	.byte	0
	.uleb128 Ltmp1569-Lfunc_begin91
	.uleb128 Ltmp1570-Ltmp1569
	.byte	0
	.byte	0
	.uleb128 Ltmp1570-Lfunc_begin91
	.uleb128 Ltmp1571-Ltmp1570
	.uleb128 Ltmp1572-Lfunc_begin91
	.byte	0
Lcst_end19:
	.p2align	2

	.section	__TEXT,__text,regular,pure_instructions
	.globl	__ZN3std4sync4mpmc7context7Context4with28_$u7b$$u7b$closure$u7d$$u7d$17h0db2f6a2a3a88649E
	.p2align	4, 0x90
__ZN3std4sync4mpmc7context7Context4with28_$u7b$$u7b$closure$u7d$$u7d$17h0db2f6a2a3a88649E:
Lfunc_begin92:
	.loc	47 54 0
	.cfi_startproc
	.cfi_personality 155, _rust_eh_personality
	.cfi_lsda 16, Lexception20
	pushq	%rbp
	.cfi_def_cfa_offset 16
	.cfi_offset %rbp, -16
	movq	%rsp, %rbp
	.cfi_def_cfa_register %rbp
	subq	$176, %rsp
	movq	%rdx, -152(%rbp)
	movq	%rdi, %rax
	movq	-152(%rbp), %rdi
	movq	%rax, -144(%rbp)
	movq	%rax, -136(%rbp)
	movq	%rsi, -128(%rbp)
	movq	%rdi, -40(%rbp)
Ltmp1603:
	.loc	47 54 36 prologue_end
	callq	__ZN4core4cell13Cell$LT$T$GT$4take17h4fb362a29d9ccd96E
	movq	%rax, -120(%rbp)
	movq	-120(%rbp), %rdx
	movl	$1, %eax
	xorl	%ecx, %ecx
	cmpq	$0, %rdx
	cmoveq	%rcx, %rax
	.loc	47 54 30 is_stmt 0
	cmpq	$0, %rax
	jne	LBB92_2
	.loc	47 55 25 is_stmt 1
	movq	-128(%rbp), %rax
	movq	%rax, -160(%rbp)
	.loc	47 55 28 is_stmt 0
	callq	__ZN3std4sync4mpmc7context7Context3new17hebaca78cef91c164E
	movq	-144(%rbp), %rdi
	movq	-160(%rbp), %rsi
	movq	%rax, -104(%rbp)
	leaq	-104(%rbp), %rax
	.loc	47 55 25
	movq	%rax, -112(%rbp)
	movq	-112(%rbp), %rdx
Ltmp1597:
	callq	__ZN3std4sync4mpmc7context7Context4with28_$u7b$$u7b$closure$u7d$$u7d$17hcbb8292dd497f5e2E
Ltmp1598:
	jmp	LBB92_17
LBB92_2:
	.loc	47 56 22 is_stmt 1
	movb	$1, -49(%rbp)
	movq	-120(%rbp), %rax
	movq	%rax, -96(%rbp)
Ltmp1583:
	leaq	-96(%rbp), %rdi
Ltmp1604:
	.loc	47 57 21
	callq	__ZN3std4sync4mpmc7context7Context5reset17he68444595fe0cf4cE
Ltmp1584:
	jmp	LBB92_5
Ltmp1605:
LBB92_3:
	.loc	47 61 17
	testb	$1, -49(%rbp)
	jne	LBB92_13
	jmp	LBB92_12
LBB92_4:
Ltmp1587:
	.loc	47 0 17 is_stmt 0
	movq	%rax, %rcx
	movl	%edx, %eax
	movq	%rcx, -32(%rbp)
	movl	%eax, -24(%rbp)
	jmp	LBB92_3
LBB92_5:
Ltmp1606:
	.loc	47 58 31 is_stmt 1
	movq	-128(%rbp), %rsi
