	.section	__TEXT,__text,regular,pure_instructions
	.macosx_version_min 10, 7
	.globl	__ZN42_$LT$$RF$T$u20$as$u20$core..fmt..Debug$GT$3fmt17h6046bd5596556882E
	.p2align	4, 0x90
__ZN42_$LT$$RF$T$u20$as$u20$core..fmt..Debug$GT$3fmt17h6046bd5596556882E:
Lfunc_begin0:
	.file	1 "/rustc/2c8cc343237b8f7d5a3c3703e3a87f2eb2c54a74/library/core/src/fmt" "mod.rs"
	.loc	1 2377 0
	.cfi_startproc
	pushq	%rbp
	.cfi_def_cfa_offset 16
	.cfi_offset %rbp, -16
	movq	%rsp, %rbp
	.cfi_def_cfa_register %rbp
	subq	$16, %rsp
	movq	%rdi, -16(%rbp)
	movq	%rsi, -8(%rbp)
Ltmp0:
	.loc	1 2377 71 prologue_end
	movq	(%rdi), %rdi
	.loc	1 2377 62 is_stmt 0
	callq	__ZN45_$LT$$LP$$RP$$u20$as$u20$core..fmt..Debug$GT$3fmt17h141c338185e9deb8E
	.loc	1 2377 84
	andb	$1, %al
	movzbl	%al, %eax
	addq	$16, %rsp
	popq	%rbp
	retq
Ltmp1:
Lfunc_end0:
	.cfi_endproc

	.p2align	4, 0x90
__ZN45_$LT$$LP$$RP$$u20$as$u20$core..fmt..Debug$GT$3fmt17h141c338185e9deb8E:
Lfunc_begin1:
	.loc	1 2610 0 is_stmt 1
	.cfi_startproc
	pushq	%rbp
	.cfi_def_cfa_offset 16
	.cfi_offset %rbp, -16
	movq	%rsp, %rbp
	.cfi_def_cfa_register %rbp
	subq	$32, %rsp
	movq	%rsi, -24(%rbp)
	movq	%rdi, %rax
	movq	-24(%rbp), %rdi
	movq	%rax, -16(%rbp)
	movq	%rdi, -8(%rbp)
Ltmp2:
	.loc	1 2611 9 prologue_end
	leaq	l___unnamed_2(%rip), %rsi
	movl	$2, %edx
	callq	__ZN4core3fmt9Formatter3pad17h322dee5343842323E
	.loc	1 2612 6
	andb	$1, %al
	movzbl	%al, %eax
	addq	$32, %rsp
	popq	%rbp
	retq
Ltmp3:
Lfunc_end1:
	.cfi_endproc

	.p2align	4, 0x90
__ZN4core3ptr33drop_in_place$LT$$RF$$LP$$RP$$GT$17h94d7154130c979f5E:
Lfunc_begin2:
	.file	2 "/rustc/2c8cc343237b8f7d5a3c3703e3a87f2eb2c54a74/library/core/src/ptr" "mod.rs"
	.loc	2 490 0
	.cfi_startproc
	pushq	%rbp
	.cfi_def_cfa_offset 16
	.cfi_offset %rbp, -16
	movq	%rsp, %rbp
	.cfi_def_cfa_register %rbp
	pushq	%rax
	movq	%rdi, -8(%rbp)
Ltmp4:
	.loc	2 490 1 prologue_end
	addq	$8, %rsp
	popq	%rbp
	retq
Ltmp5:
Lfunc_end2:
	.cfi_endproc

	.globl	__ZN75_$LT$tinyvec..arrayvec..TryFromSliceError$u20$as$u20$core..fmt..Display$GT$3fmt17h93061c0f4f58e47dE
	.p2align	4, 0x90
__ZN75_$LT$tinyvec..arrayvec..TryFromSliceError$u20$as$u20$core..fmt..Display$GT$3fmt17h93061c0f4f58e47dE:
Lfunc_begin3:
	.file	3 "/Users/natalie/.cargo/registry/src/github.com-1ecc6299db9ec823/tinyvec-1.6.0" "src/arrayvec.rs"
	.loc	3 1285 0
	.cfi_startproc
	pushq	%rbp
	.cfi_def_cfa_offset 16
	.cfi_offset %rbp, -16
	movq	%rsp, %rbp
	.cfi_def_cfa_register %rbp
	subq	$32, %rsp
	movq	%rsi, -24(%rbp)
	movq	%rdi, %rax
	movq	-24(%rbp), %rdi
	movq	%rax, -16(%rbp)
	movq	%rdi, -8(%rbp)
Ltmp6:
	.loc	3 1286 5 prologue_end
	leaq	l___unnamed_3(%rip), %rsi
	movl	$35, %edx
	callq	__ZN4core3fmt9Formatter9write_str17hb029d9999327a35fE
	.loc	3 1287 4
	andb	$1, %al
	movzbl	%al, %eax
	addq	$32, %rsp
	popq	%rbp
	retq
Ltmp7:
Lfunc_end3:
	.cfi_endproc

	.globl	__ZN73_$LT$tinyvec..arrayvec..TryFromSliceError$u20$as$u20$core..fmt..Debug$GT$3fmt17h0cf764ae2af039e0E
	.p2align	4, 0x90
__ZN73_$LT$tinyvec..arrayvec..TryFromSliceError$u20$as$u20$core..fmt..Debug$GT$3fmt17h0cf764ae2af039e0E:
Lfunc_begin4:
	.loc	3 1281 0
	.cfi_startproc
	pushq	%rbp
	.cfi_def_cfa_offset 16
	.cfi_offset %rbp, -16
	movq	%rsp, %rbp
	.cfi_def_cfa_register %rbp
	subq	$32, %rsp
	movq	%rsi, -32(%rbp)
	movq	%rdi, %rax
	movq	-32(%rbp), %rdi
	movq	%rax, -16(%rbp)
	movq	%rdi, -8(%rbp)
Ltmp8:
	.loc	3 1282 30 prologue_end
	movq	%rax, -24(%rbp)
	.loc	3 1281 10
	leaq	l___unnamed_4(%rip), %rsi
	movl	$17, %edx
	leaq	-24(%rbp), %rcx
	leaq	l___unnamed_1(%rip), %r8
	callq	__ZN4core3fmt9Formatter25debug_tuple_field1_finish17h7c0e485bb1c7676eE
	.loc	3 1281 15 is_stmt 0
	andb	$1, %al
	movzbl	%al, %eax
	addq	$32, %rsp
	popq	%rbp
	retq
Ltmp9:
Lfunc_end4:
	.cfi_endproc

	.section	__TEXT,__const
l___unnamed_2:
	.ascii	"()"

l___unnamed_3:
	.ascii	"could not convert slice to ArrayVec"

l___unnamed_4:
	.ascii	"TryFromSliceError"

	.section	__DATA,__const
	.p2align	3
l___unnamed_1:
	.quad	__ZN4core3ptr33drop_in_place$LT$$RF$$LP$$RP$$GT$17h94d7154130c979f5E
	.asciz	"\b\000\000\000\000\000\000\000\b\000\000\000\000\000\000"
	.quad	__ZN42_$LT$$RF$T$u20$as$u20$core..fmt..Debug$GT$3fmt17h6046bd5596556882E

	.section	__DATA,__const
Lsec_end0:
	.section	__TEXT,__text,regular,pure_instructions
Lsec_end1: