	.section	__TEXT,__text,regular,pure_instructions
	.macosx_version_min 10, 7
	.globl	__ZN12tracing_core10dispatcher11get_default17h1f32a4df611d1030E
	.p2align	4, 0x90
__ZN12tracing_core10dispatcher11get_default17h1f32a4df611d1030E:
Lfunc_begin0:
	.file	1 "/Users/natalie/.cargo/registry/src/github.com-1ecc6299db9ec823/tracing-core-0.1.30/src" "dispatcher.rs"
	.loc	1 364 0
	.cfi_startproc
	.cfi_personality 155, _rust_eh_personality
	.cfi_lsda 16, Lexception0
	pushq	%rbp
	.cfi_def_cfa_offset 16
	.cfi_offset %rbp, -16
	movq	%rsp, %rbp
	.cfi_def_cfa_register %rbp
	subq	$112, %rsp
	movq	%rdi, -104(%rbp)
	movq	%rdi, -96(%rbp)
	movq	%rsi, -88(%rbp)
	movq	%rdx, -80(%rbp)
	leaq	-88(%rbp), %rax
Ltmp5:
	.loc	1 369 19 prologue_end
	movq	%rax, -32(%rbp)
	.loc	1 368 5
	movq	-32(%rbp), %rdx
Ltmp0:
	leaq	l___unnamed_14(%rip), %rsi
	leaq	-72(%rbp), %rdi
	callq	__ZN3std6thread5local17LocalKey$LT$T$GT$8try_with17h3e1132c4e867d987E
Ltmp1:
	jmp	LBB0_3
LBB0_1:
	.loc	1 364 1
	movq	-16(%rbp), %rdi
	callq	__Unwind_Resume
LBB0_2:
Ltmp4:
	.loc	1 0 1 is_stmt 0
	movq	%rax, %rcx
	movl	%edx, %eax
	movq	%rcx, -16(%rbp)
	movl	%eax, -8(%rbp)
	jmp	LBB0_1
LBB0_3:
	movq	-104(%rbp), %rdi
	leaq	-88(%rbp), %rax
	.loc	1 376 25 is_stmt 1
	movq	%rax, -24(%rbp)
	.loc	1 368 5
	movq	-24(%rbp), %rdx
Ltmp2:
	leaq	-72(%rbp), %rsi
	callq	__ZN4core6result19Result$LT$T$C$E$GT$14unwrap_or_else17he8ccee3de5ec976aE
Ltmp3:
	jmp	LBB0_4
LBB0_4:
	.loc	1 0 5 is_stmt 0
	movq	-96(%rbp), %rax
	.loc	1 377 2 is_stmt 1
	addq	$112, %rsp
	popq	%rbp
	retq
Ltmp6:
Lfunc_end0:
	.cfi_endproc
	.section	__TEXT,__gcc_except_tab
	.p2align	2
GCC_except_table0:
Lexception0:
	.byte	255
	.byte	255
	.byte	1
	.uleb128 Lcst_end0-Lcst_begin0
Lcst_begin0:
	.uleb128 Ltmp0-Lfunc_begin0
	.uleb128 Ltmp1-Ltmp0
	.uleb128 Ltmp4-Lfunc_begin0
	.byte	0
	.uleb128 Ltmp1-Lfunc_begin0
	.uleb128 Ltmp2-Ltmp1
	.byte	0
	.byte	0
	.uleb128 Ltmp2-Lfunc_begin0
	.uleb128 Ltmp3-Ltmp2
	.uleb128 Ltmp4-Lfunc_begin0
	.byte	0
Lcst_end0:
	.p2align	2

	.section	__TEXT,__text,regular,pure_instructions
	.globl	__ZN12tracing_core10dispatcher11get_default17h5663f3b7140b5fc8E
	.p2align	4, 0x90
__ZN12tracing_core10dispatcher11get_default17h5663f3b7140b5fc8E:
Lfunc_begin1:
	.loc	1 364 0
	.cfi_startproc
	.cfi_personality 155, _rust_eh_personality
	.cfi_lsda 16, Lexception1
	pushq	%rbp
	.cfi_def_cfa_offset 16
	.cfi_offset %rbp, -16
	movq	%rsp, %rbp
	.cfi_def_cfa_register %rbp
	subq	$96, %rsp
	movq	%rdi, -96(%rbp)
	movq	%rdi, -88(%rbp)
	leaq	-80(%rbp), %rax
Ltmp12:
	.loc	1 369 19 prologue_end
	movq	%rax, -32(%rbp)
	.loc	1 368 5
	movq	-32(%rbp), %rdx
Ltmp7:
	leaq	l___unnamed_14(%rip), %rsi
	leaq	-72(%rbp), %rdi
	callq	__ZN3std6thread5local17LocalKey$LT$T$GT$8try_with17hf01a870146b316c5E
Ltmp8:
	jmp	LBB1_3
LBB1_1:
	.loc	1 364 1
	movq	-16(%rbp), %rdi
	callq	__Unwind_Resume
LBB1_2:
Ltmp11:
	.loc	1 0 1 is_stmt 0
	movq	%rax, %rcx
	movl	%edx, %eax
	movq	%rcx, -16(%rbp)
	movl	%eax, -8(%rbp)
	jmp	LBB1_1
LBB1_3:
	movq	-96(%rbp), %rdi
	leaq	-80(%rbp), %rax
	.loc	1 376 25 is_stmt 1
	movq	%rax, -24(%rbp)
	.loc	1 368 5
	movq	-24(%rbp), %rdx
Ltmp9:
	leaq	-72(%rbp), %rsi
	callq	__ZN4core6result19Result$LT$T$C$E$GT$14unwrap_or_else17h4775c9be23bb6434E
Ltmp10:
	jmp	LBB1_4
LBB1_4:
	.loc	1 0 5 is_stmt 0
	movq	-88(%rbp), %rax
	.loc	1 377 2 is_stmt 1
	addq	$96, %rsp
	popq	%rbp
	retq
Ltmp13:
Lfunc_end1:
	.cfi_endproc
	.section	__TEXT,__gcc_except_tab
	.p2align	2
GCC_except_table1:
Lexception1:
	.byte	255
	.byte	255
	.byte	1
	.uleb128 Lcst_end1-Lcst_begin1
Lcst_begin1:
	.uleb128 Ltmp7-Lfunc_begin1
	.uleb128 Ltmp8-Ltmp7
	.uleb128 Ltmp11-Lfunc_begin1
	.byte	0
	.uleb128 Ltmp8-Lfunc_begin1
	.uleb128 Ltmp9-Ltmp8
	.byte	0
	.byte	0
	.uleb128 Ltmp9-Lfunc_begin1
	.uleb128 Ltmp10-Ltmp9
	.uleb128 Ltmp11-Lfunc_begin1
	.byte	0
Lcst_end1:
	.p2align	2

	.section	__TEXT,__text,regular,pure_instructions
	.globl	__ZN12tracing_core10dispatcher11get_default17h8358a6427c66408aE
	.p2align	4, 0x90
__ZN12tracing_core10dispatcher11get_default17h8358a6427c66408aE:
Lfunc_begin2:
	.loc	1 364 0
	.cfi_startproc
	.cfi_personality 155, _rust_eh_personality
	.cfi_lsda 16, Lexception2
	pushq	%rbp
	.cfi_def_cfa_offset 16
	.cfi_offset %rbp, -16
	movq	%rsp, %rbp
	.cfi_def_cfa_register %rbp
	subq	$112, %rsp
	movq	%rdi, -104(%rbp)
	movq	%rdi, -96(%rbp)
	movq	%rsi, -88(%rbp)
	movq	%rdx, -80(%rbp)
	leaq	-88(%rbp), %rax
Ltmp19:
	.loc	1 369 19 prologue_end
	movq	%rax, -32(%rbp)
	.loc	1 368 5
	movq	-32(%rbp), %rdx
Ltmp14:
	leaq	l___unnamed_14(%rip), %rsi
	leaq	-72(%rbp), %rdi
	callq	__ZN3std6thread5local17LocalKey$LT$T$GT$8try_with17hca571841213a81f0E
Ltmp15:
	jmp	LBB2_3
LBB2_1:
	.loc	1 364 1
	movq	-16(%rbp), %rdi
	callq	__Unwind_Resume
LBB2_2:
Ltmp18:
	.loc	1 0 1 is_stmt 0
	movq	%rax, %rcx
	movl	%edx, %eax
	movq	%rcx, -16(%rbp)
	movl	%eax, -8(%rbp)
	jmp	LBB2_1
LBB2_3:
	movq	-104(%rbp), %rdi
	leaq	-88(%rbp), %rax
	.loc	1 376 25 is_stmt 1
	movq	%rax, -24(%rbp)
	.loc	1 368 5
	movq	-24(%rbp), %rdx
Ltmp16:
	leaq	-72(%rbp), %rsi
	callq	__ZN4core6result19Result$LT$T$C$E$GT$14unwrap_or_else17hb421d37ccb7b8759E
Ltmp17:
	jmp	LBB2_4
LBB2_4:
	.loc	1 0 5 is_stmt 0
	movq	-96(%rbp), %rax
	.loc	1 377 2 is_stmt 1
	addq	$112, %rsp
	popq	%rbp
	retq
Ltmp20:
Lfunc_end2:
	.cfi_endproc
	.section	__TEXT,__gcc_except_tab
	.p2align	2
GCC_except_table2:
Lexception2:
	.byte	255
	.byte	255
	.byte	1
	.uleb128 Lcst_end2-Lcst_begin2
Lcst_begin2:
	.uleb128 Ltmp14-Lfunc_begin2
	.uleb128 Ltmp15-Ltmp14
	.uleb128 Ltmp18-Lfunc_begin2
	.byte	0
	.uleb128 Ltmp15-Lfunc_begin2
	.uleb128 Ltmp16-Ltmp15
	.byte	0
	.byte	0
	.uleb128 Ltmp16-Lfunc_begin2
	.uleb128 Ltmp17-Ltmp16
	.uleb128 Ltmp18-Lfunc_begin2
	.byte	0
Lcst_end2:
	.p2align	2

	.section	__TEXT,__text,regular,pure_instructions
	.globl	__ZN12tracing_core10dispatcher11get_default17hebb2587f35cf4d8fE
	.p2align	4, 0x90
__ZN12tracing_core10dispatcher11get_default17hebb2587f35cf4d8fE:
Lfunc_begin3:
	.loc	1 364 0
	.cfi_startproc
	.cfi_personality 155, _rust_eh_personality
	.cfi_lsda 16, Lexception3
	pushq	%rbp
	.cfi_def_cfa_offset 16
	.cfi_offset %rbp, -16
	movq	%rsp, %rbp
	.cfi_def_cfa_register %rbp
	subq	$48, %rsp
	movq	%rdi, -40(%rbp)
	leaq	-40(%rbp), %rax
Ltmp26:
	.loc	1 369 19 prologue_end
	movq	%rax, -32(%rbp)
	.loc	1 368 5
	movq	-32(%rbp), %rsi
Ltmp21:
	leaq	l___unnamed_14(%rip), %rdi
	callq	__ZN3std6thread5local17LocalKey$LT$T$GT$8try_with17he3d56e5bee5b6229E
Ltmp22:
	movb	%al, -41(%rbp)
	jmp	LBB3_3
LBB3_1:
	.loc	1 364 1
	movq	-16(%rbp), %rdi
	callq	__Unwind_Resume
LBB3_2:
Ltmp25:
	.loc	1 0 1 is_stmt 0
	movq	%rax, %rcx
	movl	%edx, %eax
	movq	%rcx, -16(%rbp)
	movl	%eax, -8(%rbp)
	jmp	LBB3_1
LBB3_3:
	movb	-41(%rbp), %al
	leaq	-40(%rbp), %rcx
	.loc	1 376 25 is_stmt 1
	movq	%rcx, -24(%rbp)
	.loc	1 368 5
	movq	-24(%rbp), %rsi
Ltmp23:
	movzbl	%al, %edi
	callq	__ZN4core6result19Result$LT$T$C$E$GT$14unwrap_or_else17h8e404f0647ad3915E
Ltmp24:
	movb	%al, -42(%rbp)
	jmp	LBB3_4
LBB3_4:
	.loc	1 0 5 is_stmt 0
	movb	-42(%rbp), %al
	.loc	1 377 2 is_stmt 1
	andb	$1, %al
	movzbl	%al, %eax
	addq	$48, %rsp
	popq	%rbp
	retq
Ltmp27:
Lfunc_end3:
	.cfi_endproc
	.section	__TEXT,__gcc_except_tab
	.p2align	2
GCC_except_table3:
Lexception3:
	.byte	255
	.byte	255
	.byte	1
	.uleb128 Lcst_end3-Lcst_begin3
Lcst_begin3:
	.uleb128 Ltmp21-Lfunc_begin3
	.uleb128 Ltmp22-Ltmp21
	.uleb128 Ltmp25-Lfunc_begin3
	.byte	0
	.uleb128 Ltmp22-Lfunc_begin3
	.uleb128 Ltmp23-Ltmp22
	.byte	0
	.byte	0
	.uleb128 Ltmp23-Lfunc_begin3
	.uleb128 Ltmp24-Ltmp23
	.uleb128 Ltmp25-Lfunc_begin3
	.byte	0
Lcst_end3:
	.p2align	2

	.section	__TEXT,__text,regular,pure_instructions
	.globl	__ZN12tracing_core10dispatcher11get_default28_$u7b$$u7b$closure$u7d$$u7d$17h0264ba4b4737a2bfE
	.p2align	4, 0x90
__ZN12tracing_core10dispatcher11get_default28_$u7b$$u7b$closure$u7d$$u7d$17h0264ba4b4737a2bfE:
Lfunc_begin4:
	.loc	1 376 0
	.cfi_startproc
	.cfi_personality 155, _rust_eh_personality
	.cfi_lsda 16, Lexception4
	pushq	%rbp
	.cfi_def_cfa_offset 16
	.cfi_offset %rbp, -16
	movq	%rsp, %rbp
	.cfi_def_cfa_register %rbp
	subq	$80, %rsp
	movq	%rdi, -72(%rbp)
	movq	%rdi, -80(%rbp)
	movq	%rsi, -56(%rbp)
Ltmp34:
	.loc	1 376 29 prologue_end
	movq	-56(%rbp), %rax
	movq	%rax, -64(%rbp)
	.loc	1 376 32 is_stmt 0
	callq	__ZN12tracing_core10dispatcher8Dispatch4none17hc280d07a7675ef21E
	movq	-72(%rbp), %rdi
	movq	-64(%rbp), %rsi
	movq	%rdx, -32(%rbp)
	movq	%rax, -40(%rbp)
	leaq	-40(%rbp), %rax
	.loc	1 376 29
	movq	%rax, -48(%rbp)
	movq	-48(%rbp), %rdx
Ltmp28:
	callq	__ZN7tracing4span4Span8new_root28_$u7b$$u7b$closure$u7d$$u7d$17h114a6acf80ff220eE
Ltmp29:
	jmp	LBB4_3
LBB4_1:
Ltmp31:
	.loc	1 0 29
	leaq	-40(%rbp), %rdi
	.loc	1 376 48
	callq	__ZN4core3ptr55drop_in_place$LT$tracing_core..dispatcher..Dispatch$GT$17h5b44deb9c54d2bb7E
Ltmp32:
	jmp	LBB4_5
LBB4_2:
Ltmp30:
	.loc	1 0 48
	movq	%rax, %rcx
	movl	%edx, %eax
	movq	%rcx, -16(%rbp)
	movl	%eax, -8(%rbp)
	jmp	LBB4_1
LBB4_3:
	.loc	1 376 48
	leaq	-40(%rbp), %rdi
	callq	__ZN4core3ptr55drop_in_place$LT$tracing_core..dispatcher..Dispatch$GT$17h5b44deb9c54d2bb7E
	movq	-80(%rbp), %rax
	.loc	1 376 49
	addq	$80, %rsp
	popq	%rbp
	retq
LBB4_4:
Ltmp33:
	.loc	1 376 25
	callq	__ZN4core9panicking19panic_cannot_unwind17h1fbca7e1d7f56ae1E
LBB4_5:
	movq	-16(%rbp), %rdi
	callq	__Unwind_Resume
Ltmp35:
Lfunc_end4:
	.cfi_endproc
	.section	__TEXT,__gcc_except_tab
	.p2align	2
GCC_except_table4:
Lexception4:
	.byte	255
	.byte	255
	.byte	1
	.uleb128 Lcst_end4-Lcst_begin4
Lcst_begin4:
	.uleb128 Lfunc_begin4-Lfunc_begin4
	.uleb128 Ltmp28-Lfunc_begin4
	.byte	0
	.byte	0
	.uleb128 Ltmp28-Lfunc_begin4
	.uleb128 Ltmp29-Ltmp28
	.uleb128 Ltmp30-Lfunc_begin4
	.byte	0
	.uleb128 Ltmp31-Lfunc_begin4
	.uleb128 Ltmp32-Ltmp31
	.uleb128 Ltmp33-Lfunc_begin4
	.byte	0
	.uleb128 Ltmp32-Lfunc_begin4
	.uleb128 Lfunc_end4-Ltmp32
	.byte	0
	.byte	0
Lcst_end4:
	.p2align	2

	.section	__TEXT,__text,regular,pure_instructions
	.globl	__ZN12tracing_core10dispatcher11get_default28_$u7b$$u7b$closure$u7d$$u7d$17h2712d0e7556f7819E
	.p2align	4, 0x90
__ZN12tracing_core10dispatcher11get_default28_$u7b$$u7b$closure$u7d$$u7d$17h2712d0e7556f7819E:
Lfunc_begin5:
	.loc	1 376 0 is_stmt 1
	.cfi_startproc
	.cfi_personality 155, _rust_eh_personality
	.cfi_lsda 16, Lexception5
	pushq	%rbp
	.cfi_def_cfa_offset 16
	.cfi_offset %rbp, -16
	movq	%rsp, %rbp
	.cfi_def_cfa_register %rbp
	subq	$80, %rsp
	movq	%rdi, -72(%rbp)
	movq	%rdi, -80(%rbp)
	movq	%rsi, -56(%rbp)
Ltmp42:
	.loc	1 376 29 prologue_end
	movq	-56(%rbp), %rax
	movq	%rax, -64(%rbp)
	.loc	1 376 32 is_stmt 0
	callq	__ZN12tracing_core10dispatcher8Dispatch4none17hc280d07a7675ef21E
	movq	-72(%rbp), %rdi
	movq	-64(%rbp), %rsi
	movq	%rdx, -32(%rbp)
	movq	%rax, -40(%rbp)
	leaq	-40(%rbp), %rax
	.loc	1 376 29
	movq	%rax, -48(%rbp)
	movq	-48(%rbp), %rdx
Ltmp36:
	callq	__ZN7tracing4span4Span7current28_$u7b$$u7b$closure$u7d$$u7d$17hdf7338a75c02bd95E
Ltmp37:
	jmp	LBB5_3
LBB5_1:
Ltmp39:
	.loc	1 0 29
	leaq	-40(%rbp), %rdi
	.loc	1 376 48
	callq	__ZN4core3ptr55drop_in_place$LT$tracing_core..dispatcher..Dispatch$GT$17h5b44deb9c54d2bb7E
Ltmp40:
	jmp	LBB5_5
LBB5_2:
Ltmp38:
	.loc	1 0 48
	movq	%rax, %rcx
	movl	%edx, %eax
	movq	%rcx, -16(%rbp)
	movl	%eax, -8(%rbp)
	jmp	LBB5_1
LBB5_3:
	.loc	1 376 48
	leaq	-40(%rbp), %rdi
	callq	__ZN4core3ptr55drop_in_place$LT$tracing_core..dispatcher..Dispatch$GT$17h5b44deb9c54d2bb7E
	movq	-80(%rbp), %rax
	.loc	1 376 49
	addq	$80, %rsp
	popq	%rbp
	retq
LBB5_4:
Ltmp41:
	.loc	1 376 25
	callq	__ZN4core9panicking19panic_cannot_unwind17h1fbca7e1d7f56ae1E
LBB5_5:
	movq	-16(%rbp), %rdi
	callq	__Unwind_Resume
Ltmp43:
Lfunc_end5:
	.cfi_endproc
	.section	__TEXT,__gcc_except_tab
	.p2align	2
GCC_except_table5:
Lexception5:
	.byte	255
	.byte	255
	.byte	1
	.uleb128 Lcst_end5-Lcst_begin5
Lcst_begin5:
	.uleb128 Lfunc_begin5-Lfunc_begin5
	.uleb128 Ltmp36-Lfunc_begin5
	.byte	0
	.byte	0
	.uleb128 Ltmp36-Lfunc_begin5
	.uleb128 Ltmp37-Ltmp36
	.uleb128 Ltmp38-Lfunc_begin5
	.byte	0
	.uleb128 Ltmp39-Lfunc_begin5
	.uleb128 Ltmp40-Ltmp39
	.uleb128 Ltmp41-Lfunc_begin5
	.byte	0
	.uleb128 Ltmp40-Lfunc_begin5
	.uleb128 Lfunc_end5-Ltmp40
	.byte	0
	.byte	0
Lcst_end5:
	.p2align	2

	.section	__TEXT,__text,regular,pure_instructions
	.globl	__ZN12tracing_core10dispatcher11get_default28_$u7b$$u7b$closure$u7d$$u7d$17h72050eb253e79dc2E
	.p2align	4, 0x90
__ZN12tracing_core10dispatcher11get_default28_$u7b$$u7b$closure$u7d$$u7d$17h72050eb253e79dc2E:
Lfunc_begin6:
	.loc	1 376 0 is_stmt 1
	.cfi_startproc
	.cfi_personality 155, _rust_eh_personality
	.cfi_lsda 16, Lexception6
	pushq	%rbp
	.cfi_def_cfa_offset 16
	.cfi_offset %rbp, -16
	movq	%rsp, %rbp
	.cfi_def_cfa_register %rbp
	subq	$80, %rsp
	movq	%rdi, -56(%rbp)
Ltmp50:
	.loc	1 376 29 prologue_end
	movq	-56(%rbp), %rax
	movq	%rax, -72(%rbp)
	.loc	1 376 32 is_stmt 0
	callq	__ZN12tracing_core10dispatcher8Dispatch4none17hc280d07a7675ef21E
	movq	-72(%rbp), %rdi
	movq	%rdx, -32(%rbp)
	movq	%rax, -40(%rbp)
	leaq	-40(%rbp), %rax
	.loc	1 376 29
	movq	%rax, -48(%rbp)
	movq	-48(%rbp), %rsi
Ltmp44:
	callq	__ZN7tracing15__macro_support12__is_enabled28_$u7b$$u7b$closure$u7d$$u7d$17h5c8f0825eaac2f6aE
Ltmp45:
	movb	%al, -57(%rbp)
	jmp	LBB6_3
LBB6_1:
Ltmp47:
	.loc	1 0 29
	leaq	-40(%rbp), %rdi
	.loc	1 376 48
	callq	__ZN4core3ptr55drop_in_place$LT$tracing_core..dispatcher..Dispatch$GT$17h5b44deb9c54d2bb7E
Ltmp48:
	jmp	LBB6_5
LBB6_2:
Ltmp46:
	.loc	1 0 48
	movq	%rax, %rcx
	movl	%edx, %eax
	movq	%rcx, -16(%rbp)
	movl	%eax, -8(%rbp)
	jmp	LBB6_1
LBB6_3:
	.loc	1 376 48
	leaq	-40(%rbp), %rdi
	callq	__ZN4core3ptr55drop_in_place$LT$tracing_core..dispatcher..Dispatch$GT$17h5b44deb9c54d2bb7E
	movb	-57(%rbp), %al
	.loc	1 376 49
	andb	$1, %al
	movzbl	%al, %eax
	addq	$80, %rsp
	popq	%rbp
	retq
LBB6_4:
Ltmp49:
	.loc	1 376 25
	callq	__ZN4core9panicking19panic_cannot_unwind17h1fbca7e1d7f56ae1E
LBB6_5:
	movq	-16(%rbp), %rdi
	callq	__Unwind_Resume
Ltmp51:
Lfunc_end6:
	.cfi_endproc
	.section	__TEXT,__gcc_except_tab
	.p2align	2
GCC_except_table6:
Lexception6:
	.byte	255
	.byte	255
	.byte	1
	.uleb128 Lcst_end6-Lcst_begin6
Lcst_begin6:
	.uleb128 Lfunc_begin6-Lfunc_begin6
	.uleb128 Ltmp44-Lfunc_begin6
	.byte	0
	.byte	0
	.uleb128 Ltmp44-Lfunc_begin6
	.uleb128 Ltmp45-Ltmp44
	.uleb128 Ltmp46-Lfunc_begin6
	.byte	0
	.uleb128 Ltmp47-Lfunc_begin6
	.uleb128 Ltmp48-Ltmp47
	.uleb128 Ltmp49-Lfunc_begin6
	.byte	0
	.uleb128 Ltmp48-Lfunc_begin6
	.uleb128 Lfunc_end6-Ltmp48
	.byte	0
	.byte	0
Lcst_end6:
	.p2align	2

	.section	__TEXT,__text,regular,pure_instructions
	.globl	__ZN12tracing_core10dispatcher11get_default28_$u7b$$u7b$closure$u7d$$u7d$17h8a727db3fe32bf10E
	.p2align	4, 0x90
__ZN12tracing_core10dispatcher11get_default28_$u7b$$u7b$closure$u7d$$u7d$17h8a727db3fe32bf10E:
Lfunc_begin7:
	.loc	1 369 0 is_stmt 1
	.cfi_startproc
	.cfi_personality 155, _rust_eh_personality
	.cfi_lsda 16, Lexception7
	pushq	%rbp
	.cfi_def_cfa_offset 16
	.cfi_offset %rbp, -16
	movq	%rsp, %rbp
	.cfi_def_cfa_register %rbp
	subq	$160, %rsp
	movq	%rdx, -120(%rbp)
	movq	%rdi, %rax
	movq	-120(%rbp), %rdi
	movq	%rax, -112(%rbp)
	movq	%rax, -104(%rbp)
	movq	%rsi, -96(%rbp)
	movq	%rdi, -24(%rbp)
Ltmp72:
	.loc	1 370 36 prologue_end
	callq	__ZN12tracing_core10dispatcher5State5enter17h470ef05cddae4d13E
	movq	%rax, -88(%rbp)
	.loc	1 370 20 is_stmt 0
	movq	-88(%rbp), %rdx
	movl	$1, %eax
	xorl	%ecx, %ecx
	cmpq	$0, %rdx
	cmoveq	%rcx, %rax
	cmpq	$1, %rax
	jne	LBB7_2
	.loc	1 370 25
	movq	-88(%rbp), %rax
	movq	%rax, -80(%rbp)
	.loc	1 371 24 is_stmt 1
	movq	-96(%rbp), %rax
	movq	%rax, -144(%rbp)
Ltmp57:
	leaq	-80(%rbp), %rdi
	.loc	1 371 28 is_stmt 0
	callq	__ZN12tracing_core10dispatcher7Entered7current17h7a8e32eae5712337E
Ltmp58:
	movq	%rdx, -136(%rbp)
	movq	%rax, -128(%rbp)
	jmp	LBB7_11
Ltmp73:
LBB7_2:
	.loc	1 0 28
	leaq	-88(%rbp), %rdi
	.loc	1 372 13 is_stmt 1
	callq	__ZN4core3ptr82drop_in_place$LT$core..option..Option$LT$tracing_core..dispatcher..Entered$GT$$GT$17he3f6b8fd96aea8cbE
	.loc	1 374 13
	movq	-96(%rbp), %rax
	movq	%rax, -152(%rbp)
	.loc	1 374 16 is_stmt 0
	callq	__ZN12tracing_core10dispatcher8Dispatch4none17hc280d07a7675ef21E
	movq	-112(%rbp), %rdi
	movq	-152(%rbp), %rsi
	movq	%rdx, -32(%rbp)
	movq	%rax, -40(%rbp)
	leaq	-40(%rbp), %rax
	.loc	1 374 13
	movq	%rax, -48(%rbp)
	movq	-48(%rbp), %rdx
Ltmp52:
	callq	__ZN7tracing4span4Span8new_root28_$u7b$$u7b$closure$u7d$$u7d$17h114a6acf80ff220eE
Ltmp53:
	jmp	LBB7_5
LBB7_3:
Ltmp55:
	.loc	1 0 13
	leaq	-40(%rbp), %rdi
	.loc	1 375 9 is_stmt 1
	callq	__ZN4core3ptr55drop_in_place$LT$tracing_core..dispatcher..Dispatch$GT$17h5b44deb9c54d2bb7E
Ltmp56:
	jmp	LBB7_7
LBB7_4:
Ltmp54:
	.loc	1 0 9 is_stmt 0
	movq	%rax, %rcx
	movl	%edx, %eax
	movq	%rcx, -16(%rbp)
	movl	%eax, -8(%rbp)
	jmp	LBB7_3
LBB7_5:
	.loc	1 375 9
	leaq	-40(%rbp), %rdi
	callq	__ZN4core3ptr55drop_in_place$LT$tracing_core..dispatcher..Dispatch$GT$17h5b44deb9c54d2bb7E
	jmp	LBB7_8
LBB7_6:
Ltmp71:
	.loc	1 369 19 is_stmt 1
	callq	__ZN4core9panicking19panic_cannot_unwind17h1fbca7e1d7f56ae1E
LBB7_7:
	movq	-16(%rbp), %rdi
	callq	__Unwind_Resume
LBB7_8:
	.loc	1 0 19 is_stmt 0
	movq	-104(%rbp), %rax
	.loc	1 375 10 is_stmt 1
	addq	$160, %rsp
	popq	%rbp
	retq
LBB7_9:
Ltmp69:
	.loc	1 0 10 is_stmt 0
	leaq	-80(%rbp), %rdi
	.loc	1 372 13 is_stmt 1
	callq	__ZN4core3ptr54drop_in_place$LT$tracing_core..dispatcher..Entered$GT$17hef333e82cc9f2c54E
Ltmp70:
	jmp	LBB7_7
LBB7_10:
Ltmp68:
	.loc	1 0 13 is_stmt 0
	movq	%rax, %rcx
	movl	%edx, %eax
	movq	%rcx, -16(%rbp)
	movl	%eax, -8(%rbp)
	jmp	LBB7_9
LBB7_11:
	movq	-136(%rbp), %rax
	movq	-128(%rbp), %rcx
Ltmp74:
	.loc	1 371 28 is_stmt 1
	movq	%rcx, -64(%rbp)
	movq	%rax, -56(%rbp)
Ltmp59:
	leaq	-64(%rbp), %rdi
	.loc	1 371 27 is_stmt 0
	callq	__ZN71_$LT$core..cell..RefMut$LT$T$GT$$u20$as$u20$core..ops..deref..Deref$GT$5deref17hc817683dab10a580E
Ltmp60:
	movq	%rax, -160(%rbp)
	jmp	LBB7_14
LBB7_12:
Ltmp64:
	.loc	1 0 27
	leaq	-64(%rbp), %rdi
	.loc	1 371 46
	callq	__ZN4core3ptr81drop_in_place$LT$core..cell..RefMut$LT$tracing_core..dispatcher..Dispatch$GT$$GT$17he73075b36b6990deE
Ltmp65:
	jmp	LBB7_9
LBB7_13:
Ltmp63:
	.loc	1 0 46
	movq	%rax, %rcx
	movl	%edx, %eax
	movq	%rcx, -16(%rbp)
	movl	%eax, -8(%rbp)
	jmp	LBB7_12
LBB7_14:
	movq	-144(%rbp), %rsi
	movq	-112(%rbp), %rdi
	movq	-160(%rbp), %rax
	.loc	1 371 24
	movq	%rax, -72(%rbp)
	movq	-72(%rbp), %rdx
Ltmp61:
	callq	__ZN7tracing4span4Span8new_root28_$u7b$$u7b$closure$u7d$$u7d$17h114a6acf80ff220eE
Ltmp62:
	jmp	LBB7_15
LBB7_15:
Ltmp66:
	.loc	1 0 24
	leaq	-64(%rbp), %rdi
	.loc	1 371 46
	callq	__ZN4core3ptr81drop_in_place$LT$core..cell..RefMut$LT$tracing_core..dispatcher..Dispatch$GT$$GT$17he73075b36b6990deE
Ltmp67:
	jmp	LBB7_16
Ltmp75:
LBB7_16:
	.loc	1 372 13 is_stmt 1
	leaq	-80(%rbp), %rdi
	callq	__ZN4core3ptr54drop_in_place$LT$tracing_core..dispatcher..Entered$GT$17hef333e82cc9f2c54E
	jmp	LBB7_8
Ltmp76:
Lfunc_end7:
	.cfi_endproc
	.section	__TEXT,__gcc_except_tab
	.p2align	2
GCC_except_table7:
Lexception7:
	.byte	255
	.byte	255
	.byte	1
	.uleb128 Lcst_end7-Lcst_begin7
Lcst_begin7:
	.uleb128 Lfunc_begin7-Lfunc_begin7
	.uleb128 Ltmp57-Lfunc_begin7
	.byte	0
	.byte	0
	.uleb128 Ltmp57-Lfunc_begin7
	.uleb128 Ltmp58-Ltmp57
	.uleb128 Ltmp68-Lfunc_begin7
	.byte	0
	.uleb128 Ltmp58-Lfunc_begin7
	.uleb128 Ltmp52-Ltmp58
	.byte	0
	.byte	0
	.uleb128 Ltmp52-Lfunc_begin7
	.uleb128 Ltmp53-Ltmp52
	.uleb128 Ltmp54-Lfunc_begin7
	.byte	0
	.uleb128 Ltmp55-Lfunc_begin7
	.uleb128 Ltmp56-Ltmp55
	.uleb128 Ltmp71-Lfunc_begin7
	.byte	0
	.uleb128 Ltmp56-Lfunc_begin7
	.uleb128 Ltmp69-Ltmp56
	.byte	0
	.byte	0
	.uleb128 Ltmp69-Lfunc_begin7
	.uleb128 Ltmp70-Ltmp69
	.uleb128 Ltmp71-Lfunc_begin7
	.byte	0
	.uleb128 Ltmp59-Lfunc_begin7
	.uleb128 Ltmp60-Ltmp59
	.uleb128 Ltmp63-Lfunc_begin7
	.byte	0
	.uleb128 Ltmp64-Lfunc_begin7
	.uleb128 Ltmp65-Ltmp64
	.uleb128 Ltmp71-Lfunc_begin7
	.byte	0
	.uleb128 Ltmp61-Lfunc_begin7
	.uleb128 Ltmp62-Ltmp61
	.uleb128 Ltmp63-Lfunc_begin7
	.byte	0
	.uleb128 Ltmp66-Lfunc_begin7
	.uleb128 Ltmp67-Ltmp66
	.uleb128 Ltmp68-Lfunc_begin7
	.byte	0
	.uleb128 Ltmp67-Lfunc_begin7
	.uleb128 Lfunc_end7-Ltmp67
	.byte	0
	.byte	0
Lcst_end7:
	.p2align	2

	.section	__TEXT,__text,regular,pure_instructions
	.globl	__ZN12tracing_core10dispatcher11get_default28_$u7b$$u7b$closure$u7d$$u7d$17h962db9cef4247f0cE
	.p2align	4, 0x90
__ZN12tracing_core10dispatcher11get_default28_$u7b$$u7b$closure$u7d$$u7d$17h962db9cef4247f0cE:
Lfunc_begin8:
	.loc	1 376 0
	.cfi_startproc
	.cfi_personality 155, _rust_eh_personality
	.cfi_lsda 16, Lexception8
	pushq	%rbp
	.cfi_def_cfa_offset 16
	.cfi_offset %rbp, -16
	movq	%rsp, %rbp
	.cfi_def_cfa_register %rbp
	subq	$80, %rsp
	movq	%rdi, -72(%rbp)
	movq	%rdi, -80(%rbp)
	movq	%rsi, -56(%rbp)
Ltmp83:
	.loc	1 376 29 prologue_end
	movq	-56(%rbp), %rax
	movq	%rax, -64(%rbp)
	.loc	1 376 32 is_stmt 0
	callq	__ZN12tracing_core10dispatcher8Dispatch4none17hc280d07a7675ef21E
	movq	-72(%rbp), %rdi
	movq	-64(%rbp), %rsi
	movq	%rdx, -32(%rbp)
	movq	%rax, -40(%rbp)
	leaq	-40(%rbp), %rax
	.loc	1 376 29
	movq	%rax, -48(%rbp)
	movq	-48(%rbp), %rdx
Ltmp77:
	callq	__ZN7tracing4span4Span3new28_$u7b$$u7b$closure$u7d$$u7d$17h2f66f05ff1506aa5E
Ltmp78:
	jmp	LBB8_3
LBB8_1:
Ltmp80:
	.loc	1 0 29
	leaq	-40(%rbp), %rdi
	.loc	1 376 48
	callq	__ZN4core3ptr55drop_in_place$LT$tracing_core..dispatcher..Dispatch$GT$17h5b44deb9c54d2bb7E
Ltmp81:
	jmp	LBB8_5
LBB8_2:
Ltmp79:
	.loc	1 0 48
	movq	%rax, %rcx
	movl	%edx, %eax
	movq	%rcx, -16(%rbp)
	movl	%eax, -8(%rbp)
	jmp	LBB8_1
LBB8_3:
	.loc	1 376 48
	leaq	-40(%rbp), %rdi
	callq	__ZN4core3ptr55drop_in_place$LT$tracing_core..dispatcher..Dispatch$GT$17h5b44deb9c54d2bb7E
	movq	-80(%rbp), %rax
	.loc	1 376 49
	addq	$80, %rsp
	popq	%rbp
	retq
LBB8_4:
Ltmp82:
	.loc	1 376 25
	callq	__ZN4core9panicking19panic_cannot_unwind17h1fbca7e1d7f56ae1E
LBB8_5:
	movq	-16(%rbp), %rdi
	callq	__Unwind_Resume
Ltmp84:
Lfunc_end8:
	.cfi_endproc
	.section	__TEXT,__gcc_except_tab
	.p2align	2
GCC_except_table8:
Lexception8:
	.byte	255
	.byte	255
	.byte	1
	.uleb128 Lcst_end8-Lcst_begin8
Lcst_begin8:
	.uleb128 Lfunc_begin8-Lfunc_begin8
	.uleb128 Ltmp77-Lfunc_begin8
	.byte	0
	.byte	0
	.uleb128 Ltmp77-Lfunc_begin8
	.uleb128 Ltmp78-Ltmp77
	.uleb128 Ltmp79-Lfunc_begin8
	.byte	0
	.uleb128 Ltmp80-Lfunc_begin8
	.uleb128 Ltmp81-Ltmp80
	.uleb128 Ltmp82-Lfunc_begin8
	.byte	0
	.uleb128 Ltmp81-Lfunc_begin8
	.uleb128 Lfunc_end8-Ltmp81
	.byte	0
	.byte	0
Lcst_end8:
	.p2align	2

	.section	__TEXT,__text,regular,pure_instructions
	.globl	__ZN12tracing_core10dispatcher11get_default28_$u7b$$u7b$closure$u7d$$u7d$17ha2e4d450d31ebbe5E
	.p2align	4, 0x90
__ZN12tracing_core10dispatcher11get_default28_$u7b$$u7b$closure$u7d$$u7d$17ha2e4d450d31ebbe5E:
Lfunc_begin9:
	.loc	1 369 0 is_stmt 1
	.cfi_startproc
	.cfi_personality 155, _rust_eh_personality
	.cfi_lsda 16, Lexception9
	pushq	%rbp
	.cfi_def_cfa_offset 16
	.cfi_offset %rbp, -16
	movq	%rsp, %rbp
	.cfi_def_cfa_register %rbp
	subq	$160, %rsp
	movq	%rdx, -120(%rbp)
	movq	%rdi, %rax
	movq	-120(%rbp), %rdi
	movq	%rax, -112(%rbp)
	movq	%rax, -104(%rbp)
	movq	%rsi, -96(%rbp)
	movq	%rdi, -24(%rbp)
Ltmp105:
	.loc	1 370 36 prologue_end
	callq	__ZN12tracing_core10dispatcher5State5enter17h470ef05cddae4d13E
	movq	%rax, -88(%rbp)
	.loc	1 370 20 is_stmt 0
	movq	-88(%rbp), %rdx
	movl	$1, %eax
	xorl	%ecx, %ecx
	cmpq	$0, %rdx
	cmoveq	%rcx, %rax
	cmpq	$1, %rax
	jne	LBB9_2
	.loc	1 370 25
	movq	-88(%rbp), %rax
	movq	%rax, -80(%rbp)
	.loc	1 371 24 is_stmt 1
	movq	-96(%rbp), %rax
	movq	%rax, -144(%rbp)
Ltmp90:
	leaq	-80(%rbp), %rdi
	.loc	1 371 28 is_stmt 0
	callq	__ZN12tracing_core10dispatcher7Entered7current17h7a8e32eae5712337E
Ltmp91:
	movq	%rdx, -136(%rbp)
	movq	%rax, -128(%rbp)
	jmp	LBB9_11
Ltmp106:
LBB9_2:
	.loc	1 0 28
	leaq	-88(%rbp), %rdi
	.loc	1 372 13 is_stmt 1
	callq	__ZN4core3ptr82drop_in_place$LT$core..option..Option$LT$tracing_core..dispatcher..Entered$GT$$GT$17he3f6b8fd96aea8cbE
	.loc	1 374 13
	movq	-96(%rbp), %rax
	movq	%rax, -152(%rbp)
	.loc	1 374 16 is_stmt 0
	callq	__ZN12tracing_core10dispatcher8Dispatch4none17hc280d07a7675ef21E
	movq	-112(%rbp), %rdi
	movq	-152(%rbp), %rsi
	movq	%rdx, -32(%rbp)
	movq	%rax, -40(%rbp)
	leaq	-40(%rbp), %rax
	.loc	1 374 13
	movq	%rax, -48(%rbp)
	movq	-48(%rbp), %rdx
Ltmp85:
	callq	__ZN7tracing4span4Span7current28_$u7b$$u7b$closure$u7d$$u7d$17hdf7338a75c02bd95E
Ltmp86:
	jmp	LBB9_5
LBB9_3:
Ltmp88:
	.loc	1 0 13
	leaq	-40(%rbp), %rdi
	.loc	1 375 9 is_stmt 1
	callq	__ZN4core3ptr55drop_in_place$LT$tracing_core..dispatcher..Dispatch$GT$17h5b44deb9c54d2bb7E
Ltmp89:
	jmp	LBB9_7
LBB9_4:
Ltmp87:
	.loc	1 0 9 is_stmt 0
	movq	%rax, %rcx
	movl	%edx, %eax
	movq	%rcx, -16(%rbp)
	movl	%eax, -8(%rbp)
	jmp	LBB9_3
LBB9_5:
	.loc	1 375 9
	leaq	-40(%rbp), %rdi
	callq	__ZN4core3ptr55drop_in_place$LT$tracing_core..dispatcher..Dispatch$GT$17h5b44deb9c54d2bb7E
	jmp	LBB9_8
LBB9_6:
Ltmp104:
	.loc	1 369 19 is_stmt 1
	callq	__ZN4core9panicking19panic_cannot_unwind17h1fbca7e1d7f56ae1E
LBB9_7:
	movq	-16(%rbp), %rdi
	callq	__Unwind_Resume
LBB9_8:
	.loc	1 0 19 is_stmt 0
	movq	-104(%rbp), %rax
	.loc	1 375 10 is_stmt 1
	addq	$160, %rsp
	popq	%rbp
	retq
LBB9_9:
Ltmp102:
	.loc	1 0 10 is_stmt 0
	leaq	-80(%rbp), %rdi
	.loc	1 372 13 is_stmt 1
	callq	__ZN4core3ptr54drop_in_place$LT$tracing_core..dispatcher..Entered$GT$17hef333e82cc9f2c54E
Ltmp103:
	jmp	LBB9_7
LBB9_10:
Ltmp101:
	.loc	1 0 13 is_stmt 0
	movq	%rax, %rcx
	movl	%edx, %eax
	movq	%rcx, -16(%rbp)
	movl	%eax, -8(%rbp)
	jmp	LBB9_9
LBB9_11:
	movq	-136(%rbp), %rax
	movq	-128(%rbp), %rcx
Ltmp107:
	.loc	1 371 28 is_stmt 1
	movq	%rcx, -64(%rbp)
	movq	%rax, -56(%rbp)
Ltmp92:
	leaq	-64(%rbp), %rdi
	.loc	1 371 27 is_stmt 0
	callq	__ZN71_$LT$core..cell..RefMut$LT$T$GT$$u20$as$u20$core..ops..deref..Deref$GT$5deref17hc817683dab10a580E
Ltmp93:
	movq	%rax, -160(%rbp)
	jmp	LBB9_14
LBB9_12:
Ltmp97:
	.loc	1 0 27
	leaq	-64(%rbp), %rdi
	.loc	1 371 46
	callq	__ZN4core3ptr81drop_in_place$LT$core..cell..RefMut$LT$tracing_core..dispatcher..Dispatch$GT$$GT$17he73075b36b6990deE
Ltmp98:
	jmp	LBB9_9
LBB9_13:
Ltmp96:
	.loc	1 0 46
	movq	%rax, %rcx
	movl	%edx, %eax
	movq	%rcx, -16(%rbp)
	movl	%eax, -8(%rbp)
	jmp	LBB9_12
LBB9_14:
	movq	-144(%rbp), %rsi
	movq	-112(%rbp), %rdi
	movq	-160(%rbp), %rax
	.loc	1 371 24
	movq	%rax, -72(%rbp)
	movq	-72(%rbp), %rdx
Ltmp94:
	callq	__ZN7tracing4span4Span7current28_$u7b$$u7b$closure$u7d$$u7d$17hdf7338a75c02bd95E
Ltmp95:
	jmp	LBB9_15
LBB9_15:
Ltmp99:
	.loc	1 0 24
	leaq	-64(%rbp), %rdi
	.loc	1 371 46
	callq	__ZN4core3ptr81drop_in_place$LT$core..cell..RefMut$LT$tracing_core..dispatcher..Dispatch$GT$$GT$17he73075b36b6990deE
Ltmp100:
	jmp	LBB9_16
Ltmp108:
LBB9_16:
	.loc	1 372 13 is_stmt 1
	leaq	-80(%rbp), %rdi
	callq	__ZN4core3ptr54drop_in_place$LT$tracing_core..dispatcher..Entered$GT$17hef333e82cc9f2c54E
	jmp	LBB9_8
Ltmp109:
Lfunc_end9:
	.cfi_endproc
	.section	__TEXT,__gcc_except_tab
	.p2align	2
GCC_except_table9:
Lexception9:
	.byte	255
	.byte	255
	.byte	1
	.uleb128 Lcst_end9-Lcst_begin9
Lcst_begin9:
	.uleb128 Lfunc_begin9-Lfunc_begin9
	.uleb128 Ltmp90-Lfunc_begin9
	.byte	0
	.byte	0
	.uleb128 Ltmp90-Lfunc_begin9
	.uleb128 Ltmp91-Ltmp90
	.uleb128 Ltmp101-Lfunc_begin9
	.byte	0
	.uleb128 Ltmp91-Lfunc_begin9
	.uleb128 Ltmp85-Ltmp91
	.byte	0
	.byte	0
	.uleb128 Ltmp85-Lfunc_begin9
	.uleb128 Ltmp86-Ltmp85
	.uleb128 Ltmp87-Lfunc_begin9
	.byte	0
	.uleb128 Ltmp88-Lfunc_begin9
	.uleb128 Ltmp89-Ltmp88
	.uleb128 Ltmp104-Lfunc_begin9
	.byte	0
	.uleb128 Ltmp89-Lfunc_begin9
	.uleb128 Ltmp102-Ltmp89
	.byte	0
	.byte	0
	.uleb128 Ltmp102-Lfunc_begin9
	.uleb128 Ltmp103-Ltmp102
	.uleb128 Ltmp104-Lfunc_begin9
	.byte	0
	.uleb128 Ltmp92-Lfunc_begin9
	.uleb128 Ltmp93-Ltmp92
	.uleb128 Ltmp96-Lfunc_begin9
	.byte	0
	.uleb128 Ltmp97-Lfunc_begin9
	.uleb128 Ltmp98-Ltmp97
	.uleb128 Ltmp104-Lfunc_begin9
	.byte	0
	.uleb128 Ltmp94-Lfunc_begin9
	.uleb128 Ltmp95-Ltmp94
	.uleb128 Ltmp96-Lfunc_begin9
	.byte	0
	.uleb128 Ltmp99-Lfunc_begin9
	.uleb128 Ltmp100-Ltmp99
	.uleb128 Ltmp101-Lfunc_begin9
	.byte	0
	.uleb128 Ltmp100-Lfunc_begin9
	.uleb128 Lfunc_end9-Ltmp100
	.byte	0
	.byte	0
Lcst_end9:
	.p2align	2

	.section	__TEXT,__text,regular,pure_instructions
	.globl	__ZN12tracing_core10dispatcher11get_default28_$u7b$$u7b$closure$u7d$$u7d$17hb8d5efbba501582bE
	.p2align	4, 0x90
__ZN12tracing_core10dispatcher11get_default28_$u7b$$u7b$closure$u7d$$u7d$17hb8d5efbba501582bE:
Lfunc_begin10:
	.loc	1 369 0
	.cfi_startproc
	.cfi_personality 155, _rust_eh_personality
	.cfi_lsda 16, Lexception10
	pushq	%rbp
	.cfi_def_cfa_offset 16
	.cfi_offset %rbp, -16
	movq	%rsp, %rbp
	.cfi_def_cfa_register %rbp
	subq	$160, %rsp
	movq	%rdx, -120(%rbp)
	movq	%rdi, %rax
	movq	-120(%rbp), %rdi
	movq	%rax, -112(%rbp)
	movq	%rax, -104(%rbp)
	movq	%rsi, -96(%rbp)
	movq	%rdi, -24(%rbp)
Ltmp130:
	.loc	1 370 36 prologue_end
	callq	__ZN12tracing_core10dispatcher5State5enter17h470ef05cddae4d13E
	movq	%rax, -88(%rbp)
	.loc	1 370 20 is_stmt 0
	movq	-88(%rbp), %rdx
	movl	$1, %eax
	xorl	%ecx, %ecx
	cmpq	$0, %rdx
	cmoveq	%rcx, %rax
	cmpq	$1, %rax
	jne	LBB10_2
	.loc	1 370 25
	movq	-88(%rbp), %rax
	movq	%rax, -80(%rbp)
	.loc	1 371 24 is_stmt 1
	movq	-96(%rbp), %rax
	movq	%rax, -144(%rbp)
Ltmp115:
	leaq	-80(%rbp), %rdi
	.loc	1 371 28 is_stmt 0
	callq	__ZN12tracing_core10dispatcher7Entered7current17h7a8e32eae5712337E
Ltmp116:
	movq	%rdx, -136(%rbp)
	movq	%rax, -128(%rbp)
	jmp	LBB10_11
Ltmp131:
LBB10_2:
	.loc	1 0 28
	leaq	-88(%rbp), %rdi
	.loc	1 372 13 is_stmt 1
	callq	__ZN4core3ptr82drop_in_place$LT$core..option..Option$LT$tracing_core..dispatcher..Entered$GT$$GT$17he3f6b8fd96aea8cbE
	.loc	1 374 13
	movq	-96(%rbp), %rax
	movq	%rax, -152(%rbp)
	.loc	1 374 16 is_stmt 0
	callq	__ZN12tracing_core10dispatcher8Dispatch4none17hc280d07a7675ef21E
	movq	-112(%rbp), %rdi
	movq	-152(%rbp), %rsi
	movq	%rdx, -32(%rbp)
	movq	%rax, -40(%rbp)
	leaq	-40(%rbp), %rax
	.loc	1 374 13
	movq	%rax, -48(%rbp)
	movq	-48(%rbp), %rdx
Ltmp110:
	callq	__ZN7tracing4span4Span3new28_$u7b$$u7b$closure$u7d$$u7d$17h2f66f05ff1506aa5E
Ltmp111:
	jmp	LBB10_5
LBB10_3:
Ltmp113:
	.loc	1 0 13
	leaq	-40(%rbp), %rdi
	.loc	1 375 9 is_stmt 1
	callq	__ZN4core3ptr55drop_in_place$LT$tracing_core..dispatcher..Dispatch$GT$17h5b44deb9c54d2bb7E
Ltmp114:
	jmp	LBB10_7
LBB10_4:
Ltmp112:
	.loc	1 0 9 is_stmt 0
	movq	%rax, %rcx
	movl	%edx, %eax
	movq	%rcx, -16(%rbp)
	movl	%eax, -8(%rbp)
	jmp	LBB10_3
LBB10_5:
	.loc	1 375 9
	leaq	-40(%rbp), %rdi
	callq	__ZN4core3ptr55drop_in_place$LT$tracing_core..dispatcher..Dispatch$GT$17h5b44deb9c54d2bb7E
	jmp	LBB10_8
LBB10_6:
Ltmp129:
	.loc	1 369 19 is_stmt 1
	callq	__ZN4core9panicking19panic_cannot_unwind17h1fbca7e1d7f56ae1E
LBB10_7:
	movq	-16(%rbp), %rdi
	callq	__Unwind_Resume
LBB10_8:
	.loc	1 0 19 is_stmt 0
	movq	-104(%rbp), %rax
	.loc	1 375 10 is_stmt 1
	addq	$160, %rsp
	popq	%rbp
	retq
LBB10_9:
Ltmp127:
	.loc	1 0 10 is_stmt 0
	leaq	-80(%rbp), %rdi
	.loc	1 372 13 is_stmt 1
	callq	__ZN4core3ptr54drop_in_place$LT$tracing_core..dispatcher..Entered$GT$17hef333e82cc9f2c54E
Ltmp128:
	jmp	LBB10_7
LBB10_10:
Ltmp126:
	.loc	1 0 13 is_stmt 0
	movq	%rax, %rcx
	movl	%edx, %eax
	movq	%rcx, -16(%rbp)
	movl	%eax, -8(%rbp)
	jmp	LBB10_9
LBB10_11:
	movq	-136(%rbp), %rax
	movq	-128(%rbp), %rcx
Ltmp132:
	.loc	1 371 28 is_stmt 1
	movq	%rcx, -64(%rbp)
	movq	%rax, -56(%rbp)
Ltmp117:
	leaq	-64(%rbp), %rdi
	.loc	1 371 27 is_stmt 0
	callq	__ZN71_$LT$core..cell..RefMut$LT$T$GT$$u20$as$u20$core..ops..deref..Deref$GT$5deref17hc817683dab10a580E
Ltmp118:
	movq	%rax, -160(%rbp)
	jmp	LBB10_14
LBB10_12:
Ltmp122:
	.loc	1 0 27
	leaq	-64(%rbp), %rdi
	.loc	1 371 46
	callq	__ZN4core3ptr81drop_in_place$LT$core..cell..RefMut$LT$tracing_core..dispatcher..Dispatch$GT$$GT$17he73075b36b6990deE
Ltmp123:
	jmp	LBB10_9
LBB10_13:
Ltmp121:
	.loc	1 0 46
	movq	%rax, %rcx
	movl	%edx, %eax
	movq	%rcx, -16(%rbp)
	movl	%eax, -8(%rbp)
	jmp	LBB10_12
LBB10_14:
	movq	-144(%rbp), %rsi
	movq	-112(%rbp), %rdi
	movq	-160(%rbp), %rax
	.loc	1 371 24
	movq	%rax, -72(%rbp)
	movq	-72(%rbp), %rdx
Ltmp119:
	callq	__ZN7tracing4span4Span3new28_$u7b$$u7b$closure$u7d$$u7d$17h2f66f05ff1506aa5E
Ltmp120:
	jmp	LBB10_15
LBB10_15:
Ltmp124:
	.loc	1 0 24
	leaq	-64(%rbp), %rdi
	.loc	1 371 46
	callq	__ZN4core3ptr81drop_in_place$LT$core..cell..RefMut$LT$tracing_core..dispatcher..Dispatch$GT$$GT$17he73075b36b6990deE
Ltmp125:
	jmp	LBB10_16
Ltmp133:
LBB10_16:
	.loc	1 372 13 is_stmt 1
	leaq	-80(%rbp), %rdi
	callq	__ZN4core3ptr54drop_in_place$LT$tracing_core..dispatcher..Entered$GT$17hef333e82cc9f2c54E
	jmp	LBB10_8
Ltmp134:
Lfunc_end10:
	.cfi_endproc
	.section	__TEXT,__gcc_except_tab
	.p2align	2
GCC_except_table10:
Lexception10:
	.byte	255
	.byte	255
	.byte	1
	.uleb128 Lcst_end10-Lcst_begin10
Lcst_begin10:
	.uleb128 Lfunc_begin10-Lfunc_begin10
	.uleb128 Ltmp115-Lfunc_begin10
	.byte	0
	.byte	0
	.uleb128 Ltmp115-Lfunc_begin10
	.uleb128 Ltmp116-Ltmp115
	.uleb128 Ltmp126-Lfunc_begin10
	.byte	0
	.uleb128 Ltmp116-Lfunc_begin10
	.uleb128 Ltmp110-Ltmp116
	.byte	0
	.byte	0
	.uleb128 Ltmp110-Lfunc_begin10
	.uleb128 Ltmp111-Ltmp110
	.uleb128 Ltmp112-Lfunc_begin10
	.byte	0
	.uleb128 Ltmp113-Lfunc_begin10
	.uleb128 Ltmp114-Ltmp113
	.uleb128 Ltmp129-Lfunc_begin10
	.byte	0
	.uleb128 Ltmp114-Lfunc_begin10
	.uleb128 Ltmp127-Ltmp114
	.byte	0
	.byte	0
	.uleb128 Ltmp127-Lfunc_begin10
	.uleb128 Ltmp128-Ltmp127
	.uleb128 Ltmp129-Lfunc_begin10
	.byte	0
	.uleb128 Ltmp117-Lfunc_begin10
	.uleb128 Ltmp118-Ltmp117
	.uleb128 Ltmp121-Lfunc_begin10
	.byte	0
	.uleb128 Ltmp122-Lfunc_begin10
	.uleb128 Ltmp123-Ltmp122
	.uleb128 Ltmp129-Lfunc_begin10
	.byte	0
	.uleb128 Ltmp119-Lfunc_begin10
	.uleb128 Ltmp120-Ltmp119
	.uleb128 Ltmp121-Lfunc_begin10
	.byte	0
	.uleb128 Ltmp124-Lfunc_begin10
	.uleb128 Ltmp125-Ltmp124
	.uleb128 Ltmp126-Lfunc_begin10
	.byte	0
	.uleb128 Ltmp125-Lfunc_begin10
	.uleb128 Lfunc_end10-Ltmp125
	.byte	0
	.byte	0
Lcst_end10:
	.p2align	2

	.section	__TEXT,__text,regular,pure_instructions
	.globl	__ZN12tracing_core10dispatcher11get_default28_$u7b$$u7b$closure$u7d$$u7d$17hdd31223283f5825fE
	.p2align	4, 0x90
__ZN12tracing_core10dispatcher11get_default28_$u7b$$u7b$closure$u7d$$u7d$17hdd31223283f5825fE:
Lfunc_begin11:
	.loc	1 369 0
	.cfi_startproc
	.cfi_personality 155, _rust_eh_personality
	.cfi_lsda 16, Lexception11
	pushq	%rbp
	.cfi_def_cfa_offset 16
	.cfi_offset %rbp, -16
	movq	%rsp, %rbp
	.cfi_def_cfa_register %rbp
	subq	$176, %rsp
	movq	%rsi, -112(%rbp)
	movq	%rdi, %rax
	movq	-112(%rbp), %rdi
	movq	%rax, -104(%rbp)
	movq	%rdi, -24(%rbp)
Ltmp155:
	.loc	1 370 36 prologue_end
	callq	__ZN12tracing_core10dispatcher5State5enter17h470ef05cddae4d13E
	movq	%rax, -88(%rbp)
	.loc	1 370 20 is_stmt 0
	movq	-88(%rbp), %rdx
	movl	$1, %eax
	xorl	%ecx, %ecx
	cmpq	$0, %rdx
	cmoveq	%rcx, %rax
	cmpq	$1, %rax
	jne	LBB11_2
	.loc	1 370 25
	movq	-88(%rbp), %rax
	movq	%rax, -80(%rbp)
	.loc	1 371 24 is_stmt 1
	movq	-104(%rbp), %rax
	movq	%rax, -136(%rbp)
Ltmp140:
	leaq	-80(%rbp), %rdi
	.loc	1 371 28 is_stmt 0
	callq	__ZN12tracing_core10dispatcher7Entered7current17h7a8e32eae5712337E
Ltmp141:
	movq	%rdx, -128(%rbp)
	movq	%rax, -120(%rbp)
	jmp	LBB11_11
Ltmp156:
LBB11_2:
	.loc	1 0 28
	leaq	-88(%rbp), %rdi
	.loc	1 372 13 is_stmt 1
	callq	__ZN4core3ptr82drop_in_place$LT$core..option..Option$LT$tracing_core..dispatcher..Entered$GT$$GT$17he3f6b8fd96aea8cbE
	.loc	1 374 13
	movq	-104(%rbp), %rax
	movq	%rax, -152(%rbp)
	.loc	1 374 16 is_stmt 0
	callq	__ZN12tracing_core10dispatcher8Dispatch4none17hc280d07a7675ef21E
	movq	-152(%rbp), %rdi
	movq	%rdx, -32(%rbp)
	movq	%rax, -40(%rbp)
	leaq	-40(%rbp), %rax
	.loc	1 374 13
	movq	%rax, -48(%rbp)
	movq	-48(%rbp), %rsi
Ltmp135:
	callq	__ZN7tracing15__macro_support12__is_enabled28_$u7b$$u7b$closure$u7d$$u7d$17h5c8f0825eaac2f6aE
Ltmp136:
	movb	%al, -137(%rbp)
	jmp	LBB11_5
LBB11_3:
Ltmp138:
	.loc	1 0 13
	leaq	-40(%rbp), %rdi
	.loc	1 375 9 is_stmt 1
	callq	__ZN4core3ptr55drop_in_place$LT$tracing_core..dispatcher..Dispatch$GT$17h5b44deb9c54d2bb7E
Ltmp139:
	jmp	LBB11_7
LBB11_4:
Ltmp137:
	.loc	1 0 9 is_stmt 0
	movq	%rax, %rcx
	movl	%edx, %eax
	movq	%rcx, -16(%rbp)
	movl	%eax, -8(%rbp)
	jmp	LBB11_3
LBB11_5:
	movb	-137(%rbp), %al
	.loc	1 374 13 is_stmt 1
	andb	$1, %al
	movb	%al, -89(%rbp)
	.loc	1 375 9
	leaq	-40(%rbp), %rdi
	callq	__ZN4core3ptr55drop_in_place$LT$tracing_core..dispatcher..Dispatch$GT$17h5b44deb9c54d2bb7E
	jmp	LBB11_8
LBB11_6:
Ltmp154:
	.loc	1 369 19
	callq	__ZN4core9panicking19panic_cannot_unwind17h1fbca7e1d7f56ae1E
LBB11_7:
	movq	-16(%rbp), %rdi
	callq	__Unwind_Resume
LBB11_8:
	.loc	1 375 10
	movb	-89(%rbp), %al
	andb	$1, %al
	movzbl	%al, %eax
	addq	$176, %rsp
	popq	%rbp
	retq
LBB11_9:
Ltmp152:
	.loc	1 0 10 is_stmt 0
	leaq	-80(%rbp), %rdi
	.loc	1 372 13 is_stmt 1
	callq	__ZN4core3ptr54drop_in_place$LT$tracing_core..dispatcher..Entered$GT$17hef333e82cc9f2c54E
Ltmp153:
	jmp	LBB11_7
LBB11_10:
Ltmp151:
	.loc	1 0 13 is_stmt 0
	movq	%rax, %rcx
	movl	%edx, %eax
	movq	%rcx, -16(%rbp)
	movl	%eax, -8(%rbp)
	jmp	LBB11_9
LBB11_11:
	movq	-128(%rbp), %rax
	movq	-120(%rbp), %rcx
Ltmp157:
	.loc	1 371 28 is_stmt 1
	movq	%rcx, -64(%rbp)
	movq	%rax, -56(%rbp)
Ltmp142:
	leaq	-64(%rbp), %rdi
	.loc	1 371 27 is_stmt 0
	callq	__ZN71_$LT$core..cell..RefMut$LT$T$GT$$u20$as$u20$core..ops..deref..Deref$GT$5deref17hc817683dab10a580E
Ltmp143:
	movq	%rax, -160(%rbp)
	jmp	LBB11_14
LBB11_12:
Ltmp147:
	.loc	1 0 27
	leaq	-64(%rbp), %rdi
	.loc	1 371 46
	callq	__ZN4core3ptr81drop_in_place$LT$core..cell..RefMut$LT$tracing_core..dispatcher..Dispatch$GT$$GT$17he73075b36b6990deE
Ltmp148:
	jmp	LBB11_9
LBB11_13:
Ltmp146:
	.loc	1 0 46
	movq	%rax, %rcx
	movl	%edx, %eax
	movq	%rcx, -16(%rbp)
	movl	%eax, -8(%rbp)
	jmp	LBB11_12
LBB11_14:
	movq	-136(%rbp), %rdi
	movq	-160(%rbp), %rax
	.loc	1 371 24
	movq	%rax, -72(%rbp)
	movq	-72(%rbp), %rsi
Ltmp144:
	callq	__ZN7tracing15__macro_support12__is_enabled28_$u7b$$u7b$closure$u7d$$u7d$17h5c8f0825eaac2f6aE
Ltmp145:
	movb	%al, -161(%rbp)
	jmp	LBB11_15
LBB11_15:
	.loc	1 0 24
	movb	-161(%rbp), %al
	.loc	1 371 24
	andb	$1, %al
	movb	%al, -89(%rbp)
Ltmp149:
	leaq	-64(%rbp), %rdi
	.loc	1 371 46
	callq	__ZN4core3ptr81drop_in_place$LT$core..cell..RefMut$LT$tracing_core..dispatcher..Dispatch$GT$$GT$17he73075b36b6990deE
Ltmp150:
	jmp	LBB11_16
Ltmp158:
LBB11_16:
	.loc	1 372 13 is_stmt 1
	leaq	-80(%rbp), %rdi
	callq	__ZN4core3ptr54drop_in_place$LT$tracing_core..dispatcher..Entered$GT$17hef333e82cc9f2c54E
	jmp	LBB11_8
Ltmp159:
Lfunc_end11:
	.cfi_endproc
	.section	__TEXT,__gcc_except_tab
	.p2align	2
GCC_except_table11:
Lexception11:
	.byte	255
	.byte	255
	.byte	1
	.uleb128 Lcst_end11-Lcst_begin11
Lcst_begin11:
	.uleb128 Lfunc_begin11-Lfunc_begin11
	.uleb128 Ltmp140-Lfunc_begin11
	.byte	0
	.byte	0
	.uleb128 Ltmp140-Lfunc_begin11
	.uleb128 Ltmp141-Ltmp140
	.uleb128 Ltmp151-Lfunc_begin11
	.byte	0
	.uleb128 Ltmp141-Lfunc_begin11
	.uleb128 Ltmp135-Ltmp141
	.byte	0
	.byte	0
	.uleb128 Ltmp135-Lfunc_begin11
	.uleb128 Ltmp136-Ltmp135
	.uleb128 Ltmp137-Lfunc_begin11
	.byte	0
	.uleb128 Ltmp138-Lfunc_begin11
	.uleb128 Ltmp139-Ltmp138
	.uleb128 Ltmp154-Lfunc_begin11
	.byte	0
	.uleb128 Ltmp139-Lfunc_begin11
	.uleb128 Ltmp152-Ltmp139
	.byte	0
	.byte	0
	.uleb128 Ltmp152-Lfunc_begin11
	.uleb128 Ltmp153-Ltmp152
	.uleb128 Ltmp154-Lfunc_begin11
	.byte	0
	.uleb128 Ltmp142-Lfunc_begin11
	.uleb128 Ltmp143-Ltmp142
	.uleb128 Ltmp146-Lfunc_begin11
	.byte	0
	.uleb128 Ltmp147-Lfunc_begin11
	.uleb128 Ltmp148-Ltmp147
	.uleb128 Ltmp154-Lfunc_begin11
	.byte	0
	.uleb128 Ltmp144-Lfunc_begin11
	.uleb128 Ltmp145-Ltmp144
	.uleb128 Ltmp146-Lfunc_begin11
	.byte	0
	.uleb128 Ltmp149-Lfunc_begin11
	.uleb128 Ltmp150-Ltmp149
	.uleb128 Ltmp151-Lfunc_begin11
	.byte	0
	.uleb128 Ltmp150-Lfunc_begin11
	.uleb128 Lfunc_end11-Ltmp150
	.byte	0
	.byte	0
Lcst_end11:
	.p2align	2

	.section	__TEXT,__text,regular,pure_instructions
	.p2align	4, 0x90
__ZN12tracing_core10dispatcher13CURRENT_STATE7__getit17ha3ab9be64daae4daE:
Lfunc_begin12:
	.file	2 "/rustc/2c8cc343237b8f7d5a3c3703e3a87f2eb2c54a74/library/std/src/thread" "local.rs"
	.loc	2 319 0
	.cfi_startproc
	pushq	%rbp
	.cfi_def_cfa_offset 16
	.cfi_offset %rbp, -16
	movq	%rsp, %rbp
	.cfi_def_cfa_register %rbp
	subq	$16, %rsp
	movq	%rdi, -8(%rbp)
Ltmp160:
	.loc	2 346 31 prologue_end
	movq	%rdi, -16(%rbp)
	.loc	2 346 21 is_stmt 0
	movq	-16(%rbp), %rsi
	movq	__ZN12tracing_core10dispatcher13CURRENT_STATE7__getit5__KEY17hb5f0a5ba52c2b89bE@TLVP(%rip), %rdi
	callq	*(%rdi)
	movq	%rax, %rdi
	callq	__ZN3std6thread5local4fast12Key$LT$T$GT$3get17h180fc9cb32c5b4c4E
	.loc	2 357 14 is_stmt 1
	addq	$16, %rsp
	popq	%rbp
	retq
Ltmp161:
Lfunc_end12:
	.cfi_endproc

	.p2align	4, 0x90
__ZN12tracing_core10dispatcher5State5enter17h470ef05cddae4d13E:
Lfunc_begin13:
	.loc	1 799 0
	.cfi_startproc
	pushq	%rbp
	.cfi_def_cfa_offset 16
	.cfi_offset %rbp, -16
	movq	%rsp, %rbp
	.cfi_def_cfa_register %rbp
	subq	$32, %rsp
	movq	%rdi, -32(%rbp)
	movq	%rdi, -8(%rbp)
Ltmp162:
	.loc	1 800 12 prologue_end
	addq	$24, %rdi
	xorl	%esi, %esi
	callq	__ZN4core4cell13Cell$LT$T$GT$7replace17h95969a738cdeaffeE
	testb	$1, %al
	jne	LBB13_2
	.loc	1 803 13
	movq	$0, -24(%rbp)
	.loc	1 800 9
	jmp	LBB13_3
LBB13_2:
	.loc	1 0 9 is_stmt 0
	movq	-32(%rbp), %rax
	.loc	1 801 18 is_stmt 1
	movq	%rax, -16(%rbp)
	.loc	1 801 13 is_stmt 0
	movq	-16(%rbp), %rax
	movq	%rax, -24(%rbp)
LBB13_3:
	.loc	1 805 6 is_stmt 1
	movq	-24(%rbp), %rax
	addq	$32, %rsp
	popq	%rbp
	retq
Ltmp163:
Lfunc_end13:
	.cfi_endproc

	.p2align	4, 0x90
__ZN12tracing_core10dispatcher7Entered7current17h7a8e32eae5712337E:
Lfunc_begin14:
	.loc	1 813 0
	.cfi_startproc
	pushq	%rbp
	.cfi_def_cfa_offset 16
	.cfi_offset %rbp, -16
	movq	%rsp, %rbp
	.cfi_def_cfa_register %rbp
	subq	$32, %rsp
	movq	%rdi, -24(%rbp)
Ltmp164:
	.loc	1 814 23 prologue_end
	movq	(%rdi), %rdi
	leaq	l___unnamed_15(%rip), %rsi
	callq	__ZN4core4cell16RefCell$LT$T$GT$10borrow_mut17h4fe66fbb0d30240aE
	movq	%rax, %rdi
	movq	%rdx, %rsi
	movq	%rdi, -16(%rbp)
	movq	%rsi, -8(%rbp)
Ltmp165:
	.loc	1 815 9
	callq	__ZN4core4cell15RefMut$LT$T$GT$3map17hcc753378c97602ebE
Ltmp166:
	.loc	1 818 6
	addq	$32, %rsp
	popq	%rbp
	retq
Ltmp167:
Lfunc_end14:
	.cfi_endproc

	.p2align	4, 0x90
__ZN12tracing_core10dispatcher8Dispatch10clone_span17h46d9bdca7827a9a1E:
Lfunc_begin15:
	.loc	1 627 0
	.cfi_startproc
	pushq	%rbp
	.cfi_def_cfa_offset 16
	.cfi_offset %rbp, -16
	movq	%rsp, %rbp
	.cfi_def_cfa_register %rbp
	subq	$16, %rsp
	movq	%rdi, -16(%rbp)
	movq	%rsi, -8(%rbp)
Ltmp168:
	.loc	1 628 9 prologue_end
	callq	__ZN82_$LT$alloc..sync..Arc$LT$S$GT$$u20$as$u20$tracing_core..subscriber..Subscriber$GT$10clone_span17hb90a9c36503ff9f8E
	.loc	1 629 6
	addq	$16, %rsp
	popq	%rbp
	retq
Ltmp169:
Lfunc_end15:
	.cfi_endproc

	.p2align	4, 0x90
__ZN12tracing_core10dispatcher8Dispatch12current_span17h5639495edec3b13bE:
Lfunc_begin16:
	.loc	1 686 0
	.cfi_startproc
	pushq	%rbp
	.cfi_def_cfa_offset 16
	.cfi_offset %rbp, -16
	movq	%rsp, %rbp
	.cfi_def_cfa_register %rbp
	subq	$16, %rsp
	movq	%rdi, %rax
	movq	%rax, -16(%rbp)
	movq	%rsi, -8(%rbp)
Ltmp170:
	.loc	1 687 9 prologue_end
	callq	__ZN82_$LT$alloc..sync..Arc$LT$S$GT$$u20$as$u20$tracing_core..subscriber..Subscriber$GT$12current_span17h4844b69102b0fb21E
	movq	-16(%rbp), %rax
	.loc	1 688 6
	addq	$16, %rsp
	popq	%rbp
	retq
Ltmp171:
Lfunc_end16:
	.cfi_endproc

	.p2align	4, 0x90
__ZN12tracing_core10dispatcher8Dispatch19record_follows_from17h99d619fa61d9d8efE:
Lfunc_begin17:
	.loc	1 557 0
	.cfi_startproc
	pushq	%rbp
	.cfi_def_cfa_offset 16
	.cfi_offset %rbp, -16
	movq	%rsp, %rbp
	.cfi_def_cfa_register %rbp
	subq	$32, %rsp
	movq	%rdi, -24(%rbp)
	movq	%rsi, -16(%rbp)
	movq	%rdx, -8(%rbp)
Ltmp172:
	.loc	1 558 9 prologue_end
	callq	__ZN82_$LT$alloc..sync..Arc$LT$S$GT$$u20$as$u20$tracing_core..subscriber..Subscriber$GT$19record_follows_from17h4b225474881c9304E
	.loc	1 559 6
	addq	$32, %rsp
	popq	%rbp
	retq
Ltmp173:
Lfunc_end17:
	.cfi_endproc

	.p2align	4, 0x90
__ZN12tracing_core10dispatcher8Dispatch4none17hc280d07a7675ef21E:
Lfunc_begin18:
	.loc	1 442 0
	.cfi_startproc
	pushq	%rbp
	.cfi_def_cfa_offset 16
	.cfi_offset %rbp, -16
	movq	%rsp, %rbp
	.cfi_def_cfa_register %rbp
	subq	$16, %rsp
Ltmp174:
	.loc	1 444 34 prologue_end
	callq	__ZN81_$LT$tracing_core..subscriber..NoSubscriber$u20$as$u20$core..default..Default$GT$7default17hab2629b4f3dbcebeE
	.loc	1 444 25 is_stmt 0
	callq	__ZN5alloc4sync12Arc$LT$T$GT$3new17h55de46aa68cccaecE
	.loc	1 443 9 is_stmt 1
	movq	%rax, -16(%rbp)
	leaq	l___unnamed_1(%rip), %rax
	movq	%rax, -8(%rbp)
	.loc	1 446 6
	movq	-16(%rbp), %rax
	movq	-8(%rbp), %rdx
	addq	$16, %rsp
	popq	%rbp
	retq
Ltmp175:
Lfunc_end18:
	.cfi_endproc

	.p2align	4, 0x90
__ZN12tracing_core10dispatcher8Dispatch6record17h267a77c374dfd0cbE:
Lfunc_begin19:
	.loc	1 544 0
	.cfi_startproc
	pushq	%rbp
	.cfi_def_cfa_offset 16
	.cfi_offset %rbp, -16
	movq	%rsp, %rbp
	.cfi_def_cfa_register %rbp
	subq	$32, %rsp
	movq	%rdi, -24(%rbp)
	movq	%rsi, -16(%rbp)
	movq	%rdx, -8(%rbp)
Ltmp176:
	.loc	1 545 9 prologue_end
	callq	__ZN82_$LT$alloc..sync..Arc$LT$S$GT$$u20$as$u20$tracing_core..subscriber..Subscriber$GT$6record17ha5c55e13f9cb9323E
	.loc	1 546 6
	addq	$32, %rsp
	popq	%rbp
	retq
Ltmp177:
Lfunc_end19:
	.cfi_endproc

	.p2align	4, 0x90
__ZN12tracing_core10dispatcher8Dispatch7enabled17h9271d331b6a92b97E:
Lfunc_begin20:
	.loc	1 571 0
	.cfi_startproc
	pushq	%rbp
	.cfi_def_cfa_offset 16
	.cfi_offset %rbp, -16
	movq	%rsp, %rbp
	.cfi_def_cfa_register %rbp
	subq	$16, %rsp
	movq	%rdi, -16(%rbp)
	movq	%rsi, -8(%rbp)
Ltmp178:
	.loc	1 572 9 prologue_end
	callq	__ZN82_$LT$alloc..sync..Arc$LT$S$GT$$u20$as$u20$tracing_core..subscriber..Subscriber$GT$7enabled17h1697fce694c12f96E
	.loc	1 573 6
	andb	$1, %al
	movzbl	%al, %eax
	addq	$16, %rsp
	popq	%rbp
	retq
Ltmp179:
Lfunc_end20:
	.cfi_endproc

	.p2align	4, 0x90
__ZN12tracing_core10dispatcher8Dispatch8new_span17h22b8497eb6f443c1E:
Lfunc_begin21:
	.loc	1 532 0
	.cfi_startproc
	pushq	%rbp
	.cfi_def_cfa_offset 16
	.cfi_offset %rbp, -16
	movq	%rsp, %rbp
	.cfi_def_cfa_register %rbp
	subq	$16, %rsp
	movq	%rdi, -16(%rbp)
	movq	%rsi, -8(%rbp)
Ltmp180:
	.loc	1 533 9 prologue_end
	callq	__ZN82_$LT$alloc..sync..Arc$LT$S$GT$$u20$as$u20$tracing_core..subscriber..Subscriber$GT$8new_span17hab3cfdb80091b6f6E
	.loc	1 534 6
	addq	$16, %rsp
	popq	%rbp
	retq
Ltmp181:
Lfunc_end21:
	.cfi_endproc

	.p2align	4, 0x90
__ZN12tracing_core10subscriber8Interest5never17ha30561e0918b1801E:
Lfunc_begin22:
	.file	3 "/Users/natalie/.cargo/registry/src/github.com-1ecc6299db9ec823/tracing-core-0.1.30/src" "subscriber.rs"
	.loc	3 608 0
	.cfi_startproc
	pushq	%rbp
	.cfi_def_cfa_offset 16
	.cfi_offset %rbp, -16
	movq	%rsp, %rbp
	.cfi_def_cfa_register %rbp
	subq	$1, %rsp
Ltmp182:
	.loc	3 609 9 prologue_end
	movb	$0, -1(%rbp)
	.loc	3 610 6
	movb	-1(%rbp), %al
	addq	$1, %rsp
	popq	%rbp
	retq
Ltmp183:
Lfunc_end22:
	.cfi_endproc

	.p2align	4, 0x90
__ZN12tracing_core10subscriber8Interest9is_always17ha20a99b0f26f552dE:
Lfunc_begin23:
	.loc	3 651 0
	.cfi_startproc
	pushq	%rbp
	.cfi_def_cfa_offset 16
	.cfi_offset %rbp, -16
	movq	%rsp, %rbp
	.cfi_def_cfa_register %rbp
	subq	$16, %rsp
	movq	%rdi, -8(%rbp)
Ltmp184:
	.loc	3 652 18 prologue_end
	movzbl	(%rdi), %eax
	.loc	3 652 9 is_stmt 0
	cmpq	$2, %rax
	jne	LBB23_2
	movb	$1, -9(%rbp)
	jmp	LBB23_3
LBB23_2:
	movb	$0, -9(%rbp)
LBB23_3:
	.loc	3 653 6 is_stmt 1
	movb	-9(%rbp), %al
	andb	$1, %al
	movzbl	%al, %eax
	addq	$16, %rsp
	popq	%rbp
	retq
Ltmp185:
Lfunc_end23:
	.cfi_endproc

	.p2align	4, 0x90
__ZN12tracing_core8metadata8Metadata8callsite17h1b4f9753de5e7fcbE:
Lfunc_begin24:
	.file	4 "/Users/natalie/.cargo/registry/src/github.com-1ecc6299db9ec823/tracing-core-0.1.30/src" "metadata.rs"
	.loc	4 320 0
	.cfi_startproc
	pushq	%rbp
	.cfi_def_cfa_offset 16
	.cfi_offset %rbp, -16
	movq	%rsp, %rbp
	.cfi_def_cfa_register %rbp
	subq	$16, %rsp
	movq	%rdi, -8(%rbp)
Ltmp186:
	.loc	4 321 9 prologue_end
	callq	__ZN12tracing_core5field8FieldSet8callsite17ha7fcebf90ba4ec24E
	.loc	4 322 6
	addq	$16, %rsp
	popq	%rbp
	retq
Ltmp187:
Lfunc_end24:
	.cfi_endproc

	.globl	__ZN3std6thread5local17LocalKey$LT$T$GT$8try_with17h3e1132c4e867d987E
	.p2align	4, 0x90
__ZN3std6thread5local17LocalKey$LT$T$GT$8try_with17h3e1132c4e867d987E:
Lfunc_begin25:
	.loc	2 440 0
	.cfi_startproc
	.cfi_personality 155, _rust_eh_personality
	.cfi_lsda 16, Lexception12
	pushq	%rbp
	.cfi_def_cfa_offset 16
	.cfi_offset %rbp, -16
	movq	%rsp, %rbp
	.cfi_def_cfa_register %rbp
	subq	$224, %rsp
	movq	%rdx, -224(%rbp)
	movq	%rdi, -216(%rbp)
	movq	%rdi, -208(%rbp)
	movq	%rsi, -112(%rbp)
	movq	%rdx, -104(%rbp)
Ltmp193:
	.loc	2 445 17 prologue_end
	movb	$1, -113(%rbp)
	.loc	2 445 32 is_stmt 0
	movq	(%rsi), %rax
	.loc	2 445 45
	movq	$0, -168(%rbp)
	.loc	2 445 32
	movq	-168(%rbp), %rdi
Ltmp188:
	callq	*%rax
Ltmp189:
	movq	%rax, -200(%rbp)
	jmp	LBB25_3
LBB25_1:
	.loc	2 448 5 is_stmt 1
	testb	$1, -113(%rbp)
	jne	LBB25_15
	jmp	LBB25_14
LBB25_2:
Ltmp192:
	.loc	2 0 5 is_stmt 0
	movq	%rax, %rcx
	movl	%edx, %eax
	movq	%rcx, -48(%rbp)
	movl	%eax, -40(%rbp)
	jmp	LBB25_1
LBB25_3:
	movq	-200(%rbp), %rax
	.loc	2 445 32 is_stmt 1
	movq	%rax, -176(%rbp)
Ltmp194:
	.file	5 "/rustc/2c8cc343237b8f7d5a3c3703e3a87f2eb2c54a74/library/core/src" "option.rs"
	.loc	5 1096 15
	movq	-176(%rbp), %rdx
	movl	$1, %eax
	xorl	%ecx, %ecx
	cmpq	$0, %rdx
	cmoveq	%rcx, %rax
	.loc	5 1096 9 is_stmt 0
	cmpq	$0, %rax
	jne	LBB25_5
	.loc	5 1098 21 is_stmt 1
	movq	$0, -184(%rbp)
	.loc	5 1098 28 is_stmt 0
	jmp	LBB25_6
LBB25_5:
	.loc	5 1097 18 is_stmt 1
	movq	-176(%rbp), %rax
	movq	%rax, -32(%rbp)
Ltmp195:
	.loc	5 1097 24 is_stmt 0
	movq	%rax, -184(%rbp)
Ltmp196:
LBB25_6:
	.file	6 "/rustc/2c8cc343237b8f7d5a3c3703e3a87f2eb2c54a74/library/core/src" "result.rs"
	.loc	6 2091 15 is_stmt 1
	movq	-184(%rbp), %rdx
	xorl	%eax, %eax
	movl	$1, %ecx
	cmpq	$0, %rdx
	cmoveq	%rcx, %rax
	.loc	6 2091 9 is_stmt 0
	cmpq	$0, %rax
	jne	LBB25_8
	.loc	6 2092 16 is_stmt 1
	movq	-184(%rbp), %rax
	movq	%rax, -24(%rbp)
Ltmp197:
	.loc	6 2092 22 is_stmt 0
	movq	%rax, -192(%rbp)
Ltmp198:
	.loc	6 2092 45
	jmp	LBB25_9
LBB25_8:
Ltmp199:
	.loc	6 2093 23 is_stmt 1
	movq	$0, -192(%rbp)
Ltmp200:
LBB25_9:
	.loc	2 445 32
	movq	-192(%rbp), %rdx
	xorl	%eax, %eax
	movl	$1, %ecx
	cmpq	$0, %rdx
	cmoveq	%rcx, %rax
	cmpq	$0, %rax
	jne	LBB25_11
	.loc	2 0 32 is_stmt 0
	movq	-224(%rbp), %rsi
	.loc	2 445 32
	movq	-192(%rbp), %rax
	movq	%rax, -16(%rbp)
Ltmp201:
	.loc	2 445 32
	movq	%rax, -8(%rbp)
Ltmp202:
	.loc	2 446 16 is_stmt 1
	movb	$0, -113(%rbp)
	movq	%rax, -128(%rbp)
	movq	-128(%rbp), %rdx
Ltmp190:
	leaq	-160(%rbp), %rdi
	callq	__ZN12tracing_core10dispatcher11get_default28_$u7b$$u7b$closure$u7d$$u7d$17h8a727db3fe32bf10E
Ltmp191:
	jmp	LBB25_13
Ltmp203:
LBB25_11:
	.loc	2 0 16 is_stmt 0
	movq	-216(%rbp), %rax
Ltmp204:
	.loc	6 2107 23 is_stmt 1
	movq	$1, (%rax)
Ltmp205:
LBB25_12:
	.loc	6 0 23 is_stmt 0
	movq	-208(%rbp), %rax
	.loc	2 448 6 is_stmt 1
	addq	$224, %rsp
	popq	%rbp
	retq
LBB25_13:
	.loc	2 0 6 is_stmt 0
	movq	-216(%rbp), %rax
Ltmp206:
	.loc	2 446 13 is_stmt 1
	movq	-160(%rbp), %rcx
	movq	%rcx, 8(%rax)
	movq	-152(%rbp), %rcx
	movq	%rcx, 16(%rax)
	movq	-144(%rbp), %rcx
	movq	%rcx, 24(%rax)
	movq	-136(%rbp), %rcx
	movq	%rcx, 32(%rax)
	movq	$0, (%rax)
Ltmp207:
	.loc	2 448 5
	jmp	LBB25_12
LBB25_14:
	.loc	2 440 5
	movq	-48(%rbp), %rdi
	callq	__Unwind_Resume
LBB25_15:
	.loc	2 448 5
	jmp	LBB25_14
Ltmp208:
Lfunc_end25:
	.cfi_endproc
	.section	__TEXT,__gcc_except_tab
	.p2align	2
GCC_except_table25:
Lexception12:
	.byte	255
	.byte	255
	.byte	1
	.uleb128 Lcst_end12-Lcst_begin12
Lcst_begin12:
	.uleb128 Ltmp188-Lfunc_begin25
	.uleb128 Ltmp191-Ltmp188
	.uleb128 Ltmp192-Lfunc_begin25
	.byte	0
	.uleb128 Ltmp191-Lfunc_begin25
	.uleb128 Lfunc_end25-Ltmp191
	.byte	0
	.byte	0
Lcst_end12:
	.p2align	2

	.section	__TEXT,__text,regular,pure_instructions
	.globl	__ZN3std6thread5local17LocalKey$LT$T$GT$8try_with17hca571841213a81f0E
	.p2align	4, 0x90
__ZN3std6thread5local17LocalKey$LT$T$GT$8try_with17hca571841213a81f0E:
Lfunc_begin26:
	.loc	2 440 0
	.cfi_startproc
	.cfi_personality 155, _rust_eh_personality
	.cfi_lsda 16, Lexception13
	pushq	%rbp
	.cfi_def_cfa_offset 16
	.cfi_offset %rbp, -16
	movq	%rsp, %rbp
	.cfi_def_cfa_register %rbp
	subq	$224, %rsp
	movq	%rdx, -224(%rbp)
	movq	%rdi, -216(%rbp)
	movq	%rdi, -208(%rbp)
	movq	%rsi, -112(%rbp)
	movq	%rdx, -104(%rbp)
Ltmp214:
	.loc	2 445 17 prologue_end
	movb	$1, -113(%rbp)
	.loc	2 445 32 is_stmt 0
	movq	(%rsi), %rax
	.loc	2 445 45
	movq	$0, -168(%rbp)
	.loc	2 445 32
	movq	-168(%rbp), %rdi
Ltmp209:
	callq	*%rax
Ltmp210:
	movq	%rax, -200(%rbp)
	jmp	LBB26_3
LBB26_1:
	.loc	2 448 5 is_stmt 1
	testb	$1, -113(%rbp)
	jne	LBB26_15
	jmp	LBB26_14
LBB26_2:
Ltmp213:
	.loc	2 0 5 is_stmt 0
	movq	%rax, %rcx
	movl	%edx, %eax
	movq	%rcx, -48(%rbp)
	movl	%eax, -40(%rbp)
	jmp	LBB26_1
LBB26_3:
	movq	-200(%rbp), %rax
	.loc	2 445 32 is_stmt 1
	movq	%rax, -176(%rbp)
Ltmp215:
	.loc	5 1096 15
	movq	-176(%rbp), %rdx
	movl	$1, %eax
	xorl	%ecx, %ecx
	cmpq	$0, %rdx
	cmoveq	%rcx, %rax
	.loc	5 1096 9 is_stmt 0
	cmpq	$0, %rax
	jne	LBB26_5
	.loc	5 1098 21 is_stmt 1
	movq	$0, -184(%rbp)
	.loc	5 1098 28 is_stmt 0
	jmp	LBB26_6
LBB26_5:
	.loc	5 1097 18 is_stmt 1
	movq	-176(%rbp), %rax
	movq	%rax, -32(%rbp)
Ltmp216:
	.loc	5 1097 24 is_stmt 0
	movq	%rax, -184(%rbp)
Ltmp217:
LBB26_6:
	.loc	6 2091 15 is_stmt 1
	movq	-184(%rbp), %rdx
	xorl	%eax, %eax
	movl	$1, %ecx
	cmpq	$0, %rdx
	cmoveq	%rcx, %rax
	.loc	6 2091 9 is_stmt 0
	cmpq	$0, %rax
	jne	LBB26_8
	.loc	6 2092 16 is_stmt 1
	movq	-184(%rbp), %rax
	movq	%rax, -24(%rbp)
Ltmp218:
	.loc	6 2092 22 is_stmt 0
	movq	%rax, -192(%rbp)
Ltmp219:
	.loc	6 2092 45
	jmp	LBB26_9
LBB26_8:
Ltmp220:
	.loc	6 2093 23 is_stmt 1
	movq	$0, -192(%rbp)
Ltmp221:
LBB26_9:
	.loc	2 445 32
	movq	-192(%rbp), %rdx
	xorl	%eax, %eax
	movl	$1, %ecx
	cmpq	$0, %rdx
	cmoveq	%rcx, %rax
	cmpq	$0, %rax
	jne	LBB26_11
	.loc	2 0 32 is_stmt 0
	movq	-224(%rbp), %rsi
	.loc	2 445 32
	movq	-192(%rbp), %rax
	movq	%rax, -16(%rbp)
Ltmp222:
	.loc	2 445 32
	movq	%rax, -8(%rbp)
Ltmp223:
	.loc	2 446 16 is_stmt 1
	movb	$0, -113(%rbp)
	movq	%rax, -128(%rbp)
	movq	-128(%rbp), %rdx
Ltmp211:
	leaq	-160(%rbp), %rdi
	callq	__ZN12tracing_core10dispatcher11get_default28_$u7b$$u7b$closure$u7d$$u7d$17hb8d5efbba501582bE
Ltmp212:
	jmp	LBB26_13
Ltmp224:
LBB26_11:
	.loc	2 0 16 is_stmt 0
	movq	-216(%rbp), %rax
Ltmp225:
	.loc	6 2107 23 is_stmt 1
	movq	$1, (%rax)
Ltmp226:
LBB26_12:
	.loc	6 0 23 is_stmt 0
	movq	-208(%rbp), %rax
	.loc	2 448 6 is_stmt 1
	addq	$224, %rsp
	popq	%rbp
	retq
LBB26_13:
	.loc	2 0 6 is_stmt 0
	movq	-216(%rbp), %rax
Ltmp227:
	.loc	2 446 13 is_stmt 1
	movq	-160(%rbp), %rcx
	movq	%rcx, 8(%rax)
	movq	-152(%rbp), %rcx
	movq	%rcx, 16(%rax)
	movq	-144(%rbp), %rcx
	movq	%rcx, 24(%rax)
	movq	-136(%rbp), %rcx
	movq	%rcx, 32(%rax)
	movq	$0, (%rax)
Ltmp228:
	.loc	2 448 5
	jmp	LBB26_12
LBB26_14:
	.loc	2 440 5
	movq	-48(%rbp), %rdi
	callq	__Unwind_Resume
LBB26_15:
	.loc	2 448 5
	jmp	LBB26_14
Ltmp229:
Lfunc_end26:
	.cfi_endproc
	.section	__TEXT,__gcc_except_tab
	.p2align	2
GCC_except_table26:
Lexception13:
	.byte	255
	.byte	255
	.byte	1
	.uleb128 Lcst_end13-Lcst_begin13
Lcst_begin13:
	.uleb128 Ltmp209-Lfunc_begin26
	.uleb128 Ltmp212-Ltmp209
	.uleb128 Ltmp213-Lfunc_begin26
	.byte	0
	.uleb128 Ltmp212-Lfunc_begin26
	.uleb128 Lfunc_end26-Ltmp212
	.byte	0
	.byte	0
Lcst_end13:
	.p2align	2

	.section	__TEXT,__text,regular,pure_instructions
	.globl	__ZN3std6thread5local17LocalKey$LT$T$GT$8try_with17he3d56e5bee5b6229E
	.p2align	4, 0x90
__ZN3std6thread5local17LocalKey$LT$T$GT$8try_with17he3d56e5bee5b6229E:
Lfunc_begin27:
	.loc	2 440 0
	.cfi_startproc
	.cfi_personality 155, _rust_eh_personality
	.cfi_lsda 16, Lexception14
	pushq	%rbp
	.cfi_def_cfa_offset 16
	.cfi_offset %rbp, -16
	movq	%rsp, %rbp
	.cfi_def_cfa_register %rbp
	subq	$192, %rsp
	movq	%rsi, -184(%rbp)
	movq	%rdi, -112(%rbp)
	movq	%rsi, -104(%rbp)
Ltmp235:
	.loc	2 445 17 prologue_end
	movb	$1, -113(%rbp)
	.loc	2 445 32 is_stmt 0
	movq	(%rdi), %rax
	.loc	2 445 45
	movq	$0, -136(%rbp)
	.loc	2 445 32
	movq	-136(%rbp), %rdi
Ltmp230:
	callq	*%rax
Ltmp231:
	movq	%rax, -176(%rbp)
	jmp	LBB27_3
LBB27_1:
	.loc	2 448 5 is_stmt 1
	testb	$1, -113(%rbp)
	jne	LBB27_15
	jmp	LBB27_14
LBB27_2:
Ltmp234:
	.loc	2 0 5 is_stmt 0
	movq	%rax, %rcx
	movl	%edx, %eax
	movq	%rcx, -48(%rbp)
	movl	%eax, -40(%rbp)
	jmp	LBB27_1
LBB27_3:
	movq	-176(%rbp), %rax
	.loc	2 445 32 is_stmt 1
	movq	%rax, -144(%rbp)
Ltmp236:
	.loc	5 1096 15
	movq	-144(%rbp), %rdx
	movl	$1, %eax
	xorl	%ecx, %ecx
	cmpq	$0, %rdx
	cmoveq	%rcx, %rax
	.loc	5 1096 9 is_stmt 0
	cmpq	$0, %rax
	jne	LBB27_5
	.loc	5 1098 21 is_stmt 1
	movq	$0, -152(%rbp)
	.loc	5 1098 28 is_stmt 0
	jmp	LBB27_6
LBB27_5:
	.loc	5 1097 18 is_stmt 1
	movq	-144(%rbp), %rax
	movq	%rax, -32(%rbp)
Ltmp237:
	.loc	5 1097 24 is_stmt 0
	movq	%rax, -152(%rbp)
Ltmp238:
LBB27_6:
	.loc	6 2091 15 is_stmt 1
	movq	-152(%rbp), %rdx
	xorl	%eax, %eax
	movl	$1, %ecx
	cmpq	$0, %rdx
	cmoveq	%rcx, %rax
	.loc	6 2091 9 is_stmt 0
	cmpq	$0, %rax
	jne	LBB27_8
	.loc	6 2092 16 is_stmt 1
	movq	-152(%rbp), %rax
	movq	%rax, -24(%rbp)
Ltmp239:
	.loc	6 2092 22 is_stmt 0
	movq	%rax, -160(%rbp)
Ltmp240:
	.loc	6 2092 45
	jmp	LBB27_9
LBB27_8:
Ltmp241:
	.loc	6 2093 23 is_stmt 1
	movq	$0, -160(%rbp)
Ltmp242:
LBB27_9:
	.loc	2 445 32
	movq	-160(%rbp), %rdx
	xorl	%eax, %eax
	movl	$1, %ecx
	cmpq	$0, %rdx
	cmoveq	%rcx, %rax
	cmpq	$0, %rax
	jne	LBB27_11
	.loc	2 0 32 is_stmt 0
	movq	-184(%rbp), %rdi
	.loc	2 445 32
	movq	-160(%rbp), %rax
	movq	%rax, -16(%rbp)
Ltmp243:
	.loc	2 445 32
	movq	%rax, -8(%rbp)
Ltmp244:
	.loc	2 446 16 is_stmt 1
	movb	$0, -113(%rbp)
	movq	%rax, -128(%rbp)
	movq	-128(%rbp), %rsi
Ltmp232:
	callq	__ZN12tracing_core10dispatcher11get_default28_$u7b$$u7b$closure$u7d$$u7d$17hdd31223283f5825fE
Ltmp233:
	movb	%al, -185(%rbp)
	jmp	LBB27_13
Ltmp245:
LBB27_11:
	.loc	6 2107 23
	movb	$2, -161(%rbp)
Ltmp246:
LBB27_12:
	.loc	2 448 6
	movb	-161(%rbp), %al
	addq	$192, %rsp
	popq	%rbp
	retq
LBB27_13:
	.loc	2 0 6 is_stmt 0
	movb	-185(%rbp), %al
Ltmp247:
	.loc	2 446 13 is_stmt 1
	andb	$1, %al
	movb	%al, -161(%rbp)
Ltmp248:
	.loc	2 448 5
	jmp	LBB27_12
LBB27_14:
	.loc	2 440 5
	movq	-48(%rbp), %rdi
	callq	__Unwind_Resume
LBB27_15:
	.loc	2 448 5
	jmp	LBB27_14
Ltmp249:
Lfunc_end27:
	.cfi_endproc
	.section	__TEXT,__gcc_except_tab
	.p2align	2
GCC_except_table27:
Lexception14:
	.byte	255
	.byte	255
	.byte	1
	.uleb128 Lcst_end14-Lcst_begin14
Lcst_begin14:
	.uleb128 Ltmp230-Lfunc_begin27
	.uleb128 Ltmp233-Ltmp230
	.uleb128 Ltmp234-Lfunc_begin27
	.byte	0
	.uleb128 Ltmp233-Lfunc_begin27
	.uleb128 Lfunc_end27-Ltmp233
	.byte	0
	.byte	0
Lcst_end14:
	.p2align	2

	.section	__TEXT,__text,regular,pure_instructions
	.globl	__ZN3std6thread5local17LocalKey$LT$T$GT$8try_with17hf01a870146b316c5E
	.p2align	4, 0x90
__ZN3std6thread5local17LocalKey$LT$T$GT$8try_with17hf01a870146b316c5E:
Lfunc_begin28:
	.loc	2 440 0
	.cfi_startproc
	.cfi_personality 155, _rust_eh_personality
	.cfi_lsda 16, Lexception15
	pushq	%rbp
	.cfi_def_cfa_offset 16
	.cfi_offset %rbp, -16
	movq	%rsp, %rbp
	.cfi_def_cfa_register %rbp
	subq	$224, %rsp
	movq	%rdx, -224(%rbp)
	movq	%rdi, -216(%rbp)
	movq	%rdi, -208(%rbp)
	movq	%rsi, -112(%rbp)
	movq	%rdx, -104(%rbp)
Ltmp255:
	.loc	2 445 17 prologue_end
	movb	$1, -113(%rbp)
	.loc	2 445 32 is_stmt 0
	movq	(%rsi), %rax
	.loc	2 445 45
	movq	$0, -168(%rbp)
	.loc	2 445 32
	movq	-168(%rbp), %rdi
Ltmp250:
	callq	*%rax
Ltmp251:
	movq	%rax, -200(%rbp)
	jmp	LBB28_3
LBB28_1:
	.loc	2 448 5 is_stmt 1
	testb	$1, -113(%rbp)
	jne	LBB28_15
	jmp	LBB28_14
LBB28_2:
Ltmp254:
	.loc	2 0 5 is_stmt 0
	movq	%rax, %rcx
	movl	%edx, %eax
	movq	%rcx, -48(%rbp)
	movl	%eax, -40(%rbp)
	jmp	LBB28_1
LBB28_3:
	movq	-200(%rbp), %rax
	.loc	2 445 32 is_stmt 1
	movq	%rax, -176(%rbp)
Ltmp256:
	.loc	5 1096 15
	movq	-176(%rbp), %rdx
	movl	$1, %eax
	xorl	%ecx, %ecx
	cmpq	$0, %rdx
	cmoveq	%rcx, %rax
	.loc	5 1096 9 is_stmt 0
	cmpq	$0, %rax
	jne	LBB28_5
	.loc	5 1098 21 is_stmt 1
	movq	$0, -184(%rbp)
	.loc	5 1098 28 is_stmt 0
	jmp	LBB28_6
LBB28_5:
	.loc	5 1097 18 is_stmt 1
	movq	-176(%rbp), %rax
	movq	%rax, -32(%rbp)
Ltmp257:
	.loc	5 1097 24 is_stmt 0
	movq	%rax, -184(%rbp)
Ltmp258:
LBB28_6:
	.loc	6 2091 15 is_stmt 1
	movq	-184(%rbp), %rdx
	xorl	%eax, %eax
	movl	$1, %ecx
	cmpq	$0, %rdx
	cmoveq	%rcx, %rax
	.loc	6 2091 9 is_stmt 0
	cmpq	$0, %rax
	jne	LBB28_8
	.loc	6 2092 16 is_stmt 1
	movq	-184(%rbp), %rax
	movq	%rax, -24(%rbp)
Ltmp259:
	.loc	6 2092 22 is_stmt 0
	movq	%rax, -192(%rbp)
Ltmp260:
	.loc	6 2092 45
	jmp	LBB28_9
LBB28_8:
Ltmp261:
	.loc	6 2093 23 is_stmt 1
	movq	$0, -192(%rbp)
Ltmp262:
LBB28_9:
	.loc	2 445 32
	movq	-192(%rbp), %rdx
	xorl	%eax, %eax
	movl	$1, %ecx
	cmpq	$0, %rdx
	cmoveq	%rcx, %rax
	cmpq	$0, %rax
	jne	LBB28_11
	.loc	2 0 32 is_stmt 0
	movq	-224(%rbp), %rsi
	.loc	2 445 32
	movq	-192(%rbp), %rax
	movq	%rax, -16(%rbp)
Ltmp263:
	.loc	2 445 32
	movq	%rax, -8(%rbp)
Ltmp264:
	.loc	2 446 16 is_stmt 1
	movb	$0, -113(%rbp)
	movq	%rax, -128(%rbp)
	movq	-128(%rbp), %rdx
Ltmp252:
	leaq	-160(%rbp), %rdi
	callq	__ZN12tracing_core10dispatcher11get_default28_$u7b$$u7b$closure$u7d$$u7d$17ha2e4d450d31ebbe5E
Ltmp253:
	jmp	LBB28_13
Ltmp265:
LBB28_11:
	.loc	2 0 16 is_stmt 0
	movq	-216(%rbp), %rax
Ltmp266:
	.loc	6 2107 23 is_stmt 1
	movq	$1, (%rax)
Ltmp267:
LBB28_12:
	.loc	6 0 23 is_stmt 0
	movq	-208(%rbp), %rax
	.loc	2 448 6 is_stmt 1
	addq	$224, %rsp
	popq	%rbp
	retq
LBB28_13:
	.loc	2 0 6 is_stmt 0
	movq	-216(%rbp), %rax
Ltmp268:
	.loc	2 446 13 is_stmt 1
	movq	-160(%rbp), %rcx
	movq	%rcx, 8(%rax)
	movq	-152(%rbp), %rcx
	movq	%rcx, 16(%rax)
	movq	-144(%rbp), %rcx
	movq	%rcx, 24(%rax)
	movq	-136(%rbp), %rcx
	movq	%rcx, 32(%rax)
	movq	$0, (%rax)
Ltmp269:
	.loc	2 448 5
	jmp	LBB28_12
LBB28_14:
	.loc	2 440 5
	movq	-48(%rbp), %rdi
	callq	__Unwind_Resume
LBB28_15:
	.loc	2 448 5
	jmp	LBB28_14
Ltmp270:
Lfunc_end28:
	.cfi_endproc
	.section	__TEXT,__gcc_except_tab
	.p2align	2
GCC_except_table28:
Lexception15:
	.byte	255
	.byte	255
	.byte	1
	.uleb128 Lcst_end15-Lcst_begin15
Lcst_begin15:
	.uleb128 Ltmp250-Lfunc_begin28
	.uleb128 Ltmp253-Ltmp250
	.uleb128 Ltmp254-Lfunc_begin28
	.byte	0
	.uleb128 Ltmp253-Lfunc_begin28
	.uleb128 Lfunc_end28-Ltmp253
	.byte	0
	.byte	0
Lcst_end15:
	.p2align	2

	.section	__TEXT,__text,regular,pure_instructions
	.p2align	4, 0x90
__ZN41_$LT$bool$u20$as$u20$core..fmt..Debug$GT$3fmt17hc0d2daa890317c8aE:
Lfunc_begin29:
	.file	7 "/rustc/2c8cc343237b8f7d5a3c3703e3a87f2eb2c54a74/library/core/src/fmt" "mod.rs"
	.loc	7 2406 0
	.cfi_startproc
	pushq	%rbp
	.cfi_def_cfa_offset 16
	.cfi_offset %rbp, -16
	movq	%rsp, %rbp
	.cfi_def_cfa_register %rbp
	subq	$16, %rsp
	movq	%rdi, -16(%rbp)
	movq	%rsi, -8(%rbp)
Ltmp271:
	.loc	7 2407 9 prologue_end
	callq	__ZN43_$LT$bool$u20$as$u20$core..fmt..Display$GT$3fmt17hcd777b7f8f92eb67E
	.loc	7 2408 6
	andb	$1, %al
	movzbl	%al, %eax
	addq	$16, %rsp
	popq	%rbp
	retq
Ltmp272:
Lfunc_end29:
	.cfi_endproc

	.globl	__ZN42_$LT$$RF$T$u20$as$u20$core..fmt..Debug$GT$3fmt17h3a2e616876b3274aE
	.p2align	4, 0x90
__ZN42_$LT$$RF$T$u20$as$u20$core..fmt..Debug$GT$3fmt17h3a2e616876b3274aE:
Lfunc_begin30:
	.loc	7 2377 0
	.cfi_startproc
	pushq	%rbp
	.cfi_def_cfa_offset 16
	.cfi_offset %rbp, -16
	movq	%rsp, %rbp
	.cfi_def_cfa_register %rbp
	subq	$16, %rsp
	movq	%rdi, -16(%rbp)
	movq	%rsi, -8(%rbp)
Ltmp273:
	.loc	7 2377 71 prologue_end
	movq	(%rdi), %rdi
	.loc	7 2377 62 is_stmt 0
	callq	__ZN66_$LT$tracing_core..metadata..Level$u20$as$u20$core..fmt..Debug$GT$3fmt17hf9611fbbfb4cefedE
	.loc	7 2377 84
	andb	$1, %al
	movzbl	%al, %eax
	addq	$16, %rsp
	popq	%rbp
	retq
Ltmp274:
Lfunc_end30:
	.cfi_endproc

	.globl	__ZN42_$LT$$RF$T$u20$as$u20$core..fmt..Debug$GT$3fmt17h7b11f970ffca6aeaE
	.p2align	4, 0x90
__ZN42_$LT$$RF$T$u20$as$u20$core..fmt..Debug$GT$3fmt17h7b11f970ffca6aeaE:
Lfunc_begin31:
	.loc	7 2377 0 is_stmt 1
	.cfi_startproc
	pushq	%rbp
	.cfi_def_cfa_offset 16
	.cfi_offset %rbp, -16
	movq	%rsp, %rbp
	.cfi_def_cfa_register %rbp
	subq	$16, %rsp
	movq	%rdi, -16(%rbp)
	movq	%rsi, -8(%rbp)
Ltmp275:
	.loc	7 2377 71 prologue_end
	movq	(%rdi), %rdi
	.loc	7 2377 62 is_stmt 0
	callq	__ZN4core3fmt3num50_$LT$impl$u20$core..fmt..Debug$u20$for$u20$u32$GT$3fmt17h5825de9042a0ad37E
	.loc	7 2377 84
	andb	$1, %al
	movzbl	%al, %eax
	addq	$16, %rsp
	popq	%rbp
	retq
Ltmp276:
Lfunc_end31:
	.cfi_endproc

	.globl	__ZN42_$LT$$RF$T$u20$as$u20$core..fmt..Debug$GT$3fmt17h9a9acd2a4c30e64eE
	.p2align	4, 0x90
__ZN42_$LT$$RF$T$u20$as$u20$core..fmt..Debug$GT$3fmt17h9a9acd2a4c30e64eE:
Lfunc_begin32:
	.loc	7 2377 0 is_stmt 1
	.cfi_startproc
	pushq	%rbp
	.cfi_def_cfa_offset 16
	.cfi_offset %rbp, -16
	movq	%rsp, %rbp
	.cfi_def_cfa_register %rbp
	subq	$16, %rsp
	movq	%rdi, -16(%rbp)
	movq	%rsi, -8(%rbp)
Ltmp277:
	.loc	7 2377 71 prologue_end
	movq	(%rdi), %rdi
	.loc	7 2377 62 is_stmt 0
	callq	__ZN56_$LT$tracing..span..Span$u20$as$u20$core..fmt..Debug$GT$3fmt17h1573a892e63b4ef5E
	.loc	7 2377 84
	andb	$1, %al
	movzbl	%al, %eax
	addq	$16, %rsp
	popq	%rbp
	retq
Ltmp278:
Lfunc_end32:
	.cfi_endproc

	.globl	__ZN42_$LT$$RF$T$u20$as$u20$core..fmt..Debug$GT$3fmt17hb465f1831e2139f9E
	.p2align	4, 0x90
__ZN42_$LT$$RF$T$u20$as$u20$core..fmt..Debug$GT$3fmt17hb465f1831e2139f9E:
Lfunc_begin33:
	.loc	7 2377 0 is_stmt 1
	.cfi_startproc
	pushq	%rbp
	.cfi_def_cfa_offset 16
	.cfi_offset %rbp, -16
	movq	%rsp, %rbp
	.cfi_def_cfa_register %rbp
	subq	$16, %rsp
	movq	%rdi, -16(%rbp)
	movq	%rsi, -8(%rbp)
Ltmp279:
	.loc	7 2377 71 prologue_end
	movq	(%rdi), %rdi
	.loc	7 2377 62 is_stmt 0
	callq	__ZN71_$LT$core..marker..PhantomData$LT$T$GT$$u20$as$u20$core..fmt..Debug$GT$3fmt17h460a110c48e4536aE
	.loc	7 2377 84
	andb	$1, %al
	movzbl	%al, %eax
	addq	$16, %rsp
	popq	%rbp
	retq
Ltmp280:
Lfunc_end33:
	.cfi_endproc

	.globl	__ZN42_$LT$$RF$T$u20$as$u20$core..fmt..Debug$GT$3fmt17hd1b4505513c5beecE
	.p2align	4, 0x90
__ZN42_$LT$$RF$T$u20$as$u20$core..fmt..Debug$GT$3fmt17hd1b4505513c5beecE:
Lfunc_begin34:
	.loc	7 2377 0 is_stmt 1
	.cfi_startproc
	pushq	%rbp
	.cfi_def_cfa_offset 16
	.cfi_offset %rbp, -16
	movq	%rsp, %rbp
	.cfi_def_cfa_register %rbp
	subq	$16, %rsp
	movq	%rdi, -16(%rbp)
	movq	%rsi, -8(%rbp)
Ltmp281:
	.loc	7 2377 71 prologue_end
	movq	(%rdi), %rdi
	.loc	7 2377 62 is_stmt 0
	callq	__ZN42_$LT$$RF$T$u20$as$u20$core..fmt..Debug$GT$3fmt17h9a9acd2a4c30e64eE
	.loc	7 2377 84
	andb	$1, %al
	movzbl	%al, %eax
	addq	$16, %rsp
	popq	%rbp
	retq
Ltmp282:
Lfunc_end34:
	.cfi_endproc

	.globl	__ZN42_$LT$$RF$T$u20$as$u20$core..fmt..Debug$GT$3fmt17hd48abffb10fb96d8E
	.p2align	4, 0x90
__ZN42_$LT$$RF$T$u20$as$u20$core..fmt..Debug$GT$3fmt17hd48abffb10fb96d8E:
Lfunc_begin35:
	.loc	7 2377 0 is_stmt 1
	.cfi_startproc
	pushq	%rbp
	.cfi_def_cfa_offset 16
	.cfi_offset %rbp, -16
	movq	%rsp, %rbp
	.cfi_def_cfa_register %rbp
	subq	$16, %rsp
	movq	%rdi, -16(%rbp)
	movq	%rsi, -8(%rbp)
Ltmp283:
	.loc	7 2377 71 prologue_end
	movq	(%rdi), %rdi
	.loc	7 2377 62 is_stmt 0
	callq	__ZN66_$LT$tracing..span..PhantomNotSend$u20$as$u20$core..fmt..Debug$GT$3fmt17hd6e38c845845dfd6E
	.loc	7 2377 84
	andb	$1, %al
	movzbl	%al, %eax
	addq	$16, %rsp
	popq	%rbp
	retq
Ltmp284:
Lfunc_end35:
	.cfi_endproc

	.globl	__ZN4core3any9type_name17h293ec04950978292E
	.p2align	4, 0x90
__ZN4core3any9type_name17h293ec04950978292E:
Lfunc_begin36:
	.file	8 "/rustc/2c8cc343237b8f7d5a3c3703e3a87f2eb2c54a74/library/core/src" "any.rs"
	.loc	8 726 0 is_stmt 1
	.cfi_startproc
	pushq	%rbp
	.cfi_def_cfa_offset 16
	.cfi_offset %rbp, -16
	movq	%rsp, %rbp
	.cfi_def_cfa_register %rbp
	subq	$16, %rsp
Ltmp285:
	.loc	8 727 5 prologue_end
	leaq	l___unnamed_16(%rip), %rax
	movq	%rax, -16(%rbp)
	movq	$7, -8(%rbp)
	movq	-16(%rbp), %rax
	movq	-8(%rbp), %rdx
	.loc	8 728 2
	addq	$16, %rsp
	popq	%rbp
	retq
Ltmp286:
Lfunc_end36:
	.cfi_endproc

	.p2align	4, 0x90
__ZN4core3fmt3num50_$LT$impl$u20$core..fmt..Debug$u20$for$u20$u32$GT$3fmt17h5825de9042a0ad37E:
Lfunc_begin37:
	.file	9 "/rustc/2c8cc343237b8f7d5a3c3703e3a87f2eb2c54a74/library/core/src/fmt" "num.rs"
	.loc	9 185 0
	.cfi_startproc
	pushq	%rbp
	.cfi_def_cfa_offset 16
	.cfi_offset %rbp, -16
	movq	%rsp, %rbp
	.cfi_def_cfa_register %rbp
	subq	$48, %rsp
	movq	%rsi, -48(%rbp)
	movq	%rdi, %rax
	movq	-48(%rbp), %rdi
	movq	%rax, -40(%rbp)
	movq	%rdi, -32(%rbp)
	movq	%rax, -16(%rbp)
	movq	%rdi, -8(%rbp)
Ltmp287:
	.loc	9 186 20 prologue_end
	callq	__ZN4core3fmt9Formatter15debug_lower_hex17h0921e6b9188d914eE
	testb	$1, %al
	jne	LBB37_2
	.loc	9 0 20 is_stmt 0
	movq	-32(%rbp), %rdi
	.loc	9 188 27 is_stmt 1
	callq	__ZN4core3fmt9Formatter15debug_upper_hex17h8ce487049a6cccf8E
	testb	$1, %al
	jne	LBB37_5
	jmp	LBB37_4
LBB37_2:
	.loc	9 0 27 is_stmt 0
	movq	-32(%rbp), %rsi
	movq	-40(%rbp), %rdi
	.loc	9 187 21 is_stmt 1
	callq	__ZN4core3fmt3num53_$LT$impl$u20$core..fmt..LowerHex$u20$for$u20$u32$GT$3fmt17h794cf20b87700632E
	andb	$1, %al
	movb	%al, -17(%rbp)
LBB37_3:
	.loc	9 193 14
	movb	-17(%rbp), %al
	andb	$1, %al
	movzbl	%al, %eax
	addq	$48, %rsp
	popq	%rbp
	retq
LBB37_4:
	.loc	9 0 14 is_stmt 0
	movq	-32(%rbp), %rsi
	movq	-40(%rbp), %rdi
	.loc	9 191 21 is_stmt 1
	callq	__ZN4core3fmt3num3imp52_$LT$impl$u20$core..fmt..Display$u20$for$u20$u32$GT$3fmt17h081c917b2ee7d4e9E
	andb	$1, %al
	movb	%al, -17(%rbp)
	.loc	9 188 24
	jmp	LBB37_6
LBB37_5:
	.loc	9 0 24 is_stmt 0
	movq	-32(%rbp), %rsi
	movq	-40(%rbp), %rdi
	.loc	9 189 21 is_stmt 1
	callq	__ZN4core3fmt3num53_$LT$impl$u20$core..fmt..UpperHex$u20$for$u20$u32$GT$3fmt17ha96bbefe8f663d11E
	andb	$1, %al
	movb	%al, -17(%rbp)
LBB37_6:
	.loc	9 186 17
	jmp	LBB37_3
Ltmp288:
Lfunc_end37:
	.cfi_endproc

	.p2align	4, 0x90
__ZN4core3fmt9Arguments6new_v117ha2063c7067f23642E:
Lfunc_begin38:
	.loc	7 399 0
	.cfi_startproc
	pushq	%rbp
	.cfi_def_cfa_offset 16
	.cfi_offset %rbp, -16
	movq	%rsp, %rbp
	.cfi_def_cfa_register %rbp
	subq	$160, %rsp
	movq	%r8, -152(%rbp)
	movq	%rcx, -144(%rbp)
	movq	%rdx, -136(%rbp)
	movq	%rsi, -128(%rbp)
	movq	%rdi, -120(%rbp)
	movq	%rdi, -112(%rbp)
	movq	%rsi, -32(%rbp)
	movq	%rdx, -24(%rbp)
	movq	%rcx, -16(%rbp)
	movq	%r8, -8(%rbp)
Ltmp289:
	.loc	7 400 12 prologue_end
	cmpq	%r8, %rdx
	jb	LBB38_2
	.loc	7 0 12 is_stmt 0
	movq	-136(%rbp), %rax
	movq	-152(%rbp), %rcx
	.loc	7 400 56
	addq	$1, %rcx
	.loc	7 400 41
	cmpq	%rcx, %rax
	seta	%al
	.loc	7 400 12
	andb	$1, %al
	movb	%al, -97(%rbp)
	jmp	LBB38_3
LBB38_2:
	movb	$1, -97(%rbp)
LBB38_3:
	testb	$1, -97(%rbp)
	jne	LBB38_5
	.loc	7 0 12
	movq	-112(%rbp), %rax
	movq	-120(%rbp), %rcx
	movq	-152(%rbp), %rdx
	movq	-144(%rbp), %rsi
	movq	-136(%rbp), %rdi
	movq	-128(%rbp), %r8
	.loc	7 403 34 is_stmt 1
	movq	$0, -48(%rbp)
	.loc	7 403 9 is_stmt 0
	movq	%r8, 16(%rcx)
	movq	%rdi, 24(%rcx)
	movq	-48(%rbp), %r8
	movq	-40(%rbp), %rdi
	movq	%r8, (%rcx)
	movq	%rdi, 8(%rcx)
	movq	%rsi, 32(%rcx)
	movq	%rdx, 40(%rcx)
	.loc	7 404 6 is_stmt 1
	addq	$160, %rsp
	popq	%rbp
	retq
LBB38_5:
	.loc	7 401 13
	leaq	l___unnamed_17(%rip), %rsi
	leaq	l___unnamed_18(%rip), %rcx
	xorl	%eax, %eax
	movl	%eax, %r8d
	leaq	-96(%rbp), %rdi
	movq	%rdi, -160(%rbp)
	movl	$1, %edx
	callq	__ZN4core3fmt9Arguments6new_v117ha2063c7067f23642E
	movq	-160(%rbp), %rdi
	leaq	l___unnamed_19(%rip), %rsi
	callq	__ZN4core9panicking9panic_fmt17h9b5d807e24bcaaedE
Ltmp290:
Lfunc_end38:
	.cfi_endproc

	.p2align	4, 0x90
__ZN4core3ops8function6FnOnce9call_once17hefb4265e973dbf12E:
Lfunc_begin39:
	.file	10 "/rustc/2c8cc343237b8f7d5a3c3703e3a87f2eb2c54a74/library/core/src/ops" "function.rs"
	.loc	10 250 0
	.cfi_startproc
	pushq	%rbp
	.cfi_def_cfa_offset 16
	.cfi_offset %rbp, -16
	movq	%rsp, %rbp
	.cfi_def_cfa_register %rbp
	subq	$16, %rsp
	movq	%rdi, -16(%rbp)
Ltmp291:
	.loc	10 250 5 prologue_end
	movq	-16(%rbp), %rdi
	callq	__ZN7tracing4span5Inner2id17h49f3ff62a4a8e0f4E
	addq	$16, %rsp
	popq	%rbp
	retq
Ltmp292:
Lfunc_end39:
	.cfi_endproc

	.p2align	4, 0x90
__ZN4core3ptr25drop_in_place$LT$bool$GT$17hc8fd2f089f43dfffE:
Lfunc_begin40:
	.file	11 "/rustc/2c8cc343237b8f7d5a3c3703e3a87f2eb2c54a74/library/core/src/ptr" "mod.rs"
	.loc	11 490 0
	.cfi_startproc
	pushq	%rbp
	.cfi_def_cfa_offset 16
	.cfi_offset %rbp, -16
	movq	%rsp, %rbp
	.cfi_def_cfa_register %rbp
	pushq	%rax
	movq	%rdi, -8(%rbp)
Ltmp293:
	.loc	11 490 1 prologue_end
	addq	$8, %rsp
	popq	%rbp
	retq
Ltmp294:
Lfunc_end40:
	.cfi_endproc

	.p2align	4, 0x90
__ZN4core3ptr28drop_in_place$LT$$RF$str$GT$17h0f604d73412cbf09E:
Lfunc_begin41:
	.loc	11 490 0
	.cfi_startproc
	pushq	%rbp
	.cfi_def_cfa_offset 16
	.cfi_offset %rbp, -16
	movq	%rsp, %rbp
	.cfi_def_cfa_register %rbp
	pushq	%rax
	movq	%rdi, -8(%rbp)
Ltmp295:
	.loc	11 490 1 prologue_end
	addq	$8, %rsp
	popq	%rbp
	retq
Ltmp296:
Lfunc_end41:
	.cfi_endproc

	.p2align	4, 0x90
__ZN4core3ptr28drop_in_place$LT$$RF$u32$GT$17h6152d2b55133c280E:
Lfunc_begin42:
	.loc	11 490 0
	.cfi_startproc
	pushq	%rbp
	.cfi_def_cfa_offset 16
	.cfi_offset %rbp, -16
	movq	%rsp, %rbp
	.cfi_def_cfa_register %rbp
	pushq	%rax
	movq	%rdi, -8(%rbp)
Ltmp297:
	.loc	11 490 1 prologue_end
	addq	$8, %rsp
	popq	%rbp
	retq
Ltmp298:
Lfunc_end42:
	.cfi_endproc

	.p2align	4, 0x90
__ZN4core3ptr32drop_in_place$LT$$RF$$RF$str$GT$17had3a5c94348c80bfE:
Lfunc_begin43:
	.loc	11 490 0
	.cfi_startproc
	pushq	%rbp
	.cfi_def_cfa_offset 16
	.cfi_offset %rbp, -16
	movq	%rsp, %rbp
	.cfi_def_cfa_register %rbp
	pushq	%rax
	movq	%rdi, -8(%rbp)
Ltmp299:
	.loc	11 490 1 prologue_end
	addq	$8, %rsp
	popq	%rbp
	retq
Ltmp300:
Lfunc_end43:
	.cfi_endproc

	.globl	__ZN4core3ptr40drop_in_place$LT$tracing..span..Span$GT$17h495c0ea0f9a5525cE
	.p2align	4, 0x90
__ZN4core3ptr40drop_in_place$LT$tracing..span..Span$GT$17h495c0ea0f9a5525cE:
Lfunc_begin44:
	.loc	11 490 0
	.cfi_startproc
	.cfi_personality 155, _rust_eh_personality
	.cfi_lsda 16, Lexception16
	pushq	%rbp
	.cfi_def_cfa_offset 16
	.cfi_offset %rbp, -16
	movq	%rsp, %rbp
	.cfi_def_cfa_register %rbp
	subq	$64, %rsp
	movq	%rdi, -56(%rbp)
	movq	%rdi, -48(%rbp)
	movq	%rdi, -24(%rbp)
Ltmp309:
	.file	12 "/Users/natalie/.cargo/registry/src/github.com-1ecc6299db9ec823/tracing-0.1.37" "src/span.rs"
	.loc	12 1458 16 prologue_end
	movq	(%rdi), %rdx
	movl	$1, %eax
	xorl	%ecx, %ecx
	cmpq	$0, %rdx
	cmoveq	%rcx, %rax
	cmpq	$1, %rax
	jne	LBB44_4
	.loc	12 0 16 is_stmt 0
	movq	-56(%rbp), %rax
	.loc	12 1459 13 is_stmt 1
	movq	%rax, %rdi
	addq	$16, %rdi
	movq	%rdi, -16(%rbp)
	.loc	12 1460 13
	movq	%rax, -8(%rbp)
Ltmp301:
	.loc	12 1463 34
	callq	__ZN61_$LT$tracing_core..span..Id$u20$as$u20$core..clone..Clone$GT$5clone17h5ceeb5724ac8cbc7E
Ltmp302:
	movq	%rax, -64(%rbp)
	jmp	LBB44_2
LBB44_2:
Ltmp303:
	.loc	12 0 34 is_stmt 0
	movq	-64(%rbp), %rsi
	movq	-56(%rbp), %rdi
	.loc	12 1463 13
	callq	__ZN12tracing_core10dispatcher8Dispatch9try_close17h68cade9cae06bf36E
Ltmp304:
	jmp	LBB44_3
LBB44_3:
	jmp	LBB44_4
Ltmp310:
LBB44_4:
	.loc	12 1475 6 is_stmt 1
	jmp	LBB44_7
Ltmp311:
LBB44_5:
Ltmp306:
	.loc	12 0 6 is_stmt 0
	movq	-56(%rbp), %rdi
	.loc	11 490 1 is_stmt 1
	callq	__ZN4core3ptr69drop_in_place$LT$core..option..Option$LT$tracing..span..Inner$GT$$GT$17he35dccb6b7aa9755E
Ltmp307:
	jmp	LBB44_9
LBB44_6:
Ltmp305:
	.loc	11 0 1 is_stmt 0
	movq	%rax, %rcx
	movl	%edx, %eax
	movq	%rcx, -40(%rbp)
	movl	%eax, -32(%rbp)
	jmp	LBB44_5
LBB44_7:
	movq	-56(%rbp), %rdi
	.loc	11 490 1
	callq	__ZN4core3ptr69drop_in_place$LT$core..option..Option$LT$tracing..span..Inner$GT$$GT$17he35dccb6b7aa9755E
	addq	$64, %rsp
	popq	%rbp
	retq
LBB44_8:
Ltmp308:
	callq	__ZN4core9panicking19panic_cannot_unwind17h1fbca7e1d7f56ae1E
LBB44_9:
	movq	-40(%rbp), %rdi
	callq	__Unwind_Resume
Ltmp312:
Lfunc_end44:
	.cfi_endproc
	.section	__TEXT,__gcc_except_tab
	.p2align	2
GCC_except_table44:
Lexception16:
	.byte	255
	.byte	255
	.byte	1
	.uleb128 Lcst_end16-Lcst_begin16
Lcst_begin16:
	.uleb128 Ltmp301-Lfunc_begin44
	.uleb128 Ltmp304-Ltmp301
	.uleb128 Ltmp305-Lfunc_begin44
	.byte	0
	.uleb128 Ltmp306-Lfunc_begin44
	.uleb128 Ltmp307-Ltmp306
	.uleb128 Ltmp308-Lfunc_begin44
	.byte	0
	.uleb128 Ltmp307-Lfunc_begin44
	.uleb128 Lfunc_end44-Ltmp307
	.byte	0
	.byte	0
Lcst_end16:
	.p2align	2

	.section	__TEXT,__text,regular,pure_instructions
	.globl	__ZN4core3ptr41drop_in_place$LT$tracing..span..Inner$GT$17h288661ba6b79e7d6E
	.p2align	4, 0x90
__ZN4core3ptr41drop_in_place$LT$tracing..span..Inner$GT$17h288661ba6b79e7d6E:
Lfunc_begin45:
	.loc	11 490 0 is_stmt 1
	.cfi_startproc
	pushq	%rbp
	.cfi_def_cfa_offset 16
	.cfi_offset %rbp, -16
	movq	%rsp, %rbp
	.cfi_def_cfa_register %rbp
	subq	$16, %rsp
	movq	%rdi, -8(%rbp)
Ltmp313:
	.loc	11 490 1 prologue_end
	callq	__ZN4core3ptr55drop_in_place$LT$tracing_core..dispatcher..Dispatch$GT$17h5b44deb9c54d2bb7E
	addq	$16, %rsp
	popq	%rbp
	retq
Ltmp314:
Lfunc_end45:
	.cfi_endproc

	.p2align	4, 0x90
__ZN4core3ptr43drop_in_place$LT$tracing_core..span..Id$GT$17hba403f57a585d613E:
Lfunc_begin46:
	.loc	11 490 0
	.cfi_startproc
	pushq	%rbp
	.cfi_def_cfa_offset 16
	.cfi_offset %rbp, -16
	movq	%rsp, %rbp
	.cfi_def_cfa_register %rbp
	pushq	%rax
	movq	%rdi, -8(%rbp)
Ltmp315:
	.loc	11 490 1 prologue_end
	addq	$8, %rsp
	popq	%rbp
	retq
Ltmp316:
Lfunc_end46:
	.cfi_endproc

	.p2align	4, 0x90
__ZN4core3ptr44drop_in_place$LT$$RF$tracing..span..Span$GT$17he4e93e2b6b449002E:
Lfunc_begin47:
	.loc	11 490 0
	.cfi_startproc
	pushq	%rbp
	.cfi_def_cfa_offset 16
	.cfi_offset %rbp, -16
	movq	%rsp, %rbp
	.cfi_def_cfa_register %rbp
	pushq	%rax
	movq	%rdi, -8(%rbp)
Ltmp317:
	.loc	11 490 1 prologue_end
	addq	$8, %rsp
	popq	%rbp
	retq
Ltmp318:
Lfunc_end47:
	.cfi_endproc

	.p2align	4, 0x90
__ZN4core3ptr47drop_in_place$LT$$RF$tracing_core..span..Id$GT$17h7d776788f3eab5c7E:
Lfunc_begin48:
	.loc	11 490 0
	.cfi_startproc
	pushq	%rbp
	.cfi_def_cfa_offset 16
	.cfi_offset %rbp, -16
	movq	%rsp, %rbp
	.cfi_def_cfa_register %rbp
	pushq	%rax
	movq	%rdi, -8(%rbp)
Ltmp319:
	.loc	11 490 1 prologue_end
	addq	$8, %rsp
	popq	%rbp
	retq
Ltmp320:
Lfunc_end48:
	.cfi_endproc

	.p2align	4, 0x90
__ZN4core3ptr48drop_in_place$LT$$RF$$RF$tracing..span..Span$GT$17h80774b4260595f22E:
Lfunc_begin49:
	.loc	11 490 0
	.cfi_startproc
	pushq	%rbp
	.cfi_def_cfa_offset 16
	.cfi_offset %rbp, -16
	movq	%rsp, %rbp
	.cfi_def_cfa_register %rbp
	pushq	%rax
	movq	%rdi, -8(%rbp)
Ltmp321:
	.loc	11 490 1 prologue_end
	addq	$8, %rsp
	popq	%rbp
	retq
Ltmp322:
Lfunc_end49:
	.cfi_endproc

	.p2align	4, 0x90
__ZN4core3ptr54drop_in_place$LT$$RF$tracing..span..PhantomNotSend$GT$17h6e1b284f9853a5dbE:
Lfunc_begin50:
	.loc	11 490 0
	.cfi_startproc
	pushq	%rbp
	.cfi_def_cfa_offset 16
	.cfi_offset %rbp, -16
	movq	%rsp, %rbp
	.cfi_def_cfa_register %rbp
	pushq	%rax
	movq	%rdi, -8(%rbp)
Ltmp323:
	.loc	11 490 1 prologue_end
	addq	$8, %rsp
	popq	%rbp
	retq
Ltmp324:
Lfunc_end50:
	.cfi_endproc

	.p2align	4, 0x90
__ZN4core3ptr54drop_in_place$LT$$RF$tracing_core..metadata..Level$GT$17he65bc7c379670c9dE:
Lfunc_begin51:
	.loc	11 490 0
	.cfi_startproc
	pushq	%rbp
	.cfi_def_cfa_offset 16
	.cfi_offset %rbp, -16
	movq	%rsp, %rbp
	.cfi_def_cfa_register %rbp
	pushq	%rax
	movq	%rdi, -8(%rbp)
Ltmp325:
	.loc	11 490 1 prologue_end
	addq	$8, %rsp
	popq	%rbp
	retq
Ltmp326:
Lfunc_end51:
	.cfi_endproc

	.p2align	4, 0x90
__ZN4core3ptr59drop_in_place$LT$$RF$tracing_core..dispatcher..Dispatch$GT$17hb72fa34d9ef6506dE:
Lfunc_begin52:
	.loc	11 490 0
	.cfi_startproc
	pushq	%rbp
	.cfi_def_cfa_offset 16
	.cfi_offset %rbp, -16
	movq	%rsp, %rbp
	.cfi_def_cfa_register %rbp
	pushq	%rax
	movq	%rdi, -8(%rbp)
Ltmp327:
	.loc	11 490 1 prologue_end
	addq	$8, %rsp
	popq	%rbp
	retq
Ltmp328:
Lfunc_end52:
	.cfi_endproc

	.p2align	4, 0x90
__ZN4core3ptr59drop_in_place$LT$tracing_core..subscriber..NoSubscriber$GT$17h855388804f3b450eE:
Lfunc_begin53:
	.loc	11 490 0
	.cfi_startproc
	pushq	%rbp
	.cfi_def_cfa_offset 16
	.cfi_offset %rbp, -16
	movq	%rsp, %rbp
	.cfi_def_cfa_register %rbp
	pushq	%rax
	movq	%rdi, -8(%rbp)
Ltmp329:
	.loc	11 490 1 prologue_end
	addq	$8, %rsp
	popq	%rbp
	retq
Ltmp330:
Lfunc_end53:
	.cfi_endproc

	.globl	__ZN4core3ptr69drop_in_place$LT$core..option..Option$LT$tracing..span..Inner$GT$$GT$17he35dccb6b7aa9755E
	.p2align	4, 0x90
__ZN4core3ptr69drop_in_place$LT$core..option..Option$LT$tracing..span..Inner$GT$$GT$17he35dccb6b7aa9755E:
Lfunc_begin54:
	.loc	11 490 0
	.cfi_startproc
	pushq	%rbp
	.cfi_def_cfa_offset 16
	.cfi_offset %rbp, -16
	movq	%rsp, %rbp
	.cfi_def_cfa_register %rbp
	subq	$16, %rsp
	movq	%rdi, -16(%rbp)
	movq	%rdi, -8(%rbp)
Ltmp331:
	.loc	11 490 1 prologue_end
	movq	(%rdi), %rdx
	movl	$1, %eax
	xorl	%ecx, %ecx
	cmpq	$0, %rdx
	cmoveq	%rcx, %rax
	cmpq	$0, %rax
	jne	LBB54_2
LBB54_1:
	addq	$16, %rsp
	popq	%rbp
	retq
LBB54_2:
	.loc	11 0 1 is_stmt 0
	movq	-16(%rbp), %rdi
	.loc	11 490 1
	callq	__ZN4core3ptr41drop_in_place$LT$tracing..span..Inner$GT$17h288661ba6b79e7d6E
	jmp	LBB54_1
Ltmp332:
Lfunc_end54:
	.cfi_endproc

	.p2align	4, 0x90
__ZN4core3ptr78drop_in_place$LT$$RF$core..marker..PhantomData$LT$$BP$mut$u20$$LP$$RP$$GT$$GT$17h7db8c11e32122e4fE:
Lfunc_begin55:
	.loc	11 490 0 is_stmt 1
	.cfi_startproc
	pushq	%rbp
	.cfi_def_cfa_offset 16
	.cfi_offset %rbp, -16
	movq	%rsp, %rbp
	.cfi_def_cfa_register %rbp
	pushq	%rax
	movq	%rdi, -8(%rbp)
Ltmp333:
	.loc	11 490 1 prologue_end
	addq	$8, %rsp
	popq	%rbp
	retq
Ltmp334:
Lfunc_end55:
	.cfi_endproc

	.globl	__ZN4core6option15Option$LT$T$GT$3map17h3acf6873f0e3f49cE
	.p2align	4, 0x90
__ZN4core6option15Option$LT$T$GT$3map17h3acf6873f0e3f49cE:
Lfunc_begin56:
	.loc	5 964 0
	.cfi_startproc
	pushq	%rbp
	.cfi_def_cfa_offset 16
	.cfi_offset %rbp, -16
	movq	%rsp, %rbp
	.cfi_def_cfa_register %rbp
	subq	$48, %rsp
	movq	%rdi, -48(%rbp)
Ltmp335:
	.loc	5 969 15 prologue_end
	movb	$1, -17(%rbp)
	movq	-48(%rbp), %rdx
	movl	$1, %eax
	xorl	%ecx, %ecx
	cmpq	$0, %rdx
	cmoveq	%rcx, %rax
	.loc	5 969 9 is_stmt 0
	cmpq	$0, %rax
	jne	LBB56_2
	.loc	5 971 21 is_stmt 1
	movq	$0, -40(%rbp)
	jmp	LBB56_3
LBB56_2:
	.loc	5 970 18
	movq	-48(%rbp), %rax
	movq	%rax, -8(%rbp)
Ltmp336:
	.loc	5 970 29 is_stmt 0
	movb	$0, -17(%rbp)
	movq	%rax, -32(%rbp)
	movq	-32(%rbp), %rdi
	callq	__ZN7tracing4span135_$LT$impl$u20$core..convert..From$LT$$RF$tracing..span..Span$GT$$u20$for$u20$core..option..Option$LT$$RF$tracing_core..span..Id$GT$$GT$4from28_$u7b$$u7b$closure$u7d$$u7d$17h106b1dbd4c3e03c6E
	.loc	5 970 24
	movq	%rax, -40(%rbp)
Ltmp337:
LBB56_3:
	.loc	5 973 5 is_stmt 1
	testb	$1, -17(%rbp)
	jne	LBB56_5
LBB56_4:
	.loc	5 973 6 is_stmt 0
	movq	-40(%rbp), %rax
	addq	$48, %rsp
	popq	%rbp
	retq
LBB56_5:
	.loc	5 973 5
	jmp	LBB56_4
Ltmp338:
Lfunc_end56:
	.cfi_endproc

	.globl	__ZN4core6option15Option$LT$T$GT$3map17h73c7b7ace92354daE
	.p2align	4, 0x90
__ZN4core6option15Option$LT$T$GT$3map17h73c7b7ace92354daE:
Lfunc_begin57:
	.loc	5 964 0 is_stmt 1
	.cfi_startproc
	pushq	%rbp
	.cfi_def_cfa_offset 16
	.cfi_offset %rbp, -16
	movq	%rsp, %rbp
	.cfi_def_cfa_register %rbp
	subq	$48, %rsp
	movq	%rdi, -48(%rbp)
Ltmp339:
	.loc	5 969 15 prologue_end
	movb	$1, -17(%rbp)
	movq	-48(%rbp), %rdx
	movl	$1, %eax
	xorl	%ecx, %ecx
	cmpq	$0, %rdx
	cmoveq	%rcx, %rax
	.loc	5 969 9 is_stmt 0
	cmpq	$0, %rax
	jne	LBB57_2
	.loc	5 971 21 is_stmt 1
	movq	$0, -40(%rbp)
	jmp	LBB57_3
LBB57_2:
	.loc	5 970 18
	movq	-48(%rbp), %rax
	movq	%rax, -8(%rbp)
Ltmp340:
	.loc	5 970 29 is_stmt 0
	movb	$0, -17(%rbp)
	movq	%rax, -32(%rbp)
	movq	-32(%rbp), %rdi
	callq	__ZN4core3ops8function6FnOnce9call_once17hefb4265e973dbf12E
	.loc	5 970 24
	movq	%rax, -40(%rbp)
Ltmp341:
LBB57_3:
	.loc	5 973 5 is_stmt 1
	testb	$1, -17(%rbp)
	jne	LBB57_5
LBB57_4:
	.loc	5 973 6 is_stmt 0
	movq	-40(%rbp), %rax
	addq	$48, %rsp
	popq	%rbp
	retq
LBB57_5:
	.loc	5 973 5
	jmp	LBB57_4
Ltmp342:
Lfunc_end57:
	.cfi_endproc

	.globl	__ZN4core6option15Option$LT$T$GT$3map17hecf65f4d5c278641E
	.p2align	4, 0x90
__ZN4core6option15Option$LT$T$GT$3map17hecf65f4d5c278641E:
Lfunc_begin58:
	.loc	5 964 0 is_stmt 1
	.cfi_startproc
	pushq	%rbp
	.cfi_def_cfa_offset 16
	.cfi_offset %rbp, -16
	movq	%rsp, %rbp
	.cfi_def_cfa_register %rbp
	subq	$48, %rsp
	movq	%rdi, -48(%rbp)
Ltmp343:
	.loc	5 969 15 prologue_end
	movb	$1, -17(%rbp)
	movq	-48(%rbp), %rdx
	movl	$1, %eax
	xorl	%ecx, %ecx
	cmpq	$0, %rdx
	cmoveq	%rcx, %rax
	.loc	5 969 9 is_stmt 0
	cmpq	$0, %rax
	jne	LBB58_2
	.loc	5 971 21 is_stmt 1
	movq	$0, -40(%rbp)
	jmp	LBB58_3
LBB58_2:
	.loc	5 970 18
	movq	-48(%rbp), %rax
	movq	%rax, -8(%rbp)
Ltmp344:
	.loc	5 970 29 is_stmt 0
	movb	$0, -17(%rbp)
	movq	%rax, -32(%rbp)
	movq	-32(%rbp), %rdi
	callq	__ZN7tracing4span142_$LT$impl$u20$core..convert..From$LT$$RF$tracing..span..EnteredSpan$GT$$u20$for$u20$core..option..Option$LT$$RF$tracing_core..span..Id$GT$$GT$4from28_$u7b$$u7b$closure$u7d$$u7d$17hee28222cf630153eE
	.loc	5 970 24
	movq	%rax, -40(%rbp)
Ltmp345:
LBB58_3:
	.loc	5 973 5 is_stmt 1
	testb	$1, -17(%rbp)
	jne	LBB58_5
LBB58_4:
	.loc	5 973 6 is_stmt 0
	movq	-40(%rbp), %rax
	addq	$48, %rsp
	popq	%rbp
	retq
LBB58_5:
	.loc	5 973 5
	jmp	LBB58_4
Ltmp346:
Lfunc_end58:
	.cfi_endproc

	.globl	__ZN4core6option15Option$LT$T$GT$6as_ref17he96e5b58798f11d9E
	.p2align	4, 0x90
__ZN4core6option15Option$LT$T$GT$6as_ref17he96e5b58798f11d9E:
Lfunc_begin59:
	.loc	5 674 0 is_stmt 1
	.cfi_startproc
	pushq	%rbp
	.cfi_def_cfa_offset 16
	.cfi_offset %rbp, -16
	movq	%rsp, %rbp
	.cfi_def_cfa_register %rbp
	subq	$32, %rsp
	movq	%rdi, -32(%rbp)
	movq	%rdi, -16(%rbp)
Ltmp347:
	.loc	5 675 15 prologue_end
	movq	(%rdi), %rdx
	movl	$1, %eax
	xorl	%ecx, %ecx
	cmpq	$0, %rdx
	cmoveq	%rcx, %rax
	.loc	5 675 9 is_stmt 0
	cmpq	$0, %rax
	jne	LBB59_2
	.loc	5 677 21 is_stmt 1
	movq	$0, -24(%rbp)
	jmp	LBB59_3
LBB59_2:
	.loc	5 0 21 is_stmt 0
	movq	-32(%rbp), %rax
	.loc	5 676 18 is_stmt 1
	movq	%rax, -8(%rbp)
Ltmp348:
	.loc	5 676 28 is_stmt 0
	movq	%rax, -24(%rbp)
Ltmp349:
LBB59_3:
	.loc	5 679 6 is_stmt 1
	movq	-24(%rbp), %rax
	addq	$32, %rsp
	popq	%rbp
	retq
Ltmp350:
Lfunc_end59:
	.cfi_endproc

	.globl	__ZN4core6option15Option$LT$T$GT$7is_none17he178bb7f325901b7E
	.p2align	4, 0x90
__ZN4core6option15Option$LT$T$GT$7is_none17he178bb7f325901b7E:
Lfunc_begin60:
	.loc	5 643 0
	.cfi_startproc
	pushq	%rbp
	.cfi_def_cfa_offset 16
	.cfi_offset %rbp, -16
	movq	%rsp, %rbp
	.cfi_def_cfa_register %rbp
	subq	$24, %rsp
	movq	%rdi, -16(%rbp)
Ltmp351:
	.loc	5 644 10 prologue_end
	movq	%rdi, -8(%rbp)
Ltmp352:
	.loc	5 598 18
	movq	(%rdi), %rdx
	movl	$1, %eax
	xorl	%ecx, %ecx
	cmpq	$0, %rdx
	cmoveq	%rcx, %rax
	.file	13 "/rustc/2c8cc343237b8f7d5a3c3703e3a87f2eb2c54a74/library/core/src/macros" "mod.rs"
	.loc	13 344 9
	cmpq	$1, %rax
	jne	LBB60_2
	.loc	13 345 48
	movb	$1, -17(%rbp)
	jmp	LBB60_3
LBB60_2:
	.loc	13 346 18
	movb	$0, -17(%rbp)
Ltmp353:
LBB60_3:
	.loc	5 644 9
	movb	-17(%rbp), %al
	xorb	$-1, %al
	.loc	5 645 6
	andb	$1, %al
	movzbl	%al, %eax
	addq	$24, %rsp
	popq	%rbp
	retq
Ltmp354:
Lfunc_end60:
	.cfi_endproc

	.globl	__ZN4core6result19Result$LT$T$C$E$GT$14unwrap_or_else17h4775c9be23bb6434E
	.p2align	4, 0x90
__ZN4core6result19Result$LT$T$C$E$GT$14unwrap_or_else17h4775c9be23bb6434E:
Lfunc_begin61:
	.loc	6 1500 0
	.cfi_startproc
	pushq	%rbp
	.cfi_def_cfa_offset 16
	.cfi_offset %rbp, -16
	movq	%rsp, %rbp
	.cfi_def_cfa_register %rbp
	subq	$96, %rsp
	movq	%rdx, -88(%rbp)
	movq	%rsi, -80(%rbp)
Ltmp355:
	movq	%rdi, -72(%rbp)
	movq	%rdi, -64(%rbp)
Ltmp356:
	movq	%rdx, -16(%rbp)
Ltmp357:
	.loc	6 1501 15 prologue_end
	movb	$1, -17(%rbp)
	.loc	6 1501 9 is_stmt 0
	cmpq	$0, (%rsi)
Ltmp358:
	jne	LBB61_2
Ltmp359:
	.loc	6 0 9
	movq	-72(%rbp), %rax
	movq	-80(%rbp), %rcx
	.loc	6 1502 16 is_stmt 1
	movq	8(%rcx), %rdx
	movq	%rdx, -56(%rbp)
	movq	16(%rcx), %rdx
	movq	%rdx, -48(%rbp)
	movq	24(%rcx), %rdx
	movq	%rdx, -40(%rbp)
	movq	32(%rcx), %rcx
	movq	%rcx, -32(%rbp)
Ltmp360:
	.loc	6 1502 22 is_stmt 0
	movq	-56(%rbp), %rcx
	movq	%rcx, (%rax)
	movq	-48(%rbp), %rcx
	movq	%rcx, 8(%rax)
	movq	-40(%rbp), %rcx
	movq	%rcx, 16(%rax)
	movq	-32(%rbp), %rcx
	movq	%rcx, 24(%rax)
Ltmp361:
	.loc	6 1502 22
	jmp	LBB61_3
Ltmp362:
LBB61_2:
	.loc	6 0 22
	movq	-88(%rbp), %rsi
	movq	-72(%rbp), %rdi
Ltmp363:
	.loc	6 1503 23 is_stmt 1
	movb	$0, -17(%rbp)
	callq	__ZN12tracing_core10dispatcher11get_default28_$u7b$$u7b$closure$u7d$$u7d$17h2712d0e7556f7819E
Ltmp364:
LBB61_3:
	.loc	6 1505 5
	testb	$1, -17(%rbp)
	jne	LBB61_5
Ltmp365:
LBB61_4:
	.loc	6 0 5 is_stmt 0
	movq	-64(%rbp), %rax
	.loc	6 1505 6
	addq	$96, %rsp
	popq	%rbp
	retq
Ltmp366:
LBB61_5:
	.loc	6 1505 5
	jmp	LBB61_4
Ltmp367:
Lfunc_end61:
	.cfi_endproc

	.globl	__ZN4core6result19Result$LT$T$C$E$GT$14unwrap_or_else17h8e404f0647ad3915E
	.p2align	4, 0x90
__ZN4core6result19Result$LT$T$C$E$GT$14unwrap_or_else17h8e404f0647ad3915E:
Lfunc_begin62:
	.loc	6 1500 0 is_stmt 1
	.cfi_startproc
	pushq	%rbp
	.cfi_def_cfa_offset 16
	.cfi_offset %rbp, -16
	movq	%rsp, %rbp
	.cfi_def_cfa_register %rbp
	subq	$48, %rsp
	movq	%rsi, -40(%rbp)
	movb	%dil, %al
	movb	%al, -26(%rbp)
	movq	%rsi, -16(%rbp)
Ltmp368:
	.loc	6 1501 15 prologue_end
	movb	$1, -17(%rbp)
	xorl	%eax, %eax
	movl	$1, %ecx
	cmpb	$2, -26(%rbp)
	cmoveq	%rcx, %rax
	.loc	6 1501 9 is_stmt 0
	cmpq	$0, %rax
	jne	LBB62_2
	.loc	6 1502 16 is_stmt 1
	movb	-26(%rbp), %al
	movb	%al, %cl
	andb	$1, %cl
	movb	%cl, -1(%rbp)
Ltmp369:
	.loc	6 1502 22 is_stmt 0
	andb	$1, %al
	movb	%al, -25(%rbp)
Ltmp370:
	.loc	6 1502 22
	jmp	LBB62_3
LBB62_2:
	.loc	6 0 22
	movq	-40(%rbp), %rdi
Ltmp371:
	.loc	6 1503 23 is_stmt 1
	movb	$0, -17(%rbp)
	callq	__ZN12tracing_core10dispatcher11get_default28_$u7b$$u7b$closure$u7d$$u7d$17h72050eb253e79dc2E
	andb	$1, %al
	movb	%al, -25(%rbp)
Ltmp372:
LBB62_3:
	.loc	6 1505 5
	testb	$1, -17(%rbp)
	jne	LBB62_5
LBB62_4:
	.loc	6 1505 6 is_stmt 0
	movb	-25(%rbp), %al
	andb	$1, %al
	movzbl	%al, %eax
	addq	$48, %rsp
	popq	%rbp
	retq
LBB62_5:
	.loc	6 1505 5
	jmp	LBB62_4
Ltmp373:
Lfunc_end62:
	.cfi_endproc

	.globl	__ZN4core6result19Result$LT$T$C$E$GT$14unwrap_or_else17hb421d37ccb7b8759E
	.p2align	4, 0x90
__ZN4core6result19Result$LT$T$C$E$GT$14unwrap_or_else17hb421d37ccb7b8759E:
Lfunc_begin63:
	.loc	6 1500 0 is_stmt 1
	.cfi_startproc
	pushq	%rbp
	.cfi_def_cfa_offset 16
	.cfi_offset %rbp, -16
	movq	%rsp, %rbp
	.cfi_def_cfa_register %rbp
	subq	$96, %rsp
	movq	%rdx, -88(%rbp)
	movq	%rsi, -80(%rbp)
Ltmp374:
	movq	%rdi, -72(%rbp)
	movq	%rdi, -64(%rbp)
Ltmp375:
	movq	%rdx, -16(%rbp)
Ltmp376:
	.loc	6 1501 15 prologue_end
	movb	$1, -17(%rbp)
	.loc	6 1501 9 is_stmt 0
	cmpq	$0, (%rsi)
Ltmp377:
	jne	LBB63_2
Ltmp378:
	.loc	6 0 9
	movq	-72(%rbp), %rax
	movq	-80(%rbp), %rcx
	.loc	6 1502 16 is_stmt 1
	movq	8(%rcx), %rdx
	movq	%rdx, -56(%rbp)
	movq	16(%rcx), %rdx
	movq	%rdx, -48(%rbp)
	movq	24(%rcx), %rdx
	movq	%rdx, -40(%rbp)
	movq	32(%rcx), %rcx
	movq	%rcx, -32(%rbp)
Ltmp379:
	.loc	6 1502 22 is_stmt 0
	movq	-56(%rbp), %rcx
	movq	%rcx, (%rax)
	movq	-48(%rbp), %rcx
	movq	%rcx, 8(%rax)
	movq	-40(%rbp), %rcx
	movq	%rcx, 16(%rax)
	movq	-32(%rbp), %rcx
	movq	%rcx, 24(%rax)
Ltmp380:
	.loc	6 1502 22
	jmp	LBB63_3
Ltmp381:
LBB63_2:
	.loc	6 0 22
	movq	-88(%rbp), %rsi
	movq	-72(%rbp), %rdi
Ltmp382:
	.loc	6 1503 23 is_stmt 1
	movb	$0, -17(%rbp)
	callq	__ZN12tracing_core10dispatcher11get_default28_$u7b$$u7b$closure$u7d$$u7d$17h962db9cef4247f0cE
Ltmp383:
LBB63_3:
	.loc	6 1505 5
	testb	$1, -17(%rbp)
	jne	LBB63_5
Ltmp384:
LBB63_4:
	.loc	6 0 5 is_stmt 0
	movq	-64(%rbp), %rax
	.loc	6 1505 6
	addq	$96, %rsp
	popq	%rbp
	retq
Ltmp385:
LBB63_5:
	.loc	6 1505 5
	jmp	LBB63_4
Ltmp386:
Lfunc_end63:
	.cfi_endproc

	.globl	__ZN4core6result19Result$LT$T$C$E$GT$14unwrap_or_else17he8ccee3de5ec976aE
	.p2align	4, 0x90
__ZN4core6result19Result$LT$T$C$E$GT$14unwrap_or_else17he8ccee3de5ec976aE:
Lfunc_begin64:
	.loc	6 1500 0 is_stmt 1
	.cfi_startproc
	pushq	%rbp
	.cfi_def_cfa_offset 16
	.cfi_offset %rbp, -16
	movq	%rsp, %rbp
	.cfi_def_cfa_register %rbp
	subq	$96, %rsp
	movq	%rdx, -88(%rbp)
	movq	%rsi, -80(%rbp)
Ltmp387:
	movq	%rdi, -72(%rbp)
	movq	%rdi, -64(%rbp)
Ltmp388:
	movq	%rdx, -16(%rbp)
Ltmp389:
	.loc	6 1501 15 prologue_end
	movb	$1, -17(%rbp)
	.loc	6 1501 9 is_stmt 0
	cmpq	$0, (%rsi)
Ltmp390:
	jne	LBB64_2
Ltmp391:
	.loc	6 0 9
	movq	-72(%rbp), %rax
	movq	-80(%rbp), %rcx
	.loc	6 1502 16 is_stmt 1
	movq	8(%rcx), %rdx
	movq	%rdx, -56(%rbp)
	movq	16(%rcx), %rdx
	movq	%rdx, -48(%rbp)
	movq	24(%rcx), %rdx
	movq	%rdx, -40(%rbp)
	movq	32(%rcx), %rcx
	movq	%rcx, -32(%rbp)
Ltmp392:
	.loc	6 1502 22 is_stmt 0
	movq	-56(%rbp), %rcx
	movq	%rcx, (%rax)
	movq	-48(%rbp), %rcx
	movq	%rcx, 8(%rax)
	movq	-40(%rbp), %rcx
	movq	%rcx, 16(%rax)
	movq	-32(%rbp), %rcx
	movq	%rcx, 24(%rax)
Ltmp393:
	.loc	6 1502 22
	jmp	LBB64_3
Ltmp394:
LBB64_2:
	.loc	6 0 22
	movq	-88(%rbp), %rsi
	movq	-72(%rbp), %rdi
Ltmp395:
	.loc	6 1503 23 is_stmt 1
	movb	$0, -17(%rbp)
	callq	__ZN12tracing_core10dispatcher11get_default28_$u7b$$u7b$closure$u7d$$u7d$17h0264ba4b4737a2bfE
Ltmp396:
LBB64_3:
	.loc	6 1505 5
	testb	$1, -17(%rbp)
	jne	LBB64_5
Ltmp397:
LBB64_4:
	.loc	6 0 5 is_stmt 0
	movq	-64(%rbp), %rax
	.loc	6 1505 6
	addq	$96, %rsp
	popq	%rbp
	retq
Ltmp398:
LBB64_5:
	.loc	6 1505 5
	jmp	LBB64_4
Ltmp399:
Lfunc_end64:
	.cfi_endproc

	.p2align	4, 0x90
__ZN51_$LT$$LP$$RP$$u20$as$u20$core..default..Default$GT$7default17h202c1d403941cb09E:
Lfunc_begin65:
	.file	14 "/rustc/2c8cc343237b8f7d5a3c3703e3a87f2eb2c54a74/library/core/src" "default.rs"
	.loc	14 197 0 is_stmt 1
	.cfi_startproc
	pushq	%rbp
	.cfi_def_cfa_offset 16
	.cfi_offset %rbp, -16
	movq	%rsp, %rbp
	.cfi_def_cfa_register %rbp
Ltmp400:
	.loc	14 199 14 prologue_end
	popq	%rbp
	retq
Ltmp401:
Lfunc_end65:
	.cfi_endproc

	.globl	__ZN55_$LT$T$u20$as$u20$core..option..SpecOptionPartialEq$GT$2eq17h5a7acf8bb772c1e2E
	.p2align	4, 0x90
__ZN55_$LT$T$u20$as$u20$core..option..SpecOptionPartialEq$GT$2eq17h5a7acf8bb772c1e2E:
Lfunc_begin66:
	.loc	5 2102 0
	.cfi_startproc
	pushq	%rbp
	.cfi_def_cfa_offset 16
	.cfi_offset %rbp, -16
	movq	%rsp, %rbp
	.cfi_def_cfa_register %rbp
	subq	$64, %rsp
	movq	%rdi, -32(%rbp)
	movq	%rsi, -24(%rbp)
Ltmp402:
	.loc	5 2103 15 prologue_end
	movq	%rdi, -48(%rbp)
	movq	%rsi, -40(%rbp)
	movq	-48(%rbp), %rax
	movq	(%rax), %rax
	testq	%rax, %rax
	setne	%al
	movzbl	%al, %eax
	movq	%rax, -64(%rbp)
	.loc	5 2103 9 is_stmt 0
	je	LBB66_2
	jmp	LBB66_7
LBB66_7:
	.loc	5 0 9
	movq	-64(%rbp), %rax
	.loc	5 2103 9
	subq	$1, %rax
	je	LBB66_3
	jmp	LBB66_1
LBB66_1:
	.loc	5 2106 18 is_stmt 1
	movb	$0, -49(%rbp)
	jmp	LBB66_5
LBB66_2:
	.loc	5 2103 15
	movq	-40(%rbp), %rax
	movq	(%rax), %rdx
	movl	$1, %eax
	xorl	%ecx, %ecx
	cmpq	$0, %rdx
	cmoveq	%rcx, %rax
	.loc	5 2103 9 is_stmt 0
	cmpq	$0, %rax
	je	LBB66_6
	jmp	LBB66_1
LBB66_3:
	.loc	5 2103 15
	movq	-40(%rbp), %rax
	movq	(%rax), %rdx
	movl	$1, %eax
	xorl	%ecx, %ecx
	cmpq	$0, %rdx
	cmoveq	%rcx, %rax
	.loc	5 2103 9
	cmpq	$1, %rax
	jne	LBB66_1
	.loc	5 2104 19 is_stmt 1
	movq	-48(%rbp), %rdi
	movq	%rdi, -16(%rbp)
	.loc	5 2104 28 is_stmt 0
	movq	-40(%rbp), %rsi
	movq	%rsi, -8(%rbp)
Ltmp403:
	.loc	5 2104 35
	callq	__ZN61_$LT$tracing..span..Inner$u20$as$u20$core..cmp..PartialEq$GT$2eq17h21e543ae6b10da88E
	andb	$1, %al
	movb	%al, -49(%rbp)
Ltmp404:
LBB66_5:
	.loc	5 2108 6 is_stmt 1
	movb	-49(%rbp), %al
	andb	$1, %al
	movzbl	%al, %eax
	addq	$64, %rsp
	popq	%rbp
	retq
LBB66_6:
	.loc	5 2105 29
	movb	$1, -49(%rbp)
	jmp	LBB66_5
Ltmp405:
Lfunc_end66:
	.cfi_endproc

	.p2align	4, 0x90
__ZN61_$LT$tracing_core..span..Id$u20$as$u20$core..clone..Clone$GT$5clone17h5ceeb5724ac8cbc7E:
Lfunc_begin67:
	.file	15 "/Users/natalie/.cargo/registry/src/github.com-1ecc6299db9ec823/tracing-core-0.1.30/src" "span.rs"
	.loc	15 15 0
	.cfi_startproc
	pushq	%rbp
	.cfi_def_cfa_offset 16
	.cfi_offset %rbp, -16
	movq	%rsp, %rbp
	.cfi_def_cfa_register %rbp
	subq	$16, %rsp
	movq	%rdi, -8(%rbp)
Ltmp406:
	.loc	15 16 15 prologue_end
	callq	__ZN69_$LT$core..num..nonzero..NonZeroU64$u20$as$u20$core..clone..Clone$GT$5clone17h194818413929aabaE
	.loc	15 15 10
	movq	%rax, -16(%rbp)
	.loc	15 15 15 is_stmt 0
	movq	-16(%rbp), %rax
	addq	$16, %rsp
	popq	%rbp
	retq
Ltmp407:
Lfunc_end67:
	.cfi_endproc

	.p2align	4, 0x90
__ZN63_$LT$tracing_core..span..Id$u20$as$u20$core..cmp..PartialEq$GT$2eq17h0d01b4e705a73011E:
Lfunc_begin68:
	.loc	15 15 0 is_stmt 1
	.cfi_startproc
	pushq	%rbp
	.cfi_def_cfa_offset 16
	.cfi_offset %rbp, -16
	movq	%rsp, %rbp
	.cfi_def_cfa_register %rbp
	subq	$16, %rsp
	movq	%rdi, -16(%rbp)
	movq	%rsi, -8(%rbp)
Ltmp408:
	.loc	15 16 15 prologue_end
	callq	__ZN71_$LT$core..num..nonzero..NonZeroU64$u20$as$u20$core..cmp..PartialEq$GT$2eq17hddec52841cd1ed0fE
	.loc	15 15 33
	andb	$1, %al
	movzbl	%al, %eax
	addq	$16, %rsp
	popq	%rbp
	retq
Ltmp409:
Lfunc_end68:
	.cfi_endproc

	.p2align	4, 0x90
__ZN69_$LT$core..num..nonzero..NonZeroU64$u20$as$u20$core..clone..Clone$GT$5clone17h194818413929aabaE:
Lfunc_begin69:
	.file	16 "/rustc/2c8cc343237b8f7d5a3c3703e3a87f2eb2c54a74/library/core/src/num" "nonzero.rs"
	.loc	16 38 0
	.cfi_startproc
	pushq	%rbp
	.cfi_def_cfa_offset 16
	.cfi_offset %rbp, -16
	movq	%rsp, %rbp
	.cfi_def_cfa_register %rbp
	pushq	%rax
	movq	%rdi, -8(%rbp)
Ltmp410:
	.loc	16 38 28 prologue_end
	movq	(%rdi), %rax
	.loc	16 38 33 is_stmt 0
	addq	$8, %rsp
	popq	%rbp
	retq
Ltmp411:
Lfunc_end69:
	.cfi_endproc

	.globl	__ZN70_$LT$core..option..Option$LT$T$GT$$u20$as$u20$core..cmp..PartialEq$GT$2eq17h75bb64eae4ae4f7eE
	.p2align	4, 0x90
__ZN70_$LT$core..option..Option$LT$T$GT$$u20$as$u20$core..cmp..PartialEq$GT$2eq17h75bb64eae4ae4f7eE:
Lfunc_begin70:
	.loc	5 2088 0 is_stmt 1
	.cfi_startproc
	pushq	%rbp
	.cfi_def_cfa_offset 16
	.cfi_offset %rbp, -16
	movq	%rsp, %rbp
	.cfi_def_cfa_register %rbp
	subq	$16, %rsp
	movq	%rdi, -16(%rbp)
	movq	%rsi, -8(%rbp)
Ltmp412:
	.loc	5 2089 9 prologue_end
	callq	__ZN55_$LT$T$u20$as$u20$core..option..SpecOptionPartialEq$GT$2eq17h5a7acf8bb772c1e2E
	.loc	5 2090 6
	andb	$1, %al
	movzbl	%al, %eax
	addq	$16, %rsp
	popq	%rbp
	retq
Ltmp413:
Lfunc_end70:
	.cfi_endproc

	.globl	__ZN71_$LT$core..marker..PhantomData$LT$T$GT$$u20$as$u20$core..fmt..Debug$GT$3fmt17h460a110c48e4536aE
	.p2align	4, 0x90
__ZN71_$LT$core..marker..PhantomData$LT$T$GT$$u20$as$u20$core..fmt..Debug$GT$3fmt17h460a110c48e4536aE:
Lfunc_begin71:
	.loc	7 2616 0
	.cfi_startproc
	pushq	%rbp
	.cfi_def_cfa_offset 16
	.cfi_offset %rbp, -16
	movq	%rsp, %rbp
	.cfi_def_cfa_register %rbp
	subq	$160, %rsp
	movq	%rsi, -160(%rbp)
	movq	%rdi, -56(%rbp)
	movq	%rsi, -48(%rbp)
Ltmp414:
	.loc	7 2617 38 prologue_end
	callq	__ZN4core3any9type_name17h293ec04950978292E
	movq	%rdx, -64(%rbp)
	movq	%rax, -72(%rbp)
	.loc	7 2617 9 is_stmt 0
	leaq	-72(%rbp), %rax
	movq	%rax, -40(%rbp)
Ltmp415:
	.loc	7 328 23 is_stmt 1
	leaq	-72(%rbp), %rax
	movq	%rax, -32(%rbp)
	.loc	7 328 26 is_stmt 0
	movq	__ZN44_$LT$$RF$T$u20$as$u20$core..fmt..Display$GT$3fmt17h0d3733ab631cd41eE@GOTPCREL(%rip), %rax
	movq	%rax, -24(%rbp)
Ltmp416:
	.loc	7 347 42 is_stmt 1
	movq	__ZN44_$LT$$RF$T$u20$as$u20$core..fmt..Display$GT$3fmt17h0d3733ab631cd41eE@GOTPCREL(%rip), %rax
	movq	%rax, -16(%rbp)
	movq	-16(%rbp), %rax
	.loc	7 347 68 is_stmt 0
	leaq	-72(%rbp), %rcx
	movq	%rcx, -8(%rbp)
	movq	-8(%rbp), %rcx
	.loc	7 347 18
	movq	%rcx, -88(%rbp)
	movq	%rax, -80(%rbp)
Ltmp417:
	.loc	7 2617 9 is_stmt 1
	movq	-88(%rbp), %rcx
	movq	-80(%rbp), %rax
	movq	%rcx, -104(%rbp)
	movq	%rax, -96(%rbp)
	leaq	-152(%rbp), %rdi
	leaq	l___unnamed_20(%rip), %rsi
	movl	$2, %edx
	leaq	-104(%rbp), %rcx
	movl	$1, %r8d
	callq	__ZN4core3fmt9Arguments6new_v117ha2063c7067f23642E
	movq	-160(%rbp), %rdi
	leaq	-152(%rbp), %rsi
	callq	__ZN4core3fmt9Formatter9write_fmt17h9bb7721c944aee26E
	.loc	7 2618 6
	andb	$1, %al
	movzbl	%al, %eax
	addq	$160, %rsp
	popq	%rbp
	retq
Ltmp418:
Lfunc_end71:
	.cfi_endproc

	.p2align	4, 0x90
__ZN71_$LT$core..num..nonzero..NonZeroU64$u20$as$u20$core..cmp..PartialEq$GT$2eq17hddec52841cd1ed0fE:
Lfunc_begin72:
	.loc	16 38 0
	.cfi_startproc
	pushq	%rbp
	.cfi_def_cfa_offset 16
	.cfi_offset %rbp, -16
	movq	%rsp, %rbp
	.cfi_def_cfa_register %rbp
	subq	$16, %rsp
	movq	%rdi, -16(%rbp)
	movq	%rsi, -8(%rbp)
Ltmp419:
	.loc	16 43 28 prologue_end
	movq	(%rdi), %rax
	cmpq	(%rsi), %rax
	sete	%al
	.loc	16 38 48
	andb	$1, %al
	movzbl	%al, %eax
	addq	$16, %rsp
	popq	%rbp
	retq
Ltmp420:
Lfunc_end72:
	.cfi_endproc

	.p2align	4, 0x90
__ZN73_$LT$tracing_core..dispatcher..Dispatch$u20$as$u20$core..clone..Clone$GT$5clone17hb28ae3eb47673752E:
Lfunc_begin73:
	.loc	1 154 0
	.cfi_startproc
	pushq	%rbp
	.cfi_def_cfa_offset 16
	.cfi_offset %rbp, -16
	movq	%rsp, %rbp
	.cfi_def_cfa_register %rbp
	subq	$32, %rsp
	movq	%rdi, -8(%rbp)
Ltmp421:
	.loc	1 156 5 prologue_end
	callq	__ZN64_$LT$alloc..sync..Arc$LT$T$GT$$u20$as$u20$core..clone..Clone$GT$5clone17hba9d787c72692e90E
	.loc	1 154 10
	movq	%rax, -24(%rbp)
	movq	%rdx, -16(%rbp)
	.loc	1 154 15 is_stmt 0
	movq	-24(%rbp), %rax
	movq	-16(%rbp), %rdx
	addq	$32, %rsp
	popq	%rbp
	retq
Ltmp422:
Lfunc_end73:
	.cfi_endproc

	.p2align	4, 0x90
__ZN81_$LT$tracing_core..subscriber..NoSubscriber$u20$as$u20$core..default..Default$GT$7default17hab2629b4f3dbcebeE:
Lfunc_begin74:
	.loc	3 674 0 is_stmt 1
	.cfi_startproc
	pushq	%rbp
	.cfi_def_cfa_offset 16
	.cfi_offset %rbp, -16
	movq	%rsp, %rbp
	.cfi_def_cfa_register %rbp
Ltmp423:
	.loc	3 675 25 prologue_end
	callq	__ZN51_$LT$$LP$$RP$$u20$as$u20$core..default..Default$GT$7default17h202c1d403941cb09E
	.loc	3 674 37
	popq	%rbp
	retq
Ltmp424:
Lfunc_end74:
	.cfi_endproc

	.p2align	4, 0x90
__ZN95_$LT$tracing_core..subscriber..NoSubscriber$u20$as$u20$tracing_core..subscriber..Subscriber$GT$17register_callsite17he55c1b45d0b6e0a5E:
Lfunc_begin75:
	.loc	3 679 0
	.cfi_startproc
	pushq	%rbp
	.cfi_def_cfa_offset 16
	.cfi_offset %rbp, -16
	movq	%rsp, %rbp
	.cfi_def_cfa_register %rbp
	subq	$16, %rsp
	movq	%rdi, -16(%rbp)
	movq	%rsi, -8(%rbp)
Ltmp425:
	.loc	3 680 9 prologue_end
	callq	__ZN12tracing_core10subscriber8Interest5never17ha30561e0918b1801E
	.loc	3 681 6
	addq	$16, %rsp
	popq	%rbp
	retq
Ltmp426:
Lfunc_end75:
	.cfi_endproc

	.p2align	4, 0x90
__ZN95_$LT$tracing_core..subscriber..NoSubscriber$u20$as$u20$tracing_core..subscriber..Subscriber$GT$7enabled17h43c1a35c2b2881c7E:
Lfunc_begin76:
	.loc	3 694 0
	.cfi_startproc
	pushq	%rbp
	.cfi_def_cfa_offset 16
	.cfi_offset %rbp, -16
	movq	%rsp, %rbp
	.cfi_def_cfa_register %rbp
	subq	$16, %rsp
	movq	%rdi, -16(%rbp)
	movq	%rsi, -8(%rbp)
Ltmp427:
	.loc	3 696 6 prologue_end
	xorl	%eax, %eax
	andb	$1, %al
	movzbl	%al, %eax
	addq	$16, %rsp
	popq	%rbp
	retq
Ltmp428:
Lfunc_end76:
	.cfi_endproc

	.globl	__ZN7tracing4span4Span3new17habae51f87f8f7f80E
	.p2align	4, 0x90
__ZN7tracing4span4Span3new17habae51f87f8f7f80E:
Lfunc_begin77:
	.loc	12 436 0
	.cfi_startproc
	pushq	%rbp
	.cfi_def_cfa_offset 16
	.cfi_offset %rbp, -16
	movq	%rsp, %rbp
	.cfi_def_cfa_register %rbp
	subq	$48, %rsp
	movq	%rdi, %rax
	movq	%rax, -40(%rbp)
	movq	%rsi, -32(%rbp)
	movq	%rdx, -24(%rbp)
Ltmp429:
	.loc	12 437 33 prologue_end
	leaq	-32(%rbp), %rax
	movq	%rax, -16(%rbp)
	leaq	-24(%rbp), %rax
	movq	%rax, -8(%rbp)
	.loc	12 437 9 is_stmt 0
	movq	-16(%rbp), %rsi
	movq	-8(%rbp), %rdx
	callq	__ZN12tracing_core10dispatcher11get_default17h8358a6427c66408aE
	movq	-40(%rbp), %rax
	.loc	12 438 6 is_stmt 1
	addq	$48, %rsp
	popq	%rbp
	retq
Ltmp430:
Lfunc_end77:
	.cfi_endproc

	.p2align	4, 0x90
__ZN7tracing4span4Span3new28_$u7b$$u7b$closure$u7d$$u7d$17h2f66f05ff1506aa5E:
Lfunc_begin78:
	.loc	12 437 0
	.cfi_startproc
	pushq	%rbp
	.cfi_def_cfa_offset 16
	.cfi_offset %rbp, -16
	movq	%rsp, %rbp
	.cfi_def_cfa_register %rbp
	subq	$32, %rsp
	movq	%rdx, %rcx
	movq	%rsi, %rax
	movq	%rdi, %rdx
	movq	%rdx, -24(%rbp)
	movq	%rax, -16(%rbp)
	movq	%rcx, -8(%rbp)
Ltmp431:
	.loc	12 437 59 prologue_end
	movq	(%rax), %rdx
	movq	(%rdx), %rsi
	.loc	12 437 65 is_stmt 0
	movq	8(%rax), %rax
	movq	(%rax), %rdx
	.loc	12 437 44
	callq	__ZN7tracing4span4Span8new_with17h748453d38c96aad5E
	movq	-24(%rbp), %rax
	.loc	12 437 82
	addq	$32, %rsp
	popq	%rbp
	retq
Ltmp432:
Lfunc_end78:
	.cfi_endproc

	.p2align	4, 0x90
__ZN7tracing4span4Span8new_with17h748453d38c96aad5E:
Lfunc_begin79:
	.loc	12 442 0 is_stmt 1
	.cfi_startproc
	pushq	%rbp
	.cfi_def_cfa_offset 16
	.cfi_offset %rbp, -16
	movq	%rsp, %rbp
	.cfi_def_cfa_register %rbp
	subq	$128, %rsp
	movq	%rcx, -104(%rbp)
	movq	%rsi, -112(%rbp)
	movq	%rdi, -120(%rbp)
	movq	%rdi, -96(%rbp)
	movq	%rsi, -24(%rbp)
	movq	%rdx, -16(%rbp)
	movq	%rcx, -8(%rbp)
Ltmp433:
	.loc	12 447 24 prologue_end
	leaq	-88(%rbp), %rdi
	callq	__ZN12tracing_core4span10Attributes3new17h8c4e2b80b9e65f93E
	movq	-120(%rbp), %rdi
	movq	-112(%rbp), %rsi
	movq	-104(%rbp), %rcx
Ltmp434:
	.loc	12 448 31
	movq	-88(%rbp), %rax
	movq	%rax, -56(%rbp)
	movq	-80(%rbp), %rax
	movq	%rax, -48(%rbp)
	movq	-72(%rbp), %rax
	movq	%rax, -40(%rbp)
	movq	-64(%rbp), %rax
	movq	%rax, -32(%rbp)
	.loc	12 448 9 is_stmt 0
	leaq	-56(%rbp), %rdx
	callq	__ZN7tracing4span4Span9make_with17hbdf81414a0cf1f74E
	movq	-96(%rbp), %rax
Ltmp435:
	.loc	12 449 6 is_stmt 1
	addq	$128, %rsp
	popq	%rbp
	retq
Ltmp436:
Lfunc_end79:
	.cfi_endproc

	.globl	__ZN7tracing4span4Span8new_root17hc9b633480792837dE
	.p2align	4, 0x90
__ZN7tracing4span4Span8new_root17hc9b633480792837dE:
Lfunc_begin80:
	.loc	12 460 0
	.cfi_startproc
	pushq	%rbp
	.cfi_def_cfa_offset 16
	.cfi_offset %rbp, -16
	movq	%rsp, %rbp
	.cfi_def_cfa_register %rbp
	subq	$48, %rsp
	movq	%rdi, %rax
	movq	%rax, -40(%rbp)
	movq	%rsi, -32(%rbp)
	movq	%rdx, -24(%rbp)
Ltmp437:
	.loc	12 461 33 prologue_end
	leaq	-32(%rbp), %rax
	movq	%rax, -16(%rbp)
	leaq	-24(%rbp), %rax
	movq	%rax, -8(%rbp)
	.loc	12 461 9 is_stmt 0
	movq	-16(%rbp), %rsi
	movq	-8(%rbp), %rdx
	callq	__ZN12tracing_core10dispatcher11get_default17h1f32a4df611d1030E
	movq	-40(%rbp), %rax
	.loc	12 462 6 is_stmt 1
	addq	$48, %rsp
	popq	%rbp
	retq
Ltmp438:
Lfunc_end80:
	.cfi_endproc

	.p2align	4, 0x90
__ZN7tracing4span4Span8new_root28_$u7b$$u7b$closure$u7d$$u7d$17h114a6acf80ff220eE:
Lfunc_begin81:
	.loc	12 461 0
	.cfi_startproc
	pushq	%rbp
	.cfi_def_cfa_offset 16
	.cfi_offset %rbp, -16
	movq	%rsp, %rbp
	.cfi_def_cfa_register %rbp
	subq	$32, %rsp
	movq	%rdx, %rcx
	movq	%rsi, %rax
	movq	%rdi, %rdx
	movq	%rdx, -24(%rbp)
	movq	%rax, -16(%rbp)
	movq	%rcx, -8(%rbp)
Ltmp439:
	.loc	12 461 64 prologue_end
	movq	(%rax), %rdx
	movq	(%rdx), %rsi
	.loc	12 461 70 is_stmt 0
	movq	8(%rax), %rax
	movq	(%rax), %rdx
	.loc	12 461 44
	callq	__ZN7tracing4span4Span13new_root_with17ha1793ad430516408E
	movq	-24(%rbp), %rax
	.loc	12 461 87
	addq	$32, %rsp
	popq	%rbp
	retq
Ltmp440:
Lfunc_end81:
	.cfi_endproc

	.p2align	4, 0x90
__ZN7tracing4span4Span13new_root_with17ha1793ad430516408E:
Lfunc_begin82:
	.loc	12 466 0 is_stmt 1
	.cfi_startproc
	pushq	%rbp
	.cfi_def_cfa_offset 16
	.cfi_offset %rbp, -16
	movq	%rsp, %rbp
	.cfi_def_cfa_register %rbp
	subq	$128, %rsp
	movq	%rcx, -104(%rbp)
	movq	%rsi, -112(%rbp)
	movq	%rdi, -120(%rbp)
	movq	%rdi, -96(%rbp)
	movq	%rsi, -24(%rbp)
	movq	%rdx, -16(%rbp)
	movq	%rcx, -8(%rbp)
Ltmp441:
	.loc	12 471 24 prologue_end
	leaq	-88(%rbp), %rdi
	callq	__ZN12tracing_core4span10Attributes8new_root17hc5b8272df726c8a2E
	movq	-120(%rbp), %rdi
	movq	-112(%rbp), %rsi
	movq	-104(%rbp), %rcx
Ltmp442:
	.loc	12 472 31
	movq	-88(%rbp), %rax
	movq	%rax, -56(%rbp)
	movq	-80(%rbp), %rax
	movq	%rax, -48(%rbp)
	movq	-72(%rbp), %rax
	movq	%rax, -40(%rbp)
	movq	-64(%rbp), %rax
	movq	%rax, -32(%rbp)
	.loc	12 472 9 is_stmt 0
	leaq	-56(%rbp), %rdx
	callq	__ZN7tracing4span4Span9make_with17hbdf81414a0cf1f74E
	movq	-96(%rbp), %rax
Ltmp443:
	.loc	12 473 6 is_stmt 1
	addq	$128, %rsp
	popq	%rbp
	retq
Ltmp444:
Lfunc_end82:
	.cfi_endproc

	.globl	__ZN7tracing4span4Span7current17hc00e9fedc27e653dE
	.p2align	4, 0x90
__ZN7tracing4span4Span7current17hc00e9fedc27e653dE:
Lfunc_begin83:
	.loc	12 549 0
	.cfi_startproc
	pushq	%rbp
	.cfi_def_cfa_offset 16
	.cfi_offset %rbp, -16
	movq	%rsp, %rbp
	.cfi_def_cfa_register %rbp
	subq	$16, %rsp
	movq	%rdi, %rax
	movq	%rax, -8(%rbp)
Ltmp445:
	.loc	12 550 9 prologue_end
	callq	__ZN12tracing_core10dispatcher11get_default17h5663f3b7140b5fc8E
	movq	-8(%rbp), %rax
	.loc	12 561 6
	addq	$16, %rsp
	popq	%rbp
	retq
Ltmp446:
Lfunc_end83:
	.cfi_endproc

	.p2align	4, 0x90
__ZN7tracing4span4Span7current28_$u7b$$u7b$closure$u7d$$u7d$17hdf7338a75c02bd95E:
Lfunc_begin84:
	.loc	12 550 0
	.cfi_startproc
	pushq	%rbp
	.cfi_def_cfa_offset 16
	.cfi_offset %rbp, -16
	movq	%rsp, %rbp
	.cfi_def_cfa_register %rbp
	subq	$208, %rsp
	movq	%rdx, -192(%rbp)
	movq	%rsi, %rax
	movq	-192(%rbp), %rsi
	movq	%rdi, -184(%rbp)
	movq	%rdi, -176(%rbp)
	movq	%rax, -56(%rbp)
	movq	%rsi, -48(%rbp)
	leaq	-144(%rbp), %rdi
	movq	%rdi, -168(%rbp)
Ltmp447:
	.loc	12 551 39 prologue_end
	callq	__ZN12tracing_core10dispatcher8Dispatch12current_span17h5639495edec3b13bE
	movq	-168(%rbp), %rdi
	callq	__ZN12tracing_core4span7Current10into_inner17ha8a66bad3d7ed08dE
	movq	%rdx, -152(%rbp)
	movq	%rax, -160(%rbp)
	.loc	12 551 20 is_stmt 0
	movl	$1, %eax
	xorl	%ecx, %ecx
	cmpq	$0, -160(%rbp)
	cmoveq	%rcx, %rax
	cmpq	$1, %rax
	jne	LBB84_2
	.loc	12 0 20
	movq	-192(%rbp), %rdi
	.loc	12 551 26
	movq	-160(%rbp), %rax
	movq	%rax, -120(%rbp)
	.loc	12 551 30
	movq	-152(%rbp), %rax
	movq	%rax, -200(%rbp)
	movq	%rax, -40(%rbp)
	.loc	12 552 26 is_stmt 1
	leaq	-120(%rbp), %rsi
	callq	__ZN12tracing_core10dispatcher8Dispatch10clone_span17h46d9bdca7827a9a1E
	movq	-192(%rbp), %rdx
	movq	%rax, %rsi
	movq	%rsi, -32(%rbp)
Ltmp448:
	.loc	12 554 33
	leaq	-88(%rbp), %rdi
	callq	__ZN7tracing4span5Inner3new17h9b8d3f765ec9c04bE
	movq	-200(%rbp), %rcx
	movq	-184(%rbp), %rax
	.loc	12 554 28 is_stmt 0
	movq	-88(%rbp), %rdx
	movq	%rdx, -112(%rbp)
	movq	-80(%rbp), %rdx
	movq	%rdx, -104(%rbp)
	movq	-72(%rbp), %rdx
	movq	%rdx, -96(%rbp)
	.loc	12 555 27 is_stmt 1
	movq	%rcx, -64(%rbp)
	.loc	12 553 17
	movq	-112(%rbp), %rcx
	movq	%rcx, (%rax)
	movq	-104(%rbp), %rcx
	movq	%rcx, 8(%rax)
	movq	-96(%rbp), %rcx
	movq	%rcx, 16(%rax)
	movq	-64(%rbp), %rcx
	movq	%rcx, 24(%rax)
Ltmp449:
	.loc	12 551 13
	jmp	LBB84_3
LBB84_2:
	.loc	12 0 13 is_stmt 0
	movq	-184(%rbp), %rax
Ltmp450:
	.loc	12 535 20 is_stmt 1
	movq	$0, -24(%rbp)
	.loc	12 534 9
	movq	-24(%rbp), %rcx
	movq	%rcx, (%rax)
	movq	-16(%rbp), %rcx
	movq	%rcx, 8(%rax)
	movq	-8(%rbp), %rcx
	movq	%rcx, 16(%rax)
	movq	$0, 24(%rax)
Ltmp451:
LBB84_3:
	.loc	12 0 9 is_stmt 0
	movq	-176(%rbp), %rax
	.loc	12 560 10 is_stmt 1
	addq	$208, %rsp
	popq	%rbp
	retq
Ltmp452:
Lfunc_end84:
	.cfi_endproc

	.globl	__ZN7tracing4span4Span9make_with17hbdf81414a0cf1f74E
	.p2align	4, 0x90
__ZN7tracing4span4Span9make_with17hbdf81414a0cf1f74E:
Lfunc_begin85:
	.loc	12 563 0
	.cfi_startproc
	pushq	%rbp
	.cfi_def_cfa_offset 16
	.cfi_offset %rbp, -16
	movq	%rsp, %rbp
	.cfi_def_cfa_register %rbp
	subq	$160, %rsp
	movq	%rcx, -144(%rbp)
	movq	%rdx, -152(%rbp)
Ltmp453:
	movq	%rsi, %rax
	movq	-152(%rbp), %rsi
	movq	%rax, -136(%rbp)
	movq	%rdi, %rcx
	movq	-144(%rbp), %rdi
	movq	%rcx, -128(%rbp)
	movq	%rcx, -120(%rbp)
Ltmp454:
	movq	%rax, -32(%rbp)
Ltmp455:
	movq	%rdi, -24(%rbp)
Ltmp456:
	.loc	12 568 21 prologue_end
	movq	%rsi, -16(%rbp)
Ltmp457:
	.loc	12 569 18
	callq	__ZN12tracing_core10dispatcher8Dispatch8new_span17h22b8497eb6f443c1E
Ltmp458:
	.loc	12 0 18 is_stmt 0
	movq	-144(%rbp), %rdx
	.loc	12 569 18
	movq	%rax, %rsi
	movq	%rsi, -8(%rbp)
Ltmp459:
	.loc	12 570 26 is_stmt 1
	leaq	-88(%rbp), %rdi
	callq	__ZN7tracing4span5Inner3new17h9b8d3f765ec9c04bE
	movq	-136(%rbp), %rsi
	movq	-128(%rbp), %rdi
	movq	-120(%rbp), %rax
	.loc	12 570 21 is_stmt 0
	movq	-88(%rbp), %rcx
	movq	%rcx, -112(%rbp)
	movq	-80(%rbp), %rcx
	movq	%rcx, -104(%rbp)
	movq	-72(%rbp), %rcx
	movq	%rcx, -96(%rbp)
Ltmp460:
	.loc	12 573 13 is_stmt 1
	movq	-112(%rbp), %rcx
	movq	%rcx, -64(%rbp)
	movq	-104(%rbp), %rcx
	movq	%rcx, -56(%rbp)
	movq	-96(%rbp), %rcx
	movq	%rcx, -48(%rbp)
	.loc	12 574 19
	movq	%rsi, -40(%rbp)
	.loc	12 572 20
	movq	-64(%rbp), %rcx
	movq	%rcx, (%rdi)
	movq	-56(%rbp), %rcx
	movq	%rcx, 8(%rdi)
	movq	-48(%rbp), %rcx
	movq	%rcx, 16(%rdi)
	movq	-40(%rbp), %rcx
	movq	%rcx, 24(%rdi)
Ltmp461:
	.loc	12 592 6
	addq	$160, %rsp
	popq	%rbp
	retq
Ltmp462:
Lfunc_end85:
	.cfi_endproc

	.globl	__ZN7tracing4span4Span10or_current17h811b772d6907deebE
	.p2align	4, 0x90
__ZN7tracing4span4Span10or_current17h811b772d6907deebE:
Lfunc_begin86:
	.loc	12 1027 0
	.cfi_startproc
	.cfi_personality 155, _rust_eh_personality
	.cfi_lsda 16, Lexception17
	pushq	%rbp
	.cfi_def_cfa_offset 16
	.cfi_offset %rbp, -16
	movq	%rsp, %rbp
	.cfi_def_cfa_register %rbp
	subq	$48, %rsp
	movq	%rsi, -48(%rbp)
Ltmp471:
	movq	%rdi, %rax
	movq	-48(%rbp), %rdi
	movq	%rax, -40(%rbp)
	movq	%rax, -32(%rbp)
Ltmp463:
Ltmp472:
	.loc	12 1028 12 prologue_end
	callq	__ZN7tracing4span4Span11is_disabled17h659124fa8e6cc353E
Ltmp464:
	movb	%al, -17(%rbp)
	jmp	LBB86_3
Ltmp473:
LBB86_1:
Ltmp468:
	.loc	12 0 12 is_stmt 0
	movq	-48(%rbp), %rdi
	.loc	12 1032 5 is_stmt 1
	callq	__ZN4core3ptr40drop_in_place$LT$tracing..span..Span$GT$17h495c0ea0f9a5525cE
Ltmp469:
	jmp	LBB86_8
Ltmp474:
LBB86_2:
Ltmp467:
	.loc	12 0 5 is_stmt 0
	movq	%rax, %rcx
	movl	%edx, %eax
	movq	%rcx, -16(%rbp)
	movl	%eax, -8(%rbp)
	jmp	LBB86_1
Ltmp475:
LBB86_3:
	movb	-17(%rbp), %al
	.loc	12 1028 12 is_stmt 1
	testb	$1, %al
	jne	LBB86_5
	jmp	LBB86_4
Ltmp476:
LBB86_4:
	.loc	12 0 12 is_stmt 0
	movq	-40(%rbp), %rax
	movq	-48(%rbp), %rcx
	.loc	12 1031 9 is_stmt 1
	movq	(%rcx), %rdx
	movq	%rdx, (%rax)
	movq	8(%rcx), %rdx
	movq	%rdx, 8(%rax)
	movq	16(%rcx), %rdx
	movq	%rdx, 16(%rax)
	movq	24(%rcx), %rcx
	movq	%rcx, 24(%rax)
	.loc	12 1032 5
	jmp	LBB86_9
Ltmp477:
LBB86_5:
Ltmp465:
	.loc	12 0 5 is_stmt 0
	movq	-40(%rbp), %rdi
	.loc	12 1029 20 is_stmt 1
	callq	__ZN7tracing4span4Span7current17hc00e9fedc27e653dE
Ltmp466:
	jmp	LBB86_6
Ltmp478:
LBB86_6:
	.loc	12 0 20 is_stmt 0
	movq	-48(%rbp), %rdi
	.loc	12 1032 5 is_stmt 1
	callq	__ZN4core3ptr40drop_in_place$LT$tracing..span..Span$GT$17h495c0ea0f9a5525cE
	jmp	LBB86_9
Ltmp479:
LBB86_7:
Ltmp470:
	.loc	12 1027 5
	callq	__ZN4core9panicking19panic_cannot_unwind17h1fbca7e1d7f56ae1E
Ltmp480:
LBB86_8:
	movq	-16(%rbp), %rdi
	callq	__Unwind_Resume
Ltmp481:
LBB86_9:
	.loc	12 0 5 is_stmt 0
	movq	-32(%rbp), %rax
	.loc	12 1032 6 is_stmt 1
	addq	$48, %rsp
	popq	%rbp
	retq
Ltmp482:
Lfunc_end86:
	.cfi_endproc
	.section	__TEXT,__gcc_except_tab
	.p2align	2
GCC_except_table86:
Lexception17:
	.byte	255
	.byte	255
	.byte	1
	.uleb128 Lcst_end17-Lcst_begin17
Lcst_begin17:
	.uleb128 Ltmp463-Lfunc_begin86
	.uleb128 Ltmp464-Ltmp463
	.uleb128 Ltmp467-Lfunc_begin86
	.byte	0
	.uleb128 Ltmp468-Lfunc_begin86
	.uleb128 Ltmp469-Ltmp468
	.uleb128 Ltmp470-Lfunc_begin86
	.byte	0
	.uleb128 Ltmp465-Lfunc_begin86
	.uleb128 Ltmp466-Ltmp465
	.uleb128 Ltmp467-Lfunc_begin86
	.byte	0
	.uleb128 Ltmp466-Lfunc_begin86
	.uleb128 Lfunc_end86-Ltmp466
	.byte	0
	.byte	0
Lcst_end17:
	.p2align	2

	.section	__TEXT,__text,regular,pure_instructions
	.globl	__ZN7tracing4span4Span10record_all17hd8cd24f7f7ef31b6E
	.p2align	4, 0x90
__ZN7tracing4span4Span10record_all17hd8cd24f7f7ef31b6E:
Lfunc_begin87:
	.loc	12 1213 0
	.cfi_startproc
	pushq	%rbp
	.cfi_def_cfa_offset 16
	.cfi_offset %rbp, -16
	movq	%rsp, %rbp
	.cfi_def_cfa_register %rbp
	subq	$64, %rsp
	movq	%rsi, -56(%rbp)
	movq	%rdi, %rax
	movq	-56(%rbp), %rdi
	movq	%rax, -48(%rbp)
	movq	%rax, -32(%rbp)
	movq	%rdi, -24(%rbp)
Ltmp483:
	.loc	12 1214 22 prologue_end
	callq	__ZN12tracing_core4span6Record3new17hdad9b3bd395b50b6E
	movq	-48(%rbp), %rdi
	movq	%rax, -40(%rbp)
Ltmp484:
	.loc	12 1215 16
	movq	(%rdi), %rdx
	movl	$1, %eax
	xorl	%ecx, %ecx
	cmpq	$0, %rdx
	cmoveq	%rcx, %rax
	cmpq	$1, %rax
	jne	LBB87_2
	.loc	12 0 16 is_stmt 0
	movq	-48(%rbp), %rdi
	.loc	12 1215 21
	movq	%rdi, -16(%rbp)
	.loc	12 1216 13 is_stmt 1
	leaq	-40(%rbp), %rsi
	callq	__ZN7tracing4span5Inner6record17h64059e3a2c23b146E
Ltmp485:
LBB87_2:
	.loc	12 0 13 is_stmt 0
	movq	-48(%rbp), %rax
Ltmp486:
	.loc	12 1219 16 is_stmt 1
	movq	24(%rax), %rdx
	movl	$1, %eax
	xorl	%ecx, %ecx
	cmpq	$0, %rdx
	cmoveq	%rcx, %rax
	cmpq	$1, %rax
	jne	LBB87_4
	.loc	12 0 16 is_stmt 0
	movq	-48(%rbp), %rax
	.loc	12 1219 21
	movq	24(%rax), %rax
	movq	%rax, -8(%rbp)
Ltmp487:
LBB87_4:
	.loc	12 0 21
	movq	-48(%rbp), %rax
	.loc	12 1235 6 is_stmt 1
	addq	$64, %rsp
	popq	%rbp
	retq
Ltmp488:
Lfunc_end87:
	.cfi_endproc

	.p2align	4, 0x90
__ZN7tracing4span4Span11is_disabled17h659124fa8e6cc353E:
Lfunc_begin88:
	.loc	12 1244 0
	.cfi_startproc
	pushq	%rbp
	.cfi_def_cfa_offset 16
	.cfi_offset %rbp, -16
	movq	%rsp, %rbp
	.cfi_def_cfa_register %rbp
	subq	$16, %rsp
	movq	%rdi, -8(%rbp)
Ltmp489:
	.loc	12 1245 9 prologue_end
	callq	__ZN4core6option15Option$LT$T$GT$7is_none17he178bb7f325901b7E
	.loc	12 1246 6
	andb	$1, %al
	movzbl	%al, %eax
	addq	$16, %rsp
	popq	%rbp
	retq
Ltmp490:
Lfunc_end88:
	.cfi_endproc

	.globl	__ZN7tracing4span4Span2id17h2611de8a4278fc6aE
	.p2align	4, 0x90
__ZN7tracing4span4Span2id17h2611de8a4278fc6aE:
Lfunc_begin89:
	.loc	12 1320 0
	.cfi_startproc
	pushq	%rbp
	.cfi_def_cfa_offset 16
	.cfi_offset %rbp, -16
	movq	%rsp, %rbp
	.cfi_def_cfa_register %rbp
	subq	$16, %rsp
	movq	%rdi, -8(%rbp)
Ltmp491:
	.loc	12 1321 9 prologue_end
	callq	__ZN4core6option15Option$LT$T$GT$6as_ref17he96e5b58798f11d9E
	movq	%rax, %rdi
	callq	__ZN4core6option15Option$LT$T$GT$3map17h73c7b7ace92354daE
	.loc	12 1322 6
	addq	$16, %rsp
	popq	%rbp
	retq
Ltmp492:
Lfunc_end89:
	.cfi_endproc

	.globl	__ZN7tracing4span4Span8metadata17h637252beb795e211E
	.p2align	4, 0x90
__ZN7tracing4span4Span8metadata17h637252beb795e211E:
Lfunc_begin90:
	.loc	12 1325 0
	.cfi_startproc
	pushq	%rbp
	.cfi_def_cfa_offset 16
	.cfi_offset %rbp, -16
	movq	%rsp, %rbp
	.cfi_def_cfa_register %rbp
	pushq	%rax
	movq	%rdi, -8(%rbp)
Ltmp493:
	.loc	12 1326 9 prologue_end
	movq	24(%rdi), %rax
	.loc	12 1327 6
	addq	$8, %rsp
	popq	%rbp
	retq
Ltmp494:
Lfunc_end90:
	.cfi_endproc

	.globl	__ZN60_$LT$tracing..span..Span$u20$as$u20$core..cmp..PartialEq$GT$2eq17hd9d8d6f141df8f5cE
	.p2align	4, 0x90
__ZN60_$LT$tracing..span..Span$u20$as$u20$core..cmp..PartialEq$GT$2eq17hd9d8d6f141df8f5cE:
Lfunc_begin91:
	.loc	12 1376 0
	.cfi_startproc
	pushq	%rbp
	.cfi_def_cfa_offset 16
	.cfi_offset %rbp, -16
	movq	%rsp, %rbp
	.cfi_def_cfa_register %rbp
	subq	$112, %rsp
	movq	%rdi, -104(%rbp)
	movq	%rsi, -96(%rbp)
	movq	%rdi, -32(%rbp)
	movq	%rsi, -24(%rbp)
Ltmp495:
	.loc	12 1377 16 prologue_end
	addq	$24, %rdi
	.loc	12 1377 28 is_stmt 0
	addq	$24, %rsi
	.loc	12 1377 15
	movq	%rdi, -80(%rbp)
	movq	%rsi, -72(%rbp)
	movq	-80(%rbp), %rax
	movq	(%rax), %rdx
	movl	$1, %eax
	xorl	%ecx, %ecx
	cmpq	$0, %rdx
	cmoveq	%rcx, %rax
	.loc	12 1377 9
	cmpq	$1, %rax
	jne	LBB91_2
	.loc	12 1377 15
	movq	-72(%rbp), %rax
	movq	(%rax), %rdx
	movl	$1, %eax
	xorl	%ecx, %ecx
	cmpq	$0, %rdx
	cmoveq	%rcx, %rax
	.loc	12 1377 9
	cmpq	$1, %rax
	je	LBB91_3
LBB91_2:
	.loc	12 1381 18 is_stmt 1
	movb	$0, -81(%rbp)
	jmp	LBB91_4
LBB91_3:
	.loc	12 1378 19
	movq	-80(%rbp), %rax
	movq	%rax, -16(%rbp)
	.loc	12 1378 31 is_stmt 0
	movq	-72(%rbp), %rcx
	movq	%rcx, -112(%rbp)
	movq	%rcx, -8(%rbp)
Ltmp496:
	.loc	12 1379 17 is_stmt 1
	movq	(%rax), %rdi
	callq	__ZN12tracing_core8metadata8Metadata8callsite17h1b4f9753de5e7fcbE
	movq	%rax, %rcx
	movq	-112(%rbp), %rax
	movq	%rdx, -56(%rbp)
	movq	%rcx, -64(%rbp)
	.loc	12 1379 36 is_stmt 0
	movq	(%rax), %rdi
	callq	__ZN12tracing_core8metadata8Metadata8callsite17h1b4f9753de5e7fcbE
	movq	%rdx, -40(%rbp)
	movq	%rax, -48(%rbp)
	.loc	12 1379 17
	leaq	-64(%rbp), %rdi
	leaq	-48(%rbp), %rsi
	callq	__ZN75_$LT$tracing_core..callsite..Identifier$u20$as$u20$core..cmp..PartialEq$GT$2eq17h1c515e9c39b56a80E
	testb	$1, %al
	jne	LBB91_6
	jmp	LBB91_5
Ltmp497:
LBB91_4:
	.loc	12 1383 6 is_stmt 1
	movb	-81(%rbp), %al
	andb	$1, %al
	movzbl	%al, %eax
	addq	$112, %rsp
	popq	%rbp
	retq
LBB91_5:
Ltmp498:
	.loc	12 1379 17
	movb	$0, -81(%rbp)
	jmp	LBB91_4
LBB91_6:
	.loc	12 0 17 is_stmt 0
	movq	-96(%rbp), %rsi
	movq	-104(%rbp), %rdi
	.loc	12 1379 55
	callq	__ZN70_$LT$core..option..Option$LT$T$GT$$u20$as$u20$core..cmp..PartialEq$GT$2eq17h75bb64eae4ae4f7eE
	.loc	12 1379 17
	andb	$1, %al
	movb	%al, -81(%rbp)
	jmp	LBB91_4
Ltmp499:
Lfunc_end91:
	.cfi_endproc

	.globl	__ZN56_$LT$tracing..span..Span$u20$as$u20$core..fmt..Debug$GT$3fmt17h1573a892e63b4ef5E
	.p2align	4, 0x90
__ZN56_$LT$tracing..span..Span$u20$as$u20$core..fmt..Debug$GT$3fmt17h1573a892e63b4ef5E:
Lfunc_begin92:
	.loc	12 1393 0 is_stmt 1
	.cfi_startproc
	pushq	%rbp
	.cfi_def_cfa_offset 16
	.cfi_offset %rbp, -16
	movq	%rsp, %rbp
	.cfi_def_cfa_register %rbp
	subq	$192, %rsp
	movq	%rdi, -168(%rbp)
	movq	%rdi, -32(%rbp)
	movq	%rsi, -24(%rbp)
Ltmp500:
	.loc	12 1394 24 prologue_end
	leaq	-160(%rbp), %rdi
	leaq	L___unnamed_21(%rip), %rdx
	movl	$4, %ecx
	callq	__ZN4core3fmt9Formatter12debug_struct17hb330e0caa577ed3dE
	movq	-168(%rbp), %rdi
Ltmp501:
	.loc	12 1395 16
	movq	24(%rdi), %rdx
	movl	$1, %eax
	xorl	%ecx, %ecx
	cmpq	$0, %rdx
	cmoveq	%rcx, %rax
	cmpq	$1, %rax
	jne	LBB92_2
	.loc	12 0 16 is_stmt 0
	movq	-168(%rbp), %rax
	.loc	12 1395 21
	movq	24(%rax), %rdi
	movq	%rdi, -184(%rbp)
	movq	%rdi, -16(%rbp)
	.loc	12 1396 33 is_stmt 1
	callq	__ZN12tracing_core8metadata8Metadata4name17h61504630c005ade6E
	movq	%rdx, -136(%rbp)
	movq	%rax, -144(%rbp)
	.loc	12 1396 13 is_stmt 0
	leaq	L___unnamed_22(%rip), %rsi
	leaq	l___unnamed_3(%rip), %r8
	leaq	-160(%rbp), %rdi
	movl	$4, %edx
	leaq	-144(%rbp), %rcx
	callq	__ZN4core3fmt8builders11DebugStruct5field17h2147d02d385887f6E
	movq	-184(%rbp), %rdi
	movq	%rax, -192(%rbp)
	.loc	12 1397 34 is_stmt 1
	callq	__ZN12tracing_core8metadata8Metadata5level17h0870caa6c8c43a79E
	movq	-192(%rbp), %rdi
	movq	%rax, -128(%rbp)
	.loc	12 1396 13
	leaq	l___unnamed_23(%rip), %rsi
	leaq	l___unnamed_4(%rip), %r8
	movl	$5, %edx
	leaq	-128(%rbp), %rcx
	callq	__ZN4core3fmt8builders11DebugStruct5field17h2147d02d385887f6E
	movq	-184(%rbp), %rdi
	movq	%rax, -176(%rbp)
	.loc	12 1398 35
	callq	__ZN12tracing_core8metadata8Metadata6target17h63aa00e53dc17e8dE
	movq	-176(%rbp), %rdi
	movq	%rdx, -112(%rbp)
	movq	%rax, -120(%rbp)
	.loc	12 1396 13
	leaq	l___unnamed_24(%rip), %rsi
	movl	$6, %edx
	leaq	-120(%rbp), %rcx
	leaq	l___unnamed_3(%rip), %r8
	callq	__ZN4core3fmt8builders11DebugStruct5field17h2147d02d385887f6E
	movq	-168(%rbp), %rax
Ltmp502:
	.loc	12 1400 20
	movq	(%rax), %rdx
	movl	$1, %eax
	xorl	%ecx, %ecx
	cmpq	$0, %rdx
	cmoveq	%rcx, %rax
	cmpq	$1, %rax
	je	LBB92_4
	jmp	LBB92_5
Ltmp503:
LBB92_2:
	.loc	12 1418 13
	leaq	-160(%rbp), %rdi
	leaq	L___unnamed_25(%rip), %rsi
	movl	$4, %edx
	leaq	l___unnamed_26(%rip), %rcx
	leaq	l___unnamed_2(%rip), %r8
	callq	__ZN4core3fmt8builders11DebugStruct5field17h2147d02d385887f6E
LBB92_3:
	.loc	12 1421 9
	leaq	-160(%rbp), %rdi
	callq	__ZN4core3fmt8builders11DebugStruct6finish17h081d244274ea39b1E
Ltmp504:
	.loc	12 1422 6
	andb	$1, %al
	movzbl	%al, %eax
	addq	$192, %rsp
	popq	%rbp
	retq
LBB92_4:
	.loc	12 0 6 is_stmt 0
	movq	-168(%rbp), %rdi
Ltmp505:
	.loc	12 1400 25 is_stmt 1
	movq	%rdi, -8(%rbp)
	.loc	12 1401 35
	callq	__ZN7tracing4span5Inner2id17h49f3ff62a4a8e0f4E
	movq	%rax, -104(%rbp)
	.loc	12 1401 17 is_stmt 0
	leaq	-160(%rbp), %rdi
	leaq	l___unnamed_27(%rip), %rsi
	movl	$2, %edx
	leaq	-104(%rbp), %rcx
	leaq	l___unnamed_5(%rip), %r8
	callq	__ZN4core3fmt8builders11DebugStruct5field17h2147d02d385887f6E
	jmp	LBB92_6
Ltmp506:
LBB92_5:
	.loc	12 1403 17 is_stmt 1
	leaq	-160(%rbp), %rdi
	leaq	L___unnamed_28(%rip), %rsi
	movl	$8, %edx
	leaq	l___unnamed_26(%rip), %rcx
	leaq	l___unnamed_2(%rip), %r8
	callq	__ZN4core3fmt8builders11DebugStruct5field17h2147d02d385887f6E
LBB92_6:
	.loc	12 0 17 is_stmt 0
	movq	-184(%rbp), %rdi
Ltmp507:
	.loc	12 1406 37 is_stmt 1
	callq	__ZN12tracing_core8metadata8Metadata11module_path17hc218819ab614dc9fE
	movq	%rdx, -88(%rbp)
	movq	%rax, -96(%rbp)
	.loc	12 1406 20 is_stmt 0
	movq	-96(%rbp), %rdx
	movl	$1, %eax
	xorl	%ecx, %ecx
	cmpq	$0, %rdx
	cmoveq	%rcx, %rax
	cmpq	$1, %rax
	jne	LBB92_8
	.loc	12 1406 25
	leaq	-96(%rbp), %rax
	movq	%rax, -80(%rbp)
	.loc	12 1407 17 is_stmt 1
	leaq	-160(%rbp), %rdi
	leaq	l___unnamed_29(%rip), %rsi
	movl	$11, %edx
	leaq	-80(%rbp), %rcx
	leaq	l___unnamed_6(%rip), %r8
	callq	__ZN4core3fmt8builders11DebugStruct5field17h2147d02d385887f6E
Ltmp508:
LBB92_8:
	.loc	12 0 17 is_stmt 0
	movq	-184(%rbp), %rdi
Ltmp509:
	.loc	12 1410 37 is_stmt 1
	callq	__ZN12tracing_core8metadata8Metadata4line17he633e33d50f671a9E
	movl	%edx, -68(%rbp)
	movl	%eax, -72(%rbp)
	.loc	12 1410 20 is_stmt 0
	movl	-72(%rbp), %eax
	cmpq	$1, %rax
	jne	LBB92_10
	.loc	12 1410 25
	leaq	-72(%rbp), %rax
	addq	$4, %rax
	movq	%rax, -64(%rbp)
	.loc	12 1411 17 is_stmt 1
	leaq	-160(%rbp), %rdi
	leaq	L___unnamed_30(%rip), %rsi
	movl	$4, %edx
	leaq	-64(%rbp), %rcx
	leaq	l___unnamed_7(%rip), %r8
	callq	__ZN4core3fmt8builders11DebugStruct5field17h2147d02d385887f6E
Ltmp510:
LBB92_10:
	.loc	12 0 17 is_stmt 0
	movq	-184(%rbp), %rdi
Ltmp511:
	.loc	12 1414 37 is_stmt 1
	callq	__ZN12tracing_core8metadata8Metadata4file17he4bfe3600b0a360fE
	movq	%rdx, -48(%rbp)
	movq	%rax, -56(%rbp)
	.loc	12 1414 20 is_stmt 0
	movq	-56(%rbp), %rdx
	movl	$1, %eax
	xorl	%ecx, %ecx
	cmpq	$0, %rdx
	cmoveq	%rcx, %rax
	cmpq	$1, %rax
	jne	LBB92_3
	.loc	12 1414 25
	leaq	-56(%rbp), %rax
	movq	%rax, -40(%rbp)
	.loc	12 1415 17 is_stmt 1
	leaq	-160(%rbp), %rdi
	leaq	L___unnamed_31(%rip), %rsi
	movl	$4, %edx
	leaq	-40(%rbp), %rcx
	leaq	l___unnamed_6(%rip), %r8
	callq	__ZN4core3fmt8builders11DebugStruct5field17h2147d02d385887f6E
	jmp	LBB92_3
Ltmp512:
Lfunc_end92:
	.cfi_endproc

	.globl	__ZN7tracing4span135_$LT$impl$u20$core..convert..From$LT$$RF$tracing..span..Span$GT$$u20$for$u20$core..option..Option$LT$$RF$tracing_core..span..Id$GT$$GT$4from17h91b05fedf75b257cE
	.p2align	4, 0x90
__ZN7tracing4span135_$LT$impl$u20$core..convert..From$LT$$RF$tracing..span..Span$GT$$u20$for$u20$core..option..Option$LT$$RF$tracing_core..span..Id$GT$$GT$4from17h91b05fedf75b257cE:
Lfunc_begin93:
	.loc	12 1426 0
	.cfi_startproc
	pushq	%rbp
	.cfi_def_cfa_offset 16
	.cfi_offset %rbp, -16
	movq	%rsp, %rbp
	.cfi_def_cfa_register %rbp
	subq	$16, %rsp
	movq	%rdi, -8(%rbp)
Ltmp513:
	.loc	12 1427 9 prologue_end
	callq	__ZN4core6option15Option$LT$T$GT$6as_ref17he96e5b58798f11d9E
	movq	%rax, %rdi
	callq	__ZN4core6option15Option$LT$T$GT$3map17h3acf6873f0e3f49cE
	.loc	12 1428 6
	addq	$16, %rsp
	popq	%rbp
	retq
Ltmp514:
Lfunc_end93:
	.cfi_endproc

	.p2align	4, 0x90
__ZN7tracing4span135_$LT$impl$u20$core..convert..From$LT$$RF$tracing..span..Span$GT$$u20$for$u20$core..option..Option$LT$$RF$tracing_core..span..Id$GT$$GT$4from28_$u7b$$u7b$closure$u7d$$u7d$17h106b1dbd4c3e03c6E:
Lfunc_begin94:
	.loc	12 1427 0
	.cfi_startproc
	pushq	%rbp
	.cfi_def_cfa_offset 16
	.cfi_offset %rbp, -16
	movq	%rsp, %rbp
	.cfi_def_cfa_register %rbp
	subq	$16, %rsp
	movq	%rdi, %rax
	movq	%rax, -8(%rbp)
Ltmp515:
	.loc	12 1427 41 prologue_end
	addq	$16, %rax
	.loc	12 1427 50 is_stmt 0
	addq	$16, %rsp
	popq	%rbp
	retq
Ltmp516:
Lfunc_end94:
	.cfi_endproc

	.globl	__ZN7tracing4span131_$LT$impl$u20$core..convert..From$LT$$RF$tracing..span..Span$GT$$u20$for$u20$core..option..Option$LT$tracing_core..span..Id$GT$$GT$4from17hbd10642e10d43da7E
	.p2align	4, 0x90
__ZN7tracing4span131_$LT$impl$u20$core..convert..From$LT$$RF$tracing..span..Span$GT$$u20$for$u20$core..option..Option$LT$tracing_core..span..Id$GT$$GT$4from17hbd10642e10d43da7E:
Lfunc_begin95:
	.loc	12 1432 0 is_stmt 1
	.cfi_startproc
	pushq	%rbp
	.cfi_def_cfa_offset 16
	.cfi_offset %rbp, -16
	movq	%rsp, %rbp
	.cfi_def_cfa_register %rbp
	subq	$16, %rsp
	movq	%rdi, -8(%rbp)
Ltmp517:
	.loc	12 1433 9 prologue_end
	callq	__ZN4core6option15Option$LT$T$GT$6as_ref17he96e5b58798f11d9E
	movq	%rax, %rdi
	callq	__ZN4core6option15Option$LT$T$GT$3map17h73c7b7ace92354daE
	.loc	12 1434 6
	addq	$16, %rsp
	popq	%rbp
	retq
Ltmp518:
Lfunc_end95:
	.cfi_endproc

	.globl	__ZN7tracing4span127_$LT$impl$u20$core..convert..From$LT$tracing..span..Span$GT$$u20$for$u20$core..option..Option$LT$tracing_core..span..Id$GT$$GT$4from17h7baaabdef0a77454E
	.p2align	4, 0x90
__ZN7tracing4span127_$LT$impl$u20$core..convert..From$LT$tracing..span..Span$GT$$u20$for$u20$core..option..Option$LT$tracing_core..span..Id$GT$$GT$4from17h7baaabdef0a77454E:
Lfunc_begin96:
	.loc	12 1438 0
	.cfi_startproc
	.cfi_personality 155, _rust_eh_personality
	.cfi_lsda 16, Lexception18
	pushq	%rbp
	.cfi_def_cfa_offset 16
	.cfi_offset %rbp, -16
	movq	%rsp, %rbp
	.cfi_def_cfa_register %rbp
	subq	$48, %rsp
	movq	%rdi, -32(%rbp)
Ltmp527:
Ltmp519:
	.loc	12 1439 9 prologue_end
	callq	__ZN4core6option15Option$LT$T$GT$6as_ref17he96e5b58798f11d9E
Ltmp528:
Ltmp520:
	.loc	12 0 9 is_stmt 0
	movq	%rax, -24(%rbp)
Ltmp529:
	.loc	12 1439 9
	jmp	LBB96_3
Ltmp530:
LBB96_1:
Ltmp524:
	.loc	12 0 9
	movq	-32(%rbp), %rdi
	.loc	12 1440 5 is_stmt 1
	callq	__ZN4core3ptr40drop_in_place$LT$tracing..span..Span$GT$17h495c0ea0f9a5525cE
Ltmp525:
	jmp	LBB96_6
Ltmp531:
LBB96_2:
Ltmp523:
	.loc	12 0 5 is_stmt 0
	movq	%rax, %rcx
	movl	%edx, %eax
	movq	%rcx, -16(%rbp)
	movl	%eax, -8(%rbp)
	jmp	LBB96_1
Ltmp532:
LBB96_3:
Ltmp521:
	movq	-24(%rbp), %rdi
	.loc	12 1439 9 is_stmt 1
	callq	__ZN4core6option15Option$LT$T$GT$3map17h73c7b7ace92354daE
Ltmp522:
	movq	%rax, -40(%rbp)
	jmp	LBB96_4
Ltmp533:
LBB96_4:
	.loc	12 0 9 is_stmt 0
	movq	-32(%rbp), %rdi
	.loc	12 1440 5 is_stmt 1
	callq	__ZN4core3ptr40drop_in_place$LT$tracing..span..Span$GT$17h495c0ea0f9a5525cE
	movq	-40(%rbp), %rax
	.loc	12 1440 6 is_stmt 0
	addq	$48, %rsp
	popq	%rbp
	retq
Ltmp534:
LBB96_5:
Ltmp526:
	.loc	12 1438 5 is_stmt 1
	callq	__ZN4core9panicking19panic_cannot_unwind17h1fbca7e1d7f56ae1E
Ltmp535:
LBB96_6:
	movq	-16(%rbp), %rdi
	callq	__Unwind_Resume
Ltmp536:
Lfunc_end96:
	.cfi_endproc
	.section	__TEXT,__gcc_except_tab
	.p2align	2
GCC_except_table96:
Lexception18:
	.byte	255
	.byte	255
	.byte	1
	.uleb128 Lcst_end18-Lcst_begin18
Lcst_begin18:
	.uleb128 Ltmp519-Lfunc_begin96
	.uleb128 Ltmp520-Ltmp519
	.uleb128 Ltmp523-Lfunc_begin96
	.byte	0
	.uleb128 Ltmp524-Lfunc_begin96
	.uleb128 Ltmp525-Ltmp524
	.uleb128 Ltmp526-Lfunc_begin96
	.byte	0
	.uleb128 Ltmp521-Lfunc_begin96
	.uleb128 Ltmp522-Ltmp521
	.uleb128 Ltmp523-Lfunc_begin96
	.byte	0
	.uleb128 Ltmp522-Lfunc_begin96
	.uleb128 Lfunc_end96-Ltmp522
	.byte	0
	.byte	0
Lcst_end18:
	.p2align	2

	.section	__TEXT,__text,regular,pure_instructions
	.globl	__ZN7tracing4span142_$LT$impl$u20$core..convert..From$LT$$RF$tracing..span..EnteredSpan$GT$$u20$for$u20$core..option..Option$LT$$RF$tracing_core..span..Id$GT$$GT$4from17h4313d35f365c3010E
	.p2align	4, 0x90
__ZN7tracing4span142_$LT$impl$u20$core..convert..From$LT$$RF$tracing..span..EnteredSpan$GT$$u20$for$u20$core..option..Option$LT$$RF$tracing_core..span..Id$GT$$GT$4from17h4313d35f365c3010E:
Lfunc_begin97:
	.loc	12 1444 0
	.cfi_startproc
	pushq	%rbp
	.cfi_def_cfa_offset 16
	.cfi_offset %rbp, -16
	movq	%rsp, %rbp
	.cfi_def_cfa_register %rbp
	subq	$16, %rsp
	movq	%rdi, -8(%rbp)
Ltmp537:
	.loc	12 1445 9 prologue_end
	callq	__ZN70_$LT$tracing..span..EnteredSpan$u20$as$u20$core..ops..deref..Deref$GT$5deref17hb3ebd94e6ca2ba7fE
	movq	%rax, %rdi
	callq	__ZN4core6option15Option$LT$T$GT$6as_ref17he96e5b58798f11d9E
	movq	%rax, %rdi
	callq	__ZN4core6option15Option$LT$T$GT$3map17hecf65f4d5c278641E
	.loc	12 1446 6
	addq	$16, %rsp
	popq	%rbp
	retq
Ltmp538:
Lfunc_end97:
	.cfi_endproc

	.p2align	4, 0x90
__ZN7tracing4span142_$LT$impl$u20$core..convert..From$LT$$RF$tracing..span..EnteredSpan$GT$$u20$for$u20$core..option..Option$LT$$RF$tracing_core..span..Id$GT$$GT$4from28_$u7b$$u7b$closure$u7d$$u7d$17hee28222cf630153eE:
Lfunc_begin98:
	.loc	12 1445 0
	.cfi_startproc
	pushq	%rbp
	.cfi_def_cfa_offset 16
	.cfi_offset %rbp, -16
	movq	%rsp, %rbp
	.cfi_def_cfa_register %rbp
	subq	$16, %rsp
	movq	%rdi, %rax
	movq	%rax, -8(%rbp)
Ltmp539:
	.loc	12 1445 41 prologue_end
	addq	$16, %rax
	.loc	12 1445 50 is_stmt 0
	addq	$16, %rsp
	popq	%rbp
	retq
Ltmp540:
Lfunc_end98:
	.cfi_endproc

	.globl	__ZN7tracing4span138_$LT$impl$u20$core..convert..From$LT$$RF$tracing..span..EnteredSpan$GT$$u20$for$u20$core..option..Option$LT$tracing_core..span..Id$GT$$GT$4from17h2f9795d3c27d1ab9E
	.p2align	4, 0x90
__ZN7tracing4span138_$LT$impl$u20$core..convert..From$LT$$RF$tracing..span..EnteredSpan$GT$$u20$for$u20$core..option..Option$LT$tracing_core..span..Id$GT$$GT$4from17h2f9795d3c27d1ab9E:
Lfunc_begin99:
	.loc	12 1450 0 is_stmt 1
	.cfi_startproc
	pushq	%rbp
	.cfi_def_cfa_offset 16
	.cfi_offset %rbp, -16
	movq	%rsp, %rbp
	.cfi_def_cfa_register %rbp
	subq	$16, %rsp
	movq	%rdi, -8(%rbp)
Ltmp541:
	.loc	12 1451 9 prologue_end
	callq	__ZN70_$LT$tracing..span..EnteredSpan$u20$as$u20$core..ops..deref..Deref$GT$5deref17hb3ebd94e6ca2ba7fE
	movq	%rax, %rdi
	callq	__ZN4core6option15Option$LT$T$GT$6as_ref17he96e5b58798f11d9E
	movq	%rax, %rdi
	callq	__ZN4core6option15Option$LT$T$GT$3map17h73c7b7ace92354daE
	.loc	12 1452 6
	addq	$16, %rsp
	popq	%rbp
	retq
Ltmp542:
Lfunc_end99:
	.cfi_endproc

	.globl	__ZN7tracing4span5Inner12follows_from17h80aaa2350912baeeE
	.p2align	4, 0x90
__ZN7tracing4span5Inner12follows_from17h80aaa2350912baeeE:
Lfunc_begin100:
	.loc	12 1496 0
	.cfi_startproc
	pushq	%rbp
	.cfi_def_cfa_offset 16
	.cfi_offset %rbp, -16
	movq	%rsp, %rbp
	.cfi_def_cfa_register %rbp
	subq	$16, %rsp
	movq	%rsi, %rdx
	movq	%rdi, -16(%rbp)
	movq	%rdx, -8(%rbp)
Ltmp543:
	.loc	12 1497 45 prologue_end
	movq	%rdi, %rsi
	addq	$16, %rsi
	.loc	12 1497 9 is_stmt 0
	callq	__ZN12tracing_core10dispatcher8Dispatch19record_follows_from17h99d619fa61d9d8efE
	.loc	12 1498 6 is_stmt 1
	addq	$16, %rsp
	popq	%rbp
	retq
Ltmp544:
Lfunc_end100:
	.cfi_endproc

	.p2align	4, 0x90
__ZN7tracing4span5Inner2id17h49f3ff62a4a8e0f4E:
Lfunc_begin101:
	.loc	12 1501 0
	.cfi_startproc
	pushq	%rbp
	.cfi_def_cfa_offset 16
	.cfi_offset %rbp, -16
	movq	%rsp, %rbp
	.cfi_def_cfa_register %rbp
	subq	$16, %rsp
	movq	%rdi, -8(%rbp)
Ltmp545:
	.loc	12 1502 9 prologue_end
	addq	$16, %rdi
	callq	__ZN61_$LT$tracing_core..span..Id$u20$as$u20$core..clone..Clone$GT$5clone17h5ceeb5724ac8cbc7E
	.loc	12 1503 6
	addq	$16, %rsp
	popq	%rbp
	retq
Ltmp546:
Lfunc_end101:
	.cfi_endproc

	.p2align	4, 0x90
__ZN7tracing4span5Inner6record17h64059e3a2c23b146E:
Lfunc_begin102:
	.loc	12 1505 0
	.cfi_startproc
	pushq	%rbp
	.cfi_def_cfa_offset 16
	.cfi_offset %rbp, -16
	movq	%rsp, %rbp
	.cfi_def_cfa_register %rbp
	subq	$16, %rsp
	movq	%rsi, %rdx
	movq	%rdi, -16(%rbp)
	movq	%rdx, -8(%rbp)
Ltmp547:
	.loc	12 1506 32 prologue_end
	movq	%rdi, %rsi
	addq	$16, %rsi
	.loc	12 1506 9 is_stmt 0
	callq	__ZN12tracing_core10dispatcher8Dispatch6record17h267a77c374dfd0cbE
	.loc	12 1507 6 is_stmt 1
	addq	$16, %rsp
	popq	%rbp
	retq
Ltmp548:
Lfunc_end102:
	.cfi_endproc

	.p2align	4, 0x90
__ZN7tracing4span5Inner3new17h9b8d3f765ec9c04bE:
Lfunc_begin103:
	.loc	12 1509 0
	.cfi_startproc
	pushq	%rbp
	.cfi_def_cfa_offset 16
	.cfi_offset %rbp, -16
	movq	%rsp, %rbp
	.cfi_def_cfa_register %rbp
	subq	$48, %rsp
	movq	%rdx, -48(%rbp)
	movq	%rsi, -40(%rbp)
	movq	%rdi, %rax
	movq	-48(%rbp), %rdi
	movq	%rax, -32(%rbp)
	movq	%rax, -24(%rbp)
	movq	%rsi, -16(%rbp)
	movq	%rdi, -8(%rbp)
Ltmp549:
	.loc	12 1512 25 prologue_end
	callq	__ZN73_$LT$tracing_core..dispatcher..Dispatch$u20$as$u20$core..clone..Clone$GT$5clone17hb28ae3eb47673752E
	movq	-40(%rbp), %rsi
	movq	-32(%rbp), %rdi
	movq	%rax, %rcx
	movq	-24(%rbp), %rax
	.loc	12 1510 9
	movq	%rsi, 16(%rdi)
	movq	%rcx, (%rdi)
	movq	%rdx, 8(%rdi)
	.loc	12 1514 6
	addq	$48, %rsp
	popq	%rbp
	retq
Ltmp550:
Lfunc_end103:
	.cfi_endproc

	.globl	__ZN61_$LT$tracing..span..Inner$u20$as$u20$core..cmp..PartialEq$GT$2eq17h21e543ae6b10da88E
	.p2align	4, 0x90
__ZN61_$LT$tracing..span..Inner$u20$as$u20$core..cmp..PartialEq$GT$2eq17h21e543ae6b10da88E:
Lfunc_begin104:
	.loc	12 1518 0
	.cfi_startproc
	pushq	%rbp
	.cfi_def_cfa_offset 16
	.cfi_offset %rbp, -16
	movq	%rsp, %rbp
	.cfi_def_cfa_register %rbp
	subq	$16, %rsp
	movq	%rdi, -16(%rbp)
	movq	%rsi, -8(%rbp)
Ltmp551:
	.loc	12 1519 9 prologue_end
	addq	$16, %rdi
	.loc	12 1519 20 is_stmt 0
	addq	$16, %rsi
	.loc	12 1519 9
	callq	__ZN63_$LT$tracing_core..span..Id$u20$as$u20$core..cmp..PartialEq$GT$2eq17h0d01b4e705a73011E
	.loc	12 1520 6 is_stmt 1
	andb	$1, %al
	movzbl	%al, %eax
	addq	$16, %rsp
	popq	%rbp
	retq
Ltmp552:
Lfunc_end104:
	.cfi_endproc

	.globl	__ZN59_$LT$tracing..span..Inner$u20$as$u20$core..clone..Clone$GT$5clone17hd639b91e9f41c059E
	.p2align	4, 0x90
__ZN59_$LT$tracing..span..Inner$u20$as$u20$core..clone..Clone$GT$5clone17hd639b91e9f41c059E:
Lfunc_begin105:
	.loc	12 1530 0
	.cfi_startproc
	pushq	%rbp
	.cfi_def_cfa_offset 16
	.cfi_offset %rbp, -16
	movq	%rsp, %rbp
	.cfi_def_cfa_register %rbp
	subq	$48, %rsp
	movq	%rsi, -40(%rbp)
	movq	%rdi, %rax
	movq	-40(%rbp), %rdi
	movq	%rax, -24(%rbp)
	movq	%rax, -16(%rbp)
	movq	%rdi, -8(%rbp)
Ltmp553:
	.loc	12 1532 44 prologue_end
	movq	%rdi, %rsi
	addq	$16, %rsi
	.loc	12 1532 17 is_stmt 0
	callq	__ZN12tracing_core10dispatcher8Dispatch10clone_span17h46d9bdca7827a9a1E
	movq	-40(%rbp), %rdi
	movq	%rax, -32(%rbp)
	.loc	12 1533 25 is_stmt 1
	callq	__ZN73_$LT$tracing_core..dispatcher..Dispatch$u20$as$u20$core..clone..Clone$GT$5clone17hb28ae3eb47673752E
	movq	-32(%rbp), %rsi
	movq	-24(%rbp), %rdi
	movq	%rax, %rcx
	movq	-16(%rbp), %rax
	.loc	12 1531 9
	movq	%rsi, 16(%rdi)
	movq	%rcx, (%rdi)
	movq	%rdx, 8(%rdi)
	.loc	12 1535 6
	addq	$48, %rsp
	popq	%rbp
	retq
Ltmp554:
Lfunc_end105:
	.cfi_endproc

	.globl	__ZN7tracing4span11EnteredSpan2id17h0bee833264c47de7E
	.p2align	4, 0x90
__ZN7tracing4span11EnteredSpan2id17h0bee833264c47de7E:
Lfunc_begin106:
	.loc	12 1542 0
	.cfi_startproc
	pushq	%rbp
	.cfi_def_cfa_offset 16
	.cfi_offset %rbp, -16
	movq	%rsp, %rbp
	.cfi_def_cfa_register %rbp
	subq	$16, %rsp
	movq	%rdi, -8(%rbp)
Ltmp555:
	.loc	12 1543 9 prologue_end
	callq	__ZN70_$LT$tracing..span..EnteredSpan$u20$as$u20$core..ops..deref..Deref$GT$5deref17hb3ebd94e6ca2ba7fE
	movq	%rax, %rdi
	callq	__ZN4core6option15Option$LT$T$GT$6as_ref17he96e5b58798f11d9E
	movq	%rax, %rdi
	callq	__ZN4core6option15Option$LT$T$GT$3map17h73c7b7ace92354daE
	.loc	12 1544 6
	addq	$16, %rsp
	popq	%rbp
	retq
Ltmp556:
Lfunc_end106:
	.cfi_endproc

	.p2align	4, 0x90
__ZN70_$LT$tracing..span..EnteredSpan$u20$as$u20$core..ops..deref..Deref$GT$5deref17hb3ebd94e6ca2ba7fE:
Lfunc_begin107:
	.loc	12 1560 0
	.cfi_startproc
	pushq	%rbp
	.cfi_def_cfa_offset 16
	.cfi_offset %rbp, -16
	movq	%rsp, %rbp
	.cfi_def_cfa_register %rbp
	pushq	%rax
	movq	%rdi, %rax
	movq	%rax, -8(%rbp)
Ltmp557:
	.loc	12 1562 6 prologue_end
	addq	$8, %rsp
	popq	%rbp
	retq
Ltmp558:
Lfunc_end107:
	.cfi_endproc

	.globl	__ZN7tracing15__macro_support12__is_enabled17hca875284808c7eecE
	.p2align	4, 0x90
__ZN7tracing15__macro_support12__is_enabled17hca875284808c7eecE:
Lfunc_begin108:
	.file	17 "/Users/natalie/.cargo/registry/src/github.com-1ecc6299db9ec823/tracing-0.1.37" "src/lib.rs"
	.loc	17 995 0
	.cfi_startproc
	pushq	%rbp
	.cfi_def_cfa_offset 16
	.cfi_offset %rbp, -16
	movq	%rsp, %rbp
	.cfi_def_cfa_register %rbp
	subq	$32, %rsp
	movb	%sil, %al
	movq	%rdi, -24(%rbp)
	movb	%al, -10(%rbp)
Ltmp559:
	.loc	17 996 9 prologue_end
	leaq	-10(%rbp), %rdi
	callq	__ZN12tracing_core10subscriber8Interest9is_always17ha20a99b0f26f552dE
	testb	$1, %al
	jne	LBB108_2
	.loc	17 996 64 is_stmt 0
	leaq	-24(%rbp), %rax
	movq	%rax, -8(%rbp)
	.loc	17 996 33
	movq	-8(%rbp), %rdi
	callq	__ZN12tracing_core10dispatcher11get_default17hebb2587f35cf4d8fE
	.loc	17 996 9
	andb	$1, %al
	movb	%al, -9(%rbp)
	jmp	LBB108_3
LBB108_2:
	movb	$1, -9(%rbp)
LBB108_3:
	.loc	17 997 6 is_stmt 1
	movb	-9(%rbp), %al
	andb	$1, %al
	movzbl	%al, %eax
	addq	$32, %rsp
	popq	%rbp
	retq
Ltmp560:
Lfunc_end108:
	.cfi_endproc

	.p2align	4, 0x90
__ZN7tracing15__macro_support12__is_enabled28_$u7b$$u7b$closure$u7d$$u7d$17h5c8f0825eaac2f6aE:
Lfunc_begin109:
	.loc	17 996 0
	.cfi_startproc
	pushq	%rbp
	.cfi_def_cfa_offset 16
	.cfi_offset %rbp, -16
	movq	%rsp, %rbp
	.cfi_def_cfa_register %rbp
	subq	$32, %rsp
	movq	%rsi, -24(%rbp)
	movq	%rdi, %rax
	movq	-24(%rbp), %rdi
	movq	%rax, -16(%rbp)
	movq	%rdi, -8(%rbp)
Ltmp561:
	.loc	17 996 90 prologue_end
	movq	(%rax), %rax
	movq	(%rax), %rsi
	.loc	17 996 74 is_stmt 0
	callq	__ZN12tracing_core10dispatcher8Dispatch7enabled17h9271d331b6a92b97E
	.loc	17 996 95
	andb	$1, %al
	movzbl	%al, %eax
	addq	$32, %rsp
	popq	%rbp
	retq
Ltmp562:
Lfunc_end109:
	.cfi_endproc

	.globl	__ZN57_$LT$tracing..span..Inner$u20$as$u20$core..fmt..Debug$GT$3fmt17hcfdae9659d9eb0f2E
	.p2align	4, 0x90
__ZN57_$LT$tracing..span..Inner$u20$as$u20$core..fmt..Debug$GT$3fmt17hcfdae9659d9eb0f2E:
Lfunc_begin110:
	.loc	12 365 0 is_stmt 1
	.cfi_startproc
	pushq	%rbp
	.cfi_def_cfa_offset 16
	.cfi_offset %rbp, -16
	movq	%rsp, %rbp
	.cfi_def_cfa_register %rbp
	pushq	%rbx
	subq	$88, %rsp
	.cfi_offset %rbx, -24
	movq	%rsi, -48(%rbp)
	movq	%rdi, %rax
	movq	-48(%rbp), %rdi
	movq	%rax, -24(%rbp)
	movq	%rdi, -16(%rbp)
Ltmp563:
	.loc	12 368 5 prologue_end
	movq	%rax, %rcx
	addq	$16, %rcx
	movq	%rcx, -40(%rbp)
	.loc	12 374 5
	movq	%rax, -32(%rbp)
	.loc	12 365 10
	leaq	l___unnamed_32(%rip), %rsi
	movl	$5, %edx
	leaq	l___unnamed_27(%rip), %rcx
	movl	$2, %r8d
	leaq	-40(%rbp), %r9
	leaq	l___unnamed_8(%rip), %rbx
	leaq	l___unnamed_33(%rip), %r11
	leaq	-32(%rbp), %r10
	leaq	l___unnamed_9(%rip), %rax
	movq	%rbx, (%rsp)
	movq	%r11, 8(%rsp)
	movq	$10, 16(%rsp)
	movq	%r10, 24(%rsp)
	movq	%rax, 32(%rsp)
	callq	__ZN4core3fmt9Formatter26debug_struct_field2_finish17h6d8f05a66ed84642E
	.loc	12 365 15 is_stmt 0
	andb	$1, %al
	movzbl	%al, %eax
	addq	$88, %rsp
	popq	%rbx
	popq	%rbp
	retq
Ltmp564:
Lfunc_end110:
	.cfi_endproc

	.globl	__ZN59_$LT$tracing..span..Entered$u20$as$u20$core..fmt..Debug$GT$3fmt17h472380023c8d441bE
	.p2align	4, 0x90
__ZN59_$LT$tracing..span..Entered$u20$as$u20$core..fmt..Debug$GT$3fmt17h472380023c8d441bE:
Lfunc_begin111:
	.loc	12 385 0 is_stmt 1
	.cfi_startproc
	pushq	%rbp
	.cfi_def_cfa_offset 16
	.cfi_offset %rbp, -16
	movq	%rsp, %rbp
	.cfi_def_cfa_register %rbp
	subq	$48, %rsp
	movq	%rsi, -32(%rbp)
	movq	%rdi, %rax
	movq	-32(%rbp), %rdi
	movq	%rax, -16(%rbp)
	movq	%rdi, -8(%rbp)
Ltmp565:
	.loc	12 388 5 prologue_end
	movq	%rax, -24(%rbp)
	.loc	12 385 10
	leaq	l___unnamed_34(%rip), %rsi
	movl	$7, %edx
	leaq	L___unnamed_35(%rip), %rcx
	movl	$4, %r8d
	leaq	-24(%rbp), %r9
	leaq	l___unnamed_10(%rip), %rax
	movq	%rax, (%rsp)
	callq	__ZN4core3fmt9Formatter26debug_struct_field1_finish17ha7aba2fd90afbefeE
	.loc	12 385 15 is_stmt 0
	andb	$1, %al
	movzbl	%al, %eax
	addq	$48, %rsp
	popq	%rbp
	retq
Ltmp566:
Lfunc_end111:
	.cfi_endproc

	.globl	__ZN63_$LT$tracing..span..EnteredSpan$u20$as$u20$core..fmt..Debug$GT$3fmt17hae1bc05a87556eb5E
	.p2align	4, 0x90
__ZN63_$LT$tracing..span..EnteredSpan$u20$as$u20$core..fmt..Debug$GT$3fmt17hae1bc05a87556eb5E:
Lfunc_begin112:
	.loc	12 399 0 is_stmt 1
	.cfi_startproc
	pushq	%rbp
	.cfi_def_cfa_offset 16
	.cfi_offset %rbp, -16
	movq	%rsp, %rbp
	.cfi_def_cfa_register %rbp
	pushq	%rbx
	subq	$88, %rsp
	.cfi_offset %rbx, -24
	movq	%rsi, -48(%rbp)
	movq	%rdi, %rax
	movq	-48(%rbp), %rdi
	movq	%rax, -24(%rbp)
	movq	%rdi, -16(%rbp)
Ltmp567:
	.loc	12 402 5 prologue_end
	movq	%rax, -40(%rbp)
	.loc	12 410 5
	movq	%rax, -32(%rbp)
	.loc	12 399 10
	leaq	l___unnamed_36(%rip), %rsi
	movl	$11, %edx
	leaq	L___unnamed_35(%rip), %rcx
	movl	$4, %r8d
	leaq	-40(%rbp), %r9
	leaq	l___unnamed_11(%rip), %rbx
	leaq	l___unnamed_37(%rip), %r11
	leaq	-32(%rbp), %r10
	leaq	l___unnamed_12(%rip), %rax
	movq	%rbx, (%rsp)
	movq	%r11, 8(%rsp)
	movq	$9, 16(%rsp)
	movq	%r10, 24(%rsp)
	movq	%rax, 32(%rsp)
	callq	__ZN4core3fmt9Formatter26debug_struct_field2_finish17h6d8f05a66ed84642E
	.loc	12 399 15 is_stmt 0
	andb	$1, %al
	movzbl	%al, %eax
	addq	$88, %rsp
	popq	%rbx
	popq	%rbp
	retq
Ltmp568:
Lfunc_end112:
	.cfi_endproc

	.globl	__ZN66_$LT$tracing..span..PhantomNotSend$u20$as$u20$core..fmt..Debug$GT$3fmt17hd6e38c845845dfd6E
	.p2align	4, 0x90
__ZN66_$LT$tracing..span..PhantomNotSend$u20$as$u20$core..fmt..Debug$GT$3fmt17hd6e38c845845dfd6E:
Lfunc_begin113:
	.loc	12 1593 0 is_stmt 1
	.cfi_startproc
	pushq	%rbp
	.cfi_def_cfa_offset 16
	.cfi_offset %rbp, -16
	movq	%rsp, %rbp
	.cfi_def_cfa_register %rbp
	subq	$48, %rsp
	movq	%rsi, -32(%rbp)
	movq	%rdi, %rax
	movq	-32(%rbp), %rdi
	movq	%rax, -16(%rbp)
	movq	%rdi, -8(%rbp)
Ltmp569:
	.loc	12 1595 5 prologue_end
	movq	%rax, -24(%rbp)
	.loc	12 1593 10
	leaq	l___unnamed_38(%rip), %rsi
	movl	$14, %edx
	leaq	l___unnamed_39(%rip), %rcx
	movl	$5, %r8d
	leaq	-24(%rbp), %r9
	leaq	l___unnamed_13(%rip), %rax
	movq	%rax, (%rsp)
	callq	__ZN4core3fmt9Formatter26debug_struct_field1_finish17ha7aba2fd90afbefeE
	.loc	12 1593 15 is_stmt 0
	andb	$1, %al
	movzbl	%al, %eax
	addq	$48, %rsp
	popq	%rbp
	retq
Ltmp570:
Lfunc_end113:
	.cfi_endproc

	.section	__DATA,__const
	.p2align	3
l___unnamed_14:
	.quad	__ZN12tracing_core10dispatcher13CURRENT_STATE7__getit17ha3ab9be64daae4daE

	.section	__TEXT,__const
l___unnamed_40:
	.ascii	"/Users/natalie/.cargo/registry/src/github.com-1ecc6299db9ec823/tracing-core-0.1.30/src/dispatcher.rs"

	.section	__DATA,__const
	.p2align	3
l___unnamed_15:
	.quad	l___unnamed_40
	.asciz	"d\000\000\000\000\000\000\000.\003\000\000&\000\000"

	.p2align	3
l___unnamed_1:
	.quad	__ZN4core3ptr59drop_in_place$LT$tracing_core..subscriber..NoSubscriber$GT$17h855388804f3b450eE
	.asciz	"\000\000\000\000\000\000\000\000\001\000\000\000\000\000\000"
	.quad	__ZN12tracing_core10subscriber10Subscriber20on_register_dispatch17h03c55268fbac802eE
	.quad	__ZN95_$LT$tracing_core..subscriber..NoSubscriber$u20$as$u20$tracing_core..subscriber..Subscriber$GT$17register_callsite17he55c1b45d0b6e0a5E
	.quad	__ZN95_$LT$tracing_core..subscriber..NoSubscriber$u20$as$u20$tracing_core..subscriber..Subscriber$GT$7enabled17h43c1a35c2b2881c7E
	.quad	__ZN12tracing_core10subscriber10Subscriber14max_level_hint17h8a304cf17d3595b0E
	.quad	__ZN95_$LT$tracing_core..subscriber..NoSubscriber$u20$as$u20$tracing_core..subscriber..Subscriber$GT$8new_span17hd592884b7a54cc7fE
	.quad	__ZN95_$LT$tracing_core..subscriber..NoSubscriber$u20$as$u20$tracing_core..subscriber..Subscriber$GT$6record17h689a4e4ce220f0e6E
	.quad	__ZN95_$LT$tracing_core..subscriber..NoSubscriber$u20$as$u20$tracing_core..subscriber..Subscriber$GT$19record_follows_from17h49996d0b52cdd02bE
	.quad	__ZN12tracing_core10subscriber10Subscriber13event_enabled17hb303dc0aa3b41983E
	.quad	__ZN95_$LT$tracing_core..subscriber..NoSubscriber$u20$as$u20$tracing_core..subscriber..Subscriber$GT$5event17h1e044fabb9241d08E
	.quad	__ZN95_$LT$tracing_core..subscriber..NoSubscriber$u20$as$u20$tracing_core..subscriber..Subscriber$GT$5enter17h00652214b3414073E
	.quad	__ZN95_$LT$tracing_core..subscriber..NoSubscriber$u20$as$u20$tracing_core..subscriber..Subscriber$GT$4exit17hdbb763ac918fd6e1E
	.quad	__ZN12tracing_core10subscriber10Subscriber10clone_span17h9de8379277bd45dcE
	.quad	__ZN12tracing_core10subscriber10Subscriber9drop_span17hbf3573fc5f352586E
	.quad	__ZN12tracing_core10subscriber10Subscriber9try_close17h4dfb1c29a5972b4cE
	.quad	__ZN12tracing_core10subscriber10Subscriber12current_span17hdbf20f39d5af00e7E
	.quad	__ZN12tracing_core10subscriber10Subscriber12downcast_raw17h2ee7a319d7c4d383E

	.section	__TEXT,__const
l___unnamed_16:
	.ascii	"*mut ()"

l___unnamed_41:
	.ascii	"invalid args"

	.section	__DATA,__const
	.p2align	3
l___unnamed_17:
	.quad	l___unnamed_41
	.asciz	"\f\000\000\000\000\000\000"

	.section	__TEXT,__const
	.p2align	3
l___unnamed_18:
	.byte	0

l___unnamed_42:
	.ascii	"/rustc/2c8cc343237b8f7d5a3c3703e3a87f2eb2c54a74/library/core/src/fmt/mod.rs"

	.section	__DATA,__const
	.p2align	3
l___unnamed_19:
	.quad	l___unnamed_42
	.asciz	"K\000\000\000\000\000\000\000\221\001\000\000\r\000\000"

	.section	__TEXT,__const
l___unnamed_43:
	.ascii	"PhantomData<"

l___unnamed_44:
	.byte	62

	.section	__DATA,__const
	.p2align	3
l___unnamed_20:
	.quad	l___unnamed_43
	.asciz	"\f\000\000\000\000\000\000"
	.quad	l___unnamed_44
	.asciz	"\001\000\000\000\000\000\000"

	.section	__TEXT,__literal4,4byte_literals
L___unnamed_21:
	.ascii	"Span"

L___unnamed_25:
	.ascii	"none"

	.section	__TEXT,__const
l___unnamed_26:
	.byte	1

	.section	__DATA,__const
	.p2align	3
l___unnamed_2:
	.quad	__ZN4core3ptr25drop_in_place$LT$bool$GT$17hc8fd2f089f43dfffE
	.asciz	"\001\000\000\000\000\000\000\000\001\000\000\000\000\000\000"
	.quad	__ZN41_$LT$bool$u20$as$u20$core..fmt..Debug$GT$3fmt17hc0d2daa890317c8aE

	.section	__TEXT,__literal4,4byte_literals
L___unnamed_22:
	.ascii	"name"

	.section	__DATA,__const
	.p2align	3
l___unnamed_3:
	.quad	__ZN4core3ptr28drop_in_place$LT$$RF$str$GT$17h0f604d73412cbf09E
	.asciz	"\020\000\000\000\000\000\000\000\b\000\000\000\000\000\000"
	.quad	__ZN42_$LT$$RF$T$u20$as$u20$core..fmt..Debug$GT$3fmt17ha9d743b321e8bd39E

	.section	__TEXT,__const
l___unnamed_23:
	.ascii	"level"

	.section	__DATA,__const
	.p2align	3
l___unnamed_4:
	.quad	__ZN4core3ptr54drop_in_place$LT$$RF$tracing_core..metadata..Level$GT$17he65bc7c379670c9dE
	.asciz	"\b\000\000\000\000\000\000\000\b\000\000\000\000\000\000"
	.quad	__ZN42_$LT$$RF$T$u20$as$u20$core..fmt..Debug$GT$3fmt17h3a2e616876b3274aE

	.section	__TEXT,__const
l___unnamed_24:
	.ascii	"target"

	.section	__TEXT,__literal8,8byte_literals
L___unnamed_28:
	.ascii	"disabled"

	.section	__TEXT,__const
l___unnamed_27:
	.ascii	"id"

	.section	__DATA,__const
	.p2align	3
l___unnamed_5:
	.quad	__ZN4core3ptr43drop_in_place$LT$tracing_core..span..Id$GT$17hba403f57a585d613E
	.asciz	"\b\000\000\000\000\000\000\000\b\000\000\000\000\000\000"
	.quad	__ZN59_$LT$tracing_core..span..Id$u20$as$u20$core..fmt..Debug$GT$3fmt17h55d0ee95e5d4cfbfE

	.section	__TEXT,__const
l___unnamed_29:
	.ascii	"module_path"

	.section	__DATA,__const
	.p2align	3
l___unnamed_6:
	.quad	__ZN4core3ptr32drop_in_place$LT$$RF$$RF$str$GT$17had3a5c94348c80bfE
	.asciz	"\b\000\000\000\000\000\000\000\b\000\000\000\000\000\000"
	.quad	__ZN42_$LT$$RF$T$u20$as$u20$core..fmt..Debug$GT$3fmt17hdec564abcf13af23E

	.section	__TEXT,__literal4,4byte_literals
L___unnamed_30:
	.ascii	"line"

	.section	__DATA,__const
	.p2align	3
l___unnamed_7:
	.quad	__ZN4core3ptr28drop_in_place$LT$$RF$u32$GT$17h6152d2b55133c280E
	.asciz	"\b\000\000\000\000\000\000\000\b\000\000\000\000\000\000"
	.quad	__ZN42_$LT$$RF$T$u20$as$u20$core..fmt..Debug$GT$3fmt17h7b11f970ffca6aeaE

	.section	__TEXT,__literal4,4byte_literals
L___unnamed_31:
	.ascii	"file"

	.section	__TEXT,__const
l___unnamed_32:
	.ascii	"Inner"

	.section	__DATA,__const
	.p2align	3
l___unnamed_8:
	.quad	__ZN4core3ptr47drop_in_place$LT$$RF$tracing_core..span..Id$GT$17h7d776788f3eab5c7E
	.asciz	"\b\000\000\000\000\000\000\000\b\000\000\000\000\000\000"
	.quad	__ZN42_$LT$$RF$T$u20$as$u20$core..fmt..Debug$GT$3fmt17h5973d53af1269b55E

	.section	__TEXT,__const
l___unnamed_33:
	.ascii	"subscriber"

	.section	__DATA,__const
	.p2align	3
l___unnamed_9:
	.quad	__ZN4core3ptr59drop_in_place$LT$$RF$tracing_core..dispatcher..Dispatch$GT$17hb72fa34d9ef6506dE
	.asciz	"\b\000\000\000\000\000\000\000\b\000\000\000\000\000\000"
	.quad	__ZN42_$LT$$RF$T$u20$as$u20$core..fmt..Debug$GT$3fmt17h352ca525f4ebe2b3E

	.section	__TEXT,__const
l___unnamed_34:
	.ascii	"Entered"

	.section	__TEXT,__literal4,4byte_literals
L___unnamed_35:
	.ascii	"span"

	.section	__DATA,__const
	.p2align	3
l___unnamed_10:
	.quad	__ZN4core3ptr48drop_in_place$LT$$RF$$RF$tracing..span..Span$GT$17h80774b4260595f22E
	.asciz	"\b\000\000\000\000\000\000\000\b\000\000\000\000\000\000"
	.quad	__ZN42_$LT$$RF$T$u20$as$u20$core..fmt..Debug$GT$3fmt17hd1b4505513c5beecE

	.section	__TEXT,__const
l___unnamed_36:
	.ascii	"EnteredSpan"

	.section	__DATA,__const
	.p2align	3
l___unnamed_11:
	.quad	__ZN4core3ptr44drop_in_place$LT$$RF$tracing..span..Span$GT$17he4e93e2b6b449002E
	.asciz	"\b\000\000\000\000\000\000\000\b\000\000\000\000\000\000"
	.quad	__ZN42_$LT$$RF$T$u20$as$u20$core..fmt..Debug$GT$3fmt17h9a9acd2a4c30e64eE

	.section	__TEXT,__const
l___unnamed_37:
	.ascii	"_not_send"

	.section	__DATA,__const
	.p2align	3
l___unnamed_12:
	.quad	__ZN4core3ptr54drop_in_place$LT$$RF$tracing..span..PhantomNotSend$GT$17h6e1b284f9853a5dbE
	.asciz	"\b\000\000\000\000\000\000\000\b\000\000\000\000\000\000"
	.quad	__ZN42_$LT$$RF$T$u20$as$u20$core..fmt..Debug$GT$3fmt17hd48abffb10fb96d8E

	.section	__TEXT,__const
l___unnamed_38:
	.ascii	"PhantomNotSend"

l___unnamed_39:
	.ascii	"ghost"

	.section	__DATA,__const
	.p2align	3
l___unnamed_13:
	.quad	__ZN4core3ptr78drop_in_place$LT$$RF$core..marker..PhantomData$LT$$BP$mut$u20$$LP$$RP$$GT$$GT$17h7db8c11e32122e4fE
	.asciz	"\b\000\000\000\000\000\000\000\b\000\000\000\000\000\000"
	.quad	__ZN42_$LT$$RF$T$u20$as$u20$core..fmt..Debug$GT$3fmt17hb465f1831e2139f9E

	.section	__DATA,__const
Lsec_end0:
	.section	__TEXT,__text,regular,pure_instructions
Lsec_end1: