	.section	__TEXT,__text,regular,pure_instructions
	.macosx_version_min 10, 7
	.file	1 "/Users/natalie/.cargo/registry/src/github.com-1ecc6299db9ec823/tracing-core-0.1.30" "src/callsite.rs"
	.file	2 "/Users/natalie/.cargo/registry/src/github.com-1ecc6299db9ec823/tracing-core-0.1.30" "src/dispatcher.rs"
	.file	3 "/Users/natalie/.cargo/registry/src/github.com-1ecc6299db9ec823/tracing-core-0.1.30" "src/field.rs"
	.file	4 "/Users/natalie/.cargo/registry/src/github.com-1ecc6299db9ec823/tracing-core-0.1.30" "src/metadata.rs"
	.file	5 "/rustc/2c8cc343237b8f7d5a3c3703e3a87f2eb2c54a74/library/std/src/thread" "local.rs"
	.globl	__ZN102_$LT$core..iter..adapters..map..Map$LT$I$C$F$GT$$u20$as$u20$core..iter..traits..iterator..Iterator$GT$4fold17hd016dab44dedf35dE
	.p2align	4, 0x90
__ZN102_$LT$core..iter..adapters..map..Map$LT$I$C$F$GT$$u20$as$u20$core..iter..traits..iterator..Iterator$GT$4fold17hd016dab44dedf35dE:
Lfunc_begin0:
	.file	6 "/rustc/2c8cc343237b8f7d5a3c3703e3a87f2eb2c54a74/library/core/src/iter/adapters" "map.rs"
	.loc	6 120 0
	.cfi_startproc
	.cfi_personality 155, _rust_eh_personality
	.cfi_lsda 16, Lexception0
	pushq	%rbp
	.cfi_def_cfa_offset 16
	.cfi_offset %rbp, -16
	movq	%rsp, %rbp
	.cfi_def_cfa_register %rbp
	subq	$80, %rsp
	movq	%rsi, -72(%rbp)
	movq	%rsi, -32(%rbp)
Ltmp5:
	.loc	6 124 9 prologue_end
	movb	$1, -33(%rbp)
	movq	(%rdi), %rax
	movq	%rax, -64(%rbp)
	movq	8(%rdi), %rax
	movq	%rax, -56(%rbp)
	.loc	6 124 24 is_stmt 0
	movb	$1, -34(%rbp)
	.loc	6 124 39
	movq	16(%rdi), %rdi
Ltmp6:
Ltmp0:
	.loc	6 124 30
	callq	__ZN4core4iter8adapters3map8map_fold17h983f28c4c0d05202E
Ltmp1:
	movq	%rax, -48(%rbp)
	jmp	LBB0_3
Ltmp7:
LBB0_1:
	.loc	6 124 49
	testb	$1, -34(%rbp)
	jne	LBB0_6
	jmp	LBB0_5
Ltmp8:
LBB0_2:
Ltmp4:
	.loc	6 0 49
	movq	%rax, %rcx
	movl	%edx, %eax
	movq	%rcx, -16(%rbp)
	movl	%eax, -8(%rbp)
	jmp	LBB0_1
Ltmp9:
LBB0_3:
	movq	-48(%rbp), %rcx
	movq	-72(%rbp), %rdx
	movq	-56(%rbp), %rsi
	movq	-64(%rbp), %rdi
	.loc	6 124 9
	movb	$0, -33(%rbp)
	movb	$0, -34(%rbp)
Ltmp2:
	callq	__ZN4core4iter6traits8iterator8Iterator4fold17hbd00fd613c080cddE
Ltmp3:
	movq	%rax, -80(%rbp)
	jmp	LBB0_4
Ltmp10:
LBB0_4:
	.loc	6 0 9
	movq	-80(%rbp), %rax
	.loc	6 125 6 is_stmt 1
	addq	$80, %rsp
	popq	%rbp
	retq
Ltmp11:
LBB0_5:
	.loc	6 124 49
	testb	$1, -33(%rbp)
	jne	LBB0_8
	jmp	LBB0_7
Ltmp12:
LBB0_6:
	jmp	LBB0_5
Ltmp13:
LBB0_7:
	.loc	6 120 5
	movq	-16(%rbp), %rdi
	callq	__Unwind_Resume
Ltmp14:
LBB0_8:
	.loc	6 124 49
	jmp	LBB0_7
Ltmp15:
Lfunc_end0:
	.cfi_endproc
	.section	__TEXT,__gcc_except_tab
	.p2align	2
GCC_except_table0:
Lexception0:
	.byte	255
	.byte	255
	.byte	1
	.uleb128 Lcst_end0-Lcst_begin0
Lcst_begin0:
	.uleb128 Ltmp0-Lfunc_begin0
	.uleb128 Ltmp3-Ltmp0
	.uleb128 Ltmp4-Lfunc_begin0
	.byte	0
	.uleb128 Ltmp3-Lfunc_begin0
	.uleb128 Lfunc_end0-Ltmp3
	.byte	0
	.byte	0
Lcst_end0:
	.p2align	2

	.section	__TEXT,__text,regular,pure_instructions
	.globl	__ZN102_$LT$core..iter..adapters..map..Map$LT$I$C$F$GT$$u20$as$u20$core..iter..traits..iterator..Iterator$GT$4next17h1ee2ca7d5dd5b5a4E
	.p2align	4, 0x90
__ZN102_$LT$core..iter..adapters..map..Map$LT$I$C$F$GT$$u20$as$u20$core..iter..traits..iterator..Iterator$GT$4next17h1ee2ca7d5dd5b5a4E:
Lfunc_begin1:
	.loc	6 102 0
	.cfi_startproc
	pushq	%rbp
	.cfi_def_cfa_offset 16
	.cfi_offset %rbp, -16
	movq	%rsp, %rbp
	.cfi_def_cfa_register %rbp
	subq	$16, %rsp
	movq	%rdi, -16(%rbp)
	movq	%rdi, -8(%rbp)
Ltmp16:
	.loc	6 103 9 prologue_end
	callq	__ZN91_$LT$core..slice..iter..Iter$LT$T$GT$$u20$as$u20$core..iter..traits..iterator..Iterator$GT$4next17he04f69028bcc0e87E
	movq	-16(%rbp), %rsi
	movq	%rax, %rdi
	callq	__ZN4core6option15Option$LT$T$GT$3map17h7f9ebca9ee56f9f0E
	.loc	6 104 6
	addq	$16, %rsp
	popq	%rbp
	retq
Ltmp17:
Lfunc_end1:
	.cfi_endproc

	.globl	__ZN102_$LT$core..iter..adapters..zip..Zip$LT$A$C$B$GT$$u20$as$u20$core..iter..traits..iterator..Iterator$GT$4next17h6f8f2be1aaf9b44dE
	.p2align	4, 0x90
__ZN102_$LT$core..iter..adapters..zip..Zip$LT$A$C$B$GT$$u20$as$u20$core..iter..traits..iterator..Iterator$GT$4next17h6f8f2be1aaf9b44dE:
Lfunc_begin2:
	.file	7 "/rustc/2c8cc343237b8f7d5a3c3703e3a87f2eb2c54a74/library/core/src/iter/adapters" "zip.rs"
	.loc	7 83 0
	.cfi_startproc
	pushq	%rbp
	.cfi_def_cfa_offset 16
	.cfi_offset %rbp, -16
	movq	%rsp, %rbp
	.cfi_def_cfa_register %rbp
	subq	$16, %rsp
	movq	%rdi, -8(%rbp)
Ltmp18:
	.loc	7 84 9 prologue_end
	callq	__ZN111_$LT$core..iter..adapters..zip..Zip$LT$A$C$B$GT$$u20$as$u20$core..iter..adapters..zip..ZipImpl$LT$A$C$B$GT$$GT$4next17h155be3f1563863d5E
	.loc	7 85 6
	addq	$16, %rsp
	popq	%rbp
	retq
Ltmp19:
Lfunc_end2:
	.cfi_endproc

	.globl	__ZN102_$LT$core..iter..adapters..zip..Zip$LT$A$C$B$GT$$u20$as$u20$core..iter..traits..iterator..Iterator$GT$4next17ha063622659087e1aE
	.p2align	4, 0x90
__ZN102_$LT$core..iter..adapters..zip..Zip$LT$A$C$B$GT$$u20$as$u20$core..iter..traits..iterator..Iterator$GT$4next17ha063622659087e1aE:
Lfunc_begin3:
	.loc	7 83 0
	.cfi_startproc
	pushq	%rbp
	.cfi_def_cfa_offset 16
	.cfi_offset %rbp, -16
	movq	%rsp, %rbp
	.cfi_def_cfa_register %rbp
	subq	$16, %rsp
	movq	%rdi, -8(%rbp)
Ltmp20:
	.loc	7 84 9 prologue_end
	callq	__ZN111_$LT$core..iter..adapters..zip..Zip$LT$A$C$B$GT$$u20$as$u20$core..iter..adapters..zip..ZipImpl$LT$A$C$B$GT$$GT$4next17hb0bd3253530d4789E
	.loc	7 85 6
	addq	$16, %rsp
	popq	%rbp
	retq
Ltmp21:
Lfunc_end3:
	.cfi_endproc

	.globl	__ZN104_$LT$core..ops..control_flow..ControlFlow$LT$B$C$C$GT$$u20$as$u20$core..ops..try_trait..FromResidual$GT$13from_residual17hf49052d7fe363eb9E
	.p2align	4, 0x90
__ZN104_$LT$core..ops..control_flow..ControlFlow$LT$B$C$C$GT$$u20$as$u20$core..ops..try_trait..FromResidual$GT$13from_residual17hf49052d7fe363eb9E:
Lfunc_begin4:
	.file	8 "/rustc/2c8cc343237b8f7d5a3c3703e3a87f2eb2c54a74/library/core/src/ops" "control_flow.rs"
	.loc	8 123 0
	.cfi_startproc
	pushq	%rbp
	.cfi_def_cfa_offset 16
	.cfi_offset %rbp, -16
	movq	%rsp, %rbp
	.cfi_def_cfa_register %rbp
	subq	$24, %rsp
Ltmp22:
	.loc	8 125 38 prologue_end
	movb	$1, -17(%rbp)
Ltmp23:
	.loc	8 127 6
	movb	-17(%rbp), %al
	andb	$1, %al
	movzbl	%al, %eax
	addq	$24, %rsp
	popq	%rbp
	retq
Ltmp24:
Lfunc_end4:
	.cfi_endproc

	.globl	__ZN106_$LT$core..ops..range..Range$LT$usize$GT$$u20$as$u20$core..slice..index..SliceIndex$LT$$u5b$T$u5d$$GT$$GT$13get_unchecked17h288e63add413382dE
	.p2align	4, 0x90
__ZN106_$LT$core..ops..range..Range$LT$usize$GT$$u20$as$u20$core..slice..index..SliceIndex$LT$$u5b$T$u5d$$GT$$GT$13get_unchecked17h288e63add413382dE:
Lfunc_begin5:
	.file	9 "/rustc/2c8cc343237b8f7d5a3c3703e3a87f2eb2c54a74/library/core/src/slice" "index.rs"
	.loc	9 373 0
	.cfi_startproc
	pushq	%rbp
	.cfi_def_cfa_offset 16
	.cfi_offset %rbp, -16
	movq	%rsp, %rbp
	.cfi_def_cfa_register %rbp
	subq	$160, %rsp
	movq	%rdi, -128(%rbp)
	movq	%rsi, -120(%rbp)
	movq	%rdx, -112(%rbp)
	movq	%rcx, -104(%rbp)
Ltmp25:
	.loc	9 386 39 prologue_end
	movq	%rdx, -96(%rbp)
	movq	%rcx, -88(%rbp)
Ltmp26:
	.file	10 "/rustc/2c8cc343237b8f7d5a3c3703e3a87f2eb2c54a74/library/core/src/ptr" "const_ptr.rs"
	.loc	10 1650 9
	movq	%rdx, -80(%rbp)
Ltmp27:
	.loc	9 386 58
	movq	%rdi, -72(%rbp)
Ltmp28:
	.loc	10 932 18
	movq	%rdx, -64(%rbp)
	.loc	10 932 30 is_stmt 0
	movq	%rdi, -56(%rbp)
Ltmp29:
	.loc	10 473 18 is_stmt 1
	addq	%rdi, %rdx
	movq	%rdx, -48(%rbp)
	movq	-48(%rbp), %rax
	movq	%rax, -40(%rbp)
Ltmp30:
	.loc	9 386 71
	subq	%rdi, %rsi
	movq	%rsi, -32(%rbp)
Ltmp31:
	.file	11 "/rustc/2c8cc343237b8f7d5a3c3703e3a87f2eb2c54a74/library/core/src/ptr" "mod.rs"
	.loc	11 734 20
	movq	%rax, -24(%rbp)
Ltmp32:
	.loc	10 61 9
	movq	%rax, -16(%rbp)
Ltmp33:
	.loc	11 734 33
	movq	%rsi, -8(%rbp)
Ltmp34:
	.file	12 "/rustc/2c8cc343237b8f7d5a3c3703e3a87f2eb2c54a74/library/core/src/ptr" "metadata.rs"
	.loc	12 118 36
	movq	%rax, -144(%rbp)
	movq	%rsi, -136(%rbp)
	.loc	12 118 14 is_stmt 0
	movq	-144(%rbp), %rcx
	movq	-136(%rbp), %rax
	movq	%rcx, -160(%rbp)
	movq	%rax, -152(%rbp)
	movq	-160(%rbp), %rax
	movq	-152(%rbp), %rdx
Ltmp35:
	.loc	9 388 6 is_stmt 1
	addq	$160, %rsp
	popq	%rbp
	retq
Ltmp36:
Lfunc_end5:
	.cfi_endproc

	.globl	__ZN106_$LT$core..ops..range..Range$LT$usize$GT$$u20$as$u20$core..slice..index..SliceIndex$LT$$u5b$T$u5d$$GT$$GT$17get_unchecked_mut17h9537f0eaf9dd1a19E
	.p2align	4, 0x90
__ZN106_$LT$core..ops..range..Range$LT$usize$GT$$u20$as$u20$core..slice..index..SliceIndex$LT$$u5b$T$u5d$$GT$$GT$17get_unchecked_mut17h9537f0eaf9dd1a19E:
Lfunc_begin6:
	.loc	9 391 0
	.cfi_startproc
	pushq	%rbp
	.cfi_def_cfa_offset 16
	.cfi_offset %rbp, -16
	movq	%rsp, %rbp
	.cfi_def_cfa_register %rbp
	subq	$160, %rsp
	movq	%rdi, -128(%rbp)
	movq	%rsi, -120(%rbp)
	movq	%rdx, -112(%rbp)
	movq	%rcx, -104(%rbp)
Ltmp37:
	.loc	9 400 43 prologue_end
	movq	%rdx, -96(%rbp)
	movq	%rcx, -88(%rbp)
Ltmp38:
	.file	13 "/rustc/2c8cc343237b8f7d5a3c3703e3a87f2eb2c54a74/library/core/src/ptr" "mut_ptr.rs"
	.loc	13 2037 9
	movq	%rdx, -80(%rbp)
Ltmp39:
	.loc	9 400 66
	movq	%rdi, -72(%rbp)
Ltmp40:
	.loc	13 1034 18
	movq	%rdx, -64(%rbp)
	.loc	13 1034 30 is_stmt 0
	movq	%rdi, -56(%rbp)
Ltmp41:
	.loc	13 487 18 is_stmt 1
	addq	%rdi, %rdx
	movq	%rdx, -48(%rbp)
	movq	-48(%rbp), %rax
	movq	%rax, -40(%rbp)
Ltmp42:
	.loc	9 400 79
	subq	%rdi, %rsi
	movq	%rsi, -32(%rbp)
Ltmp43:
	.loc	11 766 24
	movq	%rax, -24(%rbp)
Ltmp44:
	.loc	13 60 9
	movq	%rax, -16(%rbp)
Ltmp45:
	.loc	11 766 37
	movq	%rsi, -8(%rbp)
Ltmp46:
	.loc	12 135 36
	movq	%rax, -144(%rbp)
	movq	%rsi, -136(%rbp)
	.loc	12 135 14 is_stmt 0
	movq	-144(%rbp), %rcx
	movq	-136(%rbp), %rax
	movq	%rcx, -160(%rbp)
	movq	%rax, -152(%rbp)
	movq	-160(%rbp), %rax
	movq	-152(%rbp), %rdx
Ltmp47:
	.loc	9 402 6 is_stmt 1
	addq	$160, %rsp
	popq	%rbp
	retq
Ltmp48:
Lfunc_end6:
	.cfi_endproc

	.globl	__ZN106_$LT$core..ops..range..Range$LT$usize$GT$$u20$as$u20$core..slice..index..SliceIndex$LT$$u5b$T$u5d$$GT$$GT$9index_mut17hae95af936f77511eE
	.p2align	4, 0x90
__ZN106_$LT$core..ops..range..Range$LT$usize$GT$$u20$as$u20$core..slice..index..SliceIndex$LT$$u5b$T$u5d$$GT$$GT$9index_mut17hae95af936f77511eE:
Lfunc_begin7:
	.loc	9 416 0
	.cfi_startproc
	pushq	%rbp
	.cfi_def_cfa_offset 16
	.cfi_offset %rbp, -16
	movq	%rsp, %rbp
	.cfi_def_cfa_register %rbp
	subq	$80, %rsp
	movq	%rdi, -72(%rbp)
	movq	%rsi, -64(%rbp)
	movq	%rdx, -56(%rbp)
	movq	%rcx, -48(%rbp)
	movq	%r8, -40(%rbp)
	movq	%rdi, -32(%rbp)
	movq	%rsi, -24(%rbp)
	movq	%rdx, -16(%rbp)
	movq	%rcx, -8(%rbp)
Ltmp49:
	.loc	9 417 12 prologue_end
	cmpq	%rsi, %rdi
	ja	LBB7_2
	.loc	9 0 12 is_stmt 0
	movq	-64(%rbp), %rax
	movq	-48(%rbp), %rcx
	.loc	9 419 19 is_stmt 1
	cmpq	%rcx, %rax
	ja	LBB7_4
	jmp	LBB7_3
LBB7_2:
	.loc	9 0 19 is_stmt 0
	movq	-40(%rbp), %rdx
	movq	-64(%rbp), %rsi
	movq	-72(%rbp), %rdi
	.loc	9 418 13 is_stmt 1
	callq	__ZN4core5slice5index22slice_index_order_fail17h0d8f800a07d5f26eE
LBB7_3:
	.loc	9 0 13 is_stmt 0
	movq	-48(%rbp), %rcx
	movq	-56(%rbp), %rdx
	movq	-64(%rbp), %rsi
	movq	-72(%rbp), %rdi
	.loc	9 423 24 is_stmt 1
	callq	__ZN106_$LT$core..ops..range..Range$LT$usize$GT$$u20$as$u20$core..slice..index..SliceIndex$LT$$u5b$T$u5d$$GT$$GT$17get_unchecked_mut17h9537f0eaf9dd1a19E
	.loc	9 424 6
	addq	$80, %rsp
	popq	%rbp
	retq
LBB7_4:
	.loc	9 0 6 is_stmt 0
	movq	-40(%rbp), %rdx
	movq	-48(%rbp), %rsi
	movq	-64(%rbp), %rdi
	.loc	9 420 13 is_stmt 1
	callq	__ZN4core5slice5index24slice_end_index_len_fail17hc921cb2f1513645aE
Ltmp50:
Lfunc_end7:
	.cfi_endproc

	.globl	__ZN108_$LT$core..iter..adapters..filter..Filter$LT$I$C$P$GT$$u20$as$u20$core..iter..traits..iterator..Iterator$GT$5count17h56409d38b802fe33E
	.p2align	4, 0x90
__ZN108_$LT$core..iter..adapters..filter..Filter$LT$I$C$P$GT$$u20$as$u20$core..iter..traits..iterator..Iterator$GT$5count17h56409d38b802fe33E:
Lfunc_begin8:
	.file	14 "/rustc/2c8cc343237b8f7d5a3c3703e3a87f2eb2c54a74/library/core/src/iter/adapters" "filter.rs"
	.loc	14 77 0
	.cfi_startproc
	.cfi_personality 155, _rust_eh_personality
	.cfi_lsda 16, Lexception1
	pushq	%rbp
	.cfi_def_cfa_offset 16
	.cfi_offset %rbp, -16
	movq	%rsp, %rbp
	.cfi_def_cfa_register %rbp
	subq	$64, %rsp
Ltmp54:
	.loc	14 83 9 prologue_end
	movq	(%rdi), %rsi
	movq	8(%rdi), %rdx
	.loc	14 83 32 is_stmt 0
	movq	16(%rdi), %rax
	movq	%rax, -24(%rbp)
Ltmp55:
	.loc	14 80 13 is_stmt 1
	movq	%rax, -32(%rbp)
Ltmp56:
	.loc	14 83 9
	movq	-32(%rbp), %rcx
Ltmp51:
	leaq	-56(%rbp), %rdi
Ltmp57:
	callq	__ZN4core4iter6traits8iterator8Iterator3map17h62e6f969b6958e34E
Ltmp52:
	jmp	LBB8_3
Ltmp58:
LBB8_1:
	.loc	14 83 47 is_stmt 0
	xorl	%eax, %eax
	testb	$1, %al
	jne	LBB8_5
	jmp	LBB8_4
Ltmp59:
LBB8_2:
Ltmp53:
	.loc	14 0 47
	movq	%rax, %rcx
	movl	%edx, %eax
	movq	%rcx, -16(%rbp)
	movl	%eax, -8(%rbp)
	jmp	LBB8_1
Ltmp60:
LBB8_3:
	.loc	14 83 9
	leaq	-56(%rbp), %rdi
	callq	__ZN4core4iter6traits8iterator8Iterator3sum17h8ebcf1bf146d057aE
	.loc	14 84 6 is_stmt 1
	addq	$64, %rsp
	popq	%rbp
	retq
Ltmp61:
LBB8_4:
	.loc	14 77 5
	movq	-16(%rbp), %rdi
	callq	__Unwind_Resume
Ltmp62:
LBB8_5:
	.loc	14 83 47
	jmp	LBB8_4
Ltmp63:
Lfunc_end8:
	.cfi_endproc
	.section	__TEXT,__gcc_except_tab
	.p2align	2
GCC_except_table8:
Lexception1:
	.byte	255
	.byte	255
	.byte	1
	.uleb128 Lcst_end1-Lcst_begin1
Lcst_begin1:
	.uleb128 Ltmp51-Lfunc_begin8
	.uleb128 Ltmp52-Ltmp51
	.uleb128 Ltmp53-Lfunc_begin8
	.byte	0
	.uleb128 Ltmp52-Lfunc_begin8
	.uleb128 Lfunc_end8-Ltmp52
	.byte	0
	.byte	0
Lcst_end1:
	.p2align	2

	.section	__TEXT,__text,regular,pure_instructions
	.globl	__ZN108_$LT$core..iter..adapters..filter..Filter$LT$I$C$P$GT$$u20$as$u20$core..iter..traits..iterator..Iterator$GT$5count8to_usize28_$u7b$$u7b$closure$u7d$$u7d$17h2211ac9f9196b09fE
	.p2align	4, 0x90
__ZN108_$LT$core..iter..adapters..filter..Filter$LT$I$C$P$GT$$u20$as$u20$core..iter..traits..iterator..Iterator$GT$5count8to_usize28_$u7b$$u7b$closure$u7d$$u7d$17h2211ac9f9196b09fE:
Lfunc_begin9:
	.loc	14 80 0
	.cfi_startproc
	.cfi_personality 155, _rust_eh_personality
	.cfi_lsda 16, Lexception2
	pushq	%rbp
	.cfi_def_cfa_offset 16
	.cfi_offset %rbp, -16
	movq	%rsp, %rbp
	.cfi_def_cfa_register %rbp
	subq	$48, %rsp
	movq	%rsi, -40(%rbp)
	movq	%rdi, -24(%rbp)
	leaq	-40(%rbp), %rax
Ltmp67:
	.loc	14 80 22 prologue_end
	movq	%rax, -32(%rbp)
	movq	-32(%rbp), %rsi
Ltmp64:
	callq	__ZN12tracing_core5field8ValueSet3len28_$u7b$$u7b$closure$u7d$$u7d$17h38b5ab776855354bE
Ltmp65:
	movb	%al, -41(%rbp)
	jmp	LBB9_3
LBB9_1:
	.loc	14 80 13 is_stmt 0
	movq	-16(%rbp), %rdi
	callq	__Unwind_Resume
LBB9_2:
Ltmp66:
	.loc	14 0 13
	movq	%rax, %rcx
	movl	%edx, %eax
	movq	%rcx, -16(%rbp)
	movl	%eax, -8(%rbp)
	jmp	LBB9_1
LBB9_3:
	movb	-41(%rbp), %al
	.loc	14 80 22
	andb	$1, %al
	movzbl	%al, %eax
	.loc	14 80 44
	addq	$48, %rsp
	popq	%rbp
	retq
Ltmp68:
Lfunc_end9:
	.cfi_endproc
	.section	__TEXT,__gcc_except_tab
	.p2align	2
GCC_except_table9:
Lexception2:
	.byte	255
	.byte	255
	.byte	1
	.uleb128 Lcst_end2-Lcst_begin2
Lcst_begin2:
	.uleb128 Ltmp64-Lfunc_begin9
	.uleb128 Ltmp65-Ltmp64
	.uleb128 Ltmp66-Lfunc_begin9
	.byte	0
	.uleb128 Ltmp65-Lfunc_begin9
	.uleb128 Lfunc_end9-Ltmp65
	.byte	0
	.byte	0
Lcst_end2:
	.p2align	2

	.section	__TEXT,__text,regular,pure_instructions
	.globl	__ZN110_$LT$core..ops..range..RangeFrom$LT$usize$GT$$u20$as$u20$core..slice..index..SliceIndex$LT$$u5b$T$u5d$$GT$$GT$5index17hc8813b97af7117a7E
	.p2align	4, 0x90
__ZN110_$LT$core..ops..range..RangeFrom$LT$usize$GT$$u20$as$u20$core..slice..index..SliceIndex$LT$$u5b$T$u5d$$GT$$GT$5index17hc8813b97af7117a7E:
Lfunc_begin10:
	.loc	9 493 0 is_stmt 1
	.cfi_startproc
	pushq	%rbp
	.cfi_def_cfa_offset 16
	.cfi_offset %rbp, -16
	movq	%rsp, %rbp
	.cfi_def_cfa_register %rbp
	subq	$144, %rsp
	movq	%rdi, -144(%rbp)
	movq	%rsi, -136(%rbp)
	movq	%rdx, -128(%rbp)
	movq	%rcx, -120(%rbp)
	movq	%rdi, -80(%rbp)
	movq	%rsi, -72(%rbp)
	movq	%rdx, -64(%rbp)
Ltmp69:
	.loc	9 494 12 prologue_end
	cmpq	%rdx, %rdi
	ja	LBB10_2
	.loc	9 0 12 is_stmt 0
	movq	-128(%rbp), %rcx
	movq	-136(%rbp), %rdx
	movq	-144(%rbp), %rsi
	.loc	9 498 20 is_stmt 1
	movq	%rsi, -56(%rbp)
	.loc	9 498 39 is_stmt 0
	movq	%rdx, -48(%rbp)
	movq	%rcx, -40(%rbp)
Ltmp70:
	.loc	9 483 31 is_stmt 1
	movq	%rdx, -32(%rbp)
	movq	%rcx, -24(%rbp)
Ltmp71:
	.loc	10 1630 18
	movq	%rdx, -16(%rbp)
	movq	%rcx, -8(%rbp)
Ltmp72:
	.loc	12 98 14
	movq	%rdx, -96(%rbp)
	movq	%rcx, -88(%rbp)
	movq	-88(%rbp), %rax
Ltmp73:
	.loc	9 483 18
	movq	%rsi, -112(%rbp)
	movq	%rax, -104(%rbp)
	movq	-112(%rbp), %rdi
	movq	-104(%rbp), %rsi
	callq	__ZN106_$LT$core..ops..range..Range$LT$usize$GT$$u20$as$u20$core..slice..index..SliceIndex$LT$$u5b$T$u5d$$GT$$GT$13get_unchecked17h288e63add413382dE
Ltmp74:
	.loc	9 499 6
	addq	$144, %rsp
	popq	%rbp
	retq
LBB10_2:
	.loc	9 0 6 is_stmt 0
	movq	-120(%rbp), %rdx
	movq	-128(%rbp), %rsi
	movq	-144(%rbp), %rdi
	.loc	9 495 13 is_stmt 1
	callq	__ZN4core5slice5index26slice_start_index_len_fail17h9d301bb51ec3e351E
Ltmp75:
Lfunc_end10:
	.cfi_endproc

	.globl	__ZN111_$LT$core..iter..adapters..zip..Zip$LT$A$C$B$GT$$u20$as$u20$core..iter..adapters..zip..ZipImpl$LT$A$C$B$GT$$GT$3new17h3b7c3871f9a2ace7E
	.p2align	4, 0x90
__ZN111_$LT$core..iter..adapters..zip..Zip$LT$A$C$B$GT$$u20$as$u20$core..iter..adapters..zip..ZipImpl$LT$A$C$B$GT$$GT$3new17h3b7c3871f9a2ace7E:
Lfunc_begin11:
	.loc	7 262 0
	.cfi_startproc
	.cfi_personality 155, _rust_eh_personality
	.cfi_lsda 16, Lexception3
	pushq	%rbp
	.cfi_def_cfa_offset 16
	.cfi_offset %rbp, -16
	movq	%rsp, %rbp
	.cfi_def_cfa_register %rbp
	subq	$144, %rsp
	movq	%rdi, -120(%rbp)
	movq	%rdi, -112(%rbp)
	movq	%rsi, -96(%rbp)
	movq	%rdx, -88(%rbp)
	movq	%rcx, -80(%rbp)
	movq	%r8, -72(%rbp)
Ltmp76:
	leaq	-96(%rbp), %rdi
Ltmp83:
	.loc	7 263 21 prologue_end
	callq	__ZN4core4iter8adapters3zip27TrustedRandomAccessNoCoerce4size17hbf7657e6c27a5b3dE
Ltmp77:
	movq	%rax, -104(%rbp)
	jmp	LBB11_3
LBB11_1:
	.loc	7 262 5
	movq	-64(%rbp), %rdi
	callq	__Unwind_Resume
LBB11_2:
Ltmp82:
	.loc	7 0 5 is_stmt 0
	movq	%rax, %rcx
	movl	%edx, %eax
	movq	%rcx, -64(%rbp)
	movl	%eax, -56(%rbp)
	jmp	LBB11_1
LBB11_3:
	movq	-104(%rbp), %rax
	.loc	7 263 21 is_stmt 1
	movq	%rax, -48(%rbp)
Ltmp84:
	.loc	7 264 28
	movq	%rax, -40(%rbp)
Ltmp78:
	leaq	-80(%rbp), %rdi
	.loc	7 264 35 is_stmt 0
	callq	__ZN4core4iter8adapters3zip27TrustedRandomAccessNoCoerce4size17hbf7657e6c27a5b3dE
Ltmp79:
	movq	%rax, -128(%rbp)
	jmp	LBB11_4
LBB11_4:
	.loc	7 0 35
	movq	-128(%rbp), %rsi
	movq	-104(%rbp), %rdi
	.loc	7 264 35
	movq	%rsi, -32(%rbp)
Ltmp85:
	.file	15 "/rustc/2c8cc343237b8f7d5a3c3703e3a87f2eb2c54a74/library/core/src" "cmp.rs"
	.loc	15 1185 5 is_stmt 1
	movq	%rdi, -24(%rbp)
	.loc	15 1185 12 is_stmt 0
	movq	%rsi, -16(%rbp)
Ltmp80:
Ltmp86:
	.loc	15 833 13 is_stmt 1
	callq	__ZN4core3cmp6min_by17h82c8c960036018a5E
Ltmp81:
	movq	%rax, -136(%rbp)
	jmp	LBB11_5
LBB11_5:
	.loc	15 0 13 is_stmt 0
	movq	-112(%rbp), %rax
	movq	-120(%rbp), %rcx
	movq	-104(%rbp), %rdx
	movq	-136(%rbp), %rsi
	.loc	15 833 13
	movq	%rsi, -8(%rbp)
Ltmp87:
	.loc	7 265 15 is_stmt 1
	movq	-96(%rbp), %r10
	movq	-88(%rbp), %r9
	.loc	7 265 18 is_stmt 0
	movq	-80(%rbp), %r8
	movq	-72(%rbp), %rdi
	.loc	7 265 9
	movq	%r10, (%rcx)
	movq	%r9, 8(%rcx)
	movq	%r8, 16(%rcx)
	movq	%rdi, 24(%rcx)
	movq	$0, 32(%rcx)
	movq	%rsi, 40(%rcx)
	movq	%rdx, 48(%rcx)
Ltmp88:
	.loc	7 266 6 is_stmt 1
	addq	$144, %rsp
	popq	%rbp
	retq
Ltmp89:
Lfunc_end11:
	.cfi_endproc
	.section	__TEXT,__gcc_except_tab
	.p2align	2
GCC_except_table11:
Lexception3:
	.byte	255
	.byte	255
	.byte	1
	.uleb128 Lcst_end3-Lcst_begin3
Lcst_begin3:
	.uleb128 Ltmp76-Lfunc_begin11
	.uleb128 Ltmp77-Ltmp76
	.uleb128 Ltmp82-Lfunc_begin11
	.byte	0
	.uleb128 Ltmp77-Lfunc_begin11
	.uleb128 Ltmp78-Ltmp77
	.byte	0
	.byte	0
	.uleb128 Ltmp78-Lfunc_begin11
	.uleb128 Ltmp81-Ltmp78
	.uleb128 Ltmp82-Lfunc_begin11
	.byte	0
Lcst_end3:
	.p2align	2

	.section	__TEXT,__text,regular,pure_instructions
	.globl	__ZN111_$LT$core..iter..adapters..zip..Zip$LT$A$C$B$GT$$u20$as$u20$core..iter..adapters..zip..ZipImpl$LT$A$C$B$GT$$GT$3new17ha30fe1dc2ce6d9f9E
	.p2align	4, 0x90
__ZN111_$LT$core..iter..adapters..zip..Zip$LT$A$C$B$GT$$u20$as$u20$core..iter..adapters..zip..ZipImpl$LT$A$C$B$GT$$GT$3new17ha30fe1dc2ce6d9f9E:
Lfunc_begin12:
	.loc	7 262 0
	.cfi_startproc
	.cfi_personality 155, _rust_eh_personality
	.cfi_lsda 16, Lexception4
	pushq	%rbp
	.cfi_def_cfa_offset 16
	.cfi_offset %rbp, -16
	movq	%rsp, %rbp
	.cfi_def_cfa_register %rbp
	subq	$144, %rsp
	movq	%rdi, -120(%rbp)
	movq	%rdi, -112(%rbp)
	movq	%rsi, -96(%rbp)
	movq	%rdx, -88(%rbp)
	movq	%rcx, -80(%rbp)
	movq	%r8, -72(%rbp)
Ltmp90:
	leaq	-96(%rbp), %rdi
Ltmp97:
	.loc	7 263 21 prologue_end
	callq	__ZN4core4iter8adapters3zip27TrustedRandomAccessNoCoerce4size17ha06c9befc379ddfbE
Ltmp91:
	movq	%rax, -104(%rbp)
	jmp	LBB12_3
LBB12_1:
	.loc	7 262 5
	movq	-64(%rbp), %rdi
	callq	__Unwind_Resume
LBB12_2:
Ltmp96:
	.loc	7 0 5 is_stmt 0
	movq	%rax, %rcx
	movl	%edx, %eax
	movq	%rcx, -64(%rbp)
	movl	%eax, -56(%rbp)
	jmp	LBB12_1
LBB12_3:
	movq	-104(%rbp), %rax
	.loc	7 263 21 is_stmt 1
	movq	%rax, -48(%rbp)
Ltmp98:
	.loc	7 264 28
	movq	%rax, -40(%rbp)
Ltmp92:
	leaq	-80(%rbp), %rdi
	.loc	7 264 35 is_stmt 0
	callq	__ZN4core4iter8adapters3zip27TrustedRandomAccessNoCoerce4size17ha06c9befc379ddfbE
Ltmp93:
	movq	%rax, -128(%rbp)
	jmp	LBB12_4
LBB12_4:
	.loc	7 0 35
	movq	-128(%rbp), %rsi
	movq	-104(%rbp), %rdi
	.loc	7 264 35
	movq	%rsi, -32(%rbp)
Ltmp99:
	.loc	15 1185 5 is_stmt 1
	movq	%rdi, -24(%rbp)
	.loc	15 1185 12 is_stmt 0
	movq	%rsi, -16(%rbp)
Ltmp94:
Ltmp100:
	.loc	15 833 13 is_stmt 1
	callq	__ZN4core3cmp6min_by17h82c8c960036018a5E
Ltmp95:
	movq	%rax, -136(%rbp)
	jmp	LBB12_5
LBB12_5:
	.loc	15 0 13 is_stmt 0
	movq	-112(%rbp), %rax
	movq	-120(%rbp), %rcx
	movq	-104(%rbp), %rdx
	movq	-136(%rbp), %rsi
	.loc	15 833 13
	movq	%rsi, -8(%rbp)
Ltmp101:
	.loc	7 265 15 is_stmt 1
	movq	-96(%rbp), %r10
	movq	-88(%rbp), %r9
	.loc	7 265 18 is_stmt 0
	movq	-80(%rbp), %r8
	movq	-72(%rbp), %rdi
	.loc	7 265 9
	movq	%r10, (%rcx)
	movq	%r9, 8(%rcx)
	movq	%r8, 16(%rcx)
	movq	%rdi, 24(%rcx)
	movq	$0, 32(%rcx)
	movq	%rsi, 40(%rcx)
	movq	%rdx, 48(%rcx)
Ltmp102:
	.loc	7 266 6 is_stmt 1
	addq	$144, %rsp
	popq	%rbp
	retq
Ltmp103:
Lfunc_end12:
	.cfi_endproc
	.section	__TEXT,__gcc_except_tab
	.p2align	2
GCC_except_table12:
Lexception4:
	.byte	255
	.byte	255
	.byte	1
	.uleb128 Lcst_end4-Lcst_begin4
Lcst_begin4:
	.uleb128 Ltmp90-Lfunc_begin12
	.uleb128 Ltmp91-Ltmp90
	.uleb128 Ltmp96-Lfunc_begin12
	.byte	0
	.uleb128 Ltmp91-Lfunc_begin12
	.uleb128 Ltmp92-Ltmp91
	.byte	0
	.byte	0
	.uleb128 Ltmp92-Lfunc_begin12
	.uleb128 Ltmp95-Ltmp92
	.uleb128 Ltmp96-Lfunc_begin12
	.byte	0
Lcst_end4:
	.p2align	2

	.section	__TEXT,__text,regular,pure_instructions
	.globl	__ZN111_$LT$core..iter..adapters..zip..Zip$LT$A$C$B$GT$$u20$as$u20$core..iter..adapters..zip..ZipImpl$LT$A$C$B$GT$$GT$4next17h155be3f1563863d5E
	.p2align	4, 0x90
__ZN111_$LT$core..iter..adapters..zip..Zip$LT$A$C$B$GT$$u20$as$u20$core..iter..adapters..zip..ZipImpl$LT$A$C$B$GT$$GT$4next17h155be3f1563863d5E:
Lfunc_begin13:
	.loc	7 269 0
	.cfi_startproc
	.cfi_personality 155, _rust_eh_personality
	.cfi_lsda 16, Lexception5
	pushq	%rbp
	.cfi_def_cfa_offset 16
	.cfi_offset %rbp, -16
	movq	%rsp, %rbp
	.cfi_def_cfa_register %rbp
	subq	$112, %rsp
	movq	%rdi, -88(%rbp)
	movq	%rdi, -40(%rbp)
Ltmp107:
	.loc	7 270 12 prologue_end
	movq	32(%rdi), %rax
	cmpq	40(%rdi), %rax
	jb	LBB13_2
	.loc	7 279 19
	xorl	%eax, %eax
	testb	$1, %al
	jne	LBB13_8
	jmp	LBB13_7
LBB13_2:
	.loc	7 0 19 is_stmt 0
	movq	-88(%rbp), %rdi
	.loc	7 271 21 is_stmt 1
	movq	32(%rdi), %rsi
	movq	%rsi, -112(%rbp)
	movq	%rsi, -32(%rbp)
Ltmp108:
	.loc	7 274 13
	movq	32(%rdi), %rax
	incq	%rax
	movq	%rax, 32(%rdi)
	.loc	7 277 23
	callq	__ZN91_$LT$core..slice..iter..Iter$LT$T$GT$$u20$as$u20$core..iter..traits..iterator..Iterator$GT$24__iterator_get_unchecked17h65552f989e48a34bE
	movq	-88(%rbp), %rdi
	movq	-112(%rbp), %rsi
	movq	%rax, -104(%rbp)
	.loc	7 277 59 is_stmt 0
	addq	$16, %rdi
Ltmp104:
	callq	__ZN91_$LT$core..slice..iter..Iter$LT$T$GT$$u20$as$u20$core..iter..traits..iterator..Iterator$GT$24__iterator_get_unchecked17h65552f989e48a34bE
Ltmp105:
	movq	%rax, -96(%rbp)
	jmp	LBB13_5
Ltmp109:
LBB13_3:
	.loc	7 269 5 is_stmt 1
	movq	-24(%rbp), %rdi
	callq	__Unwind_Resume
LBB13_4:
Ltmp106:
	.loc	7 0 5 is_stmt 0
	movq	%rax, %rcx
	movl	%edx, %eax
	movq	%rcx, -24(%rbp)
	movl	%eax, -16(%rbp)
	jmp	LBB13_3
LBB13_5:
	movq	-96(%rbp), %rax
	movq	-104(%rbp), %rcx
Ltmp110:
	.loc	7 277 22 is_stmt 1
	movq	%rcx, -64(%rbp)
	movq	%rax, -56(%rbp)
	.loc	7 277 17 is_stmt 0
	movq	-64(%rbp), %rcx
	movq	-56(%rbp), %rax
	movq	%rcx, -80(%rbp)
	movq	%rax, -72(%rbp)
Ltmp111:
LBB13_6:
	.loc	7 293 6 is_stmt 1
	movq	-80(%rbp), %rax
	movq	-72(%rbp), %rdx
	addq	$112, %rsp
	popq	%rbp
	retq
LBB13_7:
	.loc	7 279 19
	movb	$0, -41(%rbp)
	jmp	LBB13_9
LBB13_8:
	.loc	7 0 19 is_stmt 0
	movq	-88(%rbp), %rcx
	.loc	7 279 46
	movq	32(%rcx), %rax
	cmpq	48(%rcx), %rax
	setb	%al
	.loc	7 279 19
	andb	$1, %al
	movb	%al, -41(%rbp)
LBB13_9:
	testb	$1, -41(%rbp)
	jne	LBB13_11
	.loc	7 291 13 is_stmt 1
	movq	$0, -80(%rbp)
	.loc	7 279 16
	jmp	LBB13_12
LBB13_11:
	.loc	7 0 16 is_stmt 0
	movq	-88(%rbp), %rdi
	.loc	7 280 21 is_stmt 1
	movq	32(%rdi), %rsi
	movq	%rsi, -8(%rbp)
Ltmp112:
	.loc	7 282 13
	movq	32(%rdi), %rax
	addq	$1, %rax
	movq	%rax, 32(%rdi)
	.loc	7 283 13
	movq	40(%rdi), %rax
	addq	$1, %rax
	movq	%rax, 40(%rdi)
	.loc	7 287 17
	callq	__ZN91_$LT$core..slice..iter..Iter$LT$T$GT$$u20$as$u20$core..iter..traits..iterator..Iterator$GT$24__iterator_get_unchecked17h65552f989e48a34bE
	.loc	7 289 13
	movq	$0, -80(%rbp)
Ltmp113:
LBB13_12:
	.loc	7 270 9
	jmp	LBB13_6
Ltmp114:
Lfunc_end13:
	.cfi_endproc
	.section	__TEXT,__gcc_except_tab
	.p2align	2
GCC_except_table13:
Lexception5:
	.byte	255
	.byte	255
	.byte	1
	.uleb128 Lcst_end5-Lcst_begin5
Lcst_begin5:
	.uleb128 Lfunc_begin13-Lfunc_begin13
	.uleb128 Ltmp104-Lfunc_begin13
	.byte	0
	.byte	0
	.uleb128 Ltmp104-Lfunc_begin13
	.uleb128 Ltmp105-Ltmp104
	.uleb128 Ltmp106-Lfunc_begin13
	.byte	0
	.uleb128 Ltmp105-Lfunc_begin13
	.uleb128 Lfunc_end13-Ltmp105
	.byte	0
	.byte	0
Lcst_end5:
	.p2align	2

	.section	__TEXT,__text,regular,pure_instructions
	.globl	__ZN111_$LT$core..iter..adapters..zip..Zip$LT$A$C$B$GT$$u20$as$u20$core..iter..adapters..zip..ZipImpl$LT$A$C$B$GT$$GT$4next17hb0bd3253530d4789E
	.p2align	4, 0x90
__ZN111_$LT$core..iter..adapters..zip..Zip$LT$A$C$B$GT$$u20$as$u20$core..iter..adapters..zip..ZipImpl$LT$A$C$B$GT$$GT$4next17hb0bd3253530d4789E:
Lfunc_begin14:
	.loc	7 269 0
	.cfi_startproc
	.cfi_personality 155, _rust_eh_personality
	.cfi_lsda 16, Lexception6
	pushq	%rbp
	.cfi_def_cfa_offset 16
	.cfi_offset %rbp, -16
	movq	%rsp, %rbp
	.cfi_def_cfa_register %rbp
	subq	$112, %rsp
	movq	%rdi, -88(%rbp)
	movq	%rdi, -40(%rbp)
Ltmp118:
	.loc	7 270 12 prologue_end
	movq	32(%rdi), %rax
	cmpq	40(%rdi), %rax
	jb	LBB14_2
	.loc	7 279 19
	xorl	%eax, %eax
	testb	$1, %al
	jne	LBB14_8
	jmp	LBB14_7
LBB14_2:
	.loc	7 0 19 is_stmt 0
	movq	-88(%rbp), %rdi
	.loc	7 271 21 is_stmt 1
	movq	32(%rdi), %rsi
	movq	%rsi, -112(%rbp)
	movq	%rsi, -32(%rbp)
Ltmp119:
	.loc	7 274 13
	movq	32(%rdi), %rax
	incq	%rax
	movq	%rax, 32(%rdi)
	.loc	7 277 23
	callq	__ZN91_$LT$core..slice..iter..Iter$LT$T$GT$$u20$as$u20$core..iter..traits..iterator..Iterator$GT$24__iterator_get_unchecked17h9a71ac56e15ce9b5E
	movq	-88(%rbp), %rdi
	movq	-112(%rbp), %rsi
	movq	%rax, -104(%rbp)
	.loc	7 277 59 is_stmt 0
	addq	$16, %rdi
Ltmp115:
	callq	__ZN91_$LT$core..slice..iter..Iter$LT$T$GT$$u20$as$u20$core..iter..traits..iterator..Iterator$GT$24__iterator_get_unchecked17h9a71ac56e15ce9b5E
Ltmp116:
	movq	%rax, -96(%rbp)
	jmp	LBB14_5
Ltmp120:
LBB14_3:
	.loc	7 269 5 is_stmt 1
	movq	-24(%rbp), %rdi
	callq	__Unwind_Resume
LBB14_4:
Ltmp117:
	.loc	7 0 5 is_stmt 0
	movq	%rax, %rcx
	movl	%edx, %eax
	movq	%rcx, -24(%rbp)
	movl	%eax, -16(%rbp)
	jmp	LBB14_3
LBB14_5:
	movq	-96(%rbp), %rax
	movq	-104(%rbp), %rcx
Ltmp121:
	.loc	7 277 22 is_stmt 1
	movq	%rcx, -64(%rbp)
	movq	%rax, -56(%rbp)
	.loc	7 277 17 is_stmt 0
	movq	-64(%rbp), %rcx
	movq	-56(%rbp), %rax
	movq	%rcx, -80(%rbp)
	movq	%rax, -72(%rbp)
Ltmp122:
LBB14_6:
	.loc	7 293 6 is_stmt 1
	movq	-80(%rbp), %rax
	movq	-72(%rbp), %rdx
	addq	$112, %rsp
	popq	%rbp
	retq
LBB14_7:
	.loc	7 279 19
	movb	$0, -41(%rbp)
	jmp	LBB14_9
LBB14_8:
	.loc	7 0 19 is_stmt 0
	movq	-88(%rbp), %rcx
	.loc	7 279 46
	movq	32(%rcx), %rax
	cmpq	48(%rcx), %rax
	setb	%al
	.loc	7 279 19
	andb	$1, %al
	movb	%al, -41(%rbp)
LBB14_9:
	testb	$1, -41(%rbp)
	jne	LBB14_11
	.loc	7 291 13 is_stmt 1
	movq	$0, -80(%rbp)
	.loc	7 279 16
	jmp	LBB14_12
LBB14_11:
	.loc	7 0 16 is_stmt 0
	movq	-88(%rbp), %rdi
	.loc	7 280 21 is_stmt 1
	movq	32(%rdi), %rsi
	movq	%rsi, -8(%rbp)
Ltmp123:
	.loc	7 282 13
	movq	32(%rdi), %rax
	addq	$1, %rax
	movq	%rax, 32(%rdi)
	.loc	7 283 13
	movq	40(%rdi), %rax
	addq	$1, %rax
	movq	%rax, 40(%rdi)
	.loc	7 287 17
	callq	__ZN91_$LT$core..slice..iter..Iter$LT$T$GT$$u20$as$u20$core..iter..traits..iterator..Iterator$GT$24__iterator_get_unchecked17h9a71ac56e15ce9b5E
	.loc	7 289 13
	movq	$0, -80(%rbp)
Ltmp124:
LBB14_12:
	.loc	7 270 9
	jmp	LBB14_6
Ltmp125:
Lfunc_end14:
	.cfi_endproc
	.section	__TEXT,__gcc_except_tab
	.p2align	2
GCC_except_table14:
Lexception6:
	.byte	255
	.byte	255
	.byte	1
	.uleb128 Lcst_end6-Lcst_begin6
Lcst_begin6:
	.uleb128 Lfunc_begin14-Lfunc_begin14
	.uleb128 Ltmp115-Lfunc_begin14
	.byte	0
	.byte	0
	.uleb128 Ltmp115-Lfunc_begin14
	.uleb128 Ltmp116-Ltmp115
	.uleb128 Ltmp117-Lfunc_begin14
	.byte	0
	.uleb128 Ltmp116-Lfunc_begin14
	.uleb128 Lfunc_end14-Ltmp116
	.byte	0
	.byte	0
Lcst_end6:
	.p2align	2

	.section	__TEXT,__text,regular,pure_instructions
	.globl	__ZN112_$LT$alloc..vec..Vec$LT$T$C$A$GT$..retain_mut..BackshiftOnDrop$LT$T$C$A$GT$$u20$as$u20$core..ops..drop..Drop$GT$4drop17hceea3373db9e70f9E
	.p2align	4, 0x90
__ZN112_$LT$alloc..vec..Vec$LT$T$C$A$GT$..retain_mut..BackshiftOnDrop$LT$T$C$A$GT$$u20$as$u20$core..ops..drop..Drop$GT$4drop17hceea3373db9e70f9E:
Lfunc_begin15:
	.file	16 "/rustc/2c8cc343237b8f7d5a3c3703e3a87f2eb2c54a74/library/alloc/src/vec" "mod.rs"
	.loc	16 1617 0
	.cfi_startproc
	pushq	%rbp
	.cfi_def_cfa_offset 16
	.cfi_offset %rbp, -16
	movq	%rsp, %rbp
	.cfi_def_cfa_register %rbp
	subq	$320, %rsp
	movq	%rdi, -304(%rbp)
	movq	%rdi, -280(%rbp)
Ltmp126:
	.loc	16 1618 20 prologue_end
	cmpq	$0, 8(%rdi)
	ja	LBB15_2
LBB15_1:
	.loc	16 0 20 is_stmt 0
	movq	-304(%rbp), %rdx
	.loc	16 1630 21 is_stmt 1
	movq	24(%rdx), %rax
	movq	%rax, -16(%rbp)
	.loc	16 1630 36 is_stmt 0
	movq	16(%rdx), %rcx
	subq	8(%rdx), %rcx
	movq	%rcx, -8(%rbp)
Ltmp127:
	.loc	16 1377 9 is_stmt 1
	movq	%rcx, 16(%rax)
Ltmp128:
	.loc	16 1632 14
	addq	$320, %rsp
	popq	%rbp
	retq
LBB15_2:
	.loc	16 0 14 is_stmt 0
	movq	-304(%rbp), %rax
	.loc	16 1622 29 is_stmt 1
	movq	24(%rax), %rcx
	movq	%rcx, -272(%rbp)
Ltmp129:
	.loc	16 1243 19
	movq	%rcx, -264(%rbp)
Ltmp130:
	.file	17 "/rustc/2c8cc343237b8f7d5a3c3703e3a87f2eb2c54a74/library/alloc/src" "raw_vec.rs"
	.loc	17 224 9
	movq	8(%rcx), %rcx
	movq	%rcx, -312(%rbp)
	movq	%rcx, -256(%rbp)
Ltmp131:
	.file	18 "/rustc/2c8cc343237b8f7d5a3c3703e3a87f2eb2c54a74/library/core/src/ptr" "unique.rs"
	.loc	18 104 9
	movq	%rcx, -248(%rbp)
Ltmp132:
	.file	19 "/rustc/2c8cc343237b8f7d5a3c3703e3a87f2eb2c54a74/library/core/src/ptr" "non_null.rs"
	.loc	19 326 9
	movq	%rcx, -240(%rbp)
Ltmp133:
	.loc	16 1245 21
	movq	%rcx, -232(%rbp)
Ltmp134:
	.loc	13 52 36
	movq	%rcx, -296(%rbp)
	.loc	13 52 18 is_stmt 0
	movq	-296(%rbp), %rdx
	movq	%rdx, -224(%rbp)
Ltmp135:
	.loc	13 38 13 is_stmt 1
	movq	%rdx, -216(%rbp)
Ltmp136:
	.loc	13 215 33
	movq	%rdx, -208(%rbp)
	.loc	13 215 18 is_stmt 0
	movq	%rdx, -200(%rbp)
Ltmp137:
	.loc	16 1247 9 is_stmt 1
	movq	%rcx, -192(%rbp)
Ltmp138:
	.loc	16 1622 49
	movq	(%rax), %rdx
	movq	%rdx, -184(%rbp)
Ltmp139:
	.loc	10 932 18
	movq	%rcx, -176(%rbp)
	.loc	10 932 30 is_stmt 0
	movq	%rdx, -168(%rbp)
Ltmp140:
	.loc	10 473 18 is_stmt 1
	shlq	$4, %rdx
	addq	%rdx, %rcx
	movq	%rcx, -160(%rbp)
	movq	-160(%rbp), %rsi
	movq	%rsi, -152(%rbp)
Ltmp141:
	.loc	16 1623 29
	movq	24(%rax), %rcx
	movq	%rcx, -144(%rbp)
Ltmp142:
	.loc	16 1280 19
	movq	%rcx, -136(%rbp)
Ltmp143:
	.loc	17 224 9
	movq	8(%rcx), %rcx
	movq	%rcx, -128(%rbp)
Ltmp144:
	.loc	18 104 9
	movq	%rcx, -120(%rbp)
Ltmp145:
	.loc	19 326 9
	movq	%rcx, -112(%rbp)
Ltmp146:
	.loc	16 1282 21
	movq	%rcx, -104(%rbp)
Ltmp147:
	.loc	13 52 36
	movq	%rcx, -288(%rbp)
	.loc	13 52 18 is_stmt 0
	movq	-288(%rbp), %rdx
	movq	%rdx, -96(%rbp)
Ltmp148:
	.loc	13 38 13 is_stmt 1
	movq	%rdx, -88(%rbp)
Ltmp149:
	.loc	13 215 33
	movq	%rdx, -80(%rbp)
	.loc	13 215 18 is_stmt 0
	movq	%rdx, -72(%rbp)
Ltmp150:
	.loc	16 1623 53 is_stmt 1
	movq	(%rax), %rdx
	subq	8(%rax), %rdx
	movq	%rdx, -64(%rbp)
Ltmp151:
	.loc	13 1034 18
	movq	%rcx, -56(%rbp)
	.loc	13 1034 30 is_stmt 0
	movq	%rdx, -48(%rbp)
Ltmp152:
	.loc	13 487 18 is_stmt 1
	shlq	$4, %rdx
	addq	%rdx, %rcx
	movq	%rcx, -40(%rbp)
	movq	-40(%rbp), %rdi
	movq	%rdi, -32(%rbp)
Ltmp153:
	.loc	16 1624 29
	movq	16(%rax), %rdx
	subq	(%rax), %rdx
	movq	%rdx, -24(%rbp)
Ltmp154:
	.file	20 "/rustc/2c8cc343237b8f7d5a3c3703e3a87f2eb2c54a74/library/core/src" "intrinsics.rs"
	.loc	20 2458 9
	shlq	$4, %rdx
	callq	_memmove
Ltmp155:
	.loc	16 1618 17
	jmp	LBB15_1
Ltmp156:
Lfunc_end15:
	.cfi_endproc

	.globl	__ZN115_$LT$core..iter..adapters..filter_map..FilterMap$LT$I$C$F$GT$$u20$as$u20$core..iter..traits..iterator..Iterator$GT$4fold17h378df8deba5d560aE
	.p2align	4, 0x90
__ZN115_$LT$core..iter..adapters..filter_map..FilterMap$LT$I$C$F$GT$$u20$as$u20$core..iter..traits..iterator..Iterator$GT$4fold17h378df8deba5d560aE:
Lfunc_begin16:
	.file	21 "/rustc/2c8cc343237b8f7d5a3c3703e3a87f2eb2c54a74/library/core/src/iter/adapters" "filter_map.rs"
	.loc	21 81 0
	.cfi_startproc
	.cfi_personality 155, _rust_eh_personality
	.cfi_lsda 16, Lexception7
	pushq	%rbp
	.cfi_def_cfa_offset 16
	.cfi_offset %rbp, -16
	movq	%rsp, %rbp
	.cfi_def_cfa_register %rbp
	subq	$96, %rsp
	movq	%rdx, -88(%rbp)
	movq	%rdi, %rax
	movq	-88(%rbp), %rdi
	movq	%rax, -80(%rbp)
	movq	%rsi, -72(%rbp)
	movq	%rax, -48(%rbp)
	movq	%rsi, -40(%rbp)
	movq	%rdi, -24(%rbp)
Ltmp162:
	.loc	21 85 9 prologue_end
	movb	$1, -49(%rbp)
	.loc	21 85 24 is_stmt 0
	movb	$1, -50(%rbp)
Ltmp157:
	.loc	21 85 30
	callq	__ZN4core4iter8adapters10filter_map15filter_map_fold17h21830eb1695f66c2E
Ltmp158:
	movq	%rax, -64(%rbp)
	jmp	LBB16_3
LBB16_1:
	.loc	21 85 59
	testb	$1, -50(%rbp)
	jne	LBB16_6
	jmp	LBB16_5
LBB16_2:
Ltmp161:
	.loc	21 0 59
	movq	%rax, %rcx
	movl	%edx, %eax
	movq	%rcx, -16(%rbp)
	movl	%eax, -8(%rbp)
	jmp	LBB16_1
LBB16_3:
	movq	-64(%rbp), %rdx
	movq	-72(%rbp), %rsi
	movq	-80(%rbp), %rdi
	.loc	21 85 9
	movb	$0, -49(%rbp)
	movb	$0, -50(%rbp)
Ltmp159:
	callq	__ZN4core4iter6traits8iterator8Iterator4fold17h501e7459fa44df51E
Ltmp160:
	jmp	LBB16_4
LBB16_4:
	.loc	21 86 6 is_stmt 1
	addq	$96, %rsp
	popq	%rbp
	retq
LBB16_5:
	.loc	21 85 59
	testb	$1, -49(%rbp)
	jne	LBB16_8
	jmp	LBB16_7
LBB16_6:
	jmp	LBB16_5
LBB16_7:
	.loc	21 81 5
	movq	-16(%rbp), %rdi
	callq	__Unwind_Resume
LBB16_8:
	.loc	21 85 59
	jmp	LBB16_7
Ltmp163:
Lfunc_end16:
	.cfi_endproc
	.section	__TEXT,__gcc_except_tab
	.p2align	2
GCC_except_table16:
Lexception7:
	.byte	255
	.byte	255
	.byte	1
	.uleb128 Lcst_end7-Lcst_begin7
Lcst_begin7:
	.uleb128 Ltmp157-Lfunc_begin16
	.uleb128 Ltmp160-Ltmp157
	.uleb128 Ltmp161-Lfunc_begin16
	.byte	0
	.uleb128 Ltmp160-Lfunc_begin16
	.uleb128 Lfunc_end16-Ltmp160
	.byte	0
	.byte	0
Lcst_end7:
	.p2align	2

	.section	__TEXT,__text,regular,pure_instructions
	.globl	__ZN115_$LT$core..iter..adapters..filter_map..FilterMap$LT$I$C$F$GT$$u20$as$u20$core..iter..traits..iterator..Iterator$GT$4fold17hc1d254422e3dd352E
	.p2align	4, 0x90
__ZN115_$LT$core..iter..adapters..filter_map..FilterMap$LT$I$C$F$GT$$u20$as$u20$core..iter..traits..iterator..Iterator$GT$4fold17hc1d254422e3dd352E:
Lfunc_begin17:
	.loc	21 81 0
	.cfi_startproc
	.cfi_personality 155, _rust_eh_personality
	.cfi_lsda 16, Lexception8
	pushq	%rbp
	.cfi_def_cfa_offset 16
	.cfi_offset %rbp, -16
	movq	%rsp, %rbp
	.cfi_def_cfa_register %rbp
	subq	$96, %rsp
	movq	%rdx, -88(%rbp)
	movq	%rdi, %rax
	movq	-88(%rbp), %rdi
	movq	%rax, -80(%rbp)
	movq	%rsi, -72(%rbp)
	movq	%rax, -48(%rbp)
	movq	%rsi, -40(%rbp)
	movq	%rdi, -24(%rbp)
Ltmp169:
	.loc	21 85 9 prologue_end
	movb	$1, -49(%rbp)
	.loc	21 85 24 is_stmt 0
	movb	$1, -50(%rbp)
Ltmp164:
	.loc	21 85 30
	callq	__ZN4core4iter8adapters10filter_map15filter_map_fold17hd8ea00a0ef961a87E
Ltmp165:
	movq	%rax, -64(%rbp)
	jmp	LBB17_3
LBB17_1:
	.loc	21 85 59
	testb	$1, -50(%rbp)
	jne	LBB17_6
	jmp	LBB17_5
LBB17_2:
Ltmp168:
	.loc	21 0 59
	movq	%rax, %rcx
	movl	%edx, %eax
	movq	%rcx, -16(%rbp)
	movl	%eax, -8(%rbp)
	jmp	LBB17_1
LBB17_3:
	movq	-64(%rbp), %rdx
	movq	-72(%rbp), %rsi
	movq	-80(%rbp), %rdi
	.loc	21 85 9
	movb	$0, -49(%rbp)
	movb	$0, -50(%rbp)
Ltmp166:
	callq	__ZN4core4iter6traits8iterator8Iterator4fold17h3d2074d05ba8d02bE
Ltmp167:
	jmp	LBB17_4
LBB17_4:
	.loc	21 86 6 is_stmt 1
	addq	$96, %rsp
	popq	%rbp
	retq
LBB17_5:
	.loc	21 85 59
	testb	$1, -49(%rbp)
	jne	LBB17_8
	jmp	LBB17_7
LBB17_6:
	jmp	LBB17_5
LBB17_7:
	.loc	21 81 5
	movq	-16(%rbp), %rdi
	callq	__Unwind_Resume
LBB17_8:
	.loc	21 85 59
	jmp	LBB17_7
Ltmp170:
Lfunc_end17:
	.cfi_endproc
	.section	__TEXT,__gcc_except_tab
	.p2align	2
GCC_except_table17:
Lexception8:
	.byte	255
	.byte	255
	.byte	1
	.uleb128 Lcst_end8-Lcst_begin8
Lcst_begin8:
	.uleb128 Ltmp164-Lfunc_begin17
	.uleb128 Ltmp167-Ltmp164
	.uleb128 Ltmp168-Lfunc_begin17
	.byte	0
	.uleb128 Ltmp167-Lfunc_begin17
	.uleb128 Lfunc_end17-Ltmp167
	.byte	0
	.byte	0
Lcst_end8:
	.p2align	2

	.section	__TEXT,__text,regular,pure_instructions
	.globl	__ZN115_$LT$core..panic..unwind_safe..AssertUnwindSafe$LT$F$GT$$u20$as$u20$core..ops..function..FnOnce$LT$$LP$$RP$$GT$$GT$9call_once17h9648a80cb8edfff5E
	.p2align	4, 0x90
__ZN115_$LT$core..panic..unwind_safe..AssertUnwindSafe$LT$F$GT$$u20$as$u20$core..ops..function..FnOnce$LT$$LP$$RP$$GT$$GT$9call_once17h9648a80cb8edfff5E:
Lfunc_begin18:
	.file	22 "/rustc/2c8cc343237b8f7d5a3c3703e3a87f2eb2c54a74/library/core/src/panic" "unwind_safe.rs"
	.loc	22 270 0
	.cfi_startproc
	pushq	%rbp
	.cfi_def_cfa_offset 16
	.cfi_offset %rbp, -16
	movq	%rsp, %rbp
	.cfi_def_cfa_register %rbp
	subq	$16, %rsp
	movq	%rdi, -8(%rbp)
Ltmp171:
	.loc	22 271 9 prologue_end
	callq	__ZN4core3ops8function6FnOnce9call_once17h55964663f211feacE
	.loc	22 272 6
	addq	$16, %rsp
	popq	%rbp
	retq
Ltmp172:
Lfunc_end18:
	.cfi_endproc

	.globl	__ZN119_$LT$core..ptr..non_null..NonNull$LT$T$GT$$u20$as$u20$core..convert..From$LT$core..ptr..unique..Unique$LT$T$GT$$GT$$GT$4from17h63fa001a5749c3b4E
	.p2align	4, 0x90
__ZN119_$LT$core..ptr..non_null..NonNull$LT$T$GT$$u20$as$u20$core..convert..From$LT$core..ptr..unique..Unique$LT$T$GT$$GT$$GT$4from17h63fa001a5749c3b4E:
Lfunc_begin19:
	.loc	19 765 0
	.cfi_startproc
	pushq	%rbp
	.cfi_def_cfa_offset 16
	.cfi_offset %rbp, -16
	movq	%rsp, %rbp
	.cfi_def_cfa_register %rbp
	subq	$40, %rsp
	movq	%rdi, -32(%rbp)
Ltmp173:
	.loc	19 768 41 prologue_end
	movq	%rdi, -24(%rbp)
Ltmp174:
	.loc	18 104 9
	movq	%rdi, -16(%rbp)
Ltmp175:
	.loc	19 326 9
	movq	%rdi, -8(%rbp)
Ltmp176:
	.loc	19 201 13
	movq	%rdi, -40(%rbp)
Ltmp177:
	.loc	19 769 6
	movq	-40(%rbp), %rax
	addq	$40, %rsp
	popq	%rbp
	retq
Ltmp178:
Lfunc_end19:
	.cfi_endproc

	.p2align	4, 0x90
__ZN122_$LT$alloc..collections..TryReserveError$u20$as$u20$core..convert..From$LT$alloc..collections..TryReserveErrorKind$GT$$GT$4from17h5c5ff372cf1cb41bE:
Lfunc_begin20:
	.file	23 "/rustc/2c8cc343237b8f7d5a3c3703e3a87f2eb2c54a74/library/alloc/src/collections" "mod.rs"
	.loc	23 116 0
	.cfi_startproc
	pushq	%rbp
	.cfi_def_cfa_offset 16
	.cfi_offset %rbp, -16
	movq	%rsp, %rbp
	.cfi_def_cfa_register %rbp
	subq	$32, %rsp
	movq	%rdi, -16(%rbp)
	movq	%rsi, -8(%rbp)
Ltmp179:
	.loc	23 117 9 prologue_end
	movq	%rdi, -32(%rbp)
	movq	%rsi, -24(%rbp)
	.loc	23 118 6
	movq	-32(%rbp), %rax
	movq	-24(%rbp), %rdx
	addq	$32, %rsp
	popq	%rbp
	retq
Ltmp180:
Lfunc_end20:
	.cfi_endproc

	.globl	__ZN153_$LT$core..result..Result$LT$T$C$F$GT$$u20$as$u20$core..ops..try_trait..FromResidual$LT$core..result..Result$LT$core..convert..Infallible$C$E$GT$$GT$$GT$13from_residual17h29384b10b59c54ccE
	.p2align	4, 0x90
__ZN153_$LT$core..result..Result$LT$T$C$F$GT$$u20$as$u20$core..ops..try_trait..FromResidual$LT$core..result..Result$LT$core..convert..Infallible$C$E$GT$$GT$$GT$13from_residual17h29384b10b59c54ccE:
Lfunc_begin21:
	.file	24 "/rustc/2c8cc343237b8f7d5a3c3703e3a87f2eb2c54a74/library/core/src" "result.rs"
	.loc	24 2105 0
	.cfi_startproc
	pushq	%rbp
	.cfi_def_cfa_offset 16
	.cfi_offset %rbp, -16
	movq	%rsp, %rbp
	.cfi_def_cfa_register %rbp
	subq	$24, %rsp
Ltmp181:
	.file	25 "/rustc/2c8cc343237b8f7d5a3c3703e3a87f2eb2c54a74/library/core/src/convert" "mod.rs"
	.loc	25 738 6 prologue_end
	ud2
Ltmp182:
Lfunc_end21:
	.cfi_endproc

	.globl	__ZN153_$LT$core..result..Result$LT$T$C$F$GT$$u20$as$u20$core..ops..try_trait..FromResidual$LT$core..result..Result$LT$core..convert..Infallible$C$E$GT$$GT$$GT$13from_residual17h7349051acffd6e44E
	.p2align	4, 0x90
__ZN153_$LT$core..result..Result$LT$T$C$F$GT$$u20$as$u20$core..ops..try_trait..FromResidual$LT$core..result..Result$LT$core..convert..Infallible$C$E$GT$$GT$$GT$13from_residual17h7349051acffd6e44E:
Lfunc_begin22:
	.loc	24 2105 0
	.cfi_startproc
	pushq	%rbp
	.cfi_def_cfa_offset 16
	.cfi_offset %rbp, -16
	movq	%rsp, %rbp
	.cfi_def_cfa_register %rbp
	subq	$24, %rsp
Ltmp183:
	.loc	25 738 6 prologue_end
	ud2
Ltmp184:
Lfunc_end22:
	.cfi_endproc

	.globl	__ZN153_$LT$core..result..Result$LT$T$C$F$GT$$u20$as$u20$core..ops..try_trait..FromResidual$LT$core..result..Result$LT$core..convert..Infallible$C$E$GT$$GT$$GT$13from_residual17hbe551618ee32868bE
	.p2align	4, 0x90
__ZN153_$LT$core..result..Result$LT$T$C$F$GT$$u20$as$u20$core..ops..try_trait..FromResidual$LT$core..result..Result$LT$core..convert..Infallible$C$E$GT$$GT$$GT$13from_residual17hbe551618ee32868bE:
Lfunc_begin23:
	.loc	24 2105 0
	.cfi_startproc
	pushq	%rbp
	.cfi_def_cfa_offset 16
	.cfi_offset %rbp, -16
	movq	%rsp, %rbp
	.cfi_def_cfa_register %rbp
	subq	$24, %rsp
Ltmp185:
	.loc	24 2107 23 prologue_end
	movb	$1, -17(%rbp)
Ltmp186:
	.loc	24 2109 6
	movb	-17(%rbp), %al
	andb	$1, %al
	movzbl	%al, %eax
	addq	$24, %rsp
	popq	%rbp
	retq
Ltmp187:
Lfunc_end23:
	.cfi_endproc

	.globl	__ZN3std10sys_common8lazy_box16LazyBox$LT$T$GT$10initialize17h68bc92361671a354E
	.p2align	4, 0x90
__ZN3std10sys_common8lazy_box16LazyBox$LT$T$GT$10initialize17h68bc92361671a354E:
Lfunc_begin24:
	.file	26 "/rustc/2c8cc343237b8f7d5a3c3703e3a87f2eb2c54a74/library/std/src/sys_common" "lazy_box.rs"
	.loc	26 54 0
	.cfi_startproc
	pushq	%rbp
	.cfi_def_cfa_offset 16
	.cfi_offset %rbp, -16
	movq	%rsp, %rbp
	.cfi_def_cfa_register %rbp
	subq	$272, %rsp
	movq	%rdi, -256(%rbp)
	movq	%rdi, -168(%rbp)
Ltmp188:
	.loc	26 55 37 prologue_end
	callq	__ZN108_$LT$std..sys..unix..locks..pthread_mutex..AllocatedMutex$u20$as$u20$std..sys_common..lazy_box..LazyInit$GT$4init17hd5ce1e30fed3afacE
	movq	%rax, %rdi
	movq	%rdi, -136(%rbp)
Ltmp189:
	.file	27 "/rustc/2c8cc343237b8f7d5a3c3703e3a87f2eb2c54a74/library/alloc/src" "boxed.rs"
	.loc	27 1059 39
	movq	%rdi, -128(%rbp)
Ltmp190:
	.loc	27 1112 31
	callq	__ZN5alloc5boxed16Box$LT$T$C$A$GT$11into_unique17h6f58ca8582a80aceE
	movq	-256(%rbp), %rdi
	.loc	27 1112 14 is_stmt 0
	movq	%rax, -120(%rbp)
Ltmp191:
	.loc	27 1113 10 is_stmt 1
	movq	%rax, -112(%rbp)
Ltmp192:
	.loc	18 104 9
	movq	%rax, -104(%rbp)
Ltmp193:
	.loc	27 1113 9
	movq	%rax, -208(%rbp)
Ltmp194:
	.loc	27 1059 9
	movq	-208(%rbp), %rdx
	movq	%rdx, -248(%rbp)
	movq	%rdx, -96(%rbp)
Ltmp195:
	.loc	26 56 15
	movq	%rdi, -88(%rbp)
Ltmp196:
	.loc	11 599 14
	movq	$0, -80(%rbp)
	movq	-80(%rbp), %rax
	movq	%rax, -72(%rbp)
Ltmp197:
	.loc	12 135 36
	movq	%rax, -192(%rbp)
	.loc	12 135 14 is_stmt 0
	movq	-192(%rbp), %rax
	movq	%rax, -200(%rbp)
	movq	-200(%rbp), %rsi
	movq	%rsi, -64(%rbp)
Ltmp198:
	.loc	26 56 53 is_stmt 1
	movq	%rdx, -56(%rbp)
Ltmp199:
	.file	28 "/rustc/2c8cc343237b8f7d5a3c3703e3a87f2eb2c54a74/library/core/src/sync" "atomic.rs"
	.loc	28 1355 42
	movq	%rdi, -48(%rbp)
	movl	$3, %ecx
	movl	$2, %r8d
	.loc	28 1355 18 is_stmt 0
	callq	__ZN4core4sync6atomic23atomic_compare_exchange17ha764e3841969e079E
	movq	%rdx, -224(%rbp)
	movq	%rax, -232(%rbp)
Ltmp200:
	.loc	26 56 9 is_stmt 1
	cmpq	$0, -232(%rbp)
	jne	LBB24_2
	.loc	26 0 9 is_stmt 0
	movq	-248(%rbp), %rax
	.loc	26 57 22 is_stmt 1
	movq	%rax, -240(%rbp)
	jmp	LBB24_3
LBB24_2:
	.loc	26 0 22 is_stmt 0
	movq	-248(%rbp), %rax
	.loc	26 58 17 is_stmt 1
	movq	-224(%rbp), %rcx
	movq	%rcx, -264(%rbp)
	movq	%rcx, -40(%rbp)
Ltmp201:
	.loc	26 61 55
	movq	%rax, -32(%rbp)
Ltmp202:
	.loc	27 958 36
	movq	%rax, -24(%rbp)
Ltmp203:
	.loc	27 1014 44
	movq	%rax, -16(%rbp)
Ltmp204:
	.loc	18 87 59
	movq	%rax, -8(%rbp)
Ltmp205:
	.loc	19 201 13
	movq	%rax, -176(%rbp)
Ltmp206:
	.loc	18 87 18
	movq	-176(%rbp), %rax
	movq	%rax, -184(%rbp)
Ltmp207:
	.loc	27 1014 9
	movq	-184(%rbp), %rax
	movq	%rax, -216(%rbp)
Ltmp208:
	.loc	26 61 17
	movq	-216(%rbp), %rdi
	callq	__ZN108_$LT$std..sys..unix..locks..pthread_mutex..AllocatedMutex$u20$as$u20$std..sys_common..lazy_box..LazyInit$GT$11cancel_init17h0378143b8d0c004eE
	movq	-264(%rbp), %rax
	.loc	26 62 17
	movq	%rax, -240(%rbp)
Ltmp209:
LBB24_3:
	.loc	26 65 6
	movq	-240(%rbp), %rax
	addq	$272, %rsp
	popq	%rbp
	retq
Ltmp210:
Lfunc_end24:
	.cfi_endproc

	.globl	__ZN3std10sys_common8lazy_box16LazyBox$LT$T$GT$10initialize17hf244e3894df84fe0E
	.p2align	4, 0x90
__ZN3std10sys_common8lazy_box16LazyBox$LT$T$GT$10initialize17hf244e3894df84fe0E:
Lfunc_begin25:
	.loc	26 54 0
	.cfi_startproc
	pushq	%rbp
	.cfi_def_cfa_offset 16
	.cfi_offset %rbp, -16
	movq	%rsp, %rbp
	.cfi_def_cfa_register %rbp
	subq	$272, %rsp
	movq	%rdi, -256(%rbp)
	movq	%rdi, -168(%rbp)
Ltmp211:
	.loc	26 55 37 prologue_end
	callq	__ZN110_$LT$std..sys..unix..locks..pthread_rwlock..AllocatedRwLock$u20$as$u20$std..sys_common..lazy_box..LazyInit$GT$4init17hc285ee0fbc200f6dE
	movq	%rax, %rdi
	movq	%rdi, -136(%rbp)
Ltmp212:
	.loc	27 1059 39
	movq	%rdi, -128(%rbp)
Ltmp213:
	.loc	27 1112 31
	callq	__ZN5alloc5boxed16Box$LT$T$C$A$GT$11into_unique17h29f01071907e10eaE
	movq	-256(%rbp), %rdi
	.loc	27 1112 14 is_stmt 0
	movq	%rax, -120(%rbp)
Ltmp214:
	.loc	27 1113 10 is_stmt 1
	movq	%rax, -112(%rbp)
Ltmp215:
	.loc	18 104 9
	movq	%rax, -104(%rbp)
Ltmp216:
	.loc	27 1113 9
	movq	%rax, -208(%rbp)
Ltmp217:
	.loc	27 1059 9
	movq	-208(%rbp), %rdx
	movq	%rdx, -248(%rbp)
	movq	%rdx, -96(%rbp)
Ltmp218:
	.loc	26 56 15
	movq	%rdi, -88(%rbp)
Ltmp219:
	.loc	11 599 14
	movq	$0, -80(%rbp)
	movq	-80(%rbp), %rax
	movq	%rax, -72(%rbp)
Ltmp220:
	.loc	12 135 36
	movq	%rax, -192(%rbp)
	.loc	12 135 14 is_stmt 0
	movq	-192(%rbp), %rax
	movq	%rax, -200(%rbp)
	movq	-200(%rbp), %rsi
	movq	%rsi, -64(%rbp)
Ltmp221:
	.loc	26 56 53 is_stmt 1
	movq	%rdx, -56(%rbp)
Ltmp222:
	.loc	28 1355 42
	movq	%rdi, -48(%rbp)
	movl	$3, %ecx
	movl	$2, %r8d
	.loc	28 1355 18 is_stmt 0
	callq	__ZN4core4sync6atomic23atomic_compare_exchange17h81525a70c2b376f1E
	movq	%rdx, -224(%rbp)
	movq	%rax, -232(%rbp)
Ltmp223:
	.loc	26 56 9 is_stmt 1
	cmpq	$0, -232(%rbp)
	jne	LBB25_2
	.loc	26 0 9 is_stmt 0
	movq	-248(%rbp), %rax
	.loc	26 57 22 is_stmt 1
	movq	%rax, -240(%rbp)
	jmp	LBB25_3
LBB25_2:
	.loc	26 0 22 is_stmt 0
	movq	-248(%rbp), %rax
	.loc	26 58 17 is_stmt 1
	movq	-224(%rbp), %rcx
	movq	%rcx, -264(%rbp)
	movq	%rcx, -40(%rbp)
Ltmp224:
	.loc	26 61 55
	movq	%rax, -32(%rbp)
Ltmp225:
	.loc	27 958 36
	movq	%rax, -24(%rbp)
Ltmp226:
	.loc	27 1014 44
	movq	%rax, -16(%rbp)
Ltmp227:
	.loc	18 87 59
	movq	%rax, -8(%rbp)
Ltmp228:
	.loc	19 201 13
	movq	%rax, -176(%rbp)
Ltmp229:
	.loc	18 87 18
	movq	-176(%rbp), %rax
	movq	%rax, -184(%rbp)
Ltmp230:
	.loc	27 1014 9
	movq	-184(%rbp), %rax
	movq	%rax, -216(%rbp)
Ltmp231:
	.loc	26 61 17
	movq	-216(%rbp), %rdi
	callq	__ZN110_$LT$std..sys..unix..locks..pthread_rwlock..AllocatedRwLock$u20$as$u20$std..sys_common..lazy_box..LazyInit$GT$11cancel_init17h5c3c251e3d5ec65aE
	movq	-264(%rbp), %rax
	.loc	26 62 17
	movq	%rax, -240(%rbp)
Ltmp232:
LBB25_3:
	.loc	26 65 6
	movq	-240(%rbp), %rax
	addq	$272, %rsp
	popq	%rbp
	retq
Ltmp233:
Lfunc_end25:
	.cfi_endproc

	.globl	__ZN3std10sys_common8lazy_box16LazyBox$LT$T$GT$11get_pointer17h20bf3feb6f536b22E
	.p2align	4, 0x90
__ZN3std10sys_common8lazy_box16LazyBox$LT$T$GT$11get_pointer17h20bf3feb6f536b22E:
Lfunc_begin26:
	.loc	26 48 0
	.cfi_startproc
	pushq	%rbp
	.cfi_def_cfa_offset 16
	.cfi_offset %rbp, -16
	movq	%rsp, %rbp
	.cfi_def_cfa_register %rbp
	subq	$112, %rsp
	movq	%rdi, -104(%rbp)
	movq	%rdi, -72(%rbp)
Ltmp234:
	.loc	26 49 19 prologue_end
	movq	%rdi, -64(%rbp)
Ltmp235:
	.loc	28 1191 30
	movq	%rdi, -56(%rbp)
	.loc	28 1191 18 is_stmt 0
	movl	$2, %esi
	callq	__ZN4core4sync6atomic11atomic_load17h841a2d78bda6b20cE
	movq	%rax, -96(%rbp)
	movq	%rax, -48(%rbp)
Ltmp236:
	.loc	26 50 12 is_stmt 1
	movq	%rax, -40(%rbp)
Ltmp237:
	.loc	13 52 36
	movq	%rax, -80(%rbp)
	.loc	13 52 18 is_stmt 0
	movq	-80(%rbp), %rax
	movq	%rax, -32(%rbp)
Ltmp238:
	.loc	13 38 13 is_stmt 1
	movq	%rax, -24(%rbp)
Ltmp239:
	.loc	13 215 33
	movq	%rax, -16(%rbp)
	.loc	13 215 18 is_stmt 0
	movq	%rax, -8(%rbp)
Ltmp240:
	.loc	26 50 12 is_stmt 1
	cmpq	$0, -8(%rbp)
	jne	LBB26_2
	.loc	26 0 12 is_stmt 0
	movq	-104(%rbp), %rdi
	.loc	26 50 28
	callq	__ZN3std10sys_common8lazy_box16LazyBox$LT$T$GT$10initialize17h68bc92361671a354E
	movq	%rax, -88(%rbp)
	.loc	26 50 9
	jmp	LBB26_3
LBB26_2:
	.loc	26 0 9
	movq	-96(%rbp), %rax
	.loc	26 50 55
	movq	%rax, -88(%rbp)
Ltmp241:
LBB26_3:
	.loc	26 51 6 is_stmt 1
	movq	-88(%rbp), %rax
	addq	$112, %rsp
	popq	%rbp
	retq
Ltmp242:
Lfunc_end26:
	.cfi_endproc

	.globl	__ZN3std10sys_common8lazy_box16LazyBox$LT$T$GT$11get_pointer17hd1d1f4abbac2447dE
	.p2align	4, 0x90
__ZN3std10sys_common8lazy_box16LazyBox$LT$T$GT$11get_pointer17hd1d1f4abbac2447dE:
Lfunc_begin27:
	.loc	26 48 0
	.cfi_startproc
	pushq	%rbp
	.cfi_def_cfa_offset 16
	.cfi_offset %rbp, -16
	movq	%rsp, %rbp
	.cfi_def_cfa_register %rbp
	subq	$112, %rsp
	movq	%rdi, -104(%rbp)
	movq	%rdi, -72(%rbp)
Ltmp243:
	.loc	26 49 19 prologue_end
	movq	%rdi, -64(%rbp)
Ltmp244:
	.loc	28 1191 30
	movq	%rdi, -56(%rbp)
	.loc	28 1191 18 is_stmt 0
	movl	$2, %esi
	callq	__ZN4core4sync6atomic11atomic_load17ha4915e49190ba09bE
	movq	%rax, -96(%rbp)
	movq	%rax, -48(%rbp)
Ltmp245:
	.loc	26 50 12 is_stmt 1
	movq	%rax, -40(%rbp)
Ltmp246:
	.loc	13 52 36
	movq	%rax, -80(%rbp)
	.loc	13 52 18 is_stmt 0
	movq	-80(%rbp), %rax
	movq	%rax, -32(%rbp)
Ltmp247:
	.loc	13 38 13 is_stmt 1
	movq	%rax, -24(%rbp)
Ltmp248:
	.loc	13 215 33
	movq	%rax, -16(%rbp)
	.loc	13 215 18 is_stmt 0
	movq	%rax, -8(%rbp)
Ltmp249:
	.loc	26 50 12 is_stmt 1
	cmpq	$0, -8(%rbp)
	jne	LBB27_2
	.loc	26 0 12 is_stmt 0
	movq	-104(%rbp), %rdi
	.loc	26 50 28
	callq	__ZN3std10sys_common8lazy_box16LazyBox$LT$T$GT$10initialize17hf244e3894df84fe0E
	movq	%rax, -88(%rbp)
	.loc	26 50 9
	jmp	LBB27_3
LBB27_2:
	.loc	26 0 9
	movq	-96(%rbp), %rax
	.loc	26 50 55
	movq	%rax, -88(%rbp)
Ltmp250:
LBB27_3:
	.loc	26 51 6 is_stmt 1
	movq	-88(%rbp), %rax
	addq	$112, %rsp
	popq	%rbp
	retq
Ltmp251:
Lfunc_end27:
	.cfi_endproc

	.globl	__ZN3std2io5Write9write_all17hc996910469509c98E
	.p2align	4, 0x90
__ZN3std2io5Write9write_all17hc996910469509c98E:
Lfunc_begin28:
	.file	29 "/rustc/2c8cc343237b8f7d5a3c3703e3a87f2eb2c54a74/library/std/src/io" "mod.rs"
	.loc	29 1540 0
	.cfi_startproc
	.cfi_personality 155, _rust_eh_personality
	.cfi_lsda 16, Lexception9
	pushq	%rbp
	.cfi_def_cfa_offset 16
	.cfi_offset %rbp, -16
	movq	%rsp, %rbp
	.cfi_def_cfa_register %rbp
	subq	$256, %rsp
	movq	%rdi, -232(%rbp)
	movq	%rsi, -224(%rbp)
	movq	%rdx, -216(%rbp)
	movq	%rdi, -136(%rbp)
LBB28_1:
Ltmp260:
	.loc	29 1541 16 prologue_end
	movq	-224(%rbp), %rcx
	movq	-216(%rbp), %rax
	movq	%rcx, -128(%rbp)
	movq	%rax, -120(%rbp)
Ltmp261:
	.file	30 "/rustc/2c8cc343237b8f7d5a3c3703e3a87f2eb2c54a74/library/core/src/slice" "mod.rs"
	.loc	30 153 9
	cmpq	$0, %rax
	sete	%al
Ltmp262:
	.loc	29 1541 15
	xorb	$-1, %al
	testb	$1, %al
	jne	LBB28_3
	.loc	29 1554 9
	movq	$0, -208(%rbp)
	.loc	29 1555 6
	jmp	LBB28_23
LBB28_3:
	.loc	29 0 6 is_stmt 0
	movq	-232(%rbp), %rsi
	.loc	29 1542 30 is_stmt 1
	movq	-224(%rbp), %rdx
	movq	-216(%rbp), %rcx
	.loc	29 1542 19 is_stmt 0
	leaq	-200(%rbp), %rdi
	callq	__ZN64_$LT$std..sys..unix..stdio..Stderr$u20$as$u20$std..io..Write$GT$5write17hfeaf20e5669f7ee8E
	.loc	29 1542 13
	cmpq	$0, -200(%rbp)
	jne	LBB28_5
	cmpq	$0, -192(%rbp)
	je	LBB28_13
	jmp	LBB28_14
LBB28_5:
	.loc	29 1550 21 is_stmt 1
	leaq	-192(%rbp), %rax
	movq	%rax, -168(%rbp)
	leaq	-168(%rbp), %rax
	movq	%rax, -112(%rbp)
	.loc	29 1550 31 is_stmt 0
	movq	-168(%rbp), %rdi
Ltmp252:
	callq	__ZN3std2io5error5Error4kind17hfdc0d5915be4c45eE
Ltmp253:
	movb	%al, -233(%rbp)
	jmp	LBB28_8
LBB28_6:
	.loc	29 1553 9 is_stmt 1
	cmpq	$1, -200(%rbp)
	je	LBB28_16
	jmp	LBB28_17
LBB28_7:
Ltmp256:
	.loc	29 0 9 is_stmt 0
	movq	%rax, %rcx
	movl	%edx, %eax
	movq	%rcx, -104(%rbp)
	movl	%eax, -96(%rbp)
	jmp	LBB28_6
LBB28_8:
	movb	-233(%rbp), %al
	.loc	29 1550 31 is_stmt 1
	movb	%al, -153(%rbp)
	leaq	-153(%rbp), %rax
	movq	%rax, -88(%rbp)
	.loc	29 1550 43 is_stmt 0
	leaq	l___unnamed_51(%rip), %rax
	movq	%rax, -80(%rbp)
Ltmp263:
	.file	31 "/rustc/2c8cc343237b8f7d5a3c3703e3a87f2eb2c54a74/library/std/src/io" "error.rs"
	.loc	31 165 45 is_stmt 1
	movzbl	-153(%rbp), %eax
	movq	%rax, -72(%rbp)
Ltmp264:
	.loc	31 165 45 is_stmt 0
	movzbl	l___unnamed_51(%rip), %ecx
	movq	%rcx, -64(%rbp)
Ltmp265:
	.loc	31 165 45
	cmpq	%rcx, %rax
Ltmp266:
	.loc	29 1550 31 is_stmt 1
	je	LBB28_10
	.loc	29 1551 21
	movq	-192(%rbp), %rax
	movq	%rax, -56(%rbp)
Ltmp267:
	.loc	29 1551 34 is_stmt 0
	movq	%rax, -208(%rbp)
Ltmp268:
	.file	32 "/Users/natalie/.cargo/registry/src/github.com-1ecc6299db9ec823/tracing-core-0.1.30" "src/lib.rs"
	.loc	32 1 1 is_stmt 1
	jmp	LBB28_12
LBB28_10:
	.loc	29 1550 70
	jmp	LBB28_11
LBB28_11:
	.loc	29 1553 9
	cmpq	$1, -200(%rbp)
	je	LBB28_20
	jmp	LBB28_21
LBB28_12:
	.loc	29 1555 6
	jmp	LBB28_23
LBB28_13:
	.loc	29 1544 32
	leaq	l___unnamed_52(%rip), %rax
	movq	%rax, -24(%rbp)
Ltmp269:
	.loc	31 554 47
	leaq	l___unnamed_52(%rip), %rax
	movq	%rax, -16(%rbp)
Ltmp270:
	.file	33 "/rustc/2c8cc343237b8f7d5a3c3703e3a87f2eb2c54a74/library/std/src/io/error" "repr_bitpacked.rs"
	.loc	33 206 46
	leaq	l___unnamed_52(%rip), %rax
	movq	%rax, -8(%rbp)
Ltmp271:
	.loc	19 201 13
	leaq	l___unnamed_52(%rip), %rax
	movq	%rax, -144(%rbp)
Ltmp272:
	.loc	33 206 9
	movq	-144(%rbp), %rax
	movq	%rax, -152(%rbp)
Ltmp273:
	.loc	31 554 9
	movq	-152(%rbp), %rax
	movq	%rax, -184(%rbp)
Ltmp274:
	.loc	29 1544 28
	movq	-184(%rbp), %rax
	movq	%rax, -208(%rbp)
	.loc	32 1 1
	jmp	LBB28_12
LBB28_14:
	.loc	29 1549 20
	movq	-192(%rbp), %rax
	movq	%rax, -48(%rbp)
Ltmp275:
	.loc	29 1549 33 is_stmt 0
	movq	-224(%rbp), %rsi
	movq	-216(%rbp), %rdx
	movq	%rsi, -40(%rbp)
	movq	%rdx, -32(%rbp)
	.loc	29 1549 37
	movq	%rax, -176(%rbp)
Ltmp276:
	.loc	9 18 9 is_stmt 1
	movq	-176(%rbp), %rdi
Ltmp254:
	leaq	l___unnamed_53(%rip), %rcx
	callq	__ZN110_$LT$core..ops..range..RangeFrom$LT$usize$GT$$u20$as$u20$core..slice..index..SliceIndex$LT$$u5b$T$u5d$$GT$$GT$5index17hc8813b97af7117a7E
Ltmp255:
	movq	%rdx, -256(%rbp)
	movq	%rax, -248(%rbp)
	jmp	LBB28_15
Ltmp277:
LBB28_15:
	.loc	9 0 9 is_stmt 0
	movq	-256(%rbp), %rax
	movq	-248(%rbp), %rcx
	.loc	29 1549 26 is_stmt 1
	movq	%rcx, -224(%rbp)
	movq	%rax, -216(%rbp)
Ltmp278:
	.loc	29 1549 40 is_stmt 0
	jmp	LBB28_11
LBB28_16:
	.loc	29 1553 9 is_stmt 1
	movb	$1, %al
	testb	$1, %al
	jne	LBB28_18
	jmp	LBB28_17
LBB28_17:
	.loc	29 1540 5
	movq	-104(%rbp), %rdi
	callq	__Unwind_Resume
LBB28_18:
	.loc	29 1553 9
	leaq	-192(%rbp), %rdi
Ltmp257:
	callq	__ZN4core3ptr42drop_in_place$LT$std..io..error..Error$GT$17h70fb8b7f7dd26d29E
Ltmp258:
	jmp	LBB28_17
LBB28_19:
Ltmp259:
	.loc	29 1540 5
	callq	__ZN4core9panicking19panic_cannot_unwind17h1fbca7e1d7f56ae1E
LBB28_20:
	.loc	29 1553 9
	movb	$1, %al
	testb	$1, %al
	jne	LBB28_22
	jmp	LBB28_21
LBB28_21:
	.loc	29 1541 9
	jmp	LBB28_1
LBB28_22:
	.loc	29 1553 9
	leaq	-200(%rbp), %rdi
	addq	$8, %rdi
	callq	__ZN4core3ptr42drop_in_place$LT$std..io..error..Error$GT$17h70fb8b7f7dd26d29E
	jmp	LBB28_21
LBB28_23:
	.loc	29 1555 6
	movq	-208(%rbp), %rax
	addq	$256, %rsp
	popq	%rbp
	retq
Ltmp279:
Lfunc_end28:
	.cfi_endproc
	.section	__TEXT,__gcc_except_tab
	.p2align	2
GCC_except_table28:
Lexception9:
	.byte	255
	.byte	255
	.byte	1
	.uleb128 Lcst_end9-Lcst_begin9
Lcst_begin9:
	.uleb128 Lfunc_begin28-Lfunc_begin28
	.uleb128 Ltmp252-Lfunc_begin28
	.byte	0
	.byte	0
	.uleb128 Ltmp252-Lfunc_begin28
	.uleb128 Ltmp255-Ltmp252
	.uleb128 Ltmp256-Lfunc_begin28
	.byte	0
	.uleb128 Ltmp255-Lfunc_begin28
	.uleb128 Ltmp257-Ltmp255
	.byte	0
	.byte	0
	.uleb128 Ltmp257-Lfunc_begin28
	.uleb128 Ltmp258-Ltmp257
	.uleb128 Ltmp259-Lfunc_begin28
	.byte	0
	.uleb128 Ltmp258-Lfunc_begin28
	.uleb128 Lfunc_end28-Ltmp258
	.byte	0
	.byte	0
Lcst_end9:
	.p2align	2

	.section	__TEXT,__text,regular,pure_instructions
	.globl	__ZN3std2io5Write9write_fmt17hf39abdf606b5eddaE
	.p2align	4, 0x90
__ZN3std2io5Write9write_fmt17hf39abdf606b5eddaE:
Lfunc_begin29:
	.loc	29 1661 0
	.cfi_startproc
	.cfi_personality 155, _rust_eh_personality
	.cfi_lsda 16, Lexception10
	pushq	%rbp
	.cfi_def_cfa_offset 16
	.cfi_offset %rbp, -16
	movq	%rsp, %rbp
	.cfi_def_cfa_register %rbp
	subq	$192, %rsp
	movq	%rdi, -64(%rbp)
Ltmp286:
	.loc	29 1681 56 prologue_end
	movq	$0, -160(%rbp)
	.loc	29 1681 26 is_stmt 0
	movb	$1, -82(%rbp)
	movq	%rdi, -168(%rbp)
	movq	-160(%rbp), %rax
	movq	%rax, -176(%rbp)
Ltmp287:
	.loc	29 1682 39 is_stmt 1
	movq	40(%rsi), %rax
	movq	%rax, -104(%rbp)
	movq	32(%rsi), %rax
	movq	%rax, -112(%rbp)
	movq	24(%rsi), %rax
	movq	%rax, -120(%rbp)
	movq	16(%rsi), %rax
	movq	%rax, -128(%rbp)
	movq	(%rsi), %rax
	movq	8(%rsi), %rcx
	movq	%rcx, -136(%rbp)
	movq	%rax, -144(%rbp)
Ltmp280:
	.loc	29 1682 15 is_stmt 0
	leaq	l___unnamed_1(%rip), %rsi
Ltmp288:
	.loc	29 0 15
	leaq	-176(%rbp), %rdi
	leaq	-144(%rbp), %rdx
	.loc	29 1682 15
	callq	__ZN4core3fmt5write17hfa389e524187f2c6E
Ltmp281:
	movb	%al, -185(%rbp)
	jmp	LBB29_3
Ltmp289:
LBB29_1:
Ltmp283:
	.loc	29 0 15
	leaq	-176(%rbp), %rdi
	.loc	29 1693 5 is_stmt 1
	callq	__ZN4core3ptr92drop_in_place$LT$std..io..Write..write_fmt..Adapter$LT$std..sys..unix..stdio..Stderr$GT$$GT$17h96a7daf9a1ac12ddE
Ltmp284:
	jmp	LBB29_5
Ltmp290:
LBB29_2:
Ltmp282:
	.loc	29 0 5 is_stmt 0
	movq	%rax, %rcx
	movl	%edx, %eax
	movq	%rcx, -56(%rbp)
	movl	%eax, -48(%rbp)
	jmp	LBB29_1
Ltmp291:
LBB29_3:
	movb	-185(%rbp), %al
Ltmp292:
	.loc	29 1682 15 is_stmt 1
	andb	$1, %al
	movb	%al, -145(%rbp)
	movb	-145(%rbp), %al
	andb	$1, %al
	movzbl	%al, %eax
	.loc	29 1682 9 is_stmt 0
	cmpq	$0, %rax
	je	LBB29_6
	jmp	LBB29_7
Ltmp293:
LBB29_4:
Ltmp285:
	.loc	29 1661 5 is_stmt 1
	callq	__ZN4core9panicking19panic_cannot_unwind17h1fbca7e1d7f56ae1E
Ltmp294:
LBB29_5:
	movq	-56(%rbp), %rdi
	callq	__Unwind_Resume
Ltmp295:
LBB29_6:
	.loc	29 1683 23
	movq	$0, -184(%rbp)
	.loc	29 1683 28 is_stmt 0
	jmp	LBB29_14
Ltmp296:
LBB29_7:
	.loc	29 1686 20 is_stmt 1
	leaq	-176(%rbp), %rax
	movq	%rax, -40(%rbp)
Ltmp297:
	.loc	24 589 10
	leaq	-176(%rbp), %rax
	movq	%rax, -32(%rbp)
Ltmp298:
	.loc	24 542 18
	movq	-176(%rbp), %rdx
	movl	$1, %eax
	xorl	%ecx, %ecx
	cmpq	$0, %rdx
	cmoveq	%rcx, %rax
	.file	34 "/rustc/2c8cc343237b8f7d5a3c3703e3a87f2eb2c54a74/library/core/src/macros" "mod.rs"
	.loc	34 344 9
	cmpq	$0, %rax
	jne	LBB29_9
Ltmp299:
	.loc	34 345 48
	movb	$1, -81(%rbp)
	jmp	LBB29_10
Ltmp300:
LBB29_9:
	.loc	34 346 18
	movb	$0, -81(%rbp)
Ltmp301:
LBB29_10:
	.loc	24 589 9
	movb	-81(%rbp), %al
	xorb	$-1, %al
Ltmp302:
	.loc	29 1686 20
	testb	$1, %al
	jne	LBB29_12
Ltmp303:
	.loc	29 1689 25
	leaq	l___unnamed_54(%rip), %rax
	movq	%rax, -24(%rbp)
Ltmp304:
	.loc	31 554 47
	leaq	l___unnamed_54(%rip), %rax
	movq	%rax, -16(%rbp)
Ltmp305:
	.loc	33 206 46
	leaq	l___unnamed_54(%rip), %rax
	movq	%rax, -8(%rbp)
Ltmp306:
	.loc	19 201 13
	leaq	l___unnamed_54(%rip), %rax
	movq	%rax, -72(%rbp)
Ltmp307:
	.loc	33 206 9
	movq	-72(%rbp), %rax
	movq	%rax, -80(%rbp)
Ltmp308:
	.loc	31 554 9
	movq	-80(%rbp), %rax
	movq	%rax, -96(%rbp)
Ltmp309:
	.loc	29 1689 21
	movq	-96(%rbp), %rax
	movq	%rax, -184(%rbp)
	.loc	29 1686 17
	jmp	LBB29_13
Ltmp310:
LBB29_12:
	.loc	29 1687 21
	movb	$0, -82(%rbp)
	movq	-176(%rbp), %rax
	movq	%rax, -184(%rbp)
Ltmp311:
LBB29_13:
	.loc	29 1690 17
	jmp	LBB29_14
Ltmp312:
LBB29_14:
	.loc	29 1693 5
	testb	$1, -82(%rbp)
	jne	LBB29_16
Ltmp313:
LBB29_15:
	.loc	29 1693 6 is_stmt 0
	movq	-184(%rbp), %rax
	addq	$192, %rsp
	popq	%rbp
	retq
Ltmp314:
LBB29_16:
	.loc	29 1693 5
	leaq	-176(%rbp), %rdi
	callq	__ZN4core3ptr81drop_in_place$LT$core..result..Result$LT$$LP$$RP$$C$std..io..error..Error$GT$$GT$17had7c5e7c80f7367aE
	jmp	LBB29_15
Ltmp315:
Lfunc_end29:
	.cfi_endproc
	.section	__TEXT,__gcc_except_tab
	.p2align	2
GCC_except_table29:
Lexception10:
	.byte	255
	.byte	255
	.byte	1
	.uleb128 Lcst_end10-Lcst_begin10
Lcst_begin10:
	.uleb128 Ltmp280-Lfunc_begin29
	.uleb128 Ltmp281-Ltmp280
	.uleb128 Ltmp282-Lfunc_begin29
	.byte	0
	.uleb128 Ltmp283-Lfunc_begin29
	.uleb128 Ltmp284-Ltmp283
	.uleb128 Ltmp285-Lfunc_begin29
	.byte	0
	.uleb128 Ltmp284-Lfunc_begin29
	.uleb128 Lfunc_end29-Ltmp284
	.byte	0
	.byte	0
Lcst_end10:
	.p2align	2

	.section	__TEXT,__text,regular,pure_instructions
	.globl	__ZN3std2io5error14repr_bitpacked11decode_repr17he5491adcf649aa0aE
	.p2align	4, 0x90
__ZN3std2io5error14repr_bitpacked11decode_repr17he5491adcf649aa0aE:
Lfunc_begin30:
	.loc	33 246 0 is_stmt 1
	.cfi_startproc
	.cfi_personality 155, _rust_eh_personality
	.cfi_lsda 16, Lexception11
	pushq	%rbp
	.cfi_def_cfa_offset 16
	.cfi_offset %rbp, -16
	movq	%rsp, %rbp
	.cfi_def_cfa_register %rbp
	subq	$320, %rsp
	movq	%rsi, -272(%rbp)
	movq	%rdi, -264(%rbp)
	movq	%rdi, -256(%rbp)
	movq	%rsi, -184(%rbp)
Ltmp325:
	.loc	33 250 9 prologue_end
	movb	$1, -201(%rbp)
	.loc	33 250 16 is_stmt 0
	movq	%rsi, -160(%rbp)
Ltmp326:
	.loc	19 326 9 is_stmt 1
	movq	%rsi, -152(%rbp)
Ltmp327:
	.loc	13 215 33
	movq	%rsi, -144(%rbp)
	.loc	13 215 18 is_stmt 0
	movq	%rsi, -248(%rbp)
Ltmp328:
	.loc	33 251 11 is_stmt 1
	movq	-248(%rbp), %rax
	andl	$3, %eax
	movq	%rax, -280(%rbp)
	.loc	33 251 5 is_stmt 0
	subq	$3, %rax
	ja	LBB30_2
	.loc	33 0 5
	movq	-280(%rbp), %rax
	leaq	LJTI30_0(%rip), %rcx
	movslq	(%rcx,%rax,4), %rax
	addq	%rcx, %rax
	jmpq	*%rax
LBB30_2:
Ltmp322:
	.loc	33 280 13 is_stmt 1
	leaq	l___unnamed_55(%rip), %rdi
	leaq	l___unnamed_56(%rip), %rdx
	movl	$40, %esi
	callq	__ZN4core9panicking5panic17hc1bc45270cf64b03E
Ltmp323:
	jmp	LBB30_9
LBB30_3:
	.loc	33 0 13 is_stmt 0
	movq	-264(%rbp), %rax
	.loc	33 253 26 is_stmt 1
	movq	-248(%rbp), %rcx
	.loc	33 253 24 is_stmt 0
	sarq	$32, %rcx
	movl	%ecx, -4(%rbp)
Ltmp329:
	.loc	33 254 13 is_stmt 1
	movl	%ecx, 4(%rax)
	movb	$0, (%rax)
Ltmp330:
	.loc	33 255 9
	jmp	LBB30_12
LBB30_4:
	.loc	33 257 30
	movl	-244(%rbp), %edi
	.loc	33 257 29 is_stmt 0
	movl	%edi, -12(%rbp)
Ltmp318:
Ltmp331:
	.loc	33 258 24 is_stmt 1
	callq	__ZN3std2io5error14repr_bitpacked14kind_from_prim17hb721b6a2b945e59dE
Ltmp319:
	movb	%al, -281(%rbp)
	jmp	LBB30_13
Ltmp332:
LBB30_5:
	.loc	33 0 24 is_stmt 0
	movq	-264(%rbp), %rax
	movq	-272(%rbp), %rcx
	.loc	33 270 58 is_stmt 1
	movq	%rcx, -40(%rbp)
Ltmp333:
	.loc	19 450 41
	movq	%rcx, -32(%rbp)
	movq	%rcx, -24(%rbp)
Ltmp334:
	.loc	19 201 13
	movq	%rcx, -224(%rbp)
Ltmp335:
	.loc	19 326 9
	movq	-224(%rbp), %rcx
Ltmp336:
	.loc	33 270 31
	movq	%rcx, 8(%rax)
	movb	$2, (%rax)
	.loc	33 270 94 is_stmt 0
	jmp	LBB30_12
LBB30_6:
	.loc	33 0 94
	movq	-272(%rbp), %rax
	.loc	33 275 26 is_stmt 1
	movq	%rax, -120(%rbp)
Ltmp337:
	.loc	19 326 9
	movq	%rax, -112(%rbp)
Ltmp338:
	.loc	13 1300 9
	movq	%rax, -104(%rbp)
Ltmp339:
	.loc	13 60 9
	movq	%rax, -96(%rbp)
Ltmp340:
	.loc	13 1282 9
	movq	%rax, -88(%rbp)
Ltmp341:
	.loc	13 568 18
	addq	$-1, %rax
	movq	%rax, -80(%rbp)
	movq	-80(%rbp), %rax
	movq	%rax, -296(%rbp)
	jmp	LBB30_10
Ltmp342:
LBB30_7:
	.loc	33 283 1
	testb	$1, -201(%rbp)
	jne	LBB30_19
	jmp	LBB30_18
LBB30_8:
Ltmp324:
	.loc	33 0 1 is_stmt 0
	movq	%rax, %rcx
	movl	%edx, %eax
	movq	%rcx, -136(%rbp)
	movl	%eax, -128(%rbp)
	jmp	LBB30_7
LBB30_9:
	ud2
LBB30_10:
	movq	-296(%rbp), %rax
Ltmp343:
	.loc	13 568 18 is_stmt 1
	movq	%rax, -72(%rbp)
Ltmp344:
	.loc	13 99 33
	movq	%rax, -64(%rbp)
Ltmp345:
	.loc	12 135 36
	movq	%rax, -192(%rbp)
	.loc	12 135 14 is_stmt 0
	movq	-192(%rbp), %rax
	movq	%rax, -200(%rbp)
	movq	-200(%rbp), %rax
	movq	%rax, -56(%rbp)
Ltmp346:
	.loc	13 60 9 is_stmt 1
	movq	%rax, -48(%rbp)
Ltmp347:
	.loc	33 276 31
	movb	$0, -201(%rbp)
	movq	%rax, -216(%rbp)
	movq	-216(%rbp), %rdi
Ltmp316:
	callq	__ZN78_$LT$std..io..error..repr_bitpacked..Repr$u20$as$u20$core..ops..drop..Drop$GT$4drop28_$u7b$$u7b$closure$u7d$$u7d$17hedb55b827071e453E
Ltmp317:
	movq	%rax, -304(%rbp)
	jmp	LBB30_11
LBB30_11:
	.loc	33 0 31 is_stmt 0
	movq	-264(%rbp), %rax
	movq	-304(%rbp), %rcx
	.loc	33 276 13
	movq	%rcx, 8(%rax)
	movb	$3, (%rax)
Ltmp348:
LBB30_12:
	.loc	33 283 1 is_stmt 1
	testb	$1, -201(%rbp)
	jne	LBB30_21
	jmp	LBB30_20
LBB30_13:
	.loc	33 0 1 is_stmt 0
	movb	-281(%rbp), %al
Ltmp349:
	.loc	33 258 24 is_stmt 1
	movb	%al, -233(%rbp)
	.loc	33 258 65 is_stmt 0
	leaq	-248(%rbp), %rax
	movq	%rax, -232(%rbp)
Ltmp350:
	.file	35 "/rustc/2c8cc343237b8f7d5a3c3703e3a87f2eb2c54a74/library/core/src" "option.rs"
	.loc	35 871 15 is_stmt 1
	movl	$1, %eax
	xorl	%ecx, %ecx
	cmpb	$41, -233(%rbp)
	cmoveq	%rcx, %rax
	.loc	35 871 9 is_stmt 0
	cmpq	$0, %rax
	jne	LBB30_15
	.loc	35 873 21 is_stmt 1
	movq	-232(%rbp), %rdi
Ltmp320:
	callq	__ZN3std2io5error14repr_bitpacked11decode_repr28_$u7b$$u7b$closure$u7d$$u7d$17hbf18ced26c953677E
Ltmp321:
	movb	%al, -305(%rbp)
	jmp	LBB30_17
LBB30_15:
	.loc	35 872 18
	movb	-233(%rbp), %al
	movb	%al, -5(%rbp)
Ltmp351:
	.loc	35 872 24 is_stmt 0
	movb	%al, -234(%rbp)
Ltmp352:
LBB30_16:
	.loc	35 0 24
	movq	-264(%rbp), %rax
Ltmp353:
	.loc	33 268 31 is_stmt 1
	movb	-234(%rbp), %cl
	.loc	33 268 13 is_stmt 0
	movb	%cl, 1(%rax)
	movb	$1, (%rax)
Ltmp354:
	.loc	33 269 9 is_stmt 1
	jmp	LBB30_12
LBB30_17:
	.loc	33 0 9 is_stmt 0
	movb	-305(%rbp), %al
Ltmp355:
	.loc	35 873 21 is_stmt 1
	movb	%al, -234(%rbp)
	.loc	35 873 23 is_stmt 0
	jmp	LBB30_16
Ltmp356:
LBB30_18:
	.loc	33 246 1 is_stmt 1
	movq	-136(%rbp), %rdi
	callq	__Unwind_Resume
LBB30_19:
	.loc	33 283 1
	jmp	LBB30_18
LBB30_20:
	.loc	33 0 1 is_stmt 0
	movq	-256(%rbp), %rax
	.loc	33 283 2
	addq	$320, %rsp
	popq	%rbp
	retq
LBB30_21:
	.loc	33 283 1
	jmp	LBB30_20
Ltmp357:
Lfunc_end30:
	.cfi_endproc
	.p2align	2, 0x90
	.data_region jt32
.set L30_0_set_5, LBB30_5-LJTI30_0
.set L30_0_set_6, LBB30_6-LJTI30_0
.set L30_0_set_3, LBB30_3-LJTI30_0
.set L30_0_set_4, LBB30_4-LJTI30_0
LJTI30_0:
	.long	L30_0_set_5
	.long	L30_0_set_6
	.long	L30_0_set_3
	.long	L30_0_set_4
	.end_data_region
	.section	__TEXT,__gcc_except_tab
	.p2align	2
GCC_except_table30:
Lexception11:
	.byte	255
	.byte	255
	.byte	1
	.uleb128 Lcst_end11-Lcst_begin11
Lcst_begin11:
	.uleb128 Ltmp322-Lfunc_begin30
	.uleb128 Ltmp321-Ltmp322
	.uleb128 Ltmp324-Lfunc_begin30
	.byte	0
	.uleb128 Ltmp321-Lfunc_begin30
	.uleb128 Lfunc_end30-Ltmp321
	.byte	0
	.byte	0
Lcst_end11:
	.p2align	2

	.section	__TEXT,__text,regular,pure_instructions
	.globl	__ZN3std2io5error14repr_bitpacked11decode_repr17hfb8a4fad01f3771cE
	.p2align	4, 0x90
__ZN3std2io5error14repr_bitpacked11decode_repr17hfb8a4fad01f3771cE:
Lfunc_begin31:
	.loc	33 246 0 is_stmt 1
	.cfi_startproc
	.cfi_personality 155, _rust_eh_personality
	.cfi_lsda 16, Lexception12
	pushq	%rbp
	.cfi_def_cfa_offset 16
	.cfi_offset %rbp, -16
	movq	%rsp, %rbp
	.cfi_def_cfa_register %rbp
	subq	$320, %rsp
	movq	%rsi, -272(%rbp)
	movq	%rdi, -264(%rbp)
	movq	%rdi, -256(%rbp)
	movq	%rsi, -184(%rbp)
Ltmp367:
	.loc	33 250 9 prologue_end
	movb	$1, -201(%rbp)
	.loc	33 250 16 is_stmt 0
	movq	%rsi, -160(%rbp)
Ltmp368:
	.loc	19 326 9 is_stmt 1
	movq	%rsi, -152(%rbp)
Ltmp369:
	.loc	13 215 33
	movq	%rsi, -144(%rbp)
	.loc	13 215 18 is_stmt 0
	movq	%rsi, -248(%rbp)
Ltmp370:
	.loc	33 251 11 is_stmt 1
	movq	-248(%rbp), %rax
	andl	$3, %eax
	movq	%rax, -280(%rbp)
	.loc	33 251 5 is_stmt 0
	subq	$3, %rax
	ja	LBB31_2
	.loc	33 0 5
	movq	-280(%rbp), %rax
	leaq	LJTI31_0(%rip), %rcx
	movslq	(%rcx,%rax,4), %rax
	addq	%rcx, %rax
	jmpq	*%rax
LBB31_2:
Ltmp364:
	.loc	33 280 13 is_stmt 1
	leaq	l___unnamed_55(%rip), %rdi
	leaq	l___unnamed_56(%rip), %rdx
	movl	$40, %esi
	callq	__ZN4core9panicking5panic17hc1bc45270cf64b03E
Ltmp365:
	jmp	LBB31_9
LBB31_3:
	.loc	33 0 13 is_stmt 0
	movq	-264(%rbp), %rax
	.loc	33 253 26 is_stmt 1
	movq	-248(%rbp), %rcx
	.loc	33 253 24 is_stmt 0
	sarq	$32, %rcx
	movl	%ecx, -4(%rbp)
Ltmp371:
	.loc	33 254 13 is_stmt 1
	movl	%ecx, 4(%rax)
	movb	$0, (%rax)
Ltmp372:
	.loc	33 255 9
	jmp	LBB31_12
LBB31_4:
	.loc	33 257 30
	movl	-244(%rbp), %edi
	.loc	33 257 29 is_stmt 0
	movl	%edi, -12(%rbp)
Ltmp360:
Ltmp373:
	.loc	33 258 24 is_stmt 1
	callq	__ZN3std2io5error14repr_bitpacked14kind_from_prim17hb721b6a2b945e59dE
Ltmp361:
	movb	%al, -281(%rbp)
	jmp	LBB31_13
Ltmp374:
LBB31_5:
	.loc	33 0 24 is_stmt 0
	movq	-264(%rbp), %rax
	movq	-272(%rbp), %rcx
	.loc	33 270 58 is_stmt 1
	movq	%rcx, -40(%rbp)
Ltmp375:
	.loc	19 450 41
	movq	%rcx, -32(%rbp)
	movq	%rcx, -24(%rbp)
Ltmp376:
	.loc	19 201 13
	movq	%rcx, -224(%rbp)
Ltmp377:
	.loc	19 326 9
	movq	-224(%rbp), %rcx
Ltmp378:
	.loc	33 270 31
	movq	%rcx, 8(%rax)
	movb	$2, (%rax)
	.loc	33 270 94 is_stmt 0
	jmp	LBB31_12
LBB31_6:
	.loc	33 0 94
	movq	-272(%rbp), %rax
	.loc	33 275 26 is_stmt 1
	movq	%rax, -120(%rbp)
Ltmp379:
	.loc	19 326 9
	movq	%rax, -112(%rbp)
Ltmp380:
	.loc	13 1300 9
	movq	%rax, -104(%rbp)
Ltmp381:
	.loc	13 60 9
	movq	%rax, -96(%rbp)
Ltmp382:
	.loc	13 1282 9
	movq	%rax, -88(%rbp)
Ltmp383:
	.loc	13 568 18
	addq	$-1, %rax
	movq	%rax, -80(%rbp)
	movq	-80(%rbp), %rax
	movq	%rax, -296(%rbp)
	jmp	LBB31_10
Ltmp384:
LBB31_7:
	.loc	33 283 1
	testb	$1, -201(%rbp)
	jne	LBB31_19
	jmp	LBB31_18
LBB31_8:
Ltmp366:
	.loc	33 0 1 is_stmt 0
	movq	%rax, %rcx
	movl	%edx, %eax
	movq	%rcx, -136(%rbp)
	movl	%eax, -128(%rbp)
	jmp	LBB31_7
LBB31_9:
	ud2
LBB31_10:
	movq	-296(%rbp), %rax
Ltmp385:
	.loc	13 568 18 is_stmt 1
	movq	%rax, -72(%rbp)
Ltmp386:
	.loc	13 99 33
	movq	%rax, -64(%rbp)
Ltmp387:
	.loc	12 135 36
	movq	%rax, -192(%rbp)
	.loc	12 135 14 is_stmt 0
	movq	-192(%rbp), %rax
	movq	%rax, -200(%rbp)
	movq	-200(%rbp), %rax
	movq	%rax, -56(%rbp)
Ltmp388:
	.loc	13 60 9 is_stmt 1
	movq	%rax, -48(%rbp)
Ltmp389:
	.loc	33 276 31
	movb	$0, -201(%rbp)
	movq	%rax, -216(%rbp)
	movq	-216(%rbp), %rdi
Ltmp358:
	callq	__ZN3std2io5error14repr_bitpacked4Repr4data28_$u7b$$u7b$closure$u7d$$u7d$17h9db3798778ac4af0E
Ltmp359:
	movq	%rax, -304(%rbp)
	jmp	LBB31_11
LBB31_11:
	.loc	33 0 31 is_stmt 0
	movq	-264(%rbp), %rax
	movq	-304(%rbp), %rcx
	.loc	33 276 13
	movq	%rcx, 8(%rax)
	movb	$3, (%rax)
Ltmp390:
LBB31_12:
	.loc	33 283 1 is_stmt 1
	testb	$1, -201(%rbp)
	jne	LBB31_21
	jmp	LBB31_20
LBB31_13:
	.loc	33 0 1 is_stmt 0
	movb	-281(%rbp), %al
Ltmp391:
	.loc	33 258 24 is_stmt 1
	movb	%al, -233(%rbp)
	.loc	33 258 65 is_stmt 0
	leaq	-248(%rbp), %rax
	movq	%rax, -232(%rbp)
Ltmp392:
	.loc	35 871 15 is_stmt 1
	movl	$1, %eax
	xorl	%ecx, %ecx
	cmpb	$41, -233(%rbp)
	cmoveq	%rcx, %rax
	.loc	35 871 9 is_stmt 0
	cmpq	$0, %rax
	jne	LBB31_15
	.loc	35 873 21 is_stmt 1
	movq	-232(%rbp), %rdi
Ltmp362:
	callq	__ZN3std2io5error14repr_bitpacked11decode_repr28_$u7b$$u7b$closure$u7d$$u7d$17hb800cb48cf36d557E
Ltmp363:
	movb	%al, -305(%rbp)
	jmp	LBB31_17
LBB31_15:
	.loc	35 872 18
	movb	-233(%rbp), %al
	movb	%al, -5(%rbp)
Ltmp393:
	.loc	35 872 24 is_stmt 0
	movb	%al, -234(%rbp)
Ltmp394:
LBB31_16:
	.loc	35 0 24
	movq	-264(%rbp), %rax
Ltmp395:
	.loc	33 268 31 is_stmt 1
	movb	-234(%rbp), %cl
	.loc	33 268 13 is_stmt 0
	movb	%cl, 1(%rax)
	movb	$1, (%rax)
Ltmp396:
	.loc	33 269 9 is_stmt 1
	jmp	LBB31_12
LBB31_17:
	.loc	33 0 9 is_stmt 0
	movb	-305(%rbp), %al
Ltmp397:
	.loc	35 873 21 is_stmt 1
	movb	%al, -234(%rbp)
	.loc	35 873 23 is_stmt 0
	jmp	LBB31_16
Ltmp398:
LBB31_18:
	.loc	33 246 1 is_stmt 1
	movq	-136(%rbp), %rdi
	callq	__Unwind_Resume
LBB31_19:
	.loc	33 283 1
	jmp	LBB31_18
LBB31_20:
	.loc	33 0 1 is_stmt 0
	movq	-256(%rbp), %rax
	.loc	33 283 2
	addq	$320, %rsp
	popq	%rbp
	retq
LBB31_21:
	.loc	33 283 1
	jmp	LBB31_20
Ltmp399:
Lfunc_end31:
	.cfi_endproc
	.p2align	2, 0x90
	.data_region jt32
.set L31_0_set_5, LBB31_5-LJTI31_0
.set L31_0_set_6, LBB31_6-LJTI31_0
.set L31_0_set_3, LBB31_3-LJTI31_0
.set L31_0_set_4, LBB31_4-LJTI31_0
LJTI31_0:
	.long	L31_0_set_5
	.long	L31_0_set_6
	.long	L31_0_set_3
	.long	L31_0_set_4
	.end_data_region
	.section	__TEXT,__gcc_except_tab
	.p2align	2
GCC_except_table31:
Lexception12:
	.byte	255
	.byte	255
	.byte	1
	.uleb128 Lcst_end12-Lcst_begin12
Lcst_begin12:
	.uleb128 Ltmp364-Lfunc_begin31
	.uleb128 Ltmp363-Ltmp364
	.uleb128 Ltmp366-Lfunc_begin31
	.byte	0
	.uleb128 Ltmp363-Lfunc_begin31
	.uleb128 Lfunc_end31-Ltmp363
	.byte	0
	.byte	0
Lcst_end12:
	.p2align	2

	.section	__TEXT,__text,regular,pure_instructions
	.globl	__ZN3std2io5error14repr_bitpacked11decode_repr28_$u7b$$u7b$closure$u7d$$u7d$17hb800cb48cf36d557E
	.p2align	4, 0x90
__ZN3std2io5error14repr_bitpacked11decode_repr28_$u7b$$u7b$closure$u7d$$u7d$17hb800cb48cf36d557E:
Lfunc_begin32:
	.loc	33 258 0 is_stmt 1
	.cfi_startproc
	pushq	%rbp
	.cfi_def_cfa_offset 16
	.cfi_offset %rbp, -16
	movq	%rsp, %rbp
	.cfi_def_cfa_register %rbp
	subq	$16, %rsp
	movq	%rdi, -16(%rbp)
Ltmp400:
	.loc	33 266 17 prologue_end
	callq	__ZN4core4hint21unreachable_unchecked17he6e7984c505ec4b7E
Ltmp401:
Lfunc_end32:
	.cfi_endproc

	.globl	__ZN3std2io5error14repr_bitpacked11decode_repr28_$u7b$$u7b$closure$u7d$$u7d$17hbf18ced26c953677E
	.p2align	4, 0x90
__ZN3std2io5error14repr_bitpacked11decode_repr28_$u7b$$u7b$closure$u7d$$u7d$17hbf18ced26c953677E:
Lfunc_begin33:
	.loc	33 258 0
	.cfi_startproc
	pushq	%rbp
	.cfi_def_cfa_offset 16
	.cfi_offset %rbp, -16
	movq	%rsp, %rbp
	.cfi_def_cfa_register %rbp
	subq	$16, %rsp
	movq	%rdi, -16(%rbp)
Ltmp402:
	.loc	33 266 17 prologue_end
	callq	__ZN4core4hint21unreachable_unchecked17he6e7984c505ec4b7E
Ltmp403:
Lfunc_end33:
	.cfi_endproc

	.p2align	4, 0x90
__ZN3std2io5error14repr_bitpacked14kind_from_prim17hb721b6a2b945e59dE:
Lfunc_begin34:
	.loc	33 289 0
	.cfi_startproc
	pushq	%rbp
	.cfi_def_cfa_offset 16
	.cfi_offset %rbp, -16
	movq	%rsp, %rbp
	.cfi_def_cfa_register %rbp
	subq	$336, %rsp
	movl	%edi, -336(%rbp)
Ltmp404:
	.loc	33 302 5 prologue_end
	leaq	-336(%rbp), %rax
	movq	%rax, -328(%rbp)
	cmpl	$0, -336(%rbp)
	je	LBB34_2
	leaq	-336(%rbp), %rax
	movq	%rax, -320(%rbp)
	cmpl	$1, -336(%rbp)
	je	LBB34_5
	jmp	LBB34_4
LBB34_2:
Ltmp405:
	.loc	33 302 5 is_stmt 0
	movb	$0, -329(%rbp)
Ltmp406:
LBB34_3:
	.loc	33 345 2 is_stmt 1
	movb	-329(%rbp), %al
	addq	$336, %rsp
	popq	%rbp
	retq
LBB34_4:
	.loc	33 302 5
	leaq	-336(%rbp), %rax
	movq	%rax, -312(%rbp)
	cmpl	$2, -336(%rbp)
	je	LBB34_7
	jmp	LBB34_6
LBB34_5:
Ltmp407:
	.loc	33 302 5 is_stmt 0
	movb	$1, -329(%rbp)
Ltmp408:
	.loc	33 302 5
	jmp	LBB34_3
LBB34_6:
	leaq	-336(%rbp), %rax
	movq	%rax, -304(%rbp)
	cmpl	$3, -336(%rbp)
	je	LBB34_9
	jmp	LBB34_8
LBB34_7:
Ltmp409:
	.loc	33 302 5
	movb	$2, -329(%rbp)
Ltmp410:
	.loc	33 302 5
	jmp	LBB34_3
LBB34_8:
	leaq	-336(%rbp), %rax
	movq	%rax, -296(%rbp)
	cmpl	$4, -336(%rbp)
	je	LBB34_11
	jmp	LBB34_10
LBB34_9:
Ltmp411:
	.loc	33 302 5
	movb	$3, -329(%rbp)
Ltmp412:
	.loc	33 302 5
	jmp	LBB34_3
LBB34_10:
	leaq	-336(%rbp), %rax
	movq	%rax, -288(%rbp)
	cmpl	$5, -336(%rbp)
	je	LBB34_13
	jmp	LBB34_12
LBB34_11:
Ltmp413:
	.loc	33 302 5
	movb	$4, -329(%rbp)
Ltmp414:
	.loc	33 302 5
	jmp	LBB34_3
LBB34_12:
	leaq	-336(%rbp), %rax
	movq	%rax, -280(%rbp)
	cmpl	$6, -336(%rbp)
	je	LBB34_15
	jmp	LBB34_14
LBB34_13:
Ltmp415:
	.loc	33 302 5
	movb	$5, -329(%rbp)
Ltmp416:
	.loc	33 302 5
	jmp	LBB34_3
LBB34_14:
	leaq	-336(%rbp), %rax
	movq	%rax, -272(%rbp)
	cmpl	$7, -336(%rbp)
	je	LBB34_17
	jmp	LBB34_16
LBB34_15:
Ltmp417:
	.loc	33 302 5
	movb	$6, -329(%rbp)
Ltmp418:
	.loc	33 302 5
	jmp	LBB34_3
LBB34_16:
	leaq	-336(%rbp), %rax
	movq	%rax, -264(%rbp)
	cmpl	$8, -336(%rbp)
	je	LBB34_19
	jmp	LBB34_18
LBB34_17:
Ltmp419:
	.loc	33 302 5
	movb	$7, -329(%rbp)
Ltmp420:
	.loc	33 302 5
	jmp	LBB34_3
LBB34_18:
	leaq	-336(%rbp), %rax
	movq	%rax, -256(%rbp)
	cmpl	$9, -336(%rbp)
	je	LBB34_21
	jmp	LBB34_20
LBB34_19:
Ltmp421:
	.loc	33 302 5
	movb	$8, -329(%rbp)
Ltmp422:
	.loc	33 302 5
	jmp	LBB34_3
LBB34_20:
	leaq	-336(%rbp), %rax
	movq	%rax, -248(%rbp)
	cmpl	$10, -336(%rbp)
	je	LBB34_23
	jmp	LBB34_22
LBB34_21:
Ltmp423:
	.loc	33 302 5
	movb	$9, -329(%rbp)
Ltmp424:
	.loc	33 302 5
	jmp	LBB34_3
LBB34_22:
	leaq	-336(%rbp), %rax
	movq	%rax, -240(%rbp)
	cmpl	$11, -336(%rbp)
	je	LBB34_25
	jmp	LBB34_24
LBB34_23:
Ltmp425:
	.loc	33 302 5
	movb	$10, -329(%rbp)
Ltmp426:
	.loc	33 302 5
	jmp	LBB34_3
LBB34_24:
	leaq	-336(%rbp), %rax
	movq	%rax, -232(%rbp)
	cmpl	$12, -336(%rbp)
	je	LBB34_27
	jmp	LBB34_26
LBB34_25:
Ltmp427:
	.loc	33 302 5
	movb	$11, -329(%rbp)
Ltmp428:
	.loc	33 302 5
	jmp	LBB34_3
LBB34_26:
	leaq	-336(%rbp), %rax
	movq	%rax, -224(%rbp)
	cmpl	$13, -336(%rbp)
	je	LBB34_29
	jmp	LBB34_28
LBB34_27:
Ltmp429:
	.loc	33 302 5
	movb	$12, -329(%rbp)
Ltmp430:
	.loc	33 302 5
	jmp	LBB34_3
LBB34_28:
	leaq	-336(%rbp), %rax
	movq	%rax, -216(%rbp)
	cmpl	$14, -336(%rbp)
	je	LBB34_31
	jmp	LBB34_30
LBB34_29:
Ltmp431:
	.loc	33 302 5
	movb	$13, -329(%rbp)
Ltmp432:
	.loc	33 302 5
	jmp	LBB34_3
LBB34_30:
	leaq	-336(%rbp), %rax
	movq	%rax, -208(%rbp)
	cmpl	$15, -336(%rbp)
	je	LBB34_33
	jmp	LBB34_32
LBB34_31:
Ltmp433:
	.loc	33 302 5
	movb	$14, -329(%rbp)
Ltmp434:
	.loc	33 302 5
	jmp	LBB34_3
LBB34_32:
	leaq	-336(%rbp), %rax
	movq	%rax, -200(%rbp)
	cmpl	$16, -336(%rbp)
	je	LBB34_35
	jmp	LBB34_34
LBB34_33:
Ltmp435:
	.loc	33 302 5
	movb	$15, -329(%rbp)
Ltmp436:
	.loc	33 302 5
	jmp	LBB34_3
LBB34_34:
	leaq	-336(%rbp), %rax
	movq	%rax, -192(%rbp)
	cmpl	$17, -336(%rbp)
	je	LBB34_37
	jmp	LBB34_36
LBB34_35:
Ltmp437:
	.loc	33 302 5
	movb	$16, -329(%rbp)
Ltmp438:
	.loc	33 302 5
	jmp	LBB34_3
LBB34_36:
	leaq	-336(%rbp), %rax
	movq	%rax, -184(%rbp)
	cmpl	$18, -336(%rbp)
	je	LBB34_39
	jmp	LBB34_38
LBB34_37:
Ltmp439:
	.loc	33 302 5
	movb	$17, -329(%rbp)
Ltmp440:
	.loc	33 302 5
	jmp	LBB34_3
LBB34_38:
	leaq	-336(%rbp), %rax
	movq	%rax, -176(%rbp)
	cmpl	$19, -336(%rbp)
	je	LBB34_41
	jmp	LBB34_40
LBB34_39:
Ltmp441:
	.loc	33 302 5
	movb	$18, -329(%rbp)
Ltmp442:
	.loc	33 302 5
	jmp	LBB34_3
LBB34_40:
	leaq	-336(%rbp), %rax
	movq	%rax, -168(%rbp)
	cmpl	$20, -336(%rbp)
	je	LBB34_43
	jmp	LBB34_42
LBB34_41:
Ltmp443:
	.loc	33 302 5
	movb	$19, -329(%rbp)
Ltmp444:
	.loc	33 302 5
	jmp	LBB34_3
LBB34_42:
	leaq	-336(%rbp), %rax
	movq	%rax, -160(%rbp)
	cmpl	$21, -336(%rbp)
	je	LBB34_45
	jmp	LBB34_44
LBB34_43:
Ltmp445:
	.loc	33 302 5
	movb	$20, -329(%rbp)
Ltmp446:
	.loc	33 302 5
	jmp	LBB34_3
LBB34_44:
	leaq	-336(%rbp), %rax
	movq	%rax, -152(%rbp)
	cmpl	$22, -336(%rbp)
	je	LBB34_47
	jmp	LBB34_46
LBB34_45:
Ltmp447:
	.loc	33 302 5
	movb	$21, -329(%rbp)
Ltmp448:
	.loc	33 302 5
	jmp	LBB34_3
LBB34_46:
	leaq	-336(%rbp), %rax
	movq	%rax, -144(%rbp)
	cmpl	$23, -336(%rbp)
	je	LBB34_49
	jmp	LBB34_48
LBB34_47:
Ltmp449:
	.loc	33 302 5
	movb	$22, -329(%rbp)
Ltmp450:
	.loc	33 302 5
	jmp	LBB34_3
LBB34_48:
	leaq	-336(%rbp), %rax
	movq	%rax, -136(%rbp)
	cmpl	$24, -336(%rbp)
	je	LBB34_51
	jmp	LBB34_50
LBB34_49:
Ltmp451:
	.loc	33 302 5
	movb	$23, -329(%rbp)
Ltmp452:
	.loc	33 302 5
	jmp	LBB34_3
LBB34_50:
	leaq	-336(%rbp), %rax
	movq	%rax, -128(%rbp)
	cmpl	$25, -336(%rbp)
	je	LBB34_53
	jmp	LBB34_52
LBB34_51:
Ltmp453:
	.loc	33 302 5
	movb	$24, -329(%rbp)
Ltmp454:
	.loc	33 302 5
	jmp	LBB34_3
LBB34_52:
	leaq	-336(%rbp), %rax
	movq	%rax, -120(%rbp)
	cmpl	$26, -336(%rbp)
	je	LBB34_55
	jmp	LBB34_54
LBB34_53:
Ltmp455:
	.loc	33 302 5
	movb	$25, -329(%rbp)
Ltmp456:
	.loc	33 302 5
	jmp	LBB34_3
LBB34_54:
	leaq	-336(%rbp), %rax
	movq	%rax, -112(%rbp)
	cmpl	$27, -336(%rbp)
	je	LBB34_57
	jmp	LBB34_56
LBB34_55:
Ltmp457:
	.loc	33 302 5
	movb	$26, -329(%rbp)
Ltmp458:
	.loc	33 302 5
	jmp	LBB34_3
LBB34_56:
	leaq	-336(%rbp), %rax
	movq	%rax, -104(%rbp)
	cmpl	$28, -336(%rbp)
	je	LBB34_59
	jmp	LBB34_58
LBB34_57:
Ltmp459:
	.loc	33 302 5
	movb	$27, -329(%rbp)
Ltmp460:
	.loc	33 302 5
	jmp	LBB34_3
LBB34_58:
	leaq	-336(%rbp), %rax
	movq	%rax, -96(%rbp)
	cmpl	$29, -336(%rbp)
	je	LBB34_61
	jmp	LBB34_60
LBB34_59:
Ltmp461:
	.loc	33 302 5
	movb	$28, -329(%rbp)
Ltmp462:
	.loc	33 302 5
	jmp	LBB34_3
LBB34_60:
	leaq	-336(%rbp), %rax
	movq	%rax, -88(%rbp)
	cmpl	$30, -336(%rbp)
	je	LBB34_63
	jmp	LBB34_62
LBB34_61:
Ltmp463:
	.loc	33 302 5
	movb	$29, -329(%rbp)
Ltmp464:
	.loc	33 302 5
	jmp	LBB34_3
LBB34_62:
	leaq	-336(%rbp), %rax
	movq	%rax, -80(%rbp)
	cmpl	$31, -336(%rbp)
	je	LBB34_65
	jmp	LBB34_64
LBB34_63:
Ltmp465:
	.loc	33 302 5
	movb	$30, -329(%rbp)
Ltmp466:
	.loc	33 302 5
	jmp	LBB34_3
LBB34_64:
	leaq	-336(%rbp), %rax
	movq	%rax, -72(%rbp)
	cmpl	$32, -336(%rbp)
	je	LBB34_67
	jmp	LBB34_66
LBB34_65:
Ltmp467:
	.loc	33 302 5
	movb	$31, -329(%rbp)
Ltmp468:
	.loc	33 302 5
	jmp	LBB34_3
LBB34_66:
	leaq	-336(%rbp), %rax
	movq	%rax, -64(%rbp)
	cmpl	$33, -336(%rbp)
	je	LBB34_69
	jmp	LBB34_68
LBB34_67:
Ltmp469:
	.loc	33 302 5
	movb	$32, -329(%rbp)
Ltmp470:
	.loc	33 302 5
	jmp	LBB34_3
LBB34_68:
	leaq	-336(%rbp), %rax
	movq	%rax, -56(%rbp)
	cmpl	$34, -336(%rbp)
	je	LBB34_71
	jmp	LBB34_70
LBB34_69:
Ltmp471:
	.loc	33 302 5
	movb	$33, -329(%rbp)
Ltmp472:
	.loc	33 302 5
	jmp	LBB34_3
LBB34_70:
	leaq	-336(%rbp), %rax
	movq	%rax, -48(%rbp)
	cmpl	$35, -336(%rbp)
	je	LBB34_73
	jmp	LBB34_72
LBB34_71:
Ltmp473:
	.loc	33 302 5
	movb	$34, -329(%rbp)
Ltmp474:
	.loc	33 302 5
	jmp	LBB34_3
LBB34_72:
	leaq	-336(%rbp), %rax
	movq	%rax, -40(%rbp)
	cmpl	$39, -336(%rbp)
	je	LBB34_75
	jmp	LBB34_74
LBB34_73:
Ltmp475:
	.loc	33 302 5
	movb	$35, -329(%rbp)
Ltmp476:
	.loc	33 302 5
	jmp	LBB34_3
LBB34_74:
	leaq	-336(%rbp), %rax
	movq	%rax, -32(%rbp)
	cmpl	$37, -336(%rbp)
	je	LBB34_77
	jmp	LBB34_76
LBB34_75:
Ltmp477:
	.loc	33 302 5
	movb	$39, -329(%rbp)
Ltmp478:
	.loc	33 302 5
	jmp	LBB34_3
LBB34_76:
	leaq	-336(%rbp), %rax
	movq	%rax, -24(%rbp)
	cmpl	$36, -336(%rbp)
	je	LBB34_79
	jmp	LBB34_78
LBB34_77:
Ltmp479:
	.loc	33 302 5
	movb	$37, -329(%rbp)
Ltmp480:
	.loc	33 302 5
	jmp	LBB34_3
LBB34_78:
	leaq	-336(%rbp), %rax
	movq	%rax, -16(%rbp)
	cmpl	$38, -336(%rbp)
	je	LBB34_81
	jmp	LBB34_80
LBB34_79:
Ltmp481:
	.loc	33 302 5
	movb	$36, -329(%rbp)
Ltmp482:
	.loc	33 302 5
	jmp	LBB34_3
LBB34_80:
	leaq	-336(%rbp), %rax
	movq	%rax, -8(%rbp)
	cmpl	$40, -336(%rbp)
	je	LBB34_83
	jmp	LBB34_82
LBB34_81:
Ltmp483:
	.loc	33 302 5
	movb	$38, -329(%rbp)
Ltmp484:
	.loc	33 302 5
	jmp	LBB34_3
LBB34_82:
	movb	$41, -329(%rbp)
	jmp	LBB34_3
LBB34_83:
Ltmp485:
	.loc	33 302 5
	movb	$40, -329(%rbp)
Ltmp486:
	.loc	33 302 5
	jmp	LBB34_3
Ltmp487:
Lfunc_end34:
	.cfi_endproc

	.globl	__ZN3std2io5error14repr_bitpacked4Repr4data28_$u7b$$u7b$closure$u7d$$u7d$17h9db3798778ac4af0E
	.p2align	4, 0x90
__ZN3std2io5error14repr_bitpacked4Repr4data28_$u7b$$u7b$closure$u7d$$u7d$17h9db3798778ac4af0E:
Lfunc_begin35:
	.loc	33 212 0 is_stmt 1
	.cfi_startproc
	pushq	%rbp
	.cfi_def_cfa_offset 16
	.cfi_offset %rbp, -16
	movq	%rsp, %rbp
	.cfi_def_cfa_register %rbp
	subq	$16, %rsp
	movq	%rdi, %rax
	movq	%rax, -8(%rbp)
Ltmp488:
	.loc	33 212 45 prologue_end
	addq	$16, %rsp
	popq	%rbp
	retq
Ltmp489:
Lfunc_end35:
	.cfi_endproc

	.p2align	4, 0x90
__ZN3std2io5error5Error4kind17hfdc0d5915be4c45eE:
Lfunc_begin36:
	.loc	31 893 0
	.cfi_startproc
	pushq	%rbp
	.cfi_def_cfa_offset 16
	.cfi_offset %rbp, -16
	movq	%rsp, %rbp
	.cfi_def_cfa_register %rbp
	subq	$80, %rsp
	movq	%rdi, -40(%rbp)
Ltmp490:
	.loc	31 894 15 prologue_end
	movq	%rdi, -32(%rbp)
Ltmp491:
	.loc	33 212 30
	movq	(%rdi), %rsi
	leaq	-56(%rbp), %rdi
	.loc	33 212 18 is_stmt 0
	callq	__ZN3std2io5error14repr_bitpacked11decode_repr17hfb8a4fad01f3771cE
Ltmp492:
	.loc	31 894 15 is_stmt 1
	movzbl	-56(%rbp), %eax
	movq	%rax, -72(%rbp)
	.loc	31 0 15 is_stmt 0
	movq	-72(%rbp), %rax
	leaq	LJTI36_0(%rip), %rcx
	movslq	(%rcx,%rax,4), %rax
	addq	%rcx, %rax
	jmpq	*%rax
	.loc	31 894 15
	ud2
LBB36_2:
	.loc	31 895 27 is_stmt 1
	movl	-52(%rbp), %edi
	movl	%edi, -4(%rbp)
Ltmp493:
	.loc	31 895 36 is_stmt 0
	callq	__ZN3std3sys4unix17decode_error_kind17h50ab8511eed7ed72E
	movb	%al, -57(%rbp)
Ltmp494:
	.loc	31 895 63
	jmp	LBB36_6
LBB36_3:
	.loc	31 897 31 is_stmt 1
	movb	-55(%rbp), %al
	movb	%al, -5(%rbp)
Ltmp495:
	.loc	31 897 40 is_stmt 0
	movb	%al, -57(%rbp)
Ltmp496:
	.loc	31 897 43
	jmp	LBB36_6
LBB36_4:
	.loc	31 898 38 is_stmt 1
	movq	-48(%rbp), %rax
	movq	%rax, -16(%rbp)
Ltmp497:
	.loc	31 898 44 is_stmt 0
	movb	16(%rax), %al
	movb	%al, -57(%rbp)
Ltmp498:
	.loc	31 898 49
	jmp	LBB36_6
LBB36_5:
	.loc	31 896 31 is_stmt 1
	movq	-48(%rbp), %rax
	movq	%rax, -24(%rbp)
Ltmp499:
	.loc	31 896 37 is_stmt 0
	movb	16(%rax), %al
	movb	%al, -57(%rbp)
Ltmp500:
LBB36_6:
	.loc	31 900 6 is_stmt 1
	movb	-57(%rbp), %al
	addq	$80, %rsp
	popq	%rbp
	retq
Ltmp501:
Lfunc_end36:
	.cfi_endproc
	.p2align	2, 0x90
	.data_region jt32
.set L36_0_set_2, LBB36_2-LJTI36_0
.set L36_0_set_3, LBB36_3-LJTI36_0
.set L36_0_set_4, LBB36_4-LJTI36_0
.set L36_0_set_5, LBB36_5-LJTI36_0
LJTI36_0:
	.long	L36_0_set_2
	.long	L36_0_set_3
	.long	L36_0_set_4
	.long	L36_0_set_5
	.end_data_region

	.p2align	4, 0x90
__ZN3std3sys4unix5locks14pthread_rwlock6RwLock11read_unlock17h00f1825d0673ad82E:
Lfunc_begin37:
	.file	36 "/rustc/2c8cc343237b8f7d5a3c3703e3a87f2eb2c54a74/library/std/src/sys/unix/locks" "pthread_rwlock.rs"
	.loc	36 180 0
	.cfi_startproc
	pushq	%rbp
	.cfi_def_cfa_offset 16
	.cfi_offset %rbp, -16
	movq	%rsp, %rbp
	.cfi_def_cfa_register %rbp
	subq	$80, %rsp
	movq	%rdi, -64(%rbp)
Ltmp502:
	.loc	36 181 22 prologue_end
	movq	%rdi, -56(%rbp)
Ltmp503:
	.loc	26 72 20
	callq	__ZN3std10sys_common8lazy_box16LazyBox$LT$T$GT$11get_pointer17hd1d1f4abbac2447dE
	movq	%rax, %rdi
	movq	%rdi, -72(%rbp)
Ltmp504:
	.loc	36 181 20
	movq	%rdi, -48(%rbp)
Ltmp505:
	.loc	36 183 9
	addq	$200, %rdi
	movq	%rdi, -40(%rbp)
Ltmp506:
	.loc	28 2409 37
	movq	%rdi, -32(%rbp)
	.loc	28 2409 26 is_stmt 0
	movl	$1, %esi
	xorl	%edx, %edx
	callq	__ZN4core4sync6atomic10atomic_sub17he465655c7b861069E
	movq	-72(%rbp), %rdi
Ltmp507:
	.loc	36 184 9 is_stmt 1
	movq	%rdi, -24(%rbp)
Ltmp508:
	.loc	36 47 45
	movq	%rdi, -16(%rbp)
	.loc	36 47 17 is_stmt 0
	callq	_pthread_rwlock_unlock
	movl	%eax, -4(%rbp)
Ltmp509:
	.loc	36 185 6 is_stmt 1
	addq	$80, %rsp
	popq	%rbp
	retq
Ltmp510:
Lfunc_end37:
	.cfi_endproc

	.p2align	4, 0x90
__ZN3std3sys4unix5locks14pthread_rwlock6RwLock12write_unlock17h1e432af9a59f0f15E:
Lfunc_begin38:
	.loc	36 188 0
	.cfi_startproc
	pushq	%rbp
	.cfi_def_cfa_offset 16
	.cfi_offset %rbp, -16
	movq	%rsp, %rbp
	.cfi_def_cfa_register %rbp
	subq	$64, %rsp
	movq	%rdi, -56(%rbp)
Ltmp511:
	.loc	36 189 22 prologue_end
	movq	%rdi, -48(%rbp)
Ltmp512:
	.loc	26 72 20
	callq	__ZN3std10sys_common8lazy_box16LazyBox$LT$T$GT$11get_pointer17hd1d1f4abbac2447dE
	movq	%rax, %rdi
Ltmp513:
	.loc	36 189 20
	movq	%rdi, -40(%rbp)
Ltmp514:
	.loc	36 192 10
	movq	%rdi, %rax
	addq	$208, %rax
	movq	%rax, -32(%rbp)
	.loc	36 192 9 is_stmt 0
	movb	$0, 208(%rdi)
	.loc	36 193 9 is_stmt 1
	movq	%rdi, -24(%rbp)
Ltmp515:
	.loc	36 47 45
	movq	%rdi, -16(%rbp)
	.loc	36 47 17 is_stmt 0
	callq	_pthread_rwlock_unlock
	movl	%eax, -4(%rbp)
Ltmp516:
	.loc	36 194 6 is_stmt 1
	addq	$64, %rsp
	popq	%rbp
	retq
Ltmp517:
Lfunc_end38:
	.cfi_endproc

	.p2align	4, 0x90
__ZN3std3sys4unix5locks14pthread_rwlock6RwLock4read17he18896c1a4833bd7E:
Lfunc_begin39:
	.loc	36 74 0
	.cfi_startproc
	pushq	%rbp
	.cfi_def_cfa_offset 16
	.cfi_offset %rbp, -16
	movq	%rsp, %rbp
	.cfi_def_cfa_register %rbp
	subq	$432, %rsp
	movq	%rdi, -136(%rbp)
Ltmp518:
	.loc	36 75 22 prologue_end
	movq	%rdi, -128(%rbp)
Ltmp519:
	.loc	26 72 20
	callq	__ZN3std10sys_common8lazy_box16LazyBox$LT$T$GT$11get_pointer17hd1d1f4abbac2447dE
	movq	%rax, %rdi
	movq	%rdi, -400(%rbp)
Ltmp520:
	.loc	36 75 20
	movq	%rdi, -120(%rbp)
Ltmp521:
	.loc	36 76 54
	movq	%rdi, -112(%rbp)
	.loc	36 76 26 is_stmt 0
	callq	_pthread_rwlock_rdlock
	movl	%eax, -388(%rbp)
Ltmp522:
	.loc	36 91 12 is_stmt 1
	cmpl	$35, -388(%rbp)
	je	LBB39_2
	.loc	36 93 19
	cmpl	$11, -388(%rbp)
	je	LBB39_4
	jmp	LBB39_3
LBB39_2:
	.loc	36 92 13
	leaq	l___unnamed_57(%rip), %rsi
	leaq	l___unnamed_58(%rip), %rcx
	xorl	%eax, %eax
	movl	%eax, %r8d
	leaq	-384(%rbp), %rdi
	movq	%rdi, -408(%rbp)
	movl	$1, %edx
	callq	__ZN4core3fmt9Arguments6new_v117h8322a8977516b340E
	movq	-408(%rbp), %rdi
	leaq	l___unnamed_59(%rip), %rsi
	callq	__ZN4core9panicking9panic_fmt17h9b5d807e24bcaaedE
LBB39_3:
	.loc	36 93 41
	cmpl	$0, -388(%rbp)
	je	LBB39_6
	jmp	LBB39_7
LBB39_4:
	.loc	36 93 19 is_stmt 0
	movb	$1, -330(%rbp)
LBB39_5:
	testb	$1, -330(%rbp)
	jne	LBB39_10
	jmp	LBB39_9
LBB39_6:
	.loc	36 0 19
	movq	-400(%rbp), %rax
	.loc	36 93 62
	movq	%rax, %rcx
	addq	$208, %rcx
	movq	%rcx, -104(%rbp)
	.loc	36 93 61
	movb	208(%rax), %al
	.loc	36 93 41
	andb	$1, %al
	movb	%al, -329(%rbp)
	jmp	LBB39_8
LBB39_7:
	movb	$0, -329(%rbp)
LBB39_8:
	.loc	36 93 19
	movb	-329(%rbp), %al
	andb	$1, %al
	movb	%al, -330(%rbp)
	jmp	LBB39_5
LBB39_9:
	.loc	36 106 13 is_stmt 1
	leaq	-388(%rbp), %rax
	movq	%rax, -280(%rbp)
	leaq	L___unnamed_60(%rip), %rax
	movq	%rax, -272(%rbp)
	movq	-280(%rbp), %rax
	movq	%rax, -424(%rbp)
	movq	%rax, -72(%rbp)
	movq	-272(%rbp), %rcx
	movq	%rcx, -416(%rbp)
	movq	%rcx, -64(%rbp)
Ltmp523:
	.loc	36 106 13 is_stmt 0
	cmpl	$0, (%rax)
	sete	%al
	xorb	$-1, %al
	testb	$1, %al
	jne	LBB39_15
	jmp	LBB39_14
Ltmp524:
LBB39_10:
	.loc	36 96 16 is_stmt 1
	cmpl	$0, -388(%rbp)
	jne	LBB39_12
	.loc	36 0 16 is_stmt 0
	movq	-400(%rbp), %rdi
	.loc	36 99 21 is_stmt 1
	movq	%rdi, -96(%rbp)
Ltmp525:
	.loc	36 47 45
	movq	%rdi, -88(%rbp)
	.loc	36 47 17 is_stmt 0
	callq	_pthread_rwlock_unlock
	movl	%eax, -76(%rbp)
Ltmp526:
	.loc	36 96 13 is_stmt 1
	jmp	LBB39_13
LBB39_12:
	jmp	LBB39_13
LBB39_13:
	.loc	36 102 13
	leaq	l___unnamed_61(%rip), %rsi
	leaq	l___unnamed_58(%rip), %rcx
	xorl	%eax, %eax
	movl	%eax, %r8d
	leaq	-328(%rbp), %rdi
	movq	%rdi, -432(%rbp)
	movl	$1, %edx
	callq	__ZN4core3fmt9Arguments6new_v117h8322a8977516b340E
	movq	-432(%rbp), %rdi
	leaq	l___unnamed_62(%rip), %rsi
	callq	__ZN4core9panicking9panic_fmt17h9b5d807e24bcaaedE
LBB39_14:
	.loc	36 0 13 is_stmt 0
	movq	-400(%rbp), %rdi
	.loc	36 107 13 is_stmt 1
	addq	$200, %rdi
	movq	%rdi, -16(%rbp)
Ltmp527:
	.loc	28 2379 37
	movq	%rdi, -8(%rbp)
	.loc	28 2379 26 is_stmt 0
	movl	$1, %esi
	xorl	%edx, %edx
	callq	__ZN4core4sync6atomic10atomic_add17h1460a2838d84ef87E
Ltmp528:
	.loc	36 109 6 is_stmt 1
	addq	$432, %rsp
	popq	%rbp
	retq
LBB39_15:
	.loc	36 0 6 is_stmt 0
	leaq	-388(%rbp), %rcx
Ltmp529:
	.loc	36 106 13 is_stmt 1
	movq	%rcx, -56(%rbp)
Ltmp530:
	.file	37 "/rustc/2c8cc343237b8f7d5a3c3703e3a87f2eb2c54a74/library/core/src/fmt" "mod.rs"
	.loc	37 328 23
	movq	%rcx, -48(%rbp)
	.loc	37 328 26 is_stmt 0
	leaq	__ZN4core3fmt3num50_$LT$impl$u20$core..fmt..Debug$u20$for$u20$i32$GT$3fmt17hc507f77c4521a3b0E(%rip), %rax
	movq	%rax, -40(%rbp)
Ltmp531:
	.loc	37 347 42 is_stmt 1
	movq	%rax, -32(%rbp)
	movq	-32(%rbp), %rax
	.loc	37 347 68 is_stmt 0
	movq	%rcx, -24(%rbp)
	movq	-24(%rbp), %rcx
	.loc	37 347 18
	movq	%rcx, -152(%rbp)
	movq	%rax, -144(%rbp)
Ltmp532:
	.loc	36 106 13 is_stmt 1
	movq	-152(%rbp), %rcx
	movq	-144(%rbp), %rax
	movq	%rcx, -168(%rbp)
	movq	%rax, -160(%rbp)
	leaq	l___unnamed_63(%rip), %rsi
	leaq	-216(%rbp), %rdi
	leaq	-168(%rbp), %rcx
	movl	$1, %r8d
	movq	%r8, %rdx
	callq	__ZN4core3fmt9Arguments6new_v117h8322a8977516b340E
	movq	-424(%rbp), %rsi
	movq	-416(%rbp), %rdx
	movq	-176(%rbp), %rax
	movq	%rax, -224(%rbp)
	movq	-184(%rbp), %rax
	movq	%rax, -232(%rbp)
	movq	-192(%rbp), %rax
	movq	%rax, -240(%rbp)
	movq	-200(%rbp), %rax
	movq	%rax, -248(%rbp)
	movq	-216(%rbp), %rax
	movq	-208(%rbp), %rcx
	movq	%rcx, -256(%rbp)
	movq	%rax, -264(%rbp)
	leaq	l___unnamed_64(%rip), %r8
	xorl	%edi, %edi
	leaq	-264(%rbp), %rcx
	callq	__ZN4core9panicking13assert_failed17hac07ad6161e79fa3E
Ltmp533:
Lfunc_end39:
	.cfi_endproc

	.p2align	4, 0x90
__ZN3std3sys4unix5locks14pthread_rwlock6RwLock5write17h5072faec0b314943E:
Lfunc_begin40:
	.loc	36 132 0
	.cfi_startproc
	pushq	%rbp
	.cfi_def_cfa_offset 16
	.cfi_offset %rbp, -16
	movq	%rsp, %rbp
	.cfi_def_cfa_register %rbp
	subq	$176, %rsp
	movq	%rdi, -96(%rbp)
Ltmp534:
	.loc	36 133 22 prologue_end
	movq	%rdi, -88(%rbp)
Ltmp535:
	.loc	26 72 20
	callq	__ZN3std10sys_common8lazy_box16LazyBox$LT$T$GT$11get_pointer17hd1d1f4abbac2447dE
	movq	%rax, %rdi
	movq	%rdi, -160(%rbp)
Ltmp536:
	.loc	36 133 20
	movq	%rdi, -80(%rbp)
Ltmp537:
	.loc	36 134 54
	movq	%rdi, -72(%rbp)
	.loc	36 134 26 is_stmt 0
	callq	_pthread_rwlock_wrlock
	movl	%eax, -152(%rbp)
	movl	%eax, -60(%rbp)
Ltmp538:
	.loc	36 137 12 is_stmt 1
	cmpl	$11, %eax
	je	LBB40_2
	.loc	36 0 12 is_stmt 0
	movl	-152(%rbp), %eax
	.loc	36 138 16 is_stmt 1
	cmpl	$0, %eax
	je	LBB40_4
	jmp	LBB40_5
LBB40_2:
	.loc	36 137 12
	movb	$1, -146(%rbp)
LBB40_3:
	testb	$1, -146(%rbp)
	jne	LBB40_8
	jmp	LBB40_7
LBB40_4:
	.loc	36 0 12 is_stmt 0
	movq	-160(%rbp), %rax
	.loc	36 138 37 is_stmt 1
	movq	%rax, %rcx
	addq	$208, %rcx
	movq	%rcx, -56(%rbp)
	.loc	36 138 36 is_stmt 0
	movb	208(%rax), %al
	.loc	36 138 16
	andb	$1, %al
	movb	%al, -145(%rbp)
	jmp	LBB40_6
LBB40_5:
	movb	$0, -145(%rbp)
LBB40_6:
	.loc	36 137 12 is_stmt 1
	movb	-145(%rbp), %al
	andb	$1, %al
	movb	%al, -146(%rbp)
	jmp	LBB40_3
LBB40_7:
	.loc	36 0 12 is_stmt 0
	movq	-160(%rbp), %rdi
	.loc	36 139 16 is_stmt 1
	addq	$200, %rdi
	movq	%rdi, -48(%rbp)
Ltmp539:
	.loc	28 2127 38
	movq	%rdi, -40(%rbp)
	.loc	28 2127 26 is_stmt 0
	xorl	%esi, %esi
	callq	__ZN4core4sync6atomic11atomic_load17h1e612231b2a7bccbE
Ltmp540:
	.loc	36 139 16 is_stmt 1
	cmpq	$0, %rax
	setne	%al
	.loc	36 137 12
	andb	$1, %al
	movb	%al, -147(%rbp)
	jmp	LBB40_9
LBB40_8:
	movb	$1, -147(%rbp)
LBB40_9:
	testb	$1, -147(%rbp)
	jne	LBB40_11
	.loc	36 0 12 is_stmt 0
	movq	-160(%rbp), %rax
	.loc	36 157 14 is_stmt 1
	movq	%rax, %rcx
	addq	$208, %rcx
	movq	%rcx, -8(%rbp)
	.loc	36 157 13 is_stmt 0
	movb	$1, 208(%rax)
Ltmp541:
	.loc	36 159 6 is_stmt 1
	addq	$176, %rsp
	popq	%rbp
	retq
LBB40_11:
	.loc	36 0 6 is_stmt 0
	movl	-152(%rbp), %eax
Ltmp542:
	.loc	36 143 16 is_stmt 1
	cmpl	$0, %eax
	jne	LBB40_13
	.loc	36 0 16 is_stmt 0
	movq	-160(%rbp), %rdi
	.loc	36 146 21 is_stmt 1
	movq	%rdi, -32(%rbp)
Ltmp543:
	.loc	36 47 45
	movq	%rdi, -24(%rbp)
	.loc	36 47 17 is_stmt 0
	callq	_pthread_rwlock_unlock
	movl	%eax, -12(%rbp)
Ltmp544:
	.loc	36 143 13 is_stmt 1
	jmp	LBB40_14
LBB40_13:
	jmp	LBB40_14
LBB40_14:
	.loc	36 149 13
	leaq	l___unnamed_65(%rip), %rsi
	leaq	l___unnamed_58(%rip), %rcx
	xorl	%eax, %eax
	movl	%eax, %r8d
	leaq	-144(%rbp), %rdi
	movq	%rdi, -168(%rbp)
	movl	$1, %edx
	callq	__ZN4core3fmt9Arguments6new_v117h8322a8977516b340E
	movq	-168(%rbp), %rdi
	leaq	l___unnamed_66(%rip), %rsi
	callq	__ZN4core9panicking9panic_fmt17h9b5d807e24bcaaedE
Ltmp545:
Lfunc_end40:
	.cfi_endproc

	.globl	__ZN3std4sync5mutex14Mutex$LT$T$GT$3new17h95d04dee092d36afE
	.p2align	4, 0x90
__ZN3std4sync5mutex14Mutex$LT$T$GT$3new17h95d04dee092d36afE:
Lfunc_begin41:
	.file	38 "/rustc/2c8cc343237b8f7d5a3c3703e3a87f2eb2c54a74/library/std/src/sync" "mutex.rs"
	.loc	38 219 0
	.cfi_startproc
	pushq	%rbp
	.cfi_def_cfa_offset 16
	.cfi_offset %rbp, -16
	movq	%rsp, %rbp
	.cfi_def_cfa_register %rbp
	subq	$224, %rsp
	movq	%rsi, -224(%rbp)
Ltmp546:
	movq	%rdi, -216(%rbp)
	movq	%rdi, -208(%rbp)
Ltmp547:
	.loc	11 599 14 prologue_end
	movq	$0, -48(%rbp)
	movq	-48(%rbp), %rax
	movq	%rax, -200(%rbp)
	movq	%rax, -40(%rbp)
Ltmp548:
	.loc	11 0 14 is_stmt 0
	movq	-208(%rbp), %rax
	movq	-216(%rbp), %rcx
	movq	-224(%rbp), %rdx
	movq	-200(%rbp), %rsi
Ltmp549:
	.loc	12 135 36 is_stmt 1
	movq	%rsi, -104(%rbp)
	.loc	12 135 14 is_stmt 0
	movq	-104(%rbp), %rsi
	movq	%rsi, -112(%rbp)
	movq	-112(%rbp), %rsi
	movq	%rsi, -16(%rbp)
Ltmp550:
	.loc	28 1017 40 is_stmt 1
	movq	%rsi, -8(%rbp)
Ltmp551:
	.file	39 "/rustc/2c8cc343237b8f7d5a3c3703e3a87f2eb2c54a74/library/core/src" "cell.rs"
	.loc	39 1953 9
	movq	%rsi, -96(%rbp)
Ltmp552:
	.loc	28 1017 9
	movq	-96(%rbp), %rsi
	movq	%rsi, -120(%rbp)
Ltmp553:
	.loc	26 44 9
	movq	-120(%rbp), %rsi
	movq	%rsi, -128(%rbp)
Ltmp554:
	.file	40 "/rustc/2c8cc343237b8f7d5a3c3703e3a87f2eb2c54a74/library/std/src/sys/unix/locks" "pthread_mutex.rs"
	.loc	40 101 9
	movq	-128(%rbp), %rsi
	movq	%rsi, -192(%rbp)
Ltmp555:
	.loc	28 305 9
	movb	$0, -88(%rbp)
Ltmp556:
	.file	41 "/rustc/2c8cc343237b8f7d5a3c3703e3a87f2eb2c54a74/library/std/src/sync" "poison.rs"
	.loc	41 24 9
	movb	-88(%rbp), %sil
	movb	%sil, -184(%rbp)
Ltmp557:
	.loc	38 220 94
	movq	(%rdx), %rsi
	movq	%rsi, -152(%rbp)
	movq	8(%rdx), %rsi
	movq	%rsi, -144(%rbp)
	movq	16(%rdx), %rdx
	movq	%rdx, -136(%rbp)
Ltmp558:
	.loc	39 1953 22
	movq	-152(%rbp), %rdx
	movq	%rdx, -80(%rbp)
	movq	-144(%rbp), %rdx
	movq	%rdx, -72(%rbp)
	movq	-136(%rbp), %rdx
	movq	%rdx, -64(%rbp)
	.loc	39 1953 9 is_stmt 0
	movq	-80(%rbp), %rdx
	movq	%rdx, -176(%rbp)
	movq	-72(%rbp), %rdx
	movq	%rdx, -168(%rbp)
	movq	-64(%rbp), %rdx
	movq	%rdx, -160(%rbp)
Ltmp559:
	.loc	38 220 9 is_stmt 1
	movq	-192(%rbp), %rdx
	movq	%rdx, (%rcx)
	movb	-184(%rbp), %dl
	movb	%dl, 8(%rcx)
	movq	-176(%rbp), %rdx
	movq	%rdx, 16(%rcx)
	movq	-168(%rbp), %rdx
	movq	%rdx, 24(%rcx)
	movq	-160(%rbp), %rdx
	movq	%rdx, 32(%rcx)
	.loc	38 221 6
	addq	$224, %rsp
	popq	%rbp
	retq
Ltmp560:
Lfunc_end41:
	.cfi_endproc

	.globl	__ZN3std4sync5mutex14Mutex$LT$T$GT$4lock17h3ffb3917b3a02852E
	.p2align	4, 0x90
__ZN3std4sync5mutex14Mutex$LT$T$GT$4lock17h3ffb3917b3a02852E:
Lfunc_begin42:
	.loc	38 261 0
	.cfi_startproc
	pushq	%rbp
	.cfi_def_cfa_offset 16
	.cfi_offset %rbp, -16
	movq	%rsp, %rbp
	.cfi_def_cfa_register %rbp
	subq	$80, %rsp
	movq	%rsi, -64(%rbp)
	movq	%rdi, %rax
	movq	-64(%rbp), %rdi
	movq	%rax, -72(%rbp)
	movq	%rax, -56(%rbp)
	movq	%rdi, -48(%rbp)
Ltmp561:
	.loc	38 263 13 prologue_end
	movq	%rdi, -40(%rbp)
Ltmp562:
	.loc	40 106 46
	movq	%rdi, -32(%rbp)
Ltmp563:
	.loc	40 14 5
	movq	%rdi, -24(%rbp)
Ltmp564:
	.loc	26 72 20
	callq	__ZN3std10sys_common8lazy_box16LazyBox$LT$T$GT$11get_pointer17h20bf3feb6f536b22E
	movq	%rax, %rdi
Ltmp565:
	.loc	40 14 5
	movq	%rdi, -16(%rbp)
Ltmp566:
	.loc	40 106 17
	callq	_pthread_mutex_lock
	movq	-72(%rbp), %rdi
	movq	-64(%rbp), %rsi
	movl	%eax, -4(%rbp)
Ltmp567:
	.loc	38 264 13
	callq	__ZN3std4sync5mutex19MutexGuard$LT$T$GT$3new17h1eaa705dca10e6beE
	movq	-56(%rbp), %rax
	.loc	38 266 6
	addq	$80, %rsp
	popq	%rbp
	retq
Ltmp568:
Lfunc_end42:
	.cfi_endproc

	.globl	__ZN3std4sync5mutex19MutexGuard$LT$T$GT$3new17h1eaa705dca10e6beE
	.p2align	4, 0x90
__ZN3std4sync5mutex19MutexGuard$LT$T$GT$3new17h1eaa705dca10e6beE:
Lfunc_begin43:
	.loc	38 498 0
	.cfi_startproc
	pushq	%rbp
	.cfi_def_cfa_offset 16
	.cfi_offset %rbp, -16
	movq	%rsp, %rbp
	.cfi_def_cfa_register %rbp
	subq	$48, %rsp
	movq	%rsi, -40(%rbp)
	movq	%rdi, %rax
	movq	-40(%rbp), %rdi
	movq	%rax, -32(%rbp)
	movq	%rax, -24(%rbp)
	movq	%rdi, -8(%rbp)
Ltmp569:
	.loc	38 499 28 prologue_end
	addq	$8, %rdi
	callq	__ZN3std4sync6poison4Flag5guard17h5cdfe08dd55205eeE
	movq	-40(%rbp), %rsi
	movq	-32(%rbp), %rdi
	.loc	38 499 49 is_stmt 0
	movq	%rsi, -16(%rbp)
	.loc	38 499 9
	movq	-16(%rbp), %rcx
	andb	$1, %al
	movzbl	%al, %esi
	movzbl	%dl, %edx
	callq	__ZN3std4sync6poison10map_result17ha7535998e34206deE
	movq	-24(%rbp), %rax
	.loc	38 500 6 is_stmt 1
	addq	$48, %rsp
	popq	%rbp
	retq
Ltmp570:
Lfunc_end43:
	.cfi_endproc

	.globl	__ZN3std4sync5mutex19MutexGuard$LT$T$GT$3new28_$u7b$$u7b$closure$u7d$$u7d$17h4214b690c90d7482E
	.p2align	4, 0x90
__ZN3std4sync5mutex19MutexGuard$LT$T$GT$3new28_$u7b$$u7b$closure$u7d$$u7d$17h4214b690c90d7482E:
Lfunc_begin44:
	.loc	38 499 0
	.cfi_startproc
	pushq	%rbp
	.cfi_def_cfa_offset 16
	.cfi_offset %rbp, -16
	movq	%rsp, %rbp
	.cfi_def_cfa_register %rbp
	subq	$32, %rsp
	movb	%sil, %al
	movq	%rdi, -32(%rbp)
	andb	$1, %al
	movb	%al, -1(%rbp)
Ltmp571:
	.loc	38 499 70 prologue_end
	movq	-32(%rbp), %rcx
	.loc	38 499 57 is_stmt 0
	movq	%rcx, -24(%rbp)
	movb	%al, -16(%rbp)
	.loc	38 499 91
	movq	-24(%rbp), %rax
	movb	-16(%rbp), %dl
	addq	$32, %rsp
	popq	%rbp
	retq
Ltmp572:
Lfunc_end44:
	.cfi_endproc

	.globl	__ZN3std4sync6poison10map_result17h3bda3d9c2942e20dE
	.p2align	4, 0x90
__ZN3std4sync6poison10map_result17h3bda3d9c2942e20dE:
Lfunc_begin45:
	.loc	41 264 0 is_stmt 1
	.cfi_startproc
	pushq	%rbp
	.cfi_def_cfa_offset 16
	.cfi_offset %rbp, -16
	movq	%rsp, %rbp
	.cfi_def_cfa_register %rbp
	subq	$80, %rsp
	movq	%rdx, -72(%rbp)
	movq	%rdi, -64(%rbp)
	movb	%sil, %al
	movq	%rdi, -56(%rbp)
	andb	$1, %al
	movb	%al, -41(%rbp)
	movq	%rdx, -24(%rbp)
Ltmp573:
	.loc	41 268 11 prologue_end
	movb	-41(%rbp), %al
	andb	$1, %al
	movzbl	%al, %eax
	.loc	41 268 5 is_stmt 0
	cmpq	$0, %rax
	jne	LBB45_2
	.loc	41 0 5
	movq	-72(%rbp), %rdi
Ltmp574:
	.loc	41 269 21 is_stmt 1
	callq	__ZN3std4sync6rwlock24RwLockReadGuard$LT$T$GT$3new28_$u7b$$u7b$closure$u7d$$u7d$17h731a1613fd1c4ae1E
	movq	%rax, %rcx
	movq	-64(%rbp), %rax
	.loc	41 269 18 is_stmt 0
	movq	%rcx, 8(%rax)
	movq	%rdx, 16(%rax)
	movq	$0, (%rax)
Ltmp575:
	.loc	41 269 25
	jmp	LBB45_3
LBB45_2:
	.loc	41 0 25
	movq	-72(%rbp), %rdi
Ltmp576:
	.loc	41 270 60 is_stmt 1
	callq	__ZN3std4sync6rwlock24RwLockReadGuard$LT$T$GT$3new28_$u7b$$u7b$closure$u7d$$u7d$17h731a1613fd1c4ae1E
	movq	%rax, %rdi
	movq	%rdx, %rsi
	.loc	41 270 43 is_stmt 0
	callq	__ZN3std4sync6poison20PoisonError$LT$T$GT$3new17haaf193b748c0dea9E
	movq	%rax, %rcx
	movq	-64(%rbp), %rax
	.loc	41 270 39
	movq	%rcx, 8(%rax)
	movq	%rdx, 16(%rax)
	movq	$1, (%rax)
Ltmp577:
LBB45_3:
	.loc	41 0 39
	movq	-56(%rbp), %rax
	.loc	41 272 2 is_stmt 1
	addq	$80, %rsp
	popq	%rbp
	retq
Ltmp578:
Lfunc_end45:
	.cfi_endproc

	.globl	__ZN3std4sync6poison10map_result17ha7535998e34206deE
	.p2align	4, 0x90
__ZN3std4sync6poison10map_result17ha7535998e34206deE:
Lfunc_begin46:
	.loc	41 264 0
	.cfi_startproc
	pushq	%rbp
	.cfi_def_cfa_offset 16
	.cfi_offset %rbp, -16
	movq	%rsp, %rbp
	.cfi_def_cfa_register %rbp
	subq	$48, %rsp
	movq	%rcx, -48(%rbp)
	movq	%rdi, -40(%rbp)
	movb	%dl, %al
	movb	%sil, %dl
	movq	%rdi, -32(%rbp)
	andb	$1, %dl
	movb	%dl, -24(%rbp)
	movb	%al, -23(%rbp)
	movq	%rcx, -16(%rbp)
Ltmp579:
	.loc	41 268 11 prologue_end
	movb	-24(%rbp), %al
	andb	$1, %al
	movzbl	%al, %eax
	.loc	41 268 5 is_stmt 0
	cmpq	$0, %rax
	jne	LBB46_2
	.loc	41 0 5
	movq	-48(%rbp), %rdi
	.loc	41 269 12 is_stmt 1
	movb	-23(%rbp), %al
	movb	%al, %cl
	andb	$1, %cl
	movb	%cl, -1(%rbp)
Ltmp580:
	.loc	41 269 21 is_stmt 0
	andb	$1, %al
	movb	%al, -18(%rbp)
	movb	-18(%rbp), %al
	andb	$1, %al
	movzbl	%al, %esi
	callq	__ZN3std4sync5mutex19MutexGuard$LT$T$GT$3new28_$u7b$$u7b$closure$u7d$$u7d$17h4214b690c90d7482E
	movq	%rax, %rcx
	movq	-40(%rbp), %rax
	.loc	41 269 18
	movq	%rcx, 8(%rax)
	andb	$1, %dl
	movb	%dl, 16(%rax)
	movq	$0, (%rax)
Ltmp581:
	.loc	41 269 25
	jmp	LBB46_3
LBB46_2:
	.loc	41 0 25
	movq	-48(%rbp), %rdi
	.loc	41 270 27 is_stmt 1
	movb	-23(%rbp), %al
	movb	%al, %cl
	andb	$1, %cl
	movb	%cl, -2(%rbp)
Ltmp582:
	.loc	41 270 60 is_stmt 0
	andb	$1, %al
	movb	%al, -17(%rbp)
	movb	-17(%rbp), %al
	andb	$1, %al
	movzbl	%al, %esi
	callq	__ZN3std4sync5mutex19MutexGuard$LT$T$GT$3new28_$u7b$$u7b$closure$u7d$$u7d$17h4214b690c90d7482E
	movq	%rax, %rdi
	.loc	41 270 43
	andb	$1, %dl
	movzbl	%dl, %esi
	callq	__ZN3std4sync6poison20PoisonError$LT$T$GT$3new17h7c36f0bc16401216E
	movq	%rax, %rcx
	movq	-40(%rbp), %rax
	.loc	41 270 39
	movq	%rcx, 8(%rax)
	andb	$1, %dl
	movb	%dl, 16(%rax)
	movq	$1, (%rax)
Ltmp583:
LBB46_3:
	.loc	41 0 39
	movq	-32(%rbp), %rax
	.loc	41 272 2 is_stmt 1
	addq	$48, %rsp
	popq	%rbp
	retq
Ltmp584:
Lfunc_end46:
	.cfi_endproc

	.globl	__ZN3std4sync6poison10map_result17hd97fb291d07c5cfeE
	.p2align	4, 0x90
__ZN3std4sync6poison10map_result17hd97fb291d07c5cfeE:
Lfunc_begin47:
	.loc	41 264 0
	.cfi_startproc
	pushq	%rbp
	.cfi_def_cfa_offset 16
	.cfi_offset %rbp, -16
	movq	%rsp, %rbp
	.cfi_def_cfa_register %rbp
	subq	$48, %rsp
	movq	%rcx, -48(%rbp)
	movq	%rdi, -40(%rbp)
	movb	%dl, %al
	movb	%sil, %dl
	movq	%rdi, -32(%rbp)
	andb	$1, %dl
	movb	%dl, -24(%rbp)
	movb	%al, -23(%rbp)
	movq	%rcx, -16(%rbp)
Ltmp585:
	.loc	41 268 11 prologue_end
	movb	-24(%rbp), %al
	andb	$1, %al
	movzbl	%al, %eax
	.loc	41 268 5 is_stmt 0
	cmpq	$0, %rax
	jne	LBB47_2
	.loc	41 0 5
	movq	-48(%rbp), %rdi
	.loc	41 269 12 is_stmt 1
	movb	-23(%rbp), %al
	movb	%al, %cl
	andb	$1, %cl
	movb	%cl, -1(%rbp)
Ltmp586:
	.loc	41 269 21 is_stmt 0
	andb	$1, %al
	movb	%al, -18(%rbp)
	movb	-18(%rbp), %al
	andb	$1, %al
	movzbl	%al, %esi
	callq	__ZN3std4sync6rwlock25RwLockWriteGuard$LT$T$GT$3new28_$u7b$$u7b$closure$u7d$$u7d$17h228390104c48dc9aE
	movq	%rax, %rcx
	movq	-40(%rbp), %rax
	.loc	41 269 18
	movq	%rcx, 8(%rax)
	andb	$1, %dl
	movb	%dl, 16(%rax)
	movq	$0, (%rax)
Ltmp587:
	.loc	41 269 25
	jmp	LBB47_3
LBB47_2:
	.loc	41 0 25
	movq	-48(%rbp), %rdi
	.loc	41 270 27 is_stmt 1
	movb	-23(%rbp), %al
	movb	%al, %cl
	andb	$1, %cl
	movb	%cl, -2(%rbp)
Ltmp588:
	.loc	41 270 60 is_stmt 0
	andb	$1, %al
	movb	%al, -17(%rbp)
	movb	-17(%rbp), %al
	andb	$1, %al
	movzbl	%al, %esi
	callq	__ZN3std4sync6rwlock25RwLockWriteGuard$LT$T$GT$3new28_$u7b$$u7b$closure$u7d$$u7d$17h228390104c48dc9aE
	movq	%rax, %rdi
	.loc	41 270 43
	andb	$1, %dl
	movzbl	%dl, %esi
	callq	__ZN3std4sync6poison20PoisonError$LT$T$GT$3new17hac6e9afa669f0006E
	movq	%rax, %rcx
	movq	-40(%rbp), %rax
	.loc	41 270 39
	movq	%rcx, 8(%rax)
	andb	$1, %dl
	movb	%dl, 16(%rax)
	movq	$1, (%rax)
Ltmp589:
LBB47_3:
	.loc	41 0 39
	movq	-32(%rbp), %rax
	.loc	41 272 2 is_stmt 1
	addq	$48, %rsp
	popq	%rbp
	retq
Ltmp590:
Lfunc_end47:
	.cfi_endproc

	.globl	__ZN3std4sync6poison20PoisonError$LT$T$GT$3new17h7c36f0bc16401216E
	.p2align	4, 0x90
__ZN3std4sync6poison20PoisonError$LT$T$GT$3new17h7c36f0bc16401216E:
Lfunc_begin48:
	.loc	41 169 0
	.cfi_startproc
	pushq	%rbp
	.cfi_def_cfa_offset 16
	.cfi_offset %rbp, -16
	movq	%rsp, %rbp
	.cfi_def_cfa_register %rbp
	subq	$32, %rsp
	movb	%sil, %al
	movq	%rdi, -16(%rbp)
	andb	$1, %al
	movb	%al, -8(%rbp)
Ltmp591:
	.loc	41 170 9 prologue_end
	movq	%rdi, -32(%rbp)
	movb	%al, -24(%rbp)
	.loc	41 171 6
	movq	-32(%rbp), %rax
	movb	-24(%rbp), %dl
	addq	$32, %rsp
	popq	%rbp
	retq
Ltmp592:
Lfunc_end48:
	.cfi_endproc

	.globl	__ZN3std4sync6poison20PoisonError$LT$T$GT$3new17h8b5f31b0d06c88beE
	.p2align	4, 0x90
__ZN3std4sync6poison20PoisonError$LT$T$GT$3new17h8b5f31b0d06c88beE:
Lfunc_begin49:
	.loc	41 169 0
	.cfi_startproc
	pushq	%rbp
	.cfi_def_cfa_offset 16
	.cfi_offset %rbp, -16
	movq	%rsp, %rbp
	.cfi_def_cfa_register %rbp
Ltmp593:
	.loc	41 171 6 prologue_end
	popq	%rbp
	retq
Ltmp594:
Lfunc_end49:
	.cfi_endproc

	.globl	__ZN3std4sync6poison20PoisonError$LT$T$GT$3new17haaf193b748c0dea9E
	.p2align	4, 0x90
__ZN3std4sync6poison20PoisonError$LT$T$GT$3new17haaf193b748c0dea9E:
Lfunc_begin50:
	.loc	41 169 0
	.cfi_startproc
	pushq	%rbp
	.cfi_def_cfa_offset 16
	.cfi_offset %rbp, -16
	movq	%rsp, %rbp
	.cfi_def_cfa_register %rbp
	subq	$32, %rsp
	movq	%rdi, -16(%rbp)
	movq	%rsi, -8(%rbp)
Ltmp595:
	.loc	41 170 9 prologue_end
	movq	%rdi, -32(%rbp)
	movq	%rsi, -24(%rbp)
	.loc	41 171 6
	movq	-32(%rbp), %rax
	movq	-24(%rbp), %rdx
	addq	$32, %rsp
	popq	%rbp
	retq
Ltmp596:
Lfunc_end50:
	.cfi_endproc

	.globl	__ZN3std4sync6poison20PoisonError$LT$T$GT$3new17hac6e9afa669f0006E
	.p2align	4, 0x90
__ZN3std4sync6poison20PoisonError$LT$T$GT$3new17hac6e9afa669f0006E:
Lfunc_begin51:
	.loc	41 169 0
	.cfi_startproc
	pushq	%rbp
	.cfi_def_cfa_offset 16
	.cfi_offset %rbp, -16
	movq	%rsp, %rbp
	.cfi_def_cfa_register %rbp
	subq	$32, %rsp
	movb	%sil, %al
	movq	%rdi, -16(%rbp)
	andb	$1, %al
	movb	%al, -8(%rbp)
Ltmp597:
	.loc	41 170 9 prologue_end
	movq	%rdi, -32(%rbp)
	movb	%al, -24(%rbp)
	.loc	41 171 6
	movq	-32(%rbp), %rax
	movb	-24(%rbp), %dl
	addq	$32, %rsp
	popq	%rbp
	retq
Ltmp598:
Lfunc_end51:
	.cfi_endproc

	.globl	__ZN3std4sync6poison20PoisonError$LT$T$GT$3new17hbb3e3900e89c7e7bE
	.p2align	4, 0x90
__ZN3std4sync6poison20PoisonError$LT$T$GT$3new17hbb3e3900e89c7e7bE:
Lfunc_begin52:
	.loc	41 169 0
	.cfi_startproc
	pushq	%rbp
	.cfi_def_cfa_offset 16
	.cfi_offset %rbp, -16
	movq	%rsp, %rbp
	.cfi_def_cfa_register %rbp
	subq	$2, %rsp
	movb	%dil, %al
	movb	%al, %cl
	andb	$1, %cl
	movb	%cl, -1(%rbp)
Ltmp599:
	.loc	41 170 9 prologue_end
	andb	$1, %al
	movb	%al, -2(%rbp)
	.loc	41 171 6
	movb	-2(%rbp), %al
	andb	$1, %al
	movzbl	%al, %eax
	addq	$2, %rsp
	popq	%rbp
	retq
Ltmp600:
Lfunc_end52:
	.cfi_endproc

	.p2align	4, 0x90
__ZN3std4sync6poison4Flag4done17h32ac11953257143aE:
Lfunc_begin53:
	.loc	41 41 0
	.cfi_startproc
	pushq	%rbp
	.cfi_def_cfa_offset 16
	.cfi_offset %rbp, -16
	movq	%rsp, %rbp
	.cfi_def_cfa_register %rbp
	subq	$48, %rsp
	movq	%rdi, -48(%rbp)
	movq	%rdi, -32(%rbp)
	movq	%rsi, -24(%rbp)
Ltmp601:
	.loc	41 42 13 prologue_end
	movb	(%rsi), %al
	.loc	41 42 12 is_stmt 0
	xorb	$-1, %al
	testb	$1, %al
	jne	LBB53_2
	movb	$0, -33(%rbp)
	jmp	LBB53_3
LBB53_2:
Ltmp602:
	.file	42 "/rustc/2c8cc343237b8f7d5a3c3703e3a87f2eb2c54a74/library/std/src" "panicking.rs"
	.loc	42 517 6 is_stmt 1
	callq	__ZN3std9panicking11panic_count13count_is_zero17h2b12c4a707c1b32cE
	.loc	42 517 5 is_stmt 0
	xorb	$-1, %al
Ltmp603:
	.loc	41 42 12 is_stmt 1
	andb	$1, %al
	movb	%al, -33(%rbp)
LBB53_3:
	testb	$1, -33(%rbp)
	jne	LBB53_5
LBB53_4:
	.loc	41 45 6
	addq	$48, %rsp
	popq	%rbp
	retq
LBB53_5:
	.loc	41 0 6 is_stmt 0
	movq	-48(%rbp), %rdi
	.loc	41 43 13 is_stmt 1
	movq	%rdi, -16(%rbp)
Ltmp604:
	.loc	28 485 26
	movq	%rdi, -8(%rbp)
	.loc	28 485 13 is_stmt 0
	movl	$1, %esi
	xorl	%edx, %edx
	callq	__ZN4core4sync6atomic12atomic_store17h75ed86ae44613cb6E
Ltmp605:
	.loc	41 42 9 is_stmt 1
	jmp	LBB53_4
Ltmp606:
Lfunc_end53:
	.cfi_endproc
	.file	43 "/rustc/2c8cc343237b8f7d5a3c3703e3a87f2eb2c54a74/library/std/src/thread" "mod.rs"

	.p2align	4, 0x90
__ZN3std4sync6poison4Flag5guard17h5cdfe08dd55205eeE:
Lfunc_begin54:
	.loc	41 35 0
	.cfi_startproc
	pushq	%rbp
	.cfi_def_cfa_offset 16
	.cfi_offset %rbp, -16
	movq	%rsp, %rbp
	.cfi_def_cfa_register %rbp
	subq	$48, %rsp
	movq	%rdi, -48(%rbp)
	movq	%rdi, -32(%rbp)
Ltmp607:
	.loc	42 517 6 prologue_end
	callq	__ZN3std9panicking11panic_count13count_is_zero17h2b12c4a707c1b32cE
	movq	-48(%rbp), %rdi
	.loc	42 517 5 is_stmt 0
	xorb	$-1, %al
Ltmp608:
	.loc	41 36 19 is_stmt 1
	andb	$1, %al
	movb	%al, -33(%rbp)
Ltmp609:
	.loc	41 37 12
	movq	%rdi, -24(%rbp)
Ltmp610:
	.loc	41 49 9
	movq	%rdi, -16(%rbp)
Ltmp611:
	.loc	28 456 30
	movq	%rdi, -8(%rbp)
	.loc	28 456 18 is_stmt 0
	xorl	%esi, %esi
	callq	__ZN4core4sync6atomic11atomic_load17hbb6eaaad552e2f35E
Ltmp612:
	.loc	41 37 12 is_stmt 1
	cmpb	$0, %al
	jne	LBB54_2
	.loc	41 37 64 is_stmt 0
	movb	-33(%rbp), %al
	.loc	41 37 61
	andb	$1, %al
	movb	%al, -39(%rbp)
	movb	$0, -40(%rbp)
	.loc	41 37 9
	jmp	LBB54_3
LBB54_2:
	.loc	41 37 46
	movb	-33(%rbp), %al
	.loc	41 37 29
	andb	$1, %al
	movzbl	%al, %edi
	callq	__ZN3std4sync6poison20PoisonError$LT$T$GT$3new17hbb3e3900e89c7e7bE
	.loc	41 37 25
	andb	$1, %al
	movb	%al, -39(%rbp)
	movb	$1, -40(%rbp)
Ltmp613:
LBB54_3:
	.loc	41 38 6 is_stmt 1
	movb	-40(%rbp), %al
	movb	-39(%rbp), %dl
	addq	$48, %rsp
	popq	%rbp
	retq
Ltmp614:
Lfunc_end54:
	.cfi_endproc

	.p2align	4, 0x90
__ZN3std4sync6poison4Flag6borrow17h97585afe7e25c3bbE:
Lfunc_begin55:
	.loc	41 29 0
	.cfi_startproc
	pushq	%rbp
	.cfi_def_cfa_offset 16
	.cfi_offset %rbp, -16
	movq	%rsp, %rbp
	.cfi_def_cfa_register %rbp
	subq	$48, %rsp
	movq	%rdi, -32(%rbp)
Ltmp615:
	.loc	41 30 12 prologue_end
	movq	%rdi, -24(%rbp)
Ltmp616:
	.loc	41 49 9
	movq	%rdi, -16(%rbp)
Ltmp617:
	.loc	28 456 30
	movq	%rdi, -8(%rbp)
	.loc	28 456 18 is_stmt 0
	xorl	%esi, %esi
	callq	__ZN4core4sync6atomic11atomic_load17hbb6eaaad552e2f35E
Ltmp618:
	.loc	41 30 12 is_stmt 1
	cmpb	$0, %al
	jne	LBB55_2
	.loc	41 30 60 is_stmt 0
	movb	$0, -33(%rbp)
	.loc	41 30 9
	jmp	LBB55_3
LBB55_2:
	.loc	41 30 29
	callq	__ZN3std4sync6poison20PoisonError$LT$T$GT$3new17h8b5f31b0d06c88beE
	.loc	41 30 25
	movb	$1, -33(%rbp)
LBB55_3:
	.loc	41 31 6 is_stmt 1
	movb	-33(%rbp), %al
	andb	$1, %al
	movzbl	%al, %eax
	addq	$48, %rsp
	popq	%rbp
	retq
Ltmp619:
Lfunc_end55:
	.cfi_endproc

	.globl	__ZN3std4sync6rwlock15RwLock$LT$T$GT$3new17h9d64c165c0cabd5eE
	.p2align	4, 0x90
__ZN3std4sync6rwlock15RwLock$LT$T$GT$3new17h9d64c165c0cabd5eE:
Lfunc_begin56:
	.file	44 "/rustc/2c8cc343237b8f7d5a3c3703e3a87f2eb2c54a74/library/std/src/sync" "rwlock.rs"
	.loc	44 160 0
	.cfi_startproc
	pushq	%rbp
	.cfi_def_cfa_offset 16
	.cfi_offset %rbp, -16
	movq	%rsp, %rbp
	.cfi_def_cfa_register %rbp
	subq	$224, %rsp
	movq	%rsi, -224(%rbp)
Ltmp620:
	movq	%rdi, -216(%rbp)
	movq	%rdi, -208(%rbp)
Ltmp621:
	.loc	11 599 14 prologue_end
	movq	$0, -48(%rbp)
	movq	-48(%rbp), %rax
	movq	%rax, -200(%rbp)
	movq	%rax, -40(%rbp)
Ltmp622:
	.loc	11 0 14 is_stmt 0
	movq	-208(%rbp), %rax
	movq	-216(%rbp), %rcx
	movq	-224(%rbp), %rdx
	movq	-200(%rbp), %rsi
Ltmp623:
	.loc	12 135 36 is_stmt 1
	movq	%rsi, -104(%rbp)
	.loc	12 135 14 is_stmt 0
	movq	-104(%rbp), %rsi
	movq	%rsi, -112(%rbp)
	movq	-112(%rbp), %rsi
	movq	%rsi, -16(%rbp)
Ltmp624:
	.loc	28 1017 40 is_stmt 1
	movq	%rsi, -8(%rbp)
Ltmp625:
	.loc	39 1953 9
	movq	%rsi, -96(%rbp)
Ltmp626:
	.loc	28 1017 9
	movq	-96(%rbp), %rsi
	movq	%rsi, -120(%rbp)
Ltmp627:
	.loc	26 44 9
	movq	-120(%rbp), %rsi
	movq	%rsi, -128(%rbp)
Ltmp628:
	.loc	36 70 9
	movq	-128(%rbp), %rsi
	movq	%rsi, -192(%rbp)
Ltmp629:
	.loc	28 305 9
	movb	$0, -88(%rbp)
Ltmp630:
	.loc	41 24 9
	movb	-88(%rbp), %sil
	movb	%sil, -184(%rbp)
Ltmp631:
	.loc	44 161 96
	movq	(%rdx), %rsi
	movq	%rsi, -152(%rbp)
	movq	8(%rdx), %rsi
	movq	%rsi, -144(%rbp)
	movq	16(%rdx), %rdx
	movq	%rdx, -136(%rbp)
Ltmp632:
	.loc	39 1953 22
	movq	-152(%rbp), %rdx
	movq	%rdx, -80(%rbp)
	movq	-144(%rbp), %rdx
	movq	%rdx, -72(%rbp)
	movq	-136(%rbp), %rdx
	movq	%rdx, -64(%rbp)
	.loc	39 1953 9 is_stmt 0
	movq	-80(%rbp), %rdx
	movq	%rdx, -176(%rbp)
	movq	-72(%rbp), %rdx
	movq	%rdx, -168(%rbp)
	movq	-64(%rbp), %rdx
	movq	%rdx, -160(%rbp)
Ltmp633:
	.loc	44 161 9 is_stmt 1
	movq	-192(%rbp), %rdx
	movq	%rdx, (%rcx)
	movb	-184(%rbp), %dl
	movb	%dl, 8(%rcx)
	movq	-176(%rbp), %rdx
	movq	%rdx, 16(%rcx)
	movq	-168(%rbp), %rdx
	movq	%rdx, 24(%rcx)
	movq	-160(%rbp), %rdx
	movq	%rdx, 32(%rcx)
	.loc	44 162 6
	addq	$224, %rsp
	popq	%rbp
	retq
Ltmp634:
Lfunc_end56:
	.cfi_endproc

	.globl	__ZN3std4sync6rwlock15RwLock$LT$T$GT$4read17h400f14ef02102dcbE
	.p2align	4, 0x90
__ZN3std4sync6rwlock15RwLock$LT$T$GT$4read17h400f14ef02102dcbE:
Lfunc_begin57:
	.loc	44 208 0
	.cfi_startproc
	pushq	%rbp
	.cfi_def_cfa_offset 16
	.cfi_offset %rbp, -16
	movq	%rsp, %rbp
	.cfi_def_cfa_register %rbp
	subq	$32, %rsp
	movq	%rsi, -24(%rbp)
	movq	%rdi, %rax
	movq	-24(%rbp), %rdi
	movq	%rax, -32(%rbp)
	movq	%rax, -16(%rbp)
	movq	%rdi, -8(%rbp)
Ltmp635:
	.loc	44 210 13 prologue_end
	callq	__ZN3std3sys4unix5locks14pthread_rwlock6RwLock4read17he18896c1a4833bd7E
	movq	-32(%rbp), %rdi
	movq	-24(%rbp), %rsi
	.loc	44 211 13
	callq	__ZN3std4sync6rwlock24RwLockReadGuard$LT$T$GT$3new17hf48954a3f2759acbE
	movq	-16(%rbp), %rax
	.loc	44 213 6
	addq	$32, %rsp
	popq	%rbp
	retq
Ltmp636:
Lfunc_end57:
	.cfi_endproc

	.globl	__ZN3std4sync6rwlock15RwLock$LT$T$GT$5write17h89dc8d5731216322E
	.p2align	4, 0x90
__ZN3std4sync6rwlock15RwLock$LT$T$GT$5write17h89dc8d5731216322E:
Lfunc_begin58:
	.loc	44 296 0
	.cfi_startproc
	pushq	%rbp
	.cfi_def_cfa_offset 16
	.cfi_offset %rbp, -16
	movq	%rsp, %rbp
	.cfi_def_cfa_register %rbp
	subq	$32, %rsp
	movq	%rsi, -24(%rbp)
	movq	%rdi, %rax
	movq	-24(%rbp), %rdi
	movq	%rax, -32(%rbp)
	movq	%rax, -16(%rbp)
	movq	%rdi, -8(%rbp)
Ltmp637:
	.loc	44 298 13 prologue_end
	callq	__ZN3std3sys4unix5locks14pthread_rwlock6RwLock5write17h5072faec0b314943E
	movq	-32(%rbp), %rdi
	movq	-24(%rbp), %rsi
	.loc	44 299 13
	callq	__ZN3std4sync6rwlock25RwLockWriteGuard$LT$T$GT$3new17h3b26223e0aa93ec7E
	movq	-16(%rbp), %rax
	.loc	44 301 6
	addq	$32, %rsp
	popq	%rbp
	retq
Ltmp638:
Lfunc_end58:
	.cfi_endproc

	.globl	__ZN3std4sync6rwlock24RwLockReadGuard$LT$T$GT$3new17hf48954a3f2759acbE
	.p2align	4, 0x90
__ZN3std4sync6rwlock24RwLockReadGuard$LT$T$GT$3new17hf48954a3f2759acbE:
Lfunc_begin59:
	.loc	44 523 0
	.cfi_startproc
	pushq	%rbp
	.cfi_def_cfa_offset 16
	.cfi_offset %rbp, -16
	movq	%rsp, %rbp
	.cfi_def_cfa_register %rbp
	subq	$48, %rsp
	movq	%rsi, -40(%rbp)
	movq	%rdi, %rax
	movq	-40(%rbp), %rdi
	movq	%rax, -32(%rbp)
	movq	%rax, -24(%rbp)
	movq	%rdi, -8(%rbp)
Ltmp639:
	.loc	44 524 28 prologue_end
	addq	$8, %rdi
	callq	__ZN3std4sync6poison4Flag6borrow17h97585afe7e25c3bbE
	movq	-40(%rbp), %rsi
	movq	-32(%rbp), %rdi
	.loc	44 524 50 is_stmt 0
	movq	%rsi, -16(%rbp)
	.loc	44 524 9
	movq	-16(%rbp), %rdx
	movzbl	%al, %esi
	andl	$1, %esi
	callq	__ZN3std4sync6poison10map_result17h3bda3d9c2942e20dE
	movq	-24(%rbp), %rax
	.loc	44 528 6 is_stmt 1
	addq	$48, %rsp
	popq	%rbp
	retq
Ltmp640:
Lfunc_end59:
	.cfi_endproc

	.globl	__ZN3std4sync6rwlock24RwLockReadGuard$LT$T$GT$3new28_$u7b$$u7b$closure$u7d$$u7d$17h731a1613fd1c4ae1E
	.p2align	4, 0x90
__ZN3std4sync6rwlock24RwLockReadGuard$LT$T$GT$3new28_$u7b$$u7b$closure$u7d$$u7d$17h731a1613fd1c4ae1E:
Lfunc_begin60:
	.loc	44 524 0
	.cfi_startproc
	pushq	%rbp
	.cfi_def_cfa_offset 16
	.cfi_offset %rbp, -16
	movq	%rsp, %rbp
	.cfi_def_cfa_register %rbp
	subq	$56, %rsp
	movq	%rdi, -56(%rbp)
Ltmp641:
	.loc	44 525 42 prologue_end
	movq	-56(%rbp), %rax
	addq	$16, %rax
	movq	%rax, -16(%rbp)
Ltmp642:
	.loc	39 1999 9
	movq	%rax, -8(%rbp)
Ltmp643:
	.loc	19 201 13
	movq	%rax, -32(%rbp)
Ltmp644:
	.loc	44 526 25
	movq	-56(%rbp), %rax
	.loc	44 524 55
	movq	-32(%rbp), %rcx
	movq	%rcx, -48(%rbp)
	movq	%rax, -40(%rbp)
	.loc	44 527 10
	movq	-48(%rbp), %rax
	movq	-40(%rbp), %rdx
	addq	$56, %rsp
	popq	%rbp
	retq
Ltmp645:
Lfunc_end60:
	.cfi_endproc

	.globl	__ZN3std4sync6rwlock25RwLockWriteGuard$LT$T$GT$3new17h3b26223e0aa93ec7E
	.p2align	4, 0x90
__ZN3std4sync6rwlock25RwLockWriteGuard$LT$T$GT$3new17h3b26223e0aa93ec7E:
Lfunc_begin61:
	.loc	44 535 0
	.cfi_startproc
	pushq	%rbp
	.cfi_def_cfa_offset 16
	.cfi_offset %rbp, -16
	movq	%rsp, %rbp
	.cfi_def_cfa_register %rbp
	subq	$48, %rsp
	movq	%rsi, -40(%rbp)
	movq	%rdi, %rax
	movq	-40(%rbp), %rdi
	movq	%rax, -32(%rbp)
	movq	%rax, -24(%rbp)
	movq	%rdi, -8(%rbp)
Ltmp646:
	.loc	44 536 28 prologue_end
	addq	$8, %rdi
	callq	__ZN3std4sync6poison4Flag5guard17h5cdfe08dd55205eeE
	movq	-40(%rbp), %rsi
	movq	-32(%rbp), %rdi
	.loc	44 536 49 is_stmt 0
	movq	%rsi, -16(%rbp)
	.loc	44 536 9
	movq	-16(%rbp), %rcx
	andb	$1, %al
	movzbl	%al, %esi
	movzbl	%dl, %edx
	callq	__ZN3std4sync6poison10map_result17hd97fb291d07c5cfeE
	movq	-24(%rbp), %rax
	.loc	44 537 6 is_stmt 1
	addq	$48, %rsp
	popq	%rbp
	retq
Ltmp647:
Lfunc_end61:
	.cfi_endproc

	.globl	__ZN3std4sync6rwlock25RwLockWriteGuard$LT$T$GT$3new28_$u7b$$u7b$closure$u7d$$u7d$17h228390104c48dc9aE
	.p2align	4, 0x90
__ZN3std4sync6rwlock25RwLockWriteGuard$LT$T$GT$3new28_$u7b$$u7b$closure$u7d$$u7d$17h228390104c48dc9aE:
Lfunc_begin62:
	.loc	44 536 0
	.cfi_startproc
	pushq	%rbp
	.cfi_def_cfa_offset 16
	.cfi_offset %rbp, -16
	movq	%rsp, %rbp
	.cfi_def_cfa_register %rbp
	subq	$32, %rsp
	movb	%sil, %al
	movq	%rdi, -32(%rbp)
	andb	$1, %al
	movb	%al, -1(%rbp)
Ltmp648:
	.loc	44 536 76 prologue_end
	movq	-32(%rbp), %rcx
	.loc	44 536 57 is_stmt 0
	movq	%rcx, -24(%rbp)
	movb	%al, -16(%rbp)
	.loc	44 536 97
	movq	-24(%rbp), %rax
	movb	-16(%rbp), %dl
	addq	$32, %rsp
	popq	%rbp
	retq
Ltmp649:
Lfunc_end62:
	.cfi_endproc

	.globl	__ZN3std5panic12catch_unwind17hf6d167de18d720a5E
	.p2align	4, 0x90
__ZN3std5panic12catch_unwind17hf6d167de18d720a5E:
Lfunc_begin63:
	.file	45 "/rustc/2c8cc343237b8f7d5a3c3703e3a87f2eb2c54a74/library/std/src" "panic.rs"
	.loc	45 139 0 is_stmt 1
	.cfi_startproc
	pushq	%rbp
	.cfi_def_cfa_offset 16
	.cfi_offset %rbp, -16
	movq	%rsp, %rbp
	.cfi_def_cfa_register %rbp
	subq	$16, %rsp
	movq	%rdi, -8(%rbp)
Ltmp650:
	.loc	45 140 14 prologue_end
	callq	__ZN3std9panicking3try17h8bc0bc63c91b0785E
	.loc	45 141 2
	addq	$16, %rsp
	popq	%rbp
	retq
Ltmp651:
Lfunc_end63:
	.cfi_endproc

	.globl	__ZN3std6thread5local17LocalKey$LT$T$GT$8try_with17h305aed58faa6197dE
	.p2align	4, 0x90
__ZN3std6thread5local17LocalKey$LT$T$GT$8try_with17h305aed58faa6197dE:
Lfunc_begin64:
	.loc	5 440 0
	.cfi_startproc
	.cfi_personality 155, _rust_eh_personality
	.cfi_lsda 16, Lexception13
	pushq	%rbp
	.cfi_def_cfa_offset 16
	.cfi_offset %rbp, -16
	movq	%rsp, %rbp
	.cfi_def_cfa_register %rbp
	subq	$208, %rsp
	movq	%rsi, -192(%rbp)
	movq	%rdi, -112(%rbp)
	movq	%rsi, -104(%rbp)
Ltmp657:
	.loc	5 445 17 prologue_end
	movb	$1, -113(%rbp)
	.loc	5 445 32 is_stmt 0
	movq	(%rdi), %rax
	.loc	5 445 45
	movq	$0, -136(%rbp)
	.loc	5 445 32
	movq	-136(%rbp), %rdi
Ltmp652:
	callq	*%rax
Ltmp653:
	movq	%rax, -184(%rbp)
	jmp	LBB64_3
LBB64_1:
	.loc	5 448 5 is_stmt 1
	testb	$1, -113(%rbp)
	jne	LBB64_15
	jmp	LBB64_14
LBB64_2:
Ltmp656:
	.loc	5 0 5 is_stmt 0
	movq	%rax, %rcx
	movl	%edx, %eax
	movq	%rcx, -48(%rbp)
	movl	%eax, -40(%rbp)
	jmp	LBB64_1
LBB64_3:
	movq	-184(%rbp), %rax
	.loc	5 445 32 is_stmt 1
	movq	%rax, -144(%rbp)
Ltmp658:
	.loc	35 1096 15
	movq	-144(%rbp), %rdx
	movl	$1, %eax
	xorl	%ecx, %ecx
	cmpq	$0, %rdx
	cmoveq	%rcx, %rax
	.loc	35 1096 9 is_stmt 0
	cmpq	$0, %rax
	jne	LBB64_5
	.loc	35 1098 21 is_stmt 1
	movq	$0, -152(%rbp)
	.loc	35 1098 28 is_stmt 0
	jmp	LBB64_6
LBB64_5:
	.loc	35 1097 18 is_stmt 1
	movq	-144(%rbp), %rax
	movq	%rax, -32(%rbp)
Ltmp659:
	.loc	35 1097 24 is_stmt 0
	movq	%rax, -152(%rbp)
Ltmp660:
LBB64_6:
	.loc	24 2091 15 is_stmt 1
	movq	-152(%rbp), %rdx
	xorl	%eax, %eax
	movl	$1, %ecx
	cmpq	$0, %rdx
	cmoveq	%rcx, %rax
	.loc	24 2091 9 is_stmt 0
	cmpq	$0, %rax
	jne	LBB64_8
	.loc	24 2092 16 is_stmt 1
	movq	-152(%rbp), %rax
	movq	%rax, -24(%rbp)
Ltmp661:
	.loc	24 2092 22 is_stmt 0
	movq	%rax, -160(%rbp)
Ltmp662:
	.loc	24 2092 45
	jmp	LBB64_9
LBB64_8:
Ltmp663:
	.loc	24 2093 23 is_stmt 1
	movq	$0, -160(%rbp)
Ltmp664:
LBB64_9:
	.loc	5 445 32
	movq	-160(%rbp), %rdx
	xorl	%eax, %eax
	movl	$1, %ecx
	cmpq	$0, %rdx
	cmoveq	%rcx, %rax
	cmpq	$0, %rax
	jne	LBB64_11
	.loc	5 0 32 is_stmt 0
	movq	-192(%rbp), %rdi
	.loc	5 445 32
	movq	-160(%rbp), %rax
	movq	%rax, -16(%rbp)
Ltmp665:
	.loc	5 445 32
	movq	%rax, -8(%rbp)
Ltmp666:
	.loc	5 446 16 is_stmt 1
	movb	$0, -113(%rbp)
	movq	%rax, -128(%rbp)
	movq	-128(%rbp), %rsi
Ltmp654:
	callq	__ZN12tracing_core10dispatcher11get_default28_$u7b$$u7b$closure$u7d$$u7d$17h7b0b39756667bfd5E
Ltmp655:
	movq	%rdx, -208(%rbp)
	movq	%rax, -200(%rbp)
	jmp	LBB64_13
Ltmp667:
LBB64_11:
	.loc	24 2107 23
	movq	$0, -176(%rbp)
Ltmp668:
LBB64_12:
	.loc	5 448 6
	movq	-176(%rbp), %rax
	movq	-168(%rbp), %rdx
	addq	$208, %rsp
	popq	%rbp
	retq
LBB64_13:
	.loc	5 0 6 is_stmt 0
	movq	-208(%rbp), %rax
	movq	-200(%rbp), %rcx
Ltmp669:
	.loc	5 446 13 is_stmt 1
	movq	%rcx, -176(%rbp)
	movq	%rax, -168(%rbp)
Ltmp670:
	.loc	5 448 5
	jmp	LBB64_12
LBB64_14:
	.loc	5 440 5
	movq	-48(%rbp), %rdi
	callq	__Unwind_Resume
LBB64_15:
	.loc	5 448 5
	jmp	LBB64_14
Ltmp671:
Lfunc_end64:
	.cfi_endproc
	.section	__TEXT,__gcc_except_tab
	.p2align	2
GCC_except_table64:
Lexception13:
	.byte	255
	.byte	255
	.byte	1
	.uleb128 Lcst_end13-Lcst_begin13
Lcst_begin13:
	.uleb128 Ltmp652-Lfunc_begin64
	.uleb128 Ltmp655-Ltmp652
	.uleb128 Ltmp656-Lfunc_begin64
	.byte	0
	.uleb128 Ltmp655-Lfunc_begin64
	.uleb128 Lfunc_end64-Ltmp655
	.byte	0
	.byte	0
Lcst_end13:
	.p2align	2

	.section	__TEXT,__text,regular,pure_instructions
	.globl	__ZN3std6thread5local17LocalKey$LT$T$GT$8try_with17h44911b58fa510d87E
	.p2align	4, 0x90
__ZN3std6thread5local17LocalKey$LT$T$GT$8try_with17h44911b58fa510d87E:
Lfunc_begin65:
	.loc	5 440 0
	.cfi_startproc
	.cfi_personality 155, _rust_eh_personality
	.cfi_lsda 16, Lexception14
	pushq	%rbp
	.cfi_def_cfa_offset 16
	.cfi_offset %rbp, -16
	movq	%rsp, %rbp
	.cfi_def_cfa_register %rbp
	subq	$192, %rsp
	movq	%rsi, -184(%rbp)
	movq	%rdi, -112(%rbp)
	movq	%rsi, -104(%rbp)
Ltmp677:
	.loc	5 445 17 prologue_end
	movb	$1, -113(%rbp)
	.loc	5 445 32 is_stmt 0
	movq	(%rdi), %rax
	.loc	5 445 45
	movq	$0, -136(%rbp)
	.loc	5 445 32
	movq	-136(%rbp), %rdi
Ltmp672:
	callq	*%rax
Ltmp673:
	movq	%rax, -176(%rbp)
	jmp	LBB65_3
LBB65_1:
	.loc	5 448 5 is_stmt 1
	testb	$1, -113(%rbp)
	jne	LBB65_15
	jmp	LBB65_14
LBB65_2:
Ltmp676:
	.loc	5 0 5 is_stmt 0
	movq	%rax, %rcx
	movl	%edx, %eax
	movq	%rcx, -48(%rbp)
	movl	%eax, -40(%rbp)
	jmp	LBB65_1
LBB65_3:
	movq	-176(%rbp), %rax
	.loc	5 445 32 is_stmt 1
	movq	%rax, -144(%rbp)
Ltmp678:
	.loc	35 1096 15
	movq	-144(%rbp), %rdx
	movl	$1, %eax
	xorl	%ecx, %ecx
	cmpq	$0, %rdx
	cmoveq	%rcx, %rax
	.loc	35 1096 9 is_stmt 0
	cmpq	$0, %rax
	jne	LBB65_5
	.loc	35 1098 21 is_stmt 1
	movq	$0, -152(%rbp)
	.loc	35 1098 28 is_stmt 0
	jmp	LBB65_6
LBB65_5:
	.loc	35 1097 18 is_stmt 1
	movq	-144(%rbp), %rax
	movq	%rax, -32(%rbp)
Ltmp679:
	.loc	35 1097 24 is_stmt 0
	movq	%rax, -152(%rbp)
Ltmp680:
LBB65_6:
	.loc	24 2091 15 is_stmt 1
	movq	-152(%rbp), %rdx
	xorl	%eax, %eax
	movl	$1, %ecx
	cmpq	$0, %rdx
	cmoveq	%rcx, %rax
	.loc	24 2091 9 is_stmt 0
	cmpq	$0, %rax
	jne	LBB65_8
	.loc	24 2092 16 is_stmt 1
	movq	-152(%rbp), %rax
	movq	%rax, -24(%rbp)
Ltmp681:
	.loc	24 2092 22 is_stmt 0
	movq	%rax, -160(%rbp)
Ltmp682:
	.loc	24 2092 45
	jmp	LBB65_9
LBB65_8:
Ltmp683:
	.loc	24 2093 23 is_stmt 1
	movq	$0, -160(%rbp)
Ltmp684:
LBB65_9:
	.loc	5 445 32
	movq	-160(%rbp), %rdx
	xorl	%eax, %eax
	movl	$1, %ecx
	cmpq	$0, %rdx
	cmoveq	%rcx, %rax
	cmpq	$0, %rax
	jne	LBB65_11
	.loc	5 0 32 is_stmt 0
	movq	-184(%rbp), %rdi
	.loc	5 445 32
	movq	-160(%rbp), %rax
	movq	%rax, -16(%rbp)
Ltmp685:
	.loc	5 445 32
	movq	%rax, -8(%rbp)
Ltmp686:
	.loc	5 446 16 is_stmt 1
	movb	$0, -113(%rbp)
	movq	%rax, -128(%rbp)
	movq	-128(%rbp), %rsi
Ltmp674:
	callq	__ZN12tracing_core10dispatcher11get_default28_$u7b$$u7b$closure$u7d$$u7d$17hfb57b9f31c0b34c0E
Ltmp675:
	jmp	LBB65_13
Ltmp687:
LBB65_11:
	.loc	24 2107 23
	movb	$1, -161(%rbp)
Ltmp688:
LBB65_12:
	.loc	5 448 6
	movb	-161(%rbp), %al
	andb	$1, %al
	movzbl	%al, %eax
	addq	$192, %rsp
	popq	%rbp
	retq
LBB65_13:
Ltmp689:
	.loc	5 446 13
	movb	$0, -161(%rbp)
Ltmp690:
	.loc	5 448 5
	jmp	LBB65_12
LBB65_14:
	.loc	5 440 5
	movq	-48(%rbp), %rdi
	callq	__Unwind_Resume
LBB65_15:
	.loc	5 448 5
	jmp	LBB65_14
Ltmp691:
Lfunc_end65:
	.cfi_endproc
	.section	__TEXT,__gcc_except_tab
	.p2align	2
GCC_except_table65:
Lexception14:
	.byte	255
	.byte	255
	.byte	1
	.uleb128 Lcst_end14-Lcst_begin14
Lcst_begin14:
	.uleb128 Ltmp672-Lfunc_begin65
	.uleb128 Ltmp675-Ltmp672
	.uleb128 Ltmp676-Lfunc_begin65
	.byte	0
	.uleb128 Ltmp675-Lfunc_begin65
	.uleb128 Lfunc_end65-Ltmp675
	.byte	0
	.byte	0
Lcst_end14:
	.p2align	2

	.section	__TEXT,__text,regular,pure_instructions
	.globl	__ZN3std6thread5local17LocalKey$LT$T$GT$8try_with17h8bb8616311f7323fE
	.p2align	4, 0x90
__ZN3std6thread5local17LocalKey$LT$T$GT$8try_with17h8bb8616311f7323fE:
Lfunc_begin66:
	.loc	5 440 0
	.cfi_startproc
	.cfi_personality 155, _rust_eh_personality
	.cfi_lsda 16, Lexception15
	pushq	%rbp
	.cfi_def_cfa_offset 16
	.cfi_offset %rbp, -16
	movq	%rsp, %rbp
	.cfi_def_cfa_register %rbp
	subq	$192, %rsp
	movq	%rsi, -184(%rbp)
	movq	%rdi, -112(%rbp)
	movq	%rsi, -104(%rbp)
Ltmp697:
	.loc	5 445 17 prologue_end
	movb	$1, -113(%rbp)
	.loc	5 445 32 is_stmt 0
	movq	(%rdi), %rax
	.loc	5 445 45
	movq	$0, -136(%rbp)
	.loc	5 445 32
	movq	-136(%rbp), %rdi
Ltmp692:
	callq	*%rax
Ltmp693:
	movq	%rax, -176(%rbp)
	jmp	LBB66_3
LBB66_1:
	.loc	5 448 5 is_stmt 1
	testb	$1, -113(%rbp)
	jne	LBB66_15
	jmp	LBB66_14
LBB66_2:
Ltmp696:
	.loc	5 0 5 is_stmt 0
	movq	%rax, %rcx
	movl	%edx, %eax
	movq	%rcx, -48(%rbp)
	movl	%eax, -40(%rbp)
	jmp	LBB66_1
LBB66_3:
	movq	-176(%rbp), %rax
	.loc	5 445 32 is_stmt 1
	movq	%rax, -144(%rbp)
Ltmp698:
	.loc	35 1096 15
	movq	-144(%rbp), %rdx
	movl	$1, %eax
	xorl	%ecx, %ecx
	cmpq	$0, %rdx
	cmoveq	%rcx, %rax
	.loc	35 1096 9 is_stmt 0
	cmpq	$0, %rax
	jne	LBB66_5
	.loc	35 1098 21 is_stmt 1
	movq	$0, -152(%rbp)
	.loc	35 1098 28 is_stmt 0
	jmp	LBB66_6
LBB66_5:
	.loc	35 1097 18 is_stmt 1
	movq	-144(%rbp), %rax
	movq	%rax, -32(%rbp)
Ltmp699:
	.loc	35 1097 24 is_stmt 0
	movq	%rax, -152(%rbp)
Ltmp700:
LBB66_6:
	.loc	24 2091 15 is_stmt 1
	movq	-152(%rbp), %rdx
	xorl	%eax, %eax
	movl	$1, %ecx
	cmpq	$0, %rdx
	cmoveq	%rcx, %rax
	.loc	24 2091 9 is_stmt 0
	cmpq	$0, %rax
	jne	LBB66_8
	.loc	24 2092 16 is_stmt 1
	movq	-152(%rbp), %rax
	movq	%rax, -24(%rbp)
Ltmp701:
	.loc	24 2092 22 is_stmt 0
	movq	%rax, -160(%rbp)
Ltmp702:
	.loc	24 2092 45
	jmp	LBB66_9
LBB66_8:
Ltmp703:
	.loc	24 2093 23 is_stmt 1
	movq	$0, -160(%rbp)
Ltmp704:
LBB66_9:
	.loc	5 445 32
	movq	-160(%rbp), %rdx
	xorl	%eax, %eax
	movl	$1, %ecx
	cmpq	$0, %rdx
	cmoveq	%rcx, %rax
	cmpq	$0, %rax
	jne	LBB66_11
	.loc	5 0 32 is_stmt 0
	movq	-184(%rbp), %rdi
	.loc	5 445 32
	movq	-160(%rbp), %rax
	movq	%rax, -16(%rbp)
Ltmp705:
	.loc	5 445 32
	movq	%rax, -8(%rbp)
Ltmp706:
	.loc	5 446 16 is_stmt 1
	movb	$0, -113(%rbp)
	movq	%rax, -128(%rbp)
	movq	-128(%rbp), %rsi
Ltmp694:
	callq	__ZN12tracing_core10dispatcher11get_default28_$u7b$$u7b$closure$u7d$$u7d$17h888455a9ea28f21dE
Ltmp695:
	jmp	LBB66_13
Ltmp707:
LBB66_11:
	.loc	24 2107 23
	movb	$1, -161(%rbp)
Ltmp708:
LBB66_12:
	.loc	5 448 6
	movb	-161(%rbp), %al
	andb	$1, %al
	movzbl	%al, %eax
	addq	$192, %rsp
	popq	%rbp
	retq
LBB66_13:
Ltmp709:
	.loc	5 446 13
	movb	$0, -161(%rbp)
Ltmp710:
	.loc	5 448 5
	jmp	LBB66_12
LBB66_14:
	.loc	5 440 5
	movq	-48(%rbp), %rdi
	callq	__Unwind_Resume
LBB66_15:
	.loc	5 448 5
	jmp	LBB66_14
Ltmp711:
Lfunc_end66:
	.cfi_endproc
	.section	__TEXT,__gcc_except_tab
	.p2align	2
GCC_except_table66:
Lexception15:
	.byte	255
	.byte	255
	.byte	1
	.uleb128 Lcst_end15-Lcst_begin15
Lcst_begin15:
	.uleb128 Ltmp692-Lfunc_begin66
	.uleb128 Ltmp695-Ltmp692
	.uleb128 Ltmp696-Lfunc_begin66
	.byte	0
	.uleb128 Ltmp695-Lfunc_begin66
	.uleb128 Lfunc_end66-Ltmp695
	.byte	0
	.byte	0
Lcst_end15:
	.p2align	2

	.section	__TEXT,__text,regular,pure_instructions
	.globl	__ZN3std6thread5local17LocalKey$LT$T$GT$8try_with17he5a93b44ce2a6921E
	.p2align	4, 0x90
__ZN3std6thread5local17LocalKey$LT$T$GT$8try_with17he5a93b44ce2a6921E:
Lfunc_begin67:
	.loc	5 440 0
	.cfi_startproc
	.cfi_personality 155, _rust_eh_personality
	.cfi_lsda 16, Lexception16
	pushq	%rbp
	.cfi_def_cfa_offset 16
	.cfi_offset %rbp, -16
	movq	%rsp, %rbp
	.cfi_def_cfa_register %rbp
	subq	$208, %rsp
	movq	%rdi, -192(%rbp)
	movq	%rdi, -184(%rbp)
	movq	%rdx, -168(%rbp)
	movq	%rcx, -160(%rbp)
	movq	%rsi, -104(%rbp)
Ltmp720:
	.loc	5 445 17 prologue_end
	movb	$1, -105(%rbp)
	.loc	5 445 32 is_stmt 0
	movq	(%rsi), %rax
	.loc	5 445 45
	movq	$0, -128(%rbp)
	.loc	5 445 32
	movq	-128(%rbp), %rdi
Ltmp712:
	callq	*%rax
Ltmp713:
	movq	%rax, -176(%rbp)
	jmp	LBB67_3
LBB67_1:
	.loc	5 448 5 is_stmt 1
	testb	$1, -105(%rbp)
	jne	LBB67_15
	jmp	LBB67_14
LBB67_2:
Ltmp716:
	.loc	5 0 5 is_stmt 0
	movq	%rax, %rcx
	movl	%edx, %eax
	movq	%rcx, -48(%rbp)
	movl	%eax, -40(%rbp)
	jmp	LBB67_1
LBB67_3:
	movq	-176(%rbp), %rax
	.loc	5 445 32 is_stmt 1
	movq	%rax, -136(%rbp)
Ltmp721:
	.loc	35 1096 15
	movq	-136(%rbp), %rdx
	movl	$1, %eax
	xorl	%ecx, %ecx
	cmpq	$0, %rdx
	cmoveq	%rcx, %rax
	.loc	35 1096 9 is_stmt 0
	cmpq	$0, %rax
	jne	LBB67_5
	.loc	35 1098 21 is_stmt 1
	movq	$0, -144(%rbp)
	.loc	35 1098 28 is_stmt 0
	jmp	LBB67_6
LBB67_5:
	.loc	35 1097 18 is_stmt 1
	movq	-136(%rbp), %rax
	movq	%rax, -32(%rbp)
Ltmp722:
	.loc	35 1097 24 is_stmt 0
	movq	%rax, -144(%rbp)
Ltmp723:
LBB67_6:
	.loc	24 2091 15 is_stmt 1
	movq	-144(%rbp), %rdx
	xorl	%eax, %eax
	movl	$1, %ecx
	cmpq	$0, %rdx
	cmoveq	%rcx, %rax
	.loc	24 2091 9 is_stmt 0
	cmpq	$0, %rax
	jne	LBB67_8
	.loc	24 2092 16 is_stmt 1
	movq	-144(%rbp), %rax
	movq	%rax, -24(%rbp)
Ltmp724:
	.loc	24 2092 22 is_stmt 0
	movq	%rax, -152(%rbp)
Ltmp725:
	.loc	24 2092 45
	jmp	LBB67_9
LBB67_8:
Ltmp726:
	.loc	24 2093 23 is_stmt 1
	movq	$0, -152(%rbp)
Ltmp727:
LBB67_9:
	.loc	5 445 32
	movq	-152(%rbp), %rdx
	xorl	%eax, %eax
	movl	$1, %ecx
	cmpq	$0, %rdx
	cmoveq	%rcx, %rax
	cmpq	$0, %rax
	jne	LBB67_11
	movq	-152(%rbp), %rax
	movq	%rax, -16(%rbp)
Ltmp728:
	.loc	5 445 32 is_stmt 0
	movq	%rax, -8(%rbp)
Ltmp729:
	.loc	5 446 16 is_stmt 1
	movb	$0, -105(%rbp)
	movq	-168(%rbp), %rdi
	movq	-160(%rbp), %rsi
	movq	%rax, -120(%rbp)
	movq	-120(%rbp), %rdx
Ltmp714:
	callq	__ZN12tracing_core10dispatcher5State11set_default28_$u7b$$u7b$closure$u7d$$u7d$17hf8babdec78580cddE
Ltmp715:
	movq	%rdx, -208(%rbp)
	movq	%rax, -200(%rbp)
	jmp	LBB67_13
Ltmp730:
LBB67_11:
	.loc	5 0 16 is_stmt 0
	movq	-192(%rbp), %rax
Ltmp731:
	.loc	24 2107 23 is_stmt 1
	movq	$1, (%rax)
Ltmp732:
	.loc	5 448 5
	leaq	-168(%rbp), %rdi
	callq	__ZN4core3ptr94drop_in_place$LT$tracing_core..dispatcher..State..set_default..$u7b$$u7b$closure$u7d$$u7d$$GT$17hb1c73b6ebccba818E
LBB67_12:
	.loc	5 0 5 is_stmt 0
	movq	-184(%rbp), %rax
	.loc	5 448 6
	addq	$208, %rsp
	popq	%rbp
	retq
LBB67_13:
	.loc	5 0 6
	movq	-192(%rbp), %rax
	movq	-208(%rbp), %rcx
	movq	-200(%rbp), %rdx
Ltmp733:
	.loc	5 446 13 is_stmt 1
	movq	%rdx, 8(%rax)
	movq	%rcx, 16(%rax)
	movq	$0, (%rax)
Ltmp734:
	.loc	5 448 5
	jmp	LBB67_12
LBB67_14:
	.loc	5 440 5
	movq	-48(%rbp), %rdi
	callq	__Unwind_Resume
LBB67_15:
Ltmp717:
	.loc	5 0 5 is_stmt 0
	leaq	-168(%rbp), %rdi
	.loc	5 448 5 is_stmt 1
	callq	__ZN4core3ptr94drop_in_place$LT$tracing_core..dispatcher..State..set_default..$u7b$$u7b$closure$u7d$$u7d$$GT$17hb1c73b6ebccba818E
Ltmp718:
	jmp	LBB67_14
LBB67_16:
Ltmp719:
	.loc	5 440 5
	callq	__ZN4core9panicking19panic_cannot_unwind17h1fbca7e1d7f56ae1E
Ltmp735:
Lfunc_end67:
	.cfi_endproc
	.section	__TEXT,__gcc_except_tab
	.p2align	2
GCC_except_table67:
Lexception16:
	.byte	255
	.byte	255
	.byte	1
	.uleb128 Lcst_end16-Lcst_begin16
Lcst_begin16:
	.uleb128 Ltmp712-Lfunc_begin67
	.uleb128 Ltmp715-Ltmp712
	.uleb128 Ltmp716-Lfunc_begin67
	.byte	0
	.uleb128 Ltmp715-Lfunc_begin67
	.uleb128 Ltmp717-Ltmp715
	.byte	0
	.byte	0
	.uleb128 Ltmp717-Lfunc_begin67
	.uleb128 Ltmp718-Ltmp717
	.uleb128 Ltmp719-Lfunc_begin67
	.byte	0
Lcst_end16:
	.p2align	2

	.section	__TEXT,__text,regular,pure_instructions
	.globl	__ZN3std6thread5local17LocalKey$LT$T$GT$8try_with17hf9a1d146d9d8815cE
	.p2align	4, 0x90
__ZN3std6thread5local17LocalKey$LT$T$GT$8try_with17hf9a1d146d9d8815cE:
Lfunc_begin68:
	.loc	5 440 0
	.cfi_startproc
	.cfi_personality 155, _rust_eh_personality
	.cfi_lsda 16, Lexception17
	pushq	%rbp
	.cfi_def_cfa_offset 16
	.cfi_offset %rbp, -16
	movq	%rsp, %rbp
	.cfi_def_cfa_register %rbp
	subq	$192, %rsp
	movq	%rsi, -184(%rbp)
	movq	%rdi, -112(%rbp)
	movq	%rsi, -104(%rbp)
Ltmp741:
	.loc	5 445 17 prologue_end
	movb	$1, -113(%rbp)
	.loc	5 445 32 is_stmt 0
	movq	(%rdi), %rax
	.loc	5 445 45
	movq	$0, -136(%rbp)
	.loc	5 445 32
	movq	-136(%rbp), %rdi
Ltmp736:
	callq	*%rax
Ltmp737:
	movq	%rax, -176(%rbp)
	jmp	LBB68_3
LBB68_1:
	.loc	5 448 5 is_stmt 1
	testb	$1, -113(%rbp)
	jne	LBB68_15
	jmp	LBB68_14
LBB68_2:
Ltmp740:
	.loc	5 0 5 is_stmt 0
	movq	%rax, %rcx
	movl	%edx, %eax
	movq	%rcx, -48(%rbp)
	movl	%eax, -40(%rbp)
	jmp	LBB68_1
LBB68_3:
	movq	-176(%rbp), %rax
	.loc	5 445 32 is_stmt 1
	movq	%rax, -144(%rbp)
Ltmp742:
	.loc	35 1096 15
	movq	-144(%rbp), %rdx
	movl	$1, %eax
	xorl	%ecx, %ecx
	cmpq	$0, %rdx
	cmoveq	%rcx, %rax
	.loc	35 1096 9 is_stmt 0
	cmpq	$0, %rax
	jne	LBB68_5
	.loc	35 1098 21 is_stmt 1
	movq	$0, -152(%rbp)
	.loc	35 1098 28 is_stmt 0
	jmp	LBB68_6
LBB68_5:
	.loc	35 1097 18 is_stmt 1
	movq	-144(%rbp), %rax
	movq	%rax, -32(%rbp)
Ltmp743:
	.loc	35 1097 24 is_stmt 0
	movq	%rax, -152(%rbp)
Ltmp744:
LBB68_6:
	.loc	24 2091 15 is_stmt 1
	movq	-152(%rbp), %rdx
	xorl	%eax, %eax
	movl	$1, %ecx
	cmpq	$0, %rdx
	cmoveq	%rcx, %rax
	.loc	24 2091 9 is_stmt 0
	cmpq	$0, %rax
	jne	LBB68_8
	.loc	24 2092 16 is_stmt 1
	movq	-152(%rbp), %rax
	movq	%rax, -24(%rbp)
Ltmp745:
	.loc	24 2092 22 is_stmt 0
	movq	%rax, -160(%rbp)
Ltmp746:
	.loc	24 2092 45
	jmp	LBB68_9
LBB68_8:
Ltmp747:
	.loc	24 2093 23 is_stmt 1
	movq	$0, -160(%rbp)
Ltmp748:
LBB68_9:
	.loc	5 445 32
	movq	-160(%rbp), %rdx
	xorl	%eax, %eax
	movl	$1, %ecx
	cmpq	$0, %rdx
	cmoveq	%rcx, %rax
	cmpq	$0, %rax
	jne	LBB68_11
	.loc	5 0 32 is_stmt 0
	movq	-184(%rbp), %rdi
	.loc	5 445 32
	movq	-160(%rbp), %rax
	movq	%rax, -16(%rbp)
Ltmp749:
	.loc	5 445 32
	movq	%rax, -8(%rbp)
Ltmp750:
	.loc	5 446 16 is_stmt 1
	movb	$0, -113(%rbp)
	movq	%rax, -128(%rbp)
	movq	-128(%rbp), %rsi
Ltmp738:
	callq	__ZN12tracing_core10dispatcher11get_default28_$u7b$$u7b$closure$u7d$$u7d$17h490fe8d56e24c1cfE
Ltmp739:
	jmp	LBB68_13
Ltmp751:
LBB68_11:
	.loc	24 2107 23
	movb	$1, -161(%rbp)
Ltmp752:
LBB68_12:
	.loc	5 448 6
	movb	-161(%rbp), %al
	andb	$1, %al
	movzbl	%al, %eax
	addq	$192, %rsp
	popq	%rbp
	retq
LBB68_13:
Ltmp753:
	.loc	5 446 13
	movb	$0, -161(%rbp)
Ltmp754:
	.loc	5 448 5
	jmp	LBB68_12
LBB68_14:
	.loc	5 440 5
	movq	-48(%rbp), %rdi
	callq	__Unwind_Resume
LBB68_15:
	.loc	5 448 5
	jmp	LBB68_14
Ltmp755:
Lfunc_end68:
	.cfi_endproc
	.section	__TEXT,__gcc_except_tab
	.p2align	2
GCC_except_table68:
Lexception17:
	.byte	255
	.byte	255
	.byte	1
	.uleb128 Lcst_end17-Lcst_begin17
Lcst_begin17:
	.uleb128 Ltmp736-Lfunc_begin68
	.uleb128 Ltmp739-Ltmp736
	.uleb128 Ltmp740-Lfunc_begin68
	.byte	0
	.uleb128 Ltmp739-Lfunc_begin68
	.uleb128 Lfunc_end68-Ltmp739
	.byte	0
	.byte	0
Lcst_end17:
	.p2align	2

	.section	__TEXT,__text,regular,pure_instructions
	.globl	__ZN3std6thread5local4fast12Key$LT$T$GT$14try_initialize17h1b8590cbf2c83ec7E
	.p2align	4, 0x90
__ZN3std6thread5local4fast12Key$LT$T$GT$14try_initialize17h1b8590cbf2c83ec7E:
Lfunc_begin69:
	.loc	5 983 0
	.cfi_startproc
	.cfi_personality 155, _rust_eh_personality
	.cfi_lsda 16, Lexception18
	pushq	%rbp
	.cfi_def_cfa_offset 16
	.cfi_offset %rbp, -16
	movq	%rsp, %rbp
	.cfi_def_cfa_register %rbp
	subq	$96, %rsp
	movq	%rdi, -80(%rbp)
	movq	%rsi, -72(%rbp)
	movq	%rdi, -40(%rbp)
	movq	%rsi, -32(%rbp)
Ltmp761:
	.loc	5 985 16 prologue_end
	movb	$1, -41(%rbp)
Ltmp762:
	.file	46 "/rustc/2c8cc343237b8f7d5a3c3703e3a87f2eb2c54a74/library/core/src/mem" "mod.rs"
	.loc	46 594 5
	movb	$1, -17(%rbp)
	movb	-17(%rbp), %al
	movb	%al, -57(%rbp)
Ltmp763:
	.loc	46 0 5 is_stmt 0
	movb	-57(%rbp), %al
	.loc	5 985 16 is_stmt 1
	xorb	$-1, %al
	testb	$1, %al
	jne	LBB69_3
Ltmp756:
	.loc	5 0 16 is_stmt 0
	movq	-80(%rbp), %rdi
	.loc	5 985 52
	callq	__ZN3std6thread5local4fast12Key$LT$T$GT$17try_register_dtor17hc769a6eda5c35475E
Ltmp757:
	movb	%al, -81(%rbp)
	jmp	LBB69_7
LBB69_3:
	.loc	5 985 16
	movb	$1, -42(%rbp)
LBB69_4:
	testb	$1, -42(%rbp)
	jne	LBB69_9
	jmp	LBB69_8
LBB69_5:
	.loc	5 991 9 is_stmt 1
	testb	$1, -41(%rbp)
	jne	LBB69_12
	jmp	LBB69_11
LBB69_6:
Ltmp760:
	.loc	5 0 9 is_stmt 0
	movq	%rax, %rcx
	movl	%edx, %eax
	movq	%rcx, -16(%rbp)
	movl	%eax, -8(%rbp)
	jmp	LBB69_5
LBB69_7:
	movb	-81(%rbp), %al
	.loc	5 985 16 is_stmt 1
	andb	$1, %al
	movb	%al, -42(%rbp)
	jmp	LBB69_4
LBB69_8:
	.loc	5 989 17
	movq	$0, -56(%rbp)
	.loc	5 985 13
	jmp	LBB69_13
LBB69_9:
	.loc	5 0 13 is_stmt 0
	movq	-72(%rbp), %rsi
	movq	-80(%rbp), %rdi
	.loc	5 987 53 is_stmt 1
	movb	$0, -41(%rbp)
Ltmp758:
	.loc	5 987 31 is_stmt 0
	callq	__ZN3std6thread5local4lazy21LazyKeyInner$LT$T$GT$10initialize17ha80bbad1fa30a48aE
Ltmp759:
	movq	%rax, -96(%rbp)
	jmp	LBB69_10
LBB69_10:
	.loc	5 0 31
	movq	-96(%rbp), %rax
	.loc	5 987 17
	movq	%rax, -56(%rbp)
	.loc	5 985 13 is_stmt 1
	jmp	LBB69_13
LBB69_11:
	.loc	5 983 9
	movq	-16(%rbp), %rdi
	callq	__Unwind_Resume
LBB69_12:
	.loc	5 991 9
	jmp	LBB69_11
LBB69_13:
	testb	$1, -41(%rbp)
	jne	LBB69_15
LBB69_14:
	.loc	5 991 10 is_stmt 0
	movq	-56(%rbp), %rax
	addq	$96, %rsp
	popq	%rbp
	retq
LBB69_15:
	.loc	5 991 9
	jmp	LBB69_14
Ltmp764:
Lfunc_end69:
	.cfi_endproc
	.section	__TEXT,__gcc_except_tab
	.p2align	2
GCC_except_table69:
Lexception18:
	.byte	255
	.byte	255
	.byte	1
	.uleb128 Lcst_end18-Lcst_begin18
Lcst_begin18:
	.uleb128 Ltmp756-Lfunc_begin69
	.uleb128 Ltmp759-Ltmp756
	.uleb128 Ltmp760-Lfunc_begin69
	.byte	0
	.uleb128 Ltmp759-Lfunc_begin69
	.uleb128 Lfunc_end69-Ltmp759
	.byte	0
	.byte	0
Lcst_end18:
	.p2align	2

	.section	__TEXT,__text,regular,pure_instructions
	.globl	__ZN3std6thread5local4fast12Key$LT$T$GT$17try_register_dtor17hc769a6eda5c35475E
	.p2align	4, 0x90
__ZN3std6thread5local4fast12Key$LT$T$GT$17try_register_dtor17hc769a6eda5c35475E:
Lfunc_begin70:
	.loc	5 996 0 is_stmt 1
	.cfi_startproc
	pushq	%rbp
	.cfi_def_cfa_offset 16
	.cfi_offset %rbp, -16
	movq	%rsp, %rbp
	.cfi_def_cfa_register %rbp
	subq	$64, %rsp
	movq	%rdi, -64(%rbp)
	movq	%rdi, -40(%rbp)
Ltmp765:
	.loc	5 997 19 prologue_end
	movq	%rdi, %rax
	addq	$40, %rax
	movq	%rax, -32(%rbp)
Ltmp766:
	.loc	39 452 19
	movq	%rax, -24(%rbp)
	.loc	39 452 18 is_stmt 0
	movb	40(%rdi), %al
	movb	%al, -41(%rbp)
Ltmp767:
	.loc	5 997 19 is_stmt 1
	movzbl	-41(%rbp), %eax
	movq	%rax, -56(%rbp)
	testq	%rax, %rax
	.loc	5 997 13 is_stmt 0
	je	LBB70_2
	jmp	LBB70_6
LBB70_6:
	.loc	5 0 13
	movq	-56(%rbp), %rax
	.loc	5 997 13
	subq	$1, %rax
	je	LBB70_3
	jmp	LBB70_7
LBB70_7:
	jmp	LBB70_4
	.loc	5 997 19
	ud2
LBB70_2:
	.loc	5 0 19
	movq	-64(%rbp), %rdi
	.loc	5 1004 30 is_stmt 1
	leaq	__ZN3std6thread5local4fast13destroy_value17h04c52f538a2ab50bE(%rip), %rsi
	callq	__ZN3std3sys4unix17thread_local_dtor13register_dtor17hd1117fc09d525c5dE
	movq	-64(%rbp), %rdi
	.loc	5 1005 21
	addq	$40, %rdi
	movq	%rdi, -16(%rbp)
Ltmp768:
	.loc	39 363 19
	movl	$1, %esi
	callq	__ZN4core4cell13Cell$LT$T$GT$7replace17hf34aa3b74e205d21E
	movb	%al, -1(%rbp)
Ltmp769:
	.loc	5 1006 21
	movb	$1, -42(%rbp)
	jmp	LBB70_5
LBB70_3:
	.loc	5 1010 21
	movb	$1, -42(%rbp)
	jmp	LBB70_5
LBB70_4:
	.loc	5 1012 47
	movb	$0, -42(%rbp)
LBB70_5:
	.loc	5 1014 10
	movb	-42(%rbp), %al
	andb	$1, %al
	movzbl	%al, %eax
	addq	$64, %rsp
	popq	%rbp
	retq
Ltmp770:
Lfunc_end70:
	.cfi_endproc

	.globl	__ZN3std6thread5local4fast12Key$LT$T$GT$3get17h180fc9cb32c5b4c4E
	.p2align	4, 0x90
__ZN3std6thread5local4fast12Key$LT$T$GT$3get17h180fc9cb32c5b4c4E:
Lfunc_begin71:
	.loc	5 959 0
	.cfi_startproc
	.cfi_personality 155, _rust_eh_personality
	.cfi_lsda 16, Lexception19
	pushq	%rbp
	.cfi_def_cfa_offset 16
	.cfi_offset %rbp, -16
	movq	%rsp, %rbp
	.cfi_def_cfa_register %rbp
	subq	$96, %rsp
	movq	%rdi, -88(%rbp)
	movq	%rsi, -80(%rbp)
	movq	%rdi, -40(%rbp)
	movq	%rsi, -32(%rbp)
Ltmp776:
	.loc	5 968 23 prologue_end
	movb	$1, -41(%rbp)
Ltmp771:
	callq	__ZN3std6thread5local4lazy21LazyKeyInner$LT$T$GT$3get17h96d3b5a9a116fba3E
Ltmp772:
	movq	%rax, -72(%rbp)
	jmp	LBB71_3
LBB71_1:
	.loc	5 973 9
	testb	$1, -41(%rbp)
	jne	LBB71_9
	jmp	LBB71_8
LBB71_2:
Ltmp775:
	.loc	5 0 9 is_stmt 0
	movq	%rax, %rcx
	movl	%edx, %eax
	movq	%rcx, -24(%rbp)
	movl	%eax, -16(%rbp)
	jmp	LBB71_1
LBB71_3:
	movq	-72(%rbp), %rax
	.loc	5 968 23 is_stmt 1
	movq	%rax, -56(%rbp)
	movq	-56(%rbp), %rdx
	movl	$1, %eax
	xorl	%ecx, %ecx
	cmpq	$0, %rdx
	cmoveq	%rcx, %rax
	.loc	5 968 17 is_stmt 0
	cmpq	$0, %rax
	jne	LBB71_5
	.loc	5 0 17
	movq	-80(%rbp), %rsi
	movq	-88(%rbp), %rdi
	.loc	5 970 49 is_stmt 1
	movb	$0, -41(%rbp)
Ltmp773:
	.loc	5 970 29 is_stmt 0
	callq	__ZN3std6thread5local4fast12Key$LT$T$GT$14try_initialize17h1b8590cbf2c83ec7E
Ltmp774:
	movq	%rax, -96(%rbp)
	jmp	LBB71_7
LBB71_5:
	.loc	5 969 26 is_stmt 1
	movq	-56(%rbp), %rax
	movq	%rax, -8(%rbp)
Ltmp777:
	.loc	5 969 34 is_stmt 0
	movq	%rax, -64(%rbp)
Ltmp778:
LBB71_6:
	.loc	5 973 9 is_stmt 1
	testb	$1, -41(%rbp)
	jne	LBB71_11
	jmp	LBB71_10
LBB71_7:
	.loc	5 0 9 is_stmt 0
	movq	-96(%rbp), %rax
	.loc	5 970 29 is_stmt 1
	movq	%rax, -64(%rbp)
	.loc	5 970 53 is_stmt 0
	jmp	LBB71_6
LBB71_8:
	.loc	5 959 9 is_stmt 1
	movq	-24(%rbp), %rdi
	callq	__Unwind_Resume
LBB71_9:
	.loc	5 973 9
	jmp	LBB71_8
LBB71_10:
	.loc	5 973 10 is_stmt 0
	movq	-64(%rbp), %rax
	addq	$96, %rsp
	popq	%rbp
	retq
LBB71_11:
	.loc	5 973 9
	jmp	LBB71_10
Ltmp779:
Lfunc_end71:
	.cfi_endproc
	.section	__TEXT,__gcc_except_tab
	.p2align	2
GCC_except_table71:
Lexception19:
	.byte	255
	.byte	255
	.byte	1
	.uleb128 Lcst_end19-Lcst_begin19
Lcst_begin19:
	.uleb128 Ltmp771-Lfunc_begin71
	.uleb128 Ltmp774-Ltmp771
	.uleb128 Ltmp775-Lfunc_begin71
	.byte	0
	.uleb128 Ltmp774-Lfunc_begin71
	.uleb128 Lfunc_end71-Ltmp774
	.byte	0
	.byte	0
Lcst_end19:
	.p2align	2

	.section	__TEXT,__text,regular,pure_instructions
	.globl	__ZN3std6thread5local4fast13destroy_value17h04c52f538a2ab50bE
	.p2align	4, 0x90
__ZN3std6thread5local4fast13destroy_value17h04c52f538a2ab50bE:
Lfunc_begin72:
	.loc	5 1017 0 is_stmt 1
	.cfi_startproc
	.cfi_personality 155, _rust_eh_personality
	.cfi_lsda 16, Lexception20
	pushq	%rbp
	.cfi_def_cfa_offset 16
	.cfi_offset %rbp, -16
	movq	%rsp, %rbp
	.cfi_def_cfa_register %rbp
	subq	$304, %rsp
	movq	%rdi, -64(%rbp)
Ltmp797:
	.loc	5 1018 19 prologue_end
	movq	%rdi, -256(%rbp)
	leaq	-256(%rbp), %rax
Ltmp798:
	.loc	5 1033 69
	movq	%rax, -224(%rbp)
	.loc	5 1033 45 is_stmt 0
	movq	-224(%rbp), %rax
	movq	%rax, -232(%rbp)
	.loc	5 1033 25
	movq	-232(%rbp), %rdi
Ltmp780:
	callq	__ZN3std5panic12catch_unwind17hf6d167de18d720a5E
Ltmp781:
	movq	%rdx, -272(%rbp)
	movq	%rax, -264(%rbp)
	jmp	LBB72_3
Ltmp799:
LBB72_1:
	.loc	5 1017 5 is_stmt 1
	callq	__ZN4core9panicking19panic_cannot_unwind17h1fbca7e1d7f56ae1E
LBB72_2:
Ltmp796:
	.loc	5 0 5 is_stmt 0
	movq	%rax, %rcx
	movl	%edx, %eax
	movq	%rcx, -56(%rbp)
	movl	%eax, -48(%rbp)
	jmp	LBB72_1
LBB72_3:
	movq	-272(%rbp), %rax
	movq	-264(%rbp), %rcx
Ltmp800:
	.loc	5 1033 25 is_stmt 1
	movq	%rcx, -248(%rbp)
	movq	%rax, -240(%rbp)
	.loc	5 1033 16 is_stmt 0
	movq	-248(%rbp), %rdx
	movl	$1, %eax
	xorl	%ecx, %ecx
	cmpq	$0, %rdx
	cmoveq	%rcx, %rax
	cmpq	$1, %rax
	jne	LBB72_5
Ltmp784:
Ltmp801:
	.loc	5 1038 13 is_stmt 1
	callq	__ZN3std3sys4unix5stdio12panic_output17hbdb9d595bb134988E
Ltmp785:
	movb	%al, -273(%rbp)
	jmp	LBB72_7
Ltmp802:
LBB72_5:
Ltmp782:
	.loc	5 0 13 is_stmt 0
	leaq	-248(%rbp), %rdi
	.loc	5 1040 5 is_stmt 1
	callq	__ZN4core3ptr130drop_in_place$LT$core..result..Result$LT$$LP$$RP$$C$alloc..boxed..Box$LT$dyn$u20$core..any..Any$u2b$core..marker..Send$GT$$GT$$GT$17h9ccad753545fb84dE
Ltmp783:
	jmp	LBB72_6
LBB72_6:
	.loc	5 1040 6 is_stmt 0
	addq	$304, %rsp
	popq	%rbp
	retq
LBB72_7:
	.loc	5 0 6
	movb	-273(%rbp), %al
Ltmp803:
	.loc	5 1038 13 is_stmt 1
	andb	$1, %al
	movb	%al, -209(%rbp)
	movb	-209(%rbp), %al
	andb	$1, %al
	movzbl	%al, %eax
	cmpq	$1, %rax
	jne	LBB72_9
Ltmp786:
	leaq	l___unnamed_67(%rip), %rsi
	leaq	l___unnamed_58(%rip), %rcx
	xorl	%eax, %eax
	movl	%eax, %r8d
	leaq	-112(%rbp), %rdi
	movl	$1, %edx
	callq	__ZN4core3fmt9Arguments6new_v117h8322a8977516b340E
Ltmp787:
	jmp	LBB72_10
Ltmp804:
LBB72_9:
Ltmp794:
	.loc	5 1038 13 is_stmt 0
	callq	__ZN3std3sys4unix14abort_internal17h2d537589b8bbc756E
Ltmp795:
	jmp	LBB72_16
LBB72_10:
Ltmp805:
	.loc	5 1038 13
	leaq	-112(%rbp), %rax
	movq	%rax, -40(%rbp)
Ltmp806:
	.loc	37 328 23 is_stmt 1
	leaq	-112(%rbp), %rax
	movq	%rax, -32(%rbp)
	.loc	37 328 26 is_stmt 0
	movq	__ZN59_$LT$core..fmt..Arguments$u20$as$u20$core..fmt..Display$GT$3fmt17h99a13c0e04235e08E@GOTPCREL(%rip), %rax
	movq	%rax, -24(%rbp)
Ltmp807:
	.loc	37 347 42 is_stmt 1
	movq	__ZN59_$LT$core..fmt..Arguments$u20$as$u20$core..fmt..Display$GT$3fmt17h99a13c0e04235e08E@GOTPCREL(%rip), %rax
	movq	%rax, -16(%rbp)
	movq	-16(%rbp), %rax
	movq	%rax, -288(%rbp)
	.loc	37 347 68 is_stmt 0
	leaq	-112(%rbp), %rax
	movq	%rax, -8(%rbp)
	movq	-8(%rbp), %rax
	movq	%rax, -296(%rbp)
	.loc	37 0 68
	movq	-288(%rbp), %rax
	movq	-296(%rbp), %rcx
	.loc	37 347 18
	movq	%rcx, -128(%rbp)
	movq	%rax, -120(%rbp)
Ltmp808:
	.loc	5 1038 13 is_stmt 1
	movq	-128(%rbp), %rcx
	movq	-120(%rbp), %rax
	movq	%rcx, -144(%rbp)
	movq	%rax, -136(%rbp)
Ltmp788:
	leaq	l___unnamed_68(%rip), %rsi
	leaq	-192(%rbp), %rdi
	movl	$2, %edx
	leaq	-144(%rbp), %rcx
	movl	$1, %r8d
	callq	__ZN4core3fmt9Arguments6new_v117h8322a8977516b340E
Ltmp789:
	jmp	LBB72_13
LBB72_13:
Ltmp790:
	.loc	5 0 13 is_stmt 0
	leaq	-208(%rbp), %rdi
	leaq	-192(%rbp), %rsi
	.loc	5 1038 13
	callq	__ZN3std2io5Write9write_fmt17hf39abdf606b5eddaE
Ltmp791:
	movq	%rax, -304(%rbp)
	jmp	LBB72_14
LBB72_14:
	.loc	5 0 13
	movq	-304(%rbp), %rax
	.loc	5 1038 13
	movq	%rax, -200(%rbp)
Ltmp792:
	leaq	-200(%rbp), %rdi
	callq	__ZN4core3ptr81drop_in_place$LT$core..result..Result$LT$$LP$$RP$$C$std..io..error..Error$GT$$GT$17had7c5e7c80f7367aE
Ltmp793:
	jmp	LBB72_15
Ltmp809:
LBB72_15:
	.loc	5 1038 13
	jmp	LBB72_9
Ltmp810:
LBB72_16:
	.loc	5 0 13
	ud2
Lfunc_end72:
	.cfi_endproc
	.file	47 "/rustc/2c8cc343237b8f7d5a3c3703e3a87f2eb2c54a74/library/std/src" "rt.rs"
	.section	__TEXT,__gcc_except_tab
	.p2align	2
GCC_except_table72:
Lexception20:
	.byte	255
	.byte	255
	.byte	1
	.uleb128 Lcst_end20-Lcst_begin20
Lcst_begin20:
	.uleb128 Ltmp780-Lfunc_begin72
	.uleb128 Ltmp793-Ltmp780
	.uleb128 Ltmp796-Lfunc_begin72
	.byte	0
Lcst_end20:
	.p2align	2

	.section	__TEXT,__text,regular,pure_instructions
	.globl	__ZN3std6thread5local4fast13destroy_value28_$u7b$$u7b$closure$u7d$$u7d$17ha05d8fb7f7f6fc87E
	.p2align	4, 0x90
__ZN3std6thread5local4fast13destroy_value28_$u7b$$u7b$closure$u7d$$u7d$17ha05d8fb7f7f6fc87E:
Lfunc_begin73:
	.loc	5 1033 0 is_stmt 1
	.cfi_startproc
	.cfi_personality 155, _rust_eh_personality
	.cfi_lsda 16, Lexception21
	pushq	%rbp
	.cfi_def_cfa_offset 16
	.cfi_offset %rbp, -16
	movq	%rsp, %rbp
	.cfi_def_cfa_register %rbp
	subq	$144, %rsp
	movq	%rdi, -144(%rbp)
	movq	%rdi, -40(%rbp)
Ltmp819:
	.loc	5 1034 25 prologue_end
	movq	(%rdi), %rax
	movq	(%rax), %rsi
	movb	$1, -41(%rbp)
	leaq	-128(%rbp), %rdi
	callq	__ZN3std6thread5local4lazy21LazyKeyInner$LT$T$GT$4take17h999d62be5723d140E
	movq	-144(%rbp), %rdi
Ltmp820:
	.loc	5 1035 13
	movq	(%rdi), %rax
	movq	(%rax), %rdi
	addq	$40, %rdi
	movq	%rdi, -32(%rbp)
Ltmp811:
	movl	$2, %esi
Ltmp821:
	.loc	39 363 19
	callq	__ZN4core4cell13Cell$LT$T$GT$7replace17hf34aa3b74e205d21E
Ltmp812:
	movb	%al, -129(%rbp)
	jmp	LBB73_3
Ltmp822:
LBB73_1:
	.loc	5 1037 9
	testb	$1, -41(%rbp)
	jne	LBB73_6
	jmp	LBB73_5
LBB73_2:
Ltmp815:
	.loc	5 0 9 is_stmt 0
	movq	%rax, %rcx
	movl	%edx, %eax
	movq	%rcx, -24(%rbp)
	movl	%eax, -16(%rbp)
	jmp	LBB73_1
LBB73_3:
	movb	-129(%rbp), %al
Ltmp823:
	.loc	39 363 19 is_stmt 1
	movb	%al, -1(%rbp)
Ltmp824:
	.loc	5 1036 18
	movb	$0, -41(%rbp)
	movq	-96(%rbp), %rax
	movq	%rax, -56(%rbp)
	movq	-104(%rbp), %rax
	movq	%rax, -64(%rbp)
	movq	-112(%rbp), %rax
	movq	%rax, -72(%rbp)
	movq	-128(%rbp), %rax
	movq	-120(%rbp), %rcx
	movq	%rcx, -80(%rbp)
	movq	%rax, -88(%rbp)
Ltmp813:
	leaq	-88(%rbp), %rdi
Ltmp825:
	.loc	46 980 24
	callq	__ZN4core3ptr80drop_in_place$LT$core..option..Option$LT$tracing_core..dispatcher..State$GT$$GT$17h76a908b4061444f1E
Ltmp814:
	jmp	LBB73_4
Ltmp826:
LBB73_4:
	.loc	5 1037 10
	addq	$144, %rsp
	popq	%rbp
	retq
LBB73_5:
	.loc	5 1033 69
	movq	-24(%rbp), %rdi
	callq	__Unwind_Resume
LBB73_6:
Ltmp816:
	.loc	5 0 69 is_stmt 0
	leaq	-128(%rbp), %rdi
	.loc	5 1037 9 is_stmt 1
	callq	__ZN4core3ptr80drop_in_place$LT$core..option..Option$LT$tracing_core..dispatcher..State$GT$$GT$17h76a908b4061444f1E
Ltmp817:
	jmp	LBB73_5
LBB73_7:
Ltmp818:
	.loc	5 1033 69
	callq	__ZN4core9panicking19panic_cannot_unwind17h1fbca7e1d7f56ae1E
Ltmp827:
Lfunc_end73:
	.cfi_endproc
	.section	__TEXT,__gcc_except_tab
	.p2align	2
GCC_except_table73:
Lexception21:
	.byte	255
	.byte	255
	.byte	1
	.uleb128 Lcst_end21-Lcst_begin21
Lcst_begin21:
	.uleb128 Lfunc_begin73-Lfunc_begin73
	.uleb128 Ltmp811-Lfunc_begin73
	.byte	0
	.byte	0
	.uleb128 Ltmp811-Lfunc_begin73
	.uleb128 Ltmp814-Ltmp811
	.uleb128 Ltmp815-Lfunc_begin73
	.byte	0
	.uleb128 Ltmp814-Lfunc_begin73
	.uleb128 Ltmp816-Ltmp814
	.byte	0
	.byte	0
	.uleb128 Ltmp816-Lfunc_begin73
	.uleb128 Ltmp817-Ltmp816
	.uleb128 Ltmp818-Lfunc_begin73
	.byte	0
Lcst_end21:
	.p2align	2

	.section	__TEXT,__text,regular,pure_instructions
	.globl	__ZN3std6thread5local4lazy21LazyKeyInner$LT$T$GT$10initialize17ha80bbad1fa30a48aE
	.p2align	4, 0x90
__ZN3std6thread5local4lazy21LazyKeyInner$LT$T$GT$10initialize17ha80bbad1fa30a48aE:
Lfunc_begin74:
	.loc	5 807 0
	.cfi_startproc
	.cfi_personality 155, _rust_eh_personality
	.cfi_lsda 16, Lexception22
	pushq	%rbp
	.cfi_def_cfa_offset 16
	.cfi_offset %rbp, -16
	movq	%rsp, %rbp
	.cfi_def_cfa_register %rbp
	subq	$208, %rsp
	movq	%rdi, -208(%rbp)
	movq	%rdi, -56(%rbp)
	movq	%rsi, -48(%rbp)
	leaq	-200(%rbp), %rdi
Ltmp838:
	.loc	5 810 25 prologue_end
	callq	__ZN12tracing_core10dispatcher13CURRENT_STATE7__getit28_$u7b$$u7b$closure$u7d$$u7d$17ha164c072fe4bdcaaE
	movq	-208(%rbp), %rsi
Ltmp839:
	.loc	5 811 23
	movq	%rsi, -40(%rbp)
Ltmp840:
	.loc	39 1999 9
	movq	%rsi, -32(%rbp)
Ltmp841:
	.loc	5 831 54
	movq	-176(%rbp), %rax
	movq	%rax, -64(%rbp)
	movq	-184(%rbp), %rax
	movq	%rax, -72(%rbp)
	movq	-200(%rbp), %rax
	movq	-192(%rbp), %rcx
	movq	%rcx, -80(%rbp)
	movq	%rax, -88(%rbp)
	.loc	5 831 49 is_stmt 0
	movq	-64(%rbp), %rax
	movq	%rax, -96(%rbp)
	movq	-72(%rbp), %rax
	movq	%rax, -104(%rbp)
	movq	-88(%rbp), %rax
	movq	-80(%rbp), %rcx
	movq	%rcx, -112(%rbp)
	movq	%rax, -120(%rbp)
	movq	$1, -128(%rbp)
Ltmp828:
	leaq	-168(%rbp), %rdi
	leaq	-128(%rbp), %rdx
	.loc	5 831 25
	callq	__ZN4core3mem7replace17h2f5779dcba26abe7E
Ltmp829:
	jmp	LBB74_3
Ltmp842:
LBB74_1:
	.loc	5 848 9 is_stmt 1
	xorl	%eax, %eax
	testb	$1, %al
	jne	LBB74_9
	jmp	LBB74_8
LBB74_2:
Ltmp834:
	.loc	5 0 9 is_stmt 0
	movq	%rax, %rcx
	movl	%edx, %eax
	movq	%rcx, -24(%rbp)
	movl	%eax, -16(%rbp)
	jmp	LBB74_1
LBB74_3:
Ltmp830:
	leaq	-168(%rbp), %rdi
Ltmp843:
	.loc	5 831 61 is_stmt 1
	callq	__ZN4core3ptr80drop_in_place$LT$core..option..Option$LT$tracing_core..dispatcher..State$GT$$GT$17h76a908b4061444f1E
Ltmp831:
	jmp	LBB74_4
LBB74_4:
	.loc	5 0 61 is_stmt 0
	movq	-208(%rbp), %rax
	.loc	5 843 17 is_stmt 1
	cmpq	$0, (%rax)
	jne	LBB74_6
Ltmp832:
	.loc	5 845 29
	callq	__ZN4core4hint21unreachable_unchecked17he6e7984c505ec4b7E
Ltmp833:
	jmp	LBB74_7
LBB74_6:
	.loc	5 0 29 is_stmt 0
	movq	-208(%rbp), %rax
	.loc	5 844 26 is_stmt 1
	addq	$8, %rax
	movq	%rax, -8(%rbp)
Ltmp844:
	.loc	5 848 10
	addq	$208, %rsp
	popq	%rbp
	retq
LBB74_7:
	.loc	5 0 10 is_stmt 0
	ud2
LBB74_8:
	.loc	5 807 9 is_stmt 1
	movq	-24(%rbp), %rdi
	callq	__Unwind_Resume
LBB74_9:
Ltmp835:
	.loc	5 0 9 is_stmt 0
	leaq	-200(%rbp), %rdi
	.loc	5 848 9 is_stmt 1
	callq	__ZN4core3ptr52drop_in_place$LT$tracing_core..dispatcher..State$GT$17h86a8fbb5d712c41fE
Ltmp836:
	jmp	LBB74_8
LBB74_10:
Ltmp837:
	.loc	5 807 9
	callq	__ZN4core9panicking19panic_cannot_unwind17h1fbca7e1d7f56ae1E
Ltmp845:
Lfunc_end74:
	.cfi_endproc
	.section	__TEXT,__gcc_except_tab
	.p2align	2
GCC_except_table74:
Lexception22:
	.byte	255
	.byte	255
	.byte	1
	.uleb128 Lcst_end22-Lcst_begin22
Lcst_begin22:
	.uleb128 Lfunc_begin74-Lfunc_begin74
	.uleb128 Ltmp828-Lfunc_begin74
	.byte	0
	.byte	0
	.uleb128 Ltmp828-Lfunc_begin74
	.uleb128 Ltmp833-Ltmp828
	.uleb128 Ltmp834-Lfunc_begin74
	.byte	0
	.uleb128 Ltmp833-Lfunc_begin74
	.uleb128 Ltmp835-Ltmp833
	.byte	0
	.byte	0
	.uleb128 Ltmp835-Lfunc_begin74
	.uleb128 Ltmp836-Ltmp835
	.uleb128 Ltmp837-Lfunc_begin74
	.byte	0
Lcst_end22:
	.p2align	2

	.section	__TEXT,__text,regular,pure_instructions
	.globl	__ZN3std6thread5local4lazy21LazyKeyInner$LT$T$GT$3get17h96d3b5a9a116fba3E
	.p2align	4, 0x90
__ZN3std6thread5local4lazy21LazyKeyInner$LT$T$GT$3get17h96d3b5a9a116fba3E:
Lfunc_begin75:
	.loc	5 797 0
	.cfi_startproc
	pushq	%rbp
	.cfi_def_cfa_offset 16
	.cfi_offset %rbp, -16
	movq	%rsp, %rbp
	.cfi_def_cfa_register %rbp
	subq	$48, %rsp
	movq	%rdi, -48(%rbp)
	movq	%rdi, -32(%rbp)
Ltmp846:
	.loc	5 802 24 prologue_end
	movq	%rdi, -24(%rbp)
	.loc	5 802 22 is_stmt 0
	movq	%rdi, -16(%rbp)
Ltmp847:
	.loc	35 675 9 is_stmt 1
	cmpq	$0, (%rdi)
	jne	LBB75_2
	.loc	35 677 21
	movq	$0, -40(%rbp)
	jmp	LBB75_3
LBB75_2:
	.loc	35 0 21 is_stmt 0
	movq	-48(%rbp), %rax
	.loc	35 676 18 is_stmt 1
	addq	$8, %rax
	movq	%rax, -8(%rbp)
Ltmp848:
	.loc	35 676 28 is_stmt 0
	movq	%rax, -40(%rbp)
Ltmp849:
LBB75_3:
	.loc	5 803 10 is_stmt 1
	movq	-40(%rbp), %rax
	addq	$48, %rsp
	popq	%rbp
	retq
Ltmp850:
Lfunc_end75:
	.cfi_endproc

	.globl	__ZN3std6thread5local4lazy21LazyKeyInner$LT$T$GT$4take17h999d62be5723d140E
	.p2align	4, 0x90
__ZN3std6thread5local4lazy21LazyKeyInner$LT$T$GT$4take17h999d62be5723d140E:
Lfunc_begin76:
	.loc	5 854 0
	.cfi_startproc
	pushq	%rbp
	.cfi_def_cfa_offset 16
	.cfi_offset %rbp, -16
	movq	%rsp, %rbp
	.cfi_def_cfa_register %rbp
	subq	$80, %rsp
	movq	%rdi, %rax
	movq	%rax, -72(%rbp)
	movq	%rsi, -24(%rbp)
Ltmp851:
	.loc	5 856 24 prologue_end
	movq	%rsi, -16(%rbp)
	.loc	5 856 22 is_stmt 0
	movq	%rsi, -8(%rbp)
Ltmp852:
	.loc	35 1623 28 is_stmt 1
	movq	$0, -64(%rbp)
	.loc	35 1623 9 is_stmt 0
	leaq	-64(%rbp), %rdx
	callq	__ZN4core3mem7replace17h2f5779dcba26abe7E
	movq	-72(%rbp), %rax
Ltmp853:
	.loc	5 857 10 is_stmt 1
	addq	$80, %rsp
	popq	%rbp
	retq
Ltmp854:
Lfunc_end76:
	.cfi_endproc

	.p2align	4, 0x90
__ZN3std9panicking11panic_count13count_is_zero17h2b12c4a707c1b32cE:
Lfunc_begin77:
	.loc	42 373 0
	.cfi_startproc
	pushq	%rbp
	.cfi_def_cfa_offset 16
	.cfi_offset %rbp, -16
	movq	%rsp, %rbp
	.cfi_def_cfa_register %rbp
	subq	$32, %rsp
Ltmp855:
	.loc	42 374 12 prologue_end
	movq	__ZN3std9panicking11panic_count18GLOBAL_PANIC_COUNT17h1102251c8b7d0f7aE@GOTPCREL(%rip), %rax
	movq	%rax, -16(%rbp)
Ltmp856:
	.loc	28 2127 38
	movq	__ZN3std9panicking11panic_count18GLOBAL_PANIC_COUNT17h1102251c8b7d0f7aE@GOTPCREL(%rip), %rax
	movq	%rax, -8(%rbp)
	.loc	28 2127 26 is_stmt 0
	movq	__ZN3std9panicking11panic_count18GLOBAL_PANIC_COUNT17h1102251c8b7d0f7aE@GOTPCREL(%rip), %rdi
	xorl	%esi, %esi
	callq	__ZN4core4sync6atomic11atomic_load17h1e612231b2a7bccbE
Ltmp857:
	.loc	42 374 12 is_stmt 1
	movabsq	$9223372036854775807, %rcx
	andq	%rcx, %rax
	cmpq	$0, %rax
	jne	LBB77_2
	.loc	42 384 13
	movb	$1, -17(%rbp)
	.loc	42 374 9
	jmp	LBB77_3
LBB77_2:
	.loc	42 386 13
	callq	__ZN3std9panicking11panic_count17is_zero_slow_path17h0db2c725088c07e2E
	andb	$1, %al
	movb	%al, -17(%rbp)
LBB77_3:
	.loc	42 388 6
	movb	-17(%rbp), %al
	andb	$1, %al
	movzbl	%al, %eax
	addq	$32, %rsp
	popq	%rbp
	retq
Ltmp858:
Lfunc_end77:
	.cfi_endproc

	.globl	__ZN3std9panicking3try17h8bc0bc63c91b0785E
	.p2align	4, 0x90
__ZN3std9panicking3try17h8bc0bc63c91b0785E:
Lfunc_begin78:
	.loc	42 403 0
	.cfi_startproc
	pushq	%rbp
	.cfi_def_cfa_offset 16
	.cfi_offset %rbp, -16
	movq	%rsp, %rbp
	.cfi_def_cfa_register %rbp
	subq	$96, %rsp
	movq	%rdi, -56(%rbp)
Ltmp859:
	.loc	42 434 48 prologue_end
	movq	%rdi, -40(%rbp)
Ltmp860:
	.file	48 "/rustc/2c8cc343237b8f7d5a3c3703e3a87f2eb2c54a74/library/core/src/mem" "manually_drop.rs"
	.loc	48 71 9
	movq	%rdi, -64(%rbp)
Ltmp861:
	.loc	42 434 20
	movq	-64(%rbp), %rax
	movq	%rax, -80(%rbp)
Ltmp862:
	.loc	42 436 20
	leaq	-80(%rbp), %rax
	movq	%rax, -32(%rbp)
Ltmp863:
	.loc	42 447 19
	leaq	__ZN3std9panicking3try7do_call17ha1054a6975268357E(%rip), %rdi
	leaq	-80(%rbp), %rsi
	leaq	__ZN3std9panicking3try8do_catch17h28fc8506ff7175dbE(%rip), %rdx
	callq	___rust_try
	movl	%eax, -20(%rbp)
	cmpl	$0, -20(%rbp)
	jne	LBB78_2
	.loc	42 448 13
	movq	$0, -96(%rbp)
	.loc	42 447 16
	jmp	LBB78_3
LBB78_2:
	.loc	42 450 42
	movq	-80(%rbp), %rcx
	movq	-72(%rbp), %rax
	movq	%rcx, -16(%rbp)
	movq	%rax, -8(%rbp)
	.loc	42 450 13 is_stmt 0
	movq	%rcx, -96(%rbp)
	movq	%rax, -88(%rbp)
Ltmp864:
LBB78_3:
	.loc	42 512 2 is_stmt 1
	movq	-96(%rbp), %rax
	movq	-88(%rbp), %rdx
	addq	$96, %rsp
	popq	%rbp
	retq
Ltmp865:
Lfunc_end78:
	.cfi_endproc

	.globl	__ZN3std9panicking3try7do_call17ha1054a6975268357E
	.p2align	4, 0x90
__ZN3std9panicking3try7do_call17ha1054a6975268357E:
Lfunc_begin79:
	.loc	42 477 0
	.cfi_startproc
	pushq	%rbp
	.cfi_def_cfa_offset 16
	.cfi_offset %rbp, -16
	movq	%rsp, %rbp
	.cfi_def_cfa_register %rbp
	subq	$96, %rsp
	movq	%rdi, -80(%rbp)
Ltmp866:
	.loc	42 480 24 prologue_end
	movq	%rdi, -64(%rbp)
Ltmp867:
	.loc	42 481 24
	movq	%rdi, -56(%rbp)
Ltmp868:
	.loc	42 482 40
	movq	%rdi, -48(%rbp)
Ltmp869:
	.loc	48 113 28
	movq	%rdi, -40(%rbp)
Ltmp870:
	.loc	11 1157 34
	leaq	-88(%rbp), %rax
	movq	%rax, -32(%rbp)
	.loc	11 1157 9 is_stmt 0
	movq	(%rdi), %rax
	movq	%rax, -88(%rbp)
	.loc	11 1158 9 is_stmt 1
	movq	-88(%rbp), %rdi
	movq	%rdi, -24(%rbp)
Ltmp871:
	.file	49 "/rustc/2c8cc343237b8f7d5a3c3703e3a87f2eb2c54a74/library/core/src/mem" "maybe_uninit.rs"
	.loc	49 627 38
	movq	%rdi, -16(%rbp)
Ltmp872:
	.loc	48 89 9
	movq	%rdi, -8(%rbp)
Ltmp873:
	.loc	42 483 40
	callq	__ZN115_$LT$core..panic..unwind_safe..AssertUnwindSafe$LT$F$GT$$u20$as$u20$core..ops..function..FnOnce$LT$$LP$$RP$$GT$$GT$9call_once17h9648a80cb8edfff5E
Ltmp874:
	.loc	42 485 6
	addq	$96, %rsp
	popq	%rbp
	retq
Ltmp875:
Lfunc_end79:
	.cfi_endproc

	.globl	__ZN3std9panicking3try8do_catch17h28fc8506ff7175dbE
	.p2align	4, 0x90
__ZN3std9panicking3try8do_catch17h28fc8506ff7175dbE:
Lfunc_begin80:
	.loc	42 499 0
	.cfi_startproc
	pushq	%rbp
	.cfi_def_cfa_offset 16
	.cfi_offset %rbp, -16
	movq	%rsp, %rbp
	.cfi_def_cfa_register %rbp
	subq	$96, %rsp
	movq	%rsi, -96(%rbp)
	movq	%rdi, %rax
	movq	-96(%rbp), %rdi
	movq	%rax, -88(%rbp)
	movq	%rax, -64(%rbp)
	movq	%rdi, -56(%rbp)
Ltmp876:
	.loc	42 506 24 prologue_end
	movq	%rax, -48(%rbp)
Ltmp877:
	.loc	42 507 24
	movq	%rax, -40(%rbp)
Ltmp878:
	.loc	42 508 23
	callq	__ZN3std9panicking3try7cleanup17h75e8c286968d572cE
	movq	-88(%rbp), %rdi
	movq	%rax, -32(%rbp)
	movq	%rdx, -24(%rbp)
Ltmp879:
	.loc	42 509 40
	movq	%rax, -16(%rbp)
	movq	%rdx, -8(%rbp)
Ltmp880:
	.loc	48 71 9
	movq	%rax, -80(%rbp)
	movq	%rdx, -72(%rbp)
Ltmp881:
	.loc	42 509 13
	movq	-80(%rbp), %rcx
	movq	-72(%rbp), %rax
	movq	%rcx, (%rdi)
	movq	%rax, 8(%rdi)
Ltmp882:
	.loc	42 511 6
	addq	$96, %rsp
	popq	%rbp
	retq
Ltmp883:
Lfunc_end80:
	.cfi_endproc

	.p2align	4, 0x90
__ZN41_$LT$bool$u20$as$u20$core..fmt..Debug$GT$3fmt17h810331bcdcf86576E:
Lfunc_begin81:
	.loc	37 2406 0
	.cfi_startproc
	pushq	%rbp
	.cfi_def_cfa_offset 16
	.cfi_offset %rbp, -16
	movq	%rsp, %rbp
	.cfi_def_cfa_register %rbp
	subq	$16, %rsp
	movq	%rdi, -16(%rbp)
	movq	%rsi, -8(%rbp)
Ltmp884:
	.loc	37 2407 9 prologue_end
	callq	__ZN43_$LT$bool$u20$as$u20$core..fmt..Display$GT$3fmt17hcd777b7f8f92eb67E
	.loc	37 2408 6
	andb	$1, %al
	movzbl	%al, %eax
	addq	$16, %rsp
	popq	%rbp
	retq
Ltmp885:
Lfunc_end81:
	.cfi_endproc

	.globl	__ZN42_$LT$$RF$T$u20$as$u20$core..fmt..Debug$GT$3fmt17h09f2ae5d61e7b708E
	.p2align	4, 0x90
__ZN42_$LT$$RF$T$u20$as$u20$core..fmt..Debug$GT$3fmt17h09f2ae5d61e7b708E:
Lfunc_begin82:
	.loc	37 2377 0
	.cfi_startproc
	pushq	%rbp
	.cfi_def_cfa_offset 16
	.cfi_offset %rbp, -16
	movq	%rsp, %rbp
	.cfi_def_cfa_register %rbp
	subq	$16, %rsp
	movq	%rdi, -16(%rbp)
	movq	%rsi, -8(%rbp)
Ltmp886:
	.loc	37 2377 71 prologue_end
	movq	(%rdi), %rdi
	.loc	37 2377 62 is_stmt 0
	callq	__ZN69_$LT$tracing_core..metadata..Metadata$u20$as$u20$core..fmt..Debug$GT$3fmt17hb5e62d9afbb4e249E
	.loc	37 2377 84
	andb	$1, %al
	movzbl	%al, %eax
	addq	$16, %rsp
	popq	%rbp
	retq
Ltmp887:
Lfunc_end82:
	.cfi_endproc

	.globl	__ZN42_$LT$$RF$T$u20$as$u20$core..fmt..Debug$GT$3fmt17h0dfa889325910a72E
	.p2align	4, 0x90
__ZN42_$LT$$RF$T$u20$as$u20$core..fmt..Debug$GT$3fmt17h0dfa889325910a72E:
Lfunc_begin83:
	.loc	37 2377 0 is_stmt 1
	.cfi_startproc
	pushq	%rbp
	.cfi_def_cfa_offset 16
	.cfi_offset %rbp, -16
	movq	%rsp, %rbp
	.cfi_def_cfa_register %rbp
	subq	$16, %rsp
	movq	%rdi, -16(%rbp)
	movq	%rsi, -8(%rbp)
Ltmp888:
	.loc	37 2377 71 prologue_end
	movq	(%rdi), %rdi
	.loc	37 2377 62 is_stmt 0
	callq	__ZN4core3fmt3num49_$LT$impl$u20$core..fmt..Debug$u20$for$u20$u8$GT$3fmt17hb75601e8ebeb2f87E
	.loc	37 2377 84
	andb	$1, %al
	movzbl	%al, %eax
	addq	$16, %rsp
	popq	%rbp
	retq
Ltmp889:
Lfunc_end83:
	.cfi_endproc

	.globl	__ZN42_$LT$$RF$T$u20$as$u20$core..fmt..Debug$GT$3fmt17h198cb6bc1c2bcc3eE
	.p2align	4, 0x90
__ZN42_$LT$$RF$T$u20$as$u20$core..fmt..Debug$GT$3fmt17h198cb6bc1c2bcc3eE:
Lfunc_begin84:
	.loc	37 2377 0 is_stmt 1
	.cfi_startproc
	pushq	%rbp
	.cfi_def_cfa_offset 16
	.cfi_offset %rbp, -16
	movq	%rsp, %rbp
	.cfi_def_cfa_register %rbp
	subq	$16, %rsp
	movq	%rsi, %rdx
	movq	%rdi, %rax
	movq	%rax, -16(%rbp)
	movq	%rdx, -8(%rbp)
Ltmp890:
	.loc	37 2377 71 prologue_end
	movq	(%rax), %rdi
	movq	8(%rax), %rsi
	.loc	37 2377 62 is_stmt 0
	callq	__ZN48_$LT$$u5b$T$u5d$$u20$as$u20$core..fmt..Debug$GT$3fmt17hc716dbb73908eaeeE
	.loc	37 2377 84
	andb	$1, %al
	movzbl	%al, %eax
	addq	$16, %rsp
	popq	%rbp
	retq
Ltmp891:
Lfunc_end84:
	.cfi_endproc

	.globl	__ZN42_$LT$$RF$T$u20$as$u20$core..fmt..Debug$GT$3fmt17h1ab67f3004cbca84E
	.p2align	4, 0x90
__ZN42_$LT$$RF$T$u20$as$u20$core..fmt..Debug$GT$3fmt17h1ab67f3004cbca84E:
Lfunc_begin85:
	.loc	37 2377 0 is_stmt 1
	.cfi_startproc
	pushq	%rbp
	.cfi_def_cfa_offset 16
	.cfi_offset %rbp, -16
	movq	%rsp, %rbp
	.cfi_def_cfa_register %rbp
	subq	$16, %rsp
	movq	%rdi, -16(%rbp)
	movq	%rsi, -8(%rbp)
Ltmp892:
	.loc	37 2377 71 prologue_end
	movq	(%rdi), %rdi
	.loc	37 2377 62 is_stmt 0
	callq	__ZN75_$LT$core..sync..atomic..AtomicPtr$LT$T$GT$$u20$as$u20$core..fmt..Debug$GT$3fmt17h69f17af189de1242E
	.loc	37 2377 84
	andb	$1, %al
	movzbl	%al, %eax
	addq	$16, %rsp
	popq	%rbp
	retq
Ltmp893:
Lfunc_end85:
	.cfi_endproc

	.globl	__ZN42_$LT$$RF$T$u20$as$u20$core..fmt..Debug$GT$3fmt17h352ca525f4ebe2b3E
	.p2align	4, 0x90
__ZN42_$LT$$RF$T$u20$as$u20$core..fmt..Debug$GT$3fmt17h352ca525f4ebe2b3E:
Lfunc_begin86:
	.loc	37 2377 0 is_stmt 1
	.cfi_startproc
	pushq	%rbp
	.cfi_def_cfa_offset 16
	.cfi_offset %rbp, -16
	movq	%rsp, %rbp
	.cfi_def_cfa_register %rbp
	subq	$16, %rsp
	movq	%rdi, -16(%rbp)
	movq	%rsi, -8(%rbp)
Ltmp894:
	.loc	37 2377 71 prologue_end
	movq	(%rdi), %rdi
	.loc	37 2377 62 is_stmt 0
	callq	__ZN71_$LT$tracing_core..dispatcher..Dispatch$u20$as$u20$core..fmt..Debug$GT$3fmt17hdac258f6135abb32E
	.loc	37 2377 84
	andb	$1, %al
	movzbl	%al, %eax
	addq	$16, %rsp
	popq	%rbp
	retq
Ltmp895:
Lfunc_end86:
	.cfi_endproc

	.globl	__ZN42_$LT$$RF$T$u20$as$u20$core..fmt..Debug$GT$3fmt17h42e1e1128c5cda6fE
	.p2align	4, 0x90
__ZN42_$LT$$RF$T$u20$as$u20$core..fmt..Debug$GT$3fmt17h42e1e1128c5cda6fE:
Lfunc_begin87:
	.loc	37 2377 0 is_stmt 1
	.cfi_startproc
	pushq	%rbp
	.cfi_def_cfa_offset 16
	.cfi_offset %rbp, -16
	movq	%rsp, %rbp
	.cfi_def_cfa_register %rbp
	subq	$16, %rsp
	movq	%rdi, -16(%rbp)
	movq	%rsi, -8(%rbp)
Ltmp896:
	.loc	37 2377 71 prologue_end
	movq	(%rdi), %rdi
	.loc	37 2377 62 is_stmt 0
	callq	__ZN66_$LT$tracing_core..field..FieldSet$u20$as$u20$core..fmt..Debug$GT$3fmt17hcbabdedaede07855E
	.loc	37 2377 84
	andb	$1, %al
	movzbl	%al, %eax
	addq	$16, %rsp
	popq	%rbp
	retq
Ltmp897:
Lfunc_end87:
	.cfi_endproc

	.globl	__ZN42_$LT$$RF$T$u20$as$u20$core..fmt..Debug$GT$3fmt17h4a677e24330bbf60E
	.p2align	4, 0x90
__ZN42_$LT$$RF$T$u20$as$u20$core..fmt..Debug$GT$3fmt17h4a677e24330bbf60E:
Lfunc_begin88:
	.loc	37 2377 0 is_stmt 1
	.cfi_startproc
	pushq	%rbp
	.cfi_def_cfa_offset 16
	.cfi_offset %rbp, -16
	movq	%rsp, %rbp
	.cfi_def_cfa_register %rbp
	subq	$16, %rsp
	movq	%rdi, -16(%rbp)
	movq	%rsi, -8(%rbp)
Ltmp898:
	.loc	37 2377 71 prologue_end
	movq	(%rdi), %rdi
	.loc	37 2377 62 is_stmt 0
	callq	__ZN42_$LT$$RF$T$u20$as$u20$core..fmt..Debug$GT$3fmt17h09f2ae5d61e7b708E
	.loc	37 2377 84
	andb	$1, %al
	movzbl	%al, %eax
	addq	$16, %rsp
	popq	%rbp
	retq
Ltmp899:
Lfunc_end88:
	.cfi_endproc

	.globl	__ZN42_$LT$$RF$T$u20$as$u20$core..fmt..Debug$GT$3fmt17h4aaeb741766b7ed9E
	.p2align	4, 0x90
__ZN42_$LT$$RF$T$u20$as$u20$core..fmt..Debug$GT$3fmt17h4aaeb741766b7ed9E:
Lfunc_begin89:
	.loc	37 2377 0 is_stmt 1
	.cfi_startproc
	pushq	%rbp
	.cfi_def_cfa_offset 16
	.cfi_offset %rbp, -16
	movq	%rsp, %rbp
	.cfi_def_cfa_register %rbp
	subq	$16, %rsp
	movq	%rdi, -16(%rbp)
	movq	%rsi, -8(%rbp)
Ltmp900:
	.loc	37 2377 71 prologue_end
	movq	(%rdi), %rdi
	.loc	37 2377 62 is_stmt 0
	callq	__ZN4core3fmt3num50_$LT$impl$u20$core..fmt..Debug$u20$for$u20$i32$GT$3fmt17hc507f77c4521a3b0E
	.loc	37 2377 84
	andb	$1, %al
	movzbl	%al, %eax
	addq	$16, %rsp
	popq	%rbp
	retq
Ltmp901:
Lfunc_end89:
	.cfi_endproc

	.globl	__ZN42_$LT$$RF$T$u20$as$u20$core..fmt..Debug$GT$3fmt17h5973d53af1269b55E
	.p2align	4, 0x90
__ZN42_$LT$$RF$T$u20$as$u20$core..fmt..Debug$GT$3fmt17h5973d53af1269b55E:
Lfunc_begin90:
	.loc	37 2377 0 is_stmt 1
	.cfi_startproc
	pushq	%rbp
	.cfi_def_cfa_offset 16
	.cfi_offset %rbp, -16
	movq	%rsp, %rbp
	.cfi_def_cfa_register %rbp
	subq	$16, %rsp
	movq	%rdi, -16(%rbp)
	movq	%rsi, -8(%rbp)
Ltmp902:
	.loc	37 2377 71 prologue_end
	movq	(%rdi), %rdi
	.loc	37 2377 62 is_stmt 0
	callq	__ZN59_$LT$tracing_core..span..Id$u20$as$u20$core..fmt..Debug$GT$3fmt17h55d0ee95e5d4cfbfE
	.loc	37 2377 84
	andb	$1, %al
	movzbl	%al, %eax
	addq	$16, %rsp
	popq	%rbp
	retq
Ltmp903:
Lfunc_end90:
	.cfi_endproc

	.globl	__ZN42_$LT$$RF$T$u20$as$u20$core..fmt..Debug$GT$3fmt17h5bbbcc981d915d76E
	.p2align	4, 0x90
__ZN42_$LT$$RF$T$u20$as$u20$core..fmt..Debug$GT$3fmt17h5bbbcc981d915d76E:
Lfunc_begin91:
	.loc	37 2377 0 is_stmt 1
	.cfi_startproc
	pushq	%rbp
	.cfi_def_cfa_offset 16
	.cfi_offset %rbp, -16
	movq	%rsp, %rbp
	.cfi_def_cfa_register %rbp
	subq	$16, %rsp
	movq	%rdi, -16(%rbp)
	movq	%rsi, -8(%rbp)
Ltmp904:
	.loc	37 2377 71 prologue_end
	movq	(%rdi), %rdi
	.loc	37 2377 62 is_stmt 0
	callq	__ZN71_$LT$tracing_core..metadata..LevelInner$u20$as$u20$core..fmt..Debug$GT$3fmt17h5c5f55fae20a4a95E
	.loc	37 2377 84
	andb	$1, %al
	movzbl	%al, %eax
	addq	$16, %rsp
	popq	%rbp
	retq
Ltmp905:
Lfunc_end91:
	.cfi_endproc

	.globl	__ZN42_$LT$$RF$T$u20$as$u20$core..fmt..Debug$GT$3fmt17h7048f5043bec3bfeE
	.p2align	4, 0x90
__ZN42_$LT$$RF$T$u20$as$u20$core..fmt..Debug$GT$3fmt17h7048f5043bec3bfeE:
Lfunc_begin92:
	.loc	37 2377 0 is_stmt 1
	.cfi_startproc
	pushq	%rbp
	.cfi_def_cfa_offset 16
	.cfi_offset %rbp, -16
	movq	%rsp, %rbp
	.cfi_def_cfa_register %rbp
	subq	$16, %rsp
	movq	%rdi, -16(%rbp)
	movq	%rsi, -8(%rbp)
Ltmp906:
	.loc	37 2377 71 prologue_end
	movq	(%rdi), %rdi
	.loc	37 2377 62 is_stmt 0
	callq	__ZN65_$LT$core..sync..atomic..AtomicU8$u20$as$u20$core..fmt..Debug$GT$3fmt17hcdb58499c076bdd1E
	.loc	37 2377 84
	andb	$1, %al
	movzbl	%al, %eax
	addq	$16, %rsp
	popq	%rbp
	retq
Ltmp907:
Lfunc_end92:
	.cfi_endproc

	.globl	__ZN42_$LT$$RF$T$u20$as$u20$core..fmt..Debug$GT$3fmt17h7e618a1e6cf8d374E
	.p2align	4, 0x90
__ZN42_$LT$$RF$T$u20$as$u20$core..fmt..Debug$GT$3fmt17h7e618a1e6cf8d374E:
Lfunc_begin93:
	.loc	37 2377 0 is_stmt 1
	.cfi_startproc
	pushq	%rbp
	.cfi_def_cfa_offset 16
	.cfi_offset %rbp, -16
	movq	%rsp, %rbp
	.cfi_def_cfa_register %rbp
	subq	$16, %rsp
	movq	%rdi, -16(%rbp)
	movq	%rsi, -8(%rbp)
Ltmp908:
	.loc	37 2377 71 prologue_end
	movq	(%rdi), %rdi
	.loc	37 2377 62 is_stmt 0
	callq	__ZN45_$LT$$LP$$RP$$u20$as$u20$core..fmt..Debug$GT$3fmt17h6efd022674365d9aE
	.loc	37 2377 84
	andb	$1, %al
	movzbl	%al, %eax
	addq	$16, %rsp
	popq	%rbp
	retq
Ltmp909:
Lfunc_end93:
	.cfi_endproc

	.globl	__ZN42_$LT$$RF$T$u20$as$u20$core..fmt..Debug$GT$3fmt17h8bb3561d1b34afb7E
	.p2align	4, 0x90
__ZN42_$LT$$RF$T$u20$as$u20$core..fmt..Debug$GT$3fmt17h8bb3561d1b34afb7E:
Lfunc_begin94:
	.loc	37 2377 0 is_stmt 1
	.cfi_startproc
	pushq	%rbp
	.cfi_def_cfa_offset 16
	.cfi_offset %rbp, -16
	movq	%rsp, %rbp
	.cfi_def_cfa_register %rbp
	subq	$16, %rsp
	movq	%rdi, -16(%rbp)
	movq	%rsi, -8(%rbp)
Ltmp910:
	.loc	37 2377 71 prologue_end
	movq	(%rdi), %rdi
	.loc	37 2377 62 is_stmt 0
	callq	__ZN66_$LT$tracing_core..field..ValueSet$u20$as$u20$core..fmt..Debug$GT$3fmt17h32ce5c618981b0d2E
	.loc	37 2377 84
	andb	$1, %al
	movzbl	%al, %eax
	addq	$16, %rsp
	popq	%rbp
	retq
Ltmp911:
Lfunc_end94:
	.cfi_endproc

	.globl	__ZN42_$LT$$RF$T$u20$as$u20$core..fmt..Debug$GT$3fmt17h94c845c82d5320b0E
	.p2align	4, 0x90
__ZN42_$LT$$RF$T$u20$as$u20$core..fmt..Debug$GT$3fmt17h94c845c82d5320b0E:
Lfunc_begin95:
	.loc	37 2377 0 is_stmt 1
	.cfi_startproc
	pushq	%rbp
	.cfi_def_cfa_offset 16
	.cfi_offset %rbp, -16
	movq	%rsp, %rbp
	.cfi_def_cfa_register %rbp
	subq	$16, %rsp
	movq	%rdi, -16(%rbp)
	movq	%rsi, -8(%rbp)
Ltmp912:
	.loc	37 2377 71 prologue_end
	movq	(%rdi), %rdi
	.loc	37 2377 62 is_stmt 0
	callq	__ZN75_$LT$tracing_core..subscriber..InterestKind$u20$as$u20$core..fmt..Debug$GT$3fmt17hed2704d795397e61E
	.loc	37 2377 84
	andb	$1, %al
	movzbl	%al, %eax
	addq	$16, %rsp
	popq	%rbp
	retq
Ltmp913:
Lfunc_end95:
	.cfi_endproc

	.globl	__ZN42_$LT$$RF$T$u20$as$u20$core..fmt..Debug$GT$3fmt17h98172dc9c2eb0f97E
	.p2align	4, 0x90
__ZN42_$LT$$RF$T$u20$as$u20$core..fmt..Debug$GT$3fmt17h98172dc9c2eb0f97E:
Lfunc_begin96:
	.loc	37 2377 0 is_stmt 1
	.cfi_startproc
	pushq	%rbp
	.cfi_def_cfa_offset 16
	.cfi_offset %rbp, -16
	movq	%rsp, %rbp
	.cfi_def_cfa_register %rbp
	subq	$16, %rsp
	movq	%rdi, -16(%rbp)
	movq	%rsi, -8(%rbp)
Ltmp914:
	.loc	37 2377 71 prologue_end
	movq	(%rdi), %rdi
	.loc	37 2377 62 is_stmt 0
	callq	__ZN42_$LT$$RF$T$u20$as$u20$core..fmt..Debug$GT$3fmt17h8bb3561d1b34afb7E
	.loc	37 2377 84
	andb	$1, %al
	movzbl	%al, %eax
	addq	$16, %rsp
	popq	%rbp
	retq
Ltmp915:
Lfunc_end96:
	.cfi_endproc

	.globl	__ZN42_$LT$$RF$T$u20$as$u20$core..fmt..Debug$GT$3fmt17h9e0b5a78d405963aE
	.p2align	4, 0x90
__ZN42_$LT$$RF$T$u20$as$u20$core..fmt..Debug$GT$3fmt17h9e0b5a78d405963aE:
Lfunc_begin97:
	.loc	37 2377 0 is_stmt 1
	.cfi_startproc
	pushq	%rbp
	.cfi_def_cfa_offset 16
	.cfi_offset %rbp, -16
	movq	%rsp, %rbp
	.cfi_def_cfa_register %rbp
	subq	$16, %rsp
	movq	%rdi, -16(%rbp)
	movq	%rsi, -8(%rbp)
Ltmp916:
	.loc	37 2377 71 prologue_end
	movq	(%rdi), %rdi
	.loc	37 2377 62 is_stmt 0
	callq	__ZN71_$LT$core..ops..range..Range$LT$Idx$GT$$u20$as$u20$core..fmt..Debug$GT$3fmt17h53e8520b9ae9a233E
	.loc	37 2377 84
	andb	$1, %al
	movzbl	%al, %eax
	addq	$16, %rsp
	popq	%rbp
	retq
Ltmp917:
Lfunc_end97:
	.cfi_endproc

	.globl	__ZN42_$LT$$RF$T$u20$as$u20$core..fmt..Debug$GT$3fmt17ha1d8eb9eb07a66ddE
	.p2align	4, 0x90
__ZN42_$LT$$RF$T$u20$as$u20$core..fmt..Debug$GT$3fmt17ha1d8eb9eb07a66ddE:
Lfunc_begin98:
	.loc	37 2377 0 is_stmt 1
	.cfi_startproc
	pushq	%rbp
	.cfi_def_cfa_offset 16
	.cfi_offset %rbp, -16
	movq	%rsp, %rbp
	.cfi_def_cfa_register %rbp
	subq	$16, %rsp
	movq	%rdi, -16(%rbp)
	movq	%rsi, -8(%rbp)
Ltmp918:
	.loc	37 2377 71 prologue_end
	movq	(%rdi), %rdi
	.loc	37 2377 62 is_stmt 0
	callq	__ZN67_$LT$core..num..nonzero..NonZeroU64$u20$as$u20$core..fmt..Debug$GT$3fmt17hee0ccd560bbdd863E
	.loc	37 2377 84
	andb	$1, %al
	movzbl	%al, %eax
	addq	$16, %rsp
	popq	%rbp
	retq
Ltmp919:
Lfunc_end98:
	.cfi_endproc

	.globl	__ZN42_$LT$$RF$T$u20$as$u20$core..fmt..Debug$GT$3fmt17ha9d743b321e8bd39E
	.p2align	4, 0x90
__ZN42_$LT$$RF$T$u20$as$u20$core..fmt..Debug$GT$3fmt17ha9d743b321e8bd39E:
Lfunc_begin99:
	.loc	37 2377 0 is_stmt 1
	.cfi_startproc
	pushq	%rbp
	.cfi_def_cfa_offset 16
	.cfi_offset %rbp, -16
	movq	%rsp, %rbp
	.cfi_def_cfa_register %rbp
	subq	$16, %rsp
	movq	%rsi, %rdx
	movq	%rdi, %rax
	movq	%rax, -16(%rbp)
	movq	%rdx, -8(%rbp)
Ltmp920:
	.loc	37 2377 71 prologue_end
	movq	(%rax), %rdi
	movq	8(%rax), %rsi
	.loc	37 2377 62 is_stmt 0
	callq	__ZN40_$LT$str$u20$as$u20$core..fmt..Debug$GT$3fmt17h4564f13343f2ac60E
	.loc	37 2377 84
	andb	$1, %al
	movzbl	%al, %eax
	addq	$16, %rsp
	popq	%rbp
	retq
Ltmp921:
Lfunc_end99:
	.cfi_endproc

	.globl	__ZN42_$LT$$RF$T$u20$as$u20$core..fmt..Debug$GT$3fmt17hac7a3cd56824e4f0E
	.p2align	4, 0x90
__ZN42_$LT$$RF$T$u20$as$u20$core..fmt..Debug$GT$3fmt17hac7a3cd56824e4f0E:
Lfunc_begin100:
	.loc	37 2377 0 is_stmt 1
	.cfi_startproc
	pushq	%rbp
	.cfi_def_cfa_offset 16
	.cfi_offset %rbp, -16
	movq	%rsp, %rbp
	.cfi_def_cfa_register %rbp
	subq	$16, %rsp
	movq	%rdi, %rax
	movq	%rax, -16(%rbp)
	movq	%rsi, -8(%rbp)
Ltmp922:
	.loc	37 2377 71 prologue_end
	movq	(%rax), %rdi
	movq	8(%rax), %rax
	.loc	37 2377 62 is_stmt 0
	callq	*24(%rax)
	.loc	37 2377 84
	andb	$1, %al
	movzbl	%al, %eax
	addq	$16, %rsp
	popq	%rbp
	retq
Ltmp923:
Lfunc_end100:
	.cfi_endproc

	.globl	__ZN42_$LT$$RF$T$u20$as$u20$core..fmt..Debug$GT$3fmt17hcb583d0a192ed602E
	.p2align	4, 0x90
__ZN42_$LT$$RF$T$u20$as$u20$core..fmt..Debug$GT$3fmt17hcb583d0a192ed602E:
Lfunc_begin101:
	.loc	37 2377 0 is_stmt 1
	.cfi_startproc
	pushq	%rbp
	.cfi_def_cfa_offset 16
	.cfi_offset %rbp, -16
	movq	%rsp, %rbp
	.cfi_def_cfa_register %rbp
	subq	$16, %rsp
	movq	%rdi, -16(%rbp)
	movq	%rsi, -8(%rbp)
Ltmp924:
	.loc	37 2377 71 prologue_end
	movq	(%rdi), %rdi
	.loc	37 2377 62 is_stmt 0
	callq	__ZN65_$LT$tracing_core..parent..Parent$u20$as$u20$core..fmt..Debug$GT$3fmt17h6524b3144b330107E
	.loc	37 2377 84
	andb	$1, %al
	movzbl	%al, %eax
	addq	$16, %rsp
	popq	%rbp
	retq
Ltmp925:
Lfunc_end101:
	.cfi_endproc

	.globl	__ZN42_$LT$$RF$T$u20$as$u20$core..fmt..Debug$GT$3fmt17hce23ad77e342b21dE
	.p2align	4, 0x90
__ZN42_$LT$$RF$T$u20$as$u20$core..fmt..Debug$GT$3fmt17hce23ad77e342b21dE:
Lfunc_begin102:
	.loc	37 2377 0 is_stmt 1
	.cfi_startproc
	pushq	%rbp
	.cfi_def_cfa_offset 16
	.cfi_offset %rbp, -16
	movq	%rsp, %rbp
	.cfi_def_cfa_register %rbp
	subq	$16, %rsp
	movq	%rdi, -16(%rbp)
	movq	%rsi, -8(%rbp)
Ltmp926:
	.loc	37 2377 71 prologue_end
	movq	(%rdi), %rdi
	.loc	37 2377 62 is_stmt 0
	callq	__ZN66_$LT$core..option..Option$LT$T$GT$$u20$as$u20$core..fmt..Debug$GT$3fmt17h1b9a9199ec58ef1eE
	.loc	37 2377 84
	andb	$1, %al
	movzbl	%al, %eax
	addq	$16, %rsp
	popq	%rbp
	retq
Ltmp927:
Lfunc_end102:
	.cfi_endproc

	.globl	__ZN42_$LT$$RF$T$u20$as$u20$core..fmt..Debug$GT$3fmt17hd72c1c4b7cb8b11eE
	.p2align	4, 0x90
__ZN42_$LT$$RF$T$u20$as$u20$core..fmt..Debug$GT$3fmt17hd72c1c4b7cb8b11eE:
Lfunc_begin103:
	.loc	37 2377 0 is_stmt 1
	.cfi_startproc
	pushq	%rbp
	.cfi_def_cfa_offset 16
	.cfi_offset %rbp, -16
	movq	%rsp, %rbp
	.cfi_def_cfa_register %rbp
	subq	$16, %rsp
	movq	%rdi, -16(%rbp)
	movq	%rsi, -8(%rbp)
Ltmp928:
	.loc	37 2377 71 prologue_end
	movq	(%rdi), %rdi
	.loc	37 2377 62 is_stmt 0
	callq	__ZN50_$LT$$BP$mut$u20$T$u20$as$u20$core..fmt..Debug$GT$3fmt17hf27b60a76044f501E
	.loc	37 2377 84
	andb	$1, %al
	movzbl	%al, %eax
	addq	$16, %rsp
	popq	%rbp
	retq
Ltmp929:
Lfunc_end103:
	.cfi_endproc

	.globl	__ZN42_$LT$$RF$T$u20$as$u20$core..fmt..Debug$GT$3fmt17hdec564abcf13af23E
	.p2align	4, 0x90
__ZN42_$LT$$RF$T$u20$as$u20$core..fmt..Debug$GT$3fmt17hdec564abcf13af23E:
Lfunc_begin104:
	.loc	37 2377 0 is_stmt 1
	.cfi_startproc
	pushq	%rbp
	.cfi_def_cfa_offset 16
	.cfi_offset %rbp, -16
	movq	%rsp, %rbp
	.cfi_def_cfa_register %rbp
	subq	$16, %rsp
	movq	%rdi, -16(%rbp)
	movq	%rsi, -8(%rbp)
Ltmp930:
	.loc	37 2377 71 prologue_end
	movq	(%rdi), %rdi
	.loc	37 2377 62 is_stmt 0
	callq	__ZN42_$LT$$RF$T$u20$as$u20$core..fmt..Debug$GT$3fmt17ha9d743b321e8bd39E
	.loc	37 2377 84
	andb	$1, %al
	movzbl	%al, %eax
	addq	$16, %rsp
	popq	%rbp
	retq
Ltmp931:
Lfunc_end104:
	.cfi_endproc

	.globl	__ZN42_$LT$$RF$T$u20$as$u20$core..fmt..Debug$GT$3fmt17hec5154f56967bebaE
	.p2align	4, 0x90
__ZN42_$LT$$RF$T$u20$as$u20$core..fmt..Debug$GT$3fmt17hec5154f56967bebaE:
Lfunc_begin105:
	.loc	37 2377 0 is_stmt 1
	.cfi_startproc
	pushq	%rbp
	.cfi_def_cfa_offset 16
	.cfi_offset %rbp, -16
	movq	%rsp, %rbp
	.cfi_def_cfa_register %rbp
	subq	$16, %rsp
	movq	%rdi, -16(%rbp)
	movq	%rsi, -8(%rbp)
Ltmp932:
	.loc	37 2377 71 prologue_end
	movq	(%rdi), %rdi
	.loc	37 2377 62 is_stmt 0
	callq	__ZN69_$LT$tracing_core..span..CurrentInner$u20$as$u20$core..fmt..Debug$GT$3fmt17h17cc160db1f510ceE
	.loc	37 2377 84
	andb	$1, %al
	movzbl	%al, %eax
	addq	$16, %rsp
	popq	%rbp
	retq
Ltmp933:
Lfunc_end105:
	.cfi_endproc

	.globl	__ZN42_$LT$$RF$T$u20$as$u20$core..fmt..Debug$GT$3fmt17hef639e2071cec5f7E
	.p2align	4, 0x90
__ZN42_$LT$$RF$T$u20$as$u20$core..fmt..Debug$GT$3fmt17hef639e2071cec5f7E:
Lfunc_begin106:
	.loc	37 2377 0 is_stmt 1
	.cfi_startproc
	pushq	%rbp
	.cfi_def_cfa_offset 16
	.cfi_offset %rbp, -16
	movq	%rsp, %rbp
	.cfi_def_cfa_register %rbp
	subq	$16, %rsp
	movq	%rdi, -16(%rbp)
	movq	%rsi, -8(%rbp)
Ltmp934:
	.loc	37 2377 71 prologue_end
	movq	(%rdi), %rdi
	.loc	37 2377 62 is_stmt 0
	callq	__ZN52_$LT$$BP$const$u20$T$u20$as$u20$core..fmt..Debug$GT$3fmt17hc32f080fa43a4d8eE
	.loc	37 2377 84
	andb	$1, %al
	movzbl	%al, %eax
	addq	$16, %rsp
	popq	%rbp
	retq
Ltmp935:
Lfunc_end106:
	.cfi_endproc

	.globl	__ZN44_$LT$$RF$T$u20$as$u20$core..fmt..Display$GT$3fmt17h0d3733ab631cd41eE
	.p2align	4, 0x90
__ZN44_$LT$$RF$T$u20$as$u20$core..fmt..Display$GT$3fmt17h0d3733ab631cd41eE:
Lfunc_begin107:
	.loc	37 2377 0 is_stmt 1
	.cfi_startproc
	pushq	%rbp
	.cfi_def_cfa_offset 16
	.cfi_offset %rbp, -16
	movq	%rsp, %rbp
	.cfi_def_cfa_register %rbp
	subq	$16, %rsp
	movq	%rsi, %rdx
	movq	%rdi, %rax
	movq	%rax, -16(%rbp)
	movq	%rdx, -8(%rbp)
Ltmp936:
	.loc	37 2377 71 prologue_end
	movq	(%rax), %rdi
	movq	8(%rax), %rsi
	.loc	37 2377 62 is_stmt 0
	callq	__ZN42_$LT$str$u20$as$u20$core..fmt..Display$GT$3fmt17hd1cabce055ea2fbdE
	.loc	37 2377 84
	andb	$1, %al
	movzbl	%al, %eax
	addq	$16, %rsp
	popq	%rbp
	retq
Ltmp937:
Lfunc_end107:
	.cfi_endproc

	.globl	__ZN44_$LT$$RF$T$u20$as$u20$core..fmt..Display$GT$3fmt17h4f82209863288dc0E
	.p2align	4, 0x90
__ZN44_$LT$$RF$T$u20$as$u20$core..fmt..Display$GT$3fmt17h4f82209863288dc0E:
Lfunc_begin108:
	.loc	37 2377 0 is_stmt 1
	.cfi_startproc
	pushq	%rbp
	.cfi_def_cfa_offset 16
	.cfi_offset %rbp, -16
	movq	%rsp, %rbp
	.cfi_def_cfa_register %rbp
	subq	$16, %rsp
	movq	%rdi, -16(%rbp)
	movq	%rsi, -8(%rbp)
Ltmp938:
	.loc	37 2377 71 prologue_end
	movq	(%rdi), %rdi
	.loc	37 2377 62 is_stmt 0
	callq	__ZN44_$LT$$RF$T$u20$as$u20$core..fmt..Display$GT$3fmt17h0d3733ab631cd41eE
	.loc	37 2377 84
	andb	$1, %al
	movzbl	%al, %eax
	addq	$16, %rsp
	popq	%rbp
	retq
Ltmp939:
Lfunc_end108:
	.cfi_endproc

	.globl	__ZN44_$LT$$RF$T$u20$as$u20$core..fmt..Display$GT$3fmt17h7e74dea0a895782fE
	.p2align	4, 0x90
__ZN44_$LT$$RF$T$u20$as$u20$core..fmt..Display$GT$3fmt17h7e74dea0a895782fE:
Lfunc_begin109:
	.loc	37 2377 0 is_stmt 1
	.cfi_startproc
	pushq	%rbp
	.cfi_def_cfa_offset 16
	.cfi_offset %rbp, -16
	movq	%rsp, %rbp
	.cfi_def_cfa_register %rbp
	subq	$16, %rsp
	movq	%rdi, -16(%rbp)
	movq	%rsi, -8(%rbp)
Ltmp940:
	.loc	37 2377 71 prologue_end
	movq	(%rdi), %rdi
	.loc	37 2377 62 is_stmt 0
	callq	__ZN65_$LT$tracing_core..field..Field$u20$as$u20$core..fmt..Display$GT$3fmt17h34d22249933e6e1eE
	.loc	37 2377 84
	andb	$1, %al
	movzbl	%al, %eax
	addq	$16, %rsp
	popq	%rbp
	retq
Ltmp941:
Lfunc_end109:
	.cfi_endproc

	.globl	__ZN44_$LT$$RF$T$u20$as$u20$core..fmt..Display$GT$3fmt17hd9e79bd46d38ca60E
	.p2align	4, 0x90
__ZN44_$LT$$RF$T$u20$as$u20$core..fmt..Display$GT$3fmt17hd9e79bd46d38ca60E:
Lfunc_begin110:
	.loc	37 2377 0 is_stmt 1
	.cfi_startproc
	pushq	%rbp
	.cfi_def_cfa_offset 16
	.cfi_offset %rbp, -16
	movq	%rsp, %rbp
	.cfi_def_cfa_register %rbp
	subq	$16, %rsp
	movq	%rdi, %rax
	movq	%rax, -16(%rbp)
	movq	%rsi, -8(%rbp)
Ltmp942:
	.loc	37 2377 71 prologue_end
	movq	(%rax), %rdi
	movq	8(%rax), %rax
	.loc	37 2377 62 is_stmt 0
	callq	*32(%rax)
	.loc	37 2377 84
	andb	$1, %al
	movzbl	%al, %eax
	addq	$16, %rsp
	popq	%rbp
	retq
Ltmp943:
Lfunc_end110:
	.cfi_endproc

	.globl	__ZN44_$LT$$RF$T$u20$as$u20$core..fmt..Pointer$GT$3fmt17he841cd536357ef28E
	.p2align	4, 0x90
__ZN44_$LT$$RF$T$u20$as$u20$core..fmt..Pointer$GT$3fmt17he841cd536357ef28E:
Lfunc_begin111:
	.loc	37 2525 0 is_stmt 1
	.cfi_startproc
	pushq	%rbp
	.cfi_def_cfa_offset 16
	.cfi_offset %rbp, -16
	movq	%rsp, %rbp
	.cfi_def_cfa_register %rbp
	subq	$32, %rsp
	movq	%rdi, -16(%rbp)
	movq	%rsi, -8(%rbp)
Ltmp944:
	.loc	37 2526 24 prologue_end
	movq	(%rdi), %rcx
	movq	8(%rdi), %rax
	movq	%rcx, -32(%rbp)
	movq	%rax, -24(%rbp)
	.loc	37 2526 9 is_stmt 0
	leaq	-32(%rbp), %rdi
	callq	__ZN54_$LT$$BP$const$u20$T$u20$as$u20$core..fmt..Pointer$GT$3fmt17h1eadee0cd51f93fcE
	.loc	37 2527 6 is_stmt 1
	andb	$1, %al
	movzbl	%al, %eax
	addq	$32, %rsp
	popq	%rbp
	retq
Ltmp945:
Lfunc_end111:
	.cfi_endproc

	.p2align	4, 0x90
__ZN45_$LT$$LP$$RP$$u20$as$u20$core..fmt..Debug$GT$3fmt17h6efd022674365d9aE:
Lfunc_begin112:
	.loc	37 2610 0
	.cfi_startproc
	pushq	%rbp
	.cfi_def_cfa_offset 16
	.cfi_offset %rbp, -16
	movq	%rsp, %rbp
	.cfi_def_cfa_register %rbp
	subq	$32, %rsp
	movq	%rsi, -24(%rbp)
	movq	%rdi, %rax
	movq	-24(%rbp), %rdi
	movq	%rax, -16(%rbp)
	movq	%rdi, -8(%rbp)
Ltmp946:
	.loc	37 2611 9 prologue_end
	leaq	l___unnamed_69(%rip), %rsi
	movl	$2, %edx
	callq	__ZN4core3fmt9Formatter3pad17h322dee5343842323E
	.loc	37 2612 6
	andb	$1, %al
	movzbl	%al, %eax
	addq	$32, %rsp
	popq	%rbp
	retq
Ltmp947:
Lfunc_end112:
	.cfi_endproc

	.globl	__ZN48_$LT$$u5b$T$u5d$$u20$as$u20$core..fmt..Debug$GT$3fmt17hc716dbb73908eaeeE
	.p2align	4, 0x90
__ZN48_$LT$$u5b$T$u5d$$u20$as$u20$core..fmt..Debug$GT$3fmt17hc716dbb73908eaeeE:
Lfunc_begin113:
	.loc	37 2602 0
	.cfi_startproc
	pushq	%rbp
	.cfi_def_cfa_offset 16
	.cfi_offset %rbp, -16
	movq	%rsp, %rbp
	.cfi_def_cfa_register %rbp
	subq	$80, %rsp
	movq	%rdx, -80(%rbp)
	movq	%rsi, %rax
	movq	-80(%rbp), %rsi
	movq	%rdi, -72(%rbp)
	movq	%rax, -64(%rbp)
	movq	%rdi, -40(%rbp)
	movq	%rax, -32(%rbp)
	movq	%rsi, -24(%rbp)
Ltmp948:
	.loc	37 2603 9 prologue_end
	leaq	-56(%rbp), %rdi
	callq	__ZN4core3fmt9Formatter10debug_list17hc648f6f2ff865c45E
	movq	-72(%rbp), %rdi
	movq	-64(%rbp), %rsi
	.loc	37 2603 32 is_stmt 0
	movq	%rdi, -16(%rbp)
	movq	%rsi, -8(%rbp)
Ltmp949:
	.loc	30 742 9 is_stmt 1
	callq	__ZN4core5slice4iter13Iter$LT$T$GT$3new17hdcc6a011e4fe8c4fE
	movq	%rax, %rsi
Ltmp950:
	.loc	37 2603 9
	leaq	-56(%rbp), %rdi
	callq	__ZN4core3fmt8builders9DebugList7entries17hc6f6b4fcd705032aE
	movq	%rax, %rdi
	callq	__ZN4core3fmt8builders9DebugList6finish17hed399f470c25b4b2E
	.loc	37 2604 6
	andb	$1, %al
	movzbl	%al, %eax
	addq	$80, %rsp
	popq	%rbp
	retq
Ltmp951:
Lfunc_end113:
	.cfi_endproc

	.p2align	4, 0x90
__ZN49_$LT$usize$u20$as$u20$core..iter..range..Step$GT$17forward_unchecked17h3d68241af9a95d02E:
Lfunc_begin114:
	.file	50 "/rustc/2c8cc343237b8f7d5a3c3703e3a87f2eb2c54a74/library/core/src/iter" "range.rs"
	.loc	50 189 0
	.cfi_startproc
	pushq	%rbp
	.cfi_def_cfa_offset 16
	.cfi_offset %rbp, -16
	movq	%rsp, %rbp
	.cfi_def_cfa_register %rbp
	subq	$40, %rsp
	movq	%rdi, -40(%rbp)
	movq	%rsi, -32(%rbp)
Ltmp952:
	.loc	50 191 22 prologue_end
	movq	%rdi, -24(%rbp)
	.loc	50 191 42 is_stmt 0
	movq	%rsi, -16(%rbp)
Ltmp953:
	.file	51 "/rustc/2c8cc343237b8f7d5a3c3703e3a87f2eb2c54a74/library/core/src/num" "uint_macros.rs"
	.loc	51 470 22 is_stmt 1
	addq	%rsi, %rdi
	movq	%rdi, -8(%rbp)
	movq	-8(%rbp), %rax
Ltmp954:
	.loc	50 192 10
	addq	$40, %rsp
	popq	%rbp
	retq
Ltmp955:
Lfunc_end114:
	.cfi_endproc

	.globl	__ZN4core3any6TypeId2of17h04a604aa2ef643fbE
	.p2align	4, 0x90
__ZN4core3any6TypeId2of17h04a604aa2ef643fbE:
Lfunc_begin115:
	.file	52 "/rustc/2c8cc343237b8f7d5a3c3703e3a87f2eb2c54a74/library/core/src" "any.rs"
	.loc	52 691 0
	.cfi_startproc
	pushq	%rbp
	.cfi_def_cfa_offset 16
	.cfi_offset %rbp, -16
	movq	%rsp, %rbp
	.cfi_def_cfa_register %rbp
	subq	$16, %rsp
Ltmp956:
	.loc	52 692 21 prologue_end
	movabsq	$8308461414730497297, %rax
	movq	%rax, -8(%rbp)
	movq	-8(%rbp), %rax
	.loc	52 692 9 is_stmt 0
	movq	%rax, -16(%rbp)
	.loc	52 693 6 is_stmt 1
	movq	-16(%rbp), %rax
	addq	$16, %rsp
	popq	%rbp
	retq
Ltmp957:
Lfunc_end115:
	.cfi_endproc

	.globl	__ZN4core3any6TypeId2of17h4461084b34b57fe7E
	.p2align	4, 0x90
__ZN4core3any6TypeId2of17h4461084b34b57fe7E:
Lfunc_begin116:
	.loc	52 691 0
	.cfi_startproc
	pushq	%rbp
	.cfi_def_cfa_offset 16
	.cfi_offset %rbp, -16
	movq	%rsp, %rbp
	.cfi_def_cfa_register %rbp
	subq	$16, %rsp
Ltmp958:
	.loc	52 692 21 prologue_end
	movabsq	$-3549034345556569206, %rax
	movq	%rax, -8(%rbp)
	movq	-8(%rbp), %rax
	.loc	52 692 9 is_stmt 0
	movq	%rax, -16(%rbp)
	.loc	52 693 6 is_stmt 1
	movq	-16(%rbp), %rax
	addq	$16, %rsp
	popq	%rbp
	retq
Ltmp959:
Lfunc_end116:
	.cfi_endproc

	.globl	__ZN4core3any6TypeId2of17h55c7e3326afc93e4E
	.p2align	4, 0x90
__ZN4core3any6TypeId2of17h55c7e3326afc93e4E:
Lfunc_begin117:
	.loc	52 691 0
	.cfi_startproc
	pushq	%rbp
	.cfi_def_cfa_offset 16
	.cfi_offset %rbp, -16
	movq	%rsp, %rbp
	.cfi_def_cfa_register %rbp
	subq	$16, %rsp
Ltmp960:
	.loc	52 692 21 prologue_end
	movabsq	$1934791360565645967, %rax
	movq	%rax, -8(%rbp)
	movq	-8(%rbp), %rax
	.loc	52 692 9 is_stmt 0
	movq	%rax, -16(%rbp)
	.loc	52 693 6 is_stmt 1
	movq	-16(%rbp), %rax
	addq	$16, %rsp
	popq	%rbp
	retq
Ltmp961:
Lfunc_end117:
	.cfi_endproc

	.globl	__ZN4core3any6TypeId2of17h6192a4ff3aff0f7eE
	.p2align	4, 0x90
__ZN4core3any6TypeId2of17h6192a4ff3aff0f7eE:
Lfunc_begin118:
	.loc	52 691 0
	.cfi_startproc
	pushq	%rbp
	.cfi_def_cfa_offset 16
	.cfi_offset %rbp, -16
	movq	%rsp, %rbp
	.cfi_def_cfa_register %rbp
	subq	$16, %rsp
Ltmp962:
	.loc	52 692 21 prologue_end
	movabsq	$3036285320130407578, %rax
	movq	%rax, -8(%rbp)
	movq	-8(%rbp), %rax
	.loc	52 692 9 is_stmt 0
	movq	%rax, -16(%rbp)
	.loc	52 693 6 is_stmt 1
	movq	-16(%rbp), %rax
	addq	$16, %rsp
	popq	%rbp
	retq
Ltmp963:
Lfunc_end118:
	.cfi_endproc

	.p2align	4, 0x90
__ZN4core3cmp5impls50_$LT$impl$u20$core..cmp..Ord$u20$for$u20$usize$GT$3cmp17ha534135075c4c58dE:
Lfunc_begin119:
	.loc	15 1454 0
	.cfi_startproc
	pushq	%rbp
	.cfi_def_cfa_offset 16
	.cfi_offset %rbp, -16
	movq	%rsp, %rbp
	.cfi_def_cfa_register %rbp
	subq	$40, %rsp
	movq	%rdi, -40(%rbp)
	movq	%rsi, -32(%rbp)
	movq	%rdi, -16(%rbp)
	movq	%rsi, -8(%rbp)
Ltmp964:
	.loc	15 1457 24 prologue_end
	movq	(%rdi), %rax
	cmpq	(%rsi), %rax
	jb	LBB119_2
	.loc	15 0 24 is_stmt 0
	movq	-32(%rbp), %rcx
	movq	-40(%rbp), %rax
	.loc	15 1458 29 is_stmt 1
	movq	(%rax), %rax
	cmpq	(%rcx), %rax
	je	LBB119_5
	jmp	LBB119_4
LBB119_2:
	.loc	15 1457 41
	movb	$-1, -17(%rbp)
LBB119_3:
	.loc	15 1460 18
	movb	-17(%rbp), %al
	addq	$40, %rsp
	popq	%rbp
	retq
LBB119_4:
	.loc	15 1459 28
	movb	$1, -17(%rbp)
	.loc	15 1458 26
	jmp	LBB119_6
LBB119_5:
	.loc	15 1458 47 is_stmt 0
	movb	$0, -17(%rbp)
LBB119_6:
	.loc	15 1457 21 is_stmt 1
	jmp	LBB119_3
Ltmp965:
Lfunc_end119:
	.cfi_endproc

	.p2align	4, 0x90
__ZN4core3cmp5impls57_$LT$impl$u20$core..cmp..PartialOrd$u20$for$u20$usize$GT$2lt17h573f059830933699E:
Lfunc_begin120:
	.loc	15 1441 0
	.cfi_startproc
	pushq	%rbp
	.cfi_def_cfa_offset 16
	.cfi_offset %rbp, -16
	movq	%rsp, %rbp
	.cfi_def_cfa_register %rbp
	subq	$16, %rsp
	movq	%rdi, -16(%rbp)
	movq	%rsi, -8(%rbp)
Ltmp966:
	.loc	15 1441 52 prologue_end
	movq	(%rdi), %rax
	cmpq	(%rsi), %rax
	setb	%al
	.loc	15 1441 72 is_stmt 0
	andb	$1, %al
	movzbl	%al, %eax
	addq	$16, %rsp
	popq	%rbp
	retq
Ltmp967:
Lfunc_end120:
	.cfi_endproc

	.p2align	4, 0x90
__ZN4core3cmp5impls59_$LT$impl$u20$core..cmp..PartialEq$u20$for$u20$$LP$$RP$$GT$2eq17h6b27494865f5607cE:
Lfunc_begin121:
	.loc	15 1363 0 is_stmt 1
	.cfi_startproc
	pushq	%rbp
	.cfi_def_cfa_offset 16
	.cfi_offset %rbp, -16
	movq	%rsp, %rbp
	.cfi_def_cfa_register %rbp
	subq	$16, %rsp
	movq	%rdi, -16(%rbp)
	movq	%rsi, -8(%rbp)
Ltmp968:
	.loc	15 1365 10 prologue_end
	movb	$1, %al
	andb	$1, %al
	movzbl	%al, %eax
	addq	$16, %rsp
	popq	%rbp
	retq
Ltmp969:
Lfunc_end121:
	.cfi_endproc

	.globl	__ZN4core3cmp5impls69_$LT$impl$u20$core..cmp..PartialEq$LT$$RF$B$GT$$u20$for$u20$$RF$A$GT$2eq17h1d101b9eb3a914e2E
	.p2align	4, 0x90
__ZN4core3cmp5impls69_$LT$impl$u20$core..cmp..PartialEq$LT$$RF$B$GT$$u20$for$u20$$RF$A$GT$2eq17h1d101b9eb3a914e2E:
Lfunc_begin122:
	.loc	15 1530 0
	.cfi_startproc
	pushq	%rbp
	.cfi_def_cfa_offset 16
	.cfi_offset %rbp, -16
	movq	%rsp, %rbp
	.cfi_def_cfa_register %rbp
	subq	$16, %rsp
	movq	%rdi, -16(%rbp)
	movq	%rsi, -8(%rbp)
Ltmp970:
	.loc	15 1531 27 prologue_end
	movq	(%rdi), %rdi
	.loc	15 1531 34 is_stmt 0
	movq	(%rsi), %rsi
	.loc	15 1531 13
	callq	__ZN4core3cmp5impls69_$LT$impl$u20$core..cmp..PartialEq$LT$$RF$B$GT$$u20$for$u20$$RF$A$GT$2eq17h41f4bfc73e5b74e9E
	.loc	15 1532 10 is_stmt 1
	andb	$1, %al
	movzbl	%al, %eax
	addq	$16, %rsp
	popq	%rbp
	retq
Ltmp971:
Lfunc_end122:
	.cfi_endproc

	.globl	__ZN4core3cmp5impls69_$LT$impl$u20$core..cmp..PartialEq$LT$$RF$B$GT$$u20$for$u20$$RF$A$GT$2eq17h223b85d28aca9a5dE
	.p2align	4, 0x90
__ZN4core3cmp5impls69_$LT$impl$u20$core..cmp..PartialEq$LT$$RF$B$GT$$u20$for$u20$$RF$A$GT$2eq17h223b85d28aca9a5dE:
Lfunc_begin123:
	.loc	15 1530 0
	.cfi_startproc
	pushq	%rbp
	.cfi_def_cfa_offset 16
	.cfi_offset %rbp, -16
	movq	%rsp, %rbp
	.cfi_def_cfa_register %rbp
	subq	$16, %rsp
	movq	%rsi, %rax
	movq	%rdi, %rcx
	movq	%rcx, -16(%rbp)
	movq	%rax, -8(%rbp)
Ltmp972:
	.loc	15 1531 27 prologue_end
	movq	(%rcx), %rdi
	movq	8(%rcx), %rsi
	.loc	15 1531 34 is_stmt 0
	movq	(%rax), %rdx
	movq	8(%rax), %rcx
	.loc	15 1531 13
	callq	__ZN4core3str6traits54_$LT$impl$u20$core..cmp..PartialEq$u20$for$u20$str$GT$2eq17ha72d8e9180a17068E
	.loc	15 1532 10 is_stmt 1
	andb	$1, %al
	movzbl	%al, %eax
	addq	$16, %rsp
	popq	%rbp
	retq
Ltmp973:
Lfunc_end123:
	.cfi_endproc

	.globl	__ZN4core3cmp5impls69_$LT$impl$u20$core..cmp..PartialEq$LT$$RF$B$GT$$u20$for$u20$$RF$A$GT$2eq17h41f4bfc73e5b74e9E
	.p2align	4, 0x90
__ZN4core3cmp5impls69_$LT$impl$u20$core..cmp..PartialEq$LT$$RF$B$GT$$u20$for$u20$$RF$A$GT$2eq17h41f4bfc73e5b74e9E:
Lfunc_begin124:
	.loc	15 1530 0
	.cfi_startproc
	pushq	%rbp
	.cfi_def_cfa_offset 16
	.cfi_offset %rbp, -16
	movq	%rsp, %rbp
	.cfi_def_cfa_register %rbp
	subq	$16, %rsp
	movq	%rsi, %rax
	movq	%rdi, %rcx
	movq	%rcx, -16(%rbp)
	movq	%rax, -8(%rbp)
Ltmp974:
	.loc	15 1531 27 prologue_end
	movq	(%rcx), %rdi
	movq	8(%rcx), %rsi
	.loc	15 1531 34 is_stmt 0
	movq	(%rax), %rdx
	movq	8(%rax), %rcx
	.loc	15 1531 13
	callq	__ZN4core5slice3cmp81_$LT$impl$u20$core..cmp..PartialEq$LT$$u5b$B$u5d$$GT$$u20$for$u20$$u5b$A$u5d$$GT$2eq17h4918d323bb146dccE
	.loc	15 1532 10 is_stmt 1
	andb	$1, %al
	movzbl	%al, %eax
	addq	$16, %rsp
	popq	%rbp
	retq
Ltmp975:
Lfunc_end124:
	.cfi_endproc

	.globl	__ZN4core3cmp5impls69_$LT$impl$u20$core..cmp..PartialEq$LT$$RF$B$GT$$u20$for$u20$$RF$A$GT$2eq17h589d04ca5c6ae6e7E
	.p2align	4, 0x90
__ZN4core3cmp5impls69_$LT$impl$u20$core..cmp..PartialEq$LT$$RF$B$GT$$u20$for$u20$$RF$A$GT$2eq17h589d04ca5c6ae6e7E:
Lfunc_begin125:
	.loc	15 1530 0
	.cfi_startproc
	pushq	%rbp
	.cfi_def_cfa_offset 16
	.cfi_offset %rbp, -16
	movq	%rsp, %rbp
	.cfi_def_cfa_register %rbp
	subq	$16, %rsp
	movq	%rdi, -16(%rbp)
	movq	%rsi, -8(%rbp)
Ltmp976:
	.loc	15 1531 27 prologue_end
	movq	(%rdi), %rdi
	.loc	15 1531 34 is_stmt 0
	movq	(%rsi), %rsi
	.loc	15 1531 13
	callq	__ZN75_$LT$tracing_core..callsite..Identifier$u20$as$u20$core..cmp..PartialEq$GT$2eq17h1c515e9c39b56a80E
	.loc	15 1532 10 is_stmt 1
	andb	$1, %al
	movzbl	%al, %eax
	addq	$16, %rsp
	popq	%rbp
	retq
Ltmp977:
Lfunc_end125:
	.cfi_endproc

	.globl	__ZN4core3cmp5impls69_$LT$impl$u20$core..cmp..PartialEq$LT$$RF$B$GT$$u20$for$u20$$RF$A$GT$2eq17h5c96f07f53a3640dE
	.p2align	4, 0x90
__ZN4core3cmp5impls69_$LT$impl$u20$core..cmp..PartialEq$LT$$RF$B$GT$$u20$for$u20$$RF$A$GT$2eq17h5c96f07f53a3640dE:
Lfunc_begin126:
	.loc	15 1530 0
	.cfi_startproc
	pushq	%rbp
	.cfi_def_cfa_offset 16
	.cfi_offset %rbp, -16
	movq	%rsp, %rbp
	.cfi_def_cfa_register %rbp
	subq	$16, %rsp
	movq	%rdi, -16(%rbp)
	movq	%rsi, -8(%rbp)
Ltmp978:
	.loc	15 1531 27 prologue_end
	movq	(%rdi), %rdi
	.loc	15 1531 34 is_stmt 0
	movq	(%rsi), %rsi
	.loc	15 1531 13
	callq	__ZN67_$LT$tracing_core..field..Field$u20$as$u20$core..cmp..PartialEq$GT$2eq17h61e58a1ae48199baE
	.loc	15 1532 10 is_stmt 1
	andb	$1, %al
	movzbl	%al, %eax
	addq	$16, %rsp
	popq	%rbp
	retq
Ltmp979:
Lfunc_end126:
	.cfi_endproc

	.globl	__ZN4core3cmp6max_by17ha57f4afa5637043fE
	.p2align	4, 0x90
__ZN4core3cmp6max_by17ha57f4afa5637043fE:
Lfunc_begin127:
	.loc	15 1295 0
	.cfi_startproc
	.cfi_personality 155, _rust_eh_personality
	.cfi_lsda 16, Lexception23
	pushq	%rbp
	.cfi_def_cfa_offset 16
	.cfi_offset %rbp, -16
	movq	%rsp, %rbp
	.cfi_def_cfa_register %rbp
	subq	$96, %rsp
	movq	%rdi, -80(%rbp)
	movq	%rsi, -72(%rbp)
Ltmp983:
	.loc	15 1300 11 prologue_end
	movb	$1, -25(%rbp)
	movb	$1, -26(%rbp)
	leaq	-80(%rbp), %rax
	movq	%rax, -48(%rbp)
	leaq	-72(%rbp), %rax
	movq	%rax, -40(%rbp)
	movq	-48(%rbp), %rdi
	movq	-40(%rbp), %rsi
Ltmp980:
	callq	__ZN4core3ops8function6FnOnce9call_once17hfb107fa84a2e8cdbE
Ltmp981:
	movb	%al, -81(%rbp)
	jmp	LBB127_3
LBB127_1:
	.loc	15 1304 1
	jmp	LBB127_4
LBB127_2:
Ltmp982:
	.loc	15 0 1 is_stmt 0
	movq	%rax, %rcx
	movl	%edx, %eax
	movq	%rcx, -16(%rbp)
	movl	%eax, -8(%rbp)
	jmp	LBB127_1
LBB127_3:
	movb	-81(%rbp), %al
	.loc	15 1300 11 is_stmt 1
	movb	%al, -49(%rbp)
	movb	-49(%rbp), %al
	.loc	15 1300 5 is_stmt 0
	incb	%al
	subb	$2, %al
	jb	LBB127_6
	jmp	LBB127_15
LBB127_15:
	jmp	LBB127_7
LBB127_4:
	.loc	15 1304 1 is_stmt 1
	testb	$1, -25(%rbp)
	jne	LBB127_12
	jmp	LBB127_11
	.loc	15 1300 11
	ud2
LBB127_6:
	.loc	15 1301 45
	movb	$0, -26(%rbp)
	movq	-72(%rbp), %rax
	movq	%rax, -64(%rbp)
	jmp	LBB127_8
LBB127_7:
	.loc	15 1302 30
	movb	$0, -25(%rbp)
	movq	-80(%rbp), %rax
	movq	%rax, -64(%rbp)
LBB127_8:
	.loc	15 1304 1
	testb	$1, -26(%rbp)
	jne	LBB127_10
LBB127_9:
	testb	$1, -25(%rbp)
	jne	LBB127_14
	jmp	LBB127_13
LBB127_10:
	jmp	LBB127_9
LBB127_11:
	.loc	15 1295 1
	movq	-16(%rbp), %rdi
	callq	__Unwind_Resume
LBB127_12:
	.loc	15 1304 1
	jmp	LBB127_11
LBB127_13:
	.loc	15 1304 2 is_stmt 0
	movq	-64(%rbp), %rax
	addq	$96, %rsp
	popq	%rbp
	retq
LBB127_14:
	.loc	15 1304 1
	jmp	LBB127_13
Ltmp984:
Lfunc_end127:
	.cfi_endproc
	.section	__TEXT,__gcc_except_tab
	.p2align	2
GCC_except_table127:
Lexception23:
	.byte	255
	.byte	255
	.byte	1
	.uleb128 Lcst_end23-Lcst_begin23
Lcst_begin23:
	.uleb128 Ltmp980-Lfunc_begin127
	.uleb128 Ltmp981-Ltmp980
	.uleb128 Ltmp982-Lfunc_begin127
	.byte	0
	.uleb128 Ltmp981-Lfunc_begin127
	.uleb128 Lfunc_end127-Ltmp981
	.byte	0
	.byte	0
Lcst_end23:
	.p2align	2

	.section	__TEXT,__text,regular,pure_instructions
	.globl	__ZN4core3cmp6min_by17h82c8c960036018a5E
	.p2align	4, 0x90
__ZN4core3cmp6min_by17h82c8c960036018a5E:
Lfunc_begin128:
	.loc	15 1204 0 is_stmt 1
	.cfi_startproc
	.cfi_personality 155, _rust_eh_personality
	.cfi_lsda 16, Lexception24
	pushq	%rbp
	.cfi_def_cfa_offset 16
	.cfi_offset %rbp, -16
	movq	%rsp, %rbp
	.cfi_def_cfa_register %rbp
	subq	$96, %rsp
	movq	%rdi, -80(%rbp)
	movq	%rsi, -72(%rbp)
Ltmp988:
	.loc	15 1209 11 prologue_end
	movb	$1, -25(%rbp)
	movb	$1, -26(%rbp)
	leaq	-80(%rbp), %rax
	movq	%rax, -48(%rbp)
	leaq	-72(%rbp), %rax
	movq	%rax, -40(%rbp)
	movq	-48(%rbp), %rdi
	movq	-40(%rbp), %rsi
Ltmp985:
	callq	__ZN4core3ops8function6FnOnce9call_once17hfb107fa84a2e8cdbE
Ltmp986:
	movb	%al, -81(%rbp)
	jmp	LBB128_3
LBB128_1:
	.loc	15 1213 1
	jmp	LBB128_4
LBB128_2:
Ltmp987:
	.loc	15 0 1 is_stmt 0
	movq	%rax, %rcx
	movl	%edx, %eax
	movq	%rcx, -16(%rbp)
	movl	%eax, -8(%rbp)
	jmp	LBB128_1
LBB128_3:
	movb	-81(%rbp), %al
	.loc	15 1209 11 is_stmt 1
	movb	%al, -49(%rbp)
	movb	-49(%rbp), %al
	.loc	15 1209 5 is_stmt 0
	incb	%al
	subb	$2, %al
	jb	LBB128_6
	jmp	LBB128_15
LBB128_15:
	jmp	LBB128_7
LBB128_4:
	.loc	15 1213 1 is_stmt 1
	testb	$1, -25(%rbp)
	jne	LBB128_12
	jmp	LBB128_11
	.loc	15 1209 11
	ud2
LBB128_6:
	.loc	15 1210 45
	movb	$0, -25(%rbp)
	movq	-80(%rbp), %rax
	movq	%rax, -64(%rbp)
	jmp	LBB128_8
LBB128_7:
	.loc	15 1211 30
	movb	$0, -26(%rbp)
	movq	-72(%rbp), %rax
	movq	%rax, -64(%rbp)
LBB128_8:
	.loc	15 1213 1
	testb	$1, -26(%rbp)
	jne	LBB128_10
LBB128_9:
	testb	$1, -25(%rbp)
	jne	LBB128_14
	jmp	LBB128_13
LBB128_10:
	jmp	LBB128_9
LBB128_11:
	.loc	15 1204 1
	movq	-16(%rbp), %rdi
	callq	__Unwind_Resume
LBB128_12:
	.loc	15 1213 1
	jmp	LBB128_11
LBB128_13:
	.loc	15 1213 2 is_stmt 0
	movq	-64(%rbp), %rax
	addq	$96, %rsp
	popq	%rbp
	retq
LBB128_14:
	.loc	15 1213 1
	jmp	LBB128_13
Ltmp989:
Lfunc_end128:
	.cfi_endproc
	.section	__TEXT,__gcc_except_tab
	.p2align	2
GCC_except_table128:
Lexception24:
	.byte	255
	.byte	255
	.byte	1
	.uleb128 Lcst_end24-Lcst_begin24
Lcst_begin24:
	.uleb128 Ltmp985-Lfunc_begin128
	.uleb128 Ltmp986-Ltmp985
	.uleb128 Ltmp987-Lfunc_begin128
	.byte	0
	.uleb128 Ltmp986-Lfunc_begin128
	.uleb128 Lfunc_end128-Ltmp986
	.byte	0
	.byte	0
Lcst_end24:
	.p2align	2

	.section	__TEXT,__text,regular,pure_instructions
	.globl	__ZN4core3cmp9PartialEq2ne17ha2fc54fc098ca142E
	.p2align	4, 0x90
__ZN4core3cmp9PartialEq2ne17ha2fc54fc098ca142E:
Lfunc_begin129:
	.loc	15 227 0 is_stmt 1
	.cfi_startproc
	pushq	%rbp
	.cfi_def_cfa_offset 16
	.cfi_offset %rbp, -16
	movq	%rsp, %rbp
	.cfi_def_cfa_register %rbp
	subq	$16, %rsp
	movq	%rdi, -16(%rbp)
	movq	%rsi, -8(%rbp)
Ltmp990:
	.loc	15 228 10 prologue_end
	callq	__ZN75_$LT$tracing_core..callsite..Identifier$u20$as$u20$core..cmp..PartialEq$GT$2eq17h1c515e9c39b56a80E
	.loc	15 228 9 is_stmt 0
	xorb	$-1, %al
	.loc	15 229 6 is_stmt 1
	andb	$1, %al
	movzbl	%al, %eax
	addq	$16, %rsp
	popq	%rbp
	retq
Ltmp991:
Lfunc_end129:
	.cfi_endproc

	.globl	__ZN4core3fmt10ArgumentV110new_binary17h1be42ba98c1e22feE
	.p2align	4, 0x90
__ZN4core3fmt10ArgumentV110new_binary17h1be42ba98c1e22feE:
Lfunc_begin130:
	.loc	37 327 0
	.cfi_startproc
	pushq	%rbp
	.cfi_def_cfa_offset 16
	.cfi_offset %rbp, -16
	movq	%rsp, %rbp
	.cfi_def_cfa_register %rbp
	subq	$56, %rsp
	movq	%rdi, -40(%rbp)
Ltmp992:
	.loc	37 328 23 prologue_end
	movq	%rdi, -32(%rbp)
	.loc	37 328 26 is_stmt 0
	movq	__ZN4core3fmt3num50_$LT$impl$u20$core..fmt..Binary$u20$for$u20$u8$GT$3fmt17hf421ad569b9399faE@GOTPCREL(%rip), %rax
	movq	%rax, -24(%rbp)
Ltmp993:
	.loc	37 347 42 is_stmt 1
	movq	%rax, -16(%rbp)
	movq	-16(%rbp), %rax
	.loc	37 347 68 is_stmt 0
	movq	%rdi, -8(%rbp)
	movq	-8(%rbp), %rcx
	.loc	37 347 18
	movq	%rcx, -56(%rbp)
	movq	%rax, -48(%rbp)
Ltmp994:
	.loc	37 329 10 is_stmt 1
	movq	-56(%rbp), %rax
	movq	-48(%rbp), %rdx
	addq	$56, %rsp
	popq	%rbp
	retq
Ltmp995:
Lfunc_end130:
	.cfi_endproc

	.globl	__ZN4core3fmt10ArgumentV111new_display17h512bfe6c11953ee0E
	.p2align	4, 0x90
__ZN4core3fmt10ArgumentV111new_display17h512bfe6c11953ee0E:
Lfunc_begin131:
	.loc	37 327 0
	.cfi_startproc
	pushq	%rbp
	.cfi_def_cfa_offset 16
	.cfi_offset %rbp, -16
	movq	%rsp, %rbp
	.cfi_def_cfa_register %rbp
	subq	$56, %rsp
	movq	%rdi, -40(%rbp)
Ltmp996:
	.loc	37 328 23 prologue_end
	movq	%rdi, -32(%rbp)
	.loc	37 328 26 is_stmt 0
	leaq	__ZN44_$LT$$RF$T$u20$as$u20$core..fmt..Display$GT$3fmt17h7e74dea0a895782fE(%rip), %rax
	movq	%rax, -24(%rbp)
Ltmp997:
	.loc	37 347 42 is_stmt 1
	movq	%rax, -16(%rbp)
	movq	-16(%rbp), %rax
	.loc	37 347 68 is_stmt 0
	movq	%rdi, -8(%rbp)
	movq	-8(%rbp), %rcx
	.loc	37 347 18
	movq	%rcx, -56(%rbp)
	movq	%rax, -48(%rbp)
Ltmp998:
	.loc	37 329 10 is_stmt 1
	movq	-56(%rbp), %rax
	movq	-48(%rbp), %rdx
	addq	$56, %rsp
	popq	%rbp
	retq
Ltmp999:
Lfunc_end131:
	.cfi_endproc

	.globl	__ZN4core3fmt10ArgumentV111new_display17h7608d6ba951486d6E
	.p2align	4, 0x90
__ZN4core3fmt10ArgumentV111new_display17h7608d6ba951486d6E:
Lfunc_begin132:
	.loc	37 327 0
	.cfi_startproc
	pushq	%rbp
	.cfi_def_cfa_offset 16
	.cfi_offset %rbp, -16
	movq	%rsp, %rbp
	.cfi_def_cfa_register %rbp
	subq	$56, %rsp
	movq	%rdi, -40(%rbp)
Ltmp1000:
	.loc	37 328 23 prologue_end
	movq	%rdi, -32(%rbp)
	.loc	37 328 26 is_stmt 0
	movq	__ZN59_$LT$core..fmt..Arguments$u20$as$u20$core..fmt..Display$GT$3fmt17h99a13c0e04235e08E@GOTPCREL(%rip), %rax
	movq	%rax, -24(%rbp)
Ltmp1001:
	.loc	37 347 42 is_stmt 1
	movq	%rax, -16(%rbp)
	movq	-16(%rbp), %rax
	.loc	37 347 68 is_stmt 0
	movq	%rdi, -8(%rbp)
	movq	-8(%rbp), %rcx
	.loc	37 347 18
	movq	%rcx, -56(%rbp)
	movq	%rax, -48(%rbp)
Ltmp1002:
	.loc	37 329 10 is_stmt 1
	movq	-56(%rbp), %rax
	movq	-48(%rbp), %rdx
	addq	$56, %rsp
	popq	%rbp
	retq
Ltmp1003:
Lfunc_end132:
	.cfi_endproc

	.globl	__ZN4core3fmt10ArgumentV111new_display17h886330e16cf4daf5E
	.p2align	4, 0x90
__ZN4core3fmt10ArgumentV111new_display17h886330e16cf4daf5E:
Lfunc_begin133:
	.loc	37 327 0
	.cfi_startproc
	pushq	%rbp
	.cfi_def_cfa_offset 16
	.cfi_offset %rbp, -16
	movq	%rsp, %rbp
	.cfi_def_cfa_register %rbp
	subq	$56, %rsp
	movq	%rdi, -40(%rbp)
Ltmp1004:
	.loc	37 328 23 prologue_end
	movq	%rdi, -32(%rbp)
	.loc	37 328 26 is_stmt 0
	leaq	__ZN44_$LT$$RF$T$u20$as$u20$core..fmt..Display$GT$3fmt17h0d3733ab631cd41eE(%rip), %rax
	movq	%rax, -24(%rbp)
Ltmp1005:
	.loc	37 347 42 is_stmt 1
	movq	%rax, -16(%rbp)
	movq	-16(%rbp), %rax
	.loc	37 347 68 is_stmt 0
	movq	%rdi, -8(%rbp)
	movq	-8(%rbp), %rcx
	.loc	37 347 18
	movq	%rcx, -56(%rbp)
	movq	%rax, -48(%rbp)
Ltmp1006:
	.loc	37 329 10 is_stmt 1
	movq	-56(%rbp), %rax
	movq	-48(%rbp), %rdx
	addq	$56, %rsp
	popq	%rbp
	retq
Ltmp1007:
Lfunc_end133:
	.cfi_endproc

	.globl	__ZN4core3fmt10ArgumentV111new_display17hcfbde96d8a1cf09bE
	.p2align	4, 0x90
__ZN4core3fmt10ArgumentV111new_display17hcfbde96d8a1cf09bE:
Lfunc_begin134:
	.loc	37 327 0
	.cfi_startproc
	pushq	%rbp
	.cfi_def_cfa_offset 16
	.cfi_offset %rbp, -16
	movq	%rsp, %rbp
	.cfi_def_cfa_register %rbp
	subq	$56, %rsp
	movq	%rdi, -40(%rbp)
Ltmp1008:
	.loc	37 328 23 prologue_end
	movq	%rdi, -32(%rbp)
	.loc	37 328 26 is_stmt 0
	movq	__ZN4core3fmt3num3imp52_$LT$impl$u20$core..fmt..Display$u20$for$u20$u32$GT$3fmt17h081c917b2ee7d4e9E@GOTPCREL(%rip), %rax
	movq	%rax, -24(%rbp)
Ltmp1009:
	.loc	37 347 42 is_stmt 1
	movq	%rax, -16(%rbp)
	movq	-16(%rbp), %rax
	.loc	37 347 68 is_stmt 0
	movq	%rdi, -8(%rbp)
	movq	-8(%rbp), %rcx
	.loc	37 347 18
	movq	%rcx, -56(%rbp)
	movq	%rax, -48(%rbp)
Ltmp1010:
	.loc	37 329 10 is_stmt 1
	movq	-56(%rbp), %rax
	movq	-48(%rbp), %rdx
	addq	$56, %rsp
	popq	%rbp
	retq
Ltmp1011:
Lfunc_end134:
	.cfi_endproc

	.globl	__ZN4core3fmt10ArgumentV111new_display17hd183d5f72cf4e166E
	.p2align	4, 0x90
__ZN4core3fmt10ArgumentV111new_display17hd183d5f72cf4e166E:
Lfunc_begin135:
	.loc	37 327 0
	.cfi_startproc
	pushq	%rbp
	.cfi_def_cfa_offset 16
	.cfi_offset %rbp, -16
	movq	%rsp, %rbp
	.cfi_def_cfa_register %rbp
	subq	$56, %rsp
	movq	%rdi, -40(%rbp)
Ltmp1012:
	.loc	37 328 23 prologue_end
	movq	%rdi, -32(%rbp)
	.loc	37 328 26 is_stmt 0
	leaq	__ZN68_$LT$tracing_core..field..FieldSet$u20$as$u20$core..fmt..Display$GT$3fmt17hc61bf08da1556136E(%rip), %rax
	movq	%rax, -24(%rbp)
Ltmp1013:
	.loc	37 347 42 is_stmt 1
	movq	%rax, -16(%rbp)
	movq	-16(%rbp), %rax
	.loc	37 347 68 is_stmt 0
	movq	%rdi, -8(%rbp)
	movq	-8(%rbp), %rcx
	.loc	37 347 18
	movq	%rcx, -56(%rbp)
	movq	%rax, -48(%rbp)
Ltmp1014:
	.loc	37 329 10 is_stmt 1
	movq	-56(%rbp), %rax
	movq	-48(%rbp), %rdx
	addq	$56, %rsp
	popq	%rbp
	retq
Ltmp1015:
Lfunc_end135:
	.cfi_endproc

	.globl	__ZN4core3fmt10ArgumentV111new_pointer17ha9ca5fb6a4dcac9dE
	.p2align	4, 0x90
__ZN4core3fmt10ArgumentV111new_pointer17ha9ca5fb6a4dcac9dE:
Lfunc_begin136:
	.loc	37 327 0
	.cfi_startproc
	pushq	%rbp
	.cfi_def_cfa_offset 16
	.cfi_offset %rbp, -16
	movq	%rsp, %rbp
	.cfi_def_cfa_register %rbp
	subq	$56, %rsp
	movq	%rdi, -40(%rbp)
Ltmp1016:
	.loc	37 328 23 prologue_end
	movq	%rdi, -32(%rbp)
	.loc	37 328 26 is_stmt 0
	leaq	__ZN64_$LT$alloc..sync..Arc$LT$T$GT$$u20$as$u20$core..fmt..Pointer$GT$3fmt17h1803b316ab53dd1fE(%rip), %rax
	movq	%rax, -24(%rbp)
Ltmp1017:
	.loc	37 347 42 is_stmt 1
	movq	%rax, -16(%rbp)
	movq	-16(%rbp), %rax
	.loc	37 347 68 is_stmt 0
	movq	%rdi, -8(%rbp)
	movq	-8(%rbp), %rcx
	.loc	37 347 18
	movq	%rcx, -56(%rbp)
	movq	%rax, -48(%rbp)
Ltmp1018:
	.loc	37 329 10 is_stmt 1
	movq	-56(%rbp), %rax
	movq	-48(%rbp), %rdx
	addq	$56, %rsp
	popq	%rbp
	retq
Ltmp1019:
Lfunc_end136:
	.cfi_endproc

	.globl	__ZN4core3fmt10ArgumentV111new_pointer17hedf6a1da38b4d435E
	.p2align	4, 0x90
__ZN4core3fmt10ArgumentV111new_pointer17hedf6a1da38b4d435E:
Lfunc_begin137:
	.loc	37 327 0
	.cfi_startproc
	pushq	%rbp
	.cfi_def_cfa_offset 16
	.cfi_offset %rbp, -16
	movq	%rsp, %rbp
	.cfi_def_cfa_register %rbp
	subq	$56, %rsp
	movq	%rdi, -40(%rbp)
Ltmp1020:
	.loc	37 328 23 prologue_end
	movq	%rdi, -32(%rbp)
	.loc	37 328 26 is_stmt 0
	leaq	__ZN44_$LT$$RF$T$u20$as$u20$core..fmt..Pointer$GT$3fmt17he841cd536357ef28E(%rip), %rax
	movq	%rax, -24(%rbp)
Ltmp1021:
	.loc	37 347 42 is_stmt 1
	movq	%rax, -16(%rbp)
	movq	-16(%rbp), %rax
	.loc	37 347 68 is_stmt 0
	movq	%rdi, -8(%rbp)
	movq	-8(%rbp), %rcx
	.loc	37 347 18
	movq	%rcx, -56(%rbp)
	movq	%rax, -48(%rbp)
Ltmp1022:
	.loc	37 329 10 is_stmt 1
	movq	-56(%rbp), %rax
	movq	-48(%rbp), %rdx
	addq	$56, %rsp
	popq	%rbp
	retq
Ltmp1023:
Lfunc_end137:
	.cfi_endproc

	.globl	__ZN4core3fmt10ArgumentV19new_debug17h042ac4a006fc3270E
	.p2align	4, 0x90
__ZN4core3fmt10ArgumentV19new_debug17h042ac4a006fc3270E:
Lfunc_begin138:
	.loc	37 327 0
	.cfi_startproc
	pushq	%rbp
	.cfi_def_cfa_offset 16
	.cfi_offset %rbp, -16
	movq	%rsp, %rbp
	.cfi_def_cfa_register %rbp
	subq	$56, %rsp
	movq	%rdi, -40(%rbp)
Ltmp1024:
	.loc	37 328 23 prologue_end
	movq	%rdi, -32(%rbp)
	.loc	37 328 26 is_stmt 0
	leaq	__ZN42_$LT$$RF$T$u20$as$u20$core..fmt..Debug$GT$3fmt17hac7a3cd56824e4f0E(%rip), %rax
	movq	%rax, -24(%rbp)
Ltmp1025:
	.loc	37 347 42 is_stmt 1
	movq	%rax, -16(%rbp)
	movq	-16(%rbp), %rax
	.loc	37 347 68 is_stmt 0
	movq	%rdi, -8(%rbp)
	movq	-8(%rbp), %rcx
	.loc	37 347 18
	movq	%rcx, -56(%rbp)
	movq	%rax, -48(%rbp)
Ltmp1026:
	.loc	37 329 10 is_stmt 1
	movq	-56(%rbp), %rax
	movq	-48(%rbp), %rdx
	addq	$56, %rsp
	popq	%rbp
	retq
Ltmp1027:
Lfunc_end138:
	.cfi_endproc

	.p2align	4, 0x90
__ZN4core3fmt3num49_$LT$impl$u20$core..fmt..Debug$u20$for$u20$u8$GT$3fmt17hb75601e8ebeb2f87E:
Lfunc_begin139:
	.file	53 "/rustc/2c8cc343237b8f7d5a3c3703e3a87f2eb2c54a74/library/core/src/fmt" "num.rs"
	.loc	53 185 0
	.cfi_startproc
	pushq	%rbp
	.cfi_def_cfa_offset 16
	.cfi_offset %rbp, -16
	movq	%rsp, %rbp
	.cfi_def_cfa_register %rbp
	subq	$48, %rsp
	movq	%rsi, -48(%rbp)
	movq	%rdi, %rax
	movq	-48(%rbp), %rdi
	movq	%rax, -40(%rbp)
	movq	%rdi, -32(%rbp)
	movq	%rax, -16(%rbp)
	movq	%rdi, -8(%rbp)
Ltmp1028:
	.loc	53 186 20 prologue_end
	callq	__ZN4core3fmt9Formatter15debug_lower_hex17h0921e6b9188d914eE
	testb	$1, %al
	jne	LBB139_2
	.loc	53 0 20 is_stmt 0
	movq	-32(%rbp), %rdi
	.loc	53 188 27 is_stmt 1
	callq	__ZN4core3fmt9Formatter15debug_upper_hex17h8ce487049a6cccf8E
	testb	$1, %al
	jne	LBB139_5
	jmp	LBB139_4
LBB139_2:
	.loc	53 0 27 is_stmt 0
	movq	-32(%rbp), %rsi
	movq	-40(%rbp), %rdi
	.loc	53 187 21 is_stmt 1
	callq	__ZN4core3fmt3num52_$LT$impl$u20$core..fmt..LowerHex$u20$for$u20$u8$GT$3fmt17h5cfdcd8eebabca5eE
	andb	$1, %al
	movb	%al, -17(%rbp)
LBB139_3:
	.loc	53 193 14
	movb	-17(%rbp), %al
	andb	$1, %al
	movzbl	%al, %eax
	addq	$48, %rsp
	popq	%rbp
	retq
LBB139_4:
	.loc	53 0 14 is_stmt 0
	movq	-32(%rbp), %rsi
	movq	-40(%rbp), %rdi
	.loc	53 191 21 is_stmt 1
	callq	__ZN4core3fmt3num3imp51_$LT$impl$u20$core..fmt..Display$u20$for$u20$u8$GT$3fmt17he2a0798a745fb926E
	andb	$1, %al
	movb	%al, -17(%rbp)
	.loc	53 188 24
	jmp	LBB139_6
LBB139_5:
	.loc	53 0 24 is_stmt 0
	movq	-32(%rbp), %rsi
	movq	-40(%rbp), %rdi
	.loc	53 189 21 is_stmt 1
	callq	__ZN4core3fmt3num52_$LT$impl$u20$core..fmt..UpperHex$u20$for$u20$u8$GT$3fmt17h0d44eda8e53b13dbE
	andb	$1, %al
	movb	%al, -17(%rbp)
LBB139_6:
	.loc	53 186 17
	jmp	LBB139_3
Ltmp1029:
Lfunc_end139:
	.cfi_endproc

	.p2align	4, 0x90
__ZN4core3fmt3num50_$LT$impl$u20$core..fmt..Debug$u20$for$u20$i32$GT$3fmt17hc507f77c4521a3b0E:
Lfunc_begin140:
	.loc	53 185 0
	.cfi_startproc
	pushq	%rbp
	.cfi_def_cfa_offset 16
	.cfi_offset %rbp, -16
	movq	%rsp, %rbp
	.cfi_def_cfa_register %rbp
	subq	$48, %rsp
	movq	%rsi, -48(%rbp)
	movq	%rdi, %rax
	movq	-48(%rbp), %rdi
	movq	%rax, -40(%rbp)
	movq	%rdi, -32(%rbp)
	movq	%rax, -16(%rbp)
	movq	%rdi, -8(%rbp)
Ltmp1030:
	.loc	53 186 20 prologue_end
	callq	__ZN4core3fmt9Formatter15debug_lower_hex17h0921e6b9188d914eE
	testb	$1, %al
	jne	LBB140_2
	.loc	53 0 20 is_stmt 0
	movq	-32(%rbp), %rdi
	.loc	53 188 27 is_stmt 1
	callq	__ZN4core3fmt9Formatter15debug_upper_hex17h8ce487049a6cccf8E
	testb	$1, %al
	jne	LBB140_5
	jmp	LBB140_4
LBB140_2:
	.loc	53 0 27 is_stmt 0
	movq	-32(%rbp), %rsi
	movq	-40(%rbp), %rdi
	.loc	53 187 21 is_stmt 1
	callq	__ZN4core3fmt3num53_$LT$impl$u20$core..fmt..LowerHex$u20$for$u20$i32$GT$3fmt17hd6250c25a4eb7bb1E
	andb	$1, %al
	movb	%al, -17(%rbp)
LBB140_3:
	.loc	53 193 14
	movb	-17(%rbp), %al
	andb	$1, %al
	movzbl	%al, %eax
	addq	$48, %rsp
	popq	%rbp
	retq
LBB140_4:
	.loc	53 0 14 is_stmt 0
	movq	-32(%rbp), %rsi
	movq	-40(%rbp), %rdi
	.loc	53 191 21 is_stmt 1
	callq	__ZN4core3fmt3num3imp52_$LT$impl$u20$core..fmt..Display$u20$for$u20$i32$GT$3fmt17hd51e25ed68474bbaE
	andb	$1, %al
	movb	%al, -17(%rbp)
	.loc	53 188 24
	jmp	LBB140_6
LBB140_5:
	.loc	53 0 24 is_stmt 0
	movq	-32(%rbp), %rsi
	movq	-40(%rbp), %rdi
	.loc	53 189 21 is_stmt 1
	callq	__ZN4core3fmt3num53_$LT$impl$u20$core..fmt..UpperHex$u20$for$u20$i32$GT$3fmt17hfa20a470c47e8721E
	andb	$1, %al
	movb	%al, -17(%rbp)
LBB140_6:
	.loc	53 186 17
	jmp	LBB140_3
Ltmp1031:
Lfunc_end140:
	.cfi_endproc

	.p2align	4, 0x90
__ZN4core3fmt3num50_$LT$impl$u20$core..fmt..Debug$u20$for$u20$i64$GT$3fmt17hc11e1a747269cc52E:
Lfunc_begin141:
	.loc	53 185 0
	.cfi_startproc
	pushq	%rbp
	.cfi_def_cfa_offset 16
	.cfi_offset %rbp, -16
	movq	%rsp, %rbp
	.cfi_def_cfa_register %rbp
	subq	$48, %rsp
	movq	%rsi, -48(%rbp)
	movq	%rdi, %rax
	movq	-48(%rbp), %rdi
	movq	%rax, -40(%rbp)
	movq	%rdi, -32(%rbp)
	movq	%rax, -16(%rbp)
	movq	%rdi, -8(%rbp)
Ltmp1032:
	.loc	53 186 20 prologue_end
	callq	__ZN4core3fmt9Formatter15debug_lower_hex17h0921e6b9188d914eE
	testb	$1, %al
	jne	LBB141_2
	.loc	53 0 20 is_stmt 0
	movq	-32(%rbp), %rdi
	.loc	53 188 27 is_stmt 1
	callq	__ZN4core3fmt9Formatter15debug_upper_hex17h8ce487049a6cccf8E
	testb	$1, %al
	jne	LBB141_5
	jmp	LBB141_4
LBB141_2:
	.loc	53 0 27 is_stmt 0
	movq	-32(%rbp), %rsi
	movq	-40(%rbp), %rdi
	.loc	53 187 21 is_stmt 1
	callq	__ZN4core3fmt3num53_$LT$impl$u20$core..fmt..LowerHex$u20$for$u20$i64$GT$3fmt17h3e596fe25e0c68d0E
	andb	$1, %al
	movb	%al, -17(%rbp)
LBB141_3:
	.loc	53 193 14
	movb	-17(%rbp), %al
	andb	$1, %al
	movzbl	%al, %eax
	addq	$48, %rsp
	popq	%rbp
	retq
LBB141_4:
	.loc	53 0 14 is_stmt 0
	movq	-32(%rbp), %rsi
	movq	-40(%rbp), %rdi
	.loc	53 191 21 is_stmt 1
	callq	__ZN4core3fmt3num3imp52_$LT$impl$u20$core..fmt..Display$u20$for$u20$i64$GT$3fmt17h02bd744edfb73c37E
	andb	$1, %al
	movb	%al, -17(%rbp)
	.loc	53 188 24
	jmp	LBB141_6
LBB141_5:
	.loc	53 0 24 is_stmt 0
	movq	-32(%rbp), %rsi
	movq	-40(%rbp), %rdi
	.loc	53 189 21 is_stmt 1
	callq	__ZN4core3fmt3num53_$LT$impl$u20$core..fmt..UpperHex$u20$for$u20$i64$GT$3fmt17h0d2a2d95d47fd102E
	andb	$1, %al
	movb	%al, -17(%rbp)
LBB141_6:
	.loc	53 186 17
	jmp	LBB141_3
Ltmp1033:
Lfunc_end141:
	.cfi_endproc

	.p2align	4, 0x90
__ZN4core3fmt3num50_$LT$impl$u20$core..fmt..Debug$u20$for$u20$u32$GT$3fmt17h4b06791fa2b3219eE:
Lfunc_begin142:
	.loc	53 185 0
	.cfi_startproc
	pushq	%rbp
	.cfi_def_cfa_offset 16
	.cfi_offset %rbp, -16
	movq	%rsp, %rbp
	.cfi_def_cfa_register %rbp
	subq	$48, %rsp
	movq	%rsi, -48(%rbp)
	movq	%rdi, %rax
	movq	-48(%rbp), %rdi
	movq	%rax, -40(%rbp)
	movq	%rdi, -32(%rbp)
	movq	%rax, -16(%rbp)
	movq	%rdi, -8(%rbp)
Ltmp1034:
	.loc	53 186 20 prologue_end
	callq	__ZN4core3fmt9Formatter15debug_lower_hex17h0921e6b9188d914eE
	testb	$1, %al
	jne	LBB142_2
	.loc	53 0 20 is_stmt 0
	movq	-32(%rbp), %rdi
	.loc	53 188 27 is_stmt 1
	callq	__ZN4core3fmt9Formatter15debug_upper_hex17h8ce487049a6cccf8E
	testb	$1, %al
	jne	LBB142_5
	jmp	LBB142_4
LBB142_2:
	.loc	53 0 27 is_stmt 0
	movq	-32(%rbp), %rsi
	movq	-40(%rbp), %rdi
	.loc	53 187 21 is_stmt 1
	callq	__ZN4core3fmt3num53_$LT$impl$u20$core..fmt..LowerHex$u20$for$u20$u32$GT$3fmt17h794cf20b87700632E
	andb	$1, %al
	movb	%al, -17(%rbp)
LBB142_3:
	.loc	53 193 14
	movb	-17(%rbp), %al
	andb	$1, %al
	movzbl	%al, %eax
	addq	$48, %rsp
	popq	%rbp
	retq
LBB142_4:
	.loc	53 0 14 is_stmt 0
	movq	-32(%rbp), %rsi
	movq	-40(%rbp), %rdi
	.loc	53 191 21 is_stmt 1
	callq	__ZN4core3fmt3num3imp52_$LT$impl$u20$core..fmt..Display$u20$for$u20$u32$GT$3fmt17h081c917b2ee7d4e9E
	andb	$1, %al
	movb	%al, -17(%rbp)
	.loc	53 188 24
	jmp	LBB142_6
LBB142_5:
	.loc	53 0 24 is_stmt 0
	movq	-32(%rbp), %rsi
	movq	-40(%rbp), %rdi
	.loc	53 189 21 is_stmt 1
	callq	__ZN4core3fmt3num53_$LT$impl$u20$core..fmt..UpperHex$u20$for$u20$u32$GT$3fmt17ha96bbefe8f663d11E
	andb	$1, %al
	movb	%al, -17(%rbp)
LBB142_6:
	.loc	53 186 17
	jmp	LBB142_3
Ltmp1035:
Lfunc_end142:
	.cfi_endproc

	.p2align	4, 0x90
__ZN4core3fmt3num50_$LT$impl$u20$core..fmt..Debug$u20$for$u20$u64$GT$3fmt17hfd08b8b72ff93dd1E:
Lfunc_begin143:
	.loc	53 185 0
	.cfi_startproc
	pushq	%rbp
	.cfi_def_cfa_offset 16
	.cfi_offset %rbp, -16
	movq	%rsp, %rbp
	.cfi_def_cfa_register %rbp
	subq	$48, %rsp
	movq	%rsi, -48(%rbp)
	movq	%rdi, %rax
	movq	-48(%rbp), %rdi
	movq	%rax, -40(%rbp)
	movq	%rdi, -32(%rbp)
	movq	%rax, -16(%rbp)
	movq	%rdi, -8(%rbp)
Ltmp1036:
	.loc	53 186 20 prologue_end
	callq	__ZN4core3fmt9Formatter15debug_lower_hex17h0921e6b9188d914eE
	testb	$1, %al
	jne	LBB143_2
	.loc	53 0 20 is_stmt 0
	movq	-32(%rbp), %rdi
	.loc	53 188 27 is_stmt 1
	callq	__ZN4core3fmt9Formatter15debug_upper_hex17h8ce487049a6cccf8E
	testb	$1, %al
	jne	LBB143_5
	jmp	LBB143_4
LBB143_2:
	.loc	53 0 27 is_stmt 0
	movq	-32(%rbp), %rsi
	movq	-40(%rbp), %rdi
	.loc	53 187 21 is_stmt 1
	callq	__ZN4core3fmt3num53_$LT$impl$u20$core..fmt..LowerHex$u20$for$u20$u64$GT$3fmt17h9f1a647630acba52E
	andb	$1, %al
	movb	%al, -17(%rbp)
LBB143_3:
	.loc	53 193 14
	movb	-17(%rbp), %al
	andb	$1, %al
	movzbl	%al, %eax
	addq	$48, %rsp
	popq	%rbp
	retq
LBB143_4:
	.loc	53 0 14 is_stmt 0
	movq	-32(%rbp), %rsi
	movq	-40(%rbp), %rdi
	.loc	53 191 21 is_stmt 1
	callq	__ZN4core3fmt3num3imp52_$LT$impl$u20$core..fmt..Display$u20$for$u20$u64$GT$3fmt17hc0b393b21668e9bfE
	andb	$1, %al
	movb	%al, -17(%rbp)
	.loc	53 188 24
	jmp	LBB143_6
LBB143_5:
	.loc	53 0 24 is_stmt 0
	movq	-32(%rbp), %rsi
	movq	-40(%rbp), %rdi
	.loc	53 189 21 is_stmt 1
	callq	__ZN4core3fmt3num53_$LT$impl$u20$core..fmt..UpperHex$u20$for$u20$u64$GT$3fmt17h9873482f6824a169E
	andb	$1, %al
	movb	%al, -17(%rbp)
LBB143_6:
	.loc	53 186 17
	jmp	LBB143_3
Ltmp1037:
Lfunc_end143:
	.cfi_endproc

	.p2align	4, 0x90
__ZN4core3fmt3num51_$LT$impl$u20$core..fmt..Debug$u20$for$u20$i128$GT$3fmt17hb1f6bcf3de61710dE:
Lfunc_begin144:
	.loc	53 185 0
	.cfi_startproc
	pushq	%rbp
	.cfi_def_cfa_offset 16
	.cfi_offset %rbp, -16
	movq	%rsp, %rbp
	.cfi_def_cfa_register %rbp
	subq	$48, %rsp
	movq	%rsi, -48(%rbp)
	movq	%rdi, %rax
	movq	-48(%rbp), %rdi
	movq	%rax, -40(%rbp)
	movq	%rdi, -32(%rbp)
	movq	%rax, -16(%rbp)
	movq	%rdi, -8(%rbp)
Ltmp1038:
	.loc	53 186 20 prologue_end
	callq	__ZN4core3fmt9Formatter15debug_lower_hex17h0921e6b9188d914eE
	testb	$1, %al
	jne	LBB144_2
	.loc	53 0 20 is_stmt 0
	movq	-32(%rbp), %rdi
	.loc	53 188 27 is_stmt 1
	callq	__ZN4core3fmt9Formatter15debug_upper_hex17h8ce487049a6cccf8E
	testb	$1, %al
	jne	LBB144_5
	jmp	LBB144_4
LBB144_2:
	.loc	53 0 27 is_stmt 0
	movq	-32(%rbp), %rsi
	movq	-40(%rbp), %rdi
	.loc	53 187 21 is_stmt 1
	callq	__ZN4core3fmt3num54_$LT$impl$u20$core..fmt..LowerHex$u20$for$u20$i128$GT$3fmt17h987a590418a99063E
	andb	$1, %al
	movb	%al, -17(%rbp)
LBB144_3:
	.loc	53 193 14
	movb	-17(%rbp), %al
	andb	$1, %al
	movzbl	%al, %eax
	addq	$48, %rsp
	popq	%rbp
	retq
LBB144_4:
	.loc	53 0 14 is_stmt 0
	movq	-32(%rbp), %rsi
	movq	-40(%rbp), %rdi
	.loc	53 191 21 is_stmt 1
	callq	__ZN4core3fmt3num53_$LT$impl$u20$core..fmt..Display$u20$for$u20$i128$GT$3fmt17hcb1385213c474154E
	andb	$1, %al
	movb	%al, -17(%rbp)
	.loc	53 188 24
	jmp	LBB144_6
LBB144_5:
	.loc	53 0 24 is_stmt 0
	movq	-32(%rbp), %rsi
	movq	-40(%rbp), %rdi
	.loc	53 189 21 is_stmt 1
	callq	__ZN4core3fmt3num54_$LT$impl$u20$core..fmt..UpperHex$u20$for$u20$i128$GT$3fmt17hd893dd3bf6bdcdeeE
	andb	$1, %al
	movb	%al, -17(%rbp)
LBB144_6:
	.loc	53 186 17
	jmp	LBB144_3
Ltmp1039:
Lfunc_end144:
	.cfi_endproc

	.p2align	4, 0x90
__ZN4core3fmt3num51_$LT$impl$u20$core..fmt..Debug$u20$for$u20$u128$GT$3fmt17h475a111216b95baaE:
Lfunc_begin145:
	.loc	53 185 0
	.cfi_startproc
	pushq	%rbp
	.cfi_def_cfa_offset 16
	.cfi_offset %rbp, -16
	movq	%rsp, %rbp
	.cfi_def_cfa_register %rbp
	subq	$48, %rsp
	movq	%rsi, -48(%rbp)
	movq	%rdi, %rax
	movq	-48(%rbp), %rdi
	movq	%rax, -40(%rbp)
	movq	%rdi, -32(%rbp)
	movq	%rax, -16(%rbp)
	movq	%rdi, -8(%rbp)
Ltmp1040:
	.loc	53 186 20 prologue_end
	callq	__ZN4core3fmt9Formatter15debug_lower_hex17h0921e6b9188d914eE
	testb	$1, %al
	jne	LBB145_2
	.loc	53 0 20 is_stmt 0
	movq	-32(%rbp), %rdi
	.loc	53 188 27 is_stmt 1
	callq	__ZN4core3fmt9Formatter15debug_upper_hex17h8ce487049a6cccf8E
	testb	$1, %al
	jne	LBB145_5
	jmp	LBB145_4
LBB145_2:
	.loc	53 0 27 is_stmt 0
	movq	-32(%rbp), %rsi
	movq	-40(%rbp), %rdi
	.loc	53 187 21 is_stmt 1
	callq	__ZN4core3fmt3num54_$LT$impl$u20$core..fmt..LowerHex$u20$for$u20$u128$GT$3fmt17h88b81feff6150753E
	andb	$1, %al
	movb	%al, -17(%rbp)
LBB145_3:
	.loc	53 193 14
	movb	-17(%rbp), %al
	andb	$1, %al
	movzbl	%al, %eax
	addq	$48, %rsp
	popq	%rbp
	retq
LBB145_4:
	.loc	53 0 14 is_stmt 0
	movq	-32(%rbp), %rsi
	movq	-40(%rbp), %rdi
	.loc	53 191 21 is_stmt 1
	callq	__ZN4core3fmt3num53_$LT$impl$u20$core..fmt..Display$u20$for$u20$u128$GT$3fmt17h98260811f598099bE
	andb	$1, %al
	movb	%al, -17(%rbp)
	.loc	53 188 24
	jmp	LBB145_6
LBB145_5:
	.loc	53 0 24 is_stmt 0
	movq	-32(%rbp), %rsi
	movq	-40(%rbp), %rdi
	.loc	53 189 21 is_stmt 1
	callq	__ZN4core3fmt3num54_$LT$impl$u20$core..fmt..UpperHex$u20$for$u20$u128$GT$3fmt17h575515c5e157980eE
	andb	$1, %al
	movb	%al, -17(%rbp)
LBB145_6:
	.loc	53 186 17
	jmp	LBB145_3
Ltmp1041:
Lfunc_end145:
	.cfi_endproc

	.p2align	4, 0x90
__ZN4core3fmt3num52_$LT$impl$u20$core..fmt..Debug$u20$for$u20$usize$GT$3fmt17h7e090101ea21498cE:
Lfunc_begin146:
	.loc	53 185 0
	.cfi_startproc
	pushq	%rbp
	.cfi_def_cfa_offset 16
	.cfi_offset %rbp, -16
	movq	%rsp, %rbp
	.cfi_def_cfa_register %rbp
	subq	$48, %rsp
	movq	%rsi, -48(%rbp)
	movq	%rdi, %rax
	movq	-48(%rbp), %rdi
	movq	%rax, -40(%rbp)
	movq	%rdi, -32(%rbp)
	movq	%rax, -16(%rbp)
	movq	%rdi, -8(%rbp)
Ltmp1042:
	.loc	53 186 20 prologue_end
	callq	__ZN4core3fmt9Formatter15debug_lower_hex17h0921e6b9188d914eE
	testb	$1, %al
	jne	LBB146_2
	.loc	53 0 20 is_stmt 0
	movq	-32(%rbp), %rdi
	.loc	53 188 27 is_stmt 1
	callq	__ZN4core3fmt9Formatter15debug_upper_hex17h8ce487049a6cccf8E
	testb	$1, %al
	jne	LBB146_5
	jmp	LBB146_4
LBB146_2:
	.loc	53 0 27 is_stmt 0
	movq	-32(%rbp), %rsi
	movq	-40(%rbp), %rdi
	.loc	53 187 21 is_stmt 1
	callq	__ZN4core3fmt3num55_$LT$impl$u20$core..fmt..LowerHex$u20$for$u20$usize$GT$3fmt17h84f349805fe63f8dE
	andb	$1, %al
	movb	%al, -17(%rbp)
LBB146_3:
	.loc	53 193 14
	movb	-17(%rbp), %al
	andb	$1, %al
	movzbl	%al, %eax
	addq	$48, %rsp
	popq	%rbp
	retq
LBB146_4:
	.loc	53 0 14 is_stmt 0
	movq	-32(%rbp), %rsi
	movq	-40(%rbp), %rdi
	.loc	53 191 21 is_stmt 1
	callq	__ZN4core3fmt3num3imp54_$LT$impl$u20$core..fmt..Display$u20$for$u20$usize$GT$3fmt17ha5c925fcd7ed33faE
	andb	$1, %al
	movb	%al, -17(%rbp)
	.loc	53 188 24
	jmp	LBB146_6
LBB146_5:
	.loc	53 0 24 is_stmt 0
	movq	-32(%rbp), %rsi
	movq	-40(%rbp), %rdi
	.loc	53 189 21 is_stmt 1
	callq	__ZN4core3fmt3num55_$LT$impl$u20$core..fmt..UpperHex$u20$for$u20$usize$GT$3fmt17h49aa717311edc293E
	andb	$1, %al
	movb	%al, -17(%rbp)
LBB146_6:
	.loc	53 186 17
	jmp	LBB146_3
Ltmp1043:
Lfunc_end146:
	.cfi_endproc

	.globl	__ZN4core3fmt5Write10write_char17h72f6a8a9ebe850baE
	.p2align	4, 0x90
__ZN4core3fmt5Write10write_char17h72f6a8a9ebe850baE:
Lfunc_begin147:
	.loc	37 168 0
	.cfi_startproc
	pushq	%rbp
	.cfi_def_cfa_offset 16
	.cfi_offset %rbp, -16
	movq	%rsp, %rbp
	.cfi_def_cfa_register %rbp
	subq	$80, %rsp
	movq	%rdi, -64(%rbp)
	movl	%esi, -68(%rbp)
	movq	%rdi, -48(%rbp)
	movl	%esi, -40(%rbp)
Ltmp1044:
	.loc	37 169 24 prologue_end
	movl	%esi, -36(%rbp)
	.loc	37 169 43 is_stmt 0
	leaq	-52(%rbp), %rdi
	xorl	%esi, %esi
	movl	$4, %edx
	callq	_memset
	movl	-68(%rbp), %edi
	.loc	37 169 38
	leaq	-52(%rbp), %rax
	movq	%rax, -32(%rbp)
	movq	$4, -24(%rbp)
Ltmp1045:
	.file	54 "/rustc/2c8cc343237b8f7d5a3c3703e3a87f2eb2c54a74/library/core/src/char" "methods.rs"
	.loc	54 663 42 is_stmt 1
	leaq	-52(%rbp), %rsi
	movl	$4, %edx
	callq	__ZN4core4char7methods15encode_utf8_raw17h851bf72d12c692a9E
	movq	-64(%rbp), %rdi
	movq	%rax, %rsi
	movq	%rsi, -16(%rbp)
	movq	%rdx, -8(%rbp)
Ltmp1046:
	.loc	37 169 9
	callq	__ZN80_$LT$std..io..Write..write_fmt..Adapter$LT$T$GT$$u20$as$u20$core..fmt..Write$GT$9write_str17h96c1937cab9f6349E
	.loc	37 170 6
	andb	$1, %al
	movzbl	%al, %eax
	addq	$80, %rsp
	popq	%rbp
	retq
Ltmp1047:
Lfunc_end147:
	.cfi_endproc

	.globl	__ZN4core3fmt5Write9write_fmt17h3cf418234f95da98E
	.p2align	4, 0x90
__ZN4core3fmt5Write9write_fmt17h3cf418234f95da98E:
Lfunc_begin148:
	.loc	37 196 0
	.cfi_startproc
	pushq	%rbp
	.cfi_def_cfa_offset 16
	.cfi_offset %rbp, -16
	movq	%rsp, %rbp
	.cfi_def_cfa_register %rbp
	subq	$64, %rsp
	movq	%rdi, -56(%rbp)
Ltmp1048:
	.loc	37 197 26 prologue_end
	leaq	-48(%rbp), %rdi
	movl	$48, %edx
	callq	_memcpy
Ltmp1049:
	.loc	37 197 9 is_stmt 0
	leaq	-56(%rbp), %rdi
	leaq	l___unnamed_2(%rip), %rsi
	leaq	-48(%rbp), %rdx
	callq	__ZN4core3fmt5write17hfa389e524187f2c6E
	.loc	37 198 6 is_stmt 1
	andb	$1, %al
	movzbl	%al, %eax
	addq	$64, %rsp
	popq	%rbp
	retq
Ltmp1050:
Lfunc_end148:
	.cfi_endproc

	.globl	__ZN4core3fmt8builders8DebugSet7entries17h7d6f9f8b073b52c6E
	.p2align	4, 0x90
__ZN4core3fmt8builders8DebugSet7entries17h7d6f9f8b073b52c6E:
Lfunc_begin149:
	.file	55 "/rustc/2c8cc343237b8f7d5a3c3703e3a87f2eb2c54a74/library/core/src/fmt" "builders.rs"
	.loc	55 497 0
	.cfi_startproc
	.cfi_personality 155, _rust_eh_personality
	.cfi_lsda 16, Lexception25
	pushq	%rbp
	.cfi_def_cfa_offset 16
	.cfi_offset %rbp, -16
	movq	%rsp, %rbp
	.cfi_def_cfa_register %rbp
	subq	$112, %rsp
	movq	%rdx, -96(%rbp)
	movq	%rsi, %rax
	movq	-96(%rbp), %rsi
	movq	%rax, -88(%rbp)
	movq	%rdi, %rax
	movq	-88(%rbp), %rdi
	movq	%rax, -80(%rbp)
	movq	%rax, -40(%rbp)
	movq	%rdi, -32(%rbp)
	movq	%rsi, -24(%rbp)
Ltmp1057:
	.loc	55 502 22 prologue_end
	callq	__ZN63_$LT$I$u20$as$u20$core..iter..traits..collect..IntoIterator$GT$9into_iter17h595a38cca72a57bbE
	movq	%rax, -72(%rbp)
	movq	%rdx, -64(%rbp)
LBB149_1:
Ltmp1051:
	.loc	55 0 22 is_stmt 0
	leaq	-72(%rbp), %rdi
Ltmp1058:
	.loc	55 502 22
	callq	__ZN102_$LT$core..iter..adapters..map..Map$LT$I$C$F$GT$$u20$as$u20$core..iter..traits..iterator..Iterator$GT$4next17h1ee2ca7d5dd5b5a4E
Ltmp1052:
	movq	%rax, -104(%rbp)
	jmp	LBB149_4
Ltmp1059:
LBB149_2:
	.loc	55 497 5 is_stmt 1
	movq	-16(%rbp), %rdi
	callq	__Unwind_Resume
LBB149_3:
Ltmp1053:
	.loc	55 0 5 is_stmt 0
	movq	%rax, %rcx
	movl	%edx, %eax
	movq	%rcx, -16(%rbp)
	movl	%eax, -8(%rbp)
	jmp	LBB149_2
LBB149_4:
	movq	-104(%rbp), %rax
Ltmp1060:
	.loc	55 502 22 is_stmt 1
	movq	%rax, -56(%rbp)
	movq	-56(%rbp), %rdx
	movl	$1, %eax
	xorl	%ecx, %ecx
	cmpq	$0, %rdx
	cmoveq	%rcx, %rax
	cmpq	$0, %rax
	jne	LBB149_6
Ltmp1061:
	.loc	55 0 22 is_stmt 0
	movq	-80(%rbp), %rax
	.loc	55 506 6 is_stmt 1
	addq	$112, %rsp
	popq	%rbp
	retq
LBB149_6:
	.loc	55 0 6 is_stmt 0
	movq	-80(%rbp), %rdi
Ltmp1062:
	.loc	55 502 13 is_stmt 1
	movq	-56(%rbp), %rax
	movq	%rax, -48(%rbp)
Ltmp1054:
Ltmp1063:
	.loc	55 503 13
	leaq	l___unnamed_3(%rip), %rdx
	leaq	-48(%rbp), %rsi
	callq	__ZN4core3fmt8builders8DebugSet5entry17hd60fb59ebab587e4E
Ltmp1055:
	jmp	LBB149_9
Ltmp1064:
LBB149_7:
	.loc	55 504 9
	jmp	LBB149_2
LBB149_8:
Ltmp1056:
	.loc	55 0 9 is_stmt 0
	movq	%rax, %rcx
	movl	%edx, %eax
	movq	%rcx, -16(%rbp)
	movl	%eax, -8(%rbp)
	jmp	LBB149_7
LBB149_9:
	.loc	55 504 9
	jmp	LBB149_10
LBB149_10:
	.loc	55 502 9 is_stmt 1
	jmp	LBB149_1
Ltmp1065:
Lfunc_end149:
	.cfi_endproc
	.section	__TEXT,__gcc_except_tab
	.p2align	2
GCC_except_table149:
Lexception25:
	.byte	255
	.byte	255
	.byte	1
	.uleb128 Lcst_end25-Lcst_begin25
Lcst_begin25:
	.uleb128 Lfunc_begin149-Lfunc_begin149
	.uleb128 Ltmp1051-Lfunc_begin149
	.byte	0
	.byte	0
	.uleb128 Ltmp1051-Lfunc_begin149
	.uleb128 Ltmp1052-Ltmp1051
	.uleb128 Ltmp1053-Lfunc_begin149
	.byte	0
	.uleb128 Ltmp1052-Lfunc_begin149
	.uleb128 Ltmp1054-Ltmp1052
	.byte	0
	.byte	0
	.uleb128 Ltmp1054-Lfunc_begin149
	.uleb128 Ltmp1055-Ltmp1054
	.uleb128 Ltmp1056-Lfunc_begin149
	.byte	0
Lcst_end25:
	.p2align	2

	.section	__TEXT,__text,regular,pure_instructions
	.globl	__ZN4core3fmt8builders9DebugList7entries17hc6f6b4fcd705032aE
	.p2align	4, 0x90
__ZN4core3fmt8builders9DebugList7entries17hc6f6b4fcd705032aE:
Lfunc_begin150:
	.loc	55 627 0
	.cfi_startproc
	.cfi_personality 155, _rust_eh_personality
	.cfi_lsda 16, Lexception26
	pushq	%rbp
	.cfi_def_cfa_offset 16
	.cfi_offset %rbp, -16
	movq	%rsp, %rbp
	.cfi_def_cfa_register %rbp
	subq	$112, %rsp
	movq	%rdx, -96(%rbp)
	movq	%rsi, %rax
	movq	-96(%rbp), %rsi
	movq	%rax, -88(%rbp)
	movq	%rdi, %rax
	movq	-88(%rbp), %rdi
	movq	%rax, -80(%rbp)
	movq	%rax, -40(%rbp)
	movq	%rdi, -32(%rbp)
	movq	%rsi, -24(%rbp)
Ltmp1072:
	.loc	55 632 22 prologue_end
	callq	__ZN63_$LT$I$u20$as$u20$core..iter..traits..collect..IntoIterator$GT$9into_iter17h2ebfb255ca3c1e85E
	movq	%rax, -72(%rbp)
	movq	%rdx, -64(%rbp)
LBB150_1:
Ltmp1066:
	.loc	55 0 22 is_stmt 0
	leaq	-72(%rbp), %rdi
Ltmp1073:
	.loc	55 632 22
	callq	__ZN91_$LT$core..slice..iter..Iter$LT$T$GT$$u20$as$u20$core..iter..traits..iterator..Iterator$GT$4next17he04f69028bcc0e87E
Ltmp1067:
	movq	%rax, -104(%rbp)
	jmp	LBB150_4
Ltmp1074:
LBB150_2:
	.loc	55 627 5 is_stmt 1
	movq	-16(%rbp), %rdi
	callq	__Unwind_Resume
LBB150_3:
Ltmp1068:
	.loc	55 0 5 is_stmt 0
	movq	%rax, %rcx
	movl	%edx, %eax
	movq	%rcx, -16(%rbp)
	movl	%eax, -8(%rbp)
	jmp	LBB150_2
LBB150_4:
	movq	-104(%rbp), %rax
Ltmp1075:
	.loc	55 632 22 is_stmt 1
	movq	%rax, -56(%rbp)
	movq	-56(%rbp), %rdx
	movl	$1, %eax
	xorl	%ecx, %ecx
	cmpq	$0, %rdx
	cmoveq	%rcx, %rax
	cmpq	$0, %rax
	jne	LBB150_6
Ltmp1076:
	.loc	55 0 22 is_stmt 0
	movq	-80(%rbp), %rax
	.loc	55 636 6 is_stmt 1
	addq	$112, %rsp
	popq	%rbp
	retq
LBB150_6:
	.loc	55 0 6 is_stmt 0
	movq	-80(%rbp), %rdi
Ltmp1077:
	.loc	55 632 13 is_stmt 1
	movq	-56(%rbp), %rax
	movq	%rax, -48(%rbp)
Ltmp1069:
Ltmp1078:
	.loc	55 633 13
	leaq	l___unnamed_4(%rip), %rdx
	leaq	-48(%rbp), %rsi
	callq	__ZN4core3fmt8builders9DebugList5entry17h90e9fab3d6cede22E
Ltmp1070:
	jmp	LBB150_9
Ltmp1079:
LBB150_7:
	.loc	55 634 9
	jmp	LBB150_2
LBB150_8:
Ltmp1071:
	.loc	55 0 9 is_stmt 0
	movq	%rax, %rcx
	movl	%edx, %eax
	movq	%rcx, -16(%rbp)
	movl	%eax, -8(%rbp)
	jmp	LBB150_7
LBB150_9:
	.loc	55 634 9
	jmp	LBB150_10
LBB150_10:
	.loc	55 632 9 is_stmt 1
	jmp	LBB150_1
Ltmp1080:
Lfunc_end150:
	.cfi_endproc
	.section	__TEXT,__gcc_except_tab
	.p2align	2
GCC_except_table150:
Lexception26:
	.byte	255
	.byte	255
	.byte	1
	.uleb128 Lcst_end26-Lcst_begin26
Lcst_begin26:
	.uleb128 Lfunc_begin150-Lfunc_begin150
	.uleb128 Ltmp1066-Lfunc_begin150
	.byte	0
	.byte	0
	.uleb128 Ltmp1066-Lfunc_begin150
	.uleb128 Ltmp1067-Ltmp1066
	.uleb128 Ltmp1068-Lfunc_begin150
	.byte	0
	.uleb128 Ltmp1067-Lfunc_begin150
	.uleb128 Ltmp1069-Ltmp1067
	.byte	0
	.byte	0
	.uleb128 Ltmp1069-Lfunc_begin150
	.uleb128 Ltmp1070-Ltmp1069
	.uleb128 Ltmp1071-Lfunc_begin150
	.byte	0
Lcst_end26:
	.p2align	2

	.section	__TEXT,__text,regular,pure_instructions
	.p2align	4, 0x90
__ZN4core3fmt9Arguments16new_v1_formatted17hdee99d1392f58657E:
Lfunc_begin151:
	.loc	37 419 0
	.cfi_startproc
	pushq	%rbp
	.cfi_def_cfa_offset 16
	.cfi_offset %rbp, -16
	movq	%rsp, %rbp
	.cfi_def_cfa_register %rbp
	subq	$72, %rsp
	movq	%r9, %r10
	movq	%rdi, %rax
	movq	16(%rbp), %r9
	movq	%rsi, -56(%rbp)
	movq	%rdx, -48(%rbp)
	movq	%rcx, -40(%rbp)
	movq	%r8, -32(%rbp)
	movq	%r10, -24(%rbp)
	movq	%r9, -16(%rbp)
Ltmp1081:
	.loc	37 425 34 prologue_end
	movq	%r10, -72(%rbp)
	movq	%r9, -64(%rbp)
	.loc	37 425 9 is_stmt 0
	movq	%rsi, 16(%rdi)
	movq	%rdx, 24(%rdi)
	movq	-72(%rbp), %rsi
	movq	-64(%rbp), %rdx
	movq	%rsi, (%rdi)
	movq	%rdx, 8(%rdi)
	movq	%rcx, 32(%rdi)
	movq	%r8, 40(%rdi)
	.loc	37 426 6 is_stmt 1
	addq	$72, %rsp
	popq	%rbp
	retq
Ltmp1082:
Lfunc_end151:
	.cfi_endproc

	.p2align	4, 0x90
__ZN4core3fmt9Arguments6new_v117h8322a8977516b340E:
Lfunc_begin152:
	.loc	37 399 0
	.cfi_startproc
	pushq	%rbp
	.cfi_def_cfa_offset 16
	.cfi_offset %rbp, -16
	movq	%rsp, %rbp
	.cfi_def_cfa_register %rbp
	subq	$160, %rsp
	movq	%r8, -152(%rbp)
	movq	%rcx, -144(%rbp)
	movq	%rdx, -136(%rbp)
	movq	%rsi, -128(%rbp)
	movq	%rdi, -120(%rbp)
	movq	%rdi, -112(%rbp)
	movq	%rsi, -32(%rbp)
	movq	%rdx, -24(%rbp)
	movq	%rcx, -16(%rbp)
	movq	%r8, -8(%rbp)
Ltmp1083:
	.loc	37 400 12 prologue_end
	cmpq	%r8, %rdx
	jb	LBB152_2
	.loc	37 0 12 is_stmt 0
	movq	-136(%rbp), %rax
	movq	-152(%rbp), %rcx
	.loc	37 400 56
	addq	$1, %rcx
	.loc	37 400 41
	cmpq	%rcx, %rax
	seta	%al
	.loc	37 400 12
	andb	$1, %al
	movb	%al, -97(%rbp)
	jmp	LBB152_3
LBB152_2:
	movb	$1, -97(%rbp)
LBB152_3:
	testb	$1, -97(%rbp)
	jne	LBB152_5
	.loc	37 0 12
	movq	-112(%rbp), %rax
	movq	-120(%rbp), %rcx
	movq	-152(%rbp), %rdx
	movq	-144(%rbp), %rsi
	movq	-136(%rbp), %rdi
	movq	-128(%rbp), %r8
	.loc	37 403 34 is_stmt 1
	movq	$0, -48(%rbp)
	.loc	37 403 9 is_stmt 0
	movq	%r8, 16(%rcx)
	movq	%rdi, 24(%rcx)
	movq	-48(%rbp), %r8
	movq	-40(%rbp), %rdi
	movq	%r8, (%rcx)
	movq	%rdi, 8(%rcx)
	movq	%rsi, 32(%rcx)
	movq	%rdx, 40(%rcx)
	.loc	37 404 6 is_stmt 1
	addq	$160, %rsp
	popq	%rbp
	retq
LBB152_5:
	.loc	37 401 13
	leaq	l___unnamed_70(%rip), %rsi
	leaq	l___unnamed_58(%rip), %rcx
	xorl	%eax, %eax
	movl	%eax, %r8d
	leaq	-96(%rbp), %rdi
	movq	%rdi, -160(%rbp)
	movl	$1, %edx
	callq	__ZN4core3fmt9Arguments6new_v117h8322a8977516b340E
	movq	-160(%rbp), %rdi
	leaq	l___unnamed_71(%rip), %rsi
	callq	__ZN4core9panicking9panic_fmt17h9b5d807e24bcaaedE
Ltmp1084:
Lfunc_end152:
	.cfi_endproc

	.globl	__ZN4core3mem7replace17h1902762111d5a020E
	.p2align	4, 0x90
__ZN4core3mem7replace17h1902762111d5a020E:
Lfunc_begin153:
	.loc	46 905 0
	.cfi_startproc
	pushq	%rbp
	.cfi_def_cfa_offset 16
	.cfi_offset %rbp, -16
	movq	%rsp, %rbp
	.cfi_def_cfa_register %rbp
	subq	$120, %rsp
	movq	%rdi, -120(%rbp)
	movq	%rsi, -112(%rbp)
	movq	%rdi, -80(%rbp)
	movq	%rsi, -72(%rbp)
Ltmp1085:
	.loc	46 910 32 prologue_end
	movq	%rdi, -64(%rbp)
Ltmp1086:
	.loc	11 1157 34
	leaq	-88(%rbp), %rax
	movq	%rax, -56(%rbp)
	.loc	11 1157 9 is_stmt 0
	movq	(%rdi), %rax
	movq	%rax, -88(%rbp)
	.loc	11 1158 9 is_stmt 1
	movq	-88(%rbp), %rax
	movq	%rax, -104(%rbp)
	movq	%rax, -48(%rbp)
	.loc	11 0 9 is_stmt 0
	movq	-104(%rbp), %rax
	movq	-120(%rbp), %rcx
	movq	-112(%rbp), %rdx
Ltmp1087:
	.loc	49 627 38 is_stmt 1
	movq	%rax, -24(%rbp)
Ltmp1088:
	.loc	48 89 9
	movq	%rax, -16(%rbp)
Ltmp1089:
	.loc	46 911 20
	movq	%rcx, -8(%rbp)
	.loc	46 911 26 is_stmt 0
	movq	%rdx, -96(%rbp)
Ltmp1090:
	.loc	11 1354 9 is_stmt 1
	movq	-96(%rbp), %rdx
	movq	%rdx, (%rcx)
Ltmp1091:
	.loc	46 914 2
	addq	$120, %rsp
	popq	%rbp
	retq
Ltmp1092:
Lfunc_end153:
	.cfi_endproc

	.globl	__ZN4core3mem7replace17h28fc3eb4da08f9ddE
	.p2align	4, 0x90
__ZN4core3mem7replace17h28fc3eb4da08f9ddE:
Lfunc_begin154:
	.loc	46 905 0
	.cfi_startproc
	pushq	%rbp
	.cfi_def_cfa_offset 16
	.cfi_offset %rbp, -16
	movq	%rsp, %rbp
	.cfi_def_cfa_register %rbp
	subq	$120, %rsp
	movq	%rdi, -120(%rbp)
	movq	%rsi, -112(%rbp)
	movq	%rdi, -80(%rbp)
	movq	%rsi, -72(%rbp)
Ltmp1093:
	.loc	46 910 32 prologue_end
	movq	%rdi, -64(%rbp)
Ltmp1094:
	.loc	11 1157 34
	leaq	-88(%rbp), %rax
	movq	%rax, -56(%rbp)
	.loc	11 1157 9 is_stmt 0
	movq	(%rdi), %rax
	movq	%rax, -88(%rbp)
	.loc	11 1158 9 is_stmt 1
	movq	-88(%rbp), %rax
	movq	%rax, -104(%rbp)
	movq	%rax, -48(%rbp)
	.loc	11 0 9 is_stmt 0
	movq	-104(%rbp), %rax
	movq	-120(%rbp), %rcx
	movq	-112(%rbp), %rdx
Ltmp1095:
	.loc	49 627 38 is_stmt 1
	movq	%rax, -24(%rbp)
Ltmp1096:
	.loc	48 89 9
	movq	%rax, -16(%rbp)
Ltmp1097:
	.loc	46 911 20
	movq	%rcx, -8(%rbp)
	.loc	46 911 26 is_stmt 0
	movq	%rdx, -96(%rbp)
Ltmp1098:
	.loc	11 1354 9 is_stmt 1
	movq	-96(%rbp), %rdx
	movq	%rdx, (%rcx)
Ltmp1099:
	.loc	46 914 2
	addq	$120, %rsp
	popq	%rbp
	retq
Ltmp1100:
Lfunc_end154:
	.cfi_endproc

	.globl	__ZN4core3mem7replace17h2f5779dcba26abe7E
	.p2align	4, 0x90
__ZN4core3mem7replace17h2f5779dcba26abe7E:
Lfunc_begin155:
	.loc	46 905 0
	.cfi_startproc
	pushq	%rbp
	.cfi_def_cfa_offset 16
	.cfi_offset %rbp, -16
	movq	%rsp, %rbp
	.cfi_def_cfa_register %rbp
	subq	$240, %rsp
	movq	%rdx, -240(%rbp)
Ltmp1101:
	movq	%rsi, -232(%rbp)
	movq	%rdi, -224(%rbp)
	movq	%rdi, -216(%rbp)
	movq	%rsi, -48(%rbp)
Ltmp1102:
	.loc	46 910 32 prologue_end
	movq	%rsi, -40(%rbp)
Ltmp1103:
	.loc	11 1157 34
	leaq	-168(%rbp), %rax
	movq	%rax, -32(%rbp)
	.loc	11 1157 9 is_stmt 0
	leaq	-168(%rbp), %rdi
	movl	$40, %edx
Ltmp1104:
	callq	_memcpy
	.loc	11 1158 9 is_stmt 1
	leaq	-128(%rbp), %rdi
	leaq	-168(%rbp), %rsi
	movl	$40, %edx
	callq	_memcpy
Ltmp1105:
	.loc	49 627 38
	leaq	-88(%rbp), %rdi
	leaq	-128(%rbp), %rsi
	movl	$40, %edx
	callq	_memcpy
	movq	-224(%rbp), %rdi
Ltmp1106:
	.loc	48 89 9
	leaq	-88(%rbp), %rsi
	movl	$40, %edx
	callq	_memcpy
	movq	-240(%rbp), %rsi
	movq	-232(%rbp), %rax
Ltmp1107:
	.loc	46 911 20
	movq	%rax, -8(%rbp)
	.loc	46 911 26 is_stmt 0
	leaq	-208(%rbp), %rdi
	movl	$40, %edx
	callq	_memcpy
	movq	-232(%rbp), %rdi
Ltmp1108:
	.loc	11 1354 9 is_stmt 1
	leaq	-208(%rbp), %rsi
	movl	$40, %edx
	callq	_memcpy
	movq	-216(%rbp), %rax
Ltmp1109:
	.loc	46 914 2
	addq	$240, %rsp
	popq	%rbp
	retq
Ltmp1110:
Lfunc_end155:
	.cfi_endproc

	.globl	__ZN4core3mem7replace17h31173be525ab03a2E
	.p2align	4, 0x90
__ZN4core3mem7replace17h31173be525ab03a2E:
Lfunc_begin156:
	.loc	46 905 0
	.cfi_startproc
	pushq	%rbp
	.cfi_def_cfa_offset 16
	.cfi_offset %rbp, -16
	movq	%rsp, %rbp
	.cfi_def_cfa_register %rbp
	subq	$168, %rsp
	movq	%rdi, -168(%rbp)
	movq	%rsi, -144(%rbp)
	movq	%rdx, -136(%rbp)
	movq	%rdi, -96(%rbp)
Ltmp1111:
	.loc	46 910 32 prologue_end
	movq	%rdi, -88(%rbp)
Ltmp1112:
	.loc	11 1157 34
	leaq	-112(%rbp), %rax
	movq	%rax, -80(%rbp)
	.loc	11 1157 9 is_stmt 0
	movq	(%rdi), %rax
	movq	%rax, -112(%rbp)
	movq	8(%rdi), %rax
	movq	%rax, -104(%rbp)
	.loc	11 1158 9 is_stmt 1
	movq	-112(%rbp), %rcx
	movq	%rcx, -160(%rbp)
	movq	-104(%rbp), %rax
	movq	%rax, -152(%rbp)
	movq	%rcx, -72(%rbp)
	movq	%rax, -64(%rbp)
	.loc	11 0 9 is_stmt 0
	movq	-152(%rbp), %rdx
	movq	-160(%rbp), %rax
	movq	-168(%rbp), %rcx
Ltmp1113:
	.loc	49 627 38 is_stmt 1
	movq	%rax, -40(%rbp)
	movq	%rdx, -32(%rbp)
Ltmp1114:
	.loc	48 89 9
	movq	%rax, -24(%rbp)
	movq	%rdx, -16(%rbp)
Ltmp1115:
	.loc	46 911 20
	movq	%rcx, -8(%rbp)
	.loc	46 911 26 is_stmt 0
	movq	-144(%rbp), %rdi
	movq	-136(%rbp), %rsi
	movq	%rdi, -128(%rbp)
	movq	%rsi, -120(%rbp)
Ltmp1116:
	.loc	11 1354 9 is_stmt 1
	movq	-128(%rbp), %rsi
	movq	-120(%rbp), %rdi
	movq	%rdi, 8(%rcx)
	movq	%rsi, (%rcx)
Ltmp1117:
	.loc	46 914 2
	addq	$168, %rsp
	popq	%rbp
	retq
Ltmp1118:
Lfunc_end156:
	.cfi_endproc

	.globl	__ZN4core3mem7replace17h38fa7bd13df4e10fE
	.p2align	4, 0x90
__ZN4core3mem7replace17h38fa7bd13df4e10fE:
Lfunc_begin157:
	.loc	46 905 0
	.cfi_startproc
	pushq	%rbp
	.cfi_def_cfa_offset 16
	.cfi_offset %rbp, -16
	movq	%rsp, %rbp
	.cfi_def_cfa_register %rbp
	subq	$120, %rsp
	movq	%rdi, -120(%rbp)
	movq	%rsi, -112(%rbp)
	movq	%rdi, -80(%rbp)
	movq	%rsi, -72(%rbp)
Ltmp1119:
	.loc	46 910 32 prologue_end
	movq	%rdi, -64(%rbp)
Ltmp1120:
	.loc	11 1157 34
	leaq	-88(%rbp), %rax
	movq	%rax, -56(%rbp)
	.loc	11 1157 9 is_stmt 0
	movq	(%rdi), %rax
	movq	%rax, -88(%rbp)
	.loc	11 1158 9 is_stmt 1
	movq	-88(%rbp), %rax
	movq	%rax, -104(%rbp)
	movq	%rax, -48(%rbp)
	.loc	11 0 9 is_stmt 0
	movq	-104(%rbp), %rax
	movq	-120(%rbp), %rcx
	movq	-112(%rbp), %rdx
Ltmp1121:
	.loc	49 627 38 is_stmt 1
	movq	%rax, -24(%rbp)
Ltmp1122:
	.loc	48 89 9
	movq	%rax, -16(%rbp)
Ltmp1123:
	.loc	46 911 20
	movq	%rcx, -8(%rbp)
	.loc	46 911 26 is_stmt 0
	movq	%rdx, -96(%rbp)
Ltmp1124:
	.loc	11 1354 9 is_stmt 1
	movq	-96(%rbp), %rdx
	movq	%rdx, (%rcx)
Ltmp1125:
	.loc	46 914 2
	addq	$120, %rsp
	popq	%rbp
	retq
Ltmp1126:
Lfunc_end157:
	.cfi_endproc

	.globl	__ZN4core3mem7replace17h5d9ec20debcd85cfE
	.p2align	4, 0x90
__ZN4core3mem7replace17h5d9ec20debcd85cfE:
Lfunc_begin158:
	.loc	46 905 0
	.cfi_startproc
	pushq	%rbp
	.cfi_def_cfa_offset 16
	.cfi_offset %rbp, -16
	movq	%rsp, %rbp
	.cfi_def_cfa_register %rbp
	subq	$120, %rsp
	movq	%rdi, -120(%rbp)
	movq	%rsi, -112(%rbp)
	movq	%rdi, -80(%rbp)
	movq	%rsi, -72(%rbp)
Ltmp1127:
	.loc	46 910 32 prologue_end
	movq	%rdi, -64(%rbp)
Ltmp1128:
	.loc	11 1157 34
	leaq	-88(%rbp), %rax
	movq	%rax, -56(%rbp)
	.loc	11 1157 9 is_stmt 0
	movq	(%rdi), %rax
	movq	%rax, -88(%rbp)
	.loc	11 1158 9 is_stmt 1
	movq	-88(%rbp), %rax
	movq	%rax, -104(%rbp)
	movq	%rax, -48(%rbp)
	.loc	11 0 9 is_stmt 0
	movq	-104(%rbp), %rax
	movq	-120(%rbp), %rcx
	movq	-112(%rbp), %rdx
Ltmp1129:
	.loc	49 627 38 is_stmt 1
	movq	%rax, -24(%rbp)
Ltmp1130:
	.loc	48 89 9
	movq	%rax, -16(%rbp)
Ltmp1131:
	.loc	46 911 20
	movq	%rcx, -8(%rbp)
	.loc	46 911 26 is_stmt 0
	movq	%rdx, -96(%rbp)
Ltmp1132:
	.loc	11 1354 9 is_stmt 1
	movq	-96(%rbp), %rdx
	movq	%rdx, (%rcx)
Ltmp1133:
	.loc	46 914 2
	addq	$120, %rsp
	popq	%rbp
	retq
Ltmp1134:
Lfunc_end158:
	.cfi_endproc

	.globl	__ZN4core3mem7replace17h6e4f09f027d7247fE
	.p2align	4, 0x90
__ZN4core3mem7replace17h6e4f09f027d7247fE:
Lfunc_begin159:
	.loc	46 905 0
	.cfi_startproc
	pushq	%rbp
	.cfi_def_cfa_offset 16
	.cfi_offset %rbp, -16
	movq	%rsp, %rbp
	.cfi_def_cfa_register %rbp
	subq	$120, %rsp
	movq	%rdi, -120(%rbp)
	movq	%rsi, -112(%rbp)
	movq	%rdi, -80(%rbp)
	movq	%rsi, -72(%rbp)
Ltmp1135:
	.loc	46 910 32 prologue_end
	movq	%rdi, -64(%rbp)
Ltmp1136:
	.loc	11 1157 34
	leaq	-88(%rbp), %rax
	movq	%rax, -56(%rbp)
	.loc	11 1157 9 is_stmt 0
	movq	(%rdi), %rax
	movq	%rax, -88(%rbp)
	.loc	11 1158 9 is_stmt 1
	movq	-88(%rbp), %rax
	movq	%rax, -104(%rbp)
	movq	%rax, -48(%rbp)
	.loc	11 0 9 is_stmt 0
	movq	-104(%rbp), %rax
	movq	-120(%rbp), %rcx
	movq	-112(%rbp), %rdx
Ltmp1137:
	.loc	49 627 38 is_stmt 1
	movq	%rax, -24(%rbp)
Ltmp1138:
	.loc	48 89 9
	movq	%rax, -16(%rbp)
Ltmp1139:
	.loc	46 911 20
	movq	%rcx, -8(%rbp)
	.loc	46 911 26 is_stmt 0
	movq	%rdx, -96(%rbp)
Ltmp1140:
	.loc	11 1354 9 is_stmt 1
	movq	-96(%rbp), %rdx
	movq	%rdx, (%rcx)
Ltmp1141:
	.loc	46 914 2
	addq	$120, %rsp
	popq	%rbp
	retq
Ltmp1142:
Lfunc_end159:
	.cfi_endproc

	.globl	__ZN4core3mem7replace17h71f973f95c08239dE
	.p2align	4, 0x90
__ZN4core3mem7replace17h71f973f95c08239dE:
Lfunc_begin160:
	.loc	46 905 0
	.cfi_startproc
	pushq	%rbp
	.cfi_def_cfa_offset 16
	.cfi_offset %rbp, -16
	movq	%rsp, %rbp
	.cfi_def_cfa_register %rbp
	subq	$88, %rsp
	movq	%rdi, -88(%rbp)
	movb	%sil, %al
	movb	%al, -76(%rbp)
	movq	%rdi, -72(%rbp)
	movb	%al, -57(%rbp)
Ltmp1143:
	.loc	46 910 32 prologue_end
	movq	%rdi, -56(%rbp)
Ltmp1144:
	.loc	11 1157 34
	leaq	-73(%rbp), %rax
	movq	%rax, -48(%rbp)
	.loc	11 1157 9 is_stmt 0
	movb	(%rdi), %al
	movb	%al, -73(%rbp)
	.loc	11 1158 9 is_stmt 1
	movb	-73(%rbp), %al
	movb	%al, -75(%rbp)
	movb	%al, -33(%rbp)
	.loc	11 0 9 is_stmt 0
	movb	-75(%rbp), %al
	movq	-88(%rbp), %rcx
	movb	-76(%rbp), %dl
Ltmp1145:
	.loc	49 627 38 is_stmt 1
	movb	%al, -10(%rbp)
Ltmp1146:
	.loc	48 89 9
	movb	%al, -9(%rbp)
Ltmp1147:
	.loc	46 911 20
	movq	%rcx, -8(%rbp)
	.loc	46 911 26 is_stmt 0
	movb	%dl, -74(%rbp)
Ltmp1148:
	.loc	11 1354 9 is_stmt 1
	movb	-74(%rbp), %dl
	movb	%dl, (%rcx)
Ltmp1149:
	.loc	46 914 2
	addq	$88, %rsp
	popq	%rbp
	retq
Ltmp1150:
Lfunc_end160:
	.cfi_endproc

	.globl	__ZN4core3mem7replace17h7c52781e449ab87fE
	.p2align	4, 0x90
__ZN4core3mem7replace17h7c52781e449ab87fE:
Lfunc_begin161:
	.loc	46 905 0
	.cfi_startproc
	pushq	%rbp
	.cfi_def_cfa_offset 16
	.cfi_offset %rbp, -16
	movq	%rsp, %rbp
	.cfi_def_cfa_register %rbp
	subq	$88, %rsp
	movq	%rdi, -88(%rbp)
	movb	%sil, %al
	movb	%al, -76(%rbp)
	movq	%rdi, -72(%rbp)
	andb	$1, %al
	movb	%al, -57(%rbp)
Ltmp1151:
	.loc	46 910 32 prologue_end
	movq	%rdi, -56(%rbp)
Ltmp1152:
	.loc	11 1157 34
	leaq	-73(%rbp), %rax
	movq	%rax, -48(%rbp)
	.loc	11 1157 9 is_stmt 0
	movb	(%rdi), %al
	movb	%al, -73(%rbp)
	.loc	11 1158 9 is_stmt 1
	movb	-73(%rbp), %al
	movb	%al, -75(%rbp)
	movb	%al, -33(%rbp)
	.loc	11 0 9 is_stmt 0
	movb	-75(%rbp), %al
	movq	-88(%rbp), %rcx
	movb	-76(%rbp), %dl
Ltmp1153:
	.loc	49 627 38 is_stmt 1
	movb	%al, %sil
	andb	$1, %sil
	movb	%sil, -10(%rbp)
Ltmp1154:
	.loc	48 89 9
	movb	%al, %sil
	andb	$1, %sil
	movb	%sil, -9(%rbp)
Ltmp1155:
	.loc	46 911 20
	movq	%rcx, -8(%rbp)
	.loc	46 911 26 is_stmt 0
	andb	$1, %dl
	movb	%dl, -74(%rbp)
Ltmp1156:
	.loc	11 1354 9 is_stmt 1
	movb	-74(%rbp), %dl
	movb	%dl, (%rcx)
Ltmp1157:
	.loc	46 914 2
	andb	$1, %al
	movzbl	%al, %eax
	addq	$88, %rsp
	popq	%rbp
	retq
Ltmp1158:
Lfunc_end161:
	.cfi_endproc

	.globl	__ZN4core3mem7replace17h80827df44d7c1a21E
	.p2align	4, 0x90
__ZN4core3mem7replace17h80827df44d7c1a21E:
Lfunc_begin162:
	.loc	46 905 0
	.cfi_startproc
	pushq	%rbp
	.cfi_def_cfa_offset 16
	.cfi_offset %rbp, -16
	movq	%rsp, %rbp
	.cfi_def_cfa_register %rbp
	subq	$120, %rsp
	movq	%rdi, -120(%rbp)
	movq	%rsi, -112(%rbp)
	movq	%rdi, -80(%rbp)
	movq	%rsi, -72(%rbp)
Ltmp1159:
	.loc	46 910 32 prologue_end
	movq	%rdi, -64(%rbp)
Ltmp1160:
	.loc	11 1157 34
	leaq	-88(%rbp), %rax
	movq	%rax, -56(%rbp)
	.loc	11 1157 9 is_stmt 0
	movq	(%rdi), %rax
	movq	%rax, -88(%rbp)
	.loc	11 1158 9 is_stmt 1
	movq	-88(%rbp), %rax
	movq	%rax, -104(%rbp)
	movq	%rax, -48(%rbp)
	.loc	11 0 9 is_stmt 0
	movq	-104(%rbp), %rax
	movq	-120(%rbp), %rcx
	movq	-112(%rbp), %rdx
Ltmp1161:
	.loc	49 627 38 is_stmt 1
	movq	%rax, -24(%rbp)
Ltmp1162:
	.loc	48 89 9
	movq	%rax, -16(%rbp)
Ltmp1163:
	.loc	46 911 20
	movq	%rcx, -8(%rbp)
	.loc	46 911 26 is_stmt 0
	movq	%rdx, -96(%rbp)
Ltmp1164:
	.loc	11 1354 9 is_stmt 1
	movq	-96(%rbp), %rdx
	movq	%rdx, (%rcx)
Ltmp1165:
	.loc	46 914 2
	addq	$120, %rsp
	popq	%rbp
	retq
Ltmp1166:
Lfunc_end162:
	.cfi_endproc

	.globl	__ZN4core3mem7replace17had2483fe35f76719E
	.p2align	4, 0x90
__ZN4core3mem7replace17had2483fe35f76719E:
Lfunc_begin163:
	.loc	46 905 0
	.cfi_startproc
	pushq	%rbp
	.cfi_def_cfa_offset 16
	.cfi_offset %rbp, -16
	movq	%rsp, %rbp
	.cfi_def_cfa_register %rbp
	subq	$88, %rsp
	movq	%rdi, -88(%rbp)
	movb	%sil, %al
	movb	%al, -76(%rbp)
	movq	%rdi, -72(%rbp)
	movb	%al, -57(%rbp)
Ltmp1167:
	.loc	46 910 32 prologue_end
	movq	%rdi, -56(%rbp)
Ltmp1168:
	.loc	11 1157 34
	leaq	-73(%rbp), %rax
	movq	%rax, -48(%rbp)
	.loc	11 1157 9 is_stmt 0
	movb	(%rdi), %al
	movb	%al, -73(%rbp)
	.loc	11 1158 9 is_stmt 1
	movb	-73(%rbp), %al
	movb	%al, -75(%rbp)
	movb	%al, -33(%rbp)
	.loc	11 0 9 is_stmt 0
	movb	-75(%rbp), %al
	movq	-88(%rbp), %rcx
	movb	-76(%rbp), %dl
Ltmp1169:
	.loc	49 627 38 is_stmt 1
	movb	%al, -10(%rbp)
Ltmp1170:
	.loc	48 89 9
	movb	%al, -9(%rbp)
Ltmp1171:
	.loc	46 911 20
	movq	%rcx, -8(%rbp)
	.loc	46 911 26 is_stmt 0
	movb	%dl, -74(%rbp)
Ltmp1172:
	.loc	11 1354 9 is_stmt 1
	movb	-74(%rbp), %dl
	movb	%dl, (%rcx)
Ltmp1173:
	.loc	46 914 2
	addq	$88, %rsp
	popq	%rbp
	retq
Ltmp1174:
Lfunc_end163:
	.cfi_endproc

	.p2align	4, 0x90
__ZN4core3num20_$LT$impl$u20$u8$GT$20eq_ignore_ascii_case17he684ecbcec66ad51E:
Lfunc_begin164:
	.file	56 "/rustc/2c8cc343237b8f7d5a3c3703e3a87f2eb2c54a74/library/core/src/num" "mod.rs"
	.loc	56 399 0
	.cfi_startproc
	pushq	%rbp
	.cfi_def_cfa_offset 16
	.cfi_offset %rbp, -16
	movq	%rsp, %rbp
	.cfi_def_cfa_register %rbp
	subq	$80, %rsp
	movq	%rdi, -72(%rbp)
	movq	%rsi, -64(%rbp)
	movq	%rdi, -48(%rbp)
	movq	%rsi, -40(%rbp)
Ltmp1175:
	.loc	56 400 9 prologue_end
	movq	%rdi, -32(%rbp)
Ltmp1176:
	.loc	56 375 9
	movb	(%rdi), %al
	movb	%al, -51(%rbp)
	.loc	56 375 18 is_stmt 0
	movq	%rdi, -24(%rbp)
Ltmp1177:
	.loc	56 520 25 is_stmt 1
	movb	$65, %al
	cmpb	(%rdi), %al
	jbe	LBB164_2
LBB164_1:
	.loc	34 346 18
	movb	$0, -50(%rbp)
	jmp	LBB164_4
LBB164_2:
	.loc	34 0 18 is_stmt 0
	movq	-72(%rbp), %rax
	.loc	56 520 25 is_stmt 1
	cmpb	$90, (%rax)
	ja	LBB164_1
	.loc	34 345 48
	movb	$1, -50(%rbp)
Ltmp1178:
LBB164_4:
	.loc	34 0 48 is_stmt 0
	movq	-64(%rbp), %rcx
	movb	-51(%rbp), %al
	.loc	56 375 18 is_stmt 1
	movb	-50(%rbp), %dl
	andb	$1, %dl
	.loc	56 375 17 is_stmt 0
	shlb	$5, %dl
	.loc	56 375 9
	orb	%dl, %al
	movb	%al, -74(%rbp)
Ltmp1179:
	.loc	56 400 38 is_stmt 1
	movq	%rcx, -16(%rbp)
Ltmp1180:
	.loc	56 375 9
	movb	(%rcx), %al
	movb	%al, -73(%rbp)
	.loc	56 375 18 is_stmt 0
	movq	%rcx, -8(%rbp)
Ltmp1181:
	.loc	56 520 25 is_stmt 1
	movb	$65, %al
	cmpb	(%rcx), %al
	jbe	LBB164_6
LBB164_5:
	.loc	34 346 18
	movb	$0, -49(%rbp)
	jmp	LBB164_8
LBB164_6:
	.loc	34 0 18 is_stmt 0
	movq	-64(%rbp), %rax
	.loc	56 520 25 is_stmt 1
	cmpb	$90, (%rax)
	ja	LBB164_5
	.loc	34 345 48
	movb	$1, -49(%rbp)
Ltmp1182:
LBB164_8:
	.loc	34 0 48 is_stmt 0
	movb	-74(%rbp), %al
	movb	-73(%rbp), %cl
	.loc	56 375 18 is_stmt 1
	movb	-49(%rbp), %dl
	andb	$1, %dl
	.loc	56 375 17 is_stmt 0
	shlb	$5, %dl
	.loc	56 375 9
	orb	%dl, %cl
Ltmp1183:
	.loc	56 400 9 is_stmt 1
	cmpb	%cl, %al
	sete	%al
	.loc	56 401 6
	andb	$1, %al
	movzbl	%al, %eax
	addq	$80, %rsp
	popq	%rbp
	retq
Ltmp1184:
Lfunc_end164:
	.cfi_endproc

	.p2align	4, 0x90
__ZN4core3num23_$LT$impl$u20$usize$GT$11checked_add17h08926dac4102dff7E:
Lfunc_begin165:
	.loc	51 442 0
	.cfi_startproc
	pushq	%rbp
	.cfi_def_cfa_offset 16
	.cfi_offset %rbp, -16
	movq	%rsp, %rbp
	.cfi_def_cfa_register %rbp
	subq	$120, %rsp
	movq	%rdi, -80(%rbp)
	movq	%rsi, -72(%rbp)
Ltmp1185:
	.loc	51 443 26 prologue_end
	movq	%rdi, -64(%rbp)
	.loc	51 443 47 is_stmt 0
	movq	%rsi, -56(%rbp)
Ltmp1186:
	.loc	51 1479 26 is_stmt 1
	addq	%rsi, %rdi
	setb	%al
	andb	$1, %al
	movq	%rdi, -48(%rbp)
	movb	%al, -40(%rbp)
	movq	-48(%rbp), %rcx
	movb	-40(%rbp), %al
	.loc	51 1479 18 is_stmt 0
	movq	%rcx, -32(%rbp)
	.loc	51 1479 21
	movb	%al, %dl
	andb	$1, %dl
	movb	%dl, -17(%rbp)
Ltmp1187:
	.loc	51 1480 13 is_stmt 1
	movq	%rcx, -96(%rbp)
	andb	$1, %al
	movb	%al, -88(%rbp)
Ltmp1188:
	.loc	51 443 18
	movq	-96(%rbp), %rax
	movq	%rax, -120(%rbp)
	movq	%rax, -16(%rbp)
	.loc	51 443 21 is_stmt 0
	movb	-88(%rbp), %al
	movb	%al, %cl
	andb	$1, %cl
	movb	%cl, -2(%rbp)
Ltmp1189:
	.loc	51 444 16 is_stmt 1
	andb	$1, %al
	movb	%al, -1(%rbp)
	testb	$1, -1(%rbp)
	jne	LBB165_2
	.loc	51 0 16 is_stmt 0
	movq	-120(%rbp), %rax
	.loc	51 444 42
	movq	%rax, -104(%rbp)
	movq	$1, -112(%rbp)
	.loc	51 444 13
	jmp	LBB165_3
LBB165_2:
	.loc	51 444 30
	movq	$0, -112(%rbp)
Ltmp1190:
LBB165_3:
	.loc	51 445 10 is_stmt 1
	movq	-112(%rbp), %rax
	movq	-104(%rbp), %rdx
	addq	$120, %rsp
	popq	%rbp
	retq
Ltmp1191:
Lfunc_end165:
	.cfi_endproc

	.p2align	4, 0x90
__ZN4core3num7nonzero10NonZeroI163get17h6d2ea5789216bffdE:
Lfunc_begin166:
	.file	57 "/rustc/2c8cc343237b8f7d5a3c3703e3a87f2eb2c54a74/library/core/src/num" "nonzero.rs"
	.loc	57 85 0
	.cfi_startproc
	pushq	%rbp
	.cfi_def_cfa_offset 16
	.cfi_offset %rbp, -16
	movq	%rsp, %rbp
	.cfi_def_cfa_register %rbp
	subq	$2, %rsp
	movw	%di, %ax
	movw	%ax, -2(%rbp)
Ltmp1192:
	.loc	57 87 18 prologue_end
	addq	$2, %rsp
	popq	%rbp
	retq
Ltmp1193:
Lfunc_end166:
	.cfi_endproc

	.p2align	4, 0x90
__ZN4core3num7nonzero10NonZeroI323get17h6cc9b08532c02f65E:
Lfunc_begin167:
	.loc	57 85 0
	.cfi_startproc
	pushq	%rbp
	.cfi_def_cfa_offset 16
	.cfi_offset %rbp, -16
	movq	%rsp, %rbp
	.cfi_def_cfa_register %rbp
	subq	$4, %rsp
	movl	%edi, %eax
	movl	%eax, -4(%rbp)
Ltmp1194:
	.loc	57 87 18 prologue_end
	addq	$4, %rsp
	popq	%rbp
	retq
Ltmp1195:
Lfunc_end167:
	.cfi_endproc

	.p2align	4, 0x90
__ZN4core3num7nonzero10NonZeroI643get17hb80bfe0543edce6dE:
Lfunc_begin168:
	.loc	57 85 0
	.cfi_startproc
	pushq	%rbp
	.cfi_def_cfa_offset 16
	.cfi_offset %rbp, -16
	movq	%rsp, %rbp
	.cfi_def_cfa_register %rbp
	pushq	%rax
	movq	%rdi, %rax
	movq	%rax, -8(%rbp)
Ltmp1196:
	.loc	57 87 18 prologue_end
	addq	$8, %rsp
	popq	%rbp
	retq
Ltmp1197:
Lfunc_end168:
	.cfi_endproc

	.p2align	4, 0x90
__ZN4core3num7nonzero10NonZeroU163get17h6c14dc22c3c1c95eE:
Lfunc_begin169:
	.loc	57 85 0
	.cfi_startproc
	pushq	%rbp
	.cfi_def_cfa_offset 16
	.cfi_offset %rbp, -16
	movq	%rsp, %rbp
	.cfi_def_cfa_register %rbp
	subq	$2, %rsp
	movw	%di, %ax
	movw	%ax, -2(%rbp)
Ltmp1198:
	.loc	57 87 18 prologue_end
	addq	$2, %rsp
	popq	%rbp
	retq
Ltmp1199:
Lfunc_end169:
	.cfi_endproc

	.p2align	4, 0x90
__ZN4core3num7nonzero10NonZeroU323get17h3fbc2ecb1fe1aa25E:
Lfunc_begin170:
	.loc	57 85 0
	.cfi_startproc
	pushq	%rbp
	.cfi_def_cfa_offset 16
	.cfi_offset %rbp, -16
	movq	%rsp, %rbp
	.cfi_def_cfa_register %rbp
	subq	$4, %rsp
	movl	%edi, %eax
	movl	%eax, -4(%rbp)
Ltmp1200:
	.loc	57 87 18 prologue_end
	addq	$4, %rsp
	popq	%rbp
	retq
Ltmp1201:
Lfunc_end170:
	.cfi_endproc

	.p2align	4, 0x90
__ZN4core3num7nonzero10NonZeroU643get17h0680a1dbe45f231aE:
Lfunc_begin171:
	.loc	57 85 0
	.cfi_startproc
	pushq	%rbp
	.cfi_def_cfa_offset 16
	.cfi_offset %rbp, -16
	movq	%rsp, %rbp
	.cfi_def_cfa_register %rbp
	pushq	%rax
	movq	%rdi, %rax
	movq	%rax, -8(%rbp)
Ltmp1202:
	.loc	57 87 18 prologue_end
	addq	$8, %rsp
	popq	%rbp
	retq
Ltmp1203:
Lfunc_end171:
	.cfi_endproc

	.p2align	4, 0x90
__ZN4core3num7nonzero10NonZeroU643new17ha7d5762b9aac6429E:
Lfunc_begin172:
	.loc	57 72 0
	.cfi_startproc
	pushq	%rbp
	.cfi_def_cfa_offset 16
	.cfi_offset %rbp, -16
	movq	%rsp, %rbp
	.cfi_def_cfa_register %rbp
	subq	$32, %rsp
	movq	%rdi, -32(%rbp)
	movq	%rdi, -8(%rbp)
Ltmp1204:
	.loc	57 73 24 prologue_end
	cmpq	$0, %rdi
	jne	LBB172_2
	.loc	57 77 25
	movq	$0, -24(%rbp)
	.loc	57 73 21
	jmp	LBB172_3
LBB172_2:
	.loc	57 0 21 is_stmt 0
	movq	-32(%rbp), %rax
	.loc	57 75 39 is_stmt 1
	movq	%rax, -16(%rbp)
	.loc	57 75 25 is_stmt 0
	movq	-16(%rbp), %rax
	movq	%rax, -24(%rbp)
LBB172_3:
	.loc	57 79 18 is_stmt 1
	movq	-24(%rbp), %rax
	addq	$32, %rsp
	popq	%rbp
	retq
Ltmp1205:
Lfunc_end172:
	.cfi_endproc

	.p2align	4, 0x90
__ZN4core3num7nonzero11NonZeroI1283get17h525a3116544bbe31E:
Lfunc_begin173:
	.loc	57 85 0
	.cfi_startproc
	pushq	%rbp
	.cfi_def_cfa_offset 16
	.cfi_offset %rbp, -16
	movq	%rsp, %rbp
	.cfi_def_cfa_register %rbp
	subq	$16, %rsp
	movq	%rsi, %rdx
	movq	%rdi, %rax
	movq	%rax, -16(%rbp)
	movq	%rdx, -8(%rbp)
Ltmp1206:
	.loc	57 87 18 prologue_end
	addq	$16, %rsp
	popq	%rbp
	retq
Ltmp1207:
Lfunc_end173:
	.cfi_endproc

	.p2align	4, 0x90
__ZN4core3num7nonzero11NonZeroU1283get17h9980d3f6ca10231aE:
Lfunc_begin174:
	.loc	57 85 0
	.cfi_startproc
	pushq	%rbp
	.cfi_def_cfa_offset 16
	.cfi_offset %rbp, -16
	movq	%rsp, %rbp
	.cfi_def_cfa_register %rbp
	subq	$16, %rsp
	movq	%rsi, %rdx
	movq	%rdi, %rax
	movq	%rax, -16(%rbp)
	movq	%rdx, -8(%rbp)
Ltmp1208:
	.loc	57 87 18 prologue_end
	addq	$16, %rsp
	popq	%rbp
	retq
Ltmp1209:
Lfunc_end174:
	.cfi_endproc

	.p2align	4, 0x90
__ZN4core3num7nonzero12NonZeroIsize3get17hd0fe08b8b89ea82dE:
Lfunc_begin175:
	.loc	57 85 0
	.cfi_startproc
	pushq	%rbp
	.cfi_def_cfa_offset 16
	.cfi_offset %rbp, -16
	movq	%rsp, %rbp
	.cfi_def_cfa_register %rbp
	pushq	%rax
	movq	%rdi, %rax
	movq	%rax, -8(%rbp)
Ltmp1210:
	.loc	57 87 18 prologue_end
	addq	$8, %rsp
	popq	%rbp
	retq
Ltmp1211:
Lfunc_end175:
	.cfi_endproc

	.p2align	4, 0x90
