	.section	__TEXT,__text,regular,pure_instructions
	.macosx_version_min 10, 7
	.globl	__ZN100_$LT$core..iter..adapters..skip..Skip$LT$I$GT$$u20$as$u20$core..iter..traits..iterator..Iterator$GT$4next17h228c387eccb8687eE
	.p2align	4, 0x90
__ZN100_$LT$core..iter..adapters..skip..Skip$LT$I$GT$$u20$as$u20$core..iter..traits..iterator..Iterator$GT$4next17h228c387eccb8687eE:
Lfunc_begin0:
	.file	1 "/rustc/2c8cc343237b8f7d5a3c3703e3a87f2eb2c54a74/library/core/src/iter/adapters" "skip.rs"
	.loc	1 34 0
	.cfi_startproc
	pushq	%rbp
	.cfi_def_cfa_offset 16
	.cfi_offset %rbp, -16
	movq	%rsp, %rbp
	.cfi_def_cfa_register %rbp
	subq	$48, %rsp
	movq	%rdi, -48(%rbp)
	movq	%rdi, -24(%rbp)
Ltmp0:
	.loc	1 35 21 prologue_end
	cmpq	$0, 32(%rdi)
	seta	%al
	.loc	1 35 12 is_stmt 0
	andb	$1, %al
	movb	%al, -9(%rbp)
	testb	$1, -9(%rbp)
	jne	LBB0_2
	.loc	1 0 12
	movq	-48(%rbp), %rdi
	.loc	1 38 13 is_stmt 1
	callq	__ZN100_$LT$core..iter..adapters..take..Take$LT$I$GT$$u20$as$u20$core..iter..traits..iterator..Iterator$GT$4next17h42bbed8f3f990e34E
	movq	%rdx, -32(%rbp)
	movq	%rax, -40(%rbp)
	.loc	1 35 9
	jmp	LBB0_3
LBB0_2:
	.loc	1 0 9 is_stmt 0
	movq	-48(%rbp), %rdi
	.loc	1 36 44 is_stmt 1
	addq	$32, %rdi
	movq	%rdi, -8(%rbp)
	xorl	%eax, %eax
	movl	%eax, %esi
Ltmp1:
	.file	2 "/rustc/2c8cc343237b8f7d5a3c3703e3a87f2eb2c54a74/library/core/src/mem" "mod.rs"
	.loc	2 839 5
	callq	__ZN4core3mem7replace17hc1ff0f03d2acd468E
	movq	-48(%rbp), %rdi
	movq	%rax, %rsi
Ltmp2:
	.loc	1 36 13
	callq	__ZN100_$LT$core..iter..adapters..take..Take$LT$I$GT$$u20$as$u20$core..iter..traits..iterator..Iterator$GT$3nth17hb1e6147cb1c1a223E
	movq	%rdx, -32(%rbp)
	movq	%rax, -40(%rbp)
LBB0_3:
	.loc	1 40 6
	movq	-40(%rbp), %rax
	movq	-32(%rbp), %rdx
	addq	$48, %rsp
	popq	%rbp
	retq
Ltmp3:
Lfunc_end0:
	.cfi_endproc

	.globl	__ZN100_$LT$core..iter..adapters..take..Take$LT$I$GT$$u20$as$u20$core..iter..traits..iterator..Iterator$GT$3nth17hb1e6147cb1c1a223E
	.p2align	4, 0x90
__ZN100_$LT$core..iter..adapters..take..Take$LT$I$GT$$u20$as$u20$core..iter..traits..iterator..Iterator$GT$3nth17hb1e6147cb1c1a223E:
Lfunc_begin1:
	.file	3 "/rustc/2c8cc343237b8f7d5a3c3703e3a87f2eb2c54a74/library/core/src/iter/adapters" "take.rs"
	.loc	3 44 0
	.cfi_startproc
	pushq	%rbp
	.cfi_def_cfa_offset 16
	.cfi_offset %rbp, -16
	movq	%rsp, %rbp
	.cfi_def_cfa_register %rbp
	subq	$48, %rsp
	movq	%rdi, -48(%rbp)
	movq	%rsi, -40(%rbp)
	movq	%rdi, -16(%rbp)
	movq	%rsi, -8(%rbp)
Ltmp4:
	.loc	3 45 12 prologue_end
	cmpq	%rsi, (%rdi)
	ja	LBB1_2
	.loc	3 0 12 is_stmt 0
	movq	-48(%rbp), %rax
	.loc	3 49 16 is_stmt 1
	cmpq	$0, (%rax)
	ja	LBB1_5
	jmp	LBB1_4
LBB1_2:
	.loc	3 0 16 is_stmt 0
	movq	-40(%rbp), %rsi
	movq	-48(%rbp), %rdi
	.loc	3 46 13 is_stmt 1
	movq	(%rdi), %rcx
	movq	%rsi, %rax
	notq	%rax
	addq	%rcx, %rax
	movq	%rax, (%rdi)
	.loc	3 47 13
	addq	$8, %rdi
	callq	__ZN110_$LT$core..iter..adapters..enumerate..Enumerate$LT$I$GT$$u20$as$u20$core..iter..traits..iterator..Iterator$GT$3nth17he6ab1a8480f0058cE
	movq	%rdx, -24(%rbp)
	movq	%rax, -32(%rbp)
LBB1_3:
	.loc	3 55 6
	movq	-32(%rbp), %rax
	movq	-24(%rbp), %rdx
	addq	$48, %rsp
	popq	%rbp
	retq
LBB1_4:
	.loc	3 53 13
	movq	$0, -24(%rbp)
	.loc	3 45 9
	jmp	LBB1_3
LBB1_5:
	.loc	3 0 9 is_stmt 0
	movq	-48(%rbp), %rax
	.loc	3 50 17 is_stmt 1
	movq	%rax, %rdi
	addq	$8, %rdi
	.loc	3 50 31 is_stmt 0
	movq	(%rax), %rsi
	subq	$1, %rsi
	.loc	3 50 17
	callq	__ZN110_$LT$core..iter..adapters..enumerate..Enumerate$LT$I$GT$$u20$as$u20$core..iter..traits..iterator..Iterator$GT$3nth17he6ab1a8480f0058cE
	movq	-48(%rbp), %rax
	.loc	3 51 17 is_stmt 1
	movq	$0, (%rax)
	.loc	3 49 13
	jmp	LBB1_4
Ltmp5:
Lfunc_end1:
	.cfi_endproc

	.globl	__ZN100_$LT$core..iter..adapters..take..Take$LT$I$GT$$u20$as$u20$core..iter..traits..iterator..Iterator$GT$4next17h42bbed8f3f990e34E
	.p2align	4, 0x90
__ZN100_$LT$core..iter..adapters..take..Take$LT$I$GT$$u20$as$u20$core..iter..traits..iterator..Iterator$GT$4next17h42bbed8f3f990e34E:
Lfunc_begin2:
	.loc	3 34 0
	.cfi_startproc
	pushq	%rbp
	.cfi_def_cfa_offset 16
	.cfi_offset %rbp, -16
	movq	%rsp, %rbp
	.cfi_def_cfa_register %rbp
	subq	$32, %rsp
	movq	%rdi, -32(%rbp)
	movq	%rdi, -8(%rbp)
Ltmp6:
	.loc	3 35 12 prologue_end
	cmpq	$0, (%rdi)
	jne	LBB2_2
	.loc	3 39 13
	movq	$0, -16(%rbp)
	.loc	3 35 9
	jmp	LBB2_3
LBB2_2:
	.loc	3 0 9 is_stmt 0
	movq	-32(%rbp), %rdi
	.loc	3 36 13 is_stmt 1
	movq	(%rdi), %rax
	decq	%rax
	movq	%rax, (%rdi)
	.loc	3 37 13
	addq	$8, %rdi
	callq	__ZN110_$LT$core..iter..adapters..enumerate..Enumerate$LT$I$GT$$u20$as$u20$core..iter..traits..iterator..Iterator$GT$4next17he71f03955579d632E
	movq	%rdx, -16(%rbp)
	movq	%rax, -24(%rbp)
LBB2_3:
	.loc	3 41 6
	movq	-24(%rbp), %rax
	movq	-16(%rbp), %rdx
	addq	$32, %rsp
	popq	%rbp
	retq
Ltmp7:
Lfunc_end2:
	.cfi_endproc

	.globl	__ZN100_$LT$core..iter..adapters..take..Take$LT$I$GT$$u20$as$u20$core..iter..traits..iterator..Iterator$GT$8for_each17hafdf1ef55dcb3c5aE
	.p2align	4, 0x90
__ZN100_$LT$core..iter..adapters..take..Take$LT$I$GT$$u20$as$u20$core..iter..traits..iterator..Iterator$GT$8for_each17hafdf1ef55dcb3c5aE:
Lfunc_begin3:
	.loc	3 103 0
	.cfi_startproc
	.cfi_personality 155, _rust_eh_personality
	.cfi_lsda 16, Lexception0
	pushq	%rbp
	.cfi_def_cfa_offset 16
	.cfi_offset %rbp, -16
	movq	%rsp, %rbp
	.cfi_def_cfa_register %rbp
	subq	$128, %rsp
	movq	%rdx, -112(%rbp)
Ltmp15:
	movb	%sil, %al
	movq	%rdi, -96(%rbp)
	movb	%al, -88(%rbp)
Ltmp16:
	.loc	3 116 13 prologue_end
	movb	$1, -25(%rbp)
	.loc	3 116 25 is_stmt 0
	movq	-96(%rbp), %rax
	movq	%rax, -104(%rbp)
	movq	%rax, -24(%rbp)
Ltmp17:
	.loc	3 117 12 is_stmt 1
	cmpq	$0, %rax
Ltmp18:
	ja	LBB3_2
Ltmp19:
LBB3_1:
	.loc	3 120 5
	testb	$1, -25(%rbp)
	jne	LBB3_8
	jmp	LBB3_7
Ltmp20:
LBB3_2:
	.loc	3 0 5 is_stmt 0
	movq	-112(%rbp), %rcx
	movq	-104(%rbp), %rax
Ltmp21:
	.loc	3 118 13 is_stmt 1
	leaq	-88(%rbp), %rdx
	movq	%rdx, -128(%rbp)
	.loc	3 118 32 is_stmt 0
	decq	%rax
	movq	%rax, -120(%rbp)
	.loc	3 118 53
	movb	$0, -25(%rbp)
	movq	16(%rcx), %rax
	movq	%rax, -40(%rbp)
	movq	(%rcx), %rax
	movq	8(%rcx), %rcx
	movq	%rcx, -48(%rbp)
	movq	%rax, -56(%rbp)
Ltmp8:
	leaq	-80(%rbp), %rdi
	leaq	-56(%rbp), %rsi
	.loc	3 118 47
	callq	__ZN100_$LT$core..iter..adapters..take..Take$LT$I$GT$$u20$as$u20$core..iter..traits..iterator..Iterator$GT$8for_each5check17hbdbd6ecd88a8aee7E
Ltmp9:
	jmp	LBB3_5
Ltmp22:
LBB3_3:
	.loc	3 103 5 is_stmt 1
	movq	-16(%rbp), %rdi
	callq	__Unwind_Resume
Ltmp23:
LBB3_4:
Ltmp14:
	.loc	3 0 5 is_stmt 0
	movq	%rax, %rcx
	movl	%edx, %eax
	movq	%rcx, -16(%rbp)
	movl	%eax, -8(%rbp)
	jmp	LBB3_3
Ltmp24:
LBB3_5:
Ltmp10:
	movq	-120(%rbp), %rsi
	movq	-128(%rbp), %rdi
	leaq	-80(%rbp), %rdx
Ltmp25:
	.loc	3 118 13 is_stmt 1
	callq	__ZN4core4iter6traits8iterator8Iterator8try_fold17h6cdb86dccbaea79dE
Ltmp11:
	jmp	LBB3_6
Ltmp26:
LBB3_6:
	.loc	3 117 9
	jmp	LBB3_1
Ltmp27:
LBB3_7:
	.loc	3 120 6
	addq	$128, %rsp
	popq	%rbp
	retq
Ltmp28:
LBB3_8:
Ltmp12:
	.loc	3 0 6 is_stmt 0
	movq	-112(%rbp), %rdi
	.loc	3 120 5
	callq	__ZN4core3ptr264drop_in_place$LT$alloc..vec..Vec$LT$unicode_bidi..char_data..tables..BidiClass$GT$..extend_trusted$LT$core..iter..adapters..take..Take$LT$core..iter..sources..repeat..Repeat$LT$unicode_bidi..char_data..tables..BidiClass$GT$$GT$$GT$..$u7b$$u7b$closure$u7d$$u7d$$GT$17he50018e444b258d7E
Ltmp13:
	jmp	LBB3_7
Ltmp29:
Lfunc_end3:
	.cfi_endproc
	.section	__TEXT,__gcc_except_tab
	.p2align	2
GCC_except_table3:
Lexception0:
	.byte	255
	.byte	255
	.byte	1
	.uleb128 Lcst_end0-Lcst_begin0
Lcst_begin0:
	.uleb128 Ltmp8-Lfunc_begin3
	.uleb128 Ltmp9-Ltmp8
	.uleb128 Ltmp14-Lfunc_begin3
	.byte	0
	.uleb128 Ltmp9-Lfunc_begin3
	.uleb128 Ltmp10-Ltmp9
	.byte	0
	.byte	0
	.uleb128 Ltmp10-Lfunc_begin3
	.uleb128 Ltmp13-Ltmp10
	.uleb128 Ltmp14-Lfunc_begin3
	.byte	0
Lcst_end0:
	.p2align	2

	.section	__TEXT,__text,regular,pure_instructions
	.globl	__ZN100_$LT$core..iter..adapters..take..Take$LT$I$GT$$u20$as$u20$core..iter..traits..iterator..Iterator$GT$8for_each5check17hbdbd6ecd88a8aee7E
	.p2align	4, 0x90
__ZN100_$LT$core..iter..adapters..take..Take$LT$I$GT$$u20$as$u20$core..iter..traits..iterator..Iterator$GT$8for_each5check17hbdbd6ecd88a8aee7E:
Lfunc_begin4:
	.loc	3 107 0 is_stmt 1
	.cfi_startproc
	pushq	%rbp
	.cfi_def_cfa_offset 16
	.cfi_offset %rbp, -16
	movq	%rsp, %rbp
	.cfi_def_cfa_register %rbp
	movq	%rdi, %rax
Ltmp30:
	.loc	3 110 13 prologue_end
	movq	(%rsi), %rcx
	movq	%rcx, (%rdi)
	movq	8(%rsi), %rcx
	movq	%rcx, 8(%rdi)
	movq	16(%rsi), %rcx
	movq	%rcx, 16(%rdi)
	.loc	3 114 10
	popq	%rbp
	retq
Ltmp31:
Lfunc_end4:
	.cfi_endproc

	.globl	__ZN100_$LT$core..iter..adapters..take..Take$LT$I$GT$$u20$as$u20$core..iter..traits..iterator..Iterator$GT$8for_each5check28_$u7b$$u7b$closure$u7d$$u7d$17he27d4b130d9e6d57E
	.p2align	4, 0x90
__ZN100_$LT$core..iter..adapters..take..Take$LT$I$GT$$u20$as$u20$core..iter..traits..iterator..Iterator$GT$8for_each5check28_$u7b$$u7b$closure$u7d$$u7d$17he27d4b130d9e6d57E:
Lfunc_begin5:
	.loc	3 110 0
	.cfi_startproc
	pushq	%rbp
	.cfi_def_cfa_offset 16
	.cfi_offset %rbp, -16
	movq	%rsp, %rbp
	.cfi_def_cfa_register %rbp
	subq	$48, %rsp
	movq	%rsi, -40(%rbp)
	movb	%dl, %al
	movq	%rdi, -24(%rbp)
	movq	%rsi, -16(%rbp)
	movb	%al, -1(%rbp)
Ltmp32:
	.loc	3 111 17 prologue_end
	movb	%al, -25(%rbp)
	movzbl	-25(%rbp), %esi
	callq	__ZN5alloc3vec16Vec$LT$T$C$A$GT$14extend_trusted28_$u7b$$u7b$closure$u7d$$u7d$17h512c822bcbdff975E
	movq	-40(%rbp), %rdi
	movl	$1, %esi
	.loc	3 112 17
	callq	__ZN4core3num23_$LT$impl$u20$usize$GT$11checked_sub17h6e9ef14b6e651762E
	.loc	3 113 14
	addq	$48, %rsp
	popq	%rbp
	retq
Ltmp33:
Lfunc_end5:
	.cfi_endproc

	.globl	__ZN100_$LT$core..iter..adapters..take..Take$LT$I$GT$$u20$as$u20$core..iter..traits..iterator..Iterator$GT$9size_hint17haf7ef2c1c95de065E
	.p2align	4, 0x90
__ZN100_$LT$core..iter..adapters..take..Take$LT$I$GT$$u20$as$u20$core..iter..traits..iterator..Iterator$GT$9size_hint17haf7ef2c1c95de065E:
Lfunc_begin6:
	.loc	3 58 0
	.cfi_startproc
	pushq	%rbp
	.cfi_def_cfa_offset 16
	.cfi_offset %rbp, -16
	movq	%rsp, %rbp
	.cfi_def_cfa_register %rbp
	subq	$176, %rsp
	movq	%rsi, -168(%rbp)
	movq	%rdi, -160(%rbp)
	movq	%rdi, -152(%rbp)
	movq	%rsi, -72(%rbp)
Ltmp34:
	.loc	3 59 12 prologue_end
	cmpq	$0, (%rsi)
	jne	LBB6_2
	.loc	3 0 12 is_stmt 0
	movq	-160(%rbp), %rax
	.loc	3 60 24 is_stmt 1
	movq	$0, -136(%rbp)
	movq	$1, -144(%rbp)
	.loc	3 60 20 is_stmt 0
	movq	$0, (%rax)
	movq	-144(%rbp), %rdx
	movq	-136(%rbp), %rcx
	movq	%rdx, 8(%rax)
	movq	%rcx, 16(%rax)
	.loc	3 73 6 is_stmt 1
	jmp	LBB6_8
LBB6_2:
	.loc	3 0 6 is_stmt 0
	movq	-168(%rbp), %rsi
	.loc	3 63 30 is_stmt 1
	addq	$8, %rsi
	leaq	-112(%rbp), %rdi
	callq	__ZN103_$LT$core..iter..sources..repeat..Repeat$LT$A$GT$$u20$as$u20$core..iter..traits..iterator..Iterator$GT$9size_hint17hcc7313aad4305088E
	movq	-168(%rbp), %rax
	.loc	3 63 14 is_stmt 0
	movq	-112(%rbp), %rdi
	movq	%rdi, -64(%rbp)
	.loc	3 63 21
	movq	-104(%rbp), %rdx
	movq	-96(%rbp), %rcx
	movq	%rdx, -128(%rbp)
	movq	%rcx, -120(%rbp)
Ltmp35:
	.loc	3 65 30 is_stmt 1
	movq	%rdi, -56(%rbp)
	.loc	3 65 37 is_stmt 0
	movq	(%rax), %rsi
	movq	%rsi, -48(%rbp)
Ltmp36:
	.file	4 "/rustc/2c8cc343237b8f7d5a3c3703e3a87f2eb2c54a74/library/core/src" "cmp.rs"
	.loc	4 1185 5 is_stmt 1
	movq	%rdi, -40(%rbp)
	.loc	4 1185 12 is_stmt 0
	movq	%rsi, -32(%rbp)
Ltmp37:
	.loc	4 833 13 is_stmt 1
	callq	__ZN4core3cmp6min_by17hafed8255140713f1E
	movq	%rax, -176(%rbp)
	movq	%rax, -24(%rbp)
Ltmp38:
	.loc	3 67 21
	cmpq	$1, -128(%rbp)
	jne	LBB6_4
	.loc	3 0 21 is_stmt 0
	movq	-168(%rbp), %rcx
	.loc	3 68 18 is_stmt 1
	leaq	-128(%rbp), %rax
	addq	$8, %rax
	movq	%rax, -16(%rbp)
	.loc	3 68 24 is_stmt 0
	movq	-120(%rbp), %rax
	cmpq	(%rcx), %rax
	jb	LBB6_6
	jmp	LBB6_5
LBB6_4:
	.loc	3 0 24
	movq	-168(%rbp), %rax
	.loc	3 69 23 is_stmt 1
	movq	(%rax), %rax
	.loc	3 69 18 is_stmt 0
	movq	%rax, -80(%rbp)
	movq	$1, -88(%rbp)
	.loc	3 69 29
	jmp	LBB6_7
LBB6_5:
	.loc	3 68 24 is_stmt 1
	jmp	LBB6_4
LBB6_6:
	.loc	3 68 18 is_stmt 0
	movq	-120(%rbp), %rax
	movq	%rax, -8(%rbp)
Ltmp39:
	.loc	3 68 38
	movq	%rax, -80(%rbp)
	movq	$1, -88(%rbp)
Ltmp40:
LBB6_7:
	.loc	3 0 38
	movq	-160(%rbp), %rax
	movq	-176(%rbp), %rsi
Ltmp41:
	.loc	3 72 17 is_stmt 1
	movq	-88(%rbp), %rdx
	movq	-80(%rbp), %rcx
	.loc	3 72 9 is_stmt 0
	movq	%rsi, (%rax)
	movq	%rdx, 8(%rax)
	movq	%rcx, 16(%rax)
Ltmp42:
LBB6_8:
	.loc	3 0 9
	movq	-152(%rbp), %rax
	.loc	3 73 6 is_stmt 1
	addq	$176, %rsp
	popq	%rbp
	retq
Ltmp43:
Lfunc_end6:
	.cfi_endproc

	.globl	__ZN102_$LT$core..iter..adapters..map..Map$LT$I$C$F$GT$$u20$as$u20$core..iter..traits..iterator..Iterator$GT$4fold17h0ce91cb4a34a257aE
	.p2align	4, 0x90
__ZN102_$LT$core..iter..adapters..map..Map$LT$I$C$F$GT$$u20$as$u20$core..iter..traits..iterator..Iterator$GT$4fold17h0ce91cb4a34a257aE:
Lfunc_begin7:
	.file	5 "/rustc/2c8cc343237b8f7d5a3c3703e3a87f2eb2c54a74/library/core/src/iter/adapters" "map.rs"
	.loc	5 120 0
	.cfi_startproc
	.cfi_personality 155, _rust_eh_personality
	.cfi_lsda 16, Lexception1
	pushq	%rbp
	.cfi_def_cfa_offset 16
	.cfi_offset %rbp, -16
	movq	%rsp, %rbp
	.cfi_def_cfa_register %rbp
	subq	$112, %rsp
	movq	%rdi, -112(%rbp)
	movq	%rsi, -104(%rbp)
Ltmp49:
	movq	%rdi, -40(%rbp)
	movq	%rsi, -32(%rbp)
Ltmp50:
	.loc	5 124 9 prologue_end
	movb	$1, -41(%rbp)
	.loc	5 124 24 is_stmt 0
	movb	$1, -42(%rbp)
	.loc	5 124 47
	movq	16(%rdx), %rax
	movq	%rax, -56(%rbp)
	movq	(%rdx), %rax
	movq	8(%rdx), %rcx
	movq	%rcx, -64(%rbp)
	movq	%rax, -72(%rbp)
Ltmp44:
	leaq	-96(%rbp), %rdi
	leaq	-72(%rbp), %rsi
	.loc	5 124 30
	callq	__ZN4core4iter8adapters3map8map_fold17h930516080d2abdc6E
Ltmp51:
Ltmp45:
	jmp	LBB7_3
Ltmp52:
LBB7_1:
	.loc	5 124 49
	testb	$1, -42(%rbp)
	jne	LBB7_6
	jmp	LBB7_5
Ltmp53:
LBB7_2:
Ltmp48:
	.loc	5 0 49
	movq	%rax, %rcx
	movl	%edx, %eax
	movq	%rcx, -16(%rbp)
	movl	%eax, -8(%rbp)
	jmp	LBB7_1
Ltmp54:
LBB7_3:
	movq	-104(%rbp), %rsi
	movq	-112(%rbp), %rdi
	.loc	5 124 9
	movb	$0, -41(%rbp)
	movb	$0, -42(%rbp)
Ltmp46:
	leaq	-96(%rbp), %rdx
	callq	__ZN4core4iter6traits8iterator8Iterator4fold17h8d8b0e7af3221d27E
Ltmp47:
	jmp	LBB7_4
Ltmp55:
LBB7_4:
	.loc	5 125 6 is_stmt 1
	addq	$112, %rsp
	popq	%rbp
	retq
Ltmp56:
LBB7_5:
	.loc	5 124 49
	testb	$1, -41(%rbp)
	jne	LBB7_8
	jmp	LBB7_7
Ltmp57:
LBB7_6:
	jmp	LBB7_5
Ltmp58:
LBB7_7:
	.loc	5 120 5
	movq	-16(%rbp), %rdi
	callq	__Unwind_Resume
Ltmp59:
LBB7_8:
	.loc	5 124 49
	jmp	LBB7_7
Ltmp60:
Lfunc_end7:
	.cfi_endproc
	.section	__TEXT,__gcc_except_tab
	.p2align	2
GCC_except_table7:
Lexception1:
	.byte	255
	.byte	255
	.byte	1
	.uleb128 Lcst_end1-Lcst_begin1
Lcst_begin1:
	.uleb128 Ltmp44-Lfunc_begin7
	.uleb128 Ltmp47-Ltmp44
	.uleb128 Ltmp48-Lfunc_begin7
	.byte	0
	.uleb128 Ltmp47-Lfunc_begin7
	.uleb128 Lfunc_end7-Ltmp47
	.byte	0
	.byte	0
Lcst_end1:
	.p2align	2

	.section	__TEXT,__text,regular,pure_instructions
	.globl	__ZN102_$LT$core..iter..adapters..map..Map$LT$I$C$F$GT$$u20$as$u20$core..iter..traits..iterator..Iterator$GT$4fold17h89b1352f46a655e2E
	.p2align	4, 0x90
__ZN102_$LT$core..iter..adapters..map..Map$LT$I$C$F$GT$$u20$as$u20$core..iter..traits..iterator..Iterator$GT$4fold17h89b1352f46a655e2E:
Lfunc_begin8:
	.loc	5 120 0
	.cfi_startproc
	.cfi_personality 155, _rust_eh_personality
	.cfi_lsda 16, Lexception2
	pushq	%rbp
	.cfi_def_cfa_offset 16
	.cfi_offset %rbp, -16
	movq	%rsp, %rbp
	.cfi_def_cfa_register %rbp
	subq	$160, %rsp
Ltmp69:
	.loc	5 124 9 prologue_end
	movb	$1, -25(%rbp)
	movq	24(%rdi), %rax
	movq	%rax, -136(%rbp)
	movq	16(%rdi), %rax
	movq	%rax, -144(%rbp)
	movq	(%rdi), %rax
	movq	8(%rdi), %rcx
	movq	%rcx, -152(%rbp)
	movq	%rax, -160(%rbp)
	.loc	5 124 24 is_stmt 0
	movb	$1, -26(%rbp)
	.loc	5 124 39
	movq	48(%rdi), %rax
	movq	%rax, -64(%rbp)
	movq	32(%rdi), %rax
	movq	40(%rdi), %rcx
	movq	%rcx, -72(%rbp)
	movq	%rax, -80(%rbp)
	.loc	5 124 47
	movq	16(%rsi), %rax
	movq	%rax, -40(%rbp)
	movq	(%rsi), %rax
	movq	8(%rsi), %rcx
	movq	%rcx, -48(%rbp)
	movq	%rax, -56(%rbp)
Ltmp61:
	leaq	-128(%rbp), %rdi
Ltmp70:
	.loc	5 0 47
	leaq	-80(%rbp), %rsi
Ltmp71:
	leaq	-56(%rbp), %rdx
	.loc	5 124 30
	callq	__ZN4core4iter8adapters3map8map_fold17h2616e5635f0b75f2E
Ltmp62:
	jmp	LBB8_3
Ltmp72:
LBB8_1:
	.loc	5 124 49
	testb	$1, -26(%rbp)
	jne	LBB8_6
	jmp	LBB8_5
Ltmp73:
LBB8_2:
Ltmp65:
	.loc	5 0 49
	movq	%rax, %rcx
	movl	%edx, %eax
	movq	%rcx, -16(%rbp)
	movl	%eax, -8(%rbp)
	jmp	LBB8_1
Ltmp74:
LBB8_3:
	.loc	5 124 9
	movb	$0, -25(%rbp)
	movb	$0, -26(%rbp)
Ltmp63:
	leaq	-160(%rbp), %rdi
	leaq	-128(%rbp), %rsi
	callq	__ZN4core4iter6traits8iterator8Iterator4fold17h6f1564068d6bac2fE
Ltmp64:
	jmp	LBB8_4
Ltmp75:
LBB8_4:
	.loc	5 125 6 is_stmt 1
	addq	$160, %rsp
	popq	%rbp
	retq
Ltmp76:
LBB8_5:
	.loc	5 124 49
	testb	$1, -25(%rbp)
	jne	LBB8_8
	jmp	LBB8_7
Ltmp77:
LBB8_6:
	jmp	LBB8_5
Ltmp78:
LBB8_7:
	.loc	5 120 5
	movq	-16(%rbp), %rdi
	callq	__Unwind_Resume
Ltmp79:
LBB8_8:
Ltmp66:
	.loc	5 0 5 is_stmt 0
	leaq	-160(%rbp), %rdi
	.loc	5 124 49 is_stmt 1
	callq	__ZN4core3ptr119drop_in_place$LT$alloc..vec..into_iter..IntoIter$LT$alloc..vec..Vec$LT$core..ops..range..Range$LT$usize$GT$$GT$$GT$$GT$17he44fbe87a4828744E
Ltmp67:
	jmp	LBB8_7
Ltmp80:
LBB8_9:
Ltmp68:
	.loc	5 120 5
	callq	__ZN4core9panicking19panic_cannot_unwind17h1fbca7e1d7f56ae1E
Ltmp81:
Lfunc_end8:
	.cfi_endproc
	.section	__TEXT,__gcc_except_tab
	.p2align	2
GCC_except_table8:
Lexception2:
	.byte	255
	.byte	255
	.byte	1
	.uleb128 Lcst_end2-Lcst_begin2
Lcst_begin2:
	.uleb128 Ltmp61-Lfunc_begin8
	.uleb128 Ltmp64-Ltmp61
	.uleb128 Ltmp65-Lfunc_begin8
	.byte	0
	.uleb128 Ltmp64-Lfunc_begin8
	.uleb128 Ltmp66-Ltmp64
	.byte	0
	.byte	0
	.uleb128 Ltmp66-Lfunc_begin8
	.uleb128 Ltmp67-Ltmp66
	.uleb128 Ltmp68-Lfunc_begin8
	.byte	0
Lcst_end2:
	.p2align	2

	.section	__TEXT,__text,regular,pure_instructions
	.globl	__ZN102_$LT$core..iter..adapters..map..Map$LT$I$C$F$GT$$u20$as$u20$core..iter..traits..iterator..Iterator$GT$4next17h3ff7cce161ee8258E
	.p2align	4, 0x90
__ZN102_$LT$core..iter..adapters..map..Map$LT$I$C$F$GT$$u20$as$u20$core..iter..traits..iterator..Iterator$GT$4next17h3ff7cce161ee8258E:
Lfunc_begin9:
	.loc	5 102 0
	.cfi_startproc
	pushq	%rbp
	.cfi_def_cfa_offset 16
	.cfi_offset %rbp, -16
	movq	%rsp, %rbp
	.cfi_def_cfa_register %rbp
	subq	$32, %rsp
	movq	%rsi, -24(%rbp)
	movq	%rdi, %rax
	movq	-24(%rbp), %rdi
	movq	%rax, -32(%rbp)
	movq	%rax, -16(%rbp)
	movq	%rdi, -8(%rbp)
Ltmp82:
	.loc	5 103 9 prologue_end
	callq	__ZN91_$LT$core..slice..iter..Iter$LT$T$GT$$u20$as$u20$core..iter..traits..iterator..Iterator$GT$4next17hfcf52a89f34828daE
	movq	-32(%rbp), %rdi
	movq	-24(%rbp), %rdx
	movq	%rax, %rsi
	callq	__ZN4core6option15Option$LT$T$GT$3map17h4827103d29088d78E
	movq	-16(%rbp), %rax
	.loc	5 104 6
	addq	$32, %rsp
	popq	%rbp
	retq
Ltmp83:
Lfunc_end9:
	.cfi_endproc

	.globl	__ZN102_$LT$core..iter..adapters..map..Map$LT$I$C$F$GT$$u20$as$u20$core..iter..traits..iterator..Iterator$GT$4next17h5a9c849f25fc4013E
	.p2align	4, 0x90
__ZN102_$LT$core..iter..adapters..map..Map$LT$I$C$F$GT$$u20$as$u20$core..iter..traits..iterator..Iterator$GT$4next17h5a9c849f25fc4013E:
Lfunc_begin10:
	.loc	5 102 0
	.cfi_startproc
	pushq	%rbp
	.cfi_def_cfa_offset 16
	.cfi_offset %rbp, -16
	movq	%rsp, %rbp
	.cfi_def_cfa_register %rbp
	subq	$64, %rsp
	movq	%rsi, -56(%rbp)
	movq	%rdi, -48(%rbp)
	movq	%rdi, -40(%rbp)
	movq	%rsi, -8(%rbp)
Ltmp84:
	.loc	5 103 9 prologue_end
	leaq	-32(%rbp), %rdi
	callq	__ZN104_$LT$core..iter..adapters..cloned..Cloned$LT$I$GT$$u20$as$u20$core..iter..traits..iterator..Iterator$GT$4next17h49a844da4d497833E
	movq	-56(%rbp), %rdx
	movq	-48(%rbp), %rdi
	.loc	5 103 30 is_stmt 0
	addq	$16, %rdx
	.loc	5 103 9
	leaq	-32(%rbp), %rsi
	callq	__ZN4core6option15Option$LT$T$GT$3map17h6996748eb070b06cE
	movq	-40(%rbp), %rax
	.loc	5 104 6 is_stmt 1
	addq	$64, %rsp
	popq	%rbp
	retq
Ltmp85:
Lfunc_end10:
	.cfi_endproc

	.globl	__ZN102_$LT$core..iter..adapters..map..Map$LT$I$C$F$GT$$u20$as$u20$core..iter..traits..iterator..Iterator$GT$4next17hec0af9120a082573E
	.p2align	4, 0x90
__ZN102_$LT$core..iter..adapters..map..Map$LT$I$C$F$GT$$u20$as$u20$core..iter..traits..iterator..Iterator$GT$4next17hec0af9120a082573E:
Lfunc_begin11:
	.loc	5 102 0
	.cfi_startproc
	pushq	%rbp
	.cfi_def_cfa_offset 16
	.cfi_offset %rbp, -16
	movq	%rsp, %rbp
	.cfi_def_cfa_register %rbp
	subq	$16, %rsp
	movq	%rdi, -16(%rbp)
	movq	%rdi, -8(%rbp)
Ltmp86:
	.loc	5 103 9 prologue_end
	callq	__ZN87_$LT$core..str..iter..CharIndices$u20$as$u20$core..iter..traits..iterator..Iterator$GT$4next17h6c6d90bc4dfaea33E
	movq	%rax, %rdi
	movl	%edx, %esi
	movq	-16(%rbp), %rdx
	.loc	5 103 30 is_stmt 0
	addq	$24, %rdx
	.loc	5 103 9
	callq	__ZN4core6option15Option$LT$T$GT$3map17hf2e4d7c933afe6c8E
	.loc	5 104 6 is_stmt 1
	andb	$1, %al
	addq	$16, %rsp
	popq	%rbp
	retq
Ltmp87:
Lfunc_end11:
	.cfi_endproc

	.globl	__ZN102_$LT$core..iter..adapters..map..Map$LT$I$C$F$GT$$u20$as$u20$core..iter..traits..iterator..Iterator$GT$8try_fold17h5aa361a0b579eed0E
	.p2align	4, 0x90
__ZN102_$LT$core..iter..adapters..map..Map$LT$I$C$F$GT$$u20$as$u20$core..iter..traits..iterator..Iterator$GT$8try_fold17h5aa361a0b579eed0E:
Lfunc_begin12:
	.loc	5 111 0
	.cfi_startproc
	.cfi_personality 155, _rust_eh_personality
	.cfi_lsda 16, Lexception3
	pushq	%rbp
	.cfi_def_cfa_offset 16
	.cfi_offset %rbp, -16
	movq	%rsp, %rbp
	.cfi_def_cfa_register %rbp
	subq	$80, %rsp
	movq	%rdi, -40(%rbp)
Ltmp93:
	.loc	5 117 9 prologue_end
	movq	%rdi, %rax
	addq	$8, %rax
	movq	%rax, -64(%rbp)
	.loc	5 117 28 is_stmt 0
	movb	$1, -41(%rbp)
Ltmp88:
	.loc	5 117 34
	callq	__ZN4core4iter8adapters3map12map_try_fold17h9995783f4aaded59E
Ltmp89:
	movq	%rax, -56(%rbp)
	jmp	LBB12_3
LBB12_1:
	.loc	5 117 62
	testb	$1, -41(%rbp)
	jne	LBB12_6
	jmp	LBB12_5
LBB12_2:
Ltmp92:
	.loc	5 0 62
	movq	%rax, %rcx
	movl	%edx, %eax
	movq	%rcx, -16(%rbp)
	movl	%eax, -8(%rbp)
	jmp	LBB12_1
LBB12_3:
	movq	-56(%rbp), %rsi
	movq	-64(%rbp), %rdi
	.loc	5 117 9
	movb	$0, -41(%rbp)
Ltmp90:
	callq	__ZN114_$LT$core..iter..adapters..flatten..FlatMap$LT$I$C$U$C$F$GT$$u20$as$u20$core..iter..traits..iterator..Iterator$GT$8try_fold17hc9a26dfa60666f0bE
Ltmp91:
	movb	%al, -65(%rbp)
	jmp	LBB12_4
LBB12_4:
	.loc	5 0 9
	movb	-65(%rbp), %al
	.loc	5 118 6 is_stmt 1
	addq	$80, %rsp
	popq	%rbp
	retq
LBB12_5:
	.loc	5 111 5
	movq	-16(%rbp), %rdi
	callq	__Unwind_Resume
LBB12_6:
	.loc	5 117 62
	jmp	LBB12_5
Ltmp94:
Lfunc_end12:
	.cfi_endproc
	.section	__TEXT,__gcc_except_tab
	.p2align	2
GCC_except_table12:
Lexception3:
	.byte	255
	.byte	255
	.byte	1
	.uleb128 Lcst_end3-Lcst_begin3
Lcst_begin3:
	.uleb128 Ltmp88-Lfunc_begin12
	.uleb128 Ltmp91-Ltmp88
	.uleb128 Ltmp92-Lfunc_begin12
	.byte	0
	.uleb128 Ltmp91-Lfunc_begin12
	.uleb128 Lfunc_end12-Ltmp91
	.byte	0
	.byte	0
Lcst_end3:
	.p2align	2

	.section	__TEXT,__text,regular,pure_instructions
	.globl	__ZN102_$LT$core..iter..adapters..map..Map$LT$I$C$F$GT$$u20$as$u20$core..iter..traits..iterator..Iterator$GT$8try_fold17h6031d66570201b4fE
	.p2align	4, 0x90
__ZN102_$LT$core..iter..adapters..map..Map$LT$I$C$F$GT$$u20$as$u20$core..iter..traits..iterator..Iterator$GT$8try_fold17h6031d66570201b4fE:
Lfunc_begin13:
	.loc	5 111 0
	.cfi_startproc
	.cfi_personality 155, _rust_eh_personality
	.cfi_lsda 16, Lexception4
	pushq	%rbp
	.cfi_def_cfa_offset 16
	.cfi_offset %rbp, -16
	movq	%rsp, %rbp
	.cfi_def_cfa_register %rbp
	subq	$128, %rsp
	movq	%rcx, -104(%rbp)
	movq	%rsi, %rax
	movq	-104(%rbp), %rsi
	movq	%rdi, -96(%rbp)
	movq	%rdi, -48(%rbp)
	movq	%rax, -40(%rbp)
	movq	%rdx, -32(%rbp)
	movq	%rsi, -24(%rbp)
Ltmp103:
	.loc	5 117 28 prologue_end
	movb	$1, -49(%rbp)
	movq	%rax, -72(%rbp)
	movq	%rdx, -64(%rbp)
	.loc	5 117 47 is_stmt 0
	addq	$32, %rdi
Ltmp95:
	.loc	5 117 34
	callq	__ZN4core4iter8adapters3map12map_try_fold17h6a1a262a9ef7ccf8E
Ltmp96:
	movq	%rdx, -88(%rbp)
	movq	%rax, -80(%rbp)
	jmp	LBB13_3
LBB13_1:
	.loc	5 117 62
	testb	$1, -49(%rbp)
	jne	LBB13_6
	jmp	LBB13_5
LBB13_2:
Ltmp99:
	.loc	5 0 62
	movq	%rax, %rcx
	movl	%edx, %eax
	movq	%rcx, -16(%rbp)
	movl	%eax, -8(%rbp)
	jmp	LBB13_1
LBB13_3:
	movq	-88(%rbp), %r8
	movq	-80(%rbp), %rcx
	movq	-96(%rbp), %rdi
	.loc	5 117 9
	movb	$0, -49(%rbp)
	movq	-72(%rbp), %rsi
	movq	-64(%rbp), %rdx
Ltmp97:
	callq	__ZN4core4iter6traits8iterator8Iterator8try_fold17hee67f7a98a494e30E
Ltmp98:
	movq	%rdx, -120(%rbp)
	movq	%rax, -112(%rbp)
	jmp	LBB13_4
LBB13_4:
	.loc	5 0 9
	movq	-120(%rbp), %rdx
	movq	-112(%rbp), %rax
	.loc	5 118 6 is_stmt 1
	addq	$128, %rsp
	popq	%rbp
	retq
LBB13_5:
	.loc	5 111 5
	movq	-16(%rbp), %rdi
	callq	__Unwind_Resume
LBB13_6:
Ltmp100:
	.loc	5 0 5 is_stmt 0
	leaq	-72(%rbp), %rdi
	.loc	5 117 62 is_stmt 1
	callq	__ZN4core3ptr110drop_in_place$LT$alloc..vec..in_place_drop..InPlaceDrop$LT$unicode_bidi..prepare..IsolatingRunSequence$GT$$GT$17hc30d9d2c2f82d393E
Ltmp101:
	jmp	LBB13_5
LBB13_7:
Ltmp102:
	.loc	5 111 5
	callq	__ZN4core9panicking19panic_cannot_unwind17h1fbca7e1d7f56ae1E
Ltmp104:
Lfunc_end13:
	.cfi_endproc
	.section	__TEXT,__gcc_except_tab
	.p2align	2
GCC_except_table13:
Lexception4:
	.byte	255
	.byte	255
	.byte	1
	.uleb128 Lcst_end4-Lcst_begin4
Lcst_begin4:
	.uleb128 Ltmp95-Lfunc_begin13
	.uleb128 Ltmp98-Ltmp95
	.uleb128 Ltmp99-Lfunc_begin13
	.byte	0
	.uleb128 Ltmp98-Lfunc_begin13
	.uleb128 Ltmp100-Ltmp98
	.byte	0
	.byte	0
	.uleb128 Ltmp100-Lfunc_begin13
	.uleb128 Ltmp101-Ltmp100
	.uleb128 Ltmp102-Lfunc_begin13
	.byte	0
Lcst_end4:
	.p2align	2

	.section	__TEXT,__text,regular,pure_instructions
	.globl	__ZN102_$LT$core..iter..adapters..map..Map$LT$I$C$F$GT$$u20$as$u20$core..iter..traits..iterator..Iterator$GT$8try_fold17ha2804e409b45ba15E
	.p2align	4, 0x90
__ZN102_$LT$core..iter..adapters..map..Map$LT$I$C$F$GT$$u20$as$u20$core..iter..traits..iterator..Iterator$GT$8try_fold17ha2804e409b45ba15E:
Lfunc_begin14:
	.loc	5 111 0
	.cfi_startproc
	.cfi_personality 155, _rust_eh_personality
	.cfi_lsda 16, Lexception5
	pushq	%rbp
	.cfi_def_cfa_offset 16
	.cfi_offset %rbp, -16
	movq	%rsp, %rbp
	.cfi_def_cfa_register %rbp
	subq	$96, %rsp
	movq	%rdx, %rcx
	movq	%rsi, %rdx
	movq	%rdi, %rsi
	movq	%rsi, -88(%rbp)
	movq	%rsi, -48(%rbp)
	movq	%rdx, -32(%rbp)
	movq	%rcx, -24(%rbp)
Ltmp110:
	.loc	5 117 28 prologue_end
	movb	$1, -49(%rbp)
	.loc	5 117 47 is_stmt 0
	addq	$16, %rsi
Ltmp105:
	leaq	-80(%rbp), %rdi
	.loc	5 117 34
	callq	__ZN4core4iter8adapters3map12map_try_fold17h53e0e99e3c8fb32bE
Ltmp106:
	jmp	LBB14_3
LBB14_1:
	.loc	5 117 62
	testb	$1, -49(%rbp)
	jne	LBB14_6
	jmp	LBB14_5
LBB14_2:
Ltmp109:
	.loc	5 0 62
	movq	%rax, %rcx
	movl	%edx, %eax
	movq	%rcx, -16(%rbp)
	movl	%eax, -8(%rbp)
	jmp	LBB14_1
LBB14_3:
	movq	-88(%rbp), %rdi
	.loc	5 117 9
	movb	$0, -49(%rbp)
Ltmp107:
	leaq	-80(%rbp), %rsi
	callq	__ZN104_$LT$core..iter..adapters..cloned..Cloned$LT$I$GT$$u20$as$u20$core..iter..traits..iterator..Iterator$GT$8try_fold17hb3f9db1a6d6ca382E
Ltmp108:
	movb	%al, -89(%rbp)
	jmp	LBB14_4
LBB14_4:
	.loc	5 0 9
	movb	-89(%rbp), %al
	.loc	5 118 6 is_stmt 1
	addq	$96, %rsp
	popq	%rbp
	retq
LBB14_5:
	.loc	5 111 5
	movq	-16(%rbp), %rdi
	callq	__Unwind_Resume
LBB14_6:
	.loc	5 117 62
	jmp	LBB14_5
Ltmp111:
Lfunc_end14:
	.cfi_endproc
	.section	__TEXT,__gcc_except_tab
	.p2align	2
GCC_except_table14:
Lexception5:
	.byte	255
	.byte	255
	.byte	1
	.uleb128 Lcst_end5-Lcst_begin5
Lcst_begin5:
	.uleb128 Ltmp105-Lfunc_begin14
	.uleb128 Ltmp108-Ltmp105
	.uleb128 Ltmp109-Lfunc_begin14
	.byte	0
	.uleb128 Ltmp108-Lfunc_begin14
	.uleb128 Lfunc_end14-Ltmp108
	.byte	0
	.byte	0
Lcst_end5:
	.p2align	2

	.section	__TEXT,__text,regular,pure_instructions
	.globl	__ZN102_$LT$core..iter..adapters..map..Map$LT$I$C$F$GT$$u20$as$u20$core..iter..traits..iterator..Iterator$GT$9size_hint17h24adc80da9b5054cE
	.p2align	4, 0x90
__ZN102_$LT$core..iter..adapters..map..Map$LT$I$C$F$GT$$u20$as$u20$core..iter..traits..iterator..Iterator$GT$9size_hint17h24adc80da9b5054cE:
Lfunc_begin15:
	.loc	5 107 0
	.cfi_startproc
	pushq	%rbp
	.cfi_def_cfa_offset 16
	.cfi_offset %rbp, -16
	movq	%rsp, %rbp
	.cfi_def_cfa_register %rbp
	subq	$16, %rsp
	movq	%rdi, %rax
	movq	%rax, -16(%rbp)
	movq	%rsi, -8(%rbp)
Ltmp112:
	.loc	5 108 9 prologue_end
	callq	__ZN87_$LT$core..str..iter..CharIndices$u20$as$u20$core..iter..traits..iterator..Iterator$GT$9size_hint17h7b7d04b7222bd104E
	movq	-16(%rbp), %rax
	.loc	5 109 6
	addq	$16, %rsp
	popq	%rbp
	retq
Ltmp113:
Lfunc_end15:
	.cfi_endproc

	.globl	__ZN102_$LT$core..iter..adapters..map..Map$LT$I$C$F$GT$$u20$as$u20$core..iter..traits..iterator..Iterator$GT$9size_hint17hae89710e7795d7adE
	.p2align	4, 0x90
__ZN102_$LT$core..iter..adapters..map..Map$LT$I$C$F$GT$$u20$as$u20$core..iter..traits..iterator..Iterator$GT$9size_hint17hae89710e7795d7adE:
Lfunc_begin16:
	.loc	5 107 0
	.cfi_startproc
	pushq	%rbp
	.cfi_def_cfa_offset 16
	.cfi_offset %rbp, -16
	movq	%rsp, %rbp
	.cfi_def_cfa_register %rbp
	subq	$16, %rsp
	movq	%rdi, %rax
	movq	%rax, -16(%rbp)
	movq	%rsi, -8(%rbp)
Ltmp114:
	.loc	5 108 9 prologue_end
	callq	__ZN91_$LT$core..slice..iter..Iter$LT$T$GT$$u20$as$u20$core..iter..traits..iterator..Iterator$GT$9size_hint17h4f95d34f9395b5ecE
	movq	-16(%rbp), %rax
	.loc	5 109 6
	addq	$16, %rsp
	popq	%rbp
	retq
Ltmp115:
Lfunc_end16:
	.cfi_endproc

	.globl	__ZN102_$LT$core..iter..adapters..map..Map$LT$I$C$F$GT$$u20$as$u20$core..iter..traits..iterator..Iterator$GT$9size_hint17he199064370c0f299E
	.p2align	4, 0x90
__ZN102_$LT$core..iter..adapters..map..Map$LT$I$C$F$GT$$u20$as$u20$core..iter..traits..iterator..Iterator$GT$9size_hint17he199064370c0f299E:
Lfunc_begin17:
	.loc	5 107 0
	.cfi_startproc
	pushq	%rbp
	.cfi_def_cfa_offset 16
	.cfi_offset %rbp, -16
	movq	%rsp, %rbp
	.cfi_def_cfa_register %rbp
	subq	$16, %rsp
	movq	%rdi, %rax
	movq	%rax, -16(%rbp)
	movq	%rsi, -8(%rbp)
Ltmp116:
	.loc	5 108 9 prologue_end
	callq	__ZN103_$LT$alloc..vec..into_iter..IntoIter$LT$T$C$A$GT$$u20$as$u20$core..iter..traits..iterator..Iterator$GT$9size_hint17h56583d08cd4b98c6E
	movq	-16(%rbp), %rax
	.loc	5 109 6
	addq	$16, %rsp
	popq	%rbp
	retq
Ltmp117:
Lfunc_end17:
	.cfi_endproc

	.globl	__ZN103_$LT$alloc..vec..into_iter..IntoIter$LT$T$C$A$GT$$u20$as$u20$core..iter..traits..iterator..Iterator$GT$4next17h9150a7b8a50356adE
	.p2align	4, 0x90
__ZN103_$LT$alloc..vec..into_iter..IntoIter$LT$T$C$A$GT$$u20$as$u20$core..iter..traits..iterator..Iterator$GT$4next17h9150a7b8a50356adE:
Lfunc_begin18:
	.file	6 "/rustc/2c8cc343237b8f7d5a3c3703e3a87f2eb2c54a74/library/alloc/src/vec" "into_iter.rs"
	.loc	6 187 0
	.cfi_startproc
	pushq	%rbp
	.cfi_def_cfa_offset 16
	.cfi_offset %rbp, -16
	movq	%rsp, %rbp
	.cfi_def_cfa_register %rbp
	subq	$352, %rsp
	movq	%rsi, -352(%rbp)
	movq	%rdi, -344(%rbp)
	movq	%rdi, -336(%rbp)
	movq	%rsi, -144(%rbp)
Ltmp118:
	.loc	6 188 12 prologue_end
	movq	8(%rsi), %rax
	cmpq	16(%rsi), %rax
	je	LBB18_2
	.loc	6 190 19
	xorl	%eax, %eax
	testb	$1, %al
	jne	LBB18_5
	jmp	LBB18_4
LBB18_2:
	.loc	6 0 19 is_stmt 0
	movq	-344(%rbp), %rax
	.loc	6 189 13 is_stmt 1
	movq	$0, 8(%rax)
LBB18_3:
	.loc	6 0 13 is_stmt 0
	movq	-336(%rbp), %rax
	.loc	6 203 6 is_stmt 1
	addq	$352, %rsp
	popq	%rbp
	retq
LBB18_4:
	.loc	6 0 6 is_stmt 0
	movq	-344(%rbp), %rax
	movq	-352(%rbp), %rdx
	.loc	6 198 23 is_stmt 1
	movq	8(%rdx), %rcx
	movq	%rcx, -48(%rbp)
Ltmp119:
	.loc	6 199 33
	movq	8(%rdx), %rsi
	movq	%rsi, -40(%rbp)
Ltmp120:
	.file	7 "/rustc/2c8cc343237b8f7d5a3c3703e3a87f2eb2c54a74/library/core/src/ptr" "const_ptr.rs"
	.loc	7 932 18
	movq	%rsi, -32(%rbp)
Ltmp121:
	.loc	7 473 18
	addq	$24, %rsi
	movq	%rsi, -24(%rbp)
	movq	-24(%rbp), %rsi
Ltmp122:
	.loc	6 199 13
	movq	%rsi, 8(%rdx)
	.loc	6 201 37
	movq	%rcx, -16(%rbp)
Ltmp123:
	.file	8 "/rustc/2c8cc343237b8f7d5a3c3703e3a87f2eb2c54a74/library/core/src/ptr" "mod.rs"
	.loc	8 1157 34
	leaq	-216(%rbp), %rdx
	movq	%rdx, -8(%rbp)
	.loc	8 1157 9 is_stmt 0
	movq	(%rcx), %rdx
	movq	%rdx, -216(%rbp)
	movq	8(%rcx), %rdx
	movq	%rdx, -208(%rbp)
	movq	16(%rcx), %rcx
	movq	%rcx, -200(%rbp)
	.loc	8 1158 9 is_stmt 1
	movq	-216(%rbp), %rcx
	movq	%rcx, -192(%rbp)
	movq	-208(%rbp), %rcx
	movq	%rcx, -184(%rbp)
	movq	-200(%rbp), %rcx
	movq	%rcx, -176(%rbp)
Ltmp124:
	.file	9 "/rustc/2c8cc343237b8f7d5a3c3703e3a87f2eb2c54a74/library/core/src/mem" "maybe_uninit.rs"
	.loc	9 627 38
	movq	-192(%rbp), %rcx
	movq	%rcx, -168(%rbp)
	movq	-184(%rbp), %rcx
	movq	%rcx, -160(%rbp)
	movq	-176(%rbp), %rcx
	movq	%rcx, -152(%rbp)
Ltmp125:
	.file	10 "/rustc/2c8cc343237b8f7d5a3c3703e3a87f2eb2c54a74/library/core/src/mem" "manually_drop.rs"
	.loc	10 89 9
	movq	-168(%rbp), %rcx
	movq	%rcx, -304(%rbp)
	movq	-160(%rbp), %rcx
	movq	%rcx, -296(%rbp)
	movq	-152(%rbp), %rcx
	movq	%rcx, -288(%rbp)
Ltmp126:
	.loc	6 201 13
	movq	-304(%rbp), %rcx
	movq	%rcx, (%rax)
	movq	-296(%rbp), %rcx
	movq	%rcx, 8(%rax)
	movq	-288(%rbp), %rcx
	movq	%rcx, 16(%rax)
Ltmp127:
	.loc	6 190 16
	jmp	LBB18_6
LBB18_5:
	.loc	6 0 16 is_stmt 0
	movq	-352(%rbp), %rax
	.loc	6 193 24 is_stmt 1
	movq	16(%rax), %rcx
	movq	%rcx, -128(%rbp)
Ltmp128:
	.loc	7 1198 9
	movq	%rcx, -120(%rbp)
Ltmp129:
	.loc	7 61 9
	movq	%rcx, -112(%rbp)
Ltmp130:
	.loc	7 1180 9
	movq	%rcx, -104(%rbp)
Ltmp131:
	.loc	7 555 18
	addq	$-1, %rcx
	movq	%rcx, -96(%rbp)
	movq	-96(%rbp), %rcx
	movq	%rcx, -88(%rbp)
Ltmp132:
	.loc	7 100 29
	movq	%rcx, -80(%rbp)
Ltmp133:
	.file	11 "/rustc/2c8cc343237b8f7d5a3c3703e3a87f2eb2c54a74/library/core/src/ptr" "metadata.rs"
	.loc	11 118 36
	movq	%rcx, -272(%rbp)
	.loc	11 118 14 is_stmt 0
	movq	-272(%rbp), %rcx
	movq	%rcx, -280(%rbp)
	movq	-280(%rbp), %rcx
Ltmp134:
	.loc	6 193 13 is_stmt 1
	movq	%rcx, 16(%rax)
Ltmp135:
	.loc	2 646 9
	leaq	_str.0(%rip), %rdi
	movl	$101, %esi
	callq	__ZN4core9panicking14panic_nounwind17h30c28fda67313a65E
Ltmp136:
	.loc	9 399 13
	leaq	-264(%rbp), %rax
	movq	%rax, -72(%rbp)
Ltmp137:
	.loc	9 569 9
	leaq	-264(%rbp), %rax
	movq	%rax, -64(%rbp)
Ltmp138:
	.file	12 "/rustc/2c8cc343237b8f7d5a3c3703e3a87f2eb2c54a74/library/core/src/ptr" "mut_ptr.rs"
	.loc	12 1488 30
	leaq	-264(%rbp), %rax
	movq	%rax, -56(%rbp)
Ltmp139:
	.file	13 "/rustc/2c8cc343237b8f7d5a3c3703e3a87f2eb2c54a74/library/core/src" "intrinsics.rs"
	.loc	13 2529 9
	leaq	-264(%rbp), %rdi
	xorl	%esi, %esi
	movl	$24, %edx
	callq	_memset
	movq	-344(%rbp), %rax
Ltmp140:
	.loc	9 627 38
	movq	-264(%rbp), %rcx
	movq	%rcx, -240(%rbp)
	movq	-256(%rbp), %rcx
	movq	%rcx, -232(%rbp)
	movq	-248(%rbp), %rcx
	movq	%rcx, -224(%rbp)
Ltmp141:
	.loc	10 89 9
	movq	-240(%rbp), %rcx
	movq	%rcx, -328(%rbp)
	movq	-232(%rbp), %rcx
	movq	%rcx, -320(%rbp)
	movq	-224(%rbp), %rcx
	movq	%rcx, -312(%rbp)
Ltmp142:
	.loc	6 196 13
	movq	-328(%rbp), %rcx
	movq	%rcx, (%rax)
	movq	-320(%rbp), %rcx
	movq	%rcx, 8(%rax)
	movq	-312(%rbp), %rcx
	movq	%rcx, 16(%rax)
LBB18_6:
	.loc	6 188 9
	jmp	LBB18_3
Ltmp143:
Lfunc_end18:
	.cfi_endproc

	.globl	__ZN103_$LT$alloc..vec..into_iter..IntoIter$LT$T$C$A$GT$$u20$as$u20$core..iter..traits..iterator..Iterator$GT$4next17hd9c7ca4211755c72E
	.p2align	4, 0x90
__ZN103_$LT$alloc..vec..into_iter..IntoIter$LT$T$C$A$GT$$u20$as$u20$core..iter..traits..iterator..Iterator$GT$4next17hd9c7ca4211755c72E:
Lfunc_begin19:
	.loc	6 187 0
	.cfi_startproc
	pushq	%rbp
	.cfi_def_cfa_offset 16
	.cfi_offset %rbp, -16
	movq	%rsp, %rbp
	.cfi_def_cfa_register %rbp
	subq	$272, %rsp
	movq	%rsi, -264(%rbp)
	movq	%rdi, -256(%rbp)
	movq	%rdi, -248(%rbp)
	movq	%rsi, -192(%rbp)
Ltmp144:
	.loc	6 188 12 prologue_end
	movq	8(%rsi), %rax
	cmpq	16(%rsi), %rax
	je	LBB19_2
	.loc	6 190 19
	xorl	%eax, %eax
	testb	$1, %al
	jne	LBB19_5
	jmp	LBB19_4
LBB19_2:
	.loc	6 0 19 is_stmt 0
	movq	-256(%rbp), %rax
	.loc	6 189 13 is_stmt 1
	movq	$0, (%rax)
LBB19_3:
	.loc	6 0 13 is_stmt 0
	movq	-248(%rbp), %rax
	.loc	6 203 6 is_stmt 1
	addq	$272, %rsp
	popq	%rbp
	retq
LBB19_4:
	.loc	6 0 6 is_stmt 0
	movq	-256(%rbp), %rax
	movq	-264(%rbp), %rdx
	.loc	6 198 23 is_stmt 1
	movq	8(%rdx), %rcx
	movq	%rcx, -80(%rbp)
Ltmp145:
	.loc	6 199 33
	movq	8(%rdx), %rsi
	movq	%rsi, -72(%rbp)
Ltmp146:
	.loc	7 932 18
	movq	%rsi, -64(%rbp)
Ltmp147:
	.loc	7 473 18
	addq	$16, %rsi
	movq	%rsi, -56(%rbp)
	movq	-56(%rbp), %rsi
Ltmp148:
	.loc	6 199 13
	movq	%rsi, 8(%rdx)
	.loc	6 201 37
	movq	%rcx, -48(%rbp)
Ltmp149:
	.loc	8 1157 34
	leaq	-208(%rbp), %rdx
	movq	%rdx, -40(%rbp)
	.loc	8 1157 9 is_stmt 0
	movq	(%rcx), %rdx
	movq	%rdx, -208(%rbp)
	movq	8(%rcx), %rcx
	movq	%rcx, -200(%rbp)
	.loc	8 1158 9 is_stmt 1
	movq	-208(%rbp), %rdx
	movq	-200(%rbp), %rcx
	movq	%rdx, -32(%rbp)
	movq	%rcx, -24(%rbp)
Ltmp150:
	.loc	9 627 38
	movq	%rdx, -16(%rbp)
	movq	%rcx, -8(%rbp)
Ltmp151:
	.loc	6 201 13
	movq	%rdx, 8(%rax)
	movq	%rcx, 16(%rax)
	movq	$1, (%rax)
Ltmp152:
	.loc	6 190 16
	jmp	LBB19_6
LBB19_5:
	.loc	6 0 16 is_stmt 0
	movq	-264(%rbp), %rax
	.loc	6 193 24 is_stmt 1
	movq	16(%rax), %rcx
	movq	%rcx, -176(%rbp)
Ltmp153:
	.loc	7 1198 9
	movq	%rcx, -168(%rbp)
Ltmp154:
	.loc	7 61 9
	movq	%rcx, -160(%rbp)
Ltmp155:
	.loc	7 1180 9
	movq	%rcx, -152(%rbp)
Ltmp156:
	.loc	7 555 18
	addq	$-1, %rcx
	movq	%rcx, -144(%rbp)
	movq	-144(%rbp), %rcx
	movq	%rcx, -136(%rbp)
Ltmp157:
	.loc	7 100 29
	movq	%rcx, -128(%rbp)
Ltmp158:
	.loc	11 118 36
	movq	%rcx, -232(%rbp)
	.loc	11 118 14 is_stmt 0
	movq	-232(%rbp), %rcx
	movq	%rcx, -240(%rbp)
	movq	-240(%rbp), %rcx
Ltmp159:
	.loc	6 193 13 is_stmt 1
	movq	%rcx, 16(%rax)
Ltmp160:
	.loc	9 399 13
	leaq	-224(%rbp), %rax
	movq	%rax, -120(%rbp)
Ltmp161:
	.loc	9 569 9
	leaq	-224(%rbp), %rax
	movq	%rax, -112(%rbp)
Ltmp162:
	.loc	12 1488 30
	leaq	-224(%rbp), %rax
	movq	%rax, -104(%rbp)
Ltmp163:
	.loc	13 2529 9
	leaq	-224(%rbp), %rdi
	xorl	%esi, %esi
	movl	$16, %edx
	callq	_memset
	movq	-256(%rbp), %rax
Ltmp164:
	.loc	9 627 38
	movq	-224(%rbp), %rdx
	movq	-216(%rbp), %rcx
	movq	%rdx, -96(%rbp)
	movq	%rcx, -88(%rbp)
Ltmp165:
	.loc	6 196 13
	movq	%rdx, 8(%rax)
	movq	%rcx, 16(%rax)
	movq	$1, (%rax)
LBB19_6:
	.loc	6 188 9
	jmp	LBB19_3
Ltmp166:
Lfunc_end19:
	.cfi_endproc

	.globl	__ZN103_$LT$alloc..vec..into_iter..IntoIter$LT$T$C$A$GT$$u20$as$u20$core..iter..traits..iterator..Iterator$GT$9size_hint17h56583d08cd4b98c6E
	.p2align	4, 0x90
__ZN103_$LT$alloc..vec..into_iter..IntoIter$LT$T$C$A$GT$$u20$as$u20$core..iter..traits..iterator..Iterator$GT$9size_hint17h56583d08cd4b98c6E:
Lfunc_begin20:
	.loc	6 206 0
	.cfi_startproc
	pushq	%rbp
	.cfi_def_cfa_offset 16
	.cfi_offset %rbp, -16
	movq	%rsp, %rbp
	.cfi_def_cfa_register %rbp
	subq	$128, %rsp
	movq	%rsi, -120(%rbp)
	movq	%rdi, -112(%rbp)
	movq	%rdi, -104(%rbp)
	movq	%rsi, -72(%rbp)
Ltmp167:
	.loc	6 207 24 prologue_end
	xorl	%eax, %eax
	testb	$1, %al
	jne	LBB20_2
	.loc	6 0 24 is_stmt 0
	movq	-120(%rbp), %rax
	.loc	6 210 22 is_stmt 1
	movq	16(%rax), %rdi
	.loc	6 210 39 is_stmt 0
	movq	8(%rax), %rsi
	.loc	6 210 22
	callq	__ZN4core3ptr9const_ptr33_$LT$impl$u20$$BP$const$u20$T$GT$7sub_ptr17hd32d9aa339152031E
	movq	%rax, -96(%rbp)
	.loc	6 207 21 is_stmt 1
	jmp	LBB20_3
LBB20_2:
	.loc	6 0 21 is_stmt 0
	movq	-120(%rbp), %rcx
	.loc	6 208 13 is_stmt 1
	movq	16(%rcx), %rax
	movq	%rax, -64(%rbp)
Ltmp168:
	.loc	7 209 33
	movq	%rax, -56(%rbp)
	.loc	7 209 18 is_stmt 0
	movq	%rax, -48(%rbp)
	movq	-48(%rbp), %rax
	movq	%rax, -40(%rbp)
Ltmp169:
	.loc	6 208 42 is_stmt 1
	movq	8(%rcx), %rcx
	movq	%rcx, -32(%rbp)
Ltmp170:
	.loc	7 209 33
	movq	%rcx, -24(%rbp)
	.loc	7 209 18 is_stmt 0
	movq	%rcx, -16(%rbp)
	movq	-16(%rbp), %rcx
	movq	%rcx, -8(%rbp)
Ltmp171:
	.file	14 "/rustc/2c8cc343237b8f7d5a3c3703e3a87f2eb2c54a74/library/core/src/num" "uint_macros.rs"
	.loc	14 1203 13 is_stmt 1
	subq	%rcx, %rax
	movq	%rax, -96(%rbp)
Ltmp172:
LBB20_3:
	.loc	14 0 13 is_stmt 0
	movq	-104(%rbp), %rax
	movq	-112(%rbp), %rcx
Ltmp173:
	.loc	6 212 10 is_stmt 1
	movq	-96(%rbp), %rdx
	.loc	6 212 22 is_stmt 0
	movq	-96(%rbp), %rsi
	.loc	6 212 17
	movq	%rsi, -80(%rbp)
	movq	$1, -88(%rbp)
	.loc	6 212 9
	movq	%rdx, (%rcx)
	movq	-88(%rbp), %rsi
	movq	-80(%rbp), %rdx
	movq	%rsi, 8(%rcx)
	movq	%rdx, 16(%rcx)
Ltmp174:
	.loc	6 213 6 is_stmt 1
	addq	$128, %rsp
	popq	%rbp
	retq
Ltmp175:
Lfunc_end20:
	.cfi_endproc

	.globl	__ZN103_$LT$alloc..vec..into_iter..IntoIter$LT$T$C$A$GT$$u20$as$u20$core..iter..traits..iterator..Iterator$GT$9size_hint17he51a421b167dad8eE
	.p2align	4, 0x90
__ZN103_$LT$alloc..vec..into_iter..IntoIter$LT$T$C$A$GT$$u20$as$u20$core..iter..traits..iterator..Iterator$GT$9size_hint17he51a421b167dad8eE:
Lfunc_begin21:
	.loc	6 206 0
	.cfi_startproc
	pushq	%rbp
	.cfi_def_cfa_offset 16
	.cfi_offset %rbp, -16
	movq	%rsp, %rbp
	.cfi_def_cfa_register %rbp
	subq	$128, %rsp
	movq	%rsi, -120(%rbp)
	movq	%rdi, -112(%rbp)
	movq	%rdi, -104(%rbp)
	movq	%rsi, -72(%rbp)
Ltmp176:
	.loc	6 207 24 prologue_end
	xorl	%eax, %eax
	testb	$1, %al
	jne	LBB21_2
	.loc	6 0 24 is_stmt 0
	movq	-120(%rbp), %rax
	.loc	6 210 22 is_stmt 1
	movq	16(%rax), %rdi
	.loc	6 210 39 is_stmt 0
	movq	8(%rax), %rsi
	.loc	6 210 22
	callq	__ZN4core3ptr9const_ptr33_$LT$impl$u20$$BP$const$u20$T$GT$7sub_ptr17hb8e23b69e1ea539fE
	movq	%rax, -96(%rbp)
	.loc	6 207 21 is_stmt 1
	jmp	LBB21_3
LBB21_2:
	.loc	6 0 21 is_stmt 0
	movq	-120(%rbp), %rcx
	.loc	6 208 13 is_stmt 1
	movq	16(%rcx), %rax
	movq	%rax, -64(%rbp)
Ltmp177:
	.loc	7 209 33
	movq	%rax, -56(%rbp)
	.loc	7 209 18 is_stmt 0
	movq	%rax, -48(%rbp)
	movq	-48(%rbp), %rax
	movq	%rax, -40(%rbp)
Ltmp178:
	.loc	6 208 42 is_stmt 1
	movq	8(%rcx), %rcx
	movq	%rcx, -32(%rbp)
Ltmp179:
	.loc	7 209 33
	movq	%rcx, -24(%rbp)
	.loc	7 209 18 is_stmt 0
	movq	%rcx, -16(%rbp)
	movq	-16(%rbp), %rcx
	movq	%rcx, -8(%rbp)
Ltmp180:
	.loc	14 1203 13 is_stmt 1
	subq	%rcx, %rax
	movq	%rax, -96(%rbp)
Ltmp181:
LBB21_3:
	.loc	14 0 13 is_stmt 0
	movq	-104(%rbp), %rax
	movq	-112(%rbp), %rcx
Ltmp182:
	.loc	6 212 10 is_stmt 1
	movq	-96(%rbp), %rdx
	.loc	6 212 22 is_stmt 0
	movq	-96(%rbp), %rsi
	.loc	6 212 17
	movq	%rsi, -80(%rbp)
	movq	$1, -88(%rbp)
	.loc	6 212 9
	movq	%rdx, (%rcx)
	movq	-88(%rbp), %rsi
	movq	-80(%rbp), %rdx
	movq	%rsi, 8(%rcx)
	movq	%rdx, 16(%rcx)
Ltmp183:
	.loc	6 213 6 is_stmt 1
	addq	$128, %rsp
	popq	%rbp
	retq
Ltmp184:
Lfunc_end21:
	.cfi_endproc

	.globl	__ZN103_$LT$core..iter..sources..repeat..Repeat$LT$A$GT$$u20$as$u20$core..iter..traits..iterator..Iterator$GT$4next17hf06c44bf86066964E
	.p2align	4, 0x90
__ZN103_$LT$core..iter..sources..repeat..Repeat$LT$A$GT$$u20$as$u20$core..iter..traits..iterator..Iterator$GT$4next17hf06c44bf86066964E:
Lfunc_begin22:
	.file	15 "/rustc/2c8cc343237b8f7d5a3c3703e3a87f2eb2c54a74/library/core/src/iter/sources" "repeat.rs"
	.loc	15 73 0
	.cfi_startproc
	pushq	%rbp
	.cfi_def_cfa_offset 16
	.cfi_offset %rbp, -16
	movq	%rsp, %rbp
	.cfi_def_cfa_register %rbp
	subq	$16, %rsp
	movq	%rdi, -8(%rbp)
Ltmp185:
	.loc	15 74 14 prologue_end
	callq	__ZN81_$LT$unicode_bidi..char_data..tables..BidiClass$u20$as$u20$core..clone..Clone$GT$5clone17h265c22c5c6cda9f3E
	.loc	15 74 9 is_stmt 0
	movb	%al, -9(%rbp)
	.loc	15 75 6 is_stmt 1
	movb	-9(%rbp), %al
	addq	$16, %rsp
	popq	%rbp
	retq
Ltmp186:
Lfunc_end22:
	.cfi_endproc

	.globl	__ZN103_$LT$core..iter..sources..repeat..Repeat$LT$A$GT$$u20$as$u20$core..iter..traits..iterator..Iterator$GT$9size_hint17hcc7313aad4305088E
	.p2align	4, 0x90
__ZN103_$LT$core..iter..sources..repeat..Repeat$LT$A$GT$$u20$as$u20$core..iter..traits..iterator..Iterator$GT$9size_hint17hcc7313aad4305088E:
Lfunc_begin23:
	.loc	15 78 0
	.cfi_startproc
	pushq	%rbp
	.cfi_def_cfa_offset 16
	.cfi_offset %rbp, -16
	movq	%rsp, %rbp
	.cfi_def_cfa_register %rbp
	subq	$24, %rsp
	movq	%rdi, %rax
	movq	%rsi, -8(%rbp)
Ltmp187:
	.loc	15 79 22 prologue_end
	movq	$0, -24(%rbp)
	.loc	15 79 9 is_stmt 0
	movq	$-1, (%rdi)
	movq	-24(%rbp), %rdx
	movq	-16(%rbp), %rcx
	movq	%rdx, 8(%rdi)
	movq	%rcx, 16(%rdi)
	.loc	15 80 6 is_stmt 1
	addq	$24, %rsp
	popq	%rbp
	retq
Ltmp188:
Lfunc_end23:
	.cfi_endproc

	.globl	__ZN104_$LT$alloc..vec..into_iter..IntoIter$LT$T$GT$$u20$as$u20$alloc..vec..in_place_collect..AsVecIntoIter$GT$12as_into_iter17hd82f033e4741c287E
	.p2align	4, 0x90
__ZN104_$LT$alloc..vec..into_iter..IntoIter$LT$T$GT$$u20$as$u20$alloc..vec..in_place_collect..AsVecIntoIter$GT$12as_into_iter17hd82f033e4741c287E:
Lfunc_begin24:
	.loc	6 430 0
	.cfi_startproc
	pushq	%rbp
	.cfi_def_cfa_offset 16
	.cfi_offset %rbp, -16
	movq	%rsp, %rbp
	.cfi_def_cfa_register %rbp
	pushq	%rax
	movq	%rdi, %rax
	movq	%rax, -8(%rbp)
Ltmp189:
	.loc	6 432 6 prologue_end
	addq	$8, %rsp
	popq	%rbp
	retq
Ltmp190:
Lfunc_end24:
	.cfi_endproc

	.globl	__ZN104_$LT$core..iter..adapters..cloned..Cloned$LT$I$GT$$u20$as$u20$core..iter..traits..iterator..Iterator$GT$4next17h49a844da4d497833E
	.p2align	4, 0x90
__ZN104_$LT$core..iter..adapters..cloned..Cloned$LT$I$GT$$u20$as$u20$core..iter..traits..iterator..Iterator$GT$4next17h49a844da4d497833E:
Lfunc_begin25:
	.file	16 "/rustc/2c8cc343237b8f7d5a3c3703e3a87f2eb2c54a74/library/core/src/iter/adapters" "cloned.rs"
	.loc	16 39 0
	.cfi_startproc
	pushq	%rbp
	.cfi_def_cfa_offset 16
	.cfi_offset %rbp, -16
	movq	%rsp, %rbp
	.cfi_def_cfa_register %rbp
	subq	$32, %rsp
	movq	%rsi, -32(%rbp)
	movq	%rdi, %rax
	movq	-32(%rbp), %rdi
	movq	%rax, -24(%rbp)
	movq	%rax, -16(%rbp)
	movq	%rdi, -8(%rbp)
Ltmp191:
	.loc	16 40 9 prologue_end
	callq	__ZN91_$LT$core..slice..iter..Iter$LT$T$GT$$u20$as$u20$core..iter..traits..iterator..Iterator$GT$4next17hfcf52a89f34828daE
	movq	-24(%rbp), %rdi
	movq	%rax, %rsi
	callq	__ZN4core6option19Option$LT$$RF$T$GT$6cloned17h45614c64d2372640E
	movq	-16(%rbp), %rax
	.loc	16 41 6
	addq	$32, %rsp
	popq	%rbp
	retq
Ltmp192:
Lfunc_end25:
	.cfi_endproc

	.globl	__ZN104_$LT$core..iter..adapters..cloned..Cloned$LT$I$GT$$u20$as$u20$core..iter..traits..iterator..Iterator$GT$8try_fold17hb3f9db1a6d6ca382E
	.p2align	4, 0x90
__ZN104_$LT$core..iter..adapters..cloned..Cloned$LT$I$GT$$u20$as$u20$core..iter..traits..iterator..Iterator$GT$8try_fold17hb3f9db1a6d6ca382E:
Lfunc_begin26:
	.loc	16 47 0
	.cfi_startproc
	.cfi_personality 155, _rust_eh_personality
	.cfi_lsda 16, Lexception6
	pushq	%rbp
	.cfi_def_cfa_offset 16
	.cfi_offset %rbp, -16
	movq	%rsp, %rbp
	.cfi_def_cfa_register %rbp
	subq	$112, %rsp
	movq	%rdi, -96(%rbp)
Ltmp198:
	movq	%rdi, -32(%rbp)
Ltmp199:
	.loc	16 53 26 prologue_end
	movb	$1, -33(%rbp)
	.loc	16 53 47 is_stmt 0
	movq	16(%rsi), %rax
	movq	%rax, -48(%rbp)
	movq	(%rsi), %rax
	movq	8(%rsi), %rcx
	movq	%rcx, -56(%rbp)
	movq	%rax, -64(%rbp)
Ltmp193:
	leaq	-88(%rbp), %rdi
	leaq	-64(%rbp), %rsi
Ltmp200:
	.loc	16 53 32
	callq	__ZN4core4iter8adapters6cloned14clone_try_fold17h7e73419993a9d1d2E
Ltmp194:
	jmp	LBB26_3
Ltmp201:
LBB26_1:
	.loc	16 53 49
	testb	$1, -33(%rbp)
	jne	LBB26_6
	jmp	LBB26_5
Ltmp202:
LBB26_2:
Ltmp197:
	.loc	16 0 49
	movq	%rax, %rcx
	movl	%edx, %eax
	movq	%rcx, -16(%rbp)
	movl	%eax, -8(%rbp)
	jmp	LBB26_1
Ltmp203:
LBB26_3:
	movq	-96(%rbp), %rdi
	.loc	16 53 9
	movb	$0, -33(%rbp)
Ltmp195:
	leaq	-88(%rbp), %rsi
	callq	__ZN4core4iter6traits8iterator8Iterator8try_fold17hb34806bdd42daa87E
Ltmp196:
	movb	%al, -97(%rbp)
	jmp	LBB26_4
Ltmp204:
LBB26_4:
	.loc	16 0 9
	movb	-97(%rbp), %al
	.loc	16 54 6 is_stmt 1
	addq	$112, %rsp
	popq	%rbp
	retq
Ltmp205:
LBB26_5:
	.loc	16 47 5
	movq	-16(%rbp), %rdi
	callq	__Unwind_Resume
Ltmp206:
LBB26_6:
	.loc	16 53 49
	jmp	LBB26_5
Ltmp207:
Lfunc_end26:
	.cfi_endproc
	.section	__TEXT,__gcc_except_tab
	.p2align	2
GCC_except_table26:
Lexception6:
	.byte	255
	.byte	255
	.byte	1
	.uleb128 Lcst_end6-Lcst_begin6
Lcst_begin6:
	.uleb128 Ltmp193-Lfunc_begin26
	.uleb128 Ltmp196-Ltmp193
	.uleb128 Ltmp197-Lfunc_begin26
	.byte	0
	.uleb128 Ltmp196-Lfunc_begin26
	.uleb128 Lfunc_end26-Ltmp196
	.byte	0
	.byte	0
Lcst_end6:
	.p2align	2

	.section	__TEXT,__text,regular,pure_instructions
	.globl	__ZN104_$LT$core..ops..control_flow..ControlFlow$LT$B$C$C$GT$$u20$as$u20$core..ops..try_trait..FromResidual$GT$13from_residual17h5237dc95fe34f65dE
	.p2align	4, 0x90
__ZN104_$LT$core..ops..control_flow..ControlFlow$LT$B$C$C$GT$$u20$as$u20$core..ops..try_trait..FromResidual$GT$13from_residual17h5237dc95fe34f65dE:
Lfunc_begin27:
	.file	17 "/rustc/2c8cc343237b8f7d5a3c3703e3a87f2eb2c54a74/library/core/src/ops" "control_flow.rs"
	.loc	17 123 0
	.cfi_startproc
	pushq	%rbp
	.cfi_def_cfa_offset 16
	.cfi_offset %rbp, -16
	movq	%rsp, %rbp
	.cfi_def_cfa_register %rbp
	subq	$48, %rsp
	movq	%rdi, %rax
Ltmp208:
	.loc	17 125 32 prologue_end
	movq	(%rsi), %rcx
	movq	%rcx, -48(%rbp)
	movq	8(%rsi), %rcx
	movq	%rcx, -40(%rbp)
	movq	16(%rsi), %rcx
	movq	%rcx, -32(%rbp)
Ltmp209:
	.loc	17 125 57 is_stmt 0
	movq	-48(%rbp), %rcx
	movq	%rcx, -24(%rbp)
	movq	-40(%rbp), %rcx
	movq	%rcx, -16(%rbp)
	movq	-32(%rbp), %rcx
	movq	%rcx, -8(%rbp)
	.loc	17 125 38
	movq	-24(%rbp), %rcx
	movq	%rcx, (%rdi)
	movq	-16(%rbp), %rcx
	movq	%rcx, 8(%rdi)
	movq	-8(%rbp), %rcx
	movq	%rcx, 16(%rdi)
Ltmp210:
	.loc	17 127 6 is_stmt 1
	addq	$48, %rsp
	popq	%rbp
	retq
Ltmp211:
Lfunc_end27:
	.cfi_endproc

	.globl	__ZN104_$LT$core..ops..control_flow..ControlFlow$LT$B$C$C$GT$$u20$as$u20$core..ops..try_trait..FromResidual$GT$13from_residual17hc5ae0a625ae14597E
	.p2align	4, 0x90
__ZN104_$LT$core..ops..control_flow..ControlFlow$LT$B$C$C$GT$$u20$as$u20$core..ops..try_trait..FromResidual$GT$13from_residual17hc5ae0a625ae14597E:
Lfunc_begin28:
	.loc	17 123 0
	.cfi_startproc
	pushq	%rbp
	.cfi_def_cfa_offset 16
	.cfi_offset %rbp, -16
	movq	%rsp, %rbp
	.cfi_def_cfa_register %rbp
	subq	$3, %rsp
	movb	%dil, %al
	movb	%al, -3(%rbp)
Ltmp212:
	.loc	17 125 32 prologue_end
	movb	-3(%rbp), %al
	movb	%al, -1(%rbp)
Ltmp213:
	.loc	17 125 38 is_stmt 0
	movb	%al, -2(%rbp)
Ltmp214:
	.loc	17 127 6 is_stmt 1
	movb	-2(%rbp), %al
	addq	$3, %rsp
	popq	%rbp
	retq
Ltmp215:
Lfunc_end28:
	.cfi_endproc

	.globl	__ZN106_$LT$core..ops..range..Range$LT$usize$GT$$u20$as$u20$core..slice..index..SliceIndex$LT$$u5b$T$u5d$$GT$$GT$13get_unchecked17heb5a309f24a8a34fE
	.p2align	4, 0x90
__ZN106_$LT$core..ops..range..Range$LT$usize$GT$$u20$as$u20$core..slice..index..SliceIndex$LT$$u5b$T$u5d$$GT$$GT$13get_unchecked17heb5a309f24a8a34fE:
Lfunc_begin29:
	.file	18 "/rustc/2c8cc343237b8f7d5a3c3703e3a87f2eb2c54a74/library/core/src/slice" "index.rs"
	.loc	18 373 0
	.cfi_startproc
	pushq	%rbp
	.cfi_def_cfa_offset 16
	.cfi_offset %rbp, -16
	movq	%rsp, %rbp
	.cfi_def_cfa_register %rbp
	subq	$160, %rsp
	movq	%rdi, -128(%rbp)
	movq	%rsi, -120(%rbp)
	movq	%rdx, -112(%rbp)
	movq	%rcx, -104(%rbp)
Ltmp216:
	.loc	18 386 39 prologue_end
	movq	%rdx, -96(%rbp)
	movq	%rcx, -88(%rbp)
Ltmp217:
	.loc	7 1650 9
	movq	%rdx, -80(%rbp)
Ltmp218:
	.loc	18 386 58
	movq	%rdi, -72(%rbp)
Ltmp219:
	.loc	7 932 18
	movq	%rdx, -64(%rbp)
	.loc	7 932 30 is_stmt 0
	movq	%rdi, -56(%rbp)
Ltmp220:
	.loc	7 473 18 is_stmt 1
	addq	%rdi, %rdx
	movq	%rdx, -48(%rbp)
	movq	-48(%rbp), %rax
	movq	%rax, -40(%rbp)
Ltmp221:
	.loc	18 386 71
	subq	%rdi, %rsi
	movq	%rsi, -32(%rbp)
Ltmp222:
	.loc	8 734 20
	movq	%rax, -24(%rbp)
Ltmp223:
	.loc	7 61 9
	movq	%rax, -16(%rbp)
Ltmp224:
	.loc	8 734 33
	movq	%rsi, -8(%rbp)
Ltmp225:
	.loc	11 118 36
	movq	%rax, -144(%rbp)
	movq	%rsi, -136(%rbp)
	.loc	11 118 14 is_stmt 0
	movq	-144(%rbp), %rcx
	movq	-136(%rbp), %rax
	movq	%rcx, -160(%rbp)
	movq	%rax, -152(%rbp)
	movq	-160(%rbp), %rax
	movq	-152(%rbp), %rdx
Ltmp226:
	.loc	18 388 6 is_stmt 1
	addq	$160, %rsp
	popq	%rbp
	retq
Ltmp227:
Lfunc_end29:
	.cfi_endproc

	.globl	__ZN106_$LT$core..ops..range..Range$LT$usize$GT$$u20$as$u20$core..slice..index..SliceIndex$LT$$u5b$T$u5d$$GT$$GT$17get_unchecked_mut17h4b632e5d88f2a24aE
	.p2align	4, 0x90
__ZN106_$LT$core..ops..range..Range$LT$usize$GT$$u20$as$u20$core..slice..index..SliceIndex$LT$$u5b$T$u5d$$GT$$GT$17get_unchecked_mut17h4b632e5d88f2a24aE:
Lfunc_begin30:
	.loc	18 391 0
	.cfi_startproc
	pushq	%rbp
	.cfi_def_cfa_offset 16
	.cfi_offset %rbp, -16
	movq	%rsp, %rbp
	.cfi_def_cfa_register %rbp
	subq	$160, %rsp
	movq	%rdi, -128(%rbp)
	movq	%rsi, -120(%rbp)
	movq	%rdx, -112(%rbp)
	movq	%rcx, -104(%rbp)
Ltmp228:
	.loc	18 400 43 prologue_end
	movq	%rdx, -96(%rbp)
	movq	%rcx, -88(%rbp)
Ltmp229:
	.loc	12 2037 9
	movq	%rdx, -80(%rbp)
Ltmp230:
	.loc	18 400 66
	movq	%rdi, -72(%rbp)
Ltmp231:
	.loc	12 1034 18
	movq	%rdx, -64(%rbp)
	.loc	12 1034 30 is_stmt 0
	movq	%rdi, -56(%rbp)
Ltmp232:
	.loc	12 487 18 is_stmt 1
	addq	%rdi, %rdx
	movq	%rdx, -48(%rbp)
	movq	-48(%rbp), %rax
	movq	%rax, -40(%rbp)
Ltmp233:
	.loc	18 400 79
	subq	%rdi, %rsi
	movq	%rsi, -32(%rbp)
Ltmp234:
	.loc	8 766 24
	movq	%rax, -24(%rbp)
Ltmp235:
	.loc	12 60 9
	movq	%rax, -16(%rbp)
Ltmp236:
	.loc	8 766 37
	movq	%rsi, -8(%rbp)
Ltmp237:
	.loc	11 135 36
	movq	%rax, -144(%rbp)
	movq	%rsi, -136(%rbp)
	.loc	11 135 14 is_stmt 0
	movq	-144(%rbp), %rcx
	movq	-136(%rbp), %rax
	movq	%rcx, -160(%rbp)
	movq	%rax, -152(%rbp)
	movq	-160(%rbp), %rax
	movq	-152(%rbp), %rdx
Ltmp238:
	.loc	18 402 6 is_stmt 1
	addq	$160, %rsp
	popq	%rbp
	retq
Ltmp239:
Lfunc_end30:
	.cfi_endproc

	.globl	__ZN106_$LT$core..ops..range..Range$LT$usize$GT$$u20$as$u20$core..slice..index..SliceIndex$LT$$u5b$T$u5d$$GT$$GT$17get_unchecked_mut17h7ca539afcad61667E
	.p2align	4, 0x90
__ZN106_$LT$core..ops..range..Range$LT$usize$GT$$u20$as$u20$core..slice..index..SliceIndex$LT$$u5b$T$u5d$$GT$$GT$17get_unchecked_mut17h7ca539afcad61667E:
Lfunc_begin31:
	.loc	18 391 0
	.cfi_startproc
	pushq	%rbp
	.cfi_def_cfa_offset 16
	.cfi_offset %rbp, -16
	movq	%rsp, %rbp
	.cfi_def_cfa_register %rbp
	subq	$160, %rsp
	movq	%rdi, -128(%rbp)
	movq	%rsi, -120(%rbp)
	movq	%rdx, -112(%rbp)
	movq	%rcx, -104(%rbp)
Ltmp240:
	.loc	18 400 43 prologue_end
	movq	%rdx, -96(%rbp)
	movq	%rcx, -88(%rbp)
Ltmp241:
	.loc	12 2037 9
	movq	%rdx, -80(%rbp)
Ltmp242:
	.loc	18 400 66
	movq	%rdi, -72(%rbp)
Ltmp243:
	.loc	12 1034 18
	movq	%rdx, -64(%rbp)
	.loc	12 1034 30 is_stmt 0
	movq	%rdi, -56(%rbp)
Ltmp244:
	.loc	12 487 18 is_stmt 1
	addq	%rdi, %rdx
	movq	%rdx, -48(%rbp)
	movq	-48(%rbp), %rax
	movq	%rax, -40(%rbp)
Ltmp245:
	.loc	18 400 79
	subq	%rdi, %rsi
	movq	%rsi, -32(%rbp)
Ltmp246:
	.loc	8 766 24
	movq	%rax, -24(%rbp)
Ltmp247:
	.loc	12 60 9
	movq	%rax, -16(%rbp)
Ltmp248:
	.loc	8 766 37
	movq	%rsi, -8(%rbp)
Ltmp249:
	.loc	11 135 36
	movq	%rax, -144(%rbp)
	movq	%rsi, -136(%rbp)
	.loc	11 135 14 is_stmt 0
	movq	-144(%rbp), %rcx
	movq	-136(%rbp), %rax
	movq	%rcx, -160(%rbp)
	movq	%rax, -152(%rbp)
	movq	-160(%rbp), %rax
	movq	-152(%rbp), %rdx
Ltmp250:
	.loc	18 402 6 is_stmt 1
	addq	$160, %rsp
	popq	%rbp
	retq
Ltmp251:
Lfunc_end31:
	.cfi_endproc

	.globl	__ZN106_$LT$core..ops..range..Range$LT$usize$GT$$u20$as$u20$core..slice..index..SliceIndex$LT$$u5b$T$u5d$$GT$$GT$17get_unchecked_mut17ha7995b2d1ee25db5E
	.p2align	4, 0x90
__ZN106_$LT$core..ops..range..Range$LT$usize$GT$$u20$as$u20$core..slice..index..SliceIndex$LT$$u5b$T$u5d$$GT$$GT$17get_unchecked_mut17ha7995b2d1ee25db5E:
Lfunc_begin32:
	.loc	18 391 0
	.cfi_startproc
	pushq	%rbp
	.cfi_def_cfa_offset 16
	.cfi_offset %rbp, -16
	movq	%rsp, %rbp
	.cfi_def_cfa_register %rbp
	subq	$160, %rsp
	movq	%rdi, -128(%rbp)
	movq	%rsi, -120(%rbp)
	movq	%rdx, -112(%rbp)
	movq	%rcx, -104(%rbp)
Ltmp252:
	.loc	18 400 43 prologue_end
	movq	%rdx, -96(%rbp)
	movq	%rcx, -88(%rbp)
Ltmp253:
	.loc	12 2037 9
	movq	%rdx, -80(%rbp)
Ltmp254:
	.loc	18 400 66
	movq	%rdi, -72(%rbp)
Ltmp255:
	.loc	12 1034 18
	movq	%rdx, -64(%rbp)
	.loc	12 1034 30 is_stmt 0
	movq	%rdi, -56(%rbp)
Ltmp256:
	.loc	12 487 18 is_stmt 1
	addq	%rdi, %rdx
	movq	%rdx, -48(%rbp)
	movq	-48(%rbp), %rax
	movq	%rax, -40(%rbp)
Ltmp257:
	.loc	18 400 79
	subq	%rdi, %rsi
	movq	%rsi, -32(%rbp)
Ltmp258:
	.loc	8 766 24
	movq	%rax, -24(%rbp)
Ltmp259:
	.loc	12 60 9
	movq	%rax, -16(%rbp)
Ltmp260:
	.loc	8 766 37
	movq	%rsi, -8(%rbp)
Ltmp261:
	.loc	11 135 36
	movq	%rax, -144(%rbp)
	movq	%rsi, -136(%rbp)
	.loc	11 135 14 is_stmt 0
	movq	-144(%rbp), %rcx
	movq	-136(%rbp), %rax
	movq	%rcx, -160(%rbp)
	movq	%rax, -152(%rbp)
	movq	-160(%rbp), %rax
	movq	-152(%rbp), %rdx
Ltmp262:
	.loc	18 402 6 is_stmt 1
	addq	$160, %rsp
	popq	%rbp
	retq
Ltmp263:
Lfunc_end32:
	.cfi_endproc

	.globl	__ZN106_$LT$core..ops..range..Range$LT$usize$GT$$u20$as$u20$core..slice..index..SliceIndex$LT$$u5b$T$u5d$$GT$$GT$17get_unchecked_mut17hb03fa0f63b2f3c5fE
	.p2align	4, 0x90
__ZN106_$LT$core..ops..range..Range$LT$usize$GT$$u20$as$u20$core..slice..index..SliceIndex$LT$$u5b$T$u5d$$GT$$GT$17get_unchecked_mut17hb03fa0f63b2f3c5fE:
Lfunc_begin33:
	.loc	18 391 0
	.cfi_startproc
	pushq	%rbp
	.cfi_def_cfa_offset 16
	.cfi_offset %rbp, -16
	movq	%rsp, %rbp
	.cfi_def_cfa_register %rbp
	subq	$160, %rsp
	movq	%rdi, -128(%rbp)
	movq	%rsi, -120(%rbp)
	movq	%rdx, -112(%rbp)
	movq	%rcx, -104(%rbp)
Ltmp264:
	.loc	18 400 43 prologue_end
	movq	%rdx, -96(%rbp)
	movq	%rcx, -88(%rbp)
Ltmp265:
	.loc	12 2037 9
	movq	%rdx, -80(%rbp)
Ltmp266:
	.loc	18 400 66
	movq	%rdi, -72(%rbp)
Ltmp267:
	.loc	12 1034 18
	movq	%rdx, -64(%rbp)
	.loc	12 1034 30 is_stmt 0
	movq	%rdi, -56(%rbp)
Ltmp268:
	.loc	12 487 18 is_stmt 1
	movq	%rdi, %rax
	shlq	$4, %rax
	addq	%rax, %rdx
	movq	%rdx, -48(%rbp)
	movq	-48(%rbp), %rax
	movq	%rax, -40(%rbp)
Ltmp269:
	.loc	18 400 79
	subq	%rdi, %rsi
	movq	%rsi, -32(%rbp)
Ltmp270:
	.loc	8 766 24
	movq	%rax, -24(%rbp)
Ltmp271:
	.loc	12 60 9
	movq	%rax, -16(%rbp)
Ltmp272:
	.loc	8 766 37
	movq	%rsi, -8(%rbp)
Ltmp273:
	.loc	11 135 36
	movq	%rax, -144(%rbp)
	movq	%rsi, -136(%rbp)
	.loc	11 135 14 is_stmt 0
	movq	-144(%rbp), %rcx
	movq	-136(%rbp), %rax
	movq	%rcx, -160(%rbp)
	movq	%rax, -152(%rbp)
	movq	-160(%rbp), %rax
	movq	-152(%rbp), %rdx
Ltmp274:
	.loc	18 402 6 is_stmt 1
	addq	$160, %rsp
	popq	%rbp
	retq
Ltmp275:
Lfunc_end33:
	.cfi_endproc

	.globl	__ZN106_$LT$core..ops..range..Range$LT$usize$GT$$u20$as$u20$core..slice..index..SliceIndex$LT$$u5b$T$u5d$$GT$$GT$5index17hbfe80f4c99b06b3dE
	.p2align	4, 0x90
__ZN106_$LT$core..ops..range..Range$LT$usize$GT$$u20$as$u20$core..slice..index..SliceIndex$LT$$u5b$T$u5d$$GT$$GT$5index17hbfe80f4c99b06b3dE:
Lfunc_begin34:
	.loc	18 405 0
	.cfi_startproc
	pushq	%rbp
	.cfi_def_cfa_offset 16
	.cfi_offset %rbp, -16
	movq	%rsp, %rbp
	.cfi_def_cfa_register %rbp
	subq	$80, %rsp
	movq	%rdi, -72(%rbp)
	movq	%rsi, -64(%rbp)
	movq	%rdx, -56(%rbp)
	movq	%rcx, -48(%rbp)
	movq	%r8, -40(%rbp)
	movq	%rdi, -32(%rbp)
	movq	%rsi, -24(%rbp)
	movq	%rdx, -16(%rbp)
	movq	%rcx, -8(%rbp)
Ltmp276:
	.loc	18 406 12 prologue_end
	cmpq	%rsi, %rdi
	ja	LBB34_2
	.loc	18 0 12 is_stmt 0
	movq	-64(%rbp), %rax
	movq	-48(%rbp), %rcx
	.loc	18 408 19 is_stmt 1
	cmpq	%rcx, %rax
	ja	LBB34_4
	jmp	LBB34_3
LBB34_2:
	.loc	18 0 19 is_stmt 0
	movq	-40(%rbp), %rdx
	movq	-64(%rbp), %rsi
	movq	-72(%rbp), %rdi
	.loc	18 407 13 is_stmt 1
	callq	__ZN4core5slice5index22slice_index_order_fail17h0d8f800a07d5f26eE
LBB34_3:
	.loc	18 0 13 is_stmt 0
	movq	-48(%rbp), %rcx
	movq	-56(%rbp), %rdx
	movq	-64(%rbp), %rsi
	movq	-72(%rbp), %rdi
	.loc	18 412 20 is_stmt 1
	callq	__ZN106_$LT$core..ops..range..Range$LT$usize$GT$$u20$as$u20$core..slice..index..SliceIndex$LT$$u5b$T$u5d$$GT$$GT$13get_unchecked17heb5a309f24a8a34fE
	.loc	18 413 6
	addq	$80, %rsp
	popq	%rbp
	retq
LBB34_4:
	.loc	18 0 6 is_stmt 0
	movq	-40(%rbp), %rdx
	movq	-48(%rbp), %rsi
	movq	-64(%rbp), %rdi
	.loc	18 409 13 is_stmt 1
	callq	__ZN4core5slice5index24slice_end_index_len_fail17hc921cb2f1513645aE
Ltmp277:
Lfunc_end34:
	.cfi_endproc

	.globl	__ZN106_$LT$core..ops..range..Range$LT$usize$GT$$u20$as$u20$core..slice..index..SliceIndex$LT$$u5b$T$u5d$$GT$$GT$9index_mut17h1ad45eea5847d303E
	.p2align	4, 0x90
__ZN106_$LT$core..ops..range..Range$LT$usize$GT$$u20$as$u20$core..slice..index..SliceIndex$LT$$u5b$T$u5d$$GT$$GT$9index_mut17h1ad45eea5847d303E:
Lfunc_begin35:
	.loc	18 416 0
	.cfi_startproc
	pushq	%rbp
	.cfi_def_cfa_offset 16
	.cfi_offset %rbp, -16
	movq	%rsp, %rbp
	.cfi_def_cfa_register %rbp
	subq	$80, %rsp
	movq	%rdi, -72(%rbp)
	movq	%rsi, -64(%rbp)
	movq	%rdx, -56(%rbp)
	movq	%rcx, -48(%rbp)
	movq	%r8, -40(%rbp)
	movq	%rdi, -32(%rbp)
	movq	%rsi, -24(%rbp)
	movq	%rdx, -16(%rbp)
	movq	%rcx, -8(%rbp)
Ltmp278:
	.loc	18 417 12 prologue_end
	cmpq	%rsi, %rdi
	ja	LBB35_2
	.loc	18 0 12 is_stmt 0
	movq	-64(%rbp), %rax
	movq	-48(%rbp), %rcx
	.loc	18 419 19 is_stmt 1
	cmpq	%rcx, %rax
	ja	LBB35_4
	jmp	LBB35_3
LBB35_2:
	.loc	18 0 19 is_stmt 0
	movq	-40(%rbp), %rdx
	movq	-64(%rbp), %rsi
	movq	-72(%rbp), %rdi
	.loc	18 418 13 is_stmt 1
	callq	__ZN4core5slice5index22slice_index_order_fail17h0d8f800a07d5f26eE
LBB35_3:
	.loc	18 0 13 is_stmt 0
	movq	-48(%rbp), %rcx
	movq	-56(%rbp), %rdx
	movq	-64(%rbp), %rsi
	movq	-72(%rbp), %rdi
	.loc	18 423 24 is_stmt 1
	callq	__ZN106_$LT$core..ops..range..Range$LT$usize$GT$$u20$as$u20$core..slice..index..SliceIndex$LT$$u5b$T$u5d$$GT$$GT$17get_unchecked_mut17ha7995b2d1ee25db5E
	.loc	18 424 6
	addq	$80, %rsp
	popq	%rbp
	retq
LBB35_4:
	.loc	18 0 6 is_stmt 0
	movq	-40(%rbp), %rdx
	movq	-48(%rbp), %rsi
	movq	-64(%rbp), %rdi
	.loc	18 420 13 is_stmt 1
	callq	__ZN4core5slice5index24slice_end_index_len_fail17hc921cb2f1513645aE
Ltmp279:
Lfunc_end35:
	.cfi_endproc

	.globl	__ZN106_$LT$core..ops..range..Range$LT$usize$GT$$u20$as$u20$core..slice..index..SliceIndex$LT$$u5b$T$u5d$$GT$$GT$9index_mut17h44d3b1eca3aed9baE
	.p2align	4, 0x90
__ZN106_$LT$core..ops..range..Range$LT$usize$GT$$u20$as$u20$core..slice..index..SliceIndex$LT$$u5b$T$u5d$$GT$$GT$9index_mut17h44d3b1eca3aed9baE:
Lfunc_begin36:
	.loc	18 416 0
	.cfi_startproc
	pushq	%rbp
	.cfi_def_cfa_offset 16
	.cfi_offset %rbp, -16
	movq	%rsp, %rbp
	.cfi_def_cfa_register %rbp
	subq	$80, %rsp
	movq	%rdi, -72(%rbp)
	movq	%rsi, -64(%rbp)
	movq	%rdx, -56(%rbp)
	movq	%rcx, -48(%rbp)
	movq	%r8, -40(%rbp)
	movq	%rdi, -32(%rbp)
	movq	%rsi, -24(%rbp)
	movq	%rdx, -16(%rbp)
	movq	%rcx, -8(%rbp)
Ltmp280:
	.loc	18 417 12 prologue_end
	cmpq	%rsi, %rdi
	ja	LBB36_2
	.loc	18 0 12 is_stmt 0
	movq	-64(%rbp), %rax
	movq	-48(%rbp), %rcx
	.loc	18 419 19 is_stmt 1
	cmpq	%rcx, %rax
	ja	LBB36_4
	jmp	LBB36_3
LBB36_2:
	.loc	18 0 19 is_stmt 0
	movq	-40(%rbp), %rdx
	movq	-64(%rbp), %rsi
	movq	-72(%rbp), %rdi
	.loc	18 418 13 is_stmt 1
	callq	__ZN4core5slice5index22slice_index_order_fail17h0d8f800a07d5f26eE
LBB36_3:
	.loc	18 0 13 is_stmt 0
	movq	-48(%rbp), %rcx
	movq	-56(%rbp), %rdx
	movq	-64(%rbp), %rsi
	movq	-72(%rbp), %rdi
	.loc	18 423 24 is_stmt 1
	callq	__ZN106_$LT$core..ops..range..Range$LT$usize$GT$$u20$as$u20$core..slice..index..SliceIndex$LT$$u5b$T$u5d$$GT$$GT$17get_unchecked_mut17h7ca539afcad61667E
	.loc	18 424 6
	addq	$80, %rsp
	popq	%rbp
	retq
LBB36_4:
	.loc	18 0 6 is_stmt 0
	movq	-40(%rbp), %rdx
	movq	-48(%rbp), %rsi
	movq	-64(%rbp), %rdi
	.loc	18 420 13 is_stmt 1
	callq	__ZN4core5slice5index24slice_end_index_len_fail17hc921cb2f1513645aE
Ltmp281:
Lfunc_end36:
	.cfi_endproc

	.globl	__ZN106_$LT$core..ops..range..Range$LT$usize$GT$$u20$as$u20$core..slice..index..SliceIndex$LT$$u5b$T$u5d$$GT$$GT$9index_mut17ha3d22cbe3b284fffE
	.p2align	4, 0x90
__ZN106_$LT$core..ops..range..Range$LT$usize$GT$$u20$as$u20$core..slice..index..SliceIndex$LT$$u5b$T$u5d$$GT$$GT$9index_mut17ha3d22cbe3b284fffE:
Lfunc_begin37:
	.loc	18 416 0
	.cfi_startproc
	pushq	%rbp
	.cfi_def_cfa_offset 16
	.cfi_offset %rbp, -16
	movq	%rsp, %rbp
	.cfi_def_cfa_register %rbp
	subq	$80, %rsp
	movq	%rdi, -72(%rbp)
	movq	%rsi, -64(%rbp)
	movq	%rdx, -56(%rbp)
	movq	%rcx, -48(%rbp)
	movq	%r8, -40(%rbp)
	movq	%rdi, -32(%rbp)
	movq	%rsi, -24(%rbp)
	movq	%rdx, -16(%rbp)
	movq	%rcx, -8(%rbp)
Ltmp282:
	.loc	18 417 12 prologue_end
	cmpq	%rsi, %rdi
	ja	LBB37_2
	.loc	18 0 12 is_stmt 0
	movq	-64(%rbp), %rax
	movq	-48(%rbp), %rcx
	.loc	18 419 19 is_stmt 1
	cmpq	%rcx, %rax
	ja	LBB37_4
	jmp	LBB37_3
LBB37_2:
	.loc	18 0 19 is_stmt 0
	movq	-40(%rbp), %rdx
	movq	-64(%rbp), %rsi
	movq	-72(%rbp), %rdi
	.loc	18 418 13 is_stmt 1
	callq	__ZN4core5slice5index22slice_index_order_fail17h0d8f800a07d5f26eE
LBB37_3:
	.loc	18 0 13 is_stmt 0
	movq	-48(%rbp), %rcx
	movq	-56(%rbp), %rdx
	movq	-64(%rbp), %rsi
	movq	-72(%rbp), %rdi
	.loc	18 423 24 is_stmt 1
	callq	__ZN106_$LT$core..ops..range..Range$LT$usize$GT$$u20$as$u20$core..slice..index..SliceIndex$LT$$u5b$T$u5d$$GT$$GT$17get_unchecked_mut17h4b632e5d88f2a24aE
	.loc	18 424 6
	addq	$80, %rsp
	popq	%rbp
	retq
LBB37_4:
	.loc	18 0 6 is_stmt 0
	movq	-40(%rbp), %rdx
	movq	-48(%rbp), %rsi
	movq	-64(%rbp), %rdi
	.loc	18 420 13 is_stmt 1
	callq	__ZN4core5slice5index24slice_end_index_len_fail17hc921cb2f1513645aE
Ltmp283:
Lfunc_end37:
	.cfi_endproc

	.globl	__ZN106_$LT$core..ops..range..Range$LT$usize$GT$$u20$as$u20$core..slice..index..SliceIndex$LT$$u5b$T$u5d$$GT$$GT$9index_mut17he75a222de11f2c46E
	.p2align	4, 0x90
__ZN106_$LT$core..ops..range..Range$LT$usize$GT$$u20$as$u20$core..slice..index..SliceIndex$LT$$u5b$T$u5d$$GT$$GT$9index_mut17he75a222de11f2c46E:
Lfunc_begin38:
	.loc	18 416 0
	.cfi_startproc
	pushq	%rbp
	.cfi_def_cfa_offset 16
	.cfi_offset %rbp, -16
	movq	%rsp, %rbp
	.cfi_def_cfa_register %rbp
	subq	$80, %rsp
	movq	%rdi, -72(%rbp)
	movq	%rsi, -64(%rbp)
	movq	%rdx, -56(%rbp)
	movq	%rcx, -48(%rbp)
	movq	%r8, -40(%rbp)
	movq	%rdi, -32(%rbp)
	movq	%rsi, -24(%rbp)
	movq	%rdx, -16(%rbp)
	movq	%rcx, -8(%rbp)
Ltmp284:
	.loc	18 417 12 prologue_end
	cmpq	%rsi, %rdi
	ja	LBB38_2
	.loc	18 0 12 is_stmt 0
	movq	-64(%rbp), %rax
	movq	-48(%rbp), %rcx
	.loc	18 419 19 is_stmt 1
	cmpq	%rcx, %rax
	ja	LBB38_4
	jmp	LBB38_3
LBB38_2:
	.loc	18 0 19 is_stmt 0
	movq	-40(%rbp), %rdx
	movq	-64(%rbp), %rsi
	movq	-72(%rbp), %rdi
	.loc	18 418 13 is_stmt 1
	callq	__ZN4core5slice5index22slice_index_order_fail17h0d8f800a07d5f26eE
LBB38_3:
	.loc	18 0 13 is_stmt 0
	movq	-48(%rbp), %rcx
	movq	-56(%rbp), %rdx
	movq	-64(%rbp), %rsi
	movq	-72(%rbp), %rdi
	.loc	18 423 24 is_stmt 1
	callq	__ZN106_$LT$core..ops..range..Range$LT$usize$GT$$u20$as$u20$core..slice..index..SliceIndex$LT$$u5b$T$u5d$$GT$$GT$17get_unchecked_mut17hb03fa0f63b2f3c5fE
	.loc	18 424 6
	addq	$80, %rsp
	popq	%rbp
	retq
LBB38_4:
	.loc	18 0 6 is_stmt 0
	movq	-40(%rbp), %rdx
	movq	-48(%rbp), %rsi
	movq	-64(%rbp), %rdi
	.loc	18 420 13 is_stmt 1
	callq	__ZN4core5slice5index24slice_end_index_len_fail17hc921cb2f1513645aE
Ltmp285:
Lfunc_end38:
	.cfi_endproc

	.globl	__ZN106_$LT$core..slice..iter..Iter$LT$T$GT$$u20$as$u20$core..iter..traits..double_ended..DoubleEndedIterator$GT$9next_back17h2263cf1615db7475E
	.p2align	4, 0x90
__ZN106_$LT$core..slice..iter..Iter$LT$T$GT$$u20$as$u20$core..iter..traits..double_ended..DoubleEndedIterator$GT$9next_back17h2263cf1615db7475E:
Lfunc_begin39:
	.file	19 "/rustc/2c8cc343237b8f7d5a3c3703e3a87f2eb2c54a74/library/core/src/slice/iter" "macros.rs"
	.loc	19 339 0
	.cfi_startproc
	pushq	%rbp
	.cfi_def_cfa_offset 16
	.cfi_offset %rbp, -16
	movq	%rsp, %rbp
	.cfi_def_cfa_register %rbp
	subq	$264, %rsp
	movq	%rdi, -264(%rbp)
	movq	%rdi, -208(%rbp)
Ltmp286:
	.loc	19 347 29 prologue_end
	movq	8(%rdi), %rax
	movq	%rax, -192(%rbp)
Ltmp287:
	.file	20 "/rustc/2c8cc343237b8f7d5a3c3703e3a87f2eb2c54a74/library/core/src/ptr" "non_null.rs"
	.loc	20 326 9
	movq	%rax, -184(%rbp)
Ltmp288:
	.loc	12 52 36
	movq	%rax, -240(%rbp)
	.loc	12 52 18 is_stmt 0
	movq	-240(%rbp), %rax
	movq	%rax, -176(%rbp)
Ltmp289:
	.loc	12 38 13 is_stmt 1
	movq	%rax, -168(%rbp)
Ltmp290:
	.loc	12 215 33
	movq	%rax, -160(%rbp)
	.loc	12 215 18 is_stmt 0
	movq	%rax, -152(%rbp)
Ltmp291:
	.loc	19 348 24 is_stmt 1
	movb	$1, %al
	testb	$1, %al
	jne	LBB39_2
LBB39_1:
	.loc	19 0 24 is_stmt 0
	movq	-264(%rbp), %rcx
	.loc	19 351 24 is_stmt 1
	movq	8(%rcx), %rax
	movq	%rax, -104(%rbp)
	cmpq	(%rcx), %rax
	je	LBB39_4
	jmp	LBB39_3
LBB39_2:
	.loc	19 0 24 is_stmt 0
	movq	-264(%rbp), %rax
	.loc	19 349 33 is_stmt 1
	movq	(%rax), %rax
	movq	%rax, -144(%rbp)
Ltmp292:
	.loc	7 53 36
	movq	%rax, -232(%rbp)
	.loc	7 53 18 is_stmt 0
	movq	-232(%rbp), %rax
	movq	%rax, -136(%rbp)
Ltmp293:
	.loc	7 39 13 is_stmt 1
	movq	%rax, -128(%rbp)
Ltmp294:
	.loc	7 209 33
	movq	%rax, -120(%rbp)
	.loc	7 209 18 is_stmt 0
	movq	%rax, -112(%rbp)
Ltmp295:
	.loc	19 348 21 is_stmt 1
	jmp	LBB39_1
LBB39_3:
	.loc	19 0 21 is_stmt 0
	movq	-264(%rbp), %rax
	.loc	19 354 30 is_stmt 1
	movq	%rax, -96(%rbp)
Ltmp296:
	.loc	19 93 20
	xorl	%eax, %eax
	testb	$1, %al
	jne	LBB39_7
	jmp	LBB39_6
Ltmp297:
LBB39_4:
	.loc	19 352 25
	movq	$0, -256(%rbp)
LBB39_5:
	.loc	19 357 14
	movq	-256(%rbp), %rax
	addq	$264, %rsp
	popq	%rbp
	retq
LBB39_6:
	.loc	19 0 14 is_stmt 0
	movq	-264(%rbp), %rax
Ltmp298:
	.loc	19 100 41 is_stmt 1
	movq	(%rax), %rcx
	movq	%rcx, -24(%rbp)
Ltmp299:
	.loc	7 1017 18
	movq	%rcx, -16(%rbp)
Ltmp300:
	.loc	7 473 18
	addq	$-1, %rcx
	movq	%rcx, -8(%rbp)
	movq	-8(%rbp), %rcx
Ltmp301:
	.loc	19 100 21
	movq	%rcx, (%rax)
	.loc	19 101 21
	movq	(%rax), %rax
	movq	%rax, -248(%rbp)
	.loc	19 93 17
	jmp	LBB39_8
LBB39_7:
	.loc	19 0 17 is_stmt 0
	movq	-264(%rbp), %rax
	.loc	19 57 29 is_stmt 1
	movq	(%rax), %rcx
	movq	%rcx, -88(%rbp)
Ltmp302:
	.loc	7 1198 9
	movq	%rcx, -80(%rbp)
Ltmp303:
	.loc	7 61 9
	movq	%rcx, -72(%rbp)
Ltmp304:
	.loc	7 1180 9
	movq	%rcx, -64(%rbp)
Ltmp305:
	.loc	7 555 18
	addq	$-1, %rcx
	movq	%rcx, -56(%rbp)
	movq	-56(%rbp), %rcx
	movq	%rcx, -48(%rbp)
Ltmp306:
	.loc	7 100 29
	movq	%rcx, -40(%rbp)
Ltmp307:
	.loc	11 118 36
	movq	%rcx, -216(%rbp)
	.loc	11 118 14 is_stmt 0
	movq	-216(%rbp), %rcx
	movq	%rcx, -224(%rbp)
	movq	-224(%rbp), %rcx
Ltmp308:
	.loc	19 57 17 is_stmt 1
	movq	%rcx, (%rax)
	.loc	19 95 21
	movq	8(%rax), %rax
	movq	%rax, -32(%rbp)
	movq	%rax, -248(%rbp)
Ltmp309:
LBB39_8:
	.loc	19 354 30
	movq	-248(%rbp), %rax
	.loc	19 354 25 is_stmt 0
	movq	%rax, -256(%rbp)
	.loc	19 351 21 is_stmt 1
	jmp	LBB39_5
Ltmp310:
Lfunc_end39:
	.cfi_endproc

	.globl	__ZN106_$LT$core..slice..iter..Iter$LT$T$GT$$u20$as$u20$core..iter..traits..double_ended..DoubleEndedIterator$GT$9next_back17h78bbdc967b4c527cE
	.p2align	4, 0x90
__ZN106_$LT$core..slice..iter..Iter$LT$T$GT$$u20$as$u20$core..iter..traits..double_ended..DoubleEndedIterator$GT$9next_back17h78bbdc967b4c527cE:
Lfunc_begin40:
	.loc	19 339 0
	.cfi_startproc
	pushq	%rbp
	.cfi_def_cfa_offset 16
	.cfi_offset %rbp, -16
	movq	%rsp, %rbp
	.cfi_def_cfa_register %rbp
	subq	$264, %rsp
	movq	%rdi, -264(%rbp)
	movq	%rdi, -208(%rbp)
Ltmp311:
	.loc	19 347 29 prologue_end
	movq	8(%rdi), %rax
	movq	%rax, -192(%rbp)
Ltmp312:
	.loc	20 326 9
	movq	%rax, -184(%rbp)
Ltmp313:
	.loc	12 52 36
	movq	%rax, -240(%rbp)
	.loc	12 52 18 is_stmt 0
	movq	-240(%rbp), %rax
	movq	%rax, -176(%rbp)
Ltmp314:
	.loc	12 38 13 is_stmt 1
	movq	%rax, -168(%rbp)
Ltmp315:
	.loc	12 215 33
	movq	%rax, -160(%rbp)
	.loc	12 215 18 is_stmt 0
	movq	%rax, -152(%rbp)
Ltmp316:
	.loc	19 348 24 is_stmt 1
	movb	$1, %al
	testb	$1, %al
	jne	LBB40_2
LBB40_1:
	.loc	19 0 24 is_stmt 0
	movq	-264(%rbp), %rcx
	.loc	19 351 24 is_stmt 1
	movq	8(%rcx), %rax
	movq	%rax, -104(%rbp)
	cmpq	(%rcx), %rax
	je	LBB40_4
	jmp	LBB40_3
LBB40_2:
	.loc	19 0 24 is_stmt 0
	movq	-264(%rbp), %rax
	.loc	19 349 33 is_stmt 1
	movq	(%rax), %rax
	movq	%rax, -144(%rbp)
Ltmp317:
	.loc	7 53 36
	movq	%rax, -232(%rbp)
	.loc	7 53 18 is_stmt 0
	movq	-232(%rbp), %rax
	movq	%rax, -136(%rbp)
Ltmp318:
	.loc	7 39 13 is_stmt 1
	movq	%rax, -128(%rbp)
Ltmp319:
	.loc	7 209 33
	movq	%rax, -120(%rbp)
	.loc	7 209 18 is_stmt 0
	movq	%rax, -112(%rbp)
Ltmp320:
	.loc	19 348 21 is_stmt 1
	jmp	LBB40_1
LBB40_3:
	.loc	19 0 21 is_stmt 0
	movq	-264(%rbp), %rax
	.loc	19 354 30 is_stmt 1
	movq	%rax, -96(%rbp)
Ltmp321:
	.loc	19 93 20
	xorl	%eax, %eax
	testb	$1, %al
	jne	LBB40_7
	jmp	LBB40_6
Ltmp322:
LBB40_4:
	.loc	19 352 25
	movq	$0, -256(%rbp)
LBB40_5:
	.loc	19 357 14
	movq	-256(%rbp), %rax
	addq	$264, %rsp
	popq	%rbp
	retq
LBB40_6:
	.loc	19 0 14 is_stmt 0
	movq	-264(%rbp), %rax
Ltmp323:
	.loc	19 100 41 is_stmt 1
	movq	(%rax), %rcx
	movq	%rcx, -24(%rbp)
Ltmp324:
	.loc	7 1017 18
	movq	%rcx, -16(%rbp)
Ltmp325:
	.loc	7 473 18
	addq	$-1, %rcx
	movq	%rcx, -8(%rbp)
	movq	-8(%rbp), %rcx
Ltmp326:
	.loc	19 100 21
	movq	%rcx, (%rax)
	.loc	19 101 21
	movq	(%rax), %rax
	movq	%rax, -248(%rbp)
	.loc	19 93 17
	jmp	LBB40_8
LBB40_7:
	.loc	19 0 17 is_stmt 0
	movq	-264(%rbp), %rax
	.loc	19 57 29 is_stmt 1
	movq	(%rax), %rcx
	movq	%rcx, -88(%rbp)
Ltmp327:
	.loc	7 1198 9
	movq	%rcx, -80(%rbp)
Ltmp328:
	.loc	7 61 9
	movq	%rcx, -72(%rbp)
Ltmp329:
	.loc	7 1180 9
	movq	%rcx, -64(%rbp)
Ltmp330:
	.loc	7 555 18
	addq	$-1, %rcx
	movq	%rcx, -56(%rbp)
	movq	-56(%rbp), %rcx
	movq	%rcx, -48(%rbp)
Ltmp331:
	.loc	7 100 29
	movq	%rcx, -40(%rbp)
Ltmp332:
	.loc	11 118 36
	movq	%rcx, -216(%rbp)
	.loc	11 118 14 is_stmt 0
	movq	-216(%rbp), %rcx
	movq	%rcx, -224(%rbp)
	movq	-224(%rbp), %rcx
Ltmp333:
	.loc	19 57 17 is_stmt 1
	movq	%rcx, (%rax)
	.loc	19 95 21
	movq	8(%rax), %rax
	movq	%rax, -32(%rbp)
	movq	%rax, -248(%rbp)
Ltmp334:
LBB40_8:
	.loc	19 354 30
	movq	-248(%rbp), %rax
	.loc	19 354 25 is_stmt 0
	movq	%rax, -256(%rbp)
	.loc	19 351 21 is_stmt 1
	jmp	LBB40_5
Ltmp335:
Lfunc_end40:
	.cfi_endproc

	.globl	__ZN107_$LT$core..iter..adapters..fuse..Fuse$LT$I$GT$$u20$as$u20$core..iter..adapters..fuse..FuseImpl$LT$I$GT$$GT$4next17h40a748e08f217edaE
	.p2align	4, 0x90
__ZN107_$LT$core..iter..adapters..fuse..Fuse$LT$I$GT$$u20$as$u20$core..iter..adapters..fuse..FuseImpl$LT$I$GT$$GT$4next17h40a748e08f217edaE:
Lfunc_begin41:
	.file	21 "/rustc/2c8cc343237b8f7d5a3c3703e3a87f2eb2c54a74/library/core/src/iter/adapters" "fuse.rs"
	.loc	21 336 0
	.cfi_startproc
	pushq	%rbp
	.cfi_def_cfa_offset 16
	.cfi_offset %rbp, -16
	movq	%rsp, %rbp
	.cfi_def_cfa_register %rbp
	subq	$96, %rsp
	movq	%rsi, -96(%rbp)
	movq	%rdi, -88(%rbp)
	movq	%rdi, -80(%rbp)
	movq	%rsi, -56(%rbp)
Ltmp336:
	.loc	21 337 9 prologue_end
	movq	%rsi, -32(%rbp)
Ltmp337:
	.file	22 "/rustc/2c8cc343237b8f7d5a3c3703e3a87f2eb2c54a74/library/core/src" "option.rs"
	.loc	22 697 15
	movq	8(%rsi), %rdx
	movl	$1, %eax
	xorl	%ecx, %ecx
	cmpq	$0, %rdx
	cmoveq	%rcx, %rax
	.loc	22 697 9 is_stmt 0
	cmpq	$0, %rax
	jne	LBB41_2
	.loc	22 699 21 is_stmt 1
	movq	$0, -64(%rbp)
	jmp	LBB41_3
LBB41_2:
	.loc	22 0 21 is_stmt 0
	movq	-96(%rbp), %rax
	.loc	22 698 18 is_stmt 1
	movq	%rax, -24(%rbp)
Ltmp338:
	.loc	22 698 32 is_stmt 0
	movq	%rax, -64(%rbp)
Ltmp339:
LBB41_3:
	.loc	22 2407 15 is_stmt 1
	movq	-64(%rbp), %rdx
	movl	$1, %eax
	xorl	%ecx, %ecx
	cmpq	$0, %rdx
	cmoveq	%rcx, %rax
	.loc	22 2407 9 is_stmt 0
	cmpq	$0, %rax
	jne	LBB41_5
	.loc	22 2409 21 is_stmt 1
	movq	$0, -72(%rbp)
	.loc	22 2409 44 is_stmt 0
	jmp	LBB41_6
LBB41_5:
	.loc	22 2408 18 is_stmt 1
	movq	-64(%rbp), %rax
	movq	%rax, -16(%rbp)
Ltmp340:
	.loc	22 2408 24 is_stmt 0
	movq	%rax, -72(%rbp)
Ltmp341:
LBB41_6:
	.loc	21 337 9 is_stmt 1
	movq	-72(%rbp), %rdx
	xorl	%eax, %eax
	movl	$1, %ecx
	cmpq	$0, %rdx
	cmoveq	%rcx, %rax
	cmpq	$0, %rax
	jne	LBB41_8
	.loc	21 0 9 is_stmt 0
	movq	-88(%rbp), %rdi
	.loc	21 337 9
	movq	-72(%rbp), %rsi
	movq	%rsi, -8(%rbp)
	callq	__ZN102_$LT$core..iter..adapters..map..Map$LT$I$C$F$GT$$u20$as$u20$core..iter..traits..iterator..Iterator$GT$4next17h5a9c849f25fc4013E
	.loc	21 338 6 is_stmt 1
	jmp	LBB41_9
LBB41_8:
	.loc	21 0 6 is_stmt 0
	movq	-88(%rbp), %rax
Ltmp342:
	.loc	22 2420 21 is_stmt 1
	movq	$0, (%rax)
Ltmp343:
LBB41_9:
	.loc	22 0 21 is_stmt 0
	movq	-80(%rbp), %rax
	.loc	21 338 6 is_stmt 1
	addq	$96, %rsp
	popq	%rbp
	retq
Ltmp344:
Lfunc_end41:
	.cfi_endproc

	.globl	__ZN107_$LT$core..iter..adapters..fuse..Fuse$LT$I$GT$$u20$as$u20$core..iter..adapters..fuse..FuseImpl$LT$I$GT$$GT$4next17h478ba2ff844cbee4E
	.p2align	4, 0x90
__ZN107_$LT$core..iter..adapters..fuse..Fuse$LT$I$GT$$u20$as$u20$core..iter..adapters..fuse..FuseImpl$LT$I$GT$$GT$4next17h478ba2ff844cbee4E:
Lfunc_begin42:
	.loc	21 336 0
	.cfi_startproc
	pushq	%rbp
	.cfi_def_cfa_offset 16
	.cfi_offset %rbp, -16
	movq	%rsp, %rbp
	.cfi_def_cfa_register %rbp
	subq	$96, %rsp
	movq	%rsi, -96(%rbp)
	movq	%rdi, -88(%rbp)
	movq	%rdi, -80(%rbp)
	movq	%rsi, -56(%rbp)
Ltmp345:
	.loc	21 337 9 prologue_end
	movq	%rsi, -32(%rbp)
Ltmp346:
	.loc	22 697 15
	movq	8(%rsi), %rdx
	movl	$1, %eax
	xorl	%ecx, %ecx
	cmpq	$0, %rdx
	cmoveq	%rcx, %rax
	.loc	22 697 9 is_stmt 0
	cmpq	$0, %rax
	jne	LBB42_2
	.loc	22 699 21 is_stmt 1
	movq	$0, -64(%rbp)
	jmp	LBB42_3
LBB42_2:
	.loc	22 0 21 is_stmt 0
	movq	-96(%rbp), %rax
	.loc	22 698 18 is_stmt 1
	movq	%rax, -24(%rbp)
Ltmp347:
	.loc	22 698 32 is_stmt 0
	movq	%rax, -64(%rbp)
Ltmp348:
LBB42_3:
	.loc	22 2407 15 is_stmt 1
	movq	-64(%rbp), %rdx
	movl	$1, %eax
	xorl	%ecx, %ecx
	cmpq	$0, %rdx
	cmoveq	%rcx, %rax
	.loc	22 2407 9 is_stmt 0
	cmpq	$0, %rax
	jne	LBB42_5
	.loc	22 2409 21 is_stmt 1
	movq	$0, -72(%rbp)
	.loc	22 2409 44 is_stmt 0
	jmp	LBB42_6
LBB42_5:
	.loc	22 2408 18 is_stmt 1
	movq	-64(%rbp), %rax
	movq	%rax, -16(%rbp)
Ltmp349:
	.loc	22 2408 24 is_stmt 0
	movq	%rax, -72(%rbp)
Ltmp350:
LBB42_6:
	.loc	21 337 9 is_stmt 1
	movq	-72(%rbp), %rdx
	xorl	%eax, %eax
	movl	$1, %ecx
	cmpq	$0, %rdx
	cmoveq	%rcx, %rax
	cmpq	$0, %rax
	jne	LBB42_8
	.loc	21 0 9 is_stmt 0
	movq	-88(%rbp), %rdi
	.loc	21 337 9
	movq	-72(%rbp), %rsi
	movq	%rsi, -8(%rbp)
	callq	__ZN102_$LT$core..iter..adapters..map..Map$LT$I$C$F$GT$$u20$as$u20$core..iter..traits..iterator..Iterator$GT$4next17h3ff7cce161ee8258E
	.loc	21 338 6 is_stmt 1
	jmp	LBB42_9
LBB42_8:
	.loc	21 0 6 is_stmt 0
	movq	-88(%rbp), %rax
Ltmp351:
	.loc	22 2420 21 is_stmt 1
	movq	$0, (%rax)
Ltmp352:
LBB42_9:
	.loc	22 0 21 is_stmt 0
	movq	-80(%rbp), %rax
	.loc	21 338 6 is_stmt 1
	addq	$96, %rsp
	popq	%rbp
	retq
Ltmp353:
Lfunc_end42:
	.cfi_endproc

	.globl	__ZN107_$LT$core..iter..adapters..fuse..Fuse$LT$I$GT$$u20$as$u20$core..iter..adapters..fuse..FuseImpl$LT$I$GT$$GT$8try_fold17h752959e2f9f306d9E
	.p2align	4, 0x90
__ZN107_$LT$core..iter..adapters..fuse..Fuse$LT$I$GT$$u20$as$u20$core..iter..adapters..fuse..FuseImpl$LT$I$GT$$GT$8try_fold17h752959e2f9f306d9E:
Lfunc_begin43:
	.loc	21 346 0
	.cfi_startproc
	.cfi_personality 155, _rust_eh_personality
	.cfi_lsda 16, Lexception7
	pushq	%rbp
	.cfi_def_cfa_offset 16
	.cfi_offset %rbp, -16
	movq	%rsp, %rbp
	.cfi_def_cfa_register %rbp
	subq	$112, %rsp
	movq	%rdi, -104(%rbp)
	movq	%rsi, -96(%rbp)
	movq	%rdx, -88(%rbp)
	movq	%rdi, -72(%rbp)
	movq	%rsi, -56(%rbp)
	movq	%rdx, -48(%rbp)
Ltmp363:
	.loc	21 352 9 prologue_end
	movb	$1, -73(%rbp)
Ltmp364:
	.loc	21 352 16 is_stmt 0
	movq	8(%rdi), %rdx
	movl	$1, %eax
	xorl	%ecx, %ecx
	cmpq	$0, %rdx
	cmoveq	%rcx, %rax
	cmpq	$1, %rax
	jne	LBB43_2
	.loc	21 0 16
	movq	-88(%rbp), %rdx
	movq	-96(%rbp), %rsi
	movq	-104(%rbp), %rdi
	.loc	21 352 21
	movq	%rdi, -32(%rbp)
	.loc	21 353 38 is_stmt 1
	movb	$0, -73(%rbp)
Ltmp354:
	.loc	21 353 19 is_stmt 0
	callq	__ZN102_$LT$core..iter..adapters..map..Map$LT$I$C$F$GT$$u20$as$u20$core..iter..traits..iterator..Iterator$GT$8try_fold17ha2804e409b45ba15E
Ltmp355:
	movb	%al, -105(%rbp)
	jmp	LBB43_5
Ltmp365:
LBB43_2:
Ltmp360:
	.loc	21 355 15 is_stmt 1
	callq	__ZN95_$LT$core..ops..control_flow..ControlFlow$LT$B$C$C$GT$$u20$as$u20$core..ops..try_trait..Try$GT$11from_output17he62c2186b161b700E
Ltmp361:
	movb	%al, -106(%rbp)
	jmp	LBB43_11
LBB43_3:
	.loc	21 356 5
	testb	$1, -73(%rbp)
	jne	LBB43_13
	jmp	LBB43_12
LBB43_4:
Ltmp362:
	.loc	21 0 5 is_stmt 0
	movq	%rax, %rcx
	movl	%edx, %eax
	movq	%rcx, -24(%rbp)
	movl	%eax, -16(%rbp)
	jmp	LBB43_3
LBB43_5:
Ltmp356:
	movb	-105(%rbp), %al
Ltmp366:
	.loc	21 353 19 is_stmt 1
	movzbl	%al, %edi
	callq	__ZN95_$LT$core..ops..control_flow..ControlFlow$LT$B$C$C$GT$$u20$as$u20$core..ops..try_trait..Try$GT$6branch17hebbccc9f85821cf2E
Ltmp357:
	movb	%al, -107(%rbp)
	jmp	LBB43_6
LBB43_6:
	.loc	21 0 19 is_stmt 0
	movb	-107(%rbp), %al
	.loc	21 353 19
	movb	%al, -74(%rbp)
	movl	$1, %eax
	xorl	%ecx, %ecx
	cmpb	$23, -74(%rbp)
	cmoveq	%rcx, %rax
	cmpq	$0, %rax
	jne	LBB43_8
Ltmp367:
	.loc	21 352 9 is_stmt 1
	jmp	LBB43_2
LBB43_8:
Ltmp368:
	.loc	21 353 19
	movzbl	-74(%rbp), %edi
Ltmp369:
	.loc	21 353 43 is_stmt 0
	movb	%dil, %al
	movb	%al, -1(%rbp)
Ltmp358:
Ltmp370:
	.loc	21 353 19
	callq	__ZN104_$LT$core..ops..control_flow..ControlFlow$LT$B$C$C$GT$$u20$as$u20$core..ops..try_trait..FromResidual$GT$13from_residual17hc5ae0a625ae14597E
Ltmp359:
	movb	%al, -108(%rbp)
	jmp	LBB43_9
LBB43_9:
	.loc	21 0 19
	movb	-108(%rbp), %al
	.loc	21 353 19
	movb	%al, -75(%rbp)
Ltmp371:
LBB43_10:
	.loc	21 356 6 is_stmt 1
	movb	-75(%rbp), %al
	addq	$112, %rsp
	popq	%rbp
	retq
LBB43_11:
	.loc	21 0 6 is_stmt 0
	movb	-106(%rbp), %al
	.loc	21 355 15 is_stmt 1
	movb	%al, -75(%rbp)
	.loc	21 356 5
	testb	$1, -73(%rbp)
	jne	LBB43_14
	jmp	LBB43_10
LBB43_12:
	.loc	21 346 5
	movq	-24(%rbp), %rdi
	callq	__Unwind_Resume
LBB43_13:
	.loc	21 356 5
	jmp	LBB43_12
LBB43_14:
	jmp	LBB43_10
Ltmp372:
Lfunc_end43:
	.cfi_endproc
	.section	__TEXT,__gcc_except_tab
	.p2align	2
GCC_except_table43:
Lexception7:
	.byte	255
	.byte	255
	.byte	1
	.uleb128 Lcst_end7-Lcst_begin7
Lcst_begin7:
	.uleb128 Ltmp354-Lfunc_begin43
	.uleb128 Ltmp359-Ltmp354
	.uleb128 Ltmp362-Lfunc_begin43
	.byte	0
	.uleb128 Ltmp359-Lfunc_begin43
	.uleb128 Lfunc_end43-Ltmp359
	.byte	0
	.byte	0
Lcst_end7:
	.p2align	2

	.section	__TEXT,__text,regular,pure_instructions
	.globl	__ZN108_$LT$core..iter..adapters..filter..Filter$LT$I$C$P$GT$$u20$as$u20$core..iter..traits..iterator..Iterator$GT$4next17hcb244f74437f0411E
	.p2align	4, 0x90
__ZN108_$LT$core..iter..adapters..filter..Filter$LT$I$C$P$GT$$u20$as$u20$core..iter..traits..iterator..Iterator$GT$4next17hcb244f74437f0411E:
Lfunc_begin44:
	.file	23 "/rustc/2c8cc343237b8f7d5a3c3703e3a87f2eb2c54a74/library/core/src/iter/adapters" "filter.rs"
	.loc	23 55 0
	.cfi_startproc
	pushq	%rbp
	.cfi_def_cfa_offset 16
	.cfi_offset %rbp, -16
	movq	%rsp, %rbp
	.cfi_def_cfa_register %rbp
	subq	$16, %rsp
	movq	%rsi, %rdx
	movq	%rdi, %rax
	movq	%rax, -16(%rbp)
	movq	%rdx, -8(%rbp)
Ltmp373:
	.loc	23 56 9 prologue_end
	movq	%rdx, %rsi
	callq	__ZN98_$LT$core..iter..adapters..rev..Rev$LT$I$GT$$u20$as$u20$core..iter..traits..iterator..Iterator$GT$4find17hbe286d5d7139927dE
	movq	-16(%rbp), %rax
	.loc	23 57 6
	addq	$16, %rsp
	popq	%rbp
	retq
Ltmp374:
Lfunc_end44:
	.cfi_endproc

	.globl	__ZN108_$LT$core..iter..adapters..filter..Filter$LT$I$C$P$GT$$u20$as$u20$core..iter..traits..iterator..Iterator$GT$9size_hint17he138eef58bdba50cE
	.p2align	4, 0x90
__ZN108_$LT$core..iter..adapters..filter..Filter$LT$I$C$P$GT$$u20$as$u20$core..iter..traits..iterator..Iterator$GT$9size_hint17he138eef58bdba50cE:
Lfunc_begin45:
	.loc	23 60 0
	.cfi_startproc
	pushq	%rbp
	.cfi_def_cfa_offset 16
	.cfi_offset %rbp, -16
	movq	%rsp, %rbp
	.cfi_def_cfa_register %rbp
	subq	$64, %rsp
	movq	%rdi, -64(%rbp)
	movq	%rdi, -56(%rbp)
	movq	%rsi, -24(%rbp)
Ltmp375:
	.loc	23 61 26 prologue_end
	leaq	-48(%rbp), %rdi
	callq	__ZN98_$LT$core..iter..adapters..rev..Rev$LT$I$GT$$u20$as$u20$core..iter..traits..iterator..Iterator$GT$9size_hint17h8b1f21df0851c587E
	movq	-64(%rbp), %rdi
	movq	-56(%rbp), %rax
	.loc	23 61 17 is_stmt 0
	movq	-40(%rbp), %rdx
	movq	-32(%rbp), %rcx
	movq	%rdx, -16(%rbp)
	movq	%rcx, -8(%rbp)
Ltmp376:
	.loc	23 62 9 is_stmt 1
	movq	$0, (%rdi)
	movq	%rdx, 8(%rdi)
	movq	%rcx, 16(%rdi)
Ltmp377:
	.loc	23 63 6
	addq	$64, %rsp
	popq	%rbp
	retq
Ltmp378:
Lfunc_end45:
	.cfi_endproc

	.globl	__ZN108_$LT$core..ops..range..RangeTo$LT$usize$GT$$u20$as$u20$core..slice..index..SliceIndex$LT$$u5b$T$u5d$$GT$$GT$5index17h31d24782ec2edb56E
	.p2align	4, 0x90
__ZN108_$LT$core..ops..range..RangeTo$LT$usize$GT$$u20$as$u20$core..slice..index..SliceIndex$LT$$u5b$T$u5d$$GT$$GT$5index17h31d24782ec2edb56E:
Lfunc_begin46:
	.loc	18 455 0
	.cfi_startproc
	pushq	%rbp
	.cfi_def_cfa_offset 16
	.cfi_offset %rbp, -16
	movq	%rsp, %rbp
	.cfi_def_cfa_register %rbp
	subq	$48, %rsp
	movq	%rcx, %r8
	movq	%rdx, %rcx
	movq	%rsi, %rdx
	movq	%rdi, -24(%rbp)
	movq	%rdx, -16(%rbp)
	movq	%rcx, -8(%rbp)
Ltmp379:
	.loc	18 456 9 prologue_end
	movq	$0, -40(%rbp)
	movq	%rdi, -32(%rbp)
	movq	-40(%rbp), %rdi
	movq	-32(%rbp), %rsi
	callq	__ZN106_$LT$core..ops..range..Range$LT$usize$GT$$u20$as$u20$core..slice..index..SliceIndex$LT$$u5b$T$u5d$$GT$$GT$5index17hbfe80f4c99b06b3dE
	.loc	18 457 6
	addq	$48, %rsp
	popq	%rbp
	retq
Ltmp380:
Lfunc_end46:
	.cfi_endproc

	.globl	__ZN110_$LT$core..iter..adapters..enumerate..Enumerate$LT$I$GT$$u20$as$u20$core..iter..traits..iterator..Iterator$GT$3nth17he6ab1a8480f0058cE
	.p2align	4, 0x90
__ZN110_$LT$core..iter..adapters..enumerate..Enumerate$LT$I$GT$$u20$as$u20$core..iter..traits..iterator..Iterator$GT$3nth17he6ab1a8480f0058cE:
Lfunc_begin47:
	.file	24 "/rustc/2c8cc343237b8f7d5a3c3703e3a87f2eb2c54a74/library/core/src/iter/adapters" "enumerate.rs"
	.loc	24 59 0
	.cfi_startproc
	.cfi_personality 155, _rust_eh_personality
	.cfi_lsda 16, Lexception8
	pushq	%rbp
	.cfi_def_cfa_offset 16
	.cfi_offset %rbp, -16
	movq	%rsp, %rbp
	.cfi_def_cfa_register %rbp
	subq	$176, %rsp
	movq	%rdi, -144(%rbp)
	movq	%rsi, -136(%rbp)
	movq	%rdi, -80(%rbp)
	movq	%rsi, -72(%rbp)
Ltmp386:
	.loc	24 60 17 prologue_end
	callq	__ZN91_$LT$core..slice..iter..Iter$LT$T$GT$$u20$as$u20$core..iter..traits..iterator..Iterator$GT$3nth17h0bb09e26dc61101aE
	movq	%rax, -104(%rbp)
Ltmp387:
	.loc	22 2407 15
	movq	-104(%rbp), %rdx
	movl	$1, %eax
	xorl	%ecx, %ecx
	cmpq	$0, %rdx
	cmoveq	%rcx, %rax
	.loc	22 2407 9 is_stmt 0
	cmpq	$0, %rax
	jne	LBB47_2
	.loc	22 2409 21 is_stmt 1
	movq	$0, -112(%rbp)
	.loc	22 2409 44 is_stmt 0
	jmp	LBB47_3
LBB47_2:
	.loc	22 2408 18 is_stmt 1
	movq	-104(%rbp), %rax
	movq	%rax, -48(%rbp)
Ltmp388:
	.loc	22 2408 24 is_stmt 0
	movq	%rax, -112(%rbp)
Ltmp389:
LBB47_3:
	.loc	24 60 17 is_stmt 1
	movq	-112(%rbp), %rdx
	xorl	%eax, %eax
	movl	$1, %ecx
	cmpq	$0, %rdx
	cmoveq	%rcx, %rax
	cmpq	$0, %rax
	jne	LBB47_5
	.loc	24 0 17 is_stmt 0
	movq	-144(%rbp), %rcx
	movq	-136(%rbp), %rax
	.loc	24 60 17
	movq	-112(%rbp), %rdx
	movq	%rdx, -160(%rbp)
	movq	%rdx, -40(%rbp)
Ltmp390:
	.loc	24 60 17
	movq	%rdx, -32(%rbp)
Ltmp391:
	.loc	24 61 17 is_stmt 1
	addq	16(%rcx), %rax
	movq	%rax, -152(%rbp)
	setb	%al
	testb	$1, %al
	jne	LBB47_8
	jmp	LBB47_7
Ltmp392:
LBB47_5:
	.loc	22 2420 21
	movq	$0, -120(%rbp)
Ltmp393:
LBB47_6:
	.loc	24 64 6
	movq	-128(%rbp), %rax
	movq	-120(%rbp), %rdx
	addq	$176, %rsp
	popq	%rbp
	retq
LBB47_7:
	.loc	24 0 6 is_stmt 0
	movq	-152(%rbp), %rax
Ltmp394:
	.loc	24 61 17 is_stmt 1
	movq	%rax, -8(%rbp)
Ltmp395:
	.loc	24 62 22
	addq	$1, %rax
	movq	%rax, -168(%rbp)
	setb	%al
	testb	$1, %al
	jne	LBB47_13
	jmp	LBB47_12
Ltmp396:
LBB47_8:
Ltmp383:
	.loc	24 61 17
	leaq	_str.1(%rip), %rdi
	leaq	l___unnamed_17(%rip), %rdx
	movl	$28, %esi
	callq	__ZN4core9panicking5panic17hc1bc45270cf64b03E
Ltmp384:
	jmp	LBB47_11
Ltmp397:
LBB47_9:
	.loc	24 59 5
	movq	-24(%rbp), %rdi
	callq	__Unwind_Resume
LBB47_10:
Ltmp385:
	.loc	24 0 5 is_stmt 0
	movq	%rax, %rcx
	movl	%edx, %eax
	movq	%rcx, -24(%rbp)
	movl	%eax, -16(%rbp)
	jmp	LBB47_9
LBB47_11:
	ud2
LBB47_12:
	movq	-160(%rbp), %rax
	movq	-152(%rbp), %rcx
	movq	-144(%rbp), %rdx
	movq	-168(%rbp), %rsi
Ltmp398:
	.loc	24 62 9 is_stmt 1
	movq	%rsi, 16(%rdx)
	.loc	24 63 14
	movq	%rcx, -96(%rbp)
	movq	%rax, -88(%rbp)
	.loc	24 63 9 is_stmt 0
	movq	-96(%rbp), %rcx
	movq	-88(%rbp), %rax
	movq	%rcx, -128(%rbp)
	movq	%rax, -120(%rbp)
Ltmp399:
	.loc	24 64 6 is_stmt 1
	jmp	LBB47_6
LBB47_13:
Ltmp381:
Ltmp400:
	.loc	24 62 22
	leaq	_str.1(%rip), %rdi
	leaq	l___unnamed_18(%rip), %rdx
	movl	$28, %esi
	callq	__ZN4core9panicking5panic17hc1bc45270cf64b03E
Ltmp382:
	jmp	LBB47_11
Ltmp401:
Lfunc_end47:
	.cfi_endproc
	.section	__TEXT,__gcc_except_tab
	.p2align	2
GCC_except_table47:
Lexception8:
	.byte	255
	.byte	255
	.byte	1
	.uleb128 Lcst_end8-Lcst_begin8
Lcst_begin8:
	.uleb128 Lfunc_begin47-Lfunc_begin47
	.uleb128 Ltmp383-Lfunc_begin47
	.byte	0
	.byte	0
	.uleb128 Ltmp383-Lfunc_begin47
	.uleb128 Ltmp384-Ltmp383
	.uleb128 Ltmp385-Lfunc_begin47
	.byte	0
	.uleb128 Ltmp384-Lfunc_begin47
	.uleb128 Ltmp381-Ltmp384
	.byte	0
	.byte	0
	.uleb128 Ltmp381-Lfunc_begin47
	.uleb128 Ltmp382-Ltmp381
	.uleb128 Ltmp385-Lfunc_begin47
	.byte	0
Lcst_end8:
	.p2align	2

	.section	__TEXT,__text,regular,pure_instructions
	.globl	__ZN110_$LT$core..iter..adapters..enumerate..Enumerate$LT$I$GT$$u20$as$u20$core..iter..traits..iterator..Iterator$GT$4next17he71f03955579d632E
	.p2align	4, 0x90
__ZN110_$LT$core..iter..adapters..enumerate..Enumerate$LT$I$GT$$u20$as$u20$core..iter..traits..iterator..Iterator$GT$4next17he71f03955579d632E:
Lfunc_begin48:
	.loc	24 45 0
	.cfi_startproc
	.cfi_personality 155, _rust_eh_personality
	.cfi_lsda 16, Lexception9
	pushq	%rbp
	.cfi_def_cfa_offset 16
	.cfi_offset %rbp, -16
	movq	%rsp, %rbp
	.cfi_def_cfa_register %rbp
	subq	$160, %rsp
	movq	%rdi, -128(%rbp)
	movq	%rdi, -72(%rbp)
Ltmp405:
	.loc	24 46 17 prologue_end
	callq	__ZN91_$LT$core..slice..iter..Iter$LT$T$GT$$u20$as$u20$core..iter..traits..iterator..Iterator$GT$4next17h06b27fc4fb9e4e9dE
	movq	%rax, -96(%rbp)
Ltmp406:
	.loc	22 2407 15
	movq	-96(%rbp), %rdx
	movl	$1, %eax
	xorl	%ecx, %ecx
	cmpq	$0, %rdx
	cmoveq	%rcx, %rax
	.loc	22 2407 9 is_stmt 0
	cmpq	$0, %rax
	jne	LBB48_2
	.loc	22 2409 21 is_stmt 1
	movq	$0, -104(%rbp)
	.loc	22 2409 44 is_stmt 0
	jmp	LBB48_3
LBB48_2:
	.loc	22 2408 18 is_stmt 1
	movq	-96(%rbp), %rax
	movq	%rax, -48(%rbp)
Ltmp407:
	.loc	22 2408 24 is_stmt 0
	movq	%rax, -104(%rbp)
Ltmp408:
LBB48_3:
	.loc	24 46 17 is_stmt 1
	movq	-104(%rbp), %rdx
	xorl	%eax, %eax
	movl	$1, %ecx
	cmpq	$0, %rdx
	cmoveq	%rcx, %rax
	cmpq	$0, %rax
	jne	LBB48_5
	.loc	24 0 17 is_stmt 0
	movq	-128(%rbp), %rax
	.loc	24 46 17
	movq	-104(%rbp), %rcx
	movq	%rcx, -152(%rbp)
	movq	%rcx, -40(%rbp)
Ltmp409:
	.loc	24 46 17
	movq	%rcx, -32(%rbp)
Ltmp410:
	.loc	24 47 17 is_stmt 1
	movq	16(%rax), %rcx
	movq	%rcx, -144(%rbp)
	movq	%rcx, -24(%rbp)
Ltmp411:
	.loc	24 48 9
	movq	16(%rax), %rax
	addq	$1, %rax
	movq	%rax, -136(%rbp)
	setb	%al
	testb	$1, %al
	jne	LBB48_8
	jmp	LBB48_7
Ltmp412:
LBB48_5:
	.loc	22 2420 21
	movq	$0, -112(%rbp)
Ltmp413:
LBB48_6:
	.loc	24 50 6
	movq	-120(%rbp), %rax
	movq	-112(%rbp), %rdx
	addq	$160, %rsp
	popq	%rbp
	retq
LBB48_7:
	.loc	24 0 6 is_stmt 0
	movq	-152(%rbp), %rax
	movq	-144(%rbp), %rcx
	movq	-128(%rbp), %rdx
	movq	-136(%rbp), %rsi
Ltmp414:
	.loc	24 48 9 is_stmt 1
	movq	%rsi, 16(%rdx)
	.loc	24 49 14
	movq	%rcx, -88(%rbp)
	movq	%rax, -80(%rbp)
	.loc	24 49 9 is_stmt 0
	movq	-88(%rbp), %rcx
	movq	-80(%rbp), %rax
	movq	%rcx, -120(%rbp)
	movq	%rax, -112(%rbp)
Ltmp415:
	.loc	24 50 6 is_stmt 1
	jmp	LBB48_6
LBB48_8:
Ltmp402:
Ltmp416:
	.loc	24 48 9
	leaq	_str.1(%rip), %rdi
	leaq	l___unnamed_19(%rip), %rdx
	movl	$28, %esi
	callq	__ZN4core9panicking5panic17hc1bc45270cf64b03E
Ltmp403:
	jmp	LBB48_11
Ltmp417:
LBB48_9:
	.loc	24 45 5
	movq	-16(%rbp), %rdi
	callq	__Unwind_Resume
Ltmp418:
LBB48_10:
Ltmp404:
	.loc	24 0 5 is_stmt 0
	movq	%rax, %rcx
	movl	%edx, %eax
	movq	%rcx, -16(%rbp)
	movl	%eax, -8(%rbp)
	jmp	LBB48_9
LBB48_11:
	ud2
Lfunc_end48:
	.cfi_endproc
	.section	__TEXT,__gcc_except_tab
	.p2align	2
GCC_except_table48:
Lexception9:
	.byte	255
	.byte	255
	.byte	1
	.uleb128 Lcst_end9-Lcst_begin9
Lcst_begin9:
	.uleb128 Lfunc_begin48-Lfunc_begin48
	.uleb128 Ltmp402-Lfunc_begin48
	.byte	0
	.byte	0
	.uleb128 Ltmp402-Lfunc_begin48
	.uleb128 Ltmp403-Ltmp402
	.uleb128 Ltmp404-Lfunc_begin48
	.byte	0
	.uleb128 Ltmp403-Lfunc_begin48
	.uleb128 Lfunc_end48-Ltmp403
	.byte	0
	.byte	0
Lcst_end9:
	.p2align	2

	.section	__TEXT,__text,regular,pure_instructions
	.globl	__ZN110_$LT$core..ops..range..RangeFrom$LT$usize$GT$$u20$as$u20$core..slice..index..SliceIndex$LT$$u5b$T$u5d$$GT$$GT$5index17he8a1906764883fedE
	.p2align	4, 0x90
__ZN110_$LT$core..ops..range..RangeFrom$LT$usize$GT$$u20$as$u20$core..slice..index..SliceIndex$LT$$u5b$T$u5d$$GT$$GT$5index17he8a1906764883fedE:
Lfunc_begin49:
	.loc	18 493 0 is_stmt 1
	.cfi_startproc
	pushq	%rbp
	.cfi_def_cfa_offset 16
	.cfi_offset %rbp, -16
	movq	%rsp, %rbp
	.cfi_def_cfa_register %rbp
	subq	$144, %rsp
	movq	%rdi, -144(%rbp)
	movq	%rsi, -136(%rbp)
	movq	%rdx, -128(%rbp)
	movq	%rcx, -120(%rbp)
	movq	%rdi, -80(%rbp)
	movq	%rsi, -72(%rbp)
	movq	%rdx, -64(%rbp)
Ltmp419:
	.loc	18 494 12 prologue_end
	cmpq	%rdx, %rdi
	ja	LBB49_2
	.loc	18 0 12 is_stmt 0
	movq	-128(%rbp), %rcx
	movq	-136(%rbp), %rdx
	movq	-144(%rbp), %rsi
	.loc	18 498 20 is_stmt 1
	movq	%rsi, -56(%rbp)
	.loc	18 498 39 is_stmt 0
	movq	%rdx, -48(%rbp)
	movq	%rcx, -40(%rbp)
Ltmp420:
	.loc	18 483 31 is_stmt 1
	movq	%rdx, -32(%rbp)
	movq	%rcx, -24(%rbp)
Ltmp421:
	.loc	7 1630 18
	movq	%rdx, -16(%rbp)
	movq	%rcx, -8(%rbp)
Ltmp422:
	.loc	11 98 14
	movq	%rdx, -96(%rbp)
	movq	%rcx, -88(%rbp)
	movq	-88(%rbp), %rax
Ltmp423:
	.loc	18 483 18
	movq	%rsi, -112(%rbp)
	movq	%rax, -104(%rbp)
	movq	-112(%rbp), %rdi
	movq	-104(%rbp), %rsi
	callq	__ZN106_$LT$core..ops..range..Range$LT$usize$GT$$u20$as$u20$core..slice..index..SliceIndex$LT$$u5b$T$u5d$$GT$$GT$13get_unchecked17heb5a309f24a8a34fE
Ltmp424:
	.loc	18 499 6
	addq	$144, %rsp
	popq	%rbp
	retq
LBB49_2:
	.loc	18 0 6 is_stmt 0
	movq	-120(%rbp), %rdx
	movq	-128(%rbp), %rsi
	movq	-144(%rbp), %rdi
	.loc	18 495 13 is_stmt 1
	callq	__ZN4core5slice5index26slice_start_index_len_fail17h9d301bb51ec3e351E
Ltmp425:
Lfunc_end49:
	.cfi_endproc

	.globl	__ZN110_$LT$core..ops..range..RangeFrom$LT$usize$GT$$u20$as$u20$core..slice..index..SliceIndex$LT$$u5b$T$u5d$$GT$$GT$9index_mut17h3f7cf40af100904fE
	.p2align	4, 0x90
__ZN110_$LT$core..ops..range..RangeFrom$LT$usize$GT$$u20$as$u20$core..slice..index..SliceIndex$LT$$u5b$T$u5d$$GT$$GT$9index_mut17h3f7cf40af100904fE:
Lfunc_begin50:
	.loc	18 502 0
	.cfi_startproc
	pushq	%rbp
	.cfi_def_cfa_offset 16
	.cfi_offset %rbp, -16
	movq	%rsp, %rbp
	.cfi_def_cfa_register %rbp
	subq	$144, %rsp
	movq	%rdi, -144(%rbp)
	movq	%rsi, -136(%rbp)
	movq	%rdx, -128(%rbp)
	movq	%rcx, -120(%rbp)
	movq	%rdi, -80(%rbp)
	movq	%rsi, -72(%rbp)
	movq	%rdx, -64(%rbp)
Ltmp426:
	.loc	18 503 12 prologue_end
	cmpq	%rdx, %rdi
	ja	LBB50_2
	.loc	18 0 12 is_stmt 0
	movq	-128(%rbp), %rcx
	movq	-136(%rbp), %rdx
	movq	-144(%rbp), %rsi
	.loc	18 507 24 is_stmt 1
	movq	%rsi, -56(%rbp)
	.loc	18 507 47 is_stmt 0
	movq	%rdx, -48(%rbp)
	movq	%rcx, -40(%rbp)
Ltmp427:
	.loc	18 489 31 is_stmt 1
	movq	%rdx, -32(%rbp)
	movq	%rcx, -24(%rbp)
Ltmp428:
	.loc	12 1901 18
	movq	%rdx, -16(%rbp)
	movq	%rcx, -8(%rbp)
Ltmp429:
	.loc	11 98 14
	movq	%rdx, -96(%rbp)
	movq	%rcx, -88(%rbp)
	movq	-88(%rbp), %rax
Ltmp430:
	.loc	18 489 18
	movq	%rsi, -112(%rbp)
	movq	%rax, -104(%rbp)
	movq	-112(%rbp), %rdi
	movq	-104(%rbp), %rsi
	callq	__ZN106_$LT$core..ops..range..Range$LT$usize$GT$$u20$as$u20$core..slice..index..SliceIndex$LT$$u5b$T$u5d$$GT$$GT$17get_unchecked_mut17ha7995b2d1ee25db5E
Ltmp431:
	.loc	18 508 6
	addq	$144, %rsp
	popq	%rbp
	retq
LBB50_2:
	.loc	18 0 6 is_stmt 0
	movq	-120(%rbp), %rdx
	movq	-128(%rbp), %rsi
	movq	-144(%rbp), %rdi
	.loc	18 504 13 is_stmt 1
	callq	__ZN4core5slice5index26slice_start_index_len_fail17h9d301bb51ec3e351E
Ltmp432:
Lfunc_end50:
	.cfi_endproc

	.globl	__ZN111_$LT$alloc..vec..Vec$LT$T$GT$$u20$as$u20$alloc..vec..spec_from_iter_nested..SpecFromIterNested$LT$T$C$I$GT$$GT$9from_iter17h12611a0df4af2d01E
	.p2align	4, 0x90
__ZN111_$LT$alloc..vec..Vec$LT$T$GT$$u20$as$u20$alloc..vec..spec_from_iter_nested..SpecFromIterNested$LT$T$C$I$GT$$GT$9from_iter17h12611a0df4af2d01E:
Lfunc_begin51:
	.file	25 "/rustc/2c8cc343237b8f7d5a3c3703e3a87f2eb2c54a74/library/alloc/src/vec" "spec_from_iter_nested.rs"
	.loc	25 52 0
	.cfi_startproc
	.cfi_personality 155, _rust_eh_personality
	.cfi_lsda 16, Lexception10
	pushq	%rbp
	.cfi_def_cfa_offset 16
	.cfi_offset %rbp, -16
	movq	%rsp, %rbp
	.cfi_def_cfa_register %rbp
	subq	$240, %rsp
	movq	%rsi, -224(%rbp)
Ltmp450:
	movq	%rdi, -216(%rbp)
	movq	%rdi, -208(%rbp)
Ltmp451:
	.loc	25 53 13 prologue_end
	movb	$1, -66(%rbp)
Ltmp433:
	leaq	-200(%rbp), %rdi
	.loc	25 53 32 is_stmt 0
	callq	__ZN102_$LT$core..iter..adapters..map..Map$LT$I$C$F$GT$$u20$as$u20$core..iter..traits..iterator..Iterator$GT$9size_hint17he199064370c0f299E
Ltmp452:
Ltmp434:
	jmp	LBB51_3
Ltmp453:
LBB51_1:
	.loc	25 64 5 is_stmt 1
	testb	$1, -66(%rbp)
	jne	LBB51_14
	jmp	LBB51_13
Ltmp454:
LBB51_2:
Ltmp441:
	.loc	25 0 5 is_stmt 0
	movq	%rax, %rcx
	movl	%edx, %eax
	movq	%rcx, -48(%rbp)
	movl	%eax, -40(%rbp)
	jmp	LBB51_1
Ltmp455:
LBB51_3:
	.loc	25 53 26 is_stmt 1
	cmpq	$1, -192(%rbp)
	jne	LBB51_5
Ltmp456:
	.loc	25 54 22
	movq	-184(%rbp), %rdi
	movq	%rdi, -32(%rbp)
Ltmp457:
	.loc	25 54 52 is_stmt 0
	movq	%rdi, -24(%rbp)
Ltmp458:
	.file	26 "/rustc/2c8cc343237b8f7d5a3c3703e3a87f2eb2c54a74/library/alloc/src/vec" "mod.rs"
	.loc	26 483 32 is_stmt 1
	movq	%rdi, -16(%rbp)
Ltmp459:
	.loc	26 676 45
	movq	%rdi, -8(%rbp)
Ltmp460:
	.file	27 "/rustc/2c8cc343237b8f7d5a3c3703e3a87f2eb2c54a74/library/alloc/src" "raw_vec.rs"
	.loc	27 131 37
	movb	$0, -65(%rbp)
	.loc	27 131 9 is_stmt 0
	movzbl	-65(%rbp), %esi
Ltmp439:
	callq	__ZN5alloc7raw_vec19RawVec$LT$T$C$A$GT$11allocate_in17h30dfccc776559a92E
Ltmp440:
	movq	%rdx, -240(%rbp)
	movq	%rax, -232(%rbp)
	jmp	LBB51_8
Ltmp461:
LBB51_5:
Ltmp435:
	.loc	25 59 18 is_stmt 1
	leaq	l___unnamed_20(%rip), %rsi
	leaq	l___unnamed_21(%rip), %rcx
	xorl	%eax, %eax
	movl	%eax, %r8d
	leaq	-176(%rbp), %rdi
	movl	$1, %edx
	callq	__ZN4core3fmt9Arguments6new_v117h35e77ce08f889a61E
Ltmp436:
	jmp	LBB51_6
Ltmp462:
LBB51_6:
Ltmp437:
	leaq	l___unnamed_22(%rip), %rsi
	leaq	-176(%rbp), %rdi
	callq	__ZN4core9panicking9panic_fmt17h9b5d807e24bcaaedE
Ltmp438:
	jmp	LBB51_7
Ltmp463:
LBB51_7:
	.loc	25 0 18 is_stmt 0
	ud2
Ltmp464:
LBB51_8:
	movq	-216(%rbp), %rdi
	movq	-224(%rbp), %rcx
	movq	-240(%rbp), %rax
	movq	-232(%rbp), %rdx
Ltmp465:
	.loc	26 676 9 is_stmt 1
	movq	%rdx, (%rdi)
	movq	%rax, 8(%rdi)
	movq	$0, 16(%rdi)
Ltmp466:
	.loc	25 62 28
	movb	$0, -66(%rbp)
	movq	48(%rcx), %rax
	movq	%rax, -80(%rbp)
	movq	40(%rcx), %rax
	movq	%rax, -88(%rbp)
	movq	32(%rcx), %rax
	movq	%rax, -96(%rbp)
	movq	24(%rcx), %rax
	movq	%rax, -104(%rbp)
	movq	16(%rcx), %rax
	movq	%rax, -112(%rbp)
	movq	(%rcx), %rax
	movq	8(%rcx), %rcx
	movq	%rcx, -120(%rbp)
	movq	%rax, -128(%rbp)
Ltmp442:
	leaq	-128(%rbp), %rsi
	.loc	25 62 9 is_stmt 0
	callq	__ZN97_$LT$alloc..vec..Vec$LT$T$C$A$GT$$u20$as$u20$alloc..vec..spec_extend..SpecExtend$LT$T$C$I$GT$$GT$11spec_extend17h0eebf7ebd3284253E
Ltmp443:
	jmp	LBB51_11
Ltmp467:
LBB51_9:
Ltmp445:
	.loc	25 0 9
	movq	-216(%rbp), %rdi
	.loc	25 64 5 is_stmt 1
	callq	__ZN4core3ptr87drop_in_place$LT$alloc..vec..Vec$LT$unicode_bidi..prepare..IsolatingRunSequence$GT$$GT$17hb625c682300ce8c6E
Ltmp446:
	jmp	LBB51_1
Ltmp468:
LBB51_10:
Ltmp444:
	.loc	25 0 5 is_stmt 0
	movq	%rax, %rcx
	movl	%edx, %eax
	movq	%rcx, -48(%rbp)
	movl	%eax, -40(%rbp)
	jmp	LBB51_9
Ltmp469:
LBB51_11:
	movq	-208(%rbp), %rax
	.loc	25 64 6
	addq	$240, %rsp
	popq	%rbp
	retq
Ltmp470:
LBB51_12:
Ltmp449:
	.loc	25 52 5 is_stmt 1
	callq	__ZN4core9panicking19panic_cannot_unwind17h1fbca7e1d7f56ae1E
Ltmp471:
LBB51_13:
	movq	-48(%rbp), %rdi
	callq	__Unwind_Resume
Ltmp472:
LBB51_14:
Ltmp447:
	.loc	25 0 5 is_stmt 0
	movq	-224(%rbp), %rdi
	.loc	25 64 5 is_stmt 1
	callq	__ZN4core3ptr235drop_in_place$LT$core..iter..adapters..map..Map$LT$alloc..vec..into_iter..IntoIter$LT$alloc..vec..Vec$LT$core..ops..range..Range$LT$usize$GT$$GT$$GT$$C$unicode_bidi..prepare..isolating_run_sequences..$u7b$$u7b$closure$u7d$$u7d$$GT$$GT$17hcb90fded53516241E
Ltmp448:
	jmp	LBB51_13
Ltmp473:
Lfunc_end51:
	.cfi_endproc
	.section	__TEXT,__gcc_except_tab
	.p2align	2
GCC_except_table51:
Lexception10:
	.byte	255
	.byte	255
	.byte	1
	.uleb128 Lcst_end10-Lcst_begin10
Lcst_begin10:
	.uleb128 Ltmp433-Lfunc_begin51
	.uleb128 Ltmp438-Ltmp433
	.uleb128 Ltmp441-Lfunc_begin51
	.byte	0
	.uleb128 Ltmp442-Lfunc_begin51
	.uleb128 Ltmp443-Ltmp442
	.uleb128 Ltmp444-Lfunc_begin51
	.byte	0
	.uleb128 Ltmp445-Lfunc_begin51
	.uleb128 Ltmp446-Ltmp445
	.uleb128 Ltmp449-Lfunc_begin51
	.byte	0
	.uleb128 Ltmp446-Lfunc_begin51
	.uleb128 Ltmp447-Ltmp446
	.byte	0
	.byte	0
	.uleb128 Ltmp447-Lfunc_begin51
	.uleb128 Ltmp448-Ltmp447
	.uleb128 Ltmp449-Lfunc_begin51
	.byte	0
Lcst_end10:
	.p2align	2

	.section	__TEXT,__text,regular,pure_instructions
	.globl	__ZN111_$LT$alloc..vec..Vec$LT$T$GT$$u20$as$u20$alloc..vec..spec_from_iter_nested..SpecFromIterNested$LT$T$C$I$GT$$GT$9from_iter17h8c4e74a57fb92e71E
	.p2align	4, 0x90
__ZN111_$LT$alloc..vec..Vec$LT$T$GT$$u20$as$u20$alloc..vec..spec_from_iter_nested..SpecFromIterNested$LT$T$C$I$GT$$GT$9from_iter17h8c4e74a57fb92e71E:
Lfunc_begin52:
	.loc	25 52 0
	.cfi_startproc
	.cfi_personality 155, _rust_eh_personality
	.cfi_lsda 16, Lexception11
	pushq	%rbp
	.cfi_def_cfa_offset 16
	.cfi_offset %rbp, -16
	movq	%rsp, %rbp
	.cfi_def_cfa_register %rbp
	subq	$192, %rsp
	movq	%rdi, -176(%rbp)
	movq	%rdi, -168(%rbp)
	movq	%rsi, -160(%rbp)
	movq	%rdx, -152(%rbp)
Ltmp489:
	.loc	25 53 13 prologue_end
	movb	$1, -66(%rbp)
Ltmp474:
	leaq	-144(%rbp), %rdi
	leaq	-160(%rbp), %rsi
	.loc	25 53 32 is_stmt 0
	callq	__ZN102_$LT$core..iter..adapters..map..Map$LT$I$C$F$GT$$u20$as$u20$core..iter..traits..iterator..Iterator$GT$9size_hint17hae89710e7795d7adE
Ltmp475:
	jmp	LBB52_3
LBB52_1:
	.loc	25 64 5 is_stmt 1
	testb	$1, -66(%rbp)
	jne	LBB52_14
	jmp	LBB52_13
LBB52_2:
Ltmp482:
	.loc	25 0 5 is_stmt 0
	movq	%rax, %rcx
	movl	%edx, %eax
	movq	%rcx, -48(%rbp)
	movl	%eax, -40(%rbp)
	jmp	LBB52_1
LBB52_3:
	.loc	25 53 26 is_stmt 1
	cmpq	$1, -136(%rbp)
	jne	LBB52_5
	.loc	25 54 22
	movq	-128(%rbp), %rdi
	movq	%rdi, -32(%rbp)
Ltmp490:
	.loc	25 54 52 is_stmt 0
	movq	%rdi, -24(%rbp)
Ltmp491:
	.loc	26 483 32 is_stmt 1
	movq	%rdi, -16(%rbp)
Ltmp492:
	.loc	26 676 45
	movq	%rdi, -8(%rbp)
Ltmp493:
	.loc	27 131 37
	movb	$0, -65(%rbp)
	.loc	27 131 9 is_stmt 0
	movzbl	-65(%rbp), %esi
Ltmp480:
	callq	__ZN5alloc7raw_vec19RawVec$LT$T$C$A$GT$11allocate_in17h0e401c97aa292f8bE
Ltmp481:
	movq	%rdx, -192(%rbp)
	movq	%rax, -184(%rbp)
	jmp	LBB52_8
Ltmp494:
LBB52_5:
Ltmp476:
	.loc	25 59 18 is_stmt 1
	leaq	l___unnamed_20(%rip), %rsi
	leaq	l___unnamed_21(%rip), %rcx
	xorl	%eax, %eax
	movl	%eax, %r8d
	leaq	-120(%rbp), %rdi
	movl	$1, %edx
	callq	__ZN4core3fmt9Arguments6new_v117h35e77ce08f889a61E
Ltmp477:
	jmp	LBB52_6
LBB52_6:
Ltmp478:
	leaq	l___unnamed_22(%rip), %rsi
	leaq	-120(%rbp), %rdi
	callq	__ZN4core9panicking9panic_fmt17h9b5d807e24bcaaedE
Ltmp479:
	jmp	LBB52_7
LBB52_7:
	.loc	25 0 18 is_stmt 0
	ud2
LBB52_8:
	movq	-176(%rbp), %rdi
	movq	-192(%rbp), %rax
	movq	-184(%rbp), %rcx
Ltmp495:
	.loc	26 676 9 is_stmt 1
	movq	%rcx, (%rdi)
	movq	%rax, 8(%rdi)
	movq	$0, 16(%rdi)
Ltmp496:
	.loc	25 62 28
	movb	$0, -66(%rbp)
	movq	-160(%rbp), %rsi
	movq	-152(%rbp), %rdx
Ltmp483:
	.loc	25 62 9 is_stmt 0
	callq	__ZN97_$LT$alloc..vec..Vec$LT$T$C$A$GT$$u20$as$u20$alloc..vec..spec_extend..SpecExtend$LT$T$C$I$GT$$GT$11spec_extend17h7a5615dc6ea6bf67E
Ltmp484:
	jmp	LBB52_11
Ltmp497:
LBB52_9:
Ltmp486:
	.loc	25 0 9
	movq	-176(%rbp), %rdi
	.loc	25 64 5 is_stmt 1
	callq	__ZN4core3ptr70drop_in_place$LT$alloc..vec..Vec$LT$unicode_bidi..level..Level$GT$$GT$17hdbbb5c8af398c85aE
Ltmp487:
	jmp	LBB52_1
LBB52_10:
Ltmp485:
	.loc	25 0 5 is_stmt 0
	movq	%rax, %rcx
	movl	%edx, %eax
	movq	%rcx, -48(%rbp)
	movl	%eax, -40(%rbp)
	jmp	LBB52_9
LBB52_11:
	movq	-168(%rbp), %rax
	.loc	25 64 6
	addq	$192, %rsp
	popq	%rbp
	retq
LBB52_12:
Ltmp488:
	.loc	25 52 5 is_stmt 1
	callq	__ZN4core9panicking19panic_cannot_unwind17h1fbca7e1d7f56ae1E
LBB52_13:
	movq	-48(%rbp), %rdi
	callq	__Unwind_Resume
LBB52_14:
	.loc	25 64 5
	jmp	LBB52_13
Ltmp498:
Lfunc_end52:
	.cfi_endproc
	.section	__TEXT,__gcc_except_tab
	.p2align	2
GCC_except_table52:
Lexception11:
	.byte	255
	.byte	255
	.byte	1
	.uleb128 Lcst_end11-Lcst_begin11
Lcst_begin11:
	.uleb128 Ltmp474-Lfunc_begin52
	.uleb128 Ltmp479-Ltmp474
	.uleb128 Ltmp482-Lfunc_begin52
	.byte	0
	.uleb128 Ltmp483-Lfunc_begin52
	.uleb128 Ltmp484-Ltmp483
	.uleb128 Ltmp485-Lfunc_begin52
	.byte	0
	.uleb128 Ltmp486-Lfunc_begin52
	.uleb128 Ltmp487-Ltmp486
	.uleb128 Ltmp488-Lfunc_begin52
	.byte	0
	.uleb128 Ltmp487-Lfunc_begin52
	.uleb128 Lfunc_end52-Ltmp487
	.byte	0
	.byte	0
Lcst_end11:
	.p2align	2

	.section	__TEXT,__text,regular,pure_instructions
	.globl	__ZN111_$LT$alloc..vec..Vec$LT$T$GT$$u20$as$u20$alloc..vec..spec_from_iter_nested..SpecFromIterNested$LT$T$C$I$GT$$GT$9from_iter17hdce3b92e31a75e89E
	.p2align	4, 0x90
__ZN111_$LT$alloc..vec..Vec$LT$T$GT$$u20$as$u20$alloc..vec..spec_from_iter_nested..SpecFromIterNested$LT$T$C$I$GT$$GT$9from_iter17hdce3b92e31a75e89E:
Lfunc_begin53:
	.loc	25 20 0
	.cfi_startproc
	.cfi_personality 155, _rust_eh_personality
	.cfi_lsda 16, Lexception12
	pushq	%rbp
	.cfi_def_cfa_offset 16
	.cfi_offset %rbp, -16
	movq	%rsp, %rbp
	.cfi_def_cfa_register %rbp
	subq	$432, %rsp
	movq	%rsi, -384(%rbp)
Ltmp515:
	movq	%rdi, %rax
	movq	-384(%rbp), %rdi
	movq	%rax, -376(%rbp)
	movq	%rax, -368(%rbp)
Ltmp516:
	.loc	25 26 13 prologue_end
	movb	$1, -226(%rbp)
Ltmp499:
	.loc	25 26 32 is_stmt 0
	callq	__ZN102_$LT$core..iter..adapters..map..Map$LT$I$C$F$GT$$u20$as$u20$core..iter..traits..iterator..Iterator$GT$4next17hec0af9120a082573E
Ltmp500:
	movb	%dl, -354(%rbp)
	movb	%al, -353(%rbp)
	jmp	LBB53_3
Ltmp517:
LBB53_1:
	.loc	25 45 5 is_stmt 1
	testb	$1, -226(%rbp)
	jne	LBB53_19
	jmp	LBB53_18
Ltmp518:
LBB53_2:
Ltmp501:
	.loc	25 0 5 is_stmt 0
	movq	%rax, %rcx
	movl	%edx, %eax
	movq	%rcx, -200(%rbp)
	movl	%eax, -192(%rbp)
	jmp	LBB53_1
Ltmp519:
LBB53_3:
	movb	-354(%rbp), %al
	movb	-353(%rbp), %cl
	.loc	25 26 32 is_stmt 1
	movb	%cl, -328(%rbp)
	movb	%al, -327(%rbp)
	movb	-328(%rbp), %al
	andb	$1, %al
	movzbl	%al, %eax
	.loc	25 26 26 is_stmt 0
	cmpq	$0, %rax
	jne	LBB53_5
Ltmp520:
	.loc	25 0 26
	movq	-376(%rbp), %rax
Ltmp521:
	.loc	26 425 20 is_stmt 1
	movq	L___unnamed_23(%rip), %rdx
	movq	L___unnamed_23+8(%rip), %rcx
	.loc	26 425 9 is_stmt 0
	movq	%rdx, (%rax)
	movq	%rcx, 8(%rax)
	movq	$0, 16(%rax)
Ltmp522:
	.loc	25 45 5 is_stmt 1
	jmp	LBB53_20
Ltmp523:
LBB53_5:
	.loc	25 0 5 is_stmt 0
	movq	-384(%rbp), %rsi
	.loc	25 28 18 is_stmt 1
	movb	-327(%rbp), %al
	movb	%al, -385(%rbp)
	movb	%al, -177(%rbp)
Ltmp502:
	leaq	-320(%rbp), %rdi
Ltmp524:
	.loc	25 29 34
	callq	__ZN102_$LT$core..iter..adapters..map..Map$LT$I$C$F$GT$$u20$as$u20$core..iter..traits..iterator..Iterator$GT$9size_hint17h24adc80da9b5054cE
Ltmp503:
	jmp	LBB53_8
Ltmp525:
LBB53_6:
	.loc	25 39 13
	movb	$1, %al
	testb	$1, %al
	jne	LBB53_14
	jmp	LBB53_1
Ltmp526:
LBB53_7:
Ltmp508:
	.loc	25 0 13 is_stmt 0
	movq	%rax, %rcx
	movl	%edx, %eax
	movq	%rcx, -200(%rbp)
	movl	%eax, -192(%rbp)
	jmp	LBB53_6
Ltmp527:
LBB53_8:
	.loc	25 29 22 is_stmt 1
	movq	-320(%rbp), %rax
	movq	%rax, -176(%rbp)
Ltmp528:
	.loc	25 31 61
	movq	%rax, -168(%rbp)
Ltmp529:
	.loc	14 1022 13
	incq	%rax
	movq	$-1, %rcx
	cmoveq	%rcx, %rax
	movq	%rax, -160(%rbp)
	movq	-160(%rbp), %rax
	movq	%rax, -400(%rbp)
	movq	%rax, -152(%rbp)
Ltmp530:
	.loc	14 0 13 is_stmt 0
	movq	-400(%rbp), %rsi
	.loc	25 31 21 is_stmt 1
	movq	$8, -144(%rbp)
Ltmp531:
	.loc	4 1276 5
	movq	$8, -136(%rbp)
	.loc	4 1276 12 is_stmt 0
	movq	%rsi, -128(%rbp)
Ltmp504:
	movl	$8, %edi
Ltmp532:
	.loc	4 803 13 is_stmt 1
	callq	__ZN4core3cmp6max_by17h094e7d56a89e8de4E
Ltmp505:
	movq	%rax, -408(%rbp)
	jmp	LBB53_10
Ltmp533:
LBB53_10:
	.loc	4 0 13 is_stmt 0
	movq	-408(%rbp), %rdi
	.loc	4 803 13
	movq	%rdi, -120(%rbp)
Ltmp534:
	.loc	25 32 53 is_stmt 1
	movq	%rdi, -112(%rbp)
Ltmp535:
	.loc	26 483 32
	movq	%rdi, -104(%rbp)
Ltmp536:
	.loc	26 676 45
	movq	%rdi, -96(%rbp)
Ltmp537:
	.loc	27 131 37
	movb	$0, -225(%rbp)
	.loc	27 131 9 is_stmt 0
	movzbl	-225(%rbp), %esi
Ltmp506:
	callq	__ZN5alloc7raw_vec19RawVec$LT$T$C$A$GT$11allocate_in17h0e401c97aa292f8bE
Ltmp507:
	movq	%rdx, -424(%rbp)
	movq	%rax, -416(%rbp)
	jmp	LBB53_11
Ltmp538:
LBB53_11:
	.loc	27 0 9
	movq	-424(%rbp), %rax
	movq	-416(%rbp), %rcx
	.loc	26 676 9 is_stmt 1
	movq	%rcx, -296(%rbp)
	movq	%rax, -288(%rbp)
	movq	$0, -280(%rbp)
Ltmp539:
	.loc	25 35 32
	leaq	-296(%rbp), %rax
	movq	%rax, -88(%rbp)
Ltmp540:
	.loc	26 1280 19
	leaq	-296(%rbp), %rax
	movq	%rax, -80(%rbp)
Ltmp541:
	.loc	27 224 9
	movq	-288(%rbp), %rax
	movq	%rax, -432(%rbp)
	movq	%rax, -72(%rbp)
Ltmp542:
	.file	28 "/rustc/2c8cc343237b8f7d5a3c3703e3a87f2eb2c54a74/library/core/src/ptr" "unique.rs"
	.loc	28 104 9
	movq	%rax, -64(%rbp)
Ltmp543:
	.loc	20 326 9
	movq	%rax, -56(%rbp)
Ltmp544:
	.loc	26 1282 21
	movq	%rax, -48(%rbp)
Ltmp545:
	.loc	12 52 36
	movq	%rax, -224(%rbp)
	.loc	12 52 18 is_stmt 0
	movq	-224(%rbp), %rax
	movq	%rax, -40(%rbp)
Ltmp546:
	.loc	12 38 13 is_stmt 1
	movq	%rax, -32(%rbp)
Ltmp547:
	.loc	12 215 33
	movq	%rax, -24(%rbp)
	.loc	12 215 18 is_stmt 0
	movq	%rax, -16(%rbp)
	movq	-16(%rbp), %rax
Ltmp548:
	.loc	12 0 18
	movq	-384(%rbp), %rcx
	movq	-432(%rbp), %rax
	movb	-385(%rbp), %dl
	.loc	25 35 53 is_stmt 1
	movb	%dl, -265(%rbp)
Ltmp549:
	.loc	8 1354 9
	movb	-265(%rbp), %dl
	movb	%dl, (%rax)
	leaq	-296(%rbp), %rax
Ltmp550:
	.loc	25 36 21
	movq	%rax, -8(%rbp)
Ltmp551:
	.loc	26 1377 9
	movq	$1, -280(%rbp)
Ltmp552:
	.loc	25 38 17
	movq	-280(%rbp), %rax
	movq	%rax, -336(%rbp)
	movq	-296(%rbp), %rax
	movq	-288(%rbp), %rdx
	movq	%rdx, -344(%rbp)
	movq	%rax, -352(%rbp)
Ltmp553:
	.loc	25 43 64
	movb	$0, -226(%rbp)
	movq	24(%rcx), %rax
	movq	%rax, -240(%rbp)
	movq	16(%rcx), %rax
	movq	%rax, -248(%rbp)
	movq	(%rcx), %rax
	movq	8(%rcx), %rcx
	movq	%rcx, -256(%rbp)
	movq	%rax, -264(%rbp)
Ltmp509:
	leaq	-352(%rbp), %rdi
	leaq	-264(%rbp), %rsi
	.loc	25 43 9 is_stmt 0
	callq	__ZN97_$LT$alloc..vec..Vec$LT$T$C$A$GT$$u20$as$u20$alloc..vec..spec_extend..SpecExtend$LT$T$C$I$GT$$GT$11spec_extend17h8275f30b85135277E
Ltmp510:
	jmp	LBB53_17
Ltmp554:
LBB53_13:
Ltmp514:
	.loc	25 20 5 is_stmt 1
	callq	__ZN4core9panicking19panic_cannot_unwind17h1fbca7e1d7f56ae1E
Ltmp555:
LBB53_14:
	.loc	25 39 13
	jmp	LBB53_1
Ltmp556:
LBB53_15:
Ltmp512:
	.loc	25 0 13 is_stmt 0
	leaq	-352(%rbp), %rdi
	.loc	25 45 5 is_stmt 1
	callq	__ZN4core3ptr70drop_in_place$LT$alloc..vec..Vec$LT$unicode_bidi..level..Level$GT$$GT$17hdbbb5c8af398c85aE
Ltmp513:
	jmp	LBB53_1
Ltmp557:
LBB53_16:
Ltmp511:
	.loc	25 0 5 is_stmt 0
	movq	%rax, %rcx
	movl	%edx, %eax
	movq	%rcx, -200(%rbp)
	movl	%eax, -192(%rbp)
	jmp	LBB53_15
Ltmp558:
LBB53_17:
	movq	-376(%rbp), %rax
Ltmp559:
	.loc	25 44 9 is_stmt 1
	movq	-352(%rbp), %rcx
	movq	%rcx, (%rax)
	movq	-344(%rbp), %rcx
	movq	%rcx, 8(%rax)
	movq	-336(%rbp), %rcx
	movq	%rcx, 16(%rax)
Ltmp560:
	.loc	25 45 5
	jmp	LBB53_20
Ltmp561:
LBB53_18:
	.loc	25 20 5
	movq	-200(%rbp), %rdi
	callq	__Unwind_Resume
Ltmp562:
LBB53_19:
	.loc	25 45 5
	jmp	LBB53_18
Ltmp563:
LBB53_20:
	.loc	25 0 5 is_stmt 0
	movq	-368(%rbp), %rax
	.loc	25 45 6
	addq	$432, %rsp
	popq	%rbp
	retq
Ltmp564:
Lfunc_end53:
	.cfi_endproc
	.section	__TEXT,__gcc_except_tab
	.p2align	2
GCC_except_table53:
Lexception12:
	.byte	255
	.byte	255
	.byte	1
	.uleb128 Lcst_end12-Lcst_begin12
Lcst_begin12:
	.uleb128 Ltmp499-Lfunc_begin53
	.uleb128 Ltmp500-Ltmp499
	.uleb128 Ltmp501-Lfunc_begin53
	.byte	0
	.uleb128 Ltmp502-Lfunc_begin53
	.uleb128 Ltmp507-Ltmp502
	.uleb128 Ltmp508-Lfunc_begin53
	.byte	0
	.uleb128 Ltmp509-Lfunc_begin53
	.uleb128 Ltmp510-Ltmp509
	.uleb128 Ltmp511-Lfunc_begin53
	.byte	0
	.uleb128 Ltmp512-Lfunc_begin53
	.uleb128 Ltmp513-Ltmp512
	.uleb128 Ltmp514-Lfunc_begin53
	.byte	0
	.uleb128 Ltmp513-Lfunc_begin53
	.uleb128 Lfunc_end53-Ltmp513
	.byte	0
	.byte	0
Lcst_end12:
	.p2align	2

	.section	__TEXT,__text,regular,pure_instructions
	.globl	__ZN114_$LT$core..iter..adapters..flatten..FlatMap$LT$I$C$U$C$F$GT$$u20$as$u20$core..iter..traits..iterator..Iterator$GT$4next17h3c2f76cdf6e905f2E
	.p2align	4, 0x90
__ZN114_$LT$core..iter..adapters..flatten..FlatMap$LT$I$C$U$C$F$GT$$u20$as$u20$core..iter..traits..iterator..Iterator$GT$4next17h3c2f76cdf6e905f2E:
Lfunc_begin54:
	.file	29 "/rustc/2c8cc343237b8f7d5a3c3703e3a87f2eb2c54a74/library/core/src/iter/adapters" "flatten.rs"
	.loc	29 50 0 is_stmt 1
	.cfi_startproc
	pushq	%rbp
	.cfi_def_cfa_offset 16
	.cfi_offset %rbp, -16
	movq	%rsp, %rbp
	.cfi_def_cfa_register %rbp
	subq	$16, %rsp
	movq	%rdi, -8(%rbp)
Ltmp565:
	.loc	29 51 9 prologue_end
	callq	__ZN116_$LT$core..iter..adapters..flatten..FlattenCompat$LT$I$C$U$GT$$u20$as$u20$core..iter..traits..iterator..Iterator$GT$4next17h1ea3bdf36c7b1cbcE
	.loc	29 52 6
	addq	$16, %rsp
	popq	%rbp
	retq
Ltmp566:
Lfunc_end54:
	.cfi_endproc

	.globl	__ZN114_$LT$core..iter..adapters..flatten..FlatMap$LT$I$C$U$C$F$GT$$u20$as$u20$core..iter..traits..iterator..Iterator$GT$4next17he41b31543b874b03E
	.p2align	4, 0x90
__ZN114_$LT$core..iter..adapters..flatten..FlatMap$LT$I$C$U$C$F$GT$$u20$as$u20$core..iter..traits..iterator..Iterator$GT$4next17he41b31543b874b03E:
Lfunc_begin55:
	.loc	29 50 0
	.cfi_startproc
	pushq	%rbp
	.cfi_def_cfa_offset 16
	.cfi_offset %rbp, -16
	movq	%rsp, %rbp
	.cfi_def_cfa_register %rbp
	subq	$16, %rsp
	movq	%rdi, -8(%rbp)
Ltmp567:
	.loc	29 51 9 prologue_end
	callq	__ZN116_$LT$core..iter..adapters..flatten..FlattenCompat$LT$I$C$U$GT$$u20$as$u20$core..iter..traits..iterator..Iterator$GT$4next17he4a520bcf9cfa432E
	.loc	29 52 6
	addq	$16, %rsp
	popq	%rbp
	retq
Ltmp568:
Lfunc_end55:
	.cfi_endproc

	.globl	__ZN114_$LT$core..iter..adapters..flatten..FlatMap$LT$I$C$U$C$F$GT$$u20$as$u20$core..iter..traits..iterator..Iterator$GT$8try_fold17hc9a26dfa60666f0bE
	.p2align	4, 0x90
__ZN114_$LT$core..iter..adapters..flatten..FlatMap$LT$I$C$U$C$F$GT$$u20$as$u20$core..iter..traits..iterator..Iterator$GT$8try_fold17hc9a26dfa60666f0bE:
Lfunc_begin56:
	.loc	29 60 0
	.cfi_startproc
	pushq	%rbp
	.cfi_def_cfa_offset 16
	.cfi_offset %rbp, -16
	movq	%rsp, %rbp
	.cfi_def_cfa_register %rbp
	subq	$32, %rsp
	movq	%rdi, -24(%rbp)
	movq	%rsi, -8(%rbp)
Ltmp569:
	.loc	29 66 9 prologue_end
	callq	__ZN116_$LT$core..iter..adapters..flatten..FlattenCompat$LT$I$C$U$GT$$u20$as$u20$core..iter..traits..iterator..Iterator$GT$8try_fold17h40ef5d6e4d2fdb91E
	.loc	29 67 6
	addq	$32, %rsp
	popq	%rbp
	retq
Ltmp570:
Lfunc_end56:
	.cfi_endproc

	.globl	__ZN116_$LT$core..iter..adapters..flatten..FlattenCompat$LT$I$C$U$GT$$u20$as$u20$core..iter..traits..iterator..Iterator$GT$4next17h1ea3bdf36c7b1cbcE
	.p2align	4, 0x90
__ZN116_$LT$core..iter..adapters..flatten..FlattenCompat$LT$I$C$U$GT$$u20$as$u20$core..iter..traits..iterator..Iterator$GT$4next17h1ea3bdf36c7b1cbcE:
Lfunc_begin57:
	.loc	29 469 0
	.cfi_startproc
	pushq	%rbp
	.cfi_def_cfa_offset 16
	.cfi_offset %rbp, -16
	movq	%rsp, %rbp
	.cfi_def_cfa_register %rbp
	subq	$160, %rsp
	movq	%rdi, -152(%rbp)
	movq	%rdi, -64(%rbp)
LBB57_1:
	movq	-152(%rbp), %rdi
Ltmp571:
	.loc	29 471 54 prologue_end
	addq	$16, %rdi
	.loc	29 471 36 is_stmt 0
	callq	__ZN4core4iter8adapters7flatten17and_then_or_clear17h3947dccc3d713b4cE
	movq	%rdx, -120(%rbp)
	movq	%rax, -128(%rbp)
	.loc	29 471 20
	cmpq	$1, -128(%rbp)
	jne	LBB57_3
	movq	-128(%rbp), %rcx
	movq	-120(%rbp), %rax
	movq	%rcx, -16(%rbp)
	movq	%rax, -8(%rbp)
	.loc	29 472 24 is_stmt 1
	movq	%rcx, -144(%rbp)
	movq	%rax, -136(%rbp)
Ltmp572:
	.file	30 "/Users/natalie/.cargo/registry/src/github.com-1ecc6299db9ec823/unicode-bidi-0.3.8" "src/lib.rs"
	.loc	30 1 1
	jmp	LBB57_7
LBB57_3:
	.loc	30 0 1 is_stmt 0
	movq	-152(%rbp), %rsi
	.loc	29 474 19 is_stmt 1
	movq	%rsi, -56(%rbp)
Ltmp573:
	.loc	21 43 9
	leaq	-112(%rbp), %rdi
	callq	__ZN107_$LT$core..iter..adapters..fuse..Fuse$LT$I$GT$$u20$as$u20$core..iter..adapters..fuse..FuseImpl$LT$I$GT$$GT$4next17h478ba2ff844cbee4E
Ltmp574:
	.loc	29 474 13
	cmpq	$0, -112(%rbp)
	jne	LBB57_5
	.loc	29 0 13 is_stmt 0
	movq	-152(%rbp), %rdi
	.loc	29 475 50 is_stmt 1
	addq	$40, %rdi
	.loc	29 475 32 is_stmt 0
	callq	__ZN4core4iter8adapters7flatten17and_then_or_clear17h3947dccc3d713b4cE
	movq	%rdx, -136(%rbp)
	movq	%rax, -144(%rbp)
	.loc	30 1 1 is_stmt 1
	jmp	LBB57_7
LBB57_5:
	.loc	29 476 22
	movq	-104(%rbp), %rdi
	movq	-96(%rbp), %rsi
	movq	%rdi, -48(%rbp)
	movq	%rsi, -40(%rbp)
Ltmp575:
	.loc	29 476 54 is_stmt 0
	callq	__ZN63_$LT$I$u20$as$u20$core..iter..traits..collect..IntoIterator$GT$9into_iter17h0f2fd371652b3099E
	.loc	29 476 49
	movq	%rax, -80(%rbp)
	movq	%rdx, -72(%rbp)
	movq	$1, -88(%rbp)
	.loc	29 0 49
	movq	-152(%rbp), %rax
	.loc	29 476 32
	movq	-88(%rbp), %rcx
	movq	%rcx, 16(%rax)
	movq	-80(%rbp), %rcx
	movq	%rcx, 24(%rax)
	movq	-72(%rbp), %rcx
	movq	%rcx, 32(%rax)
Ltmp576:
	.loc	29 470 9 is_stmt 1
	jmp	LBB57_1
LBB57_7:
	.loc	29 479 6
	movq	-144(%rbp), %rax
	movq	-136(%rbp), %rdx
	addq	$160, %rsp
	popq	%rbp
	retq
Ltmp577:
Lfunc_end57:
	.cfi_endproc

	.globl	__ZN116_$LT$core..iter..adapters..flatten..FlattenCompat$LT$I$C$U$GT$$u20$as$u20$core..iter..traits..iterator..Iterator$GT$4next17he4a520bcf9cfa432E
	.p2align	4, 0x90
__ZN116_$LT$core..iter..adapters..flatten..FlattenCompat$LT$I$C$U$GT$$u20$as$u20$core..iter..traits..iterator..Iterator$GT$4next17he4a520bcf9cfa432E:
Lfunc_begin58:
	.loc	29 469 0
	.cfi_startproc
	pushq	%rbp
	.cfi_def_cfa_offset 16
	.cfi_offset %rbp, -16
	movq	%rsp, %rbp
	.cfi_def_cfa_register %rbp
	subq	$160, %rsp
	movq	%rdi, -152(%rbp)
	movq	%rdi, -64(%rbp)
LBB58_1:
	movq	-152(%rbp), %rdi
Ltmp578:
	.loc	29 471 54 prologue_end
	addq	$24, %rdi
	.loc	29 471 36 is_stmt 0
	callq	__ZN4core4iter8adapters7flatten17and_then_or_clear17h3947dccc3d713b4cE
	movq	%rdx, -120(%rbp)
	movq	%rax, -128(%rbp)
	.loc	29 471 20
	cmpq	$1, -128(%rbp)
	jne	LBB58_3
	movq	-128(%rbp), %rcx
	movq	-120(%rbp), %rax
	movq	%rcx, -16(%rbp)
	movq	%rax, -8(%rbp)
	.loc	29 472 24 is_stmt 1
	movq	%rcx, -144(%rbp)
	movq	%rax, -136(%rbp)
Ltmp579:
	.loc	30 1 1
	jmp	LBB58_7
LBB58_3:
	.loc	30 0 1 is_stmt 0
	movq	-152(%rbp), %rsi
	.loc	29 474 19 is_stmt 1
	movq	%rsi, -56(%rbp)
Ltmp580:
	.loc	21 43 9
	leaq	-112(%rbp), %rdi
	callq	__ZN107_$LT$core..iter..adapters..fuse..Fuse$LT$I$GT$$u20$as$u20$core..iter..adapters..fuse..FuseImpl$LT$I$GT$$GT$4next17h40a748e08f217edaE
Ltmp581:
	.loc	29 474 13
	cmpq	$0, -112(%rbp)
	jne	LBB58_5
	.loc	29 0 13 is_stmt 0
	movq	-152(%rbp), %rdi
	.loc	29 475 50 is_stmt 1
	addq	$48, %rdi
	.loc	29 475 32 is_stmt 0
	callq	__ZN4core4iter8adapters7flatten17and_then_or_clear17h3947dccc3d713b4cE
	movq	%rdx, -136(%rbp)
	movq	%rax, -144(%rbp)
	.loc	30 1 1 is_stmt 1
	jmp	LBB58_7
LBB58_5:
	.loc	29 476 22
	movq	-104(%rbp), %rdi
	movq	-96(%rbp), %rsi
	movq	%rdi, -48(%rbp)
	movq	%rsi, -40(%rbp)
Ltmp582:
	.loc	29 476 54 is_stmt 0
	callq	__ZN63_$LT$I$u20$as$u20$core..iter..traits..collect..IntoIterator$GT$9into_iter17h0f2fd371652b3099E
	.loc	29 476 49
	movq	%rax, -80(%rbp)
	movq	%rdx, -72(%rbp)
	movq	$1, -88(%rbp)
	.loc	29 0 49
	movq	-152(%rbp), %rax
	.loc	29 476 32
	movq	-88(%rbp), %rcx
	movq	%rcx, 24(%rax)
	movq	-80(%rbp), %rcx
	movq	%rcx, 32(%rax)
	movq	-72(%rbp), %rcx
	movq	%rcx, 40(%rax)
Ltmp583:
	.loc	29 470 9 is_stmt 1
	jmp	LBB58_1
LBB58_7:
	.loc	29 479 6
	movq	-144(%rbp), %rax
	movq	-136(%rbp), %rdx
	addq	$160, %rsp
	popq	%rbp
	retq
Ltmp584:
Lfunc_end58:
	.cfi_endproc

	.globl	__ZN116_$LT$core..iter..adapters..flatten..FlattenCompat$LT$I$C$U$GT$$u20$as$u20$core..iter..traits..iterator..Iterator$GT$8try_fold17h40ef5d6e4d2fdb91E
	.p2align	4, 0x90
__ZN116_$LT$core..iter..adapters..flatten..FlattenCompat$LT$I$C$U$GT$$u20$as$u20$core..iter..traits..iterator..Iterator$GT$8try_fold17h40ef5d6e4d2fdb91E:
Lfunc_begin59:
	.loc	29 504 0
	.cfi_startproc
	.cfi_personality 155, _rust_eh_personality
	.cfi_lsda 16, Lexception13
	pushq	%rbp
	.cfi_def_cfa_offset 16
	.cfi_offset %rbp, -16
	movq	%rsp, %rbp
	.cfi_def_cfa_register %rbp
	subq	$64, %rsp
	movq	%rdi, -48(%rbp)
	movq	%rsi, -32(%rbp)
Ltmp588:
	.loc	29 517 42 prologue_end
	movq	%rsi, -24(%rbp)
Ltmp589:
	.loc	29 514 13
	movq	%rsi, -56(%rbp)
Ltmp590:
	.loc	29 517 9
	movq	-56(%rbp), %rsi
Ltmp585:
	callq	__ZN4core4iter8adapters7flatten26FlattenCompat$LT$I$C$U$GT$13iter_try_fold17h0181ac9d20ab5c61E
Ltmp586:
	movb	%al, -57(%rbp)
	jmp	LBB59_3
LBB59_1:
	.loc	29 517 47 is_stmt 0
	xorl	%eax, %eax
	testb	$1, %al
	jne	LBB59_5
	jmp	LBB59_4
LBB59_2:
Ltmp587:
	.loc	29 0 47
	movq	%rax, %rcx
	movl	%edx, %eax
	movq	%rcx, -16(%rbp)
	movl	%eax, -8(%rbp)
	jmp	LBB59_1
LBB59_3:
	movb	-57(%rbp), %al
	.loc	29 518 6 is_stmt 1
	addq	$64, %rsp
	popq	%rbp
	retq
LBB59_4:
	.loc	29 504 5
	movq	-16(%rbp), %rdi
	callq	__Unwind_Resume
LBB59_5:
	.loc	29 517 47
	jmp	LBB59_4
Ltmp591:
Lfunc_end59:
	.cfi_endproc
	.section	__TEXT,__gcc_except_tab
	.p2align	2
GCC_except_table59:
Lexception13:
	.byte	255
	.byte	255
	.byte	1
	.uleb128 Lcst_end13-Lcst_begin13
Lcst_begin13:
	.uleb128 Ltmp585-Lfunc_begin59
	.uleb128 Ltmp586-Ltmp585
	.uleb128 Ltmp587-Lfunc_begin59
	.byte	0
	.uleb128 Ltmp586-Lfunc_begin59
	.uleb128 Lfunc_end59-Ltmp586
	.byte	0
	.byte	0
Lcst_end13:
	.p2align	2

	.section	__TEXT,__text,regular,pure_instructions
	.globl	__ZN116_$LT$core..iter..adapters..flatten..FlattenCompat$LT$I$C$U$GT$$u20$as$u20$core..iter..traits..iterator..Iterator$GT$8try_fold7flatten28_$u7b$$u7b$closure$u7d$$u7d$17he6a70ca83bed05d5E
	.p2align	4, 0x90
__ZN116_$LT$core..iter..adapters..flatten..FlattenCompat$LT$I$C$U$GT$$u20$as$u20$core..iter..traits..iterator..Iterator$GT$8try_fold7flatten28_$u7b$$u7b$closure$u7d$$u7d$17he6a70ca83bed05d5E:
Lfunc_begin60:
	.loc	29 514 0
	.cfi_startproc
	pushq	%rbp
	.cfi_def_cfa_offset 16
	.cfi_offset %rbp, -16
	movq	%rsp, %rbp
	.cfi_def_cfa_register %rbp
	subq	$32, %rsp
	movq	%rsi, -32(%rbp)
	movq	%rdi, %rsi
	movq	-32(%rbp), %rdi
	movq	%rsi, -24(%rbp)
	movq	%rdi, -8(%rbp)
Ltmp592:
	.loc	29 514 30 prologue_end
	callq	__ZN4core4iter6traits8iterator8Iterator8try_fold17hce92ca3f177245bbE
	.loc	29 514 59 is_stmt 0
	addq	$32, %rsp
	popq	%rbp
	retq
Ltmp593:
Lfunc_end60:
	.cfi_endproc

	.globl	__ZN118_$LT$alloc..vec..into_iter..IntoIter$LT$T$C$A$GT$$u20$as$u20$core..iter..traits..double_ended..DoubleEndedIterator$GT$9next_back17hb47910a647dc26dbE
	.p2align	4, 0x90
__ZN118_$LT$alloc..vec..into_iter..IntoIter$LT$T$C$A$GT$$u20$as$u20$core..iter..traits..double_ended..DoubleEndedIterator$GT$9next_back17hb47910a647dc26dbE:
Lfunc_begin61:
	.loc	6 299 0 is_stmt 1
	.cfi_startproc
	pushq	%rbp
	.cfi_def_cfa_offset 16
	.cfi_offset %rbp, -16
	movq	%rsp, %rbp
	.cfi_def_cfa_register %rbp
	subq	$352, %rsp
	movq	%rsi, -344(%rbp)
	movq	%rdi, -336(%rbp)
	movq	%rdi, -328(%rbp)
	movq	%rsi, -136(%rbp)
Ltmp594:
	.loc	6 300 12 prologue_end
	movq	16(%rsi), %rax
	cmpq	8(%rsi), %rax
	je	LBB61_2
	.loc	6 302 19
	xorl	%eax, %eax
	testb	$1, %al
	jne	LBB61_5
	jmp	LBB61_4
LBB61_2:
	.loc	6 0 19 is_stmt 0
	movq	-336(%rbp), %rax
	.loc	6 301 13 is_stmt 1
	movq	$0, 8(%rax)
LBB61_3:
	.loc	6 0 13 is_stmt 0
	movq	-328(%rbp), %rax
	.loc	6 313 6 is_stmt 1
	addq	$352, %rsp
	popq	%rbp
	retq
LBB61_4:
	.loc	6 0 6 is_stmt 0
	movq	-336(%rbp), %rax
	movq	-344(%rbp), %rcx
	.loc	6 309 33 is_stmt 1
	movq	16(%rcx), %rdx
	movq	%rdx, -40(%rbp)
Ltmp595:
	.loc	7 1017 18
	movq	%rdx, -32(%rbp)
Ltmp596:
	.loc	7 473 18
	addq	$-24, %rdx
	movq	%rdx, -24(%rbp)
	movq	-24(%rbp), %rdx
Ltmp597:
	.loc	6 309 13
	movq	%rdx, 16(%rcx)
	.loc	6 311 37
	movq	16(%rcx), %rcx
	movq	%rcx, -16(%rbp)
Ltmp598:
	.loc	8 1157 34
	leaq	-208(%rbp), %rdx
	movq	%rdx, -8(%rbp)
	.loc	8 1157 9 is_stmt 0
	movq	(%rcx), %rdx
	movq	%rdx, -208(%rbp)
	movq	8(%rcx), %rdx
	movq	%rdx, -200(%rbp)
	movq	16(%rcx), %rcx
	movq	%rcx, -192(%rbp)
	.loc	8 1158 9 is_stmt 1
	movq	-208(%rbp), %rcx
	movq	%rcx, -184(%rbp)
	movq	-200(%rbp), %rcx
	movq	%rcx, -176(%rbp)
	movq	-192(%rbp), %rcx
	movq	%rcx, -168(%rbp)
Ltmp599:
	.loc	9 627 38
	movq	-184(%rbp), %rcx
	movq	%rcx, -160(%rbp)
	movq	-176(%rbp), %rcx
	movq	%rcx, -152(%rbp)
	movq	-168(%rbp), %rcx
	movq	%rcx, -144(%rbp)
Ltmp600:
	.loc	10 89 9
	movq	-160(%rbp), %rcx
	movq	%rcx, -296(%rbp)
	movq	-152(%rbp), %rcx
	movq	%rcx, -288(%rbp)
	movq	-144(%rbp), %rcx
	movq	%rcx, -280(%rbp)
Ltmp601:
	.loc	6 311 13
	movq	-296(%rbp), %rcx
	movq	%rcx, (%rax)
	movq	-288(%rbp), %rcx
	movq	%rcx, 8(%rax)
	movq	-280(%rbp), %rcx
	movq	%rcx, 16(%rax)
	.loc	6 302 16
	jmp	LBB61_6
LBB61_5:
	.loc	6 0 16 is_stmt 0
	movq	-344(%rbp), %rax
	.loc	6 304 24 is_stmt 1
	movq	16(%rax), %rcx
	movq	%rcx, -120(%rbp)
Ltmp602:
	.loc	7 1198 9
	movq	%rcx, -112(%rbp)
Ltmp603:
	.loc	7 61 9
	movq	%rcx, -104(%rbp)
Ltmp604:
	.loc	7 1180 9
	movq	%rcx, -96(%rbp)
Ltmp605:
	.loc	7 555 18
	addq	$-1, %rcx
	movq	%rcx, -88(%rbp)
	movq	-88(%rbp), %rcx
	movq	%rcx, -80(%rbp)
Ltmp606:
	.loc	7 100 29
	movq	%rcx, -72(%rbp)
Ltmp607:
	.loc	11 118 36
	movq	%rcx, -264(%rbp)
	.loc	11 118 14 is_stmt 0
	movq	-264(%rbp), %rcx
	movq	%rcx, -272(%rbp)
	movq	-272(%rbp), %rcx
Ltmp608:
	.loc	6 304 13 is_stmt 1
	movq	%rcx, 16(%rax)
Ltmp609:
	.loc	2 646 9
	leaq	_str.0(%rip), %rdi
	movl	$101, %esi
	callq	__ZN4core9panicking14panic_nounwind17h30c28fda67313a65E
Ltmp610:
	.loc	9 399 13
	leaq	-256(%rbp), %rax
	movq	%rax, -64(%rbp)
Ltmp611:
	.loc	9 569 9
	leaq	-256(%rbp), %rax
	movq	%rax, -56(%rbp)
Ltmp612:
	.loc	12 1488 30
	leaq	-256(%rbp), %rax
	movq	%rax, -48(%rbp)
Ltmp613:
	.loc	13 2529 9
	leaq	-256(%rbp), %rdi
	xorl	%esi, %esi
	movl	$24, %edx
	callq	_memset
	movq	-336(%rbp), %rax
Ltmp614:
	.loc	9 627 38
	movq	-256(%rbp), %rcx
	movq	%rcx, -232(%rbp)
	movq	-248(%rbp), %rcx
	movq	%rcx, -224(%rbp)
	movq	-240(%rbp), %rcx
	movq	%rcx, -216(%rbp)
Ltmp615:
	.loc	10 89 9
	movq	-232(%rbp), %rcx
	movq	%rcx, -320(%rbp)
	movq	-224(%rbp), %rcx
	movq	%rcx, -312(%rbp)
	movq	-216(%rbp), %rcx
	movq	%rcx, -304(%rbp)
Ltmp616:
	.loc	6 307 13
	movq	-320(%rbp), %rcx
	movq	%rcx, (%rax)
	movq	-312(%rbp), %rcx
	movq	%rcx, 8(%rax)
	movq	-304(%rbp), %rcx
	movq	%rcx, 16(%rax)
LBB61_6:
	.loc	6 300 9
	jmp	LBB61_3
Ltmp617:
Lfunc_end61:
	.cfi_endproc

	.globl	__ZN119_$LT$core..ptr..non_null..NonNull$LT$T$GT$$u20$as$u20$core..convert..From$LT$core..ptr..unique..Unique$LT$T$GT$$GT$$GT$4from17h412bd1223c5d8daaE
	.p2align	4, 0x90
__ZN119_$LT$core..ptr..non_null..NonNull$LT$T$GT$$u20$as$u20$core..convert..From$LT$core..ptr..unique..Unique$LT$T$GT$$GT$$GT$4from17h412bd1223c5d8daaE:
Lfunc_begin62:
	.loc	20 765 0
	.cfi_startproc
	pushq	%rbp
	.cfi_def_cfa_offset 16
	.cfi_offset %rbp, -16
	movq	%rsp, %rbp
	.cfi_def_cfa_register %rbp
	subq	$40, %rsp
	movq	%rdi, -32(%rbp)
Ltmp618:
	.loc	20 768 41 prologue_end
	movq	%rdi, -24(%rbp)
Ltmp619:
	.loc	28 104 9
	movq	%rdi, -16(%rbp)
Ltmp620:
	.loc	20 326 9
	movq	%rdi, -8(%rbp)
Ltmp621:
	.loc	20 201 13
	movq	%rdi, -40(%rbp)
Ltmp622:
	.loc	20 769 6
	movq	-40(%rbp), %rax
	addq	$40, %rsp
	popq	%rbp
	retq
Ltmp623:
Lfunc_end62:
	.cfi_endproc

	.p2align	4, 0x90
__ZN122_$LT$alloc..collections..TryReserveError$u20$as$u20$core..convert..From$LT$alloc..collections..TryReserveErrorKind$GT$$GT$4from17h2e5c04c1a2cb6a94E:
Lfunc_begin63:
	.file	31 "/rustc/2c8cc343237b8f7d5a3c3703e3a87f2eb2c54a74/library/alloc/src/collections" "mod.rs"
	.loc	31 116 0
	.cfi_startproc
	pushq	%rbp
	.cfi_def_cfa_offset 16
	.cfi_offset %rbp, -16
	movq	%rsp, %rbp
	.cfi_def_cfa_register %rbp
	subq	$32, %rsp
	movq	%rdi, -16(%rbp)
	movq	%rsi, -8(%rbp)
Ltmp624:
	.loc	31 117 9 prologue_end
	movq	%rdi, -32(%rbp)
	movq	%rsi, -24(%rbp)
	.loc	31 118 6
	movq	-32(%rbp), %rax
	movq	-24(%rbp), %rdx
	addq	$32, %rsp
	popq	%rbp
	retq
Ltmp625:
Lfunc_end63:
	.cfi_endproc

	.globl	__ZN132_$LT$alloc..vec..Vec$LT$T$C$A$GT$$u20$as$u20$alloc..vec..spec_extend..SpecExtend$LT$$RF$T$C$core..slice..iter..Iter$LT$T$GT$$GT$$GT$11spec_extend17he97a97364d36fc2cE
	.p2align	4, 0x90
__ZN132_$LT$alloc..vec..Vec$LT$T$C$A$GT$$u20$as$u20$alloc..vec..spec_extend..SpecExtend$LT$$RF$T$C$core..slice..iter..Iter$LT$T$GT$$GT$$GT$11spec_extend17he97a97364d36fc2cE:
Lfunc_begin64:
	.file	32 "/rustc/2c8cc343237b8f7d5a3c3703e3a87f2eb2c54a74/library/alloc/src/vec" "spec_extend.rs"
	.loc	32 53 0
	.cfi_startproc
	pushq	%rbp
	.cfi_def_cfa_offset 16
	.cfi_offset %rbp, -16
	movq	%rsp, %rbp
	.cfi_def_cfa_register %rbp
	subq	$48, %rsp
	movq	%rdi, -48(%rbp)
	movq	%rsi, -40(%rbp)
	movq	%rdx, -32(%rbp)
	movq	%rdi, -24(%rbp)
Ltmp626:
	.loc	32 54 21 prologue_end
	leaq	-40(%rbp), %rdi
	callq	__ZN4core5slice4iter13Iter$LT$T$GT$8as_slice17hd0437264ef6f7084E
	movq	-48(%rbp), %rdi
	movq	%rax, %rsi
	movq	%rsi, -16(%rbp)
	movq	%rdx, -8(%rbp)
Ltmp627:
	.loc	32 55 18
	callq	__ZN5alloc3vec16Vec$LT$T$C$A$GT$15append_elements17h9879dacdae5e8d0dE
Ltmp628:
	.loc	32 56 6
	addq	$48, %rsp
	popq	%rbp
	retq
Ltmp629:
Lfunc_end64:
	.cfi_endproc

	.globl	__ZN153_$LT$core..result..Result$LT$T$C$F$GT$$u20$as$u20$core..ops..try_trait..FromResidual$LT$core..result..Result$LT$core..convert..Infallible$C$E$GT$$GT$$GT$13from_residual17h410dfaa7772403d9E
	.p2align	4, 0x90
__ZN153_$LT$core..result..Result$LT$T$C$F$GT$$u20$as$u20$core..ops..try_trait..FromResidual$LT$core..result..Result$LT$core..convert..Infallible$C$E$GT$$GT$$GT$13from_residual17h410dfaa7772403d9E:
Lfunc_begin65:
	.file	33 "/rustc/2c8cc343237b8f7d5a3c3703e3a87f2eb2c54a74/library/core/src" "result.rs"
	.loc	33 2105 0
	.cfi_startproc
	pushq	%rbp
	.cfi_def_cfa_offset 16
	.cfi_offset %rbp, -16
	movq	%rsp, %rbp
	.cfi_def_cfa_register %rbp
	subq	$32, %rsp
Ltmp630:
	.file	34 "/rustc/2c8cc343237b8f7d5a3c3703e3a87f2eb2c54a74/library/core/src/convert" "mod.rs"
	.loc	34 738 6 prologue_end
	ud2
Ltmp631:
Lfunc_end65:
	.cfi_endproc

	.globl	__ZN157_$LT$$LT$alloc..vec..into_iter..IntoIter$LT$T$C$A$GT$$u20$as$u20$core..ops..drop..Drop$GT$..drop..DropGuard$LT$T$C$A$GT$$u20$as$u20$core..ops..drop..Drop$GT$4drop17h34b33b8a1d9085adE
	.p2align	4, 0x90
__ZN157_$LT$$LT$alloc..vec..into_iter..IntoIter$LT$T$C$A$GT$$u20$as$u20$core..ops..drop..Drop$GT$..drop..DropGuard$LT$T$C$A$GT$$u20$as$u20$core..ops..drop..Drop$GT$4drop17h34b33b8a1d9085adE:
Lfunc_begin66:
	.loc	6 390 0
	.cfi_startproc
	.cfi_personality 155, _rust_eh_personality
	.cfi_lsda 16, Lexception14
	pushq	%rbp
	.cfi_def_cfa_offset 16
	.cfi_offset %rbp, -16
	movq	%rsp, %rbp
	.cfi_def_cfa_register %rbp
	subq	$160, %rsp
	movq	%rdi, -120(%rbp)
Ltmp635:
	.loc	6 393 52 prologue_end
	movq	(%rdi), %rax
	movq	%rax, -80(%rbp)
Ltmp636:
	.loc	10 113 28
	movq	%rax, -72(%rbp)
	leaq	-144(%rbp), %rax
Ltmp637:
	.loc	8 1157 34
	movq	%rax, -64(%rbp)
Ltmp638:
	.loc	6 395 55
	movq	(%rdi), %rax
	movq	24(%rax), %rcx
	movq	%rcx, -56(%rbp)
Ltmp639:
	.loc	20 326 9
	movq	%rcx, -48(%rbp)
Ltmp640:
	.loc	6 395 76
	movq	(%rdi), %rax
	movq	(%rax), %rax
	movq	%rax, -40(%rbp)
Ltmp641:
	.loc	27 216 52
	movq	%rcx, -32(%rbp)
Ltmp642:
	.loc	28 87 59
	movq	%rcx, -24(%rbp)
Ltmp643:
	.loc	20 201 13
	movq	%rcx, -128(%rbp)
Ltmp644:
	.loc	28 87 18
	movq	-128(%rbp), %rcx
	movq	%rcx, -136(%rbp)
Ltmp645:
	.loc	27 216 9
	movq	-136(%rbp), %rcx
	movq	%rcx, -152(%rbp)
	movq	%rax, -160(%rbp)
Ltmp632:
	leaq	-160(%rbp), %rdi
Ltmp646:
	.loc	6 395 94
	callq	__ZN4core3ptr87drop_in_place$LT$alloc..raw_vec..RawVec$LT$core..ops..range..Range$LT$usize$GT$$GT$$GT$17hecd0bcc9c3e7d347E
Ltmp633:
	jmp	LBB66_3
Ltmp647:
LBB66_1:
	.loc	6 396 17
	xorl	%eax, %eax
	testb	$1, %al
	jne	LBB66_5
	jmp	LBB66_4
LBB66_2:
Ltmp634:
	.loc	6 0 17 is_stmt 0
	movq	%rax, %rcx
	movl	%edx, %eax
	movq	%rcx, -16(%rbp)
	movl	%eax, -8(%rbp)
	jmp	LBB66_1
LBB66_3:
	.loc	6 397 14 is_stmt 1
	addq	$160, %rsp
	popq	%rbp
	retq
LBB66_4:
	.loc	6 390 13
	movq	-16(%rbp), %rdi
	callq	__Unwind_Resume
LBB66_5:
	.loc	6 396 17
	jmp	LBB66_4
Ltmp648:
Lfunc_end66:
	.cfi_endproc
	.section	__TEXT,__gcc_except_tab
	.p2align	2
GCC_except_table66:
Lexception14:
	.byte	255
	.byte	255
	.byte	1
	.uleb128 Lcst_end14-Lcst_begin14
Lcst_begin14:
	.uleb128 Ltmp632-Lfunc_begin66
	.uleb128 Ltmp633-Ltmp632
	.uleb128 Ltmp634-Lfunc_begin66
	.byte	0
	.uleb128 Ltmp633-Lfunc_begin66
	.uleb128 Lfunc_end66-Ltmp633
	.byte	0
	.byte	0
Lcst_end14:
	.p2align	2

	.section	__TEXT,__text,regular,pure_instructions
	.globl	__ZN157_$LT$$LT$alloc..vec..into_iter..IntoIter$LT$T$C$A$GT$$u20$as$u20$core..ops..drop..Drop$GT$..drop..DropGuard$LT$T$C$A$GT$$u20$as$u20$core..ops..drop..Drop$GT$4drop17hcdfb30e7bb5b0b1aE
	.p2align	4, 0x90
__ZN157_$LT$$LT$alloc..vec..into_iter..IntoIter$LT$T$C$A$GT$$u20$as$u20$core..ops..drop..Drop$GT$..drop..DropGuard$LT$T$C$A$GT$$u20$as$u20$core..ops..drop..Drop$GT$4drop17hcdfb30e7bb5b0b1aE:
Lfunc_begin67:
	.loc	6 390 0
	.cfi_startproc
	.cfi_personality 155, _rust_eh_personality
	.cfi_lsda 16, Lexception15
	pushq	%rbp
	.cfi_def_cfa_offset 16
	.cfi_offset %rbp, -16
	movq	%rsp, %rbp
	.cfi_def_cfa_register %rbp
	subq	$160, %rsp
	movq	%rdi, -120(%rbp)
Ltmp652:
	.loc	6 393 52 prologue_end
	movq	(%rdi), %rax
	movq	%rax, -80(%rbp)
Ltmp653:
	.loc	10 113 28
	movq	%rax, -72(%rbp)
	leaq	-144(%rbp), %rax
Ltmp654:
	.loc	8 1157 34
	movq	%rax, -64(%rbp)
Ltmp655:
	.loc	6 395 55
	movq	(%rdi), %rax
	movq	24(%rax), %rcx
	movq	%rcx, -56(%rbp)
Ltmp656:
	.loc	20 326 9
	movq	%rcx, -48(%rbp)
Ltmp657:
	.loc	6 395 76
	movq	(%rdi), %rax
	movq	(%rax), %rax
	movq	%rax, -40(%rbp)
Ltmp658:
	.loc	27 216 52
	movq	%rcx, -32(%rbp)
Ltmp659:
	.loc	28 87 59
	movq	%rcx, -24(%rbp)
Ltmp660:
	.loc	20 201 13
	movq	%rcx, -128(%rbp)
Ltmp661:
	.loc	28 87 18
	movq	-128(%rbp), %rcx
	movq	%rcx, -136(%rbp)
Ltmp662:
	.loc	27 216 9
	movq	-136(%rbp), %rcx
	movq	%rcx, -152(%rbp)
	movq	%rax, -160(%rbp)
Ltmp649:
	leaq	-160(%rbp), %rdi
Ltmp663:
	.loc	6 395 94
	callq	__ZN4core3ptr110drop_in_place$LT$alloc..raw_vec..RawVec$LT$alloc..vec..Vec$LT$core..ops..range..Range$LT$usize$GT$$GT$$GT$$GT$17h2c0c43abe0f55b7eE
Ltmp650:
	jmp	LBB67_3
Ltmp664:
LBB67_1:
	.loc	6 396 17
	xorl	%eax, %eax
	testb	$1, %al
	jne	LBB67_5
	jmp	LBB67_4
LBB67_2:
Ltmp651:
	.loc	6 0 17 is_stmt 0
	movq	%rax, %rcx
	movl	%edx, %eax
	movq	%rcx, -16(%rbp)
	movl	%eax, -8(%rbp)
	jmp	LBB67_1
LBB67_3:
	.loc	6 397 14 is_stmt 1
	addq	$160, %rsp
	popq	%rbp
	retq
LBB67_4:
	.loc	6 390 13
	movq	-16(%rbp), %rdi
	callq	__Unwind_Resume
LBB67_5:
	.loc	6 396 17
	jmp	LBB67_4
Ltmp665:
Lfunc_end67:
	.cfi_endproc
	.section	__TEXT,__gcc_except_tab
	.p2align	2
GCC_except_table67:
Lexception15:
	.byte	255
	.byte	255
	.byte	1
	.uleb128 Lcst_end15-Lcst_begin15
Lcst_begin15:
	.uleb128 Ltmp649-Lfunc_begin67
	.uleb128 Ltmp650-Ltmp649
	.uleb128 Ltmp651-Lfunc_begin67
	.byte	0
	.uleb128 Ltmp650-Lfunc_begin67
	.uleb128 Lfunc_end67-Ltmp650
	.byte	0
	.byte	0
Lcst_end15:
	.p2align	2

	.section	__TEXT,__text,regular,pure_instructions
	.globl	__ZN42_$LT$$RF$T$u20$as$u20$core..fmt..Debug$GT$3fmt17h360afb2bb7890baeE
	.p2align	4, 0x90
__ZN42_$LT$$RF$T$u20$as$u20$core..fmt..Debug$GT$3fmt17h360afb2bb7890baeE:
Lfunc_begin68:
	.file	35 "/rustc/2c8cc343237b8f7d5a3c3703e3a87f2eb2c54a74/library/core/src/fmt" "mod.rs"
	.loc	35 2377 0
	.cfi_startproc
	pushq	%rbp
	.cfi_def_cfa_offset 16
	.cfi_offset %rbp, -16
	movq	%rsp, %rbp
	.cfi_def_cfa_register %rbp
	subq	$16, %rsp
	movq	%rdi, -16(%rbp)
	movq	%rsi, -8(%rbp)
Ltmp666:
	.loc	35 2377 71 prologue_end
	movq	(%rdi), %rdi
	.loc	35 2377 62 is_stmt 0
	callq	__ZN4core3fmt3num49_$LT$impl$u20$core..fmt..Debug$u20$for$u20$u8$GT$3fmt17h53f1d21f54a13ae4E
	.loc	35 2377 84
	andb	$1, %al
	movzbl	%al, %eax
	addq	$16, %rsp
	popq	%rbp
	retq
Ltmp667:
Lfunc_end68:
	.cfi_endproc

	.globl	__ZN42_$LT$$RF$T$u20$as$u20$core..fmt..Debug$GT$3fmt17h37a2baf6f979f5b7E
	.p2align	4, 0x90
__ZN42_$LT$$RF$T$u20$as$u20$core..fmt..Debug$GT$3fmt17h37a2baf6f979f5b7E:
Lfunc_begin69:
	.loc	35 2377 0 is_stmt 1
	.cfi_startproc
	pushq	%rbp
	.cfi_def_cfa_offset 16
	.cfi_offset %rbp, -16
	movq	%rsp, %rbp
	.cfi_def_cfa_register %rbp
	subq	$16, %rsp
	movq	%rdi, -16(%rbp)
	movq	%rsi, -8(%rbp)
Ltmp668:
	.loc	35 2377 71 prologue_end
	movq	(%rdi), %rdi
	.loc	35 2377 62 is_stmt 0
	callq	__ZN71_$LT$core..ops..range..Range$LT$Idx$GT$$u20$as$u20$core..fmt..Debug$GT$3fmt17h17cba63ceff5a9d9E
	.loc	35 2377 84
	andb	$1, %al
	movzbl	%al, %eax
	addq	$16, %rsp
	popq	%rbp
	retq
Ltmp669:
Lfunc_end69:
	.cfi_endproc

	.globl	__ZN42_$LT$$RF$T$u20$as$u20$core..fmt..Debug$GT$3fmt17h42d92d3228fde1deE
	.p2align	4, 0x90
__ZN42_$LT$$RF$T$u20$as$u20$core..fmt..Debug$GT$3fmt17h42d92d3228fde1deE:
Lfunc_begin70:
	.loc	35 2377 0 is_stmt 1
	.cfi_startproc
	pushq	%rbp
	.cfi_def_cfa_offset 16
	.cfi_offset %rbp, -16
	movq	%rsp, %rbp
	.cfi_def_cfa_register %rbp
	subq	$16, %rsp
	movq	%rdi, -16(%rbp)
	movq	%rsi, -8(%rbp)
Ltmp670:
	.loc	35 2377 71 prologue_end
	movq	(%rdi), %rdi
	.loc	35 2377 62 is_stmt 0
	callq	__ZN64_$LT$unicode_bidi..ParagraphInfo$u20$as$u20$core..fmt..Debug$GT$3fmt17hfaba343f330df2cbE
	.loc	35 2377 84
	andb	$1, %al
	movzbl	%al, %eax
	addq	$16, %rsp
	popq	%rbp
	retq
Ltmp671:
Lfunc_end70:
	.cfi_endproc

	.globl	__ZN42_$LT$$RF$T$u20$as$u20$core..fmt..Debug$GT$3fmt17h50a568724f1779f8E
	.p2align	4, 0x90
__ZN42_$LT$$RF$T$u20$as$u20$core..fmt..Debug$GT$3fmt17h50a568724f1779f8E:
Lfunc_begin71:
	.loc	35 2377 0 is_stmt 1
	.cfi_startproc
	pushq	%rbp
	.cfi_def_cfa_offset 16
	.cfi_offset %rbp, -16
	movq	%rsp, %rbp
	.cfi_def_cfa_register %rbp
	subq	$16, %rsp
	movq	%rdi, -16(%rbp)
	movq	%rsi, -8(%rbp)
Ltmp672:
	.loc	35 2377 71 prologue_end
	movq	(%rdi), %rdi
	.loc	35 2377 62 is_stmt 0
	callq	__ZN79_$LT$unicode_bidi..char_data..tables..BidiClass$u20$as$u20$core..fmt..Debug$GT$3fmt17h0ad61259aefbd670E
	.loc	35 2377 84
	andb	$1, %al
	movzbl	%al, %eax
	addq	$16, %rsp
	popq	%rbp
	retq
Ltmp673:
Lfunc_end71:
	.cfi_endproc

	.globl	__ZN42_$LT$$RF$T$u20$as$u20$core..fmt..Debug$GT$3fmt17h54bc583bc0d0977fE
	.p2align	4, 0x90
__ZN42_$LT$$RF$T$u20$as$u20$core..fmt..Debug$GT$3fmt17h54bc583bc0d0977fE:
Lfunc_begin72:
	.loc	35 2377 0 is_stmt 1
	.cfi_startproc
	pushq	%rbp
	.cfi_def_cfa_offset 16
	.cfi_offset %rbp, -16
	movq	%rsp, %rbp
	.cfi_def_cfa_register %rbp
	subq	$16, %rsp
	movq	%rdi, -16(%rbp)
	movq	%rsi, -8(%rbp)
Ltmp674:
	.loc	35 2377 71 prologue_end
	movq	(%rdi), %rdi
	.loc	35 2377 62 is_stmt 0
	callq	__ZN66_$LT$core..option..Option$LT$T$GT$$u20$as$u20$core..fmt..Debug$GT$3fmt17hebf3a72e15224b65E
	.loc	35 2377 84
	andb	$1, %al
	movzbl	%al, %eax
	addq	$16, %rsp
	popq	%rbp
	retq
Ltmp675:
Lfunc_end72:
	.cfi_endproc

	.globl	__ZN42_$LT$$RF$T$u20$as$u20$core..fmt..Debug$GT$3fmt17h59389352c5ecd885E
	.p2align	4, 0x90
__ZN42_$LT$$RF$T$u20$as$u20$core..fmt..Debug$GT$3fmt17h59389352c5ecd885E:
Lfunc_begin73:
	.loc	35 2377 0 is_stmt 1
	.cfi_startproc
	pushq	%rbp
	.cfi_def_cfa_offset 16
	.cfi_offset %rbp, -16
	movq	%rsp, %rbp
	.cfi_def_cfa_register %rbp
	subq	$16, %rsp
	movq	%rdi, -16(%rbp)
	movq	%rsi, -8(%rbp)
Ltmp676:
	.loc	35 2377 71 prologue_end
	movq	(%rdi), %rdi
	.loc	35 2377 62 is_stmt 0
	callq	__ZN42_$LT$$RF$T$u20$as$u20$core..fmt..Debug$GT$3fmt17heb133d3005e3e025E
	.loc	35 2377 84
	andb	$1, %al
	movzbl	%al, %eax
	addq	$16, %rsp
	popq	%rbp
	retq
Ltmp677:
Lfunc_end73:
	.cfi_endproc

	.globl	__ZN42_$LT$$RF$T$u20$as$u20$core..fmt..Debug$GT$3fmt17h82359e996c1715a7E
	.p2align	4, 0x90
__ZN42_$LT$$RF$T$u20$as$u20$core..fmt..Debug$GT$3fmt17h82359e996c1715a7E:
Lfunc_begin74:
	.loc	35 2377 0 is_stmt 1
	.cfi_startproc
	pushq	%rbp
	.cfi_def_cfa_offset 16
	.cfi_offset %rbp, -16
	movq	%rsp, %rbp
	.cfi_def_cfa_register %rbp
	subq	$16, %rsp
	movq	%rdi, -16(%rbp)
	movq	%rsi, -8(%rbp)
Ltmp678:
	.loc	35 2377 71 prologue_end
	movq	(%rdi), %rdi
	.loc	35 2377 62 is_stmt 0
	callq	__ZN4core3fmt3num52_$LT$impl$u20$core..fmt..Debug$u20$for$u20$usize$GT$3fmt17h42542c2692ba0db2E
	.loc	35 2377 84
	andb	$1, %al
	movzbl	%al, %eax
	addq	$16, %rsp
	popq	%rbp
	retq
Ltmp679:
Lfunc_end74:
	.cfi_endproc

	.globl	__ZN42_$LT$$RF$T$u20$as$u20$core..fmt..Debug$GT$3fmt17h9812cba92e8405b9E
	.p2align	4, 0x90
__ZN42_$LT$$RF$T$u20$as$u20$core..fmt..Debug$GT$3fmt17h9812cba92e8405b9E:
Lfunc_begin75:
	.loc	35 2377 0 is_stmt 1
	.cfi_startproc
	pushq	%rbp
	.cfi_def_cfa_offset 16
	.cfi_offset %rbp, -16
	movq	%rsp, %rbp
	.cfi_def_cfa_register %rbp
	subq	$16, %rsp
	movq	%rdi, -16(%rbp)
	movq	%rsi, -8(%rbp)
Ltmp680:
	.loc	35 2377 71 prologue_end
	movq	(%rdi), %rdi
	.loc	35 2377 62 is_stmt 0
	callq	__ZN65_$LT$alloc..vec..Vec$LT$T$C$A$GT$$u20$as$u20$core..fmt..Debug$GT$3fmt17hdb9d7691afc9d9baE
	.loc	35 2377 84
	andb	$1, %al
	movzbl	%al, %eax
	addq	$16, %rsp
	popq	%rbp
	retq
Ltmp681:
Lfunc_end75:
	.cfi_endproc

	.globl	__ZN42_$LT$$RF$T$u20$as$u20$core..fmt..Debug$GT$3fmt17h9e4cb537488ac8faE
	.p2align	4, 0x90
__ZN42_$LT$$RF$T$u20$as$u20$core..fmt..Debug$GT$3fmt17h9e4cb537488ac8faE:
Lfunc_begin76:
	.loc	35 2377 0 is_stmt 1
	.cfi_startproc
	pushq	%rbp
	.cfi_def_cfa_offset 16
	.cfi_offset %rbp, -16
	movq	%rsp, %rbp
	.cfi_def_cfa_register %rbp
	subq	$16, %rsp
	movq	%rdi, -16(%rbp)
	movq	%rsi, -8(%rbp)
Ltmp682:
	.loc	35 2377 71 prologue_end
	movq	(%rdi), %rdi
	.loc	35 2377 62 is_stmt 0
	callq	__ZN65_$LT$alloc..vec..Vec$LT$T$C$A$GT$$u20$as$u20$core..fmt..Debug$GT$3fmt17h402fe5d197bc5e64E
	.loc	35 2377 84
	andb	$1, %al
	movzbl	%al, %eax
	addq	$16, %rsp
	popq	%rbp
	retq
Ltmp683:
Lfunc_end76:
	.cfi_endproc

	.globl	__ZN42_$LT$$RF$T$u20$as$u20$core..fmt..Debug$GT$3fmt17haba14370ab654786E
	.p2align	4, 0x90
__ZN42_$LT$$RF$T$u20$as$u20$core..fmt..Debug$GT$3fmt17haba14370ab654786E:
Lfunc_begin77:
	.loc	35 2377 0 is_stmt 1
	.cfi_startproc
	pushq	%rbp
	.cfi_def_cfa_offset 16
	.cfi_offset %rbp, -16
	movq	%rsp, %rbp
	.cfi_def_cfa_register %rbp
	subq	$16, %rsp
	movq	%rdi, -16(%rbp)
	movq	%rsi, -8(%rbp)
Ltmp684:
	.loc	35 2377 71 prologue_end
	movq	(%rdi), %rdi
	.loc	35 2377 62 is_stmt 0
	callq	__ZN65_$LT$alloc..vec..Vec$LT$T$C$A$GT$$u20$as$u20$core..fmt..Debug$GT$3fmt17h57588aceb66fc097E
	.loc	35 2377 84
	andb	$1, %al
	movzbl	%al, %eax
	addq	$16, %rsp
	popq	%rbp
	retq
Ltmp685:
Lfunc_end77:
	.cfi_endproc

	.globl	__ZN42_$LT$$RF$T$u20$as$u20$core..fmt..Debug$GT$3fmt17haedfe74cf795dbf8E
	.p2align	4, 0x90
__ZN42_$LT$$RF$T$u20$as$u20$core..fmt..Debug$GT$3fmt17haedfe74cf795dbf8E:
Lfunc_begin78:
	.loc	35 2377 0 is_stmt 1
	.cfi_startproc
	pushq	%rbp
	.cfi_def_cfa_offset 16
	.cfi_offset %rbp, -16
	movq	%rsp, %rbp
	.cfi_def_cfa_register %rbp
	subq	$16, %rsp
	movq	%rdi, -16(%rbp)
	movq	%rsi, -8(%rbp)
Ltmp686:
	.loc	35 2377 71 prologue_end
	movq	(%rdi), %rdi
	.loc	35 2377 62 is_stmt 0
	callq	__ZN63_$LT$unicode_bidi..level..Level$u20$as$u20$core..fmt..Debug$GT$3fmt17ha5cfcc1c854c4cebE
	.loc	35 2377 84
	andb	$1, %al
	movzbl	%al, %eax
	addq	$16, %rsp
	popq	%rbp
	retq
Ltmp687:
Lfunc_end78:
	.cfi_endproc

	.globl	__ZN42_$LT$$RF$T$u20$as$u20$core..fmt..Debug$GT$3fmt17hb8bde129aa5ed2eeE
	.p2align	4, 0x90
__ZN42_$LT$$RF$T$u20$as$u20$core..fmt..Debug$GT$3fmt17hb8bde129aa5ed2eeE:
Lfunc_begin79:
	.loc	35 2377 0 is_stmt 1
	.cfi_startproc
	pushq	%rbp
	.cfi_def_cfa_offset 16
	.cfi_offset %rbp, -16
	movq	%rsp, %rbp
	.cfi_def_cfa_register %rbp
	subq	$16, %rsp
	movq	%rdi, -16(%rbp)
	movq	%rsi, -8(%rbp)
Ltmp688:
	.loc	35 2377 71 prologue_end
	movq	(%rdi), %rdi
	.loc	35 2377 62 is_stmt 0
	callq	__ZN42_$LT$$RF$T$u20$as$u20$core..fmt..Debug$GT$3fmt17hfcb4b0e54a26c449E
	.loc	35 2377 84
	andb	$1, %al
	movzbl	%al, %eax
	addq	$16, %rsp
	popq	%rbp
	retq
Ltmp689:
Lfunc_end79:
	.cfi_endproc

	.globl	__ZN42_$LT$$RF$T$u20$as$u20$core..fmt..Debug$GT$3fmt17hde9f9fb959d2f329E
	.p2align	4, 0x90
__ZN42_$LT$$RF$T$u20$as$u20$core..fmt..Debug$GT$3fmt17hde9f9fb959d2f329E:
Lfunc_begin80:
	.loc	35 2377 0 is_stmt 1
	.cfi_startproc
	pushq	%rbp
	.cfi_def_cfa_offset 16
	.cfi_offset %rbp, -16
	movq	%rsp, %rbp
	.cfi_def_cfa_register %rbp
	subq	$16, %rsp
	movq	%rdi, -16(%rbp)
	movq	%rsi, -8(%rbp)
Ltmp690:
	.loc	35 2377 71 prologue_end
	movq	(%rdi), %rdi
	.loc	35 2377 62 is_stmt 0
	callq	__ZN65_$LT$alloc..vec..Vec$LT$T$C$A$GT$$u20$as$u20$core..fmt..Debug$GT$3fmt17hc79b77ca972fc00dE
	.loc	35 2377 84
	andb	$1, %al
	movzbl	%al, %eax
	addq	$16, %rsp
	popq	%rbp
	retq
Ltmp691:
Lfunc_end80:
	.cfi_endproc

	.globl	__ZN42_$LT$$RF$T$u20$as$u20$core..fmt..Debug$GT$3fmt17heb133d3005e3e025E
	.p2align	4, 0x90
__ZN42_$LT$$RF$T$u20$as$u20$core..fmt..Debug$GT$3fmt17heb133d3005e3e025E:
Lfunc_begin81:
	.loc	35 2377 0 is_stmt 1
	.cfi_startproc
	pushq	%rbp
	.cfi_def_cfa_offset 16
	.cfi_offset %rbp, -16
	movq	%rsp, %rbp
	.cfi_def_cfa_register %rbp
	subq	$16, %rsp
	movq	%rsi, %rdx
	movq	%rdi, %rax
	movq	%rax, -16(%rbp)
	movq	%rdx, -8(%rbp)
Ltmp692:
	.loc	35 2377 71 prologue_end
	movq	(%rax), %rdi
	movq	8(%rax), %rsi
	.loc	35 2377 62 is_stmt 0
	callq	__ZN40_$LT$str$u20$as$u20$core..fmt..Debug$GT$3fmt17h4564f13343f2ac60E
	.loc	35 2377 84
	andb	$1, %al
	movzbl	%al, %eax
	addq	$16, %rsp
	popq	%rbp
	retq
Ltmp693:
Lfunc_end81:
	.cfi_endproc

	.globl	__ZN42_$LT$$RF$T$u20$as$u20$core..fmt..Debug$GT$3fmt17hef7bfa6f9e632bb4E
	.p2align	4, 0x90
__ZN42_$LT$$RF$T$u20$as$u20$core..fmt..Debug$GT$3fmt17hef7bfa6f9e632bb4E:
Lfunc_begin82:
	.loc	35 2377 0 is_stmt 1
	.cfi_startproc
	pushq	%rbp
	.cfi_def_cfa_offset 16
	.cfi_offset %rbp, -16
	movq	%rsp, %rbp
	.cfi_def_cfa_register %rbp
	subq	$16, %rsp
	movq	%rdi, -16(%rbp)
	movq	%rsi, -8(%rbp)
Ltmp694:
	.loc	35 2377 71 prologue_end
	movq	(%rdi), %rdi
	.loc	35 2377 62 is_stmt 0
	callq	__ZN42_$LT$$RF$T$u20$as$u20$core..fmt..Debug$GT$3fmt17h42d92d3228fde1deE
	.loc	35 2377 84
	andb	$1, %al
	movzbl	%al, %eax
	addq	$16, %rsp
	popq	%rbp
	retq
Ltmp695:
Lfunc_end82:
	.cfi_endproc

	.globl	__ZN42_$LT$$RF$T$u20$as$u20$core..fmt..Debug$GT$3fmt17hfcb4b0e54a26c449E
	.p2align	4, 0x90
__ZN42_$LT$$RF$T$u20$as$u20$core..fmt..Debug$GT$3fmt17hfcb4b0e54a26c449E:
Lfunc_begin83:
	.loc	35 2377 0 is_stmt 1
	.cfi_startproc
	pushq	%rbp
	.cfi_def_cfa_offset 16
	.cfi_offset %rbp, -16
	movq	%rsp, %rbp
	.cfi_def_cfa_register %rbp
	subq	$16, %rsp
	movq	%rdi, -16(%rbp)
	movq	%rsi, -8(%rbp)
Ltmp696:
	.loc	35 2377 71 prologue_end
	movq	(%rdi), %rdi
	.loc	35 2377 62 is_stmt 0
	callq	__ZN59_$LT$unicode_bidi..BidiInfo$u20$as$u20$core..fmt..Debug$GT$3fmt17h2846d4ee16e3e65aE
	.loc	35 2377 84
	andb	$1, %al
	movzbl	%al, %eax
	addq	$16, %rsp
	popq	%rbp
	retq
Ltmp697:
Lfunc_end83:
	.cfi_endproc

	.globl	__ZN48_$LT$$u5b$T$u5d$$u20$as$u20$core..fmt..Debug$GT$3fmt17h5c78fbe196fe58d9E
	.p2align	4, 0x90
__ZN48_$LT$$u5b$T$u5d$$u20$as$u20$core..fmt..Debug$GT$3fmt17h5c78fbe196fe58d9E:
Lfunc_begin84:
	.loc	35 2602 0 is_stmt 1
	.cfi_startproc
	pushq	%rbp
	.cfi_def_cfa_offset 16
	.cfi_offset %rbp, -16
	movq	%rsp, %rbp
	.cfi_def_cfa_register %rbp
	subq	$80, %rsp
	movq	%rdx, -80(%rbp)
	movq	%rsi, %rax
	movq	-80(%rbp), %rsi
	movq	%rdi, -72(%rbp)
	movq	%rax, -64(%rbp)
	movq	%rdi, -40(%rbp)
	movq	%rax, -32(%rbp)
	movq	%rsi, -24(%rbp)
Ltmp698:
	.loc	35 2603 9 prologue_end
	leaq	-56(%rbp), %rdi
	callq	__ZN4core3fmt9Formatter10debug_list17hc648f6f2ff865c45E
	movq	-72(%rbp), %rdi
	movq	-64(%rbp), %rsi
	.loc	35 2603 32 is_stmt 0
	movq	%rdi, -16(%rbp)
	movq	%rsi, -8(%rbp)
Ltmp699:
	.file	36 "/rustc/2c8cc343237b8f7d5a3c3703e3a87f2eb2c54a74/library/core/src/slice" "mod.rs"
	.loc	36 742 9 is_stmt 1
	callq	__ZN4core5slice4iter13Iter$LT$T$GT$3new17hb79206445bbcf3b5E
	movq	%rax, %rsi
Ltmp700:
	.loc	35 2603 9
	leaq	-56(%rbp), %rdi
	callq	__ZN4core3fmt8builders9DebugList7entries17h046f3decaa05ea28E
	movq	%rax, %rdi
	callq	__ZN4core3fmt8builders9DebugList6finish17hed399f470c25b4b2E
	.loc	35 2604 6
	andb	$1, %al
	movzbl	%al, %eax
	addq	$80, %rsp
	popq	%rbp
	retq
Ltmp701:
Lfunc_end84:
	.cfi_endproc

	.globl	__ZN48_$LT$$u5b$T$u5d$$u20$as$u20$core..fmt..Debug$GT$3fmt17hc77e9c9885137734E
	.p2align	4, 0x90
__ZN48_$LT$$u5b$T$u5d$$u20$as$u20$core..fmt..Debug$GT$3fmt17hc77e9c9885137734E:
Lfunc_begin85:
	.loc	35 2602 0
	.cfi_startproc
	pushq	%rbp
	.cfi_def_cfa_offset 16
	.cfi_offset %rbp, -16
	movq	%rsp, %rbp
	.cfi_def_cfa_register %rbp
	subq	$80, %rsp
	movq	%rdx, -80(%rbp)
	movq	%rsi, %rax
	movq	-80(%rbp), %rsi
	movq	%rdi, -72(%rbp)
	movq	%rax, -64(%rbp)
	movq	%rdi, -40(%rbp)
	movq	%rax, -32(%rbp)
	movq	%rsi, -24(%rbp)
Ltmp702:
	.loc	35 2603 9 prologue_end
	leaq	-56(%rbp), %rdi
	callq	__ZN4core3fmt9Formatter10debug_list17hc648f6f2ff865c45E
	movq	-72(%rbp), %rdi
	movq	-64(%rbp), %rsi
	.loc	35 2603 32 is_stmt 0
	movq	%rdi, -16(%rbp)
	movq	%rsi, -8(%rbp)
Ltmp703:
	.loc	36 742 9 is_stmt 1
	callq	__ZN4core5slice4iter13Iter$LT$T$GT$3new17h71bf55369ddae291E
	movq	%rax, %rsi
Ltmp704:
	.loc	35 2603 9
	leaq	-56(%rbp), %rdi
	callq	__ZN4core3fmt8builders9DebugList7entries17h1535d9e45bd22e96E
	movq	%rax, %rdi
	callq	__ZN4core3fmt8builders9DebugList6finish17hed399f470c25b4b2E
	.loc	35 2604 6
	andb	$1, %al
	movzbl	%al, %eax
	addq	$80, %rsp
	popq	%rbp
	retq
Ltmp705:
Lfunc_end85:
	.cfi_endproc

	.globl	__ZN48_$LT$$u5b$T$u5d$$u20$as$u20$core..fmt..Debug$GT$3fmt17hebdd6ad960806147E
	.p2align	4, 0x90
__ZN48_$LT$$u5b$T$u5d$$u20$as$u20$core..fmt..Debug$GT$3fmt17hebdd6ad960806147E:
Lfunc_begin86:
	.loc	35 2602 0
	.cfi_startproc
	pushq	%rbp
	.cfi_def_cfa_offset 16
	.cfi_offset %rbp, -16
	movq	%rsp, %rbp
	.cfi_def_cfa_register %rbp
	subq	$80, %rsp
	movq	%rdx, -80(%rbp)
	movq	%rsi, %rax
	movq	-80(%rbp), %rsi
	movq	%rdi, -72(%rbp)
	movq	%rax, -64(%rbp)
	movq	%rdi, -40(%rbp)
	movq	%rax, -32(%rbp)
	movq	%rsi, -24(%rbp)
Ltmp706:
	.loc	35 2603 9 prologue_end
	leaq	-56(%rbp), %rdi
	callq	__ZN4core3fmt9Formatter10debug_list17hc648f6f2ff865c45E
	movq	-72(%rbp), %rdi
	movq	-64(%rbp), %rsi
	.loc	35 2603 32 is_stmt 0
	movq	%rdi, -16(%rbp)
	movq	%rsi, -8(%rbp)
Ltmp707:
	.loc	36 742 9 is_stmt 1
	callq	__ZN4core5slice4iter13Iter$LT$T$GT$3new17hdf22b524fefbbaefE
	movq	%rax, %rsi
Ltmp708:
	.loc	35 2603 9
	leaq	-56(%rbp), %rdi
	callq	__ZN4core3fmt8builders9DebugList7entries17h9610fd3b843c15acE
	movq	%rax, %rdi
	callq	__ZN4core3fmt8builders9DebugList6finish17hed399f470c25b4b2E
	.loc	35 2604 6
	andb	$1, %al
	movzbl	%al, %eax
	addq	$80, %rsp
	popq	%rbp
	retq
Ltmp709:
Lfunc_end86:
	.cfi_endproc

	.globl	__ZN48_$LT$$u5b$T$u5d$$u20$as$u20$core..fmt..Debug$GT$3fmt17hf32281a9c47bd479E
	.p2align	4, 0x90
__ZN48_$LT$$u5b$T$u5d$$u20$as$u20$core..fmt..Debug$GT$3fmt17hf32281a9c47bd479E:
Lfunc_begin87:
	.loc	35 2602 0
	.cfi_startproc
	pushq	%rbp
	.cfi_def_cfa_offset 16
	.cfi_offset %rbp, -16
	movq	%rsp, %rbp
	.cfi_def_cfa_register %rbp
	subq	$80, %rsp
	movq	%rdx, -80(%rbp)
	movq	%rsi, %rax
	movq	-80(%rbp), %rsi
	movq	%rdi, -72(%rbp)
	movq	%rax, -64(%rbp)
	movq	%rdi, -40(%rbp)
	movq	%rax, -32(%rbp)
	movq	%rsi, -24(%rbp)
Ltmp710:
	.loc	35 2603 9 prologue_end
	leaq	-56(%rbp), %rdi
	callq	__ZN4core3fmt9Formatter10debug_list17hc648f6f2ff865c45E
	movq	-72(%rbp), %rdi
	movq	-64(%rbp), %rsi
	.loc	35 2603 32 is_stmt 0
	movq	%rdi, -16(%rbp)
	movq	%rsi, -8(%rbp)
Ltmp711:
	.loc	36 742 9 is_stmt 1
	callq	__ZN4core5slice4iter13Iter$LT$T$GT$3new17h4a29b3d759dd5d4cE
	movq	%rax, %rsi
Ltmp712:
	.loc	35 2603 9
	leaq	-56(%rbp), %rdi
	callq	__ZN4core3fmt8builders9DebugList7entries17h8fadb309c87f4e16E
	movq	%rax, %rdi
	callq	__ZN4core3fmt8builders9DebugList6finish17hed399f470c25b4b2E
	.loc	35 2604 6
	andb	$1, %al
	movzbl	%al, %eax
	addq	$80, %rsp
	popq	%rbp
	retq
Ltmp713:
Lfunc_end87:
	.cfi_endproc

	.p2align	4, 0x90
__ZN49_$LT$usize$u20$as$u20$core..iter..range..Step$GT$13steps_between17h457a0ea08a5976c3E:
Lfunc_begin88:
	.file	37 "/rustc/2c8cc343237b8f7d5a3c3703e3a87f2eb2c54a74/library/core/src/iter" "range.rs"
	.loc	37 242 0
	.cfi_startproc
	pushq	%rbp
	.cfi_def_cfa_offset 16
	.cfi_offset %rbp, -16
	movq	%rsp, %rbp
	.cfi_def_cfa_register %rbp
	subq	$48, %rsp
	movq	%rdi, -48(%rbp)
	movq	%rsi, -40(%rbp)
	movq	%rdi, -16(%rbp)
	movq	%rsi, -8(%rbp)
Ltmp714:
	.loc	37 243 24 prologue_end
	movq	(%rdi), %rax
	cmpq	(%rsi), %rax
	jbe	LBB88_2
	.loc	37 247 25
	movq	$0, -32(%rbp)
	.loc	37 243 21
	jmp	LBB88_3
LBB88_2:
	.loc	37 0 21 is_stmt 0
	movq	-48(%rbp), %rcx
	movq	-40(%rbp), %rax
	.loc	37 245 31 is_stmt 1
	movq	(%rax), %rax
	.loc	37 245 30 is_stmt 0
	subq	(%rcx), %rax
	.loc	37 245 25
	movq	%rax, -24(%rbp)
	movq	$1, -32(%rbp)
LBB88_3:
	.loc	37 249 18 is_stmt 1
	movq	-32(%rbp), %rax
	movq	-24(%rbp), %rdx
	addq	$48, %rsp
	popq	%rbp
	retq
Ltmp715:
Lfunc_end88:
	.cfi_endproc

	.p2align	4, 0x90
__ZN49_$LT$usize$u20$as$u20$core..iter..range..Step$GT$17forward_unchecked17h066552bced6664f7E:
Lfunc_begin89:
	.loc	37 189 0
	.cfi_startproc
	pushq	%rbp
	.cfi_def_cfa_offset 16
	.cfi_offset %rbp, -16
	movq	%rsp, %rbp
	.cfi_def_cfa_register %rbp
	subq	$40, %rsp
	movq	%rdi, -40(%rbp)
	movq	%rsi, -32(%rbp)
Ltmp716:
	.loc	37 191 22 prologue_end
	movq	%rdi, -24(%rbp)
	.loc	37 191 42 is_stmt 0
	movq	%rsi, -16(%rbp)
Ltmp717:
	.loc	14 470 22 is_stmt 1
	addq	%rsi, %rdi
	movq	%rdi, -8(%rbp)
	movq	-8(%rbp), %rax
Ltmp718:
	.loc	37 192 10
	addq	$40, %rsp
	popq	%rbp
	retq
Ltmp719:
Lfunc_end89:
	.cfi_endproc

	.globl	__ZN4core3cmp10PartialOrd2ge17h4bf59be5a2ef0b73E
	.p2align	4, 0x90
__ZN4core3cmp10PartialOrd2ge17h4bf59be5a2ef0b73E:
Lfunc_begin90:
	.loc	4 1152 0
	.cfi_startproc
	pushq	%rbp
	.cfi_def_cfa_offset 16
	.cfi_offset %rbp, -16
	movq	%rsp, %rbp
	.cfi_def_cfa_register %rbp
	subq	$32, %rsp
	movq	%rdi, -16(%rbp)
	movq	%rsi, -8(%rbp)
Ltmp720:
	.loc	4 1153 18 prologue_end
	callq	__ZN68_$LT$unicode_bidi..level..Level$u20$as$u20$core..cmp..PartialOrd$GT$11partial_cmp17ha62479e7c1b5ed8cE
	movb	%al, -17(%rbp)
	movl	$1, %eax
	xorl	%ecx, %ecx
	cmpb	$2, -17(%rbp)
	cmoveq	%rcx, %rax
	.loc	4 1153 9 is_stmt 0
	cmpq	$1, %rax
	jne	LBB90_2
	.loc	4 1153 18
	movb	-17(%rbp), %al
	.loc	4 1153 9
	subb	$2, %al
	jb	LBB90_3
	jmp	LBB90_2
LBB90_2:
	movb	$0, -18(%rbp)
	jmp	LBB90_4
LBB90_3:
	movb	$1, -18(%rbp)
LBB90_4:
	.loc	4 1154 6 is_stmt 1
	movb	-18(%rbp), %al
	andb	$1, %al
	movzbl	%al, %eax
	addq	$32, %rsp
	popq	%rbp
	retq
Ltmp721:
Lfunc_end90:
	.cfi_endproc

	.globl	__ZN4core3cmp10PartialOrd2lt17hc756fd4485b1895aE
	.p2align	4, 0x90
__ZN4core3cmp10PartialOrd2lt17hc756fd4485b1895aE:
Lfunc_begin91:
	.loc	4 1096 0
	.cfi_startproc
	pushq	%rbp
	.cfi_def_cfa_offset 16
	.cfi_offset %rbp, -16
	movq	%rsp, %rbp
	.cfi_def_cfa_register %rbp
	subq	$32, %rsp
	movq	%rdi, -16(%rbp)
	movq	%rsi, -8(%rbp)
Ltmp722:
	.loc	4 1097 18 prologue_end
	callq	__ZN68_$LT$unicode_bidi..level..Level$u20$as$u20$core..cmp..PartialOrd$GT$11partial_cmp17ha62479e7c1b5ed8cE
	movb	%al, -17(%rbp)
	movl	$1, %eax
	xorl	%ecx, %ecx
	cmpb	$2, -17(%rbp)
	cmoveq	%rcx, %rax
	.loc	4 1097 9 is_stmt 0
	cmpq	$1, %rax
	jne	LBB91_2
	cmpb	$-1, -17(%rbp)
	je	LBB91_3
LBB91_2:
	movb	$0, -18(%rbp)
	jmp	LBB91_4
LBB91_3:
	movb	$1, -18(%rbp)
LBB91_4:
	.loc	4 1098 6 is_stmt 1
	movb	-18(%rbp), %al
	andb	$1, %al
	movzbl	%al, %eax
	addq	$32, %rsp
	popq	%rbp
	retq
Ltmp723:
Lfunc_end91:
	.cfi_endproc

	.globl	__ZN4core3cmp3Ord3max17h7f41e959f069f2e8E
	.p2align	4, 0x90
__ZN4core3cmp3Ord3max17h7f41e959f069f2e8E:
Lfunc_begin92:
	.loc	4 796 0
	.cfi_startproc
	pushq	%rbp
	.cfi_def_cfa_offset 16
	.cfi_offset %rbp, -16
	movq	%rsp, %rbp
	.cfi_def_cfa_register %rbp
	subq	$16, %rsp
	movb	%sil, %al
	movb	%dil, %cl
	movb	%cl, -2(%rbp)
	movb	%al, -1(%rbp)
Ltmp724:
	.loc	4 803 13 prologue_end
	movzbl	%cl, %edi
	movzbl	%al, %esi
	callq	__ZN4core3cmp6max_by17hbf0258cd1ffdac86E
	.loc	4 811 6
	addq	$16, %rsp
	popq	%rbp
	retq
Ltmp725:
Lfunc_end92:
	.cfi_endproc

	.globl	__ZN4core3cmp3Ord3min17hdaa1104e2366a0dfE
	.p2align	4, 0x90
__ZN4core3cmp3Ord3min17hdaa1104e2366a0dfE:
Lfunc_begin93:
	.loc	4 826 0
	.cfi_startproc
	pushq	%rbp
	.cfi_def_cfa_offset 16
	.cfi_offset %rbp, -16
	movq	%rsp, %rbp
	.cfi_def_cfa_register %rbp
	subq	$16, %rsp
	movb	%sil, %al
	movb	%dil, %cl
	movb	%cl, -2(%rbp)
	movb	%al, -1(%rbp)
Ltmp726:
	.loc	4 833 13 prologue_end
	movzbl	%cl, %edi
	movzbl	%al, %esi
	callq	__ZN4core3cmp6min_by17hc66e700a64762744E
	.loc	4 841 6
	addq	$16, %rsp
	popq	%rbp
	retq
Ltmp727:
Lfunc_end93:
	.cfi_endproc

	.globl	__ZN4core3cmp3max17h92bd4582e5a609baE
	.p2align	4, 0x90
__ZN4core3cmp3max17h92bd4582e5a609baE:
Lfunc_begin94:
	.loc	4 1275 0
	.cfi_startproc
	pushq	%rbp
	.cfi_def_cfa_offset 16
	.cfi_offset %rbp, -16
	movq	%rsp, %rbp
	.cfi_def_cfa_register %rbp
	subq	$16, %rsp
	movb	%sil, %al
	movb	%dil, %cl
	movb	%cl, -2(%rbp)
	movb	%al, -1(%rbp)
Ltmp728:
	.loc	4 1276 5 prologue_end
	movzbl	%cl, %edi
	movzbl	%al, %esi
	callq	__ZN4core3cmp3Ord3max17h7f41e959f069f2e8E
	.loc	4 1277 2
	addq	$16, %rsp
	popq	%rbp
	retq
Ltmp729:
Lfunc_end94:
	.cfi_endproc

	.globl	__ZN4core3cmp3min17h6aa5b57d4836adb4E
	.p2align	4, 0x90
__ZN4core3cmp3min17h6aa5b57d4836adb4E:
Lfunc_begin95:
	.loc	4 1184 0
	.cfi_startproc
	pushq	%rbp
	.cfi_def_cfa_offset 16
	.cfi_offset %rbp, -16
	movq	%rsp, %rbp
	.cfi_def_cfa_register %rbp
	subq	$16, %rsp
	movb	%sil, %al
	movb	%dil, %cl
	movb	%cl, -2(%rbp)
	movb	%al, -1(%rbp)
Ltmp730:
	.loc	4 1185 5 prologue_end
	movzbl	%cl, %edi
	movzbl	%al, %esi
	callq	__ZN4core3cmp3Ord3min17hdaa1104e2366a0dfE
	.loc	4 1186 2
	addq	$16, %rsp
	popq	%rbp
	retq
Ltmp731:
Lfunc_end95:
	.cfi_endproc

	.p2align	4, 0x90
__ZN4core3cmp5impls47_$LT$impl$u20$core..cmp..Ord$u20$for$u20$u8$GT$3cmp17h2baf01e4a4b27c4bE:
Lfunc_begin96:
	.loc	4 1454 0
	.cfi_startproc
	pushq	%rbp
	.cfi_def_cfa_offset 16
	.cfi_offset %rbp, -16
	movq	%rsp, %rbp
	.cfi_def_cfa_register %rbp
	subq	$40, %rsp
	movq	%rdi, -40(%rbp)
	movq	%rsi, -32(%rbp)
	movq	%rdi, -16(%rbp)
	movq	%rsi, -8(%rbp)
Ltmp732:
	.loc	4 1457 24 prologue_end
	movb	(%rdi), %al
	cmpb	(%rsi), %al
	jb	LBB96_2
	.loc	4 0 24 is_stmt 0
	movq	-32(%rbp), %rcx
	movq	-40(%rbp), %rax
	.loc	4 1458 29 is_stmt 1
	movb	(%rax), %al
	cmpb	(%rcx), %al
	je	LBB96_5
	jmp	LBB96_4
LBB96_2:
	.loc	4 1457 41
	movb	$-1, -17(%rbp)
LBB96_3:
	.loc	4 1460 18
	movb	-17(%rbp), %al
	addq	$40, %rsp
	popq	%rbp
	retq
LBB96_4:
	.loc	4 1459 28
	movb	$1, -17(%rbp)
	.loc	4 1458 26
	jmp	LBB96_6
LBB96_5:
	.loc	4 1458 47 is_stmt 0
	movb	$0, -17(%rbp)
LBB96_6:
	.loc	4 1457 21 is_stmt 1
	jmp	LBB96_3
Ltmp733:
Lfunc_end96:
	.cfi_endproc

	.p2align	4, 0x90
__ZN4core3cmp5impls50_$LT$impl$u20$core..cmp..Ord$u20$for$u20$usize$GT$3cmp17hac6e4a94b7a19ef1E:
Lfunc_begin97:
	.loc	4 1454 0
	.cfi_startproc
	pushq	%rbp
	.cfi_def_cfa_offset 16
	.cfi_offset %rbp, -16
	movq	%rsp, %rbp
	.cfi_def_cfa_register %rbp
	subq	$40, %rsp
	movq	%rdi, -40(%rbp)
	movq	%rsi, -32(%rbp)
	movq	%rdi, -16(%rbp)
	movq	%rsi, -8(%rbp)
Ltmp734:
	.loc	4 1457 24 prologue_end
	movq	(%rdi), %rax
	cmpq	(%rsi), %rax
	jb	LBB97_2
	.loc	4 0 24 is_stmt 0
	movq	-32(%rbp), %rcx
	movq	-40(%rbp), %rax
	.loc	4 1458 29 is_stmt 1
	movq	(%rax), %rax
	cmpq	(%rcx), %rax
	je	LBB97_5
	jmp	LBB97_4
LBB97_2:
	.loc	4 1457 41
	movb	$-1, -17(%rbp)
LBB97_3:
	.loc	4 1460 18
	movb	-17(%rbp), %al
	addq	$40, %rsp
	popq	%rbp
	retq
LBB97_4:
	.loc	4 1459 28
	movb	$1, -17(%rbp)
	.loc	4 1458 26
	jmp	LBB97_6
LBB97_5:
	.loc	4 1458 47 is_stmt 0
	movb	$0, -17(%rbp)
LBB97_6:
	.loc	4 1457 21 is_stmt 1
	jmp	LBB97_3
Ltmp735:
Lfunc_end97:
	.cfi_endproc

	.p2align	4, 0x90
__ZN4core3cmp5impls54_$LT$impl$u20$core..cmp..PartialOrd$u20$for$u20$u8$GT$11partial_cmp17hd2a7b8390ff5ddb0E:
Lfunc_begin98:
	.loc	4 1437 0
	.cfi_startproc
	pushq	%rbp
	.cfi_def_cfa_offset 16
	.cfi_offset %rbp, -16
	movq	%rsp, %rbp
	.cfi_def_cfa_register %rbp
	subq	$56, %rsp
	movq	%rdi, -56(%rbp)
	movq	%rsi, -48(%rbp)
	movq	%rdi, -32(%rbp)
	movq	%rsi, -24(%rbp)
Ltmp736:
	.loc	4 1438 26 prologue_end
	movq	%rdi, -16(%rbp)
	.loc	4 1438 35 is_stmt 0
	movq	%rsi, -8(%rbp)
Ltmp737:
	.loc	4 1457 24 is_stmt 1
	movb	(%rdi), %al
	cmpb	(%rsi), %al
	jb	LBB98_2
	.loc	4 0 24 is_stmt 0
	movq	-48(%rbp), %rcx
	movq	-56(%rbp), %rax
	.loc	4 1458 29 is_stmt 1
	movb	(%rax), %al
	cmpb	(%rcx), %al
	je	LBB98_5
	jmp	LBB98_4
LBB98_2:
	.loc	4 1457 41
	movb	$-1, -33(%rbp)
Ltmp738:
LBB98_3:
	.loc	4 1438 21
	movb	-33(%rbp), %al
	movb	%al, -34(%rbp)
	.loc	4 1439 18
	movb	-34(%rbp), %al
	addq	$56, %rsp
	popq	%rbp
	retq
LBB98_4:
Ltmp739:
	.loc	4 1459 28
	movb	$1, -33(%rbp)
	.loc	4 1458 26
	jmp	LBB98_6
LBB98_5:
	.loc	4 1458 47 is_stmt 0
	movb	$0, -33(%rbp)
LBB98_6:
	.loc	4 1457 21 is_stmt 1
	jmp	LBB98_3
Ltmp740:
Lfunc_end98:
	.cfi_endproc

	.p2align	4, 0x90
__ZN4core3cmp5impls56_$LT$impl$u20$core..cmp..PartialEq$u20$for$u20$usize$GT$2eq17h5df00ffc65d8adc3E:
Lfunc_begin99:
	.loc	4 1352 0
	.cfi_startproc
	pushq	%rbp
	.cfi_def_cfa_offset 16
	.cfi_offset %rbp, -16
	movq	%rsp, %rbp
	.cfi_def_cfa_register %rbp
	subq	$16, %rsp
	movq	%rdi, -16(%rbp)
	movq	%rsi, -8(%rbp)
Ltmp741:
	.loc	4 1352 52 prologue_end
	movq	(%rdi), %rax
	cmpq	(%rsi), %rax
	sete	%al
	.loc	4 1352 73 is_stmt 0
	andb	$1, %al
	movzbl	%al, %eax
	addq	$16, %rsp
	popq	%rbp
	retq
Ltmp742:
Lfunc_end99:
	.cfi_endproc

	.p2align	4, 0x90
__ZN4core3cmp5impls57_$LT$impl$u20$core..cmp..PartialOrd$u20$for$u20$usize$GT$2lt17h3ff4bf94f6f9a012E:
Lfunc_begin100:
	.loc	4 1441 0 is_stmt 1
	.cfi_startproc
	pushq	%rbp
	.cfi_def_cfa_offset 16
	.cfi_offset %rbp, -16
	movq	%rsp, %rbp
	.cfi_def_cfa_register %rbp
	subq	$16, %rsp
	movq	%rdi, -16(%rbp)
	movq	%rsi, -8(%rbp)
Ltmp743:
	.loc	4 1441 52 prologue_end
	movq	(%rdi), %rax
	cmpq	(%rsi), %rax
	setb	%al
	.loc	4 1441 72 is_stmt 0
	andb	$1, %al
	movzbl	%al, %eax
	addq	$16, %rsp
	popq	%rbp
	retq
Ltmp744:
Lfunc_end100:
	.cfi_endproc

	.globl	__ZN4core3cmp6max_by17h094e7d56a89e8de4E
	.p2align	4, 0x90
__ZN4core3cmp6max_by17h094e7d56a89e8de4E:
Lfunc_begin101:
	.loc	4 1295 0 is_stmt 1
	.cfi_startproc
	.cfi_personality 155, _rust_eh_personality
	.cfi_lsda 16, Lexception16
	pushq	%rbp
	.cfi_def_cfa_offset 16
	.cfi_offset %rbp, -16
	movq	%rsp, %rbp
	.cfi_def_cfa_register %rbp
	subq	$96, %rsp
	movq	%rdi, -80(%rbp)
	movq	%rsi, -72(%rbp)
Ltmp748:
	.loc	4 1300 11 prologue_end
	movb	$1, -25(%rbp)
	movb	$1, -26(%rbp)
	leaq	-80(%rbp), %rax
	movq	%rax, -48(%rbp)
	leaq	-72(%rbp), %rax
	movq	%rax, -40(%rbp)
	movq	-48(%rbp), %rdi
	movq	-40(%rbp), %rsi
Ltmp745:
	callq	__ZN4core3ops8function6FnOnce9call_once17h331c7ffa33a4fe54E
Ltmp746:
	movb	%al, -81(%rbp)
	jmp	LBB101_3
LBB101_1:
	.loc	4 1304 1
	jmp	LBB101_4
LBB101_2:
Ltmp747:
	.loc	4 0 1 is_stmt 0
	movq	%rax, %rcx
	movl	%edx, %eax
	movq	%rcx, -16(%rbp)
	movl	%eax, -8(%rbp)
	jmp	LBB101_1
LBB101_3:
	movb	-81(%rbp), %al
	.loc	4 1300 11 is_stmt 1
	movb	%al, -49(%rbp)
	movb	-49(%rbp), %al
	.loc	4 1300 5 is_stmt 0
	incb	%al
	subb	$2, %al
	jb	LBB101_6
	jmp	LBB101_15
LBB101_15:
	jmp	LBB101_7
LBB101_4:
	.loc	4 1304 1 is_stmt 1
	testb	$1, -25(%rbp)
	jne	LBB101_12
	jmp	LBB101_11
	.loc	4 1300 11
	ud2
LBB101_6:
	.loc	4 1301 45
	movb	$0, -26(%rbp)
	movq	-72(%rbp), %rax
	movq	%rax, -64(%rbp)
	jmp	LBB101_8
LBB101_7:
	.loc	4 1302 30
	movb	$0, -25(%rbp)
	movq	-80(%rbp), %rax
	movq	%rax, -64(%rbp)
LBB101_8:
	.loc	4 1304 1
	testb	$1, -26(%rbp)
	jne	LBB101_10
LBB101_9:
	testb	$1, -25(%rbp)
	jne	LBB101_14
	jmp	LBB101_13
LBB101_10:
	jmp	LBB101_9
LBB101_11:
	.loc	4 1295 1
	movq	-16(%rbp), %rdi
	callq	__Unwind_Resume
LBB101_12:
	.loc	4 1304 1
	jmp	LBB101_11
LBB101_13:
	.loc	4 1304 2 is_stmt 0
	movq	-64(%rbp), %rax
	addq	$96, %rsp
	popq	%rbp
	retq
LBB101_14:
	.loc	4 1304 1
	jmp	LBB101_13
Ltmp749:
Lfunc_end101:
	.cfi_endproc
	.section	__TEXT,__gcc_except_tab
	.p2align	2
GCC_except_table101:
Lexception16:
	.byte	255
	.byte	255
	.byte	1
	.uleb128 Lcst_end16-Lcst_begin16
Lcst_begin16:
	.uleb128 Ltmp745-Lfunc_begin101
	.uleb128 Ltmp746-Ltmp745
	.uleb128 Ltmp747-Lfunc_begin101
	.byte	0
	.uleb128 Ltmp746-Lfunc_begin101
	.uleb128 Lfunc_end101-Ltmp746
	.byte	0
	.byte	0
Lcst_end16:
	.p2align	2

	.section	__TEXT,__text,regular,pure_instructions
	.globl	__ZN4core3cmp6max_by17hbf0258cd1ffdac86E
	.p2align	4, 0x90
__ZN4core3cmp6max_by17hbf0258cd1ffdac86E:
Lfunc_begin102:
	.loc	4 1295 0 is_stmt 1
	.cfi_startproc
	.cfi_personality 155, _rust_eh_personality
	.cfi_lsda 16, Lexception17
	pushq	%rbp
	.cfi_def_cfa_offset 16
	.cfi_offset %rbp, -16
	movq	%rsp, %rbp
	.cfi_def_cfa_register %rbp
	subq	$64, %rsp
	movb	%sil, %al
	movb	%dil, %cl
	movb	%cl, -52(%rbp)
	movb	%al, -51(%rbp)
Ltmp753:
	.loc	4 1300 11 prologue_end
	movb	$1, -25(%rbp)
	movb	$1, -26(%rbp)
	leaq	-52(%rbp), %rax
	movq	%rax, -48(%rbp)
	leaq	-51(%rbp), %rax
	movq	%rax, -40(%rbp)
	movq	-48(%rbp), %rdi
	movq	-40(%rbp), %rsi
Ltmp750:
	callq	__ZN4core3ops8function6FnOnce9call_once17heffc216d000c13a1E
Ltmp751:
	movb	%al, -53(%rbp)
	jmp	LBB102_3
LBB102_1:
	.loc	4 1304 1
	jmp	LBB102_4
LBB102_2:
Ltmp752:
	.loc	4 0 1 is_stmt 0
	movq	%rax, %rcx
	movl	%edx, %eax
	movq	%rcx, -16(%rbp)
	movl	%eax, -8(%rbp)
	jmp	LBB102_1
LBB102_3:
	movb	-53(%rbp), %al
	.loc	4 1300 11 is_stmt 1
	movb	%al, -49(%rbp)
	movb	-49(%rbp), %al
	.loc	4 1300 5 is_stmt 0
	incb	%al
	subb	$2, %al
	jb	LBB102_6
	jmp	LBB102_15
LBB102_15:
	jmp	LBB102_7
LBB102_4:
	.loc	4 1304 1 is_stmt 1
	testb	$1, -25(%rbp)
	jne	LBB102_12
	jmp	LBB102_11
	.loc	4 1300 11
	ud2
LBB102_6:
	.loc	4 1301 45
	movb	$0, -26(%rbp)
	movb	-51(%rbp), %al
	movb	%al, -50(%rbp)
	jmp	LBB102_8
LBB102_7:
	.loc	4 1302 30
	movb	$0, -25(%rbp)
	movb	-52(%rbp), %al
	movb	%al, -50(%rbp)
LBB102_8:
	.loc	4 1304 1
	testb	$1, -26(%rbp)
	jne	LBB102_10
LBB102_9:
	testb	$1, -25(%rbp)
	jne	LBB102_14
	jmp	LBB102_13
LBB102_10:
	jmp	LBB102_9
LBB102_11:
	.loc	4 1295 1
	movq	-16(%rbp), %rdi
	callq	__Unwind_Resume
LBB102_12:
	.loc	4 1304 1
	jmp	LBB102_11
LBB102_13:
	.loc	4 1304 2 is_stmt 0
	movb	-50(%rbp), %al
	addq	$64, %rsp
	popq	%rbp
	retq
LBB102_14:
	.loc	4 1304 1
	jmp	LBB102_13
Ltmp754:
Lfunc_end102:
	.cfi_endproc
	.section	__TEXT,__gcc_except_tab
	.p2align	2
GCC_except_table102:
Lexception17:
	.byte	255
	.byte	255
	.byte	1
	.uleb128 Lcst_end17-Lcst_begin17
Lcst_begin17:
	.uleb128 Ltmp750-Lfunc_begin102
	.uleb128 Ltmp751-Ltmp750
	.uleb128 Ltmp752-Lfunc_begin102
	.byte	0
	.uleb128 Ltmp751-Lfunc_begin102
	.uleb128 Lfunc_end102-Ltmp751
	.byte	0
	.byte	0
Lcst_end17:
	.p2align	2

	.section	__TEXT,__text,regular,pure_instructions
	.globl	__ZN4core3cmp6min_by17hafed8255140713f1E
	.p2align	4, 0x90
__ZN4core3cmp6min_by17hafed8255140713f1E:
Lfunc_begin103:
	.loc	4 1204 0 is_stmt 1
	.cfi_startproc
	.cfi_personality 155, _rust_eh_personality
	.cfi_lsda 16, Lexception18
	pushq	%rbp
	.cfi_def_cfa_offset 16
	.cfi_offset %rbp, -16
	movq	%rsp, %rbp
	.cfi_def_cfa_register %rbp
	subq	$96, %rsp
	movq	%rdi, -80(%rbp)
	movq	%rsi, -72(%rbp)
Ltmp758:
	.loc	4 1209 11 prologue_end
	movb	$1, -25(%rbp)
	movb	$1, -26(%rbp)
	leaq	-80(%rbp), %rax
	movq	%rax, -48(%rbp)
	leaq	-72(%rbp), %rax
	movq	%rax, -40(%rbp)
	movq	-48(%rbp), %rdi
	movq	-40(%rbp), %rsi
Ltmp755:
	callq	__ZN4core3ops8function6FnOnce9call_once17h331c7ffa33a4fe54E
Ltmp756:
	movb	%al, -81(%rbp)
	jmp	LBB103_3
LBB103_1:
	.loc	4 1213 1
	jmp	LBB103_4
LBB103_2:
Ltmp757:
	.loc	4 0 1 is_stmt 0
	movq	%rax, %rcx
	movl	%edx, %eax
	movq	%rcx, -16(%rbp)
	movl	%eax, -8(%rbp)
	jmp	LBB103_1
LBB103_3:
	movb	-81(%rbp), %al
	.loc	4 1209 11 is_stmt 1
	movb	%al, -49(%rbp)
	movb	-49(%rbp), %al
	.loc	4 1209 5 is_stmt 0
	incb	%al
	subb	$2, %al
	jb	LBB103_6
	jmp	LBB103_15
LBB103_15:
	jmp	LBB103_7
LBB103_4:
	.loc	4 1213 1 is_stmt 1
	testb	$1, -25(%rbp)
	jne	LBB103_12
	jmp	LBB103_11
	.loc	4 1209 11
	ud2
LBB103_6:
	.loc	4 1210 45
	movb	$0, -25(%rbp)
	movq	-80(%rbp), %rax
	movq	%rax, -64(%rbp)
	jmp	LBB103_8
LBB103_7:
	.loc	4 1211 30
	movb	$0, -26(%rbp)
	movq	-72(%rbp), %rax
	movq	%rax, -64(%rbp)
LBB103_8:
	.loc	4 1213 1
	testb	$1, -26(%rbp)
	jne	LBB103_10
LBB103_9:
	testb	$1, -25(%rbp)
	jne	LBB103_14
	jmp	LBB103_13
LBB103_10:
	jmp	LBB103_9
LBB103_11:
	.loc	4 1204 1
	movq	-16(%rbp), %rdi
	callq	__Unwind_Resume
LBB103_12:
	.loc	4 1213 1
	jmp	LBB103_11
LBB103_13:
	.loc	4 1213 2 is_stmt 0
	movq	-64(%rbp), %rax
	addq	$96, %rsp
	popq	%rbp
	retq
LBB103_14:
	.loc	4 1213 1
	jmp	LBB103_13
Ltmp759:
Lfunc_end103:
	.cfi_endproc
	.section	__TEXT,__gcc_except_tab
	.p2align	2
GCC_except_table103:
Lexception18:
	.byte	255
	.byte	255
	.byte	1
	.uleb128 Lcst_end18-Lcst_begin18
Lcst_begin18:
	.uleb128 Ltmp755-Lfunc_begin103
	.uleb128 Ltmp756-Ltmp755
	.uleb128 Ltmp757-Lfunc_begin103
	.byte	0
	.uleb128 Ltmp756-Lfunc_begin103
	.uleb128 Lfunc_end103-Ltmp756
	.byte	0
	.byte	0
Lcst_end18:
	.p2align	2

	.section	__TEXT,__text,regular,pure_instructions
	.globl	__ZN4core3cmp6min_by17hc66e700a64762744E
	.p2align	4, 0x90
__ZN4core3cmp6min_by17hc66e700a64762744E:
Lfunc_begin104:
	.loc	4 1204 0 is_stmt 1
	.cfi_startproc
	.cfi_personality 155, _rust_eh_personality
	.cfi_lsda 16, Lexception19
	pushq	%rbp
	.cfi_def_cfa_offset 16
	.cfi_offset %rbp, -16
	movq	%rsp, %rbp
	.cfi_def_cfa_register %rbp
	subq	$64, %rsp
	movb	%sil, %al
	movb	%dil, %cl
	movb	%cl, -52(%rbp)
	movb	%al, -51(%rbp)
Ltmp763:
	.loc	4 1209 11 prologue_end
	movb	$1, -25(%rbp)
	movb	$1, -26(%rbp)
	leaq	-52(%rbp), %rax
	movq	%rax, -48(%rbp)
	leaq	-51(%rbp), %rax
	movq	%rax, -40(%rbp)
	movq	-48(%rbp), %rdi
	movq	-40(%rbp), %rsi
Ltmp760:
	callq	__ZN4core3ops8function6FnOnce9call_once17heffc216d000c13a1E
Ltmp761:
	movb	%al, -53(%rbp)
	jmp	LBB104_3
LBB104_1:
	.loc	4 1213 1
	jmp	LBB104_4
LBB104_2:
Ltmp762:
	.loc	4 0 1 is_stmt 0
	movq	%rax, %rcx
	movl	%edx, %eax
	movq	%rcx, -16(%rbp)
	movl	%eax, -8(%rbp)
	jmp	LBB104_1
LBB104_3:
	movb	-53(%rbp), %al
	.loc	4 1209 11 is_stmt 1
	movb	%al, -49(%rbp)
	movb	-49(%rbp), %al
	.loc	4 1209 5 is_stmt 0
	incb	%al
	subb	$2, %al
	jb	LBB104_6
	jmp	LBB104_15
LBB104_15:
	jmp	LBB104_7
LBB104_4:
	.loc	4 1213 1 is_stmt 1
	testb	$1, -25(%rbp)
	jne	LBB104_12
	jmp	LBB104_11
	.loc	4 1209 11
	ud2
LBB104_6:
	.loc	4 1210 45
	movb	$0, -25(%rbp)
	movb	-52(%rbp), %al
	movb	%al, -50(%rbp)
	jmp	LBB104_8
LBB104_7:
	.loc	4 1211 30
	movb	$0, -26(%rbp)
	movb	-51(%rbp), %al
	movb	%al, -50(%rbp)
LBB104_8:
	.loc	4 1213 1
	testb	$1, -26(%rbp)
	jne	LBB104_10
LBB104_9:
	testb	$1, -25(%rbp)
	jne	LBB104_14
	jmp	LBB104_13
LBB104_10:
	jmp	LBB104_9
LBB104_11:
	.loc	4 1204 1
	movq	-16(%rbp), %rdi
	callq	__Unwind_Resume
LBB104_12:
	.loc	4 1213 1
	jmp	LBB104_11
LBB104_13:
	.loc	4 1213 2 is_stmt 0
	movb	-50(%rbp), %al
	addq	$64, %rsp
	popq	%rbp
	retq
LBB104_14:
	.loc	4 1213 1
	jmp	LBB104_13
Ltmp764:
Lfunc_end104:
	.cfi_endproc
	.section	__TEXT,__gcc_except_tab
	.p2align	2
GCC_except_table104:
Lexception19:
	.byte	255
	.byte	255
	.byte	1
	.uleb128 Lcst_end19-Lcst_begin19
Lcst_begin19:
	.uleb128 Ltmp760-Lfunc_begin104
	.uleb128 Ltmp761-Ltmp760
	.uleb128 Ltmp762-Lfunc_begin104
	.byte	0
	.uleb128 Ltmp761-Lfunc_begin104
	.uleb128 Lfunc_end104-Ltmp761
	.byte	0
	.byte	0
Lcst_end19:
	.p2align	2

	.section	__TEXT,__text,regular,pure_instructions
	.globl	__ZN4core3cmp9PartialEq2ne17h10a003b115582a7cE
	.p2align	4, 0x90
__ZN4core3cmp9PartialEq2ne17h10a003b115582a7cE:
Lfunc_begin105:
	.loc	4 227 0 is_stmt 1
	.cfi_startproc
	pushq	%rbp
	.cfi_def_cfa_offset 16
	.cfi_offset %rbp, -16
	movq	%rsp, %rbp
	.cfi_def_cfa_register %rbp
	subq	$16, %rsp
	movq	%rdi, -16(%rbp)
	movq	%rsi, -8(%rbp)
Ltmp765:
	.loc	4 228 10 prologue_end
	callq	__ZN67_$LT$unicode_bidi..level..Level$u20$as$u20$core..cmp..PartialEq$GT$2eq17h4e32e6e4c1c26a74E
	.loc	4 228 9 is_stmt 0
	xorb	$-1, %al
	.loc	4 229 6 is_stmt 1
	andb	$1, %al
	movzbl	%al, %eax
	addq	$16, %rsp
	popq	%rbp
	retq
Ltmp766:
Lfunc_end105:
	.cfi_endproc

	.globl	__ZN4core3cmp9PartialEq2ne17h3ee9f5f47f3b44a7E
	.p2align	4, 0x90
__ZN4core3cmp9PartialEq2ne17h3ee9f5f47f3b44a7E:
Lfunc_begin106:
	.loc	4 227 0
	.cfi_startproc
	pushq	%rbp
	.cfi_def_cfa_offset 16
	.cfi_offset %rbp, -16
	movq	%rsp, %rbp
	.cfi_def_cfa_register %rbp
	subq	$16, %rsp
	movq	%rdi, -16(%rbp)
	movq	%rsi, -8(%rbp)
Ltmp767:
	.loc	4 228 10 prologue_end
	callq	__ZN83_$LT$unicode_bidi..char_data..tables..BidiClass$u20$as$u20$core..cmp..PartialEq$GT$2eq17he88b091f748c0767E
	.loc	4 228 9 is_stmt 0
	xorb	$-1, %al
	.loc	4 229 6 is_stmt 1
	andb	$1, %al
	movzbl	%al, %eax
	addq	$16, %rsp
	popq	%rbp
	retq
Ltmp768:
Lfunc_end106:
	.cfi_endproc

	.globl	__ZN4core3cmp9PartialEq2ne17hcc269dedb0c3d930E
	.p2align	4, 0x90
__ZN4core3cmp9PartialEq2ne17hcc269dedb0c3d930E:
Lfunc_begin107:
	.loc	4 227 0
	.cfi_startproc
	pushq	%rbp
	.cfi_def_cfa_offset 16
	.cfi_offset %rbp, -16
	movq	%rsp, %rbp
	.cfi_def_cfa_register %rbp
	subq	$16, %rsp
	movq	%rdi, -16(%rbp)
	movq	%rsi, -8(%rbp)
Ltmp769:
	.loc	4 228 10 prologue_end
	callq	__ZN79_$LT$unicode_bidi..explicit..OverrideStatus$u20$as$u20$core..cmp..PartialEq$GT$2eq17hbb858c4ae6d38554E
	.loc	4 228 9 is_stmt 0
	xorb	$-1, %al
	.loc	4 229 6 is_stmt 1
	andb	$1, %al
	movzbl	%al, %eax
	addq	$16, %rsp
	popq	%rbp
	retq
Ltmp770:
Lfunc_end107:
	.cfi_endproc

	.p2align	4, 0x90
__ZN4core3fmt3num49_$LT$impl$u20$core..fmt..Debug$u20$for$u20$u8$GT$3fmt17h53f1d21f54a13ae4E:
Lfunc_begin108:
	.file	38 "/rustc/2c8cc343237b8f7d5a3c3703e3a87f2eb2c54a74/library/core/src/fmt" "num.rs"
	.loc	38 185 0
	.cfi_startproc
	pushq	%rbp
	.cfi_def_cfa_offset 16
	.cfi_offset %rbp, -16
	movq	%rsp, %rbp
	.cfi_def_cfa_register %rbp
	subq	$48, %rsp
	movq	%rsi, -48(%rbp)
	movq	%rdi, %rax
	movq	-48(%rbp), %rdi
	movq	%rax, -40(%rbp)
	movq	%rdi, -32(%rbp)
	movq	%rax, -16(%rbp)
	movq	%rdi, -8(%rbp)
Ltmp771:
	.loc	38 186 20 prologue_end
	callq	__ZN4core3fmt9Formatter15debug_lower_hex17h0921e6b9188d914eE
	testb	$1, %al
	jne	LBB108_2
	.loc	38 0 20 is_stmt 0
	movq	-32(%rbp), %rdi
	.loc	38 188 27 is_stmt 1
	callq	__ZN4core3fmt9Formatter15debug_upper_hex17h8ce487049a6cccf8E
	testb	$1, %al
	jne	LBB108_5
	jmp	LBB108_4
LBB108_2:
	.loc	38 0 27 is_stmt 0
	movq	-32(%rbp), %rsi
	movq	-40(%rbp), %rdi
	.loc	38 187 21 is_stmt 1
	callq	__ZN4core3fmt3num52_$LT$impl$u20$core..fmt..LowerHex$u20$for$u20$u8$GT$3fmt17h5cfdcd8eebabca5eE
	andb	$1, %al
	movb	%al, -17(%rbp)
LBB108_3:
	.loc	38 193 14
	movb	-17(%rbp), %al
	andb	$1, %al
	movzbl	%al, %eax
	addq	$48, %rsp
	popq	%rbp
	retq
LBB108_4:
	.loc	38 0 14 is_stmt 0
	movq	-32(%rbp), %rsi
	movq	-40(%rbp), %rdi
	.loc	38 191 21 is_stmt 1
	callq	__ZN4core3fmt3num3imp51_$LT$impl$u20$core..fmt..Display$u20$for$u20$u8$GT$3fmt17he2a0798a745fb926E
	andb	$1, %al
	movb	%al, -17(%rbp)
	.loc	38 188 24
	jmp	LBB108_6
LBB108_5:
	.loc	38 0 24 is_stmt 0
	movq	-32(%rbp), %rsi
	movq	-40(%rbp), %rdi
	.loc	38 189 21 is_stmt 1
	callq	__ZN4core3fmt3num52_$LT$impl$u20$core..fmt..UpperHex$u20$for$u20$u8$GT$3fmt17h0d44eda8e53b13dbE
	andb	$1, %al
	movb	%al, -17(%rbp)
LBB108_6:
	.loc	38 186 17
	jmp	LBB108_3
Ltmp772:
Lfunc_end108:
	.cfi_endproc

	.p2align	4, 0x90
__ZN4core3fmt3num52_$LT$impl$u20$core..fmt..Debug$u20$for$u20$usize$GT$3fmt17h42542c2692ba0db2E:
Lfunc_begin109:
	.loc	38 185 0
	.cfi_startproc
	pushq	%rbp
	.cfi_def_cfa_offset 16
	.cfi_offset %rbp, -16
	movq	%rsp, %rbp
	.cfi_def_cfa_register %rbp
	subq	$48, %rsp
	movq	%rsi, -48(%rbp)
	movq	%rdi, %rax
	movq	-48(%rbp), %rdi
	movq	%rax, -40(%rbp)
	movq	%rdi, -32(%rbp)
	movq	%rax, -16(%rbp)
	movq	%rdi, -8(%rbp)
Ltmp773:
	.loc	38 186 20 prologue_end
	callq	__ZN4core3fmt9Formatter15debug_lower_hex17h0921e6b9188d914eE
	testb	$1, %al
	jne	LBB109_2
	.loc	38 0 20 is_stmt 0
	movq	-32(%rbp), %rdi
	.loc	38 188 27 is_stmt 1
	callq	__ZN4core3fmt9Formatter15debug_upper_hex17h8ce487049a6cccf8E
	testb	$1, %al
	jne	LBB109_5
	jmp	LBB109_4
LBB109_2:
	.loc	38 0 27 is_stmt 0
	movq	-32(%rbp), %rsi
	movq	-40(%rbp), %rdi
	.loc	38 187 21 is_stmt 1
	callq	__ZN4core3fmt3num55_$LT$impl$u20$core..fmt..LowerHex$u20$for$u20$usize$GT$3fmt17h84f349805fe63f8dE
	andb	$1, %al
	movb	%al, -17(%rbp)
LBB109_3:
	.loc	38 193 14
	movb	-17(%rbp), %al
	andb	$1, %al
	movzbl	%al, %eax
	addq	$48, %rsp
	popq	%rbp
	retq
LBB109_4:
	.loc	38 0 14 is_stmt 0
	movq	-32(%rbp), %rsi
	movq	-40(%rbp), %rdi
	.loc	38 191 21 is_stmt 1
	callq	__ZN4core3fmt3num3imp54_$LT$impl$u20$core..fmt..Display$u20$for$u20$usize$GT$3fmt17ha5c925fcd7ed33faE
	andb	$1, %al
	movb	%al, -17(%rbp)
	.loc	38 188 24
	jmp	LBB109_6
LBB109_5:
	.loc	38 0 24 is_stmt 0
	movq	-32(%rbp), %rsi
	movq	-40(%rbp), %rdi
	.loc	38 189 21 is_stmt 1
	callq	__ZN4core3fmt3num55_$LT$impl$u20$core..fmt..UpperHex$u20$for$u20$usize$GT$3fmt17h49aa717311edc293E
	andb	$1, %al
	movb	%al, -17(%rbp)
LBB109_6:
	.loc	38 186 17
	jmp	LBB109_3
Ltmp774:
Lfunc_end109:
	.cfi_endproc

	.globl	__ZN4core3fmt8builders9DebugList7entries17h046f3decaa05ea28E
	.p2align	4, 0x90
__ZN4core3fmt8builders9DebugList7entries17h046f3decaa05ea28E:
Lfunc_begin110:
	.file	39 "/rustc/2c8cc343237b8f7d5a3c3703e3a87f2eb2c54a74/library/core/src/fmt" "builders.rs"
	.loc	39 627 0
	.cfi_startproc
	.cfi_personality 155, _rust_eh_personality
	.cfi_lsda 16, Lexception20
	pushq	%rbp
	.cfi_def_cfa_offset 16
	.cfi_offset %rbp, -16
	movq	%rsp, %rbp
	.cfi_def_cfa_register %rbp
	subq	$112, %rsp
	movq	%rdx, -96(%rbp)
	movq	%rsi, %rax
	movq	-96(%rbp), %rsi
	movq	%rax, -88(%rbp)
	movq	%rdi, %rax
	movq	-88(%rbp), %rdi
	movq	%rax, -80(%rbp)
	movq	%rax, -40(%rbp)
	movq	%rdi, -32(%rbp)
	movq	%rsi, -24(%rbp)
Ltmp781:
	.loc	39 632 22 prologue_end
	callq	__ZN63_$LT$I$u20$as$u20$core..iter..traits..collect..IntoIterator$GT$9into_iter17ha35d74e74ea34c7aE
	movq	%rax, -72(%rbp)
	movq	%rdx, -64(%rbp)
LBB110_1:
Ltmp775:
	.loc	39 0 22 is_stmt 0
	leaq	-72(%rbp), %rdi
Ltmp782:
	.loc	39 632 22
	callq	__ZN91_$LT$core..slice..iter..Iter$LT$T$GT$$u20$as$u20$core..iter..traits..iterator..Iterator$GT$4next17h39f23fdcfe9210aaE
Ltmp776:
	movq	%rax, -104(%rbp)
	jmp	LBB110_4
Ltmp783:
LBB110_2:
	.loc	39 627 5 is_stmt 1
	movq	-16(%rbp), %rdi
	callq	__Unwind_Resume
LBB110_3:
Ltmp777:
	.loc	39 0 5 is_stmt 0
	movq	%rax, %rcx
	movl	%edx, %eax
	movq	%rcx, -16(%rbp)
	movl	%eax, -8(%rbp)
	jmp	LBB110_2
LBB110_4:
	movq	-104(%rbp), %rax
Ltmp784:
	.loc	39 632 22 is_stmt 1
	movq	%rax, -56(%rbp)
	movq	-56(%rbp), %rdx
	movl	$1, %eax
	xorl	%ecx, %ecx
	cmpq	$0, %rdx
	cmoveq	%rcx, %rax
	cmpq	$0, %rax
	jne	LBB110_6
Ltmp785:
	.loc	39 0 22 is_stmt 0
	movq	-80(%rbp), %rax
	.loc	39 636 6 is_stmt 1
	addq	$112, %rsp
	popq	%rbp
	retq
LBB110_6:
	.loc	39 0 6 is_stmt 0
	movq	-80(%rbp), %rdi
Ltmp786:
	.loc	39 632 13 is_stmt 1
	movq	-56(%rbp), %rax
	movq	%rax, -48(%rbp)
Ltmp778:
Ltmp787:
	.loc	39 633 13
	leaq	l___unnamed_1(%rip), %rdx
	leaq	-48(%rbp), %rsi
	callq	__ZN4core3fmt8builders9DebugList5entry17h90e9fab3d6cede22E
Ltmp779:
	jmp	LBB110_9
Ltmp788:
LBB110_7:
	.loc	39 634 9
	jmp	LBB110_2
LBB110_8:
Ltmp780:
	.loc	39 0 9 is_stmt 0
	movq	%rax, %rcx
	movl	%edx, %eax
	movq	%rcx, -16(%rbp)
	movl	%eax, -8(%rbp)
	jmp	LBB110_7
LBB110_9:
	.loc	39 634 9
	jmp	LBB110_10
LBB110_10:
	.loc	39 632 9 is_stmt 1
	jmp	LBB110_1
Ltmp789:
Lfunc_end110:
	.cfi_endproc
	.section	__TEXT,__gcc_except_tab
	.p2align	2
GCC_except_table110:
Lexception20:
	.byte	255
	.byte	255
	.byte	1
	.uleb128 Lcst_end20-Lcst_begin20
Lcst_begin20:
	.uleb128 Lfunc_begin110-Lfunc_begin110
	.uleb128 Ltmp775-Lfunc_begin110
	.byte	0
	.byte	0
	.uleb128 Ltmp775-Lfunc_begin110
	.uleb128 Ltmp776-Ltmp775
	.uleb128 Ltmp777-Lfunc_begin110
	.byte	0
	.uleb128 Ltmp776-Lfunc_begin110
	.uleb128 Ltmp778-Ltmp776
	.byte	0
	.byte	0
	.uleb128 Ltmp778-Lfunc_begin110
	.uleb128 Ltmp779-Ltmp778
	.uleb128 Ltmp780-Lfunc_begin110
	.byte	0
Lcst_end20:
	.p2align	2

	.section	__TEXT,__text,regular,pure_instructions
	.globl	__ZN4core3fmt8builders9DebugList7entries17h1535d9e45bd22e96E
	.p2align	4, 0x90
__ZN4core3fmt8builders9DebugList7entries17h1535d9e45bd22e96E:
Lfunc_begin111:
	.loc	39 627 0
	.cfi_startproc
	.cfi_personality 155, _rust_eh_personality
	.cfi_lsda 16, Lexception21
	pushq	%rbp
	.cfi_def_cfa_offset 16
	.cfi_offset %rbp, -16
	movq	%rsp, %rbp
	.cfi_def_cfa_register %rbp
	subq	$112, %rsp
	movq	%rdx, -96(%rbp)
	movq	%rsi, %rax
	movq	-96(%rbp), %rsi
	movq	%rax, -88(%rbp)
	movq	%rdi, %rax
	movq	-88(%rbp), %rdi
	movq	%rax, -80(%rbp)
	movq	%rax, -40(%rbp)
	movq	%rdi, -32(%rbp)
	movq	%rsi, -24(%rbp)
Ltmp796:
	.loc	39 632 22 prologue_end
	callq	__ZN63_$LT$I$u20$as$u20$core..iter..traits..collect..IntoIterator$GT$9into_iter17h392ca70fe3cee298E
	movq	%rax, -72(%rbp)
	movq	%rdx, -64(%rbp)
LBB111_1:
Ltmp790:
	.loc	39 0 22 is_stmt 0
	leaq	-72(%rbp), %rdi
Ltmp797:
	.loc	39 632 22
	callq	__ZN91_$LT$core..slice..iter..Iter$LT$T$GT$$u20$as$u20$core..iter..traits..iterator..Iterator$GT$4next17h06b27fc4fb9e4e9dE
Ltmp791:
	movq	%rax, -104(%rbp)
	jmp	LBB111_4
Ltmp798:
LBB111_2:
	.loc	39 627 5 is_stmt 1
	movq	-16(%rbp), %rdi
	callq	__Unwind_Resume
LBB111_3:
Ltmp792:
	.loc	39 0 5 is_stmt 0
	movq	%rax, %rcx
	movl	%edx, %eax
	movq	%rcx, -16(%rbp)
	movl	%eax, -8(%rbp)
	jmp	LBB111_2
LBB111_4:
	movq	-104(%rbp), %rax
Ltmp799:
	.loc	39 632 22 is_stmt 1
	movq	%rax, -56(%rbp)
	movq	-56(%rbp), %rdx
	movl	$1, %eax
	xorl	%ecx, %ecx
	cmpq	$0, %rdx
	cmoveq	%rcx, %rax
	cmpq	$0, %rax
	jne	LBB111_6
Ltmp800:
	.loc	39 0 22 is_stmt 0
	movq	-80(%rbp), %rax
	.loc	39 636 6 is_stmt 1
	addq	$112, %rsp
	popq	%rbp
	retq
LBB111_6:
	.loc	39 0 6 is_stmt 0
	movq	-80(%rbp), %rdi
Ltmp801:
	.loc	39 632 13 is_stmt 1
	movq	-56(%rbp), %rax
	movq	%rax, -48(%rbp)
Ltmp793:
Ltmp802:
	.loc	39 633 13
	leaq	l___unnamed_2(%rip), %rdx
	leaq	-48(%rbp), %rsi
	callq	__ZN4core3fmt8builders9DebugList5entry17h90e9fab3d6cede22E
Ltmp794:
	jmp	LBB111_9
Ltmp803:
LBB111_7:
	.loc	39 634 9
	jmp	LBB111_2
LBB111_8:
Ltmp795:
	.loc	39 0 9 is_stmt 0
	movq	%rax, %rcx
	movl	%edx, %eax
	movq	%rcx, -16(%rbp)
	movl	%eax, -8(%rbp)
	jmp	LBB111_7
LBB111_9:
	.loc	39 634 9
	jmp	LBB111_10
LBB111_10:
	.loc	39 632 9 is_stmt 1
	jmp	LBB111_1
Ltmp804:
Lfunc_end111:
	.cfi_endproc
	.section	__TEXT,__gcc_except_tab
	.p2align	2
GCC_except_table111:
Lexception21:
	.byte	255
	.byte	255
	.byte	1
	.uleb128 Lcst_end21-Lcst_begin21
Lcst_begin21:
	.uleb128 Lfunc_begin111-Lfunc_begin111
	.uleb128 Ltmp790-Lfunc_begin111
	.byte	0
	.byte	0
	.uleb128 Ltmp790-Lfunc_begin111
	.uleb128 Ltmp791-Ltmp790
	.uleb128 Ltmp792-Lfunc_begin111
	.byte	0
	.uleb128 Ltmp791-Lfunc_begin111
	.uleb128 Ltmp793-Ltmp791
	.byte	0
	.byte	0
	.uleb128 Ltmp793-Lfunc_begin111
	.uleb128 Ltmp794-Ltmp793
	.uleb128 Ltmp795-Lfunc_begin111
	.byte	0
Lcst_end21:
	.p2align	2

	.section	__TEXT,__text,regular,pure_instructions
	.globl	__ZN4core3fmt8builders9DebugList7entries17h8fadb309c87f4e16E
	.p2align	4, 0x90
__ZN4core3fmt8builders9DebugList7entries17h8fadb309c87f4e16E:
Lfunc_begin112:
	.loc	39 627 0
	.cfi_startproc
	.cfi_personality 155, _rust_eh_personality
	.cfi_lsda 16, Lexception22
	pushq	%rbp
	.cfi_def_cfa_offset 16
	.cfi_offset %rbp, -16
	movq	%rsp, %rbp
	.cfi_def_cfa_register %rbp
	subq	$112, %rsp
	movq	%rdx, -96(%rbp)
	movq	%rsi, %rax
	movq	-96(%rbp), %rsi
	movq	%rax, -88(%rbp)
	movq	%rdi, %rax
	movq	-88(%rbp), %rdi
	movq	%rax, -80(%rbp)
	movq	%rax, -40(%rbp)
	movq	%rdi, -32(%rbp)
	movq	%rsi, -24(%rbp)
Ltmp811:
	.loc	39 632 22 prologue_end
	callq	__ZN63_$LT$I$u20$as$u20$core..iter..traits..collect..IntoIterator$GT$9into_iter17h909b76f9f6f7ef08E
	movq	%rax, -72(%rbp)
	movq	%rdx, -64(%rbp)
LBB112_1:
Ltmp805:
	.loc	39 0 22 is_stmt 0
	leaq	-72(%rbp), %rdi
Ltmp812:
	.loc	39 632 22
	callq	__ZN91_$LT$core..slice..iter..Iter$LT$T$GT$$u20$as$u20$core..iter..traits..iterator..Iterator$GT$4next17h5b3c64d51146799bE
Ltmp806:
	movq	%rax, -104(%rbp)
	jmp	LBB112_4
Ltmp813:
LBB112_2:
	.loc	39 627 5 is_stmt 1
	movq	-16(%rbp), %rdi
	callq	__Unwind_Resume
LBB112_3:
Ltmp807:
	.loc	39 0 5 is_stmt 0
	movq	%rax, %rcx
	movl	%edx, %eax
	movq	%rcx, -16(%rbp)
	movl	%eax, -8(%rbp)
	jmp	LBB112_2
LBB112_4:
	movq	-104(%rbp), %rax
Ltmp814:
	.loc	39 632 22 is_stmt 1
	movq	%rax, -56(%rbp)
	movq	-56(%rbp), %rdx
	movl	$1, %eax
	xorl	%ecx, %ecx
	cmpq	$0, %rdx
	cmoveq	%rcx, %rax
	cmpq	$0, %rax
	jne	LBB112_6
Ltmp815:
	.loc	39 0 22 is_stmt 0
	movq	-80(%rbp), %rax
	.loc	39 636 6 is_stmt 1
	addq	$112, %rsp
	popq	%rbp
	retq
LBB112_6:
	.loc	39 0 6 is_stmt 0
	movq	-80(%rbp), %rdi
Ltmp816:
	.loc	39 632 13 is_stmt 1
	movq	-56(%rbp), %rax
	movq	%rax, -48(%rbp)
Ltmp808:
Ltmp817:
	.loc	39 633 13
	leaq	l___unnamed_3(%rip), %rdx
	leaq	-48(%rbp), %rsi
	callq	__ZN4core3fmt8builders9DebugList5entry17h90e9fab3d6cede22E
Ltmp809:
	jmp	LBB112_9
Ltmp818:
LBB112_7:
	.loc	39 634 9
	jmp	LBB112_2
LBB112_8:
Ltmp810:
	.loc	39 0 9 is_stmt 0
	movq	%rax, %rcx
	movl	%edx, %eax
	movq	%rcx, -16(%rbp)
	movl	%eax, -8(%rbp)
	jmp	LBB112_7
LBB112_9:
	.loc	39 634 9
	jmp	LBB112_10
LBB112_10:
	.loc	39 632 9 is_stmt 1
	jmp	LBB112_1
Ltmp819:
Lfunc_end112:
	.cfi_endproc
	.section	__TEXT,__gcc_except_tab
	.p2align	2
GCC_except_table112:
Lexception22:
	.byte	255
	.byte	255
	.byte	1
	.uleb128 Lcst_end22-Lcst_begin22
Lcst_begin22:
	.uleb128 Lfunc_begin112-Lfunc_begin112
	.uleb128 Ltmp805-Lfunc_begin112
	.byte	0
	.byte	0
	.uleb128 Ltmp805-Lfunc_begin112
	.uleb128 Ltmp806-Ltmp805
	.uleb128 Ltmp807-Lfunc_begin112
	.byte	0
	.uleb128 Ltmp806-Lfunc_begin112
	.uleb128 Ltmp808-Ltmp806
	.byte	0
	.byte	0
	.uleb128 Ltmp808-Lfunc_begin112
	.uleb128 Ltmp809-Ltmp808
	.uleb128 Ltmp810-Lfunc_begin112
	.byte	0
Lcst_end22:
	.p2align	2

	.section	__TEXT,__text,regular,pure_instructions
	.globl	__ZN4core3fmt8builders9DebugList7entries17h9610fd3b843c15acE
	.p2align	4, 0x90
__ZN4core3fmt8builders9DebugList7entries17h9610fd3b843c15acE:
Lfunc_begin113:
	.loc	39 627 0
	.cfi_startproc
	.cfi_personality 155, _rust_eh_personality
	.cfi_lsda 16, Lexception23
	pushq	%rbp
	.cfi_def_cfa_offset 16
	.cfi_offset %rbp, -16
	movq	%rsp, %rbp
	.cfi_def_cfa_register %rbp
	subq	$112, %rsp
	movq	%rdx, -96(%rbp)
	movq	%rsi, %rax
	movq	-96(%rbp), %rsi
	movq	%rax, -88(%rbp)
	movq	%rdi, %rax
	movq	-88(%rbp), %rdi
	movq	%rax, -80(%rbp)
	movq	%rax, -40(%rbp)
	movq	%rdi, -32(%rbp)
	movq	%rsi, -24(%rbp)
Ltmp826:
	.loc	39 632 22 prologue_end
	callq	__ZN63_$LT$I$u20$as$u20$core..iter..traits..collect..IntoIterator$GT$9into_iter17he51af27eac026a43E
	movq	%rax, -72(%rbp)
	movq	%rdx, -64(%rbp)
LBB113_1:
Ltmp820:
	.loc	39 0 22 is_stmt 0
	leaq	-72(%rbp), %rdi
Ltmp827:
	.loc	39 632 22
	callq	__ZN91_$LT$core..slice..iter..Iter$LT$T$GT$$u20$as$u20$core..iter..traits..iterator..Iterator$GT$4next17hfcf52a89f34828daE
Ltmp821:
	movq	%rax, -104(%rbp)
	jmp	LBB113_4
Ltmp828:
LBB113_2:
	.loc	39 627 5 is_stmt 1
	movq	-16(%rbp), %rdi
	callq	__Unwind_Resume
LBB113_3:
Ltmp822:
	.loc	39 0 5 is_stmt 0
	movq	%rax, %rcx
	movl	%edx, %eax
	movq	%rcx, -16(%rbp)
	movl	%eax, -8(%rbp)
	jmp	LBB113_2
LBB113_4:
	movq	-104(%rbp), %rax
Ltmp829:
	.loc	39 632 22 is_stmt 1
	movq	%rax, -56(%rbp)
	movq	-56(%rbp), %rdx
	movl	$1, %eax
	xorl	%ecx, %ecx
	cmpq	$0, %rdx
	cmoveq	%rcx, %rax
	cmpq	$0, %rax
	jne	LBB113_6
Ltmp830:
	.loc	39 0 22 is_stmt 0
	movq	-80(%rbp), %rax
	.loc	39 636 6 is_stmt 1
	addq	$112, %rsp
	popq	%rbp
	retq
LBB113_6:
	.loc	39 0 6 is_stmt 0
	movq	-80(%rbp), %rdi
Ltmp831:
	.loc	39 632 13 is_stmt 1
	movq	-56(%rbp), %rax
	movq	%rax, -48(%rbp)
Ltmp823:
Ltmp832:
	.loc	39 633 13
	leaq	l___unnamed_4(%rip), %rdx
	leaq	-48(%rbp), %rsi
	callq	__ZN4core3fmt8builders9DebugList5entry17h90e9fab3d6cede22E
Ltmp824:
	jmp	LBB113_9
Ltmp833:
LBB113_7:
	.loc	39 634 9
	jmp	LBB113_2
LBB113_8:
Ltmp825:
	.loc	39 0 9 is_stmt 0
	movq	%rax, %rcx
	movl	%edx, %eax
	movq	%rcx, -16(%rbp)
	movl	%eax, -8(%rbp)
	jmp	LBB113_7
LBB113_9:
	.loc	39 634 9
	jmp	LBB113_10
LBB113_10:
	.loc	39 632 9 is_stmt 1
	jmp	LBB113_1
Ltmp834:
Lfunc_end113:
	.cfi_endproc
	.section	__TEXT,__gcc_except_tab
	.p2align	2
GCC_except_table113:
Lexception23:
	.byte	255
	.byte	255
	.byte	1
	.uleb128 Lcst_end23-Lcst_begin23
Lcst_begin23:
	.uleb128 Lfunc_begin113-Lfunc_begin113
	.uleb128 Ltmp820-Lfunc_begin113
	.byte	0
	.byte	0
	.uleb128 Ltmp820-Lfunc_begin113
	.uleb128 Ltmp821-Ltmp820
	.uleb128 Ltmp822-Lfunc_begin113
	.byte	0
	.uleb128 Ltmp821-Lfunc_begin113
	.uleb128 Ltmp823-Ltmp821
	.byte	0
	.byte	0
	.uleb128 Ltmp823-Lfunc_begin113
	.uleb128 Ltmp824-Ltmp823
	.uleb128 Ltmp825-Lfunc_begin113
	.byte	0
Lcst_end23:
	.p2align	2

	.section	__TEXT,__text,regular,pure_instructions
	.p2align	4, 0x90
__ZN4core3fmt9Arguments6new_v117h35e77ce08f889a61E:
Lfunc_begin114:
	.loc	35 399 0
	.cfi_startproc
	pushq	%rbp
	.cfi_def_cfa_offset 16
	.cfi_offset %rbp, -16
	movq	%rsp, %rbp
	.cfi_def_cfa_register %rbp
	subq	$160, %rsp
	movq	%r8, -152(%rbp)
	movq	%rcx, -144(%rbp)
	movq	%rdx, -136(%rbp)
	movq	%rsi, -128(%rbp)
	movq	%rdi, -120(%rbp)
	movq	%rdi, -112(%rbp)
	movq	%rsi, -32(%rbp)
	movq	%rdx, -24(%rbp)
	movq	%rcx, -16(%rbp)
	movq	%r8, -8(%rbp)
Ltmp835:
	.loc	35 400 12 prologue_end
	cmpq	%r8, %rdx
	jb	LBB114_2
	.loc	35 0 12 is_stmt 0
	movq	-136(%rbp), %rax
	movq	-152(%rbp), %rcx
	.loc	35 400 56
	addq	$1, %rcx
	.loc	35 400 41
	cmpq	%rcx, %rax
	seta	%al
	.loc	35 400 12
	andb	$1, %al
	movb	%al, -97(%rbp)
	jmp	LBB114_3
LBB114_2:
	movb	$1, -97(%rbp)
LBB114_3:
	testb	$1, -97(%rbp)
	jne	LBB114_5
	.loc	35 0 12
	movq	-112(%rbp), %rax
	movq	-120(%rbp), %rcx
	movq	-152(%rbp), %rdx
	movq	-144(%rbp), %rsi
	movq	-136(%rbp), %rdi
	movq	-128(%rbp), %r8
	.loc	35 403 34 is_stmt 1
	movq	$0, -48(%rbp)
	.loc	35 403 9 is_stmt 0
	movq	%r8, 16(%rcx)
	movq	%rdi, 24(%rcx)
	movq	-48(%rbp), %r8
	movq	-40(%rbp), %rdi
	movq	%r8, (%rcx)
	movq	%rdi, 8(%rcx)
	movq	%rsi, 32(%rcx)
	movq	%rdx, 40(%rcx)
	.loc	35 404 6 is_stmt 1
	addq	$160, %rsp
	popq	%rbp
	retq
LBB114_5:
	.loc	35 401 13
	leaq	l___unnamed_24(%rip), %rsi
	leaq	l___unnamed_21(%rip), %rcx
	xorl	%eax, %eax
	movl	%eax, %r8d
	leaq	-96(%rbp), %rdi
	movq	%rdi, -160(%rbp)
	movl	$1, %edx
	callq	__ZN4core3fmt9Arguments6new_v117h35e77ce08f889a61E
	movq	-160(%rbp), %rdi
	leaq	l___unnamed_25(%rip), %rsi
	callq	__ZN4core9panicking9panic_fmt17h9b5d807e24bcaaedE
Ltmp836:
Lfunc_end114:
	.cfi_endproc

	.globl	__ZN4core3mem11swap_simple17h00a0a7d6bfd5bac7E
	.p2align	4, 0x90
__ZN4core3mem11swap_simple17h00a0a7d6bfd5bac7E:
Lfunc_begin115:
	.loc	2 757 0
	.cfi_startproc
	pushq	%rbp
	.cfi_def_cfa_offset 16
	.cfi_offset %rbp, -16
	movq	%rsp, %rbp
	.cfi_def_cfa_register %rbp
	subq	$192, %rsp
	movq	%rdi, -192(%rbp)
	movq	%rsi, -184(%rbp)
	movq	%rdi, -128(%rbp)
	movq	%rsi, -120(%rbp)
Ltmp837:
	.loc	2 774 27 prologue_end
	movq	%rdi, -112(%rbp)
Ltmp838:
	.loc	8 1157 34
	leaq	-144(%rbp), %rax
	movq	%rax, -104(%rbp)
	.loc	8 1157 9 is_stmt 0
	movq	(%rdi), %rax
	movq	%rax, -144(%rbp)
	.loc	8 1158 9 is_stmt 1
	movq	-144(%rbp), %rax
	movq	%rax, -176(%rbp)
	movq	%rax, -96(%rbp)
Ltmp839:
	.loc	9 627 38
	movq	%rax, -88(%rbp)
Ltmp840:
	.loc	10 89 9
	movq	%rax, -80(%rbp)
Ltmp841:
	.loc	2 775 27
	movq	%rsi, -72(%rbp)
Ltmp842:
	.loc	8 1157 34
	leaq	-136(%rbp), %rax
	movq	%rax, -64(%rbp)
	.loc	8 1157 9 is_stmt 0
	movq	(%rsi), %rax
	movq	%rax, -136(%rbp)
	.loc	8 1158 9 is_stmt 1
	movq	-136(%rbp), %rax
	movq	%rax, -168(%rbp)
	movq	%rax, -56(%rbp)
	.loc	8 0 9 is_stmt 0
	movq	-184(%rbp), %rax
	movq	-176(%rbp), %rcx
	movq	-192(%rbp), %rdx
	movq	-168(%rbp), %rsi
Ltmp843:
	.loc	9 627 38 is_stmt 1
	movq	%rsi, -32(%rbp)
Ltmp844:
	.loc	10 89 9
	movq	%rsi, -24(%rbp)
Ltmp845:
	.loc	2 776 20
	movq	%rdx, -16(%rbp)
	.loc	2 776 23 is_stmt 0
	movq	%rsi, -160(%rbp)
Ltmp846:
	.loc	8 1354 9 is_stmt 1
	movq	-160(%rbp), %rsi
	movq	%rsi, (%rdx)
Ltmp847:
	.loc	2 777 20
	movq	%rax, -8(%rbp)
	.loc	2 777 23 is_stmt 0
	movq	%rcx, -152(%rbp)
Ltmp848:
	.loc	8 1354 9 is_stmt 1
	movq	-152(%rbp), %rcx
	movq	%rcx, (%rax)
Ltmp849:
	.loc	2 779 2
	addq	$192, %rsp
	popq	%rbp
	retq
Ltmp850:
Lfunc_end115:
	.cfi_endproc

	.globl	__ZN4core3mem11swap_simple17h15460971e7d11c67E
	.p2align	4, 0x90
__ZN4core3mem11swap_simple17h15460971e7d11c67E:
Lfunc_begin116:
	.loc	2 757 0
	.cfi_startproc
	pushq	%rbp
	.cfi_def_cfa_offset 16
	.cfi_offset %rbp, -16
	movq	%rsp, %rbp
	.cfi_def_cfa_register %rbp
	subq	$288, %rsp
	movq	%rdi, -288(%rbp)
	movq	%rsi, -280(%rbp)
	movq	%rdi, -176(%rbp)
	movq	%rsi, -168(%rbp)
Ltmp851:
	.loc	2 774 27 prologue_end
	movq	%rdi, -160(%rbp)
Ltmp852:
	.loc	8 1157 34
	leaq	-208(%rbp), %rax
	movq	%rax, -152(%rbp)
	.loc	8 1157 9 is_stmt 0
	movq	(%rdi), %rax
	movq	%rax, -208(%rbp)
	movq	8(%rdi), %rax
	movq	%rax, -200(%rbp)
	.loc	8 1158 9 is_stmt 1
	movq	-208(%rbp), %rcx
	movq	%rcx, -272(%rbp)
	movq	-200(%rbp), %rax
	movq	%rax, -264(%rbp)
	movq	%rcx, -144(%rbp)
	movq	%rax, -136(%rbp)
Ltmp853:
	.loc	9 627 38
	movq	%rcx, -128(%rbp)
	movq	%rax, -120(%rbp)
Ltmp854:
	.loc	10 89 9
	movq	%rcx, -112(%rbp)
	movq	%rax, -104(%rbp)
Ltmp855:
	.loc	2 775 27
	movq	%rsi, -96(%rbp)
Ltmp856:
	.loc	8 1157 34
	leaq	-192(%rbp), %rax
	movq	%rax, -88(%rbp)
	.loc	8 1157 9 is_stmt 0
	movq	(%rsi), %rax
	movq	%rax, -192(%rbp)
	movq	8(%rsi), %rax
	movq	%rax, -184(%rbp)
	.loc	8 1158 9 is_stmt 1
	movq	-192(%rbp), %rcx
	movq	%rcx, -256(%rbp)
	movq	-184(%rbp), %rax
	movq	%rax, -248(%rbp)
	movq	%rcx, -80(%rbp)
	movq	%rax, -72(%rbp)
	.loc	8 0 9 is_stmt 0
	movq	-280(%rbp), %rax
	movq	-264(%rbp), %rcx
	movq	-272(%rbp), %rdx
	movq	-288(%rbp), %rsi
	movq	-248(%rbp), %rdi
	movq	-256(%rbp), %r8
Ltmp857:
	.loc	9 627 38 is_stmt 1
	movq	%r8, -48(%rbp)
	movq	%rdi, -40(%rbp)
Ltmp858:
	.loc	10 89 9
	movq	%r8, -32(%rbp)
	movq	%rdi, -24(%rbp)
Ltmp859:
	.loc	2 776 20
	movq	%rsi, -16(%rbp)
	.loc	2 776 23 is_stmt 0
	movq	%r8, -240(%rbp)
	movq	%rdi, -232(%rbp)
Ltmp860:
	.loc	8 1354 9 is_stmt 1
	movq	-240(%rbp), %rdi
	movq	%rdi, (%rsi)
	movq	-232(%rbp), %rdi
	movq	%rdi, 8(%rsi)
Ltmp861:
	.loc	2 777 20
	movq	%rax, -8(%rbp)
	.loc	2 777 23 is_stmt 0
	movq	%rdx, -224(%rbp)
	movq	%rcx, -216(%rbp)
Ltmp862:
	.loc	8 1354 9 is_stmt 1
	movq	-224(%rbp), %rcx
	movq	%rcx, (%rax)
	movq	-216(%rbp), %rcx
	movq	%rcx, 8(%rax)
Ltmp863:
	.loc	2 779 2
	addq	$288, %rsp
	popq	%rbp
	retq
Ltmp864:
Lfunc_end116:
	.cfi_endproc

	.globl	__ZN4core3mem11swap_simple17h5d27960908906f8fE
	.p2align	4, 0x90
__ZN4core3mem11swap_simple17h5d27960908906f8fE:
Lfunc_begin117:
	.loc	2 757 0
	.cfi_startproc
	pushq	%rbp
	.cfi_def_cfa_offset 16
	.cfi_offset %rbp, -16
	movq	%rsp, %rbp
	.cfi_def_cfa_register %rbp
	subq	$288, %rsp
	movq	%rdi, -288(%rbp)
	movq	%rsi, -280(%rbp)
	movq	%rdi, -176(%rbp)
	movq	%rsi, -168(%rbp)
Ltmp865:
	.loc	2 774 27 prologue_end
	movq	%rdi, -160(%rbp)
Ltmp866:
	.loc	8 1157 34
	leaq	-208(%rbp), %rax
	movq	%rax, -152(%rbp)
	.loc	8 1157 9 is_stmt 0
	movq	(%rdi), %rax
	movq	%rax, -208(%rbp)
	movq	8(%rdi), %rax
	movq	%rax, -200(%rbp)
	.loc	8 1158 9 is_stmt 1
	movq	-208(%rbp), %rcx
	movq	%rcx, -272(%rbp)
	movq	-200(%rbp), %rax
	movq	%rax, -264(%rbp)
	movq	%rcx, -144(%rbp)
	movq	%rax, -136(%rbp)
Ltmp867:
	.loc	9 627 38
	movq	%rcx, -128(%rbp)
	movq	%rax, -120(%rbp)
Ltmp868:
	.loc	10 89 9
	movq	%rcx, -112(%rbp)
	movq	%rax, -104(%rbp)
Ltmp869:
	.loc	2 775 27
	movq	%rsi, -96(%rbp)
Ltmp870:
	.loc	8 1157 34
	leaq	-192(%rbp), %rax
	movq	%rax, -88(%rbp)
	.loc	8 1157 9 is_stmt 0
	movq	(%rsi), %rax
	movq	%rax, -192(%rbp)
	movq	8(%rsi), %rax
	movq	%rax, -184(%rbp)
	.loc	8 1158 9 is_stmt 1
	movq	-192(%rbp), %rcx
	movq	%rcx, -256(%rbp)
	movq	-184(%rbp), %rax
	movq	%rax, -248(%rbp)
	movq	%rcx, -80(%rbp)
	movq	%rax, -72(%rbp)
	.loc	8 0 9 is_stmt 0
	movq	-280(%rbp), %rax
	movq	-264(%rbp), %rcx
	movq	-272(%rbp), %rdx
	movq	-288(%rbp), %rsi
	movq	-248(%rbp), %rdi
	movq	-256(%rbp), %r8
Ltmp871:
	.loc	9 627 38 is_stmt 1
	movq	%r8, -48(%rbp)
	movq	%rdi, -40(%rbp)
Ltmp872:
	.loc	10 89 9
	movq	%r8, -32(%rbp)
	movq	%rdi, -24(%rbp)
Ltmp873:
	.loc	2 776 20
	movq	%rsi, -16(%rbp)
	.loc	2 776 23 is_stmt 0
	movq	%r8, -240(%rbp)
	movq	%rdi, -232(%rbp)
Ltmp874:
	.loc	8 1354 9 is_stmt 1
	movq	-240(%rbp), %rdi
	movq	%rdi, (%rsi)
	movq	-232(%rbp), %rdi
	movq	%rdi, 8(%rsi)
Ltmp875:
	.loc	2 777 20
	movq	%rax, -8(%rbp)
	.loc	2 777 23 is_stmt 0
	movq	%rdx, -224(%rbp)
	movq	%rcx, -216(%rbp)
Ltmp876:
	.loc	8 1354 9 is_stmt 1
	movq	-224(%rbp), %rcx
	movq	%rcx, (%rax)
	movq	-216(%rbp), %rcx
	movq	%rcx, 8(%rax)
Ltmp877:
	.loc	2 779 2
	addq	$288, %rsp
	popq	%rbp
	retq
Ltmp878:
Lfunc_end117:
	.cfi_endproc

	.globl	__ZN4core3mem11swap_simple17h924aa4a5efe6f8d9E
	.p2align	4, 0x90
__ZN4core3mem11swap_simple17h924aa4a5efe6f8d9E:
Lfunc_begin118:
	.loc	2 757 0
	.cfi_startproc
	pushq	%rbp
	.cfi_def_cfa_offset 16
	.cfi_offset %rbp, -16
	movq	%rsp, %rbp
	.cfi_def_cfa_register %rbp
	subq	$128, %rsp
	movq	%rdi, -128(%rbp)
	movq	%rsi, -120(%rbp)
	movq	%rdi, -104(%rbp)
	movq	%rsi, -96(%rbp)
Ltmp879:
	.loc	2 774 27 prologue_end
	movq	%rdi, -88(%rbp)
Ltmp880:
	.loc	8 1157 34
	leaq	-106(%rbp), %rax
	movq	%rax, -80(%rbp)
	.loc	8 1157 9 is_stmt 0
	movb	(%rdi), %al
	movb	%al, -106(%rbp)
	.loc	8 1158 9 is_stmt 1
	movb	-106(%rbp), %al
	movb	%al, -110(%rbp)
	movb	%al, -67(%rbp)
Ltmp881:
	.loc	9 627 38
	movb	%al, -66(%rbp)
Ltmp882:
	.loc	10 89 9
	movb	%al, -65(%rbp)
Ltmp883:
	.loc	2 775 27
	movq	%rsi, -64(%rbp)
Ltmp884:
	.loc	8 1157 34
	leaq	-105(%rbp), %rax
	movq	%rax, -56(%rbp)
	.loc	8 1157 9 is_stmt 0
	movb	(%rsi), %al
	movb	%al, -105(%rbp)
	.loc	8 1158 9 is_stmt 1
	movb	-105(%rbp), %al
	movb	%al, -109(%rbp)
	movb	%al, -41(%rbp)
	.loc	8 0 9 is_stmt 0
	movq	-120(%rbp), %rax
	movb	-110(%rbp), %cl
	movq	-128(%rbp), %rdx
	movb	-109(%rbp), %sil
Ltmp885:
	.loc	9 627 38 is_stmt 1
	movb	%sil, -18(%rbp)
Ltmp886:
	.loc	10 89 9
	movb	%sil, -17(%rbp)
Ltmp887:
	.loc	2 776 20
	movq	%rdx, -16(%rbp)
	.loc	2 776 23 is_stmt 0
	movb	%sil, -108(%rbp)
Ltmp888:
	.loc	8 1354 9 is_stmt 1
	movb	-108(%rbp), %sil
	movb	%sil, (%rdx)
Ltmp889:
	.loc	2 777 20
	movq	%rax, -8(%rbp)
	.loc	2 777 23 is_stmt 0
	movb	%cl, -107(%rbp)
Ltmp890:
	.loc	8 1354 9 is_stmt 1
	movb	-107(%rbp), %cl
	movb	%cl, (%rax)
Ltmp891:
	.loc	2 779 2
	addq	$128, %rsp
	popq	%rbp
	retq
Ltmp892:
Lfunc_end118:
	.cfi_endproc

	.globl	__ZN4core3mem4swap17hfb9b902014af1355E
	.p2align	4, 0x90
__ZN4core3mem4swap17hfb9b902014af1355E:
Lfunc_begin119:
	.loc	2 720 0
	.cfi_startproc
	pushq	%rbp
	.cfi_def_cfa_offset 16
	.cfi_offset %rbp, -16
	movq	%rsp, %rbp
	.cfi_def_cfa_register %rbp
	subq	$32, %rsp
	movq	%rdi, -32(%rbp)
	movq	%rsi, -24(%rbp)
	movq	%rdi, -16(%rbp)
	movq	%rsi, -8(%rbp)
Ltmp893:
	.loc	2 735 12 prologue_end
	xorl	%eax, %eax
	testb	$1, %al
	jne	LBB119_2
	.loc	2 0 12 is_stmt 0
	movq	-24(%rbp), %rsi
	movq	-32(%rbp), %rdi
	.loc	2 749 5 is_stmt 1
	callq	__ZN4core3mem11swap_simple17h15460971e7d11c67E
	.loc	2 750 2
	jmp	LBB119_3
LBB119_2:
	.loc	2 0 2 is_stmt 0
	movq	-24(%rbp), %rsi
	movq	-32(%rbp), %rdi
	.loc	2 738 29 is_stmt 1
	movl	$1, %edx
	callq	__ZN4core3ptr19swap_nonoverlapping17hffb77435385ccb84E
LBB119_3:
	.loc	2 750 2
	addq	$32, %rsp
	popq	%rbp
	retq
Ltmp894:
Lfunc_end119:
	.cfi_endproc

	.globl	__ZN4core3mem7replace17hc1ff0f03d2acd468E
	.p2align	4, 0x90
__ZN4core3mem7replace17hc1ff0f03d2acd468E:
Lfunc_begin120:
	.loc	2 905 0
	.cfi_startproc
	pushq	%rbp
	.cfi_def_cfa_offset 16
	.cfi_offset %rbp, -16
	movq	%rsp, %rbp
	.cfi_def_cfa_register %rbp
	subq	$120, %rsp
	movq	%rdi, -120(%rbp)
	movq	%rsi, -112(%rbp)
	movq	%rdi, -80(%rbp)
	movq	%rsi, -72(%rbp)
Ltmp895:
	.loc	2 910 32 prologue_end
	movq	%rdi, -64(%rbp)
Ltmp896:
	.loc	8 1157 34
	leaq	-88(%rbp), %rax
	movq	%rax, -56(%rbp)
	.loc	8 1157 9 is_stmt 0
	movq	(%rdi), %rax
	movq	%rax, -88(%rbp)
	.loc	8 1158 9 is_stmt 1
	movq	-88(%rbp), %rax
	movq	%rax, -104(%rbp)
	movq	%rax, -48(%rbp)
	.loc	8 0 9 is_stmt 0
	movq	-104(%rbp), %rax
	movq	-120(%rbp), %rcx
	movq	-112(%rbp), %rdx
Ltmp897:
	.loc	9 627 38 is_stmt 1
	movq	%rax, -24(%rbp)
Ltmp898:
	.loc	10 89 9
	movq	%rax, -16(%rbp)
Ltmp899:
	.loc	2 911 20
	movq	%rcx, -8(%rbp)
	.loc	2 911 26 is_stmt 0
	movq	%rdx, -96(%rbp)
Ltmp900:
	.loc	8 1354 9 is_stmt 1
	movq	-96(%rbp), %rdx
	movq	%rdx, (%rcx)
Ltmp901:
	.loc	2 914 2
	addq	$120, %rsp
	popq	%rbp
	retq
Ltmp902:
Lfunc_end120:
	.cfi_endproc

	.p2align	4, 0x90
__ZN4core3num20_$LT$impl$u20$u8$GT$11checked_add17h5dcd4d337b83dee8E:
Lfunc_begin121:
	.loc	14 442 0
	.cfi_startproc
	pushq	%rbp
	.cfi_def_cfa_offset 16
	.cfi_offset %rbp, -16
	movq	%rsp, %rbp
	.cfi_def_cfa_register %rbp
	subq	$32, %rsp
	movb	%sil, %al
	movb	%dil, %cl
	movb	%cl, -12(%rbp)
	movb	%al, -11(%rbp)
Ltmp903:
	.loc	14 443 26 prologue_end
	movb	%cl, -10(%rbp)
	.loc	14 443 47 is_stmt 0
	movb	%al, -9(%rbp)
Ltmp904:
	.loc	14 1479 26 is_stmt 1
	addb	%al, %cl
	setb	%al
	andb	$1, %al
	movb	%cl, -8(%rbp)
	movb	%al, -7(%rbp)
	movb	-8(%rbp), %cl
	movb	-7(%rbp), %al
	.loc	14 1479 18 is_stmt 0
	movb	%cl, -5(%rbp)
	.loc	14 1479 21
	movb	%al, %dl
	andb	$1, %dl
	movb	%dl, -4(%rbp)
Ltmp905:
	.loc	14 1480 13 is_stmt 1
	movb	%cl, -16(%rbp)
	andb	$1, %al
	movb	%al, -15(%rbp)
Ltmp906:
	.loc	14 443 18
	movb	-16(%rbp), %al
	movb	%al, -25(%rbp)
	movb	%al, -3(%rbp)
	.loc	14 443 21 is_stmt 0
	movb	-15(%rbp), %al
	movb	%al, %cl
	andb	$1, %cl
	movb	%cl, -2(%rbp)
Ltmp907:
	.loc	14 444 16 is_stmt 1
	andb	$1, %al
	movb	%al, -1(%rbp)
	testb	$1, -1(%rbp)
	jne	LBB121_2
	.loc	14 0 16 is_stmt 0
	movb	-25(%rbp), %al
	.loc	14 444 42
	movb	%al, -23(%rbp)
	movb	$1, -24(%rbp)
	.loc	14 444 13
	jmp	LBB121_3
LBB121_2:
	.loc	14 444 30
	movb	$0, -24(%rbp)
Ltmp908:
LBB121_3:
	.loc	14 445 10 is_stmt 1
	movb	-24(%rbp), %al
	movb	-23(%rbp), %dl
	addq	$32, %rsp
	popq	%rbp
	retq
Ltmp909:
Lfunc_end121:
	.cfi_endproc

	.p2align	4, 0x90
__ZN4core3num20_$LT$impl$u20$u8$GT$11checked_sub17h44829bede4fa5d1aE:
Lfunc_begin122:
	.loc	14 511 0
	.cfi_startproc
	pushq	%rbp
	.cfi_def_cfa_offset 16
	.cfi_offset %rbp, -16
	movq	%rsp, %rbp
	.cfi_def_cfa_register %rbp
	subq	$32, %rsp
	movb	%sil, %dl
	movb	%dil, %al
	movb	%al, -12(%rbp)
	movb	%dl, -11(%rbp)
Ltmp910:
	.loc	14 512 26 prologue_end
	movb	%al, -10(%rbp)
	.loc	14 512 47 is_stmt 0
	movb	%dl, -9(%rbp)
Ltmp911:
	.loc	14 1578 26 is_stmt 1
	movb	%al, %cl
	subb	%dl, %cl
	cmpb	%dl, %al
	setb	%al
	andb	$1, %al
	movb	%cl, -8(%rbp)
	movb	%al, -7(%rbp)
	movb	-8(%rbp), %cl
	movb	-7(%rbp), %al
	.loc	14 1578 18 is_stmt 0
	movb	%cl, -5(%rbp)
	.loc	14 1578 21
	movb	%al, %dl
	andb	$1, %dl
	movb	%dl, -4(%rbp)
Ltmp912:
	.loc	14 1579 13 is_stmt 1
	movb	%cl, -16(%rbp)
	andb	$1, %al
	movb	%al, -15(%rbp)
Ltmp913:
	.loc	14 512 18
	movb	-16(%rbp), %al
	movb	%al, -25(%rbp)
	movb	%al, -3(%rbp)
	.loc	14 512 21 is_stmt 0
	movb	-15(%rbp), %al
	movb	%al, %cl
	andb	$1, %cl
	movb	%cl, -2(%rbp)
Ltmp914:
	.loc	14 513 16 is_stmt 1
	andb	$1, %al
	movb	%al, -1(%rbp)
	testb	$1, -1(%rbp)
	jne	LBB122_2
	.loc	14 0 16 is_stmt 0
	movb	-25(%rbp), %al
	.loc	14 513 42
	movb	%al, -23(%rbp)
	movb	$1, -24(%rbp)
	.loc	14 513 13
	jmp	LBB122_3
LBB122_2:
	.loc	14 513 30
	movb	$0, -24(%rbp)
Ltmp915:
LBB122_3:
	.loc	14 514 10 is_stmt 1
	movb	-24(%rbp), %al
	movb	-23(%rbp), %dl
	addq	$32, %rsp
	popq	%rbp
	retq
Ltmp916:
Lfunc_end122:
	.cfi_endproc

	.p2align	4, 0x90
__ZN4core3num23_$LT$impl$u20$usize$GT$11checked_add17h098b7be853966da4E:
Lfunc_begin123:
	.loc	14 442 0
	.cfi_startproc
	pushq	%rbp
	.cfi_def_cfa_offset 16
	.cfi_offset %rbp, -16
	movq	%rsp, %rbp
	.cfi_def_cfa_register %rbp
	subq	$120, %rsp
	movq	%rdi, -80(%rbp)
	movq	%rsi, -72(%rbp)
Ltmp917:
	.loc	14 443 26 prologue_end
	movq	%rdi, -64(%rbp)
	.loc	14 443 47 is_stmt 0
	movq	%rsi, -56(%rbp)
Ltmp918:
	.loc	14 1479 26 is_stmt 1
	addq	%rsi, %rdi
	setb	%al
	andb	$1, %al
	movq	%rdi, -48(%rbp)
	movb	%al, -40(%rbp)
	movq	-48(%rbp), %rcx
	movb	-40(%rbp), %al
	.loc	14 1479 18 is_stmt 0
	movq	%rcx, -32(%rbp)
	.loc	14 1479 21
	movb	%al, %dl
	andb	$1, %dl
	movb	%dl, -17(%rbp)
Ltmp919:
	.loc	14 1480 13 is_stmt 1
	movq	%rcx, -96(%rbp)
	andb	$1, %al
	movb	%al, -88(%rbp)
Ltmp920:
	.loc	14 443 18
	movq	-96(%rbp), %rax
	movq	%rax, -120(%rbp)
	movq	%rax, -16(%rbp)
	.loc	14 443 21 is_stmt 0
	movb	-88(%rbp), %al
	movb	%al, %cl
	andb	$1, %cl
	movb	%cl, -2(%rbp)
Ltmp921:
	.loc	14 444 16 is_stmt 1
	andb	$1, %al
	movb	%al, -1(%rbp)
	testb	$1, -1(%rbp)
	jne	LBB123_2
	.loc	14 0 16 is_stmt 0
	movq	-120(%rbp), %rax
	.loc	14 444 42
	movq	%rax, -104(%rbp)
	movq	$1, -112(%rbp)
	.loc	14 444 13
	jmp	LBB123_3
LBB123_2:
	.loc	14 444 30
	movq	$0, -112(%rbp)
Ltmp922:
LBB123_3:
	.loc	14 445 10 is_stmt 1
	movq	-112(%rbp), %rax
	movq	-104(%rbp), %rdx
	addq	$120, %rsp
	popq	%rbp
	retq
Ltmp923:
Lfunc_end123:
	.cfi_endproc

	.p2align	4, 0x90
__ZN4core3num23_$LT$impl$u20$usize$GT$11checked_sub17h6e9ef14b6e651762E:
Lfunc_begin124:
	.loc	14 511 0
	.cfi_startproc
	pushq	%rbp
	.cfi_def_cfa_offset 16
	.cfi_offset %rbp, -16
	movq	%rsp, %rbp
	.cfi_def_cfa_register %rbp
	subq	$120, %rsp
	movq	%rdi, %rax
	movq	%rax, -80(%rbp)
	movq	%rsi, -72(%rbp)
Ltmp924:
	.loc	14 512 26 prologue_end
	movq	%rax, -64(%rbp)
	.loc	14 512 47 is_stmt 0
	movq	%rsi, -56(%rbp)
Ltmp925:
	.loc	14 1578 26 is_stmt 1
	movq	%rax, %rdi
	subq	%rsi, %rdi
	cmpq	%rsi, %rax
	setb	%al
	andb	$1, %al
	movq	%rdi, -48(%rbp)
	movb	%al, -40(%rbp)
	movq	-48(%rbp), %rcx
	movb	-40(%rbp), %al
	.loc	14 1578 18 is_stmt 0
	movq	%rcx, -32(%rbp)
	.loc	14 1578 21
	movb	%al, %dl
	andb	$1, %dl
	movb	%dl, -17(%rbp)
Ltmp926:
	.loc	14 1579 13 is_stmt 1
	movq	%rcx, -96(%rbp)
	andb	$1, %al
	movb	%al, -88(%rbp)
Ltmp927:
	.loc	14 512 18
	movq	-96(%rbp), %rax
	movq	%rax, -120(%rbp)
	movq	%rax, -16(%rbp)
	.loc	14 512 21 is_stmt 0
	movb	-88(%rbp), %al
	movb	%al, %cl
	andb	$1, %cl
	movb	%cl, -2(%rbp)
Ltmp928:
	.loc	14 513 16 is_stmt 1
	andb	$1, %al
	movb	%al, -1(%rbp)
	testb	$1, -1(%rbp)
	jne	LBB124_2
	.loc	14 0 16 is_stmt 0
	movq	-120(%rbp), %rax
	.loc	14 513 42
	movq	%rax, -104(%rbp)
	movq	$1, -112(%rbp)
	.loc	14 513 13
	jmp	LBB124_3
LBB124_2:
	.loc	14 513 30
	movq	$0, -112(%rbp)
Ltmp929:
LBB124_3:
	.loc	14 514 10 is_stmt 1
	movq	-112(%rbp), %rax
	movq	-104(%rbp), %rdx
	addq	$120, %rsp
	popq	%rbp
	retq
Ltmp930:
Lfunc_end124:
	.cfi_endproc

	.globl	__ZN4core3ops12control_flow24ControlFlow$LT$B$C$C$GT$11break_value17he051c4f3ca8f8df4E
	.p2align	4, 0x90
__ZN4core3ops12control_flow24ControlFlow$LT$B$C$C$GT$11break_value17he051c4f3ca8f8df4E:
Lfunc_begin125:
	.loc	17 183 0
	.cfi_startproc
	pushq	%rbp
	.cfi_def_cfa_offset 16
	.cfi_offset %rbp, -16
	movq	%rsp, %rbp
	.cfi_def_cfa_register %rbp
	subq	$80, %rsp
	movq	%rsi, -72(%rbp)
Ltmp931:
	movq	%rdi, -64(%rbp)
	movq	%rdi, -56(%rbp)
Ltmp932:
	.loc	17 184 15 prologue_end
	movq	8(%rsi), %rdx
	movl	$1, %eax
	xorl	%ecx, %ecx
	cmpq	$0, %rdx
	cmoveq	%rcx, %rax
	.loc	17 184 9 is_stmt 0
	cmpq	$0, %rax
Ltmp933:
	jne	LBB125_2
Ltmp934:
	.loc	17 0 9
	movq	-64(%rbp), %rax
	.loc	17 185 42 is_stmt 1
	movq	$0, 8(%rax)
	jmp	LBB125_3
Ltmp935:
LBB125_2:
	.loc	17 0 42 is_stmt 0
	movq	-64(%rbp), %rax
	movq	-72(%rbp), %rcx
	.loc	17 186 32 is_stmt 1
	movq	(%rcx), %rdx
	movq	%rdx, -48(%rbp)
	movq	8(%rcx), %rdx
	movq	%rdx, -40(%rbp)
	movq	16(%rcx), %rcx
	movq	%rcx, -32(%rbp)
Ltmp936:
	.loc	17 186 43 is_stmt 0
	movq	-48(%rbp), %rcx
	movq	%rcx, -24(%rbp)
	movq	-40(%rbp), %rcx
	movq	%rcx, -16(%rbp)
	movq	-32(%rbp), %rcx
	movq	%rcx, -8(%rbp)
	.loc	17 186 38
	movq	-24(%rbp), %rcx
	movq	%rcx, (%rax)
	movq	-16(%rbp), %rcx
	movq	%rcx, 8(%rax)
	movq	-8(%rbp), %rcx
	movq	%rcx, 16(%rax)
Ltmp937:
LBB125_3:
	.loc	17 0 38
	movq	-72(%rbp), %rax
	.loc	17 188 5 is_stmt 1
	movq	8(%rax), %rdx
	movl	$1, %eax
	xorl	%ecx, %ecx
	cmpq	$0, %rdx
	cmoveq	%rcx, %rax
	cmpq	$1, %rax
	jne	LBB125_5
Ltmp938:
LBB125_4:
	.loc	17 0 5 is_stmt 0
	movq	-56(%rbp), %rax
	.loc	17 188 6
	addq	$80, %rsp
	popq	%rbp
	retq
Ltmp939:
LBB125_5:
	.loc	17 0 6
	movq	-72(%rbp), %rdi
	.loc	17 188 5
	callq	__ZN4core3ptr124drop_in_place$LT$core..ops..control_flow..ControlFlow$LT$alloc..vec..Vec$LT$core..ops..range..Range$LT$usize$GT$$GT$$GT$$GT$17h324b0e736bff63fcE
	jmp	LBB125_4
Ltmp940:
Lfunc_end125:
	.cfi_endproc

	.globl	__ZN4core3ops12control_flow24ControlFlow$LT$B$C$C$GT$11break_value17he893d2045a9a9c66E
	.p2align	4, 0x90
__ZN4core3ops12control_flow24ControlFlow$LT$B$C$C$GT$11break_value17he893d2045a9a9c66E:
Lfunc_begin126:
	.loc	17 183 0 is_stmt 1
	.cfi_startproc
	pushq	%rbp
	.cfi_def_cfa_offset 16
	.cfi_offset %rbp, -16
	movq	%rsp, %rbp
	.cfi_def_cfa_register %rbp
	subq	$3, %rsp
	movb	%dil, %al
	movb	%al, -3(%rbp)
Ltmp941:
	.loc	17 184 15 prologue_end
	movl	$1, %eax
	xorl	%ecx, %ecx
	cmpb	$23, -3(%rbp)
	cmoveq	%rcx, %rax
	.loc	17 184 9 is_stmt 0
	cmpq	$0, %rax
	jne	LBB126_2
	.loc	17 185 42 is_stmt 1
	movb	$23, -2(%rbp)
	jmp	LBB126_3
LBB126_2:
	.loc	17 186 32
	movb	-3(%rbp), %al
	movb	%al, -1(%rbp)
Ltmp942:
	.loc	17 186 38 is_stmt 0
	movb	%al, -2(%rbp)
Ltmp943:
LBB126_3:
	.loc	17 188 5 is_stmt 1
	movl	$1, %eax
	xorl	%ecx, %ecx
	cmpb	$23, -3(%rbp)
	cmoveq	%rcx, %rax
	cmpq	$1, %rax
	jne	LBB126_5
LBB126_4:
	.loc	17 188 6 is_stmt 0
	movb	-2(%rbp), %al
	addq	$3, %rsp
	popq	%rbp
	retq
LBB126_5:
	.loc	17 188 5
	jmp	LBB126_4
Ltmp944:
Lfunc_end126:
	.cfi_endproc

	.p2align	4, 0x90
__ZN4core3ops8function5FnMut8call_mut17h1bfe29360541ae7bE:
Lfunc_begin127:
	.file	40 "/rustc/2c8cc343237b8f7d5a3c3703e3a87f2eb2c54a74/library/core/src/ops" "function.rs"
	.loc	40 166 0 is_stmt 1
	.cfi_startproc
	pushq	%rbp
	.cfi_def_cfa_offset 16
	.cfi_offset %rbp, -16
	movq	%rsp, %rbp
	.cfi_def_cfa_register %rbp
	subq	$16, %rsp
	movq	%rsi, -16(%rbp)
	movq	%rdi, -8(%rbp)
Ltmp945:
	.loc	40 166 5 prologue_end
	movq	-16(%rbp), %rdi
	callq	__ZN12unicode_bidi7prepare17not_removed_by_x917h97d036b5b0f4aa2cE
	andb	$1, %al
	movzbl	%al, %eax
	addq	$16, %rsp
	popq	%rbp
	retq
Ltmp946:
Lfunc_end127:
	.cfi_endproc

	.p2align	4, 0x90
__ZN4core3ops8function5FnMut8call_mut17h68b76801d456f55cE:
Lfunc_begin128:
	.loc	40 166 0
	.cfi_startproc
	pushq	%rbp
	.cfi_def_cfa_offset 16
	.cfi_offset %rbp, -16
	movq	%rsp, %rbp
	.cfi_def_cfa_register %rbp
	subq	$16, %rsp
	movq	%rsi, -16(%rbp)
	movq	%rdi, -8(%rbp)
Ltmp947:
	.loc	40 166 5 prologue_end
	movq	-16(%rbp), %rdi
	callq	__ZN73_$LT$core..ops..range..Range$LT$Idx$GT$$u20$as$u20$core..clone..Clone$GT$5clone17hc80f6721b88d444aE
	addq	$16, %rsp
	popq	%rbp
	retq
Ltmp948:
Lfunc_end128:
	.cfi_endproc

	.p2align	4, 0x90
__ZN4core3ops8function5FnMut8call_mut17heff5a7349f9f23caE:
Lfunc_begin129:
	.loc	40 166 0
	.cfi_startproc
	pushq	%rbp
	.cfi_def_cfa_offset 16
	.cfi_offset %rbp, -16
	movq	%rsp, %rbp
	.cfi_def_cfa_register %rbp
	subq	$32, %rsp
	movq	%rsi, -24(%rbp)
	movq	%rdx, -16(%rbp)
	movq	%rdi, -8(%rbp)
Ltmp949:
	.loc	40 166 5 prologue_end
	movq	(%rdi), %rax
	movq	-24(%rbp), %rdi
	movq	-16(%rbp), %rsi
	callq	*%rax
	addq	$32, %rsp
	popq	%rbp
	retq
Ltmp950:
Lfunc_end129:
	.cfi_endproc

	.globl	__ZN4core3ops8function5impls79_$LT$impl$u20$core..ops..function..FnMut$LT$A$GT$$u20$for$u20$$RF$mut$u20$F$GT$8call_mut17h94f11845808027e8E
	.p2align	4, 0x90
__ZN4core3ops8function5impls79_$LT$impl$u20$core..ops..function..FnMut$LT$A$GT$$u20$for$u20$$RF$mut$u20$F$GT$8call_mut17h94f11845808027e8E:
Lfunc_begin130:
	.loc	40 297 0
	.cfi_startproc
	pushq	%rbp
	.cfi_def_cfa_offset 16
	.cfi_offset %rbp, -16
	movq	%rsp, %rbp
	.cfi_def_cfa_register %rbp
	subq	$16, %rsp
	movq	%rsi, -16(%rbp)
	movq	%rdi, -8(%rbp)
Ltmp951:
	.loc	40 298 13 prologue_end
	movq	(%rdi), %rdi
	.loc	40 298 30 is_stmt 0
	movq	-16(%rbp), %rsi
	.loc	40 298 13
	callq	__ZN12unicode_bidi7prepare23isolating_run_sequences28_$u7b$$u7b$closure$u7d$$u7d$17ha8ffa283a9590ee3E
	.loc	40 299 10 is_stmt 1
	andb	$1, %al
	movzbl	%al, %eax
	addq	$16, %rsp
	popq	%rbp
	retq
Ltmp952:
Lfunc_end130:
	.cfi_endproc

	.globl	__ZN4core3ops8function5impls79_$LT$impl$u20$core..ops..function..FnMut$LT$A$GT$$u20$for$u20$$RF$mut$u20$F$GT$8call_mut17hb0854d082ad5d7b3E
	.p2align	4, 0x90
__ZN4core3ops8function5impls79_$LT$impl$u20$core..ops..function..FnMut$LT$A$GT$$u20$for$u20$$RF$mut$u20$F$GT$8call_mut17hb0854d082ad5d7b3E:
Lfunc_begin131:
	.loc	40 297 0
	.cfi_startproc
	pushq	%rbp
	.cfi_def_cfa_offset 16
	.cfi_offset %rbp, -16
	movq	%rsp, %rbp
	.cfi_def_cfa_register %rbp
	subq	$16, %rsp
	movq	%rsi, -16(%rbp)
	movq	%rdi, -8(%rbp)
Ltmp953:
	.loc	40 298 13 prologue_end
	movq	(%rdi), %rdi
	.loc	40 298 30 is_stmt 0
	movq	-16(%rbp), %rsi
	.loc	40 298 13
	callq	__ZN4core4iter8adapters3map12map_try_fold28_$u7b$$u7b$closure$u7d$$u7d$17hd3de0151116ba2f8E
	.loc	40 299 10 is_stmt 1
	addq	$16, %rsp
	popq	%rbp
	retq
Ltmp954:
Lfunc_end131:
	.cfi_endproc

	.globl	__ZN4core3ops8function5impls80_$LT$impl$u20$core..ops..function..FnOnce$LT$A$GT$$u20$for$u20$$RF$mut$u20$F$GT$9call_once17h0fbbd9c835573099E
	.p2align	4, 0x90
__ZN4core3ops8function5impls80_$LT$impl$u20$core..ops..function..FnOnce$LT$A$GT$$u20$for$u20$$RF$mut$u20$F$GT$9call_once17h0fbbd9c835573099E:
Lfunc_begin132:
	.loc	40 309 0
	.cfi_startproc
	pushq	%rbp
	.cfi_def_cfa_offset 16
	.cfi_offset %rbp, -16
	movq	%rsp, %rbp
	.cfi_def_cfa_register %rbp
	subq	$16, %rsp
	movq	%rsi, -16(%rbp)
	movq	%rdi, -8(%rbp)
Ltmp955:
	.loc	40 310 30 prologue_end
	movq	-16(%rbp), %rsi
	.loc	40 310 13 is_stmt 0
	callq	__ZN4core3ops8function5FnMut8call_mut17h68b76801d456f55cE
	.loc	40 311 10 is_stmt 1
	addq	$16, %rsp
	popq	%rbp
	retq
Ltmp956:
Lfunc_end132:
	.cfi_endproc

	.globl	__ZN4core3ops8function5impls80_$LT$impl$u20$core..ops..function..FnOnce$LT$A$GT$$u20$for$u20$$RF$mut$u20$F$GT$9call_once17h5001df65cd89f6afE
	.p2align	4, 0x90
__ZN4core3ops8function5impls80_$LT$impl$u20$core..ops..function..FnOnce$LT$A$GT$$u20$for$u20$$RF$mut$u20$F$GT$9call_once17h5001df65cd89f6afE:
Lfunc_begin133:
	.loc	40 309 0
	.cfi_startproc
	pushq	%rbp
	.cfi_def_cfa_offset 16
	.cfi_offset %rbp, -16
	movq	%rsp, %rbp
	.cfi_def_cfa_register %rbp
	subq	$32, %rsp
	movq	%rsi, -24(%rbp)
	movq	%rdx, -16(%rbp)
	movq	%rdi, -8(%rbp)
Ltmp957:
	.loc	40 310 30 prologue_end
	movq	-24(%rbp), %rsi
	movq	-16(%rbp), %rdx
	.loc	40 310 13 is_stmt 0
	callq	__ZN4core3ops8function5FnMut8call_mut17heff5a7349f9f23caE
	.loc	40 311 10 is_stmt 1
	addq	$32, %rsp
	popq	%rbp
	retq
Ltmp958:
Lfunc_end133:
	.cfi_endproc

	.globl	__ZN4core3ops8function5impls80_$LT$impl$u20$core..ops..function..FnOnce$LT$A$GT$$u20$for$u20$$RF$mut$u20$F$GT$9call_once17h5788a09043997610E
	.p2align	4, 0x90
__ZN4core3ops8function5impls80_$LT$impl$u20$core..ops..function..FnOnce$LT$A$GT$$u20$for$u20$$RF$mut$u20$F$GT$9call_once17h5788a09043997610E:
Lfunc_begin134:
	.loc	40 309 0
	.cfi_startproc
	pushq	%rbp
	.cfi_def_cfa_offset 16
	.cfi_offset %rbp, -16
	movq	%rsp, %rbp
	.cfi_def_cfa_register %rbp
	subq	$32, %rsp
	movq	%rsi, -24(%rbp)
	movl	%edx, -16(%rbp)
	movq	%rdi, -8(%rbp)
Ltmp959:
	.loc	40 310 30 prologue_end
	movq	-24(%rbp), %rsi
	movl	-16(%rbp), %edx
	.loc	40 310 13 is_stmt 0
	callq	__ZN12unicode_bidi8BidiInfo25reordered_levels_per_char28_$u7b$$u7b$closure$u7d$$u7d$17h7c32f3ee0c1d913eE
	.loc	40 311 10 is_stmt 1
	addq	$32, %rsp
	popq	%rbp
	retq
Ltmp960:
Lfunc_end134:
	.cfi_endproc

	.p2align	4, 0x90
__ZN4core3ops8function6FnOnce9call_once17h331c7ffa33a4fe54E:
Lfunc_begin135:
	.loc	40 250 0
	.cfi_startproc
	pushq	%rbp
	.cfi_def_cfa_offset 16
	.cfi_offset %rbp, -16
	movq	%rsp, %rbp
	.cfi_def_cfa_register %rbp
	subq	$32, %rsp
	movq	%rdi, -24(%rbp)
	movq	%rsi, -16(%rbp)
Ltmp961:
	.loc	40 250 5 prologue_end
	movq	-24(%rbp), %rdi
	movq	-16(%rbp), %rsi
	callq	__ZN4core3cmp5impls50_$LT$impl$u20$core..cmp..Ord$u20$for$u20$usize$GT$3cmp17hac6e4a94b7a19ef1E
	addq	$32, %rsp
	popq	%rbp
	retq
Ltmp962:
Lfunc_end135:
	.cfi_endproc

	.p2align	4, 0x90
__ZN4core3ops8function6FnOnce9call_once17h9027744ec5f5b136E:
Lfunc_begin136:
	.loc	40 250 0
	.cfi_startproc
	pushq	%rbp
	.cfi_def_cfa_offset 16
	.cfi_offset %rbp, -16
	movq	%rsp, %rbp
	.cfi_def_cfa_register %rbp
	subq	$16, %rsp
	movq	%rdi, -16(%rbp)
Ltmp963:
	.loc	40 250 5 prologue_end
	movq	-16(%rbp), %rdi
	callq	__ZN4core4iter5range101_$LT$impl$u20$core..iter..traits..iterator..Iterator$u20$for$u20$core..ops..range..Range$LT$A$GT$$GT$4next17h71079d9f8afd2a64E
	addq	$16, %rsp
	popq	%rbp
	retq
Ltmp964:
Lfunc_end136:
	.cfi_endproc

	.p2align	4, 0x90
__ZN4core3ops8function6FnOnce9call_once17heffc216d000c13a1E:
Lfunc_begin137:
	.loc	40 250 0
	.cfi_startproc
	pushq	%rbp
	.cfi_def_cfa_offset 16
	.cfi_offset %rbp, -16
	movq	%rsp, %rbp
	.cfi_def_cfa_register %rbp
	subq	$32, %rsp
	movq	%rdi, -24(%rbp)
	movq	%rsi, -16(%rbp)
Ltmp965:
	.loc	40 250 5 prologue_end
	movq	-24(%rbp), %rdi
	movq	-16(%rbp), %rsi
	callq	__ZN61_$LT$unicode_bidi..level..Level$u20$as$u20$core..cmp..Ord$GT$3cmp17h7f7fb3014b10ca5dE
	addq	$32, %rsp
	popq	%rbp
	retq
Ltmp966:
Lfunc_end137:
	.cfi_endproc

	.globl	__ZN4core3ptr103drop_in_place$LT$alloc..vec..Vec$LT$alloc..vec..Vec$LT$core..ops..range..Range$LT$usize$GT$$GT$$GT$$GT$17h87ff71099b4d7165E
	.p2align	4, 0x90
__ZN4core3ptr103drop_in_place$LT$alloc..vec..Vec$LT$alloc..vec..Vec$LT$core..ops..range..Range$LT$usize$GT$$GT$$GT$$GT$17h87ff71099b4d7165E:
Lfunc_begin138:
	.loc	8 490 0
	.cfi_startproc
	.cfi_personality 155, _rust_eh_personality
	.cfi_lsda 16, Lexception24
	pushq	%rbp
	.cfi_def_cfa_offset 16
	.cfi_offset %rbp, -16
	movq	%rsp, %rbp
	.cfi_def_cfa_register %rbp
	subq	$32, %rsp
	movq	%rdi, -32(%rbp)
	movq	%rdi, -24(%rbp)
Ltmp967:
Ltmp973:
	.loc	8 490 1 prologue_end
	callq	__ZN70_$LT$alloc..vec..Vec$LT$T$C$A$GT$$u20$as$u20$core..ops..drop..Drop$GT$4drop17h7a04086cb940023aE
Ltmp968:
	jmp	LBB138_3
LBB138_1:
Ltmp970:
	.loc	8 0 1 is_stmt 0
	movq	-32(%rbp), %rdi
	.loc	8 490 1
	callq	__ZN4core3ptr110drop_in_place$LT$alloc..raw_vec..RawVec$LT$alloc..vec..Vec$LT$core..ops..range..Range$LT$usize$GT$$GT$$GT$$GT$17h2c0c43abe0f55b7eE
Ltmp971:
	jmp	LBB138_5
LBB138_2:
Ltmp969:
	.loc	8 0 1
	movq	%rax, %rcx
	movl	%edx, %eax
	movq	%rcx, -16(%rbp)
	movl	%eax, -8(%rbp)
	jmp	LBB138_1
LBB138_3:
	movq	-32(%rbp), %rdi
	.loc	8 490 1
	callq	__ZN4core3ptr110drop_in_place$LT$alloc..raw_vec..RawVec$LT$alloc..vec..Vec$LT$core..ops..range..Range$LT$usize$GT$$GT$$GT$$GT$17h2c0c43abe0f55b7eE
	addq	$32, %rsp
	popq	%rbp
	retq
LBB138_4:
Ltmp972:
	callq	__ZN4core9panicking19panic_cannot_unwind17h1fbca7e1d7f56ae1E
LBB138_5:
	movq	-16(%rbp), %rdi
	callq	__Unwind_Resume
Ltmp974:
Lfunc_end138:
	.cfi_endproc
	.section	__TEXT,__gcc_except_tab
	.p2align	2
GCC_except_table138:
Lexception24:
	.byte	255
	.byte	255
	.byte	1
	.uleb128 Lcst_end24-Lcst_begin24
Lcst_begin24:
	.uleb128 Ltmp967-Lfunc_begin138
	.uleb128 Ltmp968-Ltmp967
	.uleb128 Ltmp969-Lfunc_begin138
	.byte	0
	.uleb128 Ltmp970-Lfunc_begin138
	.uleb128 Ltmp971-Ltmp970
	.uleb128 Ltmp972-Lfunc_begin138
	.byte	0
	.uleb128 Ltmp971-Lfunc_begin138
	.uleb128 Lfunc_end138-Ltmp971
	.byte	0
	.byte	0
Lcst_end24:
	.p2align	2

	.section	__TEXT,__text,regular,pure_instructions
	.globl	__ZN4core3ptr108drop_in_place$LT$core..option..Option$LT$alloc..vec..Vec$LT$core..ops..range..Range$LT$usize$GT$$GT$$GT$$GT$17hab2844cecf719f65E
	.p2align	4, 0x90
__ZN4core3ptr108drop_in_place$LT$core..option..Option$LT$alloc..vec..Vec$LT$core..ops..range..Range$LT$usize$GT$$GT$$GT$$GT$17hab2844cecf719f65E:
Lfunc_begin139:
	.loc	8 490 0 is_stmt 1
	.cfi_startproc
	pushq	%rbp
	.cfi_def_cfa_offset 16
	.cfi_offset %rbp, -16
	movq	%rsp, %rbp
	.cfi_def_cfa_register %rbp
	subq	$16, %rsp
	movq	%rdi, -16(%rbp)
	movq	%rdi, -8(%rbp)
Ltmp975:
	.loc	8 490 1 prologue_end
	movq	8(%rdi), %rdx
	movl	$1, %eax
	xorl	%ecx, %ecx
	cmpq	$0, %rdx
	cmoveq	%rcx, %rax
	cmpq	$0, %rax
	jne	LBB139_2
LBB139_1:
	addq	$16, %rsp
	popq	%rbp
	retq
LBB139_2:
	.loc	8 0 1 is_stmt 0
	movq	-16(%rbp), %rdi
	.loc	8 490 1
	callq	__ZN4core3ptr80drop_in_place$LT$alloc..vec..Vec$LT$core..ops..range..Range$LT$usize$GT$$GT$$GT$17h547e7fbec70fadc8E
	jmp	LBB139_1
Ltmp976:
Lfunc_end139:
	.cfi_endproc

	.globl	__ZN4core3ptr110drop_in_place$LT$alloc..raw_vec..RawVec$LT$alloc..vec..Vec$LT$core..ops..range..Range$LT$usize$GT$$GT$$GT$$GT$17h2c0c43abe0f55b7eE
	.p2align	4, 0x90
__ZN4core3ptr110drop_in_place$LT$alloc..raw_vec..RawVec$LT$alloc..vec..Vec$LT$core..ops..range..Range$LT$usize$GT$$GT$$GT$$GT$17h2c0c43abe0f55b7eE:
Lfunc_begin140:
	.loc	8 490 0 is_stmt 1
	.cfi_startproc
	pushq	%rbp
	.cfi_def_cfa_offset 16
	.cfi_offset %rbp, -16
	movq	%rsp, %rbp
	.cfi_def_cfa_register %rbp
	subq	$16, %rsp
	movq	%rdi, -8(%rbp)
Ltmp977:
	.loc	8 490 1 prologue_end
	callq	__ZN77_$LT$alloc..raw_vec..RawVec$LT$T$C$A$GT$$u20$as$u20$core..ops..drop..Drop$GT$4drop17h2502a7d8d571c1feE
	addq	$16, %rsp
	popq	%rbp
	retq
Ltmp978:
Lfunc_end140:
	.cfi_endproc

	.globl	__ZN4core3ptr110drop_in_place$LT$alloc..vec..in_place_drop..InPlaceDrop$LT$unicode_bidi..prepare..IsolatingRunSequence$GT$$GT$17hc30d9d2c2f82d393E
	.p2align	4, 0x90
__ZN4core3ptr110drop_in_place$LT$alloc..vec..in_place_drop..InPlaceDrop$LT$unicode_bidi..prepare..IsolatingRunSequence$GT$$GT$17hc30d9d2c2f82d393E:
Lfunc_begin141:
	.loc	8 490 0
	.cfi_startproc
	pushq	%rbp
	.cfi_def_cfa_offset 16
	.cfi_offset %rbp, -16
	movq	%rsp, %rbp
	.cfi_def_cfa_register %rbp
	subq	$16, %rsp
	movq	%rdi, -8(%rbp)
Ltmp979:
	.loc	8 490 1 prologue_end
	callq	__ZN89_$LT$alloc..vec..in_place_drop..InPlaceDrop$LT$T$GT$$u20$as$u20$core..ops..drop..Drop$GT$4drop17hea6b4bf78f1f2af0E
	addq	$16, %rsp
	popq	%rbp
	retq
Ltmp980:
Lfunc_end141:
	.cfi_endproc

	.globl	__ZN4core3ptr115drop_in_place$LT$alloc..boxed..Box$LT$$u5b$alloc..vec..Vec$LT$core..ops..range..Range$LT$usize$GT$$GT$$u5d$$GT$$GT$17h986f9f1f5d311fcaE
	.p2align	4, 0x90
__ZN4core3ptr115drop_in_place$LT$alloc..boxed..Box$LT$$u5b$alloc..vec..Vec$LT$core..ops..range..Range$LT$usize$GT$$GT$$u5d$$GT$$GT$17h986f9f1f5d311fcaE:
Lfunc_begin142:
	.loc	8 490 0
	.cfi_startproc
	.cfi_personality 155, _rust_eh_personality
	.cfi_lsda 16, Lexception25
	pushq	%rbp
	.cfi_def_cfa_offset 16
	.cfi_offset %rbp, -16
	movq	%rsp, %rbp
	.cfi_def_cfa_register %rbp
	subq	$32, %rsp
	movq	%rdi, %rax
	movq	%rax, -32(%rbp)
	movq	%rax, -24(%rbp)
Ltmp987:
	.loc	8 490 1 prologue_end
	movq	(%rax), %rdi
	movq	8(%rax), %rsi
Ltmp981:
	callq	__ZN4core3ptr90drop_in_place$LT$$u5b$alloc..vec..Vec$LT$core..ops..range..Range$LT$usize$GT$$GT$$u5d$$GT$17h91f7bc0cb8ccdfbfE
Ltmp982:
	jmp	LBB142_3
LBB142_1:
	.loc	8 0 1 is_stmt 0
	movq	-32(%rbp), %rax
	.loc	8 490 1
	movq	(%rax), %rdi
	movq	8(%rax), %rsi
Ltmp984:
	callq	__ZN5alloc5alloc8box_free17h49a76d89ec38948bE
Ltmp985:
	jmp	LBB142_5
LBB142_2:
Ltmp983:
	.loc	8 0 1
	movq	%rax, %rcx
	movl	%edx, %eax
	movq	%rcx, -16(%rbp)
	movl	%eax, -8(%rbp)
	jmp	LBB142_1
LBB142_3:
	movq	-32(%rbp), %rax
	.loc	8 490 1
	movq	(%rax), %rdi
	movq	8(%rax), %rsi
	callq	__ZN5alloc5alloc8box_free17h49a76d89ec38948bE
	addq	$32, %rsp
	popq	%rbp
	retq
LBB142_4:
Ltmp986:
	callq	__ZN4core9panicking19panic_cannot_unwind17h1fbca7e1d7f56ae1E
LBB142_5:
	movq	-16(%rbp), %rdi
	callq	__Unwind_Resume
Ltmp988:
Lfunc_end142:
	.cfi_endproc
	.section	__TEXT,__gcc_except_tab
	.p2align	2
GCC_except_table142:
Lexception25:
	.byte	255
	.byte	255
	.byte	1
	.uleb128 Lcst_end25-Lcst_begin25
Lcst_begin25:
	.uleb128 Ltmp981-Lfunc_begin142
	.uleb128 Ltmp982-Ltmp981
	.uleb128 Ltmp983-Lfunc_begin142
	.byte	0
	.uleb128 Ltmp984-Lfunc_begin142
	.uleb128 Ltmp985-Ltmp984
	.uleb128 Ltmp986-Lfunc_begin142
	.byte	0
	.uleb128 Ltmp985-Lfunc_begin142
	.uleb128 Lfunc_end142-Ltmp985
	.byte	0
	.byte	0
Lcst_end25:
	.p2align	2

	.section	__TEXT,__text,regular,pure_instructions
	.globl	__ZN4core3ptr116drop_in_place$LT$alloc..vec..in_place_drop..InPlaceDstBufDrop$LT$unicode_bidi..prepare..IsolatingRunSequence$GT$$GT$17h2fcf889f3223775bE
	.p2align	4, 0x90
__ZN4core3ptr116drop_in_place$LT$alloc..vec..in_place_drop..InPlaceDstBufDrop$LT$unicode_bidi..prepare..IsolatingRunSequence$GT$$GT$17h2fcf889f3223775bE:
Lfunc_begin143:
	.loc	8 490 0 is_stmt 1
	.cfi_startproc
	pushq	%rbp
	.cfi_def_cfa_offset 16
	.cfi_offset %rbp, -16
	movq	%rsp, %rbp
	.cfi_def_cfa_register %rbp
	subq	$16, %rsp
	movq	%rdi, -8(%rbp)
Ltmp989:
	.loc	8 490 1 prologue_end
	callq	__ZN95_$LT$alloc..vec..in_place_drop..InPlaceDstBufDrop$LT$T$GT$$u20$as$u20$core..ops..drop..Drop$GT$4drop17h78969fd9f4913c03E
	addq	$16, %rsp
	popq	%rbp
	retq
Ltmp990:
Lfunc_end143:
	.cfi_endproc

	.globl	__ZN4core3ptr119drop_in_place$LT$alloc..vec..into_iter..IntoIter$LT$alloc..vec..Vec$LT$core..ops..range..Range$LT$usize$GT$$GT$$GT$$GT$17he44fbe87a4828744E
	.p2align	4, 0x90
__ZN4core3ptr119drop_in_place$LT$alloc..vec..into_iter..IntoIter$LT$alloc..vec..Vec$LT$core..ops..range..Range$LT$usize$GT$$GT$$GT$$GT$17he44fbe87a4828744E:
Lfunc_begin144:
	.loc	8 490 0
	.cfi_startproc
	pushq	%rbp
	.cfi_def_cfa_offset 16
	.cfi_offset %rbp, -16
	movq	%rsp, %rbp
	.cfi_def_cfa_register %rbp
	subq	$16, %rsp
	movq	%rdi, -8(%rbp)
Ltmp991:
	.loc	8 490 1 prologue_end
	callq	__ZN86_$LT$alloc..vec..into_iter..IntoIter$LT$T$C$A$GT$$u20$as$u20$core..ops..drop..Drop$GT$4drop17h63aab82d942f0541E
	addq	$16, %rsp
	popq	%rbp
	retq
Ltmp992:
Lfunc_end144:
	.cfi_endproc

	.globl	__ZN4core3ptr124drop_in_place$LT$core..ops..control_flow..ControlFlow$LT$alloc..vec..Vec$LT$core..ops..range..Range$LT$usize$GT$$GT$$GT$$GT$17h324b0e736bff63fcE
	.p2align	4, 0x90
__ZN4core3ptr124drop_in_place$LT$core..ops..control_flow..ControlFlow$LT$alloc..vec..Vec$LT$core..ops..range..Range$LT$usize$GT$$GT$$GT$$GT$17h324b0e736bff63fcE:
Lfunc_begin145:
	.loc	8 490 0
	.cfi_startproc
	pushq	%rbp
	.cfi_def_cfa_offset 16
	.cfi_offset %rbp, -16
	movq	%rsp, %rbp
	.cfi_def_cfa_register %rbp
	subq	$16, %rsp
	movq	%rdi, -16(%rbp)
	movq	%rdi, -8(%rbp)
Ltmp993:
	.loc	8 490 1 prologue_end
	movq	8(%rdi), %rdx
	movl	$1, %eax
	xorl	%ecx, %ecx
	cmpq	$0, %rdx
	cmoveq	%rcx, %rax
	cmpq	$0, %rax
	jne	LBB145_2
LBB145_1:
	addq	$16, %rsp
	popq	%rbp
	retq
LBB145_2:
	.loc	8 0 1 is_stmt 0
	movq	-16(%rbp), %rdi
	.loc	8 490 1
	callq	__ZN4core3ptr80drop_in_place$LT$alloc..vec..Vec$LT$core..ops..range..Range$LT$usize$GT$$GT$$GT$17h547e7fbec70fadc8E
	jmp	LBB145_1
Ltmp994:
Lfunc_end145:
	.cfi_endproc

	.globl	__ZN4core3ptr157drop_in_place$LT$core..iter..adapters..rev..Rev$LT$alloc..vec..into_iter..IntoIter$LT$alloc..vec..Vec$LT$core..ops..range..Range$LT$usize$GT$$GT$$GT$$GT$$GT$17h5e3cdb42e3dea2eaE
	.p2align	4, 0x90
__ZN4core3ptr157drop_in_place$LT$core..iter..adapters..rev..Rev$LT$alloc..vec..into_iter..IntoIter$LT$alloc..vec..Vec$LT$core..ops..range..Range$LT$usize$GT$$GT$$GT$$GT$$GT$17h5e3cdb42e3dea2eaE:
Lfunc_begin146:
	.loc	8 490 0 is_stmt 1
	.cfi_startproc
	pushq	%rbp
	.cfi_def_cfa_offset 16
	.cfi_offset %rbp, -16
	movq	%rsp, %rbp
	.cfi_def_cfa_register %rbp
	subq	$16, %rsp
	movq	%rdi, -8(%rbp)
Ltmp995:
	.loc	8 490 1 prologue_end
	callq	__ZN4core3ptr119drop_in_place$LT$alloc..vec..into_iter..IntoIter$LT$alloc..vec..Vec$LT$core..ops..range..Range$LT$usize$GT$$GT$$GT$$GT$17he44fbe87a4828744E
	addq	$16, %rsp
	popq	%rbp
	retq
Ltmp996:
Lfunc_end146:
	.cfi_endproc

	.globl	__ZN4core3ptr190drop_in_place$LT$$LT$alloc..vec..into_iter..IntoIter$LT$T$C$A$GT$$u20$as$u20$core..ops..drop..Drop$GT$..drop..DropGuard$LT$core..ops..range..Range$LT$usize$GT$$C$alloc..alloc..Global$GT$$GT$17h3a986d4bb7f4d037E
	.p2align	4, 0x90
__ZN4core3ptr190drop_in_place$LT$$LT$alloc..vec..into_iter..IntoIter$LT$T$C$A$GT$$u20$as$u20$core..ops..drop..Drop$GT$..drop..DropGuard$LT$core..ops..range..Range$LT$usize$GT$$C$alloc..alloc..Global$GT$$GT$17h3a986d4bb7f4d037E:
Lfunc_begin147:
	.loc	8 490 0
	.cfi_startproc
	pushq	%rbp
	.cfi_def_cfa_offset 16
	.cfi_offset %rbp, -16
	movq	%rsp, %rbp
	.cfi_def_cfa_register %rbp
	subq	$16, %rsp
	movq	%rdi, -8(%rbp)
Ltmp997:
	.loc	8 490 1 prologue_end
	callq	__ZN157_$LT$$LT$alloc..vec..into_iter..IntoIter$LT$T$C$A$GT$$u20$as$u20$core..ops..drop..Drop$GT$..drop..DropGuard$LT$T$C$A$GT$$u20$as$u20$core..ops..drop..Drop$GT$4drop17h34b33b8a1d9085adE
	addq	$16, %rsp
	popq	%rbp
	retq
Ltmp998:
Lfunc_end147:
	.cfi_endproc

	.globl	__ZN4core3ptr19swap_nonoverlapping17hffb77435385ccb84E
	.p2align	4, 0x90
__ZN4core3ptr19swap_nonoverlapping17hffb77435385ccb84E:
Lfunc_begin148:
	.loc	8 902 0
	.cfi_startproc
	pushq	%rbp
	.cfi_def_cfa_offset 16
	.cfi_offset %rbp, -16
	movq	%rsp, %rbp
	.cfi_def_cfa_register %rbp
	subq	$160, %rsp
	movq	%rdi, -160(%rbp)
	movq	%rsi, -152(%rbp)
	movq	%rdx, -144(%rbp)
	movq	%rdi, -128(%rbp)
	movq	%rsi, -120(%rbp)
	movq	%rdx, -112(%rbp)
Ltmp999:
	.loc	8 938 8 prologue_end
	movb	$1, %al
	testb	$1, %al
	jne	LBB148_2
	movb	$0, -132(%rbp)
	jmp	LBB148_6
LBB148_2:
Ltmp1000:
	.loc	2 309 5
	movq	$16, -104(%rbp)
Ltmp1001:
	.loc	14 2144 13
	movq	$16, -96(%rbp)
	movl	$1, %eax
Ltmp1002:
	.loc	14 89 13
	movq	%rax, -88(%rbp)
	movq	-88(%rbp), %rax
Ltmp1003:
	.loc	14 2144 13
	cmpl	$1, %eax
	sete	%al
Ltmp1004:
	.loc	8 939 13
	xorb	$-1, %al
	.loc	8 939 12 is_stmt 0
	testb	$1, %al
	jne	LBB148_4
	movb	$0, -131(%rbp)
	jmp	LBB148_5
LBB148_4:
	movb	$1, -131(%rbp)
LBB148_5:
	.loc	8 938 8 is_stmt 1
	movb	-131(%rbp), %al
	andb	$1, %al
	movb	%al, -132(%rbp)
LBB148_6:
	testb	$1, -132(%rbp)
	jne	LBB148_8
LBB148_7:
	.loc	8 0 8 is_stmt 0
	movq	-144(%rbp), %rdx
	movq	-152(%rbp), %rsi
	movq	-160(%rbp), %rdi
	.loc	8 947 14 is_stmt 1
	callq	__ZN4core3ptr34swap_nonoverlapping_simple_untyped17h9e4642ff0056ed68E
	.loc	8 948 2
	jmp	LBB148_20
LBB148_8:
	.loc	8 942 9
	movb	$1, %al
	testb	$1, %al
	jne	LBB148_10
	jmp	LBB148_9
LBB148_9:
	movb	$0, -130(%rbp)
	jmp	LBB148_11
LBB148_10:
	movb	$1, -130(%rbp)
LBB148_11:
	testb	$1, -130(%rbp)
	jne	LBB148_13
	.loc	8 943 9
	movb	$1, %al
	testb	$1, %al
	jne	LBB148_16
	jmp	LBB148_15
LBB148_13:
	.loc	8 0 9 is_stmt 0
	movq	-152(%rbp), %rsi
	movq	-160(%rbp), %rdi
	movq	-144(%rbp), %rdx
	.loc	8 942 9 is_stmt 1
	movq	%rdi, -80(%rbp)
Ltmp1005:
	.loc	12 60 9
	movq	%rdi, -72(%rbp)
Ltmp1006:
	.loc	8 942 9
	movq	%rsi, -64(%rbp)
Ltmp1007:
	.loc	12 60 9
	movq	%rsi, -56(%rbp)
Ltmp1008:
	.loc	8 942 9
	shlq	$1, %rdx
	movq	%rdx, -48(%rbp)
Ltmp1009:
	.loc	8 942 9 is_stmt 0
	callq	__ZN4core3ptr34swap_nonoverlapping_simple_untyped17h0a2dfdc1439a2028E
Ltmp1010:
LBB148_14:
	.loc	8 948 2 is_stmt 1
	jmp	LBB148_20
LBB148_15:
	.loc	8 943 9
	movb	$0, -129(%rbp)
	jmp	LBB148_17
LBB148_16:
	movb	$1, -129(%rbp)
LBB148_17:
	testb	$1, -129(%rbp)
	jne	LBB148_19
	.loc	8 938 5
	jmp	LBB148_7
LBB148_19:
	.loc	8 0 5 is_stmt 0
	movq	-152(%rbp), %rsi
	movq	-160(%rbp), %rdi
	movq	-144(%rbp), %rdx
	.loc	8 943 9 is_stmt 1
	movq	%rdi, -40(%rbp)
Ltmp1011:
	.loc	12 60 9
	movq	%rdi, -32(%rbp)
Ltmp1012:
	.loc	8 943 9
	movq	%rsi, -24(%rbp)
Ltmp1013:
	.loc	12 60 9
	movq	%rsi, -16(%rbp)
Ltmp1014:
	.loc	8 943 9
	shlq	$4, %rdx
	movq	%rdx, -8(%rbp)
Ltmp1015:
	.loc	8 943 9 is_stmt 0
	callq	__ZN4core3ptr34swap_nonoverlapping_simple_untyped17h2c4f328f87e521bcE
Ltmp1016:
	.loc	30 1 1 is_stmt 1
	jmp	LBB148_14
LBB148_20:
	.loc	8 948 2
	addq	$160, %rsp
	popq	%rbp
	retq
Ltmp1017:
Lfunc_end148:
	.cfi_endproc

	.globl	__ZN4core3ptr213drop_in_place$LT$$LT$alloc..vec..into_iter..IntoIter$LT$T$C$A$GT$$u20$as$u20$core..ops..drop..Drop$GT$..drop..DropGuard$LT$alloc..vec..Vec$LT$core..ops..range..Range$LT$usize$GT$$GT$$C$alloc..alloc..Global$GT$$GT$17h5a4249a4ccf94ab3E
	.p2align	4, 0x90
__ZN4core3ptr213drop_in_place$LT$$LT$alloc..vec..into_iter..IntoIter$LT$T$C$A$GT$$u20$as$u20$core..ops..drop..Drop$GT$..drop..DropGuard$LT$alloc..vec..Vec$LT$core..ops..range..Range$LT$usize$GT$$GT$$C$alloc..alloc..Global$GT$$GT$17h5a4249a4ccf94ab3E:
Lfunc_begin149:
	.loc	8 490 0
	.cfi_startproc
	pushq	%rbp
	.cfi_def_cfa_offset 16
	.cfi_offset %rbp, -16
	movq	%rsp, %rbp
	.cfi_def_cfa_register %rbp
	subq	$16, %rsp
	movq	%rdi, -8(%rbp)
Ltmp1018:
	.loc	8 490 1 prologue_end
	callq	__ZN157_$LT$$LT$alloc..vec..into_iter..IntoIter$LT$T$C$A$GT$$u20$as$u20$core..ops..drop..Drop$GT$..drop..DropGuard$LT$T$C$A$GT$$u20$as$u20$core..ops..drop..Drop$GT$4drop17hcdfb30e7bb5b0b1aE
	addq	$16, %rsp
	popq	%rbp
	retq
Ltmp1019:
Lfunc_end149:
	.cfi_endproc

	.globl	__ZN4core3ptr235drop_in_place$LT$core..iter..adapters..map..Map$LT$alloc..vec..into_iter..IntoIter$LT$alloc..vec..Vec$LT$core..ops..range..Range$LT$usize$GT$$GT$$GT$$C$unicode_bidi..prepare..isolating_run_sequences..$u7b$$u7b$closure$u7d$$u7d$$GT$$GT$17hcb90fded53516241E
	.p2align	4, 0x90
__ZN4core3ptr235drop_in_place$LT$core..iter..adapters..map..Map$LT$alloc..vec..into_iter..IntoIter$LT$alloc..vec..Vec$LT$core..ops..range..Range$LT$usize$GT$$GT$$GT$$C$unicode_bidi..prepare..isolating_run_sequences..$u7b$$u7b$closure$u7d$$u7d$$GT$$GT$17hcb90fded53516241E:
Lfunc_begin150:
	.loc	8 490 0
	.cfi_startproc
	pushq	%rbp
	.cfi_def_cfa_offset 16
	.cfi_offset %rbp, -16
	movq	%rsp, %rbp
	.cfi_def_cfa_register %rbp
	subq	$16, %rsp
	movq	%rdi, -8(%rbp)
Ltmp1020:
	.loc	8 490 1 prologue_end
	callq	__ZN4core3ptr119drop_in_place$LT$alloc..vec..into_iter..IntoIter$LT$alloc..vec..Vec$LT$core..ops..range..Range$LT$usize$GT$$GT$$GT$$GT$17he44fbe87a4828744E
	addq	$16, %rsp
	popq	%rbp
	retq
Ltmp1021:
Lfunc_end150:
	.cfi_endproc

	.globl	__ZN4core3ptr257drop_in_place$LT$alloc..vec..Vec$LT$unicode_bidi..level..Level$GT$..extend_trusted$LT$core..iter..adapters..map..Map$LT$core..slice..iter..Iter$LT$u8$GT$$C$unicode_bidi..level..Level..vec..$u7b$$u7b$closure$u7d$$u7d$$GT$$GT$..$u7b$$u7b$closure$u7d$$u7d$$GT$17h119de264270ef179E
	.p2align	4, 0x90
__ZN4core3ptr257drop_in_place$LT$alloc..vec..Vec$LT$unicode_bidi..level..Level$GT$..extend_trusted$LT$core..iter..adapters..map..Map$LT$core..slice..iter..Iter$LT$u8$GT$$C$unicode_bidi..level..Level..vec..$u7b$$u7b$closure$u7d$$u7d$$GT$$GT$..$u7b$$u7b$closure$u7d$$u7d$$GT$17h119de264270ef179E:
Lfunc_begin151:
	.loc	8 490 0
	.cfi_startproc
	pushq	%rbp
	.cfi_def_cfa_offset 16
	.cfi_offset %rbp, -16
	movq	%rsp, %rbp
	.cfi_def_cfa_register %rbp
	subq	$16, %rsp
	movq	%rdi, -8(%rbp)
Ltmp1022:
	.loc	8 490 1 prologue_end
	callq	__ZN4core3ptr62drop_in_place$LT$alloc..vec..set_len_on_drop..SetLenOnDrop$GT$17h97014dfac3b9d36fE
	addq	$16, %rsp
	popq	%rbp
	retq
Ltmp1023:
Lfunc_end151:
	.cfi_endproc

	.globl	__ZN4core3ptr264drop_in_place$LT$alloc..vec..Vec$LT$unicode_bidi..char_data..tables..BidiClass$GT$..extend_trusted$LT$core..iter..adapters..take..Take$LT$core..iter..sources..repeat..Repeat$LT$unicode_bidi..char_data..tables..BidiClass$GT$$GT$$GT$..$u7b$$u7b$closure$u7d$$u7d$$GT$17he50018e444b258d7E
	.p2align	4, 0x90
__ZN4core3ptr264drop_in_place$LT$alloc..vec..Vec$LT$unicode_bidi..char_data..tables..BidiClass$GT$..extend_trusted$LT$core..iter..adapters..take..Take$LT$core..iter..sources..repeat..Repeat$LT$unicode_bidi..char_data..tables..BidiClass$GT$$GT$$GT$..$u7b$$u7b$closure$u7d$$u7d$$GT$17he50018e444b258d7E:
Lfunc_begin152:
	.loc	8 490 0
	.cfi_startproc
	pushq	%rbp
	.cfi_def_cfa_offset 16
	.cfi_offset %rbp, -16
	movq	%rsp, %rbp
	.cfi_def_cfa_register %rbp
	subq	$16, %rsp
	movq	%rdi, -8(%rbp)
Ltmp1024:
	.loc	8 490 1 prologue_end
	callq	__ZN4core3ptr62drop_in_place$LT$alloc..vec..set_len_on_drop..SetLenOnDrop$GT$17h97014dfac3b9d36fE
	addq	$16, %rsp
	popq	%rbp
	retq
Ltmp1025:
Lfunc_end152:
	.cfi_endproc

	.p2align	4, 0x90
__ZN4core3ptr26drop_in_place$LT$$u21$$GT$17h1c53570557c971eeE:
Lfunc_begin153:
	.loc	8 490 0
	.cfi_startproc
	pushq	%rbp
	.cfi_def_cfa_offset 16
	.cfi_offset %rbp, -16
	movq	%rsp, %rbp
	.cfi_def_cfa_register %rbp
	pushq	%rax
	movq	%rdi, -8(%rbp)
Ltmp1026:
	.loc	8 490 1 prologue_end
	addq	$8, %rsp
	popq	%rbp
	retq
Ltmp1027:
Lfunc_end153:
	.cfi_endproc

	.globl	__ZN4core3ptr279drop_in_place$LT$core..iter..adapters..filter..Filter$LT$core..iter..adapters..rev..Rev$LT$alloc..vec..into_iter..IntoIter$LT$alloc..vec..Vec$LT$core..ops..range..Range$LT$usize$GT$$GT$$GT$$GT$$C$unicode_bidi..prepare..isolating_run_sequences..$u7b$$u7b$closure$u7d$$u7d$$GT$$GT$17h0c68b1e06aea71ebE
	.p2align	4, 0x90
__ZN4core3ptr279drop_in_place$LT$core..iter..adapters..filter..Filter$LT$core..iter..adapters..rev..Rev$LT$alloc..vec..into_iter..IntoIter$LT$alloc..vec..Vec$LT$core..ops..range..Range$LT$usize$GT$$GT$$GT$$GT$$C$unicode_bidi..prepare..isolating_run_sequences..$u7b$$u7b$closure$u7d$$u7d$$GT$$GT$17h0c68b1e06aea71ebE:
Lfunc_begin154:
	.loc	8 490 0
	.cfi_startproc
	pushq	%rbp
	.cfi_def_cfa_offset 16
	.cfi_offset %rbp, -16
	movq	%rsp, %rbp
	.cfi_def_cfa_register %rbp
	subq	$16, %rsp
	movq	%rdi, -8(%rbp)
Ltmp1028:
	.loc	8 490 1 prologue_end
	callq	__ZN4core3ptr157drop_in_place$LT$core..iter..adapters..rev..Rev$LT$alloc..vec..into_iter..IntoIter$LT$alloc..vec..Vec$LT$core..ops..range..Range$LT$usize$GT$$GT$$GT$$GT$$GT$17h5e3cdb42e3dea2eaE
	addq	$16, %rsp
	popq	%rbp
	retq
Ltmp1029:
Lfunc_end154:
	.cfi_endproc

	.p2align	4, 0x90
__ZN4core3ptr27drop_in_place$LT$$RF$u8$GT$17h8196b0891cf14996E:
Lfunc_begin155:
	.loc	8 490 0
	.cfi_startproc
	pushq	%rbp
	.cfi_def_cfa_offset 16
	.cfi_offset %rbp, -16
	movq	%rsp, %rbp
	.cfi_def_cfa_register %rbp
	pushq	%rax
	movq	%rdi, -8(%rbp)
Ltmp1030:
	.loc	8 490 1 prologue_end
	addq	$8, %rsp
	popq	%rbp
	retq
Ltmp1031:
Lfunc_end155:
	.cfi_endproc

	.p2align	4, 0x90
__ZN4core3ptr30drop_in_place$LT$$RF$usize$GT$17he0900f097ff93fabE:
Lfunc_begin156:
	.loc	8 490 0
	.cfi_startproc
	pushq	%rbp
	.cfi_def_cfa_offset 16
	.cfi_offset %rbp, -16
	movq	%rsp, %rbp
	.cfi_def_cfa_register %rbp
	pushq	%rax
	movq	%rdi, -8(%rbp)
Ltmp1032:
	.loc	8 490 1 prologue_end
	addq	$8, %rsp
	popq	%rbp
	retq
Ltmp1033:
Lfunc_end156:
	.cfi_endproc

	.p2align	4, 0x90
__ZN4core3ptr32drop_in_place$LT$$RF$$RF$str$GT$17hd879871a278db9e7E:
Lfunc_begin157:
	.loc	8 490 0
	.cfi_startproc
	pushq	%rbp
	.cfi_def_cfa_offset 16
	.cfi_offset %rbp, -16
	movq	%rsp, %rbp
	.cfi_def_cfa_register %rbp
	pushq	%rax
	movq	%rdi, -8(%rbp)
Ltmp1034:
	.loc	8 490 1 prologue_end
	addq	$8, %rsp
	popq	%rbp
	retq
Ltmp1035:
Lfunc_end157:
	.cfi_endproc

	.globl	__ZN4core3ptr34swap_nonoverlapping_simple_untyped17h0a2dfdc1439a2028E
	.p2align	4, 0x90
__ZN4core3ptr34swap_nonoverlapping_simple_untyped17h0a2dfdc1439a2028E:
Lfunc_begin158:
	.loc	8 956 0
	.cfi_startproc
	pushq	%rbp
	.cfi_def_cfa_offset 16
	.cfi_offset %rbp, -16
	movq	%rsp, %rbp
	.cfi_def_cfa_register %rbp
	subq	$192, %rsp
	movq	%rdi, -184(%rbp)
	movq	%rsi, -176(%rbp)
	movq	%rdx, -168(%rbp)
	movq	%rdi, -152(%rbp)
	movq	%rsi, -144(%rbp)
	movq	%rdx, -136(%rbp)
Ltmp1036:
	.loc	8 957 13 prologue_end
	movq	%rdi, -128(%rbp)
Ltmp1037:
	.loc	12 60 9
	movq	%rdi, -120(%rbp)
Ltmp1038:
	.loc	8 958 13
	movq	%rsi, -112(%rbp)
Ltmp1039:
	.loc	12 60 9
	movq	%rsi, -104(%rbp)
Ltmp1040:
	.loc	8 959 17
	movq	$0, -160(%rbp)
LBB158_1:
	.loc	8 0 17 is_stmt 0
	movq	-168(%rbp), %rax
Ltmp1041:
	.loc	8 960 11 is_stmt 1
	cmpq	%rax, -160(%rbp)
	jb	LBB158_3
Ltmp1042:
	.loc	8 970 2
	addq	$192, %rsp
	popq	%rbp
	retq
LBB158_3:
	.loc	8 0 2 is_stmt 0
	movq	-176(%rbp), %rax
	movq	-184(%rbp), %rcx
Ltmp1043:
	.loc	8 962 32 is_stmt 1
	movq	%rcx, -96(%rbp)
	.loc	8 962 38 is_stmt 0
	movq	-160(%rbp), %rdx
	movq	%rdx, -88(%rbp)
Ltmp1044:
	.loc	12 1034 18 is_stmt 1
	movq	%rcx, -80(%rbp)
	.loc	12 1034 30 is_stmt 0
	movq	%rdx, -72(%rbp)
Ltmp1045:
	.loc	12 487 18 is_stmt 1
	shlq	$3, %rdx
	addq	%rdx, %rcx
	movq	%rcx, -64(%rbp)
	movq	-64(%rbp), %rdi
Ltmp1046:
	.loc	8 962 26
	movq	%rdi, -56(%rbp)
Ltmp1047:
	.loc	8 965 32
	movq	%rax, -48(%rbp)
	.loc	8 965 38 is_stmt 0
	movq	-160(%rbp), %rcx
	movq	%rcx, -40(%rbp)
Ltmp1048:
	.loc	12 1034 18 is_stmt 1
	movq	%rax, -32(%rbp)
	.loc	12 1034 30 is_stmt 0
	movq	%rcx, -24(%rbp)
Ltmp1049:
	.loc	12 487 18 is_stmt 1
	shlq	$3, %rcx
	addq	%rcx, %rax
	movq	%rax, -16(%rbp)
	movq	-16(%rbp), %rsi
Ltmp1050:
	.loc	8 965 26
	movq	%rsi, -8(%rbp)
Ltmp1051:
	.loc	8 966 9
	callq	__ZN4core3mem11swap_simple17h00a0a7d6bfd5bac7E
	.loc	8 968 9
	movq	-160(%rbp), %rax
	addq	$1, %rax
	movq	%rax, -160(%rbp)
Ltmp1052:
	.loc	8 960 5
	jmp	LBB158_1
Ltmp1053:
Lfunc_end158:
	.cfi_endproc

	.globl	__ZN4core3ptr34swap_nonoverlapping_simple_untyped17h2c4f328f87e521bcE
	.p2align	4, 0x90
__ZN4core3ptr34swap_nonoverlapping_simple_untyped17h2c4f328f87e521bcE:
Lfunc_begin159:
	.loc	8 956 0
	.cfi_startproc
	pushq	%rbp
	.cfi_def_cfa_offset 16
	.cfi_offset %rbp, -16
	movq	%rsp, %rbp
	.cfi_def_cfa_register %rbp
	subq	$192, %rsp
	movq	%rdi, -184(%rbp)
	movq	%rsi, -176(%rbp)
	movq	%rdx, -168(%rbp)
	movq	%rdi, -152(%rbp)
	movq	%rsi, -144(%rbp)
	movq	%rdx, -136(%rbp)
Ltmp1054:
	.loc	8 957 13 prologue_end
	movq	%rdi, -128(%rbp)
Ltmp1055:
	.loc	12 60 9
	movq	%rdi, -120(%rbp)
Ltmp1056:
	.loc	8 958 13
	movq	%rsi, -112(%rbp)
Ltmp1057:
	.loc	12 60 9
	movq	%rsi, -104(%rbp)
Ltmp1058:
	.loc	8 959 17
	movq	$0, -160(%rbp)
LBB159_1:
	.loc	8 0 17 is_stmt 0
	movq	-168(%rbp), %rax
Ltmp1059:
	.loc	8 960 11 is_stmt 1
	cmpq	%rax, -160(%rbp)
	jb	LBB159_3
Ltmp1060:
	.loc	8 970 2
	addq	$192, %rsp
	popq	%rbp
	retq
LBB159_3:
	.loc	8 0 2 is_stmt 0
	movq	-176(%rbp), %rax
	movq	-184(%rbp), %rcx
Ltmp1061:
	.loc	8 962 32 is_stmt 1
	movq	%rcx, -96(%rbp)
	.loc	8 962 38 is_stmt 0
	movq	-160(%rbp), %rdx
	movq	%rdx, -88(%rbp)
Ltmp1062:
	.loc	12 1034 18 is_stmt 1
	movq	%rcx, -80(%rbp)
	.loc	12 1034 30 is_stmt 0
	movq	%rdx, -72(%rbp)
Ltmp1063:
	.loc	12 487 18 is_stmt 1
	addq	%rdx, %rcx
	movq	%rcx, -64(%rbp)
	movq	-64(%rbp), %rdi
Ltmp1064:
	.loc	8 962 26
	movq	%rdi, -56(%rbp)
Ltmp1065:
	.loc	8 965 32
	movq	%rax, -48(%rbp)
	.loc	8 965 38 is_stmt 0
	movq	-160(%rbp), %rcx
	movq	%rcx, -40(%rbp)
Ltmp1066:
	.loc	12 1034 18 is_stmt 1
	movq	%rax, -32(%rbp)
	.loc	12 1034 30 is_stmt 0
	movq	%rcx, -24(%rbp)
Ltmp1067:
	.loc	12 487 18 is_stmt 1
	addq	%rcx, %rax
	movq	%rax, -16(%rbp)
	movq	-16(%rbp), %rsi
Ltmp1068:
	.loc	8 965 26
	movq	%rsi, -8(%rbp)
Ltmp1069:
	.loc	8 966 9
	callq	__ZN4core3mem11swap_simple17h924aa4a5efe6f8d9E
	.loc	8 968 9
	movq	-160(%rbp), %rax
	addq	$1, %rax
	movq	%rax, -160(%rbp)
Ltmp1070:
	.loc	8 960 5
	jmp	LBB159_1
Ltmp1071:
Lfunc_end159:
	.cfi_endproc

	.globl	__ZN4core3ptr34swap_nonoverlapping_simple_untyped17h9e4642ff0056ed68E
	.p2align	4, 0x90
__ZN4core3ptr34swap_nonoverlapping_simple_untyped17h9e4642ff0056ed68E:
Lfunc_begin160:
	.loc	8 956 0
	.cfi_startproc
	pushq	%rbp
	.cfi_def_cfa_offset 16
	.cfi_offset %rbp, -16
	movq	%rsp, %rbp
	.cfi_def_cfa_register %rbp
	subq	$192, %rsp
	movq	%rdi, -184(%rbp)
	movq	%rsi, -176(%rbp)
	movq	%rdx, -168(%rbp)
	movq	%rdi, -152(%rbp)
	movq	%rsi, -144(%rbp)
	movq	%rdx, -136(%rbp)
Ltmp1072:
	.loc	8 957 13 prologue_end
	movq	%rdi, -128(%rbp)
Ltmp1073:
	.loc	12 60 9
	movq	%rdi, -120(%rbp)
Ltmp1074:
	.loc	8 958 13
	movq	%rsi, -112(%rbp)
Ltmp1075:
	.loc	12 60 9
	movq	%rsi, -104(%rbp)
Ltmp1076:
	.loc	8 959 17
	movq	$0, -160(%rbp)
LBB160_1:
	.loc	8 0 17 is_stmt 0
	movq	-168(%rbp), %rax
Ltmp1077:
	.loc	8 960 11 is_stmt 1
	cmpq	%rax, -160(%rbp)
	jb	LBB160_3
Ltmp1078:
	.loc	8 970 2
	addq	$192, %rsp
	popq	%rbp
	retq
LBB160_3:
	.loc	8 0 2 is_stmt 0
	movq	-176(%rbp), %rax
	movq	-184(%rbp), %rcx
Ltmp1079:
	.loc	8 962 32 is_stmt 1
	movq	%rcx, -96(%rbp)
	.loc	8 962 38 is_stmt 0
	movq	-160(%rbp), %rdx
	movq	%rdx, -88(%rbp)
Ltmp1080:
	.loc	12 1034 18 is_stmt 1
	movq	%rcx, -80(%rbp)
	.loc	12 1034 30 is_stmt 0
	movq	%rdx, -72(%rbp)
Ltmp1081:
	.loc	12 487 18 is_stmt 1
	shlq	$4, %rdx
	addq	%rdx, %rcx
	movq	%rcx, -64(%rbp)
	movq	-64(%rbp), %rdi
Ltmp1082:
	.loc	8 962 26
	movq	%rdi, -56(%rbp)
Ltmp1083:
	.loc	8 965 32
	movq	%rax, -48(%rbp)
	.loc	8 965 38 is_stmt 0
	movq	-160(%rbp), %rcx
	movq	%rcx, -40(%rbp)
Ltmp1084:
	.loc	12 1034 18 is_stmt 1
	movq	%rax, -32(%rbp)
	.loc	12 1034 30 is_stmt 0
	movq	%rcx, -24(%rbp)
Ltmp1085:
	.loc	12 487 18 is_stmt 1
	shlq	$4, %rcx
	addq	%rcx, %rax
	movq	%rax, -16(%rbp)
	movq	-16(%rbp), %rsi
Ltmp1086:
	.loc	8 965 26
	movq	%rsi, -8(%rbp)
Ltmp1087:
	.loc	8 966 9
	callq	__ZN4core3mem11swap_simple17h5d27960908906f8fE
	.loc	8 968 9
	movq	-160(%rbp), %rax
	addq	$1, %rax
	movq	%rax, -160(%rbp)
Ltmp1088:
	.loc	8 960 5
	jmp	LBB160_1
Ltmp1089:
Lfunc_end160:
	.cfi_endproc

	.globl	__ZN4core3ptr354drop_in_place$LT$alloc..vec..Vec$LT$unicode_bidi..prepare..IsolatingRunSequence$GT$..extend_trusted$LT$core..iter..adapters..map..Map$LT$alloc..vec..into_iter..IntoIter$LT$alloc..vec..Vec$LT$core..ops..range..Range$LT$usize$GT$$GT$$GT$$C$unicode_bidi..prepare..isolating_run_sequences..$u7b$$u7b$closure$u7d$$u7d$$GT$$GT$..$u7b$$u7b$closure$u7d$$u7d$$GT$17hac0a9f21993c5738E
	.p2align	4, 0x90
__ZN4core3ptr354drop_in_place$LT$alloc..vec..Vec$LT$unicode_bidi..prepare..IsolatingRunSequence$GT$..extend_trusted$LT$core..iter..adapters..map..Map$LT$alloc..vec..into_iter..IntoIter$LT$alloc..vec..Vec$LT$core..ops..range..Range$LT$usize$GT$$GT$$GT$$C$unicode_bidi..prepare..isolating_run_sequences..$u7b$$u7b$closure$u7d$$u7d$$GT$$GT$..$u7b$$u7b$closure$u7d$$u7d$$GT$17hac0a9f21993c5738E:
Lfunc_begin161:
	.loc	8 490 0
	.cfi_startproc
	pushq	%rbp
	.cfi_def_cfa_offset 16
	.cfi_offset %rbp, -16
	movq	%rsp, %rbp
	.cfi_def_cfa_register %rbp
	subq	$16, %rsp
	movq	%rdi, -8(%rbp)
Ltmp1090:
	.loc	8 490 1 prologue_end
	callq	__ZN4core3ptr62drop_in_place$LT$alloc..vec..set_len_on_drop..SetLenOnDrop$GT$17h97014dfac3b9d36fE
	addq	$16, %rsp
	popq	%rbp
	retq
Ltmp1091:
Lfunc_end161:
	.cfi_endproc

	.globl	__ZN4core3ptr377drop_in_place$LT$core..iter..traits..iterator..Iterator..for_each..call$LT$unicode_bidi..level..Level$C$alloc..vec..Vec$LT$unicode_bidi..level..Level$GT$..extend_trusted$LT$core..iter..adapters..map..Map$LT$core..slice..iter..Iter$LT$u8$GT$$C$unicode_bidi..level..Level..vec..$u7b$$u7b$closure$u7d$$u7d$$GT$$GT$..$u7b$$u7b$closure$u7d$$u7d$$GT$..$u7b$$u7b$closure$u7d$$u7d$$GT$17hd51b8fcee3a55f1cE
	.p2align	4, 0x90
__ZN4core3ptr377drop_in_place$LT$core..iter..traits..iterator..Iterator..for_each..call$LT$unicode_bidi..level..Level$C$alloc..vec..Vec$LT$unicode_bidi..level..Level$GT$..extend_trusted$LT$core..iter..adapters..map..Map$LT$core..slice..iter..Iter$LT$u8$GT$$C$unicode_bidi..level..Level..vec..$u7b$$u7b$closure$u7d$$u7d$$GT$$GT$..$u7b$$u7b$closure$u7d$$u7d$$GT$..$u7b$$u7b$closure$u7d$$u7d$$GT$17hd51b8fcee3a55f1cE:
Lfunc_begin162:
	.loc	8 490 0
	.cfi_startproc
	pushq	%rbp
	.cfi_def_cfa_offset 16
	.cfi_offset %rbp, -16
	movq	%rsp, %rbp
	.cfi_def_cfa_register %rbp
	subq	$16, %rsp
	movq	%rdi, -8(%rbp)
Ltmp1092:
	.loc	8 490 1 prologue_end
	callq	__ZN4core3ptr257drop_in_place$LT$alloc..vec..Vec$LT$unicode_bidi..level..Level$GT$..extend_trusted$LT$core..iter..adapters..map..Map$LT$core..slice..iter..Iter$LT$u8$GT$$C$unicode_bidi..level..Level..vec..$u7b$$u7b$closure$u7d$$u7d$$GT$$GT$..$u7b$$u7b$closure$u7d$$u7d$$GT$17h119de264270ef179E
	addq	$16, %rsp
	popq	%rbp
	retq
Ltmp1093:
Lfunc_end162:
	.cfi_endproc

	.globl	__ZN4core3ptr42drop_in_place$LT$alloc..string..String$GT$17h4e7d11210995f00cE
	.p2align	4, 0x90
__ZN4core3ptr42drop_in_place$LT$alloc..string..String$GT$17h4e7d11210995f00cE:
Lfunc_begin163:
	.loc	8 490 0
	.cfi_startproc
	pushq	%rbp
	.cfi_def_cfa_offset 16
	.cfi_offset %rbp, -16
	movq	%rsp, %rbp
	.cfi_def_cfa_register %rbp
	subq	$16, %rsp
	movq	%rdi, -8(%rbp)
Ltmp1094:
	.loc	8 490 1 prologue_end
	callq	__ZN4core3ptr46drop_in_place$LT$alloc..vec..Vec$LT$u8$GT$$GT$17h0ddc1914ea669d68E
	addq	$16, %rsp
	popq	%rbp
	retq
Ltmp1095:
Lfunc_end163:
	.cfi_endproc

	.globl	__ZN4core3ptr462drop_in_place$LT$$LT$core..iter..adapters..take..Take$LT$I$GT$$u20$as$u20$core..iter..traits..iterator..Iterator$GT$..for_each..check$LT$unicode_bidi..char_data..tables..BidiClass$C$alloc..vec..Vec$LT$unicode_bidi..char_data..tables..BidiClass$GT$..extend_trusted$LT$core..iter..adapters..take..Take$LT$core..iter..sources..repeat..Repeat$LT$unicode_bidi..char_data..tables..BidiClass$GT$$GT$$GT$..$u7b$$u7b$closure$u7d$$u7d$$GT$..$u7b$$u7b$closure$u7d$$u7d$$GT$17h6ef375c0ad07d581E
	.p2align	4, 0x90
__ZN4core3ptr462drop_in_place$LT$$LT$core..iter..adapters..take..Take$LT$I$GT$$u20$as$u20$core..iter..traits..iterator..Iterator$GT$..for_each..check$LT$unicode_bidi..char_data..tables..BidiClass$C$alloc..vec..Vec$LT$unicode_bidi..char_data..tables..BidiClass$GT$..extend_trusted$LT$core..iter..adapters..take..Take$LT$core..iter..sources..repeat..Repeat$LT$unicode_bidi..char_data..tables..BidiClass$GT$$GT$$GT$..$u7b$$u7b$closure$u7d$$u7d$$GT$..$u7b$$u7b$closure$u7d$$u7d$$GT$17h6ef375c0ad07d581E:
Lfunc_begin164:
	.loc	8 490 0
	.cfi_startproc
	pushq	%rbp
	.cfi_def_cfa_offset 16
	.cfi_offset %rbp, -16
	movq	%rsp, %rbp
	.cfi_def_cfa_register %rbp
	subq	$16, %rsp
	movq	%rdi, -8(%rbp)
Ltmp1096:
	.loc	8 490 1 prologue_end
	callq	__ZN4core3ptr264drop_in_place$LT$alloc..vec..Vec$LT$unicode_bidi..char_data..tables..BidiClass$GT$..extend_trusted$LT$core..iter..adapters..take..Take$LT$core..iter..sources..repeat..Repeat$LT$unicode_bidi..char_data..tables..BidiClass$GT$$GT$$GT$..$u7b$$u7b$closure$u7d$$u7d$$GT$17he50018e444b258d7E
	addq	$16, %rsp
	popq	%rbp
	retq
Ltmp1097:
Lfunc_end164:
	.cfi_endproc

	.globl	__ZN4core3ptr46drop_in_place$LT$alloc..vec..Vec$LT$u8$GT$$GT$17h0ddc1914ea669d68E
	.p2align	4, 0x90
__ZN4core3ptr46drop_in_place$LT$alloc..vec..Vec$LT$u8$GT$$GT$17h0ddc1914ea669d68E:
Lfunc_begin165:
	.loc	8 490 0
	.cfi_startproc
	.cfi_personality 155, _rust_eh_personality
	.cfi_lsda 16, Lexception26
	pushq	%rbp
	.cfi_def_cfa_offset 16
	.cfi_offset %rbp, -16
	movq	%rsp, %rbp
	.cfi_def_cfa_register %rbp
	subq	$32, %rsp
	movq	%rdi, -32(%rbp)
	movq	%rdi, -24(%rbp)
Ltmp1098:
Ltmp1104:
	.loc	8 490 1 prologue_end
	callq	__ZN70_$LT$alloc..vec..Vec$LT$T$C$A$GT$$u20$as$u20$core..ops..drop..Drop$GT$4drop17h5d1014ab79382b78E
Ltmp1099:
	jmp	LBB165_3
LBB165_1:
Ltmp1101:
	.loc	8 0 1 is_stmt 0
	movq	-32(%rbp), %rdi
	.loc	8 490 1
	callq	__ZN4core3ptr53drop_in_place$LT$alloc..raw_vec..RawVec$LT$u8$GT$$GT$17h2e9570787b919da8E
Ltmp1102:
	jmp	LBB165_5
LBB165_2:
Ltmp1100:
	.loc	8 0 1
	movq	%rax, %rcx
	movl	%edx, %eax
	movq	%rcx, -16(%rbp)
	movl	%eax, -8(%rbp)
	jmp	LBB165_1
LBB165_3:
	movq	-32(%rbp), %rdi
	.loc	8 490 1
	callq	__ZN4core3ptr53drop_in_place$LT$alloc..raw_vec..RawVec$LT$u8$GT$$GT$17h2e9570787b919da8E
	addq	$32, %rsp
	popq	%rbp
	retq
LBB165_4:
Ltmp1103:
	callq	__ZN4core9panicking19panic_cannot_unwind17h1fbca7e1d7f56ae1E
LBB165_5:
	movq	-16(%rbp), %rdi
	callq	__Unwind_Resume
Ltmp1105:
Lfunc_end165:
	.cfi_endproc
	.section	__TEXT,__gcc_except_tab
	.p2align	2
GCC_except_table165:
Lexception26:
	.byte	255
	.byte	255
	.byte	1
	.uleb128 Lcst_end26-Lcst_begin26
Lcst_begin26:
	.uleb128 Ltmp1098-Lfunc_begin165
	.uleb128 Ltmp1099-Ltmp1098
	.uleb128 Ltmp1100-Lfunc_begin165
	.byte	0
	.uleb128 Ltmp1101-Lfunc_begin165
	.uleb128 Ltmp1102-Ltmp1101
	.uleb128 Ltmp1103-Lfunc_begin165
	.byte	0
	.uleb128 Ltmp1102-Lfunc_begin165
	.uleb128 Lfunc_end165-Ltmp1102
	.byte	0
	.byte	0
Lcst_end26:
	.p2align	2

	.section	__TEXT,__text,regular,pure_instructions
	.p2align	4, 0x90
__ZN4core3ptr47drop_in_place$LT$unicode_bidi..level..Error$GT$17h4cdb313c632be068E:
Lfunc_begin166:
	.loc	8 490 0 is_stmt 1
	.cfi_startproc
	pushq	%rbp
	.cfi_def_cfa_offset 16
	.cfi_offset %rbp, -16
	movq	%rsp, %rbp
	.cfi_def_cfa_register %rbp
	pushq	%rax
	movq	%rdi, -8(%rbp)
Ltmp1106:
	.loc	8 490 1 prologue_end
	addq	$8, %rsp
	popq	%rbp
	retq
Ltmp1107:
Lfunc_end166:
	.cfi_endproc

	.globl	__ZN4core3ptr491drop_in_place$LT$core..iter..traits..iterator..Iterator..for_each..call$LT$unicode_bidi..prepare..IsolatingRunSequence$C$alloc..vec..Vec$LT$unicode_bidi..prepare..IsolatingRunSequence$GT$..extend_trusted$LT$core..iter..adapters..map..Map$LT$alloc..vec..into_iter..IntoIter$LT$alloc..vec..Vec$LT$core..ops..range..Range$LT$usize$GT$$GT$$GT$$C$unicode_bidi..prepare..isolating_run_sequences..$u7b$$u7b$closure$u7d$$u7d$$GT$$GT$..$u7b$$u7b$closure$u7d$$u7d$$GT$..$u7b$$u7b$closure$u7d$$u7d$$GT$17h42597213b0069c61E
	.p2align	4, 0x90
__ZN4core3ptr491drop_in_place$LT$core..iter..traits..iterator..Iterator..for_each..call$LT$unicode_bidi..prepare..IsolatingRunSequence$C$alloc..vec..Vec$LT$unicode_bidi..prepare..IsolatingRunSequence$GT$..extend_trusted$LT$core..iter..adapters..map..Map$LT$alloc..vec..into_iter..IntoIter$LT$alloc..vec..Vec$LT$core..ops..range..Range$LT$usize$GT$$GT$$GT$$C$unicode_bidi..prepare..isolating_run_sequences..$u7b$$u7b$closure$u7d$$u7d$$GT$$GT$..$u7b$$u7b$closure$u7d$$u7d$$GT$..$u7b$$u7b$closure$u7d$$u7d$$GT$17h42597213b0069c61E:
Lfunc_begin167:
	.loc	8 490 0
	.cfi_startproc
	pushq	%rbp
	.cfi_def_cfa_offset 16
	.cfi_offset %rbp, -16
	movq	%rsp, %rbp
	.cfi_def_cfa_register %rbp
	subq	$16, %rsp
	movq	%rdi, -8(%rbp)
Ltmp1108:
	.loc	8 490 1 prologue_end
	callq	__ZN4core3ptr354drop_in_place$LT$alloc..vec..Vec$LT$unicode_bidi..prepare..IsolatingRunSequence$GT$..extend_trusted$LT$core..iter..adapters..map..Map$LT$alloc..vec..into_iter..IntoIter$LT$alloc..vec..Vec$LT$core..ops..range..Range$LT$usize$GT$$GT$$GT$$C$unicode_bidi..prepare..isolating_run_sequences..$u7b$$u7b$closure$u7d$$u7d$$GT$$GT$..$u7b$$u7b$closure$u7d$$u7d$$GT$17hac0a9f21993c5738E
	addq	$16, %rsp
	popq	%rbp
	retq
Ltmp1109:
Lfunc_end167:
	.cfi_endproc

	.globl	__ZN4core3ptr49drop_in_place$LT$alloc..vec..Vec$LT$usize$GT$$GT$17hd67e8ba664254281E
	.p2align	4, 0x90
__ZN4core3ptr49drop_in_place$LT$alloc..vec..Vec$LT$usize$GT$$GT$17hd67e8ba664254281E:
Lfunc_begin168:
	.loc	8 490 0
	.cfi_startproc
	.cfi_personality 155, _rust_eh_personality
	.cfi_lsda 16, Lexception27
	pushq	%rbp
	.cfi_def_cfa_offset 16
	.cfi_offset %rbp, -16
	movq	%rsp, %rbp
	.cfi_def_cfa_register %rbp
	subq	$32, %rsp
	movq	%rdi, -32(%rbp)
	movq	%rdi, -24(%rbp)
Ltmp1110:
Ltmp1116:
	.loc	8 490 1 prologue_end
	callq	__ZN70_$LT$alloc..vec..Vec$LT$T$C$A$GT$$u20$as$u20$core..ops..drop..Drop$GT$4drop17h85a3044c9a880fceE
Ltmp1111:
	jmp	LBB168_3
LBB168_1:
Ltmp1113:
	.loc	8 0 1 is_stmt 0
	movq	-32(%rbp), %rdi
	.loc	8 490 1
	callq	__ZN4core3ptr56drop_in_place$LT$alloc..raw_vec..RawVec$LT$usize$GT$$GT$17h86748d99d93b3436E
Ltmp1114:
	jmp	LBB168_5
LBB168_2:
Ltmp1112:
	.loc	8 0 1
	movq	%rax, %rcx
	movl	%edx, %eax
	movq	%rcx, -16(%rbp)
	movl	%eax, -8(%rbp)
	jmp	LBB168_1
LBB168_3:
	movq	-32(%rbp), %rdi
	.loc	8 490 1
	callq	__ZN4core3ptr56drop_in_place$LT$alloc..raw_vec..RawVec$LT$usize$GT$$GT$17h86748d99d93b3436E
	addq	$32, %rsp
	popq	%rbp
	retq
LBB168_4:
Ltmp1115:
	callq	__ZN4core9panicking19panic_cannot_unwind17h1fbca7e1d7f56ae1E
LBB168_5:
	movq	-16(%rbp), %rdi
	callq	__Unwind_Resume
Ltmp1117:
Lfunc_end168:
	.cfi_endproc
	.section	__TEXT,__gcc_except_tab
	.p2align	2
GCC_except_table168:
Lexception27:
	.byte	255
	.byte	255
	.byte	1
	.uleb128 Lcst_end27-Lcst_begin27
Lcst_begin27:
	.uleb128 Ltmp1110-Lfunc_begin168
	.uleb128 Ltmp1111-Ltmp1110
	.uleb128 Ltmp1112-Lfunc_begin168
	.byte	0
	.uleb128 Ltmp1113-Lfunc_begin168
	.uleb128 Ltmp1114-Ltmp1113
	.uleb128 Ltmp1115-Lfunc_begin168
	.byte	0
	.uleb128 Ltmp1114-Lfunc_begin168
	.uleb128 Lfunc_end168-Ltmp1114
	.byte	0
	.byte	0
Lcst_end27:
	.p2align	2

	.section	__TEXT,__text,regular,pure_instructions
	.p2align	4, 0x90
__ZN4core3ptr51drop_in_place$LT$$RF$$RF$unicode_bidi..BidiInfo$GT$17h9bae8c927ba62776E:
Lfunc_begin169:
	.loc	8 490 0 is_stmt 1
	.cfi_startproc
	pushq	%rbp
	.cfi_def_cfa_offset 16
	.cfi_offset %rbp, -16
	movq	%rsp, %rbp
	.cfi_def_cfa_register %rbp
	pushq	%rax
	movq	%rdi, -8(%rbp)
Ltmp1118:
	.loc	8 490 1 prologue_end
	addq	$8, %rsp
	popq	%rbp
	retq
Ltmp1119:
Lfunc_end169:
	.cfi_endproc

	.p2align	4, 0x90
__ZN4core3ptr51drop_in_place$LT$$RF$unicode_bidi..level..Level$GT$17h342f3c78f43f6dcbE:
Lfunc_begin170:
	.loc	8 490 0
	.cfi_startproc
	pushq	%rbp
	.cfi_def_cfa_offset 16
	.cfi_offset %rbp, -16
	movq	%rsp, %rbp
	.cfi_def_cfa_register %rbp
	pushq	%rax
	movq	%rdi, -8(%rbp)
Ltmp1120:
	.loc	8 490 1 prologue_end
	addq	$8, %rsp
	popq	%rbp
	retq
Ltmp1121:
Lfunc_end170:
	.cfi_endproc

	.p2align	4, 0x90
__ZN4core3ptr52drop_in_place$LT$$RF$unicode_bidi..ParagraphInfo$GT$17h8e9518ef78d453faE:
Lfunc_begin171:
	.loc	8 490 0
	.cfi_startproc
	pushq	%rbp
	.cfi_def_cfa_offset 16
	.cfi_offset %rbp, -16
	movq	%rsp, %rbp
	.cfi_def_cfa_register %rbp
	pushq	%rax
	movq	%rdi, -8(%rbp)
Ltmp1122:
	.loc	8 490 1 prologue_end
	addq	$8, %rsp
	popq	%rbp
	retq
Ltmp1123:
Lfunc_end171:
	.cfi_endproc

	.globl	__ZN4core3ptr53drop_in_place$LT$alloc..raw_vec..RawVec$LT$u8$GT$$GT$17h2e9570787b919da8E
	.p2align	4, 0x90
__ZN4core3ptr53drop_in_place$LT$alloc..raw_vec..RawVec$LT$u8$GT$$GT$17h2e9570787b919da8E:
Lfunc_begin172:
	.loc	8 490 0
	.cfi_startproc
	pushq	%rbp
	.cfi_def_cfa_offset 16
	.cfi_offset %rbp, -16
	movq	%rsp, %rbp
	.cfi_def_cfa_register %rbp
	subq	$16, %rsp
	movq	%rdi, -8(%rbp)
Ltmp1124:
	.loc	8 490 1 prologue_end
	callq	__ZN77_$LT$alloc..raw_vec..RawVec$LT$T$C$A$GT$$u20$as$u20$core..ops..drop..Drop$GT$4drop17hdee6f6324c3ce453E
	addq	$16, %rsp
	popq	%rbp
	retq
Ltmp1125:
Lfunc_end172:
	.cfi_endproc

