	.section	__TEXT,__text,regular,pure_instructions
	.macosx_version_min 10, 7
	.file	1 "/Users/natalie/.cargo/registry/src/github.com-1ecc6299db9ec823/unicode-ident-1.0.5" "src/tables.rs"
	.p2align	4, 0x90
__ZN4core4char7methods22_$LT$impl$u20$char$GT$8is_ascii17h2d05d371ecff5ee0E:
Lfunc_begin0:
	.file	2 "/rustc/2c8cc343237b8f7d5a3c3703e3a87f2eb2c54a74/library/core/src/char" "methods.rs"
	.loc	2 1131 0
	.cfi_startproc
	pushq	%rbp
	.cfi_def_cfa_offset 16
	.cfi_offset %rbp, -16
	movq	%rsp, %rbp
	.cfi_def_cfa_register %rbp
	pushq	%rax
	movq	%rdi, -8(%rbp)
Ltmp0:
	.loc	2 1132 9 prologue_end
	cmpl	$127, (%rdi)
	setbe	%al
	.loc	2 1133 6
	andb	$1, %al
	movzbl	%al, %eax
	addq	$8, %rsp
	popq	%rbp
	retq
Ltmp1:
Lfunc_end0:
	.cfi_endproc

	.p2align	4, 0x90
__ZN4core4hint21unreachable_unchecked17ha4f9cdadd495f8a4E:
Lfunc_begin1:
	.file	3 "/rustc/2c8cc343237b8f7d5a3c3703e3a87f2eb2c54a74/library/core/src" "hint.rs"
	.loc	3 100 0
	.cfi_startproc
	pushq	%rbp
	.cfi_def_cfa_offset 16
	.cfi_offset %rbp, -16
	movq	%rsp, %rbp
	.cfi_def_cfa_register %rbp
Ltmp2:
	.loc	3 104 9 prologue_end
	ud2
Ltmp3:
Lfunc_end1:
	.cfi_endproc

	.globl	__ZN4core5slice29_$LT$impl$u20$$u5b$T$u5d$$GT$13get_unchecked17hcf16da007fd19ac1E
	.p2align	4, 0x90
__ZN4core5slice29_$LT$impl$u20$$u5b$T$u5d$$GT$13get_unchecked17hcf16da007fd19ac1E:
Lfunc_begin2:
	.file	4 "/rustc/2c8cc343237b8f7d5a3c3703e3a87f2eb2c54a74/library/core/src/slice" "mod.rs"
	.loc	4 398 0
	.cfi_startproc
	pushq	%rbp
	.cfi_def_cfa_offset 16
	.cfi_offset %rbp, -16
	movq	%rsp, %rbp
	.cfi_def_cfa_register %rbp
	subq	$32, %rsp
	movq	%rdx, -32(%rbp)
	movq	%rsi, %rdx
	movq	%rdi, %rsi
	movq	-32(%rbp), %rdi
	movq	%rsi, -24(%rbp)
	movq	%rdx, -16(%rbp)
	movq	%rdi, -8(%rbp)
Ltmp4:
	.loc	4 405 20 prologue_end
	callq	__ZN75_$LT$usize$u20$as$u20$core..slice..index..SliceIndex$LT$$u5b$T$u5d$$GT$$GT$13get_unchecked17h4f78373b369abc2fE
	.loc	4 406 6
	addq	$32, %rsp
	popq	%rbp
	retq
Ltmp5:
Lfunc_end2:
	.cfi_endproc

	.globl	__ZN4core5slice29_$LT$impl$u20$$u5b$T$u5d$$GT$3get17h6e7e132e90353269E
	.p2align	4, 0x90
__ZN4core5slice29_$LT$impl$u20$$u5b$T$u5d$$GT$3get17h6e7e132e90353269E:
Lfunc_begin3:
	.loc	4 339 0
	.cfi_startproc
	pushq	%rbp
	.cfi_def_cfa_offset 16
	.cfi_offset %rbp, -16
	movq	%rsp, %rbp
	.cfi_def_cfa_register %rbp
	subq	$32, %rsp
	movq	%rdx, -32(%rbp)
	movq	%rsi, %rdx
	movq	%rdi, %rsi
	movq	-32(%rbp), %rdi
	movq	%rsi, -24(%rbp)
	movq	%rdx, -16(%rbp)
	movq	%rdi, -8(%rbp)
Ltmp6:
	.loc	4 343 9 prologue_end
	callq	__ZN75_$LT$usize$u20$as$u20$core..slice..index..SliceIndex$LT$$u5b$T$u5d$$GT$$GT$3get17h6e45836ab7d3b0d4E
	.loc	4 344 6
	addq	$32, %rsp
	popq	%rbp
	retq
Ltmp7:
Lfunc_end3:
	.cfi_endproc

	.globl	__ZN4core6option15Option$LT$T$GT$16unwrap_unchecked17h1565763b2728fd15E
	.p2align	4, 0x90
__ZN4core6option15Option$LT$T$GT$16unwrap_unchecked17h1565763b2728fd15E:
Lfunc_begin4:
	.file	5 "/rustc/2c8cc343237b8f7d5a3c3703e3a87f2eb2c54a74/library/core/src" "option.rs"
	.loc	5 933 0
	.cfi_startproc
	.cfi_personality 155, _rust_eh_personality
	.cfi_lsda 16, Lexception0
	pushq	%rbp
	.cfi_def_cfa_offset 16
	.cfi_offset %rbp, -16
	movq	%rsp, %rbp
	.cfi_def_cfa_register %rbp
	subq	$32, %rsp
	movb	%sil, %al
	movb	%dil, %cl
	andb	$1, %cl
	movb	%cl, -24(%rbp)
	movb	%al, -23(%rbp)
Ltmp11:
	.loc	5 935 15 prologue_end
	movb	-24(%rbp), %al
	andb	$1, %al
	movzbl	%al, %eax
	.loc	5 935 9 is_stmt 0
	cmpq	$0, %rax
	jne	LBB4_2
Ltmp8:
	.loc	5 938 30 is_stmt 1
	callq	__ZN4core4hint21unreachable_unchecked17ha4f9cdadd495f8a4E
Ltmp9:
	jmp	LBB4_5
LBB4_2:
	.loc	5 936 18
	movb	-23(%rbp), %al
	movb	%al, -17(%rbp)
	.loc	5 940 6
	addq	$32, %rsp
	popq	%rbp
	retq
LBB4_3:
	.loc	5 940 5 is_stmt 0
	movb	-24(%rbp), %al
	andb	$1, %al
	movzbl	%al, %eax
	cmpq	$1, %rax
	je	LBB4_6
	jmp	LBB4_7
LBB4_4:
Ltmp10:
	.loc	5 0 5
	movq	%rax, %rcx
	movl	%edx, %eax
	movq	%rcx, -16(%rbp)
	movl	%eax, -8(%rbp)
	jmp	LBB4_3
LBB4_5:
	ud2
LBB4_6:
	.loc	5 940 5
	movb	$1, %al
	testb	$1, %al
	jne	LBB4_8
	jmp	LBB4_7
LBB4_7:
	.loc	5 933 5 is_stmt 1
	movq	-16(%rbp), %rdi
	callq	__Unwind_Resume
LBB4_8:
	.loc	5 940 5
	jmp	LBB4_7
Ltmp12:
Lfunc_end4:
	.cfi_endproc
	.section	__TEXT,__gcc_except_tab
	.p2align	2
GCC_except_table4:
Lexception0:
	.byte	255
	.byte	255
	.byte	1
	.uleb128 Lcst_end0-Lcst_begin0
Lcst_begin0:
	.uleb128 Ltmp8-Lfunc_begin4
	.uleb128 Ltmp9-Ltmp8
	.uleb128 Ltmp10-Lfunc_begin4
	.byte	0
	.uleb128 Ltmp9-Lfunc_begin4
	.uleb128 Lfunc_end4-Ltmp9
	.byte	0
	.byte	0
Lcst_end0:
	.p2align	2

	.section	__TEXT,__text,regular,pure_instructions
	.globl	__ZN4core6option15Option$LT$T$GT$9unwrap_or17hde39621000918f2aE
	.p2align	4, 0x90
__ZN4core6option15Option$LT$T$GT$9unwrap_or17hde39621000918f2aE:
Lfunc_begin5:
	.loc	5 844 0
	.cfi_startproc
	pushq	%rbp
	.cfi_def_cfa_offset 16
	.cfi_offset %rbp, -16
	movq	%rsp, %rbp
	.cfi_def_cfa_register %rbp
	subq	$48, %rsp
	movq	%rsi, -48(%rbp)
	movq	%rdi, -40(%rbp)
	movq	%rsi, -16(%rbp)
Ltmp13:
	.loc	5 848 15 prologue_end
	movb	$1, -17(%rbp)
	movq	-40(%rbp), %rdx
	movl	$1, %eax
	xorl	%ecx, %ecx
	cmpq	$0, %rdx
	cmoveq	%rcx, %rax
	.loc	5 848 9 is_stmt 0
	cmpq	$0, %rax
	jne	LBB5_2
	.loc	5 0 9
	movq	-48(%rbp), %rax
	.loc	5 850 21 is_stmt 1
	movb	$0, -17(%rbp)
	movq	%rax, -32(%rbp)
	jmp	LBB5_3
LBB5_2:
	.loc	5 849 18
	movq	-40(%rbp), %rax
	movq	%rax, -8(%rbp)
Ltmp14:
	.loc	5 849 24 is_stmt 0
	movq	%rax, -32(%rbp)
Ltmp15:
LBB5_3:
	.loc	5 852 5 is_stmt 1
	testb	$1, -17(%rbp)
	jne	LBB5_5
LBB5_4:
	.loc	5 852 6 is_stmt 0
	movq	-32(%rbp), %rax
	addq	$48, %rsp
	popq	%rbp
	retq
LBB5_5:
	.loc	5 852 5
	jmp	LBB5_4
Ltmp16:
Lfunc_end5:
	.cfi_endproc

	.p2align	4, 0x90
__ZN4core7convert3num66_$LT$impl$u20$core..convert..TryFrom$LT$u32$GT$$u20$for$u20$u8$GT$8try_from17h5c4194e83ef003ecE:
Lfunc_begin6:
	.file	6 "/rustc/2c8cc343237b8f7d5a3c3703e3a87f2eb2c54a74/library/core/src/convert" "num.rs"
	.loc	6 245 0 is_stmt 1
	.cfi_startproc
	pushq	%rbp
	.cfi_def_cfa_offset 16
	.cfi_offset %rbp, -16
	movq	%rsp, %rbp
	.cfi_def_cfa_register %rbp
	subq	$16, %rsp
	movl	%edi, -12(%rbp)
	movl	%edi, -4(%rbp)
Ltmp17:
	.loc	6 246 20 prologue_end
	cmpl	$255, %edi
	ja	LBB6_2
	.loc	6 0 20 is_stmt 0
	movl	-12(%rbp), %eax
	.loc	6 249 21 is_stmt 1
	movb	%al, -7(%rbp)
	movb	$0, -8(%rbp)
	.loc	6 246 17
	jmp	LBB6_3
LBB6_2:
	.loc	6 247 21
	movb	$1, -8(%rbp)
LBB6_3:
	.loc	6 251 14
	movb	-8(%rbp), %al
	movb	-7(%rbp), %dl
	addq	$16, %rsp
	popq	%rbp
	retq
Ltmp18:
Lfunc_end6:
	.cfi_endproc

	.globl	__ZN53_$LT$T$u20$as$u20$core..convert..TryInto$LT$U$GT$$GT$8try_into17h6c61a52372a274deE
	.p2align	4, 0x90
__ZN53_$LT$T$u20$as$u20$core..convert..TryInto$LT$U$GT$$GT$8try_into17h6c61a52372a274deE:
Lfunc_begin7:
	.file	7 "/rustc/2c8cc343237b8f7d5a3c3703e3a87f2eb2c54a74/library/core/src/convert" "mod.rs"
	.loc	7 766 0
	.cfi_startproc
	pushq	%rbp
	.cfi_def_cfa_offset 16
	.cfi_offset %rbp, -16
	movq	%rsp, %rbp
	.cfi_def_cfa_register %rbp
	subq	$16, %rsp
	movl	%edi, -4(%rbp)
Ltmp19:
	.loc	7 767 9 prologue_end
	callq	__ZN4core7convert3num66_$LT$impl$u20$core..convert..TryFrom$LT$u32$GT$$u20$for$u20$u8$GT$8try_from17h5c4194e83ef003ecE
	.loc	7 768 6
	andb	$1, %al
	addq	$16, %rsp
	popq	%rbp
	retq
Ltmp20:
Lfunc_end7:
	.cfi_endproc

	.globl	__ZN75_$LT$usize$u20$as$u20$core..slice..index..SliceIndex$LT$$u5b$T$u5d$$GT$$GT$13get_unchecked17h4f78373b369abc2fE
	.p2align	4, 0x90
__ZN75_$LT$usize$u20$as$u20$core..slice..index..SliceIndex$LT$$u5b$T$u5d$$GT$$GT$13get_unchecked17h4f78373b369abc2fE:
Lfunc_begin8:
	.file	8 "/rustc/2c8cc343237b8f7d5a3c3703e3a87f2eb2c54a74/library/core/src/slice" "index.rs"
	.loc	8 229 0
	.cfi_startproc
	pushq	%rbp
	.cfi_def_cfa_offset 16
	.cfi_offset %rbp, -16
	movq	%rsp, %rbp
	.cfi_def_cfa_register %rbp
	subq	$80, %rsp
	movq	%rdi, -80(%rbp)
	movq	%rsi, -72(%rbp)
	movq	%rdx, -64(%rbp)
Ltmp21:
	.loc	8 240 13 prologue_end
	movq	%rsi, -56(%rbp)
	movq	%rdx, -48(%rbp)
Ltmp22:
	.file	9 "/rustc/2c8cc343237b8f7d5a3c3703e3a87f2eb2c54a74/library/core/src/ptr" "const_ptr.rs"
	.loc	9 1650 9
	movq	%rsi, -40(%rbp)
Ltmp23:
	.loc	8 240 32
	movq	%rdi, -32(%rbp)
Ltmp24:
	.loc	9 932 18
	movq	%rsi, -24(%rbp)
	.loc	9 932 30 is_stmt 0
	movq	%rdi, -16(%rbp)
Ltmp25:
	.loc	9 473 18 is_stmt 1
	addq	%rdi, %rsi
	movq	%rsi, -8(%rbp)
	movq	-8(%rbp), %rax
Ltmp26:
	.loc	8 242 6
	addq	$80, %rsp
	popq	%rbp
	retq
Ltmp27:
Lfunc_end8:
	.cfi_endproc

	.globl	__ZN75_$LT$usize$u20$as$u20$core..slice..index..SliceIndex$LT$$u5b$T$u5d$$GT$$GT$3get17h6e45836ab7d3b0d4E
	.p2align	4, 0x90
__ZN75_$LT$usize$u20$as$u20$core..slice..index..SliceIndex$LT$$u5b$T$u5d$$GT$$GT$3get17h6e45836ab7d3b0d4E:
Lfunc_begin9:
	.loc	8 217 0
	.cfi_startproc
	pushq	%rbp
	.cfi_def_cfa_offset 16
	.cfi_offset %rbp, -16
	movq	%rsp, %rbp
	.cfi_def_cfa_register %rbp
	subq	$136, %rsp
	movq	%rdi, -136(%rbp)
	movq	%rsi, -128(%rbp)
	movq	%rdx, -120(%rbp)
	movq	%rdi, -104(%rbp)
	movq	%rsi, -96(%rbp)
	movq	%rdx, -88(%rbp)
Ltmp28:
	.loc	8 219 12 prologue_end
	cmpq	%rdx, %rdi
	jb	LBB9_2
	.loc	8 219 87 is_stmt 0
	movq	$0, -112(%rbp)
	.loc	8 219 9
	jmp	LBB9_3
LBB9_2:
	.loc	8 0 9
	movq	-136(%rbp), %rcx
	movq	-128(%rbp), %rax
	movq	-120(%rbp), %rdx
	.loc	8 219 49
	movq	%rcx, -80(%rbp)
	.loc	8 219 68
	movq	%rax, -72(%rbp)
	movq	%rdx, -64(%rbp)
Ltmp29:
	.loc	8 240 13 is_stmt 1
	movq	%rax, -56(%rbp)
	movq	%rdx, -48(%rbp)
Ltmp30:
	.loc	9 1650 9
	movq	%rax, -40(%rbp)
Ltmp31:
	.loc	8 240 32
	movq	%rcx, -32(%rbp)
Ltmp32:
	.loc	9 932 18
	movq	%rax, -24(%rbp)
	.loc	9 932 30 is_stmt 0
	movq	%rcx, -16(%rbp)
Ltmp33:
	.loc	9 473 18 is_stmt 1
	addq	%rcx, %rax
	movq	%rax, -8(%rbp)
	movq	-8(%rbp), %rax
Ltmp34:
	.loc	8 219 42
	movq	%rax, -112(%rbp)
LBB9_3:
	.loc	8 220 6
	movq	-112(%rbp), %rax
	addq	$136, %rsp
	popq	%rbp
	retq
Ltmp35:
Lfunc_end9:
	.cfi_endproc

	.globl	__ZN13unicode_ident12is_xid_start17h2ab5a305aff7ff60E
	.p2align	4, 0x90
__ZN13unicode_ident12is_xid_start17h2ab5a305aff7ff60E:
Lfunc_begin10:
	.file	10 "/Users/natalie/.cargo/registry/src/github.com-1ecc6299db9ec823/unicode-ident-1.0.5" "src/lib.rs"
	.loc	10 252 0
	.cfi_startproc
	pushq	%rbp
	.cfi_def_cfa_offset 16
	.cfi_offset %rbp, -16
	movq	%rsp, %rbp
	.cfi_def_cfa_register %rbp
	subq	$80, %rsp
	movl	%edi, -48(%rbp)
Ltmp36:
	.loc	10 253 8 prologue_end
	leaq	-48(%rbp), %rdi
	callq	__ZN4core4char7methods22_$LT$impl$u20$char$GT$8is_ascii17h2d05d371ecff5ee0E
	testb	$1, %al
	jne	LBB10_2
	.loc	10 256 35
	movl	-48(%rbp), %eax
	movl	%eax, %edx
	shrq	$3, %rdx
	shrq	$6, %rdx
	.loc	10 256 18 is_stmt 0
	leaq	__ZN13unicode_ident6tables10TRIE_START17h6f6b46619638b22cE(%rip), %rdi
	movl	$402, %esi
	callq	__ZN4core5slice29_$LT$impl$u20$$u5b$T$u5d$$GT$3get17h6e7e132e90353269E
	movq	%rax, %rdi
	leaq	l___unnamed_1(%rip), %rsi
	callq	__ZN4core6option15Option$LT$T$GT$9unwrap_or17hde39621000918f2aE
	.loc	10 256 17
	movb	(%rax), %al
	movb	%al, -41(%rbp)
Ltmp37:
	.loc	10 257 18 is_stmt 1
	movzbl	%al, %eax
	movl	$64, %ecx
	mulq	%rcx
	movq	%rax, -56(%rbp)
	seto	%al
	testb	$1, %al
	jne	LBB10_7
	jmp	LBB10_6
Ltmp38:
LBB10_2:
	.loc	10 254 30
	movl	-48(%rbp), %eax
	movq	%rax, -64(%rbp)
	.loc	10 254 16 is_stmt 0
	cmpq	$128, %rax
	setb	%al
	testb	$1, %al
	jne	LBB10_3
	jmp	LBB10_4
LBB10_3:
	.loc	10 0 16
	movq	-64(%rbp), %rcx
	.loc	10 254 16
	leaq	__ZN13unicode_ident6tables11ASCII_START17ha4bf509658c14e1cE(%rip), %rax
	movb	(%rax,%rcx), %al
	andb	$1, %al
	movb	%al, -42(%rbp)
	.loc	10 259 2 is_stmt 1
	jmp	LBB10_5
LBB10_4:
	.loc	10 0 2 is_stmt 0
	movq	-64(%rbp), %rdi
	.loc	10 254 16 is_stmt 1
	leaq	l___unnamed_2(%rip), %rdx
	movl	$128, %esi
	callq	__ZN4core9panicking18panic_bounds_check17hacb8a94866cda541E
LBB10_5:
	.loc	10 259 2
	movb	-42(%rbp), %al
	andb	$1, %al
	movzbl	%al, %eax
	addq	$80, %rsp
	popq	%rbp
	retq
LBB10_6:
	.loc	10 0 2 is_stmt 0
	movq	-56(%rbp), %rax
Ltmp39:
	.loc	10 257 18 is_stmt 1
	shrq	$1, %rax
	.loc	10 257 47 is_stmt 0
	movl	-48(%rbp), %ecx
	shrq	$3, %rcx
	andq	$63, %rcx
	.loc	10 257 18
	addq	%rcx, %rax
	movq	%rax, -72(%rbp)
	setb	%al
	testb	$1, %al
	jne	LBB10_12
	jmp	LBB10_8
LBB10_7:
	leaq	_str.0(%rip), %rdi
	leaq	l___unnamed_3(%rip), %rdx
	movl	$33, %esi
	callq	__ZN4core9panicking5panic17hc1bc45270cf64b03E
LBB10_8:
	.loc	10 0 18
	movq	-72(%rbp), %rdx
	.loc	10 257 18
	movq	%rdx, -40(%rbp)
Ltmp40:
	.loc	10 258 14 is_stmt 1
	leaq	__ZN13unicode_ident6tables4LEAF17h7ab5221439402e2aE(%rip), %rdi
	movl	$7520, %esi
	callq	__ZN4core5slice29_$LT$impl$u20$$u5b$T$u5d$$GT$13get_unchecked17hcf16da007fd19ac1E
	movb	(%rax), %al
	movb	%al, -73(%rbp)
	.loc	10 258 58 is_stmt 0
	movl	-48(%rbp), %edi
	andl	$7, %edi
	movb	%al, -17(%rbp)
	movl	%edi, -16(%rbp)
Ltmp41:
	.file	11 "/rustc/2c8cc343237b8f7d5a3c3703e3a87f2eb2c54a74/library/core/src/num" "uint_macros.rs"
	.loc	11 1417 17 is_stmt 1
	movb	%al, -9(%rbp)
	.loc	11 1417 36 is_stmt 0
	movl	%edi, -8(%rbp)
Ltmp42:
	.loc	11 963 54 is_stmt 1
	callq	__ZN53_$LT$T$u20$as$u20$core..convert..TryInto$LT$U$GT$$GT$8try_into17h6c61a52372a274deE
	movb	%dl, -23(%rbp)
	movb	%al, -24(%rbp)
Ltmp43:
	.file	12 "/rustc/2c8cc343237b8f7d5a3c3703e3a87f2eb2c54a74/library/core/src" "result.rs"
	.loc	12 646 15
	movb	-24(%rbp), %al
	andb	$1, %al
	movzbl	%al, %eax
	.loc	12 646 9 is_stmt 0
	cmpq	$0, %rax
	jne	LBB10_10
	.loc	12 647 16 is_stmt 1
	movb	-23(%rbp), %al
	movb	%al, -2(%rbp)
Ltmp44:
	.loc	12 647 22 is_stmt 0
	movb	%al, -31(%rbp)
	movb	$1, -32(%rbp)
Ltmp45:
	.loc	12 647 28
	jmp	LBB10_11
LBB10_10:
Ltmp46:
	.loc	12 650 23 is_stmt 1
	movb	$0, -32(%rbp)
Ltmp47:
LBB10_11:
	.loc	11 963 54
	movb	-32(%rbp), %al
	leaq	l___unnamed_4(%rip), %rdx
	andb	$1, %al
	movzbl	%al, %edi
	movzbl	-31(%rbp), %esi
	callq	__ZN4core6option15Option$LT$T$GT$16unwrap_unchecked17h1565763b2728fd15E
	movb	%al, %cl
	movb	-73(%rbp), %al
	.loc	11 963 22 is_stmt 0
	shrb	%cl, %al
	movb	%al, -1(%rbp)
	movb	-1(%rbp), %al
Ltmp48:
	.loc	10 258 5 is_stmt 1
	andb	$1, %al
	cmpb	$0, %al
	setne	%al
	andb	$1, %al
	movb	%al, -42(%rbp)
Ltmp49:
	.loc	10 259 2
	jmp	LBB10_5
LBB10_12:
Ltmp50:
	.loc	10 257 18
	leaq	_str.1(%rip), %rdi
	leaq	l___unnamed_3(%rip), %rdx
	movl	$28, %esi
	callq	__ZN4core9panicking5panic17hc1bc45270cf64b03E
Ltmp51:
Lfunc_end10:
	.cfi_endproc

	.globl	__ZN13unicode_ident15is_xid_continue17h391a3996a0b0977bE
	.p2align	4, 0x90
__ZN13unicode_ident15is_xid_continue17h391a3996a0b0977bE:
Lfunc_begin11:
	.loc	10 261 0
	.cfi_startproc
	pushq	%rbp
	.cfi_def_cfa_offset 16
	.cfi_offset %rbp, -16
	movq	%rsp, %rbp
	.cfi_def_cfa_register %rbp
	subq	$80, %rsp
	movl	%edi, -48(%rbp)
Ltmp52:
	.loc	10 262 8 prologue_end
	leaq	-48(%rbp), %rdi
	callq	__ZN4core4char7methods22_$LT$impl$u20$char$GT$8is_ascii17h2d05d371ecff5ee0E
	testb	$1, %al
	jne	LBB11_2
	.loc	10 265 38
	movl	-48(%rbp), %eax
	movl	%eax, %edx
	shrq	$3, %rdx
	shrq	$6, %rdx
	.loc	10 265 18 is_stmt 0
	leaq	__ZN13unicode_ident6tables13TRIE_CONTINUE17h9ffb69b32ddd3f1bE(%rip), %rdi
	movl	$1793, %esi
	callq	__ZN4core5slice29_$LT$impl$u20$$u5b$T$u5d$$GT$3get17h6e7e132e90353269E
	movq	%rax, %rdi
	leaq	l___unnamed_1(%rip), %rsi
	callq	__ZN4core6option15Option$LT$T$GT$9unwrap_or17hde39621000918f2aE
	.loc	10 265 17
	movb	(%rax), %al
	movb	%al, -41(%rbp)
Ltmp53:
	.loc	10 266 18 is_stmt 1
	movzbl	%al, %eax
	movl	$64, %ecx
	mulq	%rcx
	movq	%rax, -56(%rbp)
	seto	%al
	testb	$1, %al
	jne	LBB11_7
	jmp	LBB11_6
Ltmp54:
LBB11_2:
	.loc	10 263 33
	movl	-48(%rbp), %eax
	movq	%rax, -64(%rbp)
	.loc	10 263 16 is_stmt 0
	cmpq	$128, %rax
	setb	%al
	testb	$1, %al
	jne	LBB11_3
	jmp	LBB11_4
LBB11_3:
	.loc	10 0 16
	movq	-64(%rbp), %rcx
	.loc	10 263 16
	leaq	__ZN13unicode_ident6tables14ASCII_CONTINUE17hd5ed2c123534fc6aE(%rip), %rax
	movb	(%rax,%rcx), %al
	andb	$1, %al
	movb	%al, -42(%rbp)
	.loc	10 268 2 is_stmt 1
	jmp	LBB11_5
LBB11_4:
	.loc	10 0 2 is_stmt 0
	movq	-64(%rbp), %rdi
	.loc	10 263 16 is_stmt 1
	leaq	l___unnamed_5(%rip), %rdx
	movl	$128, %esi
	callq	__ZN4core9panicking18panic_bounds_check17hacb8a94866cda541E
LBB11_5:
	.loc	10 268 2
	movb	-42(%rbp), %al
	andb	$1, %al
	movzbl	%al, %eax
	addq	$80, %rsp
	popq	%rbp
	retq
LBB11_6:
	.loc	10 0 2 is_stmt 0
	movq	-56(%rbp), %rax
Ltmp55:
	.loc	10 266 18 is_stmt 1
	shrq	$1, %rax
	.loc	10 266 47 is_stmt 0
	movl	-48(%rbp), %ecx
	shrq	$3, %rcx
	andq	$63, %rcx
	.loc	10 266 18
	addq	%rcx, %rax
	movq	%rax, -72(%rbp)
	setb	%al
	testb	$1, %al
	jne	LBB11_12
	jmp	LBB11_8
LBB11_7:
	leaq	_str.0(%rip), %rdi
	leaq	l___unnamed_6(%rip), %rdx
	movl	$33, %esi
	callq	__ZN4core9panicking5panic17hc1bc45270cf64b03E
LBB11_8:
	.loc	10 0 18
	movq	-72(%rbp), %rdx
	.loc	10 266 18
	movq	%rdx, -40(%rbp)
Ltmp56:
	.loc	10 267 14 is_stmt 1
	leaq	__ZN13unicode_ident6tables4LEAF17h7ab5221439402e2aE(%rip), %rdi
	movl	$7520, %esi
	callq	__ZN4core5slice29_$LT$impl$u20$$u5b$T$u5d$$GT$13get_unchecked17hcf16da007fd19ac1E
	movb	(%rax), %al
	movb	%al, -73(%rbp)
	.loc	10 267 58 is_stmt 0
	movl	-48(%rbp), %edi
	andl	$7, %edi
	movb	%al, -17(%rbp)
	movl	%edi, -16(%rbp)
Ltmp57:
	.loc	11 1417 17 is_stmt 1
	movb	%al, -9(%rbp)
	.loc	11 1417 36 is_stmt 0
	movl	%edi, -8(%rbp)
Ltmp58:
	.loc	11 963 54 is_stmt 1
	callq	__ZN53_$LT$T$u20$as$u20$core..convert..TryInto$LT$U$GT$$GT$8try_into17h6c61a52372a274deE
	movb	%dl, -23(%rbp)
	movb	%al, -24(%rbp)
Ltmp59:
	.loc	12 646 15
	movb	-24(%rbp), %al
	andb	$1, %al
	movzbl	%al, %eax
	.loc	12 646 9 is_stmt 0
	cmpq	$0, %rax
	jne	LBB11_10
	.loc	12 647 16 is_stmt 1
	movb	-23(%rbp), %al
	movb	%al, -2(%rbp)
Ltmp60:
	.loc	12 647 22 is_stmt 0
	movb	%al, -31(%rbp)
	movb	$1, -32(%rbp)
Ltmp61:
	.loc	12 647 28
	jmp	LBB11_11
LBB11_10:
Ltmp62:
	.loc	12 650 23 is_stmt 1
	movb	$0, -32(%rbp)
Ltmp63:
LBB11_11:
	.loc	11 963 54
	movb	-32(%rbp), %al
	leaq	l___unnamed_4(%rip), %rdx
	andb	$1, %al
	movzbl	%al, %edi
	movzbl	-31(%rbp), %esi
	callq	__ZN4core6option15Option$LT$T$GT$16unwrap_unchecked17h1565763b2728fd15E
	movb	%al, %cl
	movb	-73(%rbp), %al
	.loc	11 963 22 is_stmt 0
	shrb	%cl, %al
	movb	%al, -1(%rbp)
	movb	-1(%rbp), %al
Ltmp64:
	.loc	10 267 5 is_stmt 1
	andb	$1, %al
	cmpb	$0, %al
	setne	%al
	andb	$1, %al
	movb	%al, -42(%rbp)
Ltmp65:
	.loc	10 268 2
	jmp	LBB11_5
LBB11_12:
Ltmp66:
	.loc	10 266 18
	leaq	_str.1(%rip), %rdi
	leaq	l___unnamed_6(%rip), %rdx
	movl	$28, %esi
	callq	__ZN4core9panicking5panic17hc1bc45270cf64b03E
Ltmp67:
Lfunc_end11:
	.cfi_endproc

	.section	__TEXT,__const
l___unnamed_7:
	.ascii	"/rustc/2c8cc343237b8f7d5a3c3703e3a87f2eb2c54a74/library/core/src/num/mod.rs"

	.section	__DATA,__const
	.p2align	3
l___unnamed_4:
	.quad	l___unnamed_7
	.asciz	"K\000\000\000\000\000\000\0001\001\000\000\005\000\000"

	.section	__TEXT,__const
l___unnamed_8:
	.ascii	"/Users/natalie/.cargo/registry/src/github.com-1ecc6299db9ec823/unicode-ident-1.0.5/src/lib.rs"

	.section	__DATA,__const
	.p2align	3
l___unnamed_2:
	.quad	l___unnamed_8
	.asciz	"]\000\000\000\000\000\000\000\376\000\000\000\020\000\000"

	.section	__TEXT,__const
l___unnamed_1:
	.space	1

	.section	__DATA,__const
	.p2align	3
l___unnamed_3:
	.quad	l___unnamed_8
	.asciz	"]\000\000\000\000\000\000\000\001\001\000\000\022\000\000"

	.section	__TEXT,__const
	.p2align	4
_str.0:
	.ascii	"attempt to multiply with overflow"

	.p2align	4
_str.1:
	.ascii	"attempt to add with overflow"

	.section	__DATA,__const
	.p2align	3
l___unnamed_5:
	.quad	l___unnamed_8
	.asciz	"]\000\000\000\000\000\000\000\007\001\000\000\020\000\000"

	.p2align	3
l___unnamed_6:
	.quad	l___unnamed_8
	.asciz	"]\000\000\000\000\000\000\000\n\001\000\000\022\000\000"

	.section	__TEXT,__const
	.p2align	6
__ZN13unicode_ident6tables11ASCII_START17ha4bf509658c14e1cE:
	.asciz	"\000\000\000\000\000\000\000\000\000\000\000\000\000\000\000\000\000\000\000\000\000\000\000\000\000\000\000\000\000\000\000\000\000\000\000\000\000\000\000\000\000\000\000\000\000\000\000\000\000\000\000\000\000\000\000\000\000\000\000\000\000\000\000\000\000\001\001\001\001\001\001\001\001\001\001\001\001\001\001\001\001\001\001\001\001\001\001\001\001\001\001\000\000\000\000\000\000\001\001\001\001\001\001\001\001\001\001\001\001\001\001\001\001\001\001\001\001\001\001\001\001\001\001\000\000\000\000"

	.p2align	6
__ZN13unicode_ident6tables14ASCII_CONTINUE17hd5ed2c123534fc6aE:
	.asciz	"\000\000\000\000\000\000\000\000\000\000\000\000\000\000\000\000\000\000\000\000\000\000\000\000\000\000\000\000\000\000\000\000\000\000\000\000\000\000\000\000\000\000\000\000\000\000\000\000\001\001\001\001\001\001\001\001\001\001\000\000\000\000\000\000\000\001\001\001\001\001\001\001\001\001\001\001\001\001\001\001\001\001\001\001\001\001\001\001\001\001\001\000\000\000\000\001\000\001\001\001\001\001\001\001\001\001\001\001\001\001\001\001\001\001\001\001\001\001\001\001\001\001\001\000\000\000\000"

	.p2align	3
__ZN13unicode_ident6tables10TRIE_START17h6f6b46619638b22cE:
	.ascii	"\004\013\017\023\027\033\037#'-148<@\002E\000\000\000\000\000I\000M\000\005\005\005\005\005\005\005\005\005\005\005\005\006\005\005\005\005\005\005\005\005\005\005\005\005\005\005\005\005\005\005\005\005\005\005\005\005\005\005\005\005\005\005\005\005\005\005\005\005\005\005\005\005\005\005\005QTX\\\005\005\005\005\005\005\005\005\005\005\005\005\005\005\005\005\005\005\005\005\005\t\000\000\000\000\000\000\000\000\000\000\000\000\000\000\000\000\001`dfjnr(vx|\200\204\210\214\220\224\230\236\242\005+\246\000\000\000\000\231\005\005\250\000\000\000\000\000\000\000\005\256\000\000\000\000\000\000\000\000\000\000\000\000\000\000\000\000\005\261\000\265\005\005\005\005\005\005\005\005\005\005\0052\005\005\271\000\000\000\000\000\000\000\000\000\000\000\000\000\000\000\000\234C\273\000\000\000\000\276\000\000\000\000\000\000\000\000\000\000\000\306\310\000\000\000\257\316\322\326\274\332\000\000\336\000\000\000\000\000\000\000\000\005\005\005\005\005\005\005\005\005\005\005\005\005\005\005\005\005\005\005\005\005\005\005\005\005\005\005\005\005\005\005\005\005\005\005\005\005\005\005\005\005\005\005\005\005\005\005\005\005\005\005\005\005\005\005\005\005\005\005\005\005\005\005\005\005\005\005\005\005\005\005\005\005\005\005\005\005\005\005\005\005\005\005\340\005\005\005\005\005\005\005R\343\005\005\005\005\005\005\005\005\005\005\346\005\005\005\005\005\005\005\005\005\005\005\005\005\341\000\000\000\000\000\000\005\351\000\000\005\005\005\005\005\005\005\005\005\344\005\005\005\005\005\005\005\347"
	.space	6

	.p2align	3
__ZN13unicode_ident6tables13TRIE_CONTINUE17h9ffb69b32ddd3f1bE:
	.ascii	"\b\r\021\025\031\035!%*/16:>B\002G\000\000\000\000\000K\000O\000\005\005\005\005\005\005\005\005\005\005\005\005\006\005\005\005\005\005\005\005\005\005\005\005\005\005\005\005\005\005\005\005\005\005\005\005\005\005\005\005\005\005\005\005\005\005\005\005\005\005\005\005\005\005\005\005QVZ^\005\005\005\005\005\005\005\005\005\005\005\005\005\005\005\005\005\005\005\005\005\t\000\000\000\000\000\000\000\000\000\000\000\000\000\000\000\000\001bdhlpt(vz~\202\206\212\216\222\226\233\240\244\005+\246\000\000\000\000\231\005\005\253\000\000\000\000\000\000\000\005\256\000\000\000\000\000\000\000\000\000\000\000\000\000\000\000\000\005\263\000\267\005\005\005\005\005\005\005\005\005\005\0052\005\005\271\000\000\000\000\000\000\000\000\000\000\000\000\000\000\000\000\234C\273\000\000\000\000\301\000\000\000\000\000\000\000\000\251\254\304\306\312\000\314\000\257\320\324\330\274\334\000\000\336\000\000\000\000\000\277\000\000\005\005\005\005\005\005\005\005\005\005\005\005\005\005\005\005\005\005\005\005\005\005\005\005\005\005\005\005\005\005\005\005\005\005\005\005\005\005\005\005\005\005\005\005\005\005\005\005\005\005\005\005\005\005\005\005\005\005\005\005\005\005\005\005\005\005\005\005\005\005\005\005\005\005\005\005\005\005\005\005\005\005\005\340\005\005\005\005\005\005\005R\343\005\005\005\005\005\005\005\005\005\005\346\005\005\005\005\005\005\005\005\005\005\005\005\005\341\000\000\000\000\000\000\005\351\000\000\005\005\005\005\005\005\005\005\005\344\005\005\005\005\005\005\005\347\000\000\000\000\000\000\000\000\000\000\000\000\000\000\000\000\000\000\000\000\000\000\000\000\000\000\000\000\000\000\000\000\000\000\000\000\000\000\000\000\000\000\000\000\000\000\000\000\000\000\000\000\000\000\000\000\000\000\000\000\000\000\000\000\000\000\000\000\000\000\000\000\000\000\000\000\000\000\000\000\000\000\000\000\000\000\000\000\000\000\000\000\000\000\000\000\000\000\000\000\000\000\000\000\000\000\000\000\000\000\000\000\000\000\000\000\000\000\000\000\000\000\000\000\000\000\000\000\000\000\000\000\000\000\000\000\000\000\000\000\000\000\000\000\000\000\000\000\000\000\000\000\000\000\000\000\000\000\000\000\000\000\000\000\000\000\000\000\000\000\000\000\000\000\000\000\000\000\000\000\000\000\000\000\000\000\000\000\000\000\000\000\000\000\000\000\000\000\000\000\000\000\000\000\000\000\000\000\000\000\000\000\000\000\000\000\000\000\000\000\000\000\000\000\000\000\000\000\000\000\000\000\000\000\000\000\000\000\000\000\000\000\000\000\000\000\000\000\000\000\000\000\000\000\000\000\000\000\000\000\000\000\000\000\000\000\000\000\000\000\000\000\000\000\000\000\000\000\000\000\000\000\000\000\000\000\000\000\000\000\000\000\000\000\000\000\000\000\000\000\000\000\000\000\000\000\000\000\000\000\000\000\000\000\000\000\000\000\000\000\000\000\000\000\000\000\000\000\000\000\000\000\000\000\000\000\000\000\000\000\000\000\000\000\000\000\000\000\000\000\000\000\000\000\000\000\000\000\000\000\000\000\000\000\000\000\000\000\000\000\000\000\000\000\000\000\000\000\000\000\000\000\000\000\000\000\000\000\000\000\000\000\000\000\000\000\000\000\000\000\000\000\000\000\000\000\000\000\000\000\000\000\000\000\000\000\000\000\000\000\000\000\000\000\000\000\000\000\000\000\000\000\000\000\000\000\000\000\000\000\000\000\000\000\000\000\000\000\000\000\000\000\000\000\000\000\000\000\000\000\000\000\000\000\000\000\000\000\000\000\000\000\000\000\000\000\000\000\000\000\000\000\000\000\000\000\000\000\000\000\000\000\000\000\000\000\000\000\000\000\000\000\000\000\000\000\000\000\000\000\000\000\000\000\000\000\000\000\000\000\000\000\000\000\000\000\000\000\000\000\000\000\000\000\000\000\000\000\000\000\000\000\000\000\000\000\000\000\000\000\000\000\000\000\000\000\000\000\000\000\000\000\000\000\000\000\000\000\000\000\000\000\000\000\000\000\000\000\000\000\000\000\000\000\000\000\000\000\000\000\000\000\000\000\000\000\000\000\000\000\000\000\000\000\000\000\000\000\000\000\000\000\000\000\000\000\000\000\000\000\000\000\000\000\000\000\000\000\000\000\000\000\000\000\000\000\000\000\000\000\000\000\000\000\000\000\000\000\000\000\000\000\000\000\000\000\000\000\000\000\000\000\000\000\000\000\000\000\000\000\000\000\000\000\000\000\000\000\000\000\000\000\000\000\000\000\000\000\000\000\000\000\000\000\000\000\000\000\000\000\000\000\000\000\000\000\000\000\000\000\000\000\000\000\000\000\000\000\000\000\000\000\000\000\000\000\000\000\000\000\000\000\000\000\000\000\000\000\000\000\000\000\000\000\000\000\000\000\000\000\000\000\000\000\000\000\000\000\000\000\000\000\000\000\000\000\000\000\000\000\000\000\000\000\000\000\000\000\000\000\000\000\000\000\000\000\000\000\000\000\000\000\000\000\000\000\000\000\000\000\000\000\000\000\000\000\000\000\000\000\000\000\000\000\000\000\000\000\000\000\000\000\000\000\000\000\000\000\000\000\000\000\000\000\000\000\000\000\000\000\000\000\000\000\000\000\000\000\000\000\000\000\000\000\000\000\000\000\000\000\000\000\000\000\000\000\000\000\000\000\000\000\000\000\000\000\000\000\000\000\000\000\000\000\000\000\000\000\000\000\000\000\000\000\000\000\000\000\000\000\000\000\000\000\000\000\000\000\000\000\000\000\000\000\000\000\000\000\000\000\000\000\000\000\000\000\000\000\000\000\000\000\000\000\000\000\000\000\000\000\000\000\000\000\000\000\000\000\000\000\000\000\000\000\000\000\000\000\000\000\000\000\000\000\000\000\000\000\000\000\000\000\000\000\000\000\000\000\000\000\000\000\000\000\000\000\000\000\000\000\000\000\000\000\000\000\000\000\000\000\000\000\000\000\000\000\000\000\000\000\000\000\000\000\000\000\000\000\000\000\000\000\000\000\000\000\000\000\000\000\000\000\000\000\000\000\000\000\000\000\000\000\000\000\000\000\000\000\000\000\000\000\000\000\000\000\000\000\000\000\000\000\000\000\000\000\000\000\000\000\000\000\000\000\000\000\000\000\000\000\000\000\000\000\000\000\000\000\000\000\000\000\000\000\000\000\000\000\000\000\000\000\000\000\000\000\000\000\000\000\000\000\000\000\000\000\000\000\000\000\000\000\000\000\000\000\000\000\000\000\000\000\000\000\000\000\000\000\000\000\000\000\000\000\000\000\000\000\000\000\000\000\000\000\000\000\000\000\000\000\000\000\000\000\000\000\000\000\000\000\000\000\000\000\000\000\000\000\000\000\000\000\000\000\000\000\000\000\000\000\000\000\000\000\000\000\000\000\000\000\000\000\000\000\000\000\000\000\000\000\000\000\000\000\000\000\000\000\000\000\000\000\000\000\000\000\000\000\000\000\000\000\000\000\000\000\000\000\000\000\000\000\000\000\000\000\000\000\000\000\000\000\000\000\000\000\000\000\000\000\000\000\000\000\000\000\000\000\000\000\000\000\000\000\000\000\000\000\000\000\000\000\000\000\000\000\000\000\000\000\000\000\000\000\000\000\000\000\000\000\000\000\000\000\000\000\000\000\000\000\000\000\000\000\000\000\000\000\000\000\000\000\000\000\000\000\000\000\000\000\000\000\000\000\000\000\000\000\000\000\000\000\000\000\000\000\000\000\000\000\000\000\000\000\000\000\000\000\000\000\000\000\000\000\000\000\000\000\000\000\000\000\000\000\000\000\000\000\000\000\000\000\000\000\000\000\000\000\000\000\302"
	.space	7

	.p2align	6
__ZN13unicode_ident6tables4LEAF17h7ab5221439402e2aE:
	.asciz	"\000\000\000\000\000\000\000\000\000\000\000\000\000\000\000\000\000\000\000\000\000\000\000\000\000\000\000\000\000\000\000\000\000\000\000\000\000\000\000\000\000\000\000\000\000\000\000\000\000\000\000\000\000\000\000\000\000\000\000\000\000\000\000\000\377\377\377\377\377\377\377\377\377\377\377\377\377\377\377\377\377\377\377\377\377\377\377\377\377\377\377\377\377\377\377\377\377\377??\377\377\377\377??\377\252\377\377\377?\377\377\377\377\377\377\337_\334\037\317\017\377\037\334\037\000\000\000\000\000\000\000\000\000\000\000\000\000\000\000\000\000\000\000\000\000\004 \004\377\377\177\377\377\377\177\377\377\377\377\377\377\377\377\377\377\377\377\377\377\377\377\377\377\377\377\377\377\377\377\377\377\377\377\377\377\377\377\377\377\377\377\377\377\377\377\377\377\377\377\377\377\377\377\377\377\377\377\377\377\377\377\377\377\377\377\377\377\377\377\377\377\377\377\377\377\377\377\377\377\377\377\377\377\377\377\377\377\377\377\377\377\377\377\377\000\000\000\000\000\000\000\000\000\000\000\000\000\000\000\000\000\000\000\000\000\000\000\000\000\000\000\000\000\004\240\004\377\377\177\377\377\377\177\377\377\377\377\377\377\377\377\377\377\377\377\377\377\377\377\377\377\377\377\377\377\377\377\377\377\377\377\377\377\377\377\377\377\377\377\377\377\377\377\377\377\377\377\377\377\377\377\377\377\377\377\377\017\000\377\377\177\370\377\377\377\377\377\017\377\377\377\377\377\377\377\377\377\377\377\377\377\377\377\377\377\377\377\377\377\377\377\377\303\377\003\000\037P\000\000\000\000\000\000\000\000\000\000\000\000\000\000\000\000\337\270@\327\377\377\373\377\377\377\377\377\377\377\377\377\277\377\377\377\377\377\377\377\377\377\377\377\377\377\377\377\377\377\377\377\377\377\377\377\377\377\303\377\003\000\037P\000\000\377\377\377\377\377\377\377\377\377\377\377\377\377\377\337\270\300\327\377\377\373\377\377\377\377\377\377\377\377\377\277\377\377\377\377\377\377\377\377\377\377\377\377\377\377\377\377\377\003\374\377\377\377\377\377\377\377\377\377\377\377\377\377\377\377\377\377\377\377\377\376\377\377\377\177\002\377\377\377\377\377\001\000\000\000\000\000\000\000\000\377\377\377\207\007\000\377\377\377\377\377\377\377\377\377\377\377\377\377\377\377\377\373\374\377\377\377\377\377\377\377\377\377\377\377\377\377\377\377\377\377\377\377\377\376\377\377\377\177\002\377\377\377\377\377\001\376\377\377\377\377\277\266\000\377\377\377\207\007\000\000\000\000\000\377\377\377\377\377\007\000\000\000\300\376\377\377\377\377\377\377\377\377\377\377\377/\000`\300\000\234\000\000\375\377\377\377\000\000\000\340\377\377\377\377\377\377\377\377\377\377?\000\002\000\000\374\377\377\377\0070\004\000\000\377\007\377\377\377\377\377\377\377\377\377\303\377\377\377\377\377\377\377\377\377\377\377\377\357\237\377\375\377\237\000\000\377\377\377\377\377\377\377\347\377\377\377\377\377\377\377\377\377\377\377\377\003\000\377\377\377\377\377\377?$\377\377?\004\020\001\000\000\377\377\377\001\377\007\377\377\377~\000\000\377\377\377\377\377\003\000\000\000\000\000\000\360\377\377\377\377\377\377#\000\000\001\377\003\000\376\377\341\237\371\377\377\375\305#\000@\000\260\003\000\003\020\377\377\377\377\377?\000\000\377\377\377\017\377\007\377\377\377~\000\377\377\377\377\377\377\377\377\377\373\377\377\377\377\377\377\377\377\377\377\377\377\377\377\377\317\377\376\377\357\237\371\377\377\375\305\363\237y\200\260\317\377\003P\340\207\371\377\377\375m\003\000\000\000^\000\000\034\000\340\277\373\377\377\375\355#\000\000\001\000\003\000\000\002\340\237\371\377\377\375\355#\000\000\000\260\003\000\002\000\350\307=\326\030\307\377\003\000\000\001\000\000\000\000\000\356\207\371\377\377\375m\323\2079\002^\300\377?\000\356\277\373\377\377\375\355\363\277;\001\000\317\377\000\376\356\237\371\377\377\375\355\363\2379\340\260\317\377\002\000\354\307=\326\030\307\377\303\307=\201\000\300\377\000\000\340\337\375\377\377\375\377#\000\000\000'\003\000\000\000\341\337\375\377\377\375\357#\000\000\000`\003\000\006\000\360\337\375\377\377\377\377'\000@p\200\003\000\000\374\340\377\177\374\377\377\373/\177\000\000\000\000\000\000\000\377\337\375\377\377\375\377\363\337=`'\317\377\000\000\357\337\375\377\377\375\357\363\337=``\317\377\016\000\377\337\375\377\377\377\377\377\337}\360\200\317\377\000\374\356\377\177\374\377\377\373/\177\204_\377\300\377\f\000\376\377\377\377\377\377\005\000\177\000\000\000\000\000\000\000\326\367\377\377\257\377\005 _\000\000\360\000\000\000\000\001\000\000\000\000\000\000\000\377\376\377\377\377\037\000\000\000\037\000\000\000\000\000\000\000\000\000\000\000\000\000\000\376\377\377\377\377\377\377\007\377\177\377\003\000\000\000\000\326\367\377\377\257\377\377?_\177\377\363\000\000\000\000\001\000\000\003\377\003\240\302\377\376\377\377\377\037\376\377\337\377\377\376\377\377\377\037@\000\000\000\000\000\000\000\377\377\377\377\377\007\000\200\000\000?<b\300\341\377\003@\000\000\377\377\377\377\277 \377\377\377\377\377\367\377\377\377\377\377\377\377\377\377\377\377\377\377\377\377\377\377\377\377\377\377\377\377\377\377\377\377\377\377\377\377\377\377\377\377\377\377\377\177\000\377\377?\000\377\000\000\000\277\377\377\377\377\377\375\007\000\000\000\000\000\000\000\000\377\377\377\377\377\377\377\377\377\003\377\377\377\377\377\377\377\377\377?\377\377\377\377\277 \377\377\377\377\377\367\377\377\377\377\377\377\377\377\377\377\377\377\377\377\377\377\377\377\377\377\377\377\377\377\377\377\377\377\377\377\377\377\377\377\377\377\377\377\377\377\377\377\377\377\377\377\377\377\377\377\377\003\000\000\000\000\000\000\000\000\000\000\000\000\377\377\377\377\377\377\377\377\377=\177=\377\377\377\377\377=\377\377\377\377=\177=\377\177\377\377\377\377\377\377\377=\377\377\377\377\377\377\377\377\007\000\000\000\000\377\377\000\000\377\377\377\377\377\377\377\377\377\377??\377\377\377\377\377\377\377\377\377=\177=\377\377\377\377\377=\377\377\377\377=\177=\377\177\377\377\377\377\377\377\377=\377\377\377\377\377\377\377\377\347\000\376\003\000\377\377\000\000\377\377\377\377\377\377\377\377\377\377??\376\377\377\377\377\377\377\377\377\377\377\377\377\377\377\377\377\377\377\377\377\377\377\377\377\377\377\377\377\377\377\377\377\377\377\377\377\377\377\377\377\377\377\377\377\377\377\377\377\377\377\377\377\377\377\377\377\377\377\377\377\377\377\377\377\377\377\377\377\377\377\377\377\377\377\377\377\377\377\377\377\377\377\377\377\377\377\377\377\377\377\377\377\377\377\000\377\377\377\377\377\377\377\377\377\377\377\377\377\237\377\377\376\377\377\007\377\377\377\377\377\377\377\377\377\307\377\001\377\377\003\200\377\377\003\000\377\377\003\000\377\337\001\000\377\377\377\377\377\377\017\000\000\000\200\020\000\000\000\000\377\377\377\377\377\377\377\377\377\377\377\377\377\237\377\377\376\377\377\007\377\377\377\377\377\377\377\377\377\307\377\001\377\377?\200\377\377\037\000\377\377\017\000\377\337\r\000\377\377\377\377\377\377\377\377\377\377\2170\377\003\000\000\000\000\000\000\377\377\377\377\377\377\377\377\377\377\377\001\377\377\377\377\377\005\377\377\377\377\377\377\377\377?\000\377\377\377\177\000\000\000\000\000\000\377\377\377?\037\000\377\377\377\377\377\017\377\377\377\003\000\000\000\000\000\000\000\270\377\003\377\377\377\377\377\377\377\377\377\377\377\001\377\377\377\377\377\007\377\377\377\377\377\377\377\377?\000\377\377\377\177\377\017\377\017\300\377\377\377\377?\037\000\377\377\377\377\377\017\377\377\377\003\377\007\000\000\000\000\377\377\177\000\377\377\377\377\377\377\037\000\000\000\000\000\000\000\000\000\200\000\000\000\000\000\000\000\000\000\000\000\340\377\377\377\377\377\017\000\340\037\000\000\000\000\000\000\370\377\377\377\001\300\000\374\377\377\377\377?\000\000\000\377\377\377\017\377\377\377\377\377\377\377\177\377\377\377\237\377\003\377\003\200\000\377\277\377\177\000\000\000\000\000\000\377\377\377\377\377\377\377\377\377\037\377\003\000\370\017\000\377\377\377\377\377\377\377\377\377\377\377\377\377\377\017\000\377\377\377\377\017\000\000\000\000\340\000\374\377\377\377?\377\001\377\377\377\377\377\347\000\000\000\000\000\336o\004\377\377\377\377\377\377\377\377\377\377\377\377\377\377\377\377\377\377\377\377\377\377\377\377\000\000\000\000\000\000\000\000\377\377\377\377\377\377\377\000\377\343\377\377\377\377\377?\377\001\377\377\377\377\377\347\000\000\367\377\377\377\377\007\377\377\377\377\377\377\377\377\377\377\377\377\377\377\377\377\377\377\377\377\377\377\377\377\377\377\377\377\377\377\377\377\377\377\377\377\007\000\004\000\000\000'\000\360\000\377\377\377\377\377\377\377\377\377\377\377\377\377\377\377\377\377\377\000\000\000\000\000\000\000\000\000\000\000\000\000\000\002\200\000\000\377\037\000\000\000\000\000\000\000\000\000\000\000\000\204\374/?P\375\377\363\340C\000\000\377\377\377\377\377\001\000\000\000\000\000\000\000\000\000\000\000\000\000\000\000\000\000\000\000\000\000\200\001\000\020\000\000\000\002\200\000\000\377\037\000\000\000\000\000\000\377\037\342\377\001\000\204\374/?P\375\377\363\340C\000\000\377\377\377\377\377\001\000\000\000\000\000\000\000\000\000\000\000\000\000\000\377\377\377\377\377\377\377\377\377\377\377\377\377\377\377\377\377\377\377\377\377\377\377\377\377\377\377\377\037x\f\000\377\377\377\377\277 \377\377\377\377\377\377\377\200\000\000\377\377\177\000\177\177\177\177\177\177\177\177\000\000\000\000\377\377\377\377\377\377\377\377\377\377\377\377\377\377\377\377\377\377\377\377\377\377\377\377\377\377\377\377\037\370\017\000\377\377\377\377\277 \377\377\377\377\377\377\377\200\000\200\377\377\177\000\177\177\177\177\177\177\177\177\377\377\377\377\340\000\000\000\376\003>\037\376\377\377\377\377\377\377\377\377\377\177\340\376\377\377\377\377\377\377\377\377\377\377\367\340\377\377\377\377\377\376\377\377\377\377\377\377\377\377\377\377\177\000\000\377\377\377\377\000\000\000\000\000\000\377\377\340\000\000\000\376\377>\037\376\377\377\377\377\377\377\377\377\377\177\346\376\377\377\377\377\377\377\377\377\377\377\367\340\377\377\377\377\377\376\377\377\377\377\377\377\377\377\377\377\177\000\000\377\377\377\377\000\000\000\000\000\000\377\377\377\377\377\377\377\377\377\377\377\377\377\377\377\377\377\377\377\037\000\000\000\000\000\000\000\000\377\377\377\377\377?\377\377\377\377\377\377\377\377\377\377\377\377\377\377\377\377\377\377\377\377\377\377\377\377\377\377\377\377\377\377\377\377\377\377\377\377\377\377\377\003\377\377\377\377\377\377\377\377\377\377\377\377\377\377\377\377\377\377\377\377\377\377\377\377\377\037\377\377\000\f\000\000\377\377\377\377\377\177\000\200\377\377\377?\377\377\377\377\377\377\377\377\377\377\000\000\000\000\200\377\374\377\377\377\377\377\377\377\377\377\377\377\377\371\377\377\377\377\377\377\377\007\353\003\000\000\374\377\377\037\377\377\377\017\000\000\377\377\377\377\377\377\360\277\377\377\377\377\377\377\377\377\377\377\377\377\377\377\003\000\000\000\200\377\374\377\377\377\377\377\377\377\377\377\377\377\377\371\377\377\377\377\377\377\377\007\353\003\000\000\374\377\273\367\377\377\007\000\000\000\377\377\377\377\377\377\017\000\374\377\377\377\377\377\017\000\000\000\000\000\000\000\374h\000\374\377\377?\000\377\377\177\000\000\000\377\377\377\037\360\377\377\377\377\377\007\000\000\200\000\000\337\377\000|\377\377\377\377\377\020\000\000\377\377\377\377\377\377\017\000\377\377\377\377\377\377\377\377?\000\377\003\377\377\377\350\377\377\377\377\377?\377\377\377\377\017\000\377\377\377\037\377\377\377\377\377\377\377\377\001\200\377\003\377\377\377\177\377\377\377\377\377\001\000\000\367\017\000\000\377\377\177\304\377\377\377\377\377\377b>\005\000\0008\377\007\034\000~~~\000\177\177\377\377\377\377\377\367\377\003\377\377\377\377\377\377\377\377\377\377\377\377\377\377\007\000\000\000\377\377\377\377\377\377\177\000\377?\377\003\377\377\177\374\377\377\377\377\377\377\377\377\007\000\0008\377\377|\000~~~\000\177\177\377\377\377\377\377\367\377\003\377\377\377\377\377\377\377\377\377\377\377\377\377\377\3777\377\003\377\377\377\377\377\377\377\377\377\377\377\377\377?\377\377\377\377\377\377\377\377\377\377\377\377\377\003\000\000\000\000\177\000\370\240\377\375\177_\333\377\377\377\377\377\377\377\377\377\377\377\377\377\003\000\000\000\370\377\377\377\377\377\377\377\377\377\377\377\377\377\377\377\377\377\377?\377\377\377\377\377\377\377\377\377\377\377\377\377\003\000\000\000\000\177\000\370\340\377\375\177_\333\377\377\377\377\377\377\377\377\377\377\377\377\377\003\000\000\000\370\377\377\377\377\377\377\377\377\377\377\377\377\377\377\377\377?\360\377\377\377\377\377\377\377\377\377\377\377\377\377\377\377\377\377\377\377\377\377\377\377\377\377\377?\000\000\377\377\377\377\377\377\377\377\374\377\377\377\377\377\377\000\000\000\000\000\377\003\000\000\000\000\000\000\000\000\000\000\000\000\000\000\212\252\377\377\377\377\377\377\377\377\377\377\377\377\377\377\377\037\000\000\000\000\376\377\377\007\376\377\377\007\300\377\377\377\377\377\377?\377\377\377\177\374\374\374\034\000\000\000\000\377\377\000\000\377\377\030\000\000\340\000\000\000\000\212\252\377\377\377\377\377\377\377\377\377\377\377\377\377\377\377\037\000\000\377\003\376\377\377\207\376\377\377\007\300\377\377\377\377\377\377\377\377\377\377\177\374\374\374\034\000\000\000\000\377\357\377\377\177\377\377\267\377?\377?\000\000\000\000\377\377\377\377\377\377\377\377\377\377\377\377\377\377\377\007\000\000\000\000\000\000\000\000\377\377\377\377\377\377\037\000\000\000\000\000\000\000\000\000\000\000\000\000\000\000\000\000\377\357\377\377\177\377\377\267\377?\377?\000\000\000\000\377\377\377\377\377\377\377\377\377\377\377\377\377\377\377\007\000\000\000\000\000\000\000\000\377\377\377\377\377\377\037\000\000\000\000\000\000\000\000\000\000\000\000\000\000\000\000 \000\000\000\000\000\000\000\000\000\000\000\000\000\000\000\000\377\377\377\037\377\377\377\377\377\377\001\000\000\000\000\000\377\377\377\377\000\340\377\377\377\007\377\377\377\377?\000\377\377\377?\377\377\377\377\017\377>\000\000\000\000\000\000\000\000\000\000\000\000\000\000\000\000\000\000\000\000\000\377\377\377\037\377\377\377\377\377\377\001\000\001\000\000\000\377\377\377\377\000\340\377\377\377\007\377\377\377\377\377\007\377\377\377?\377\377\377\377\017\377>\000\000\000\000\000\377\377\377\377\377\377\377\377\377\377\377\377\377\377\377\377\377\377\377?\000\000\377\377\377\377\017\377\377\377\377\017\377\377\377\377\377\000\377\377\377\377\377\377\017\000\377\367\377\367\267\377\373\377\373\033\000\000\000\000\000\000\000\000\377\377\377\377\377\377\377\377\377\377\377\377\377\377\377\377\377\377\377?\377\003\377\377\377\377\017\377\377\377\377\017\377\377\377\377\377\000\377\377\377\377\377\377\017\000\377\367\377\367\267\377\373\377\373\033\000\000\000\000\000\000\000\000?\375\377\377\377\377\277\221\377\377?\000\377\377\177\000\377\377\377\177\000\000\000\000\000\000\000\000\377\3777\000\377\377?\000\377\377\377\003\000\000\000\000\000\000\000\000\377\377\377\377\377\377\377\300\000\000\000\000\000\000\000\000\001\000\357\376\377\377?\000\000\000\000\000\377\377\377\037\377\377\377\037\000\000\000\000\377\376\377\377\037\000\000\000\377\377\377\377\377\377?\000\377\377?\000\377\377\007\000\377\377\003\000\000\000\000\000\000\000\000\000\000\000\000\000o\360\357\376\377\377?\207\000\000\000\000\377\377\377\037\377\377\377\037\000\000\000\000\377\376\377\377\177\000\000\000\377\377\377\377\377\377?\000\377\377?\000\377\377\007\000\377\377\003\000\000\000\000\000\000\000\000\000\000\000\000\000\377\377\377\377\377\377\377\377\377\001\000\000\000\000\000\000\377\377\377\377\377\377\007\000\377\377\377\377\377\377\007\000\377\377\377\377\017\000\000\000\000\000\000\000\000\000\000\000\000\000\000\000\000\000\000\000\000\000\000\000\000\000\000\000\377\377\377\377\377\377\377\377\377\001\000\000\000\000\000\000\377\377\377\377\377\377\007\000\377\377\377\377\377\377\007\000\377\377\377\377\377\000\377\003\000\000\000\000\000\000\000\000\000\000\000\000\000\000\000\000\000\000\000\000\000\000\000\000\000\000\000\000\000\000\000\000\000\000\000\000\000\000\000\000\377\377\377\377\377\003\003\000\000\000\000\000\000\000\000\000\377\377\377\037\200\000\377\377?\000\000\000\000\000\377\377\003\000\000\000\000\000\377\377\037\000\000\000\377\377\177\000\000\000\000\000\000\000\000\000\000\000\000\000\000\000\000\000\377\377\377\377\377\033\003\000\000\000\000\000\000\000\000\340\377\377\377\037\200\000\377\377\377\377\001\000\000\000\377\377?\000\000\000\000\000\377\377\037\000\000\000\377\377\177\000\370\377\377\377\377\377\377\000\000\000\000\000\000\000&\000\370\377\377\377\377\377\000\000\000\000\377\377\377\001\000\000\370\377\377\377\177\000\000\000\220\000\377\377\377\377G\000\370\377\377\377\377\377\007\000\036\000\000\024\000\000\000\000\377\377\377\377\377\377\377\377\177\000\000\000\300\377?\200\377\377\377\377\377\377\377\007\004\000\377\377\377\001\377\003\377\377\377\377\377\377\337\377\360\000\377\377\377\377O\000\377\377\377\377\377\377\377\377\037\336\377\027\000\000\000\000\377\377\373\377\377\017\000\200\001\000\000\000\000\000\000\000\177\275\377\277\377\001\377\377\377\377\377\177\000\000\000\000\340\237\371\377\377\375\355#\000\000\001\340\003\000\000\000\000\000\000\000\000\000\000\000\000\000\000\000\000\000\000\000\377\377\373\377\377\377\377\300\003\000\000\000\000\000\000\000\177\275\377\277\377\001\377\377\377\377\377\377\377\007\377\003\357\237\371\377\377\375\355\373\2379\201\340\317\037\037\000\000\000\000\000\000\000\000\000\000\000\000\000\000\000\000\000\377\377\377\377\377\377\037\000\200\007\000\200\003\000\000\000\377\377\377\377\377\377\000\000\260\000\000\000\000\000\000\000\000\000\000\000\000\000\000\000\000\000\000\000\000\000\000\000\377\377\377\377\377\177\000\000\000\000\000\017\000\000\000\000\377\377\377\377\377\377\377\377\377\007\377\303\003\000\000\000\377\377\377\377\377\377\377\377\277\000\377\003\000\000\000\000\000\000\000\000\000\000\000\000\000\000\000\000\000\000\000\000\377\377\377\377\377\377?\377\001\000\000?\000\000\000\000\377\377\377\377\377\377\000\000\020\000\000\000\000\000\000\000\377\377\377\377\377\007\000\001\000\000\000\000\000\000\000\000\377\377\377\007\000\000\000\000\177\000\000\000\000\000\000\000\000\000\000\000\000\000\000\000\000\000\000\000\000\000\000\000\377\377\377\377\377\377\377\377\021\000\377\003\000\000\000\000\377\377\377\377\377\377\377\001\377\003\000\000\000\000\000\000\377\377\377\347\377\017\377\003\177\000\000\000\000\000\000\000\000\000\000\000\000\000\000\000\000\000\000\000\000\000\000\000\377\377\377\377\377\017\000\000\000\000\000\000\000\000\000\000\000\000\000\000\377\377\377\377\377\377\377\377\000\000\000\200\177\362o\377\377\377\000\200\002\000\000\000\000\000\000\000\000\000\000\000\377\374\377\377\377\377\001\000\n\000\000\000\377\377\377\377\377\377\377\007\000\000\000\000\000\000\000\000\000\000\000\000\377\377\377\377\377\377\377\377\377\003\000\200\177\362o\377\377\377\277\371\017\000\377\003\000\000\000\000\000\000\000\000\377\374\377\377\377\377\377\374\033\000\000\000\001\370\377\377\377\377\007\004\000\000\001\360\377\377\377\377\377\003\000 \000\000\377\377\377\377\377\377\377\377\377\001\000\000\000\000\000\000\000\000\000\000\000\000\000\000\000\000\000\000\000\000\000\000\000\000\000\000\000\000\000\000\000\000\000\000\000\000\000\000\000\000\000\000\000\000\000\000\000\000\000\000\377\377\377\377\377\377\377\377\377\377\377\377\001\000\377\377\377\377\377\377\377\177\200\000\377\377\377\377\377\377\377\377\377#\000\000\377\377\377\377\377\377\377\377\377\001\000\000\000\000\000\000\000\000\000\000\000\000\000\000\000\000\000\000\000\000\000\000\000\000\000\000\000\000\000\000\000\000\000\000\000\000\000\000\000\000\000\000\000\000\000\000\000\000\000\000\000\000\000\000\000\000\000\000\000\000\000\000\357o\377\375\377\377\377\177\000\000\001\000\000\000\000\000\374\377\377\377\000\000\000\000\000\000\000\000\000\000\000\000\000\000\177\373\377\377\377\377\001\000@\000\000\000\277\375\377\377\377\003\000\001\000\000\000\000\000\000\000\000\000\000\000\000\377\375\377\377\377\377\177\377\001\000\377\003\000\000\374\377\377\377\374\377\377\376\177\000\000\000\000\000\000\000\000\000\177\373\377\377\377\377\177\264\377\000\377\003\277\375\377\377\377\177\373\001\377\003\000\000\000\000\000\000\000\000\000\000\000\000\000\000\000\000\000\000\000\000\000\000\000\000\000\000\000\000\000\000\000\000\000\000\000\000\000\000\377\377\007\000\364\377\375\377\377\377\017\000\000\000\000\000\000\000\000\000\000\000\000\000\000\000\001\000\000\000\000\000\000\000\000\000\000\000\000\000\000\000\000\000\000\000\000\000\000\000\000\000\000\000\000\000\000\000\000\000\000\000\000\000\377\377\177\000\377\377\375\377\377\377\377\307\007\000\377\003\000\000\000\000\000\000\000\000\000\000\001\000\000\000\000\000\000\000\000\000\377\377\377\377\377\377\377\377\377\377\377\377\377\177\000\000\377\377\377\377\377\377\377\377\377\377\377\377\377\377\377\377\377\377\377\377\377\377\377\377\017\000\000\000\000\000\000\000\000\000\000\000\000\000\000\000\000\000\000\000\000\000\000\000\377\377\377\377\377\377\000\000~\000\000\000\000\000\000\000\000\000\000\000\000\000\000\000\000\000\000\000\000\000\000\000\000\000\000\000\000\000\000\000\000\000\000\000\000\000\000\000\000\000\000\000\000\000\000\000\000\000\000\000\000\000\000\000\377\377\377\377\377?\377\377\177\000\000\000\000\000\000\000\000\000\000\000\000\000\000\000\000\000\000\000\000\000\000\000\377\377\377\377\377\377\000\000\377\377?\000\000\000\000\000\000\000\000\000\000\000\000\000\000\000\000\000\000\000\000\000\000\000\000\000\000\000\000\000\000\000\000\000\000\000\000\000\000\000\000\000\000\000\000\000\000\000\000\000\000\000\000\000\000\000\000\000\000\000\000\000\000\000\000\000\340\343\007\370\347\017\000\000\000<\000\000\000\000\000\000\000\000\000\000\377\377\377\377\377\377\377\377\177\000\000\000\000\000\000\000\000\000\000\000\000\000\000\000\000\000\000\000\000\000\000\000\000\000\000\000\000\000\000\000\000\000\000\000\000\000\000\000\000\000\000\000\000\000\000\000\000\000\000\000\000\000\000\000\377\377\377\177\340\007\000\000\000\000\000\000\000\000\000\000\000\000\000\000\000\000\000\000\000\000\000\000\000\000\000\000\377\377\377\377\377\377\377\001\377\377\377\177\000\000\377\377\377\377\377\377\377\377\377\177\000\000\377\377\377?\000\000\377\377\377\377\377\377\000\000\017\000\000\000\370\377\377\340\377\377\000\000\000\000\000\000\000\000\000\000\000\000\000\000\377\377\377\377\377\377\377\001\377\377\377\177\377\003\377\377\377\377\377\377\377\377\377\177\377\003\377\377\377?\037\000\377\377\377\377\377\377\177\000\017\000\377\003\370\377\377\340\377\377\000\000\000\000\000\000\000\000\000\000\000\000\000\000\000\000\000\000\000\000\000\000\377\377\377\377\377\377\377\377\000\000\000\000\000\000\000\000\000\000\000\000\000\000\000\000\377\377\377\377\377\377\377\377\377\007\001\000\000\000\000\000\000\000\370\377\000\000\000\000\000\000\000\000\013\000\000\000\000\000\000\000\000\000\000\000\377\377\377\377\377\377\377\377\000\000\000\000\000\000\000\000\000\000\000\000\000\000\000\000\377\377\377\377\377\377\377\377\377\207\377\377\377\377\377\377\377\200\377\377\000\000\000\000\000\000\000\000\033\000\003\000\377\377\377\377\377\377\377\377\377\377\377\377\377\377\377\377\377\377\377\377\377\377\377\377\377\377?\000\000\000\000\000\377\001\000\000\000\000\000\000\000\000\000\000\000\000\000\000\000\000\000\000\000\000\000\000\000\000\000\000\000\000\000\000\377\377\377\377\377\377\377\377\377\377\377\377\377\377\377\377\377\377\377\377\377\377\377\377\377\377\377\377\377\377\377\017\000\000\000\000\000\000\000\000\000\000\000\000\000\000\000\000\000\000\000\000\000\000\000\000\000\000\000\000\000\000\000\000\000\000\000\000\000\000\000\000\000\000\000\000\000\000\000\000\000\000\000\000\000\000\000\000\000\000\000\000\177o\377\177\377\377\377\377\377\377\377\377\377\377\377\377\377\007\377\037\377\001\377\003\000\000\000\000\000\000\000\000\000\000\000\000\000\000\000\000\000\000\000\000\000\000\000\000\000\000\000\000\000\000\000\000\000\000\000\000\000\000\000\000\000\000\000\000\000\000\000\000\000\000\000\000\000\000\000\000\000\000\000\000\000\000\000\000\000\000\000\000\000\000\000\000\000\000\377\003\377\377\377\377\377\377\377\377\377\377\377\377\377\007\377\037\377\001\377c\000\000\000\000\000\000\000\000\000\000\000\000\000\000\000\000\000\000\000\000\000\000\000\000\000\000\000\000\000\000\000\000\000\000\000\000\000\000\000\000\000\000\000\000\377\377\377\377\377\377\377\377\377\377\377\377\377\377\377\377\377\377\377\377\377\377\377\377\377\377\377\377\377\377\000\000\000\000\000\000\000\000\000\000\034\000\000\000\000\000\000\000\000\000\000\000\000\000\000\000\000\000\000\000\000\000\000\000\000\000\000\000\000\000\000\000\000\000\000\000\000\000\000\000\000\000\000\000\000\000\000\000\000\000\000\000\000\000\000\000\377\377\377\377\377\377\377\377\377\377\337\377\377\377\377\377\377\377\377\337d\336\377\353\357\377\377\377\377\377\377\377\277\347\337\337\377\377\377{_\374\375\377\377\377\377\377\377\377\377\377\377\377\377\377\377\377\377\377\377\377\377\377\377\377\377\377\377\377\377\377\377\377\377\377\377\377\377\377\377\377\377\377?\377\377\377\375\377\377\367\377\377\377\367\377\377\337\377\377\377\337\377\377\177\377\377\377\177\377\377\377\375\377\377\377\375\377\377\367\017\000\000\000\000\000\000\377\377\377\377\377\377\377\377\377\377\377\377\377\377\377\377\377\377\377\377?\377\377\377\375\377\377\367\377\377\377\367\377\377\337\377\377\377\337\377\377\177\377\377\377\177\377\377\377\375\377\377\377\375\377\377\367\317\377\377\377\377\377\377\377\377\377\377\377\377\177\370\377\377\377\377\377\037 \000\020\000\000\370\376\377\000\000\000\000\000\000\000\000\000\000\000\000\000\000\000\000\000\000\000\000\000\000\000\000\000\000\000\000\000\000\000\000\000\000\000\000\000\000\000\000\000\000\000\000\000\000\000\000\377\377\377\377\377\377\377?\000\000\000\000\000\000\000\000\000\000\000\000\000\000\000\000\000\000\377\377\377\377\377\037\200?\000@\000\000\000\000\000\000\000\000\000\000\000\000\000\000\000\000\000\000\000\000\000\000\177\377\377\371\333\007\377\377\377\377\377\377\377?\000\000\000\200\000\000\000\000\000\000\000\000\000\000\000\000\000\000\377\377\377\377\377\037\377?\377C\000\000\000\000\000\000\000\000\000\000\000\000\000\000\000\000\000\000\000\000\000\000\000\000\000\000\000\000\000\000\000\000\000\000\000\000\000\000\000\000\377\377\377?\000\000\377\377\377\377\377\017\000\000\000\000\000\000\000\000\000\000\000\000\000\000\000\000\000\000\000\000\000\000\000\000\000\000\000\000\000\000\000\000\000\000\000\000\000\000\000\000\000\000\000\000\000\000\000\000\000\000\000\000\377\377\377\177\000\000\377\377\377\377\377\377\377\003\000\000\000\000\000\000\000\000\000\000\000\000\000\000\000\000\000\000\000\000\000\000\000\000\000\000\000\000\000\000\000\000\000\000\000\000\000\000\000\000\000\000\000\000\000\000\000\000\000\000\000\000\000\000\000\000\000\000\377\377\377\017\000\000\000\000\000\000\000\000\000\000\000\000\000\000\000\000\000\000\000\000\000\000\000\000\000\000\000\000\000\000\000\000\000\000\000\000\000\000\000\000\000\000\000\000\000\000\000\000\000\000\000\000\000\000\000\000\000\000\000\000\377\377\377\377\377\003\000\000\000\000\000\000\000\000\000\000\000\000\000\000\000\000\000\000\000\000\000\000\000\000\000\000\000\000\000\000\000\000\377\377\377\377\377\377\377\377\377\377\377\377\377\377\377\377\377\377\377\377\377\377\377\377\037\000\000\000\000\000\000\000\377\377\377\377\377\377\377\377\017\b\000\000\000\000\000\000\000\000\000\000\000\000\000\000\000\000\000\000\000\000\000\000\377\377\377\377\377\377\377\377\377\377\377\377\377\377\377\377\377\377\377\377\377\377\377\377\037\000\177\000\000\000\000\000\377\377\377\377\377\377\377\377\377\017\377\003\000\000\000\000\000\000\000\000\000\000\000\000\000\000\000\000\000\000\000\000\357\377\377\377\226\376\367\n\204\352\226\252\226\367\367^\377\373\377\017\356\373\377\017\000\000\000\000\000\000\000\000\000\000\000\000\000\000\000\000\000\000\000\000\000\000\000\000\000\000\000\000\000\000\000\000\000\000\000\000\000\000\000\000\377\377\377\377\377\377\377\377\377\377\377\377\377\377\377\377\377\377\377\377\377\377\377\377\377\377\377\377\000\000\000\000\377\377\377\377\377\377\377\377\377\377\377\377\377\377\377\377\377\377\377\377\377\377\377\377\377\377\377\377\377\377\377\377\377\377\377\377\377\377\377\377\377\377\377\377\377\377\377\377\377\377\377\377\377\377\377\377\377\377\377\377\001\000\000\000\377\377\377?\377\377\377\377\377\377\377\377\377\377\377\377\377\377\377\377\377\377\377\377\377\377\377\377\377\377\377\377\377\377\377\377\377\377\377\377\377\377\377\377\377\377\377\377\377\377\377\377\377\377\377\377\377\377\377\377\377\377\377\377\377\377\377\377\377\377\377\377\377\007\377\377\377\377\377\377\377\377\377\377\377\377\377\377\377\377\377\377\377\377\377\377\377\377\377\377\377\377\377\377\377\377\377\377\377\377\377\377\377\377\377\377\003\000\377\377\377\377\377\377\377\377\377\377\377\377\377\377\377\377\377\377\377\377\377\377\377\377\377\377\377\377\377\377\377\377\377\377\377\377\377\377\377\377\377\377\377\377\377\377\377\377\377\377\377\377\377\377\377\377\377\377\377\377\377\377\377\377\000\000\000\000\000\000\000\000\000\000\377\377\377?\000\000\000\000\000\000\000\000\000\000\000\000\000\000\000\000\000\000\000\000\000\000\000\000\000\000\000\000\000\000\000\000\000\000\000\000\000\000\000\000\000\000\000\000\000\000\000\000\000\000\000\000\000\000\000\000\000\000\000"
	.space	32

	.section	__TEXT,__const
Lsec_end0:
	.section	__TEXT,__text,regular,pure_instructions
Lsec_end1: