	.section	__TEXT,__text,regular,pure_instructions
	.macosx_version_min 10, 7
	.globl	__ZN106_$LT$core..ops..range..Range$LT$usize$GT$$u20$as$u20$core..slice..index..SliceIndex$LT$$u5b$T$u5d$$GT$$GT$13get_unchecked17h0e8aa52efe274c1cE
	.p2align	4, 0x90
__ZN106_$LT$core..ops..range..Range$LT$usize$GT$$u20$as$u20$core..slice..index..SliceIndex$LT$$u5b$T$u5d$$GT$$GT$13get_unchecked17h0e8aa52efe274c1cE:
Lfunc_begin0:
	.file	1 "/rustc/2c8cc343237b8f7d5a3c3703e3a87f2eb2c54a74/library/core/src/slice" "index.rs"
	.loc	1 373 0
	.cfi_startproc
	pushq	%rbp
	.cfi_def_cfa_offset 16
	.cfi_offset %rbp, -16
	movq	%rsp, %rbp
	.cfi_def_cfa_register %rbp
	subq	$160, %rsp
	movq	%rdi, -128(%rbp)
	movq	%rsi, -120(%rbp)
	movq	%rdx, -112(%rbp)
	movq	%rcx, -104(%rbp)
Ltmp0:
	.loc	1 386 39 prologue_end
	movq	%rdx, -96(%rbp)
	movq	%rcx, -88(%rbp)
Ltmp1:
	.file	2 "/rustc/2c8cc343237b8f7d5a3c3703e3a87f2eb2c54a74/library/core/src/ptr" "const_ptr.rs"
	.loc	2 1650 9
	movq	%rdx, -80(%rbp)
Ltmp2:
	.loc	1 386 58
	movq	%rdi, -72(%rbp)
Ltmp3:
	.loc	2 932 18
	movq	%rdx, -64(%rbp)
	.loc	2 932 30 is_stmt 0
	movq	%rdi, -56(%rbp)
Ltmp4:
	.loc	2 473 18 is_stmt 1
	leaq	(%rdx,%rdi,4), %rax
	movq	%rax, -48(%rbp)
	movq	-48(%rbp), %rax
	movq	%rax, -40(%rbp)
Ltmp5:
	.loc	1 386 71
	subq	%rdi, %rsi
	movq	%rsi, -32(%rbp)
Ltmp6:
	.file	3 "/rustc/2c8cc343237b8f7d5a3c3703e3a87f2eb2c54a74/library/core/src/ptr" "mod.rs"
	.loc	3 734 20
	movq	%rax, -24(%rbp)
Ltmp7:
	.loc	2 61 9
	movq	%rax, -16(%rbp)
Ltmp8:
	.loc	3 734 33
	movq	%rsi, -8(%rbp)
Ltmp9:
	.file	4 "/rustc/2c8cc343237b8f7d5a3c3703e3a87f2eb2c54a74/library/core/src/ptr" "metadata.rs"
	.loc	4 118 36
	movq	%rax, -144(%rbp)
	movq	%rsi, -136(%rbp)
	.loc	4 118 14 is_stmt 0
	movq	-144(%rbp), %rcx
	movq	-136(%rbp), %rax
	movq	%rcx, -160(%rbp)
	movq	%rax, -152(%rbp)
	movq	-160(%rbp), %rax
	movq	-152(%rbp), %rdx
Ltmp10:
	.loc	1 388 6 is_stmt 1
	addq	$160, %rsp
	popq	%rbp
	retq
Ltmp11:
Lfunc_end0:
	.cfi_endproc

	.globl	__ZN106_$LT$core..ops..range..Range$LT$usize$GT$$u20$as$u20$core..slice..index..SliceIndex$LT$$u5b$T$u5d$$GT$$GT$17get_unchecked_mut17h3d140668ee45d5c7E
	.p2align	4, 0x90
__ZN106_$LT$core..ops..range..Range$LT$usize$GT$$u20$as$u20$core..slice..index..SliceIndex$LT$$u5b$T$u5d$$GT$$GT$17get_unchecked_mut17h3d140668ee45d5c7E:
Lfunc_begin1:
	.loc	1 391 0
	.cfi_startproc
	pushq	%rbp
	.cfi_def_cfa_offset 16
	.cfi_offset %rbp, -16
	movq	%rsp, %rbp
	.cfi_def_cfa_register %rbp
	subq	$160, %rsp
	movq	%rdi, -128(%rbp)
	movq	%rsi, -120(%rbp)
	movq	%rdx, -112(%rbp)
	movq	%rcx, -104(%rbp)
Ltmp12:
	.loc	1 400 43 prologue_end
	movq	%rdx, -96(%rbp)
	movq	%rcx, -88(%rbp)
Ltmp13:
	.file	5 "/rustc/2c8cc343237b8f7d5a3c3703e3a87f2eb2c54a74/library/core/src/ptr" "mut_ptr.rs"
	.loc	5 2037 9
	movq	%rdx, -80(%rbp)
Ltmp14:
	.loc	1 400 66
	movq	%rdi, -72(%rbp)
Ltmp15:
	.loc	5 1034 18
	movq	%rdx, -64(%rbp)
	.loc	5 1034 30 is_stmt 0
	movq	%rdi, -56(%rbp)
Ltmp16:
	.loc	5 487 18 is_stmt 1
	addq	%rdi, %rdx
	movq	%rdx, -48(%rbp)
	movq	-48(%rbp), %rax
	movq	%rax, -40(%rbp)
Ltmp17:
	.loc	1 400 79
	subq	%rdi, %rsi
	movq	%rsi, -32(%rbp)
Ltmp18:
	.loc	3 766 24
	movq	%rax, -24(%rbp)
Ltmp19:
	.loc	5 60 9
	movq	%rax, -16(%rbp)
Ltmp20:
	.loc	3 766 37
	movq	%rsi, -8(%rbp)
Ltmp21:
	.loc	4 135 36
	movq	%rax, -144(%rbp)
	movq	%rsi, -136(%rbp)
	.loc	4 135 14 is_stmt 0
	movq	-144(%rbp), %rcx
	movq	-136(%rbp), %rax
	movq	%rcx, -160(%rbp)
	movq	%rax, -152(%rbp)
	movq	-160(%rbp), %rax
	movq	-152(%rbp), %rdx
Ltmp22:
	.loc	1 402 6 is_stmt 1
	addq	$160, %rsp
	popq	%rbp
	retq
Ltmp23:
Lfunc_end1:
	.cfi_endproc

	.globl	__ZN106_$LT$core..ops..range..Range$LT$usize$GT$$u20$as$u20$core..slice..index..SliceIndex$LT$$u5b$T$u5d$$GT$$GT$5index17h5f0d38db56873be9E
	.p2align	4, 0x90
__ZN106_$LT$core..ops..range..Range$LT$usize$GT$$u20$as$u20$core..slice..index..SliceIndex$LT$$u5b$T$u5d$$GT$$GT$5index17h5f0d38db56873be9E:
Lfunc_begin2:
	.loc	1 405 0
	.cfi_startproc
	pushq	%rbp
	.cfi_def_cfa_offset 16
	.cfi_offset %rbp, -16
	movq	%rsp, %rbp
	.cfi_def_cfa_register %rbp
	subq	$80, %rsp
	movq	%rdi, -72(%rbp)
	movq	%rsi, -64(%rbp)
	movq	%rdx, -56(%rbp)
	movq	%rcx, -48(%rbp)
	movq	%r8, -40(%rbp)
	movq	%rdi, -32(%rbp)
	movq	%rsi, -24(%rbp)
	movq	%rdx, -16(%rbp)
	movq	%rcx, -8(%rbp)
Ltmp24:
	.loc	1 406 12 prologue_end
	cmpq	%rsi, %rdi
	ja	LBB2_2
	.loc	1 0 12 is_stmt 0
	movq	-64(%rbp), %rax
	movq	-48(%rbp), %rcx
	.loc	1 408 19 is_stmt 1
	cmpq	%rcx, %rax
	ja	LBB2_4
	jmp	LBB2_3
LBB2_2:
	.loc	1 0 19 is_stmt 0
	movq	-40(%rbp), %rdx
	movq	-64(%rbp), %rsi
	movq	-72(%rbp), %rdi
	.loc	1 407 13 is_stmt 1
	callq	__ZN4core5slice5index22slice_index_order_fail17h0d8f800a07d5f26eE
LBB2_3:
	.loc	1 0 13 is_stmt 0
	movq	-48(%rbp), %rcx
	movq	-56(%rbp), %rdx
	movq	-64(%rbp), %rsi
	movq	-72(%rbp), %rdi
	.loc	1 412 20 is_stmt 1
	callq	__ZN106_$LT$core..ops..range..Range$LT$usize$GT$$u20$as$u20$core..slice..index..SliceIndex$LT$$u5b$T$u5d$$GT$$GT$13get_unchecked17h0e8aa52efe274c1cE
	.loc	1 413 6
	addq	$80, %rsp
	popq	%rbp
	retq
LBB2_4:
	.loc	1 0 6 is_stmt 0
	movq	-40(%rbp), %rdx
	movq	-48(%rbp), %rsi
	movq	-64(%rbp), %rdi
	.loc	1 409 13 is_stmt 1
	callq	__ZN4core5slice5index24slice_end_index_len_fail17hc921cb2f1513645aE
Ltmp25:
Lfunc_end2:
	.cfi_endproc

	.globl	__ZN106_$LT$core..ops..range..Range$LT$usize$GT$$u20$as$u20$core..slice..index..SliceIndex$LT$$u5b$T$u5d$$GT$$GT$9index_mut17hf56110fb0ac99181E
	.p2align	4, 0x90
__ZN106_$LT$core..ops..range..Range$LT$usize$GT$$u20$as$u20$core..slice..index..SliceIndex$LT$$u5b$T$u5d$$GT$$GT$9index_mut17hf56110fb0ac99181E:
Lfunc_begin3:
	.loc	1 416 0
	.cfi_startproc
	pushq	%rbp
	.cfi_def_cfa_offset 16
	.cfi_offset %rbp, -16
	movq	%rsp, %rbp
	.cfi_def_cfa_register %rbp
	subq	$80, %rsp
	movq	%rdi, -72(%rbp)
	movq	%rsi, -64(%rbp)
	movq	%rdx, -56(%rbp)
	movq	%rcx, -48(%rbp)
	movq	%r8, -40(%rbp)
	movq	%rdi, -32(%rbp)
	movq	%rsi, -24(%rbp)
	movq	%rdx, -16(%rbp)
	movq	%rcx, -8(%rbp)
Ltmp26:
	.loc	1 417 12 prologue_end
	cmpq	%rsi, %rdi
	ja	LBB3_2
	.loc	1 0 12 is_stmt 0
	movq	-64(%rbp), %rax
	movq	-48(%rbp), %rcx
	.loc	1 419 19 is_stmt 1
	cmpq	%rcx, %rax
	ja	LBB3_4
	jmp	LBB3_3
LBB3_2:
	.loc	1 0 19 is_stmt 0
	movq	-40(%rbp), %rdx
	movq	-64(%rbp), %rsi
	movq	-72(%rbp), %rdi
	.loc	1 418 13 is_stmt 1
	callq	__ZN4core5slice5index22slice_index_order_fail17h0d8f800a07d5f26eE
LBB3_3:
	.loc	1 0 13 is_stmt 0
	movq	-48(%rbp), %rcx
	movq	-56(%rbp), %rdx
	movq	-64(%rbp), %rsi
	movq	-72(%rbp), %rdi
	.loc	1 423 24 is_stmt 1
	callq	__ZN106_$LT$core..ops..range..Range$LT$usize$GT$$u20$as$u20$core..slice..index..SliceIndex$LT$$u5b$T$u5d$$GT$$GT$17get_unchecked_mut17h3d140668ee45d5c7E
	.loc	1 424 6
	addq	$80, %rsp
	popq	%rbp
	retq
LBB3_4:
	.loc	1 0 6 is_stmt 0
	movq	-40(%rbp), %rdx
	movq	-48(%rbp), %rsi
	movq	-64(%rbp), %rdi
	.loc	1 420 13 is_stmt 1
	callq	__ZN4core5slice5index24slice_end_index_len_fail17hc921cb2f1513645aE
Ltmp27:
Lfunc_end3:
	.cfi_endproc

	.globl	__ZN108_$LT$core..ops..range..RangeTo$LT$usize$GT$$u20$as$u20$core..slice..index..SliceIndex$LT$$u5b$T$u5d$$GT$$GT$5index17h9f588254921ceff4E
	.p2align	4, 0x90
__ZN108_$LT$core..ops..range..RangeTo$LT$usize$GT$$u20$as$u20$core..slice..index..SliceIndex$LT$$u5b$T$u5d$$GT$$GT$5index17h9f588254921ceff4E:
Lfunc_begin4:
	.loc	1 455 0
	.cfi_startproc
	pushq	%rbp
	.cfi_def_cfa_offset 16
	.cfi_offset %rbp, -16
	movq	%rsp, %rbp
	.cfi_def_cfa_register %rbp
	subq	$48, %rsp
	movq	%rcx, %r8
	movq	%rdx, %rcx
	movq	%rsi, %rdx
	movq	%rdi, -24(%rbp)
	movq	%rdx, -16(%rbp)
	movq	%rcx, -8(%rbp)
Ltmp28:
	.loc	1 456 9 prologue_end
	movq	$0, -40(%rbp)
	movq	%rdi, -32(%rbp)
	movq	-40(%rbp), %rdi
	movq	-32(%rbp), %rsi
	callq	__ZN106_$LT$core..ops..range..Range$LT$usize$GT$$u20$as$u20$core..slice..index..SliceIndex$LT$$u5b$T$u5d$$GT$$GT$5index17h5f0d38db56873be9E
	.loc	1 457 6
	addq	$48, %rsp
	popq	%rbp
	retq
Ltmp29:
Lfunc_end4:
	.cfi_endproc

	.globl	__ZN110_$LT$core..ops..range..RangeFrom$LT$usize$GT$$u20$as$u20$core..slice..index..SliceIndex$LT$$u5b$T$u5d$$GT$$GT$5index17h4820a1bbe53bc766E
	.p2align	4, 0x90
__ZN110_$LT$core..ops..range..RangeFrom$LT$usize$GT$$u20$as$u20$core..slice..index..SliceIndex$LT$$u5b$T$u5d$$GT$$GT$5index17h4820a1bbe53bc766E:
Lfunc_begin5:
	.loc	1 493 0
	.cfi_startproc
	pushq	%rbp
	.cfi_def_cfa_offset 16
	.cfi_offset %rbp, -16
	movq	%rsp, %rbp
	.cfi_def_cfa_register %rbp
	subq	$144, %rsp
	movq	%rdi, -144(%rbp)
	movq	%rsi, -136(%rbp)
	movq	%rdx, -128(%rbp)
	movq	%rcx, -120(%rbp)
	movq	%rdi, -80(%rbp)
	movq	%rsi, -72(%rbp)
	movq	%rdx, -64(%rbp)
Ltmp30:
	.loc	1 494 12 prologue_end
	cmpq	%rdx, %rdi
	ja	LBB5_2
	.loc	1 0 12 is_stmt 0
	movq	-128(%rbp), %rcx
	movq	-136(%rbp), %rdx
	movq	-144(%rbp), %rsi
	.loc	1 498 20 is_stmt 1
	movq	%rsi, -56(%rbp)
	.loc	1 498 39 is_stmt 0
	movq	%rdx, -48(%rbp)
	movq	%rcx, -40(%rbp)
Ltmp31:
	.loc	1 483 31 is_stmt 1
	movq	%rdx, -32(%rbp)
	movq	%rcx, -24(%rbp)
Ltmp32:
	.loc	2 1630 18
	movq	%rdx, -16(%rbp)
	movq	%rcx, -8(%rbp)
Ltmp33:
	.loc	4 98 14
	movq	%rdx, -96(%rbp)
	movq	%rcx, -88(%rbp)
	movq	-88(%rbp), %rax
Ltmp34:
	.loc	1 483 18
	movq	%rsi, -112(%rbp)
	movq	%rax, -104(%rbp)
	movq	-112(%rbp), %rdi
	movq	-104(%rbp), %rsi
	callq	__ZN106_$LT$core..ops..range..Range$LT$usize$GT$$u20$as$u20$core..slice..index..SliceIndex$LT$$u5b$T$u5d$$GT$$GT$13get_unchecked17h0e8aa52efe274c1cE
Ltmp35:
	.loc	1 499 6
	addq	$144, %rsp
	popq	%rbp
	retq
LBB5_2:
	.loc	1 0 6 is_stmt 0
	movq	-120(%rbp), %rdx
	movq	-128(%rbp), %rsi
	movq	-144(%rbp), %rdi
	.loc	1 495 13 is_stmt 1
	callq	__ZN4core5slice5index26slice_start_index_len_fail17h9d301bb51ec3e351E
Ltmp36:
Lfunc_end5:
	.cfi_endproc

	.globl	__ZN119_$LT$core..ptr..non_null..NonNull$LT$T$GT$$u20$as$u20$core..convert..From$LT$core..ptr..unique..Unique$LT$T$GT$$GT$$GT$4from17h6caa7995582957c7E
	.p2align	4, 0x90
__ZN119_$LT$core..ptr..non_null..NonNull$LT$T$GT$$u20$as$u20$core..convert..From$LT$core..ptr..unique..Unique$LT$T$GT$$GT$$GT$4from17h6caa7995582957c7E:
Lfunc_begin6:
	.file	6 "/rustc/2c8cc343237b8f7d5a3c3703e3a87f2eb2c54a74/library/core/src/ptr" "non_null.rs"
	.loc	6 765 0
	.cfi_startproc
	pushq	%rbp
	.cfi_def_cfa_offset 16
	.cfi_offset %rbp, -16
	movq	%rsp, %rbp
	.cfi_def_cfa_register %rbp
	subq	$40, %rsp
	movq	%rdi, -32(%rbp)
Ltmp37:
	.loc	6 768 41 prologue_end
	movq	%rdi, -24(%rbp)
Ltmp38:
	.file	7 "/rustc/2c8cc343237b8f7d5a3c3703e3a87f2eb2c54a74/library/core/src/ptr" "unique.rs"
	.loc	7 104 9
	movq	%rdi, -16(%rbp)
Ltmp39:
	.loc	6 326 9
	movq	%rdi, -8(%rbp)
Ltmp40:
	.loc	6 201 13
	movq	%rdi, -40(%rbp)
Ltmp41:
	.loc	6 769 6
	movq	-40(%rbp), %rax
	addq	$40, %rsp
	popq	%rbp
	retq
Ltmp42:
Lfunc_end6:
	.cfi_endproc

	.p2align	4, 0x90
__ZN122_$LT$alloc..collections..TryReserveError$u20$as$u20$core..convert..From$LT$alloc..collections..TryReserveErrorKind$GT$$GT$4from17hc4deb8e3a860abeeE:
Lfunc_begin7:
	.file	8 "/rustc/2c8cc343237b8f7d5a3c3703e3a87f2eb2c54a74/library/alloc/src/collections" "mod.rs"
	.loc	8 116 0
	.cfi_startproc
	pushq	%rbp
	.cfi_def_cfa_offset 16
	.cfi_offset %rbp, -16
	movq	%rsp, %rbp
	.cfi_def_cfa_register %rbp
	subq	$32, %rsp
	movq	%rdi, -16(%rbp)
	movq	%rsi, -8(%rbp)
Ltmp43:
	.loc	8 117 9 prologue_end
	movq	%rdi, -32(%rbp)
	movq	%rsi, -24(%rbp)
	.loc	8 118 6
	movq	-32(%rbp), %rax
	movq	-24(%rbp), %rdx
	addq	$32, %rsp
	popq	%rbp
	retq
Ltmp44:
Lfunc_end7:
	.cfi_endproc

	.globl	__ZN132_$LT$alloc..vec..Vec$LT$T$C$A$GT$$u20$as$u20$alloc..vec..spec_extend..SpecExtend$LT$$RF$T$C$core..slice..iter..Iter$LT$T$GT$$GT$$GT$11spec_extend17h3e4a49f6f59f7211E
	.p2align	4, 0x90
__ZN132_$LT$alloc..vec..Vec$LT$T$C$A$GT$$u20$as$u20$alloc..vec..spec_extend..SpecExtend$LT$$RF$T$C$core..slice..iter..Iter$LT$T$GT$$GT$$GT$11spec_extend17h3e4a49f6f59f7211E:
Lfunc_begin8:
	.file	9 "/rustc/2c8cc343237b8f7d5a3c3703e3a87f2eb2c54a74/library/alloc/src/vec" "spec_extend.rs"
	.loc	9 53 0
	.cfi_startproc
	pushq	%rbp
	.cfi_def_cfa_offset 16
	.cfi_offset %rbp, -16
	movq	%rsp, %rbp
	.cfi_def_cfa_register %rbp
	subq	$48, %rsp
	movq	%rdi, -48(%rbp)
	movq	%rsi, -40(%rbp)
	movq	%rdx, -32(%rbp)
	movq	%rdi, -24(%rbp)
Ltmp45:
	.loc	9 54 21 prologue_end
	leaq	-40(%rbp), %rdi
	callq	__ZN4core5slice4iter13Iter$LT$T$GT$8as_slice17hd735acf84f2c4cdbE
	movq	-48(%rbp), %rdi
	movq	%rax, %rsi
	movq	%rsi, -16(%rbp)
	movq	%rdx, -8(%rbp)
Ltmp46:
	.loc	9 55 18
	callq	__ZN5alloc3vec16Vec$LT$T$C$A$GT$15append_elements17h16a187f3d057cfc9E
Ltmp47:
	.loc	9 56 6
	addq	$48, %rsp
	popq	%rbp
	retq
Ltmp48:
Lfunc_end8:
	.cfi_endproc

	.globl	__ZN42_$LT$$RF$T$u20$as$u20$core..fmt..Debug$GT$3fmt17h1084c321d46fbc4aE
	.p2align	4, 0x90
__ZN42_$LT$$RF$T$u20$as$u20$core..fmt..Debug$GT$3fmt17h1084c321d46fbc4aE:
Lfunc_begin9:
	.file	10 "/rustc/2c8cc343237b8f7d5a3c3703e3a87f2eb2c54a74/library/core/src/fmt" "mod.rs"
	.loc	10 2377 0
	.cfi_startproc
	pushq	%rbp
	.cfi_def_cfa_offset 16
	.cfi_offset %rbp, -16
	movq	%rsp, %rbp
	.cfi_def_cfa_register %rbp
	subq	$16, %rsp
	movq	%rdi, -16(%rbp)
	movq	%rsi, -8(%rbp)
Ltmp49:
	.loc	10 2377 71 prologue_end
	movq	(%rdi), %rdi
	.loc	10 2377 62 is_stmt 0
	callq	__ZN4core3fmt3num52_$LT$impl$u20$core..fmt..Debug$u20$for$u20$usize$GT$3fmt17hf39d66fdc7bc0d52E
	.loc	10 2377 84
	andb	$1, %al
	movzbl	%al, %eax
	addq	$16, %rsp
	popq	%rbp
	retq
Ltmp50:
Lfunc_end9:
	.cfi_endproc

	.p2align	4, 0x90
__ZN4core3cmp5impls50_$LT$impl$u20$core..cmp..Ord$u20$for$u20$usize$GT$3cmp17hba9ec2288575e60eE:
Lfunc_begin10:
	.file	11 "/rustc/2c8cc343237b8f7d5a3c3703e3a87f2eb2c54a74/library/core/src" "cmp.rs"
	.loc	11 1454 0 is_stmt 1
	.cfi_startproc
	pushq	%rbp
	.cfi_def_cfa_offset 16
	.cfi_offset %rbp, -16
	movq	%rsp, %rbp
	.cfi_def_cfa_register %rbp
	subq	$40, %rsp
	movq	%rdi, -40(%rbp)
	movq	%rsi, -32(%rbp)
	movq	%rdi, -16(%rbp)
	movq	%rsi, -8(%rbp)
Ltmp51:
	.loc	11 1457 24 prologue_end
	movq	(%rdi), %rax
	cmpq	(%rsi), %rax
	jb	LBB10_2
	.loc	11 0 24 is_stmt 0
	movq	-32(%rbp), %rcx
	movq	-40(%rbp), %rax
	.loc	11 1458 29 is_stmt 1
	movq	(%rax), %rax
	cmpq	(%rcx), %rax
	je	LBB10_5
	jmp	LBB10_4
LBB10_2:
	.loc	11 1457 41
	movb	$-1, -17(%rbp)
LBB10_3:
	.loc	11 1460 18
	movb	-17(%rbp), %al
	addq	$40, %rsp
	popq	%rbp
	retq
LBB10_4:
	.loc	11 1459 28
	movb	$1, -17(%rbp)
	.loc	11 1458 26
	jmp	LBB10_6
LBB10_5:
	.loc	11 1458 47 is_stmt 0
	movb	$0, -17(%rbp)
LBB10_6:
	.loc	11 1457 21 is_stmt 1
	jmp	LBB10_3
Ltmp52:
Lfunc_end10:
	.cfi_endproc

	.globl	__ZN4core3cmp6max_by17h0881f4edee265ef5E
	.p2align	4, 0x90
__ZN4core3cmp6max_by17h0881f4edee265ef5E:
Lfunc_begin11:
	.loc	11 1295 0
	.cfi_startproc
	.cfi_personality 155, _rust_eh_personality
	.cfi_lsda 16, Lexception0
	pushq	%rbp
	.cfi_def_cfa_offset 16
	.cfi_offset %rbp, -16
	movq	%rsp, %rbp
	.cfi_def_cfa_register %rbp
	subq	$96, %rsp
	movq	%rdi, -80(%rbp)
	movq	%rsi, -72(%rbp)
Ltmp56:
	.loc	11 1300 11 prologue_end
	movb	$1, -25(%rbp)
	movb	$1, -26(%rbp)
	leaq	-80(%rbp), %rax
	movq	%rax, -48(%rbp)
	leaq	-72(%rbp), %rax
	movq	%rax, -40(%rbp)
	movq	-48(%rbp), %rdi
	movq	-40(%rbp), %rsi
Ltmp53:
	callq	__ZN4core3ops8function6FnOnce9call_once17h3d0cb68c645667aeE
Ltmp54:
	movb	%al, -81(%rbp)
	jmp	LBB11_3
LBB11_1:
	.loc	11 1304 1
	jmp	LBB11_4
LBB11_2:
Ltmp55:
	.loc	11 0 1 is_stmt 0
	movq	%rax, %rcx
	movl	%edx, %eax
	movq	%rcx, -16(%rbp)
	movl	%eax, -8(%rbp)
	jmp	LBB11_1
LBB11_3:
	movb	-81(%rbp), %al
	.loc	11 1300 11 is_stmt 1
	movb	%al, -49(%rbp)
	movb	-49(%rbp), %al
	.loc	11 1300 5 is_stmt 0
	incb	%al
	subb	$2, %al
	jb	LBB11_6
	jmp	LBB11_15
LBB11_15:
	jmp	LBB11_7
LBB11_4:
	.loc	11 1304 1 is_stmt 1
	testb	$1, -25(%rbp)
	jne	LBB11_12
	jmp	LBB11_11
	.loc	11 1300 11
	ud2
LBB11_6:
	.loc	11 1301 45
	movb	$0, -26(%rbp)
	movq	-72(%rbp), %rax
	movq	%rax, -64(%rbp)
	jmp	LBB11_8
LBB11_7:
	.loc	11 1302 30
	movb	$0, -25(%rbp)
	movq	-80(%rbp), %rax
	movq	%rax, -64(%rbp)
LBB11_8:
	.loc	11 1304 1
	testb	$1, -26(%rbp)
	jne	LBB11_10
LBB11_9:
	testb	$1, -25(%rbp)
	jne	LBB11_14
	jmp	LBB11_13
LBB11_10:
	jmp	LBB11_9
LBB11_11:
	.loc	11 1295 1
	movq	-16(%rbp), %rdi
	callq	__Unwind_Resume
LBB11_12:
	.loc	11 1304 1
	jmp	LBB11_11
LBB11_13:
	.loc	11 1304 2 is_stmt 0
	movq	-64(%rbp), %rax
	addq	$96, %rsp
	popq	%rbp
	retq
LBB11_14:
	.loc	11 1304 1
	jmp	LBB11_13
Ltmp57:
Lfunc_end11:
	.cfi_endproc
	.section	__TEXT,__gcc_except_tab
	.p2align	2
GCC_except_table11:
Lexception0:
	.byte	255
	.byte	255
	.byte	1
	.uleb128 Lcst_end0-Lcst_begin0
Lcst_begin0:
	.uleb128 Ltmp53-Lfunc_begin11
	.uleb128 Ltmp54-Ltmp53
	.uleb128 Ltmp55-Lfunc_begin11
	.byte	0
	.uleb128 Ltmp54-Lfunc_begin11
	.uleb128 Lfunc_end11-Ltmp54
	.byte	0
	.byte	0
Lcst_end0:
	.p2align	2

	.section	__TEXT,__text,regular,pure_instructions
	.p2align	4, 0x90
__ZN4core3fmt3num52_$LT$impl$u20$core..fmt..Debug$u20$for$u20$usize$GT$3fmt17hf39d66fdc7bc0d52E:
Lfunc_begin12:
	.file	12 "/rustc/2c8cc343237b8f7d5a3c3703e3a87f2eb2c54a74/library/core/src/fmt" "num.rs"
	.loc	12 185 0 is_stmt 1
	.cfi_startproc
	pushq	%rbp
	.cfi_def_cfa_offset 16
	.cfi_offset %rbp, -16
	movq	%rsp, %rbp
	.cfi_def_cfa_register %rbp
	subq	$48, %rsp
	movq	%rsi, -48(%rbp)
	movq	%rdi, %rax
	movq	-48(%rbp), %rdi
	movq	%rax, -40(%rbp)
	movq	%rdi, -32(%rbp)
	movq	%rax, -16(%rbp)
	movq	%rdi, -8(%rbp)
Ltmp58:
	.loc	12 186 20 prologue_end
	callq	__ZN4core3fmt9Formatter15debug_lower_hex17h0921e6b9188d914eE
	testb	$1, %al
	jne	LBB12_2
	.loc	12 0 20 is_stmt 0
	movq	-32(%rbp), %rdi
	.loc	12 188 27 is_stmt 1
	callq	__ZN4core3fmt9Formatter15debug_upper_hex17h8ce487049a6cccf8E
	testb	$1, %al
	jne	LBB12_5
	jmp	LBB12_4
LBB12_2:
	.loc	12 0 27 is_stmt 0
	movq	-32(%rbp), %rsi
	movq	-40(%rbp), %rdi
	.loc	12 187 21 is_stmt 1
	callq	__ZN4core3fmt3num55_$LT$impl$u20$core..fmt..LowerHex$u20$for$u20$usize$GT$3fmt17h84f349805fe63f8dE
	andb	$1, %al
	movb	%al, -17(%rbp)
LBB12_3:
	.loc	12 193 14
	movb	-17(%rbp), %al
	andb	$1, %al
	movzbl	%al, %eax
	addq	$48, %rsp
	popq	%rbp
	retq
LBB12_4:
	.loc	12 0 14 is_stmt 0
	movq	-32(%rbp), %rsi
	movq	-40(%rbp), %rdi
	.loc	12 191 21 is_stmt 1
	callq	__ZN4core3fmt3num3imp54_$LT$impl$u20$core..fmt..Display$u20$for$u20$usize$GT$3fmt17ha5c925fcd7ed33faE
	andb	$1, %al
	movb	%al, -17(%rbp)
	.loc	12 188 24
	jmp	LBB12_6
LBB12_5:
	.loc	12 0 24 is_stmt 0
	movq	-32(%rbp), %rsi
	movq	-40(%rbp), %rdi
	.loc	12 189 21 is_stmt 1
	callq	__ZN4core3fmt3num55_$LT$impl$u20$core..fmt..UpperHex$u20$for$u20$usize$GT$3fmt17h49aa717311edc293E
	andb	$1, %al
	movb	%al, -17(%rbp)
LBB12_6:
	.loc	12 186 17
	jmp	LBB12_3
Ltmp59:
Lfunc_end12:
	.cfi_endproc

	.p2align	4, 0x90
__ZN4core3fmt9Arguments6new_v117h7f2a79ea6668a47fE:
Lfunc_begin13:
	.loc	10 399 0
	.cfi_startproc
	pushq	%rbp
	.cfi_def_cfa_offset 16
	.cfi_offset %rbp, -16
	movq	%rsp, %rbp
	.cfi_def_cfa_register %rbp
	subq	$160, %rsp
	movq	%r8, -152(%rbp)
	movq	%rcx, -144(%rbp)
	movq	%rdx, -136(%rbp)
	movq	%rsi, -128(%rbp)
	movq	%rdi, -120(%rbp)
	movq	%rdi, -112(%rbp)
	movq	%rsi, -32(%rbp)
	movq	%rdx, -24(%rbp)
	movq	%rcx, -16(%rbp)
	movq	%r8, -8(%rbp)
Ltmp60:
	.loc	10 400 12 prologue_end
	cmpq	%r8, %rdx
	jb	LBB13_2
	.loc	10 0 12 is_stmt 0
	movq	-136(%rbp), %rax
	movq	-152(%rbp), %rcx
	.loc	10 400 56
	addq	$1, %rcx
	.loc	10 400 41
	cmpq	%rcx, %rax
	seta	%al
	.loc	10 400 12
	andb	$1, %al
	movb	%al, -97(%rbp)
	jmp	LBB13_3
LBB13_2:
	movb	$1, -97(%rbp)
LBB13_3:
	testb	$1, -97(%rbp)
	jne	LBB13_5
	.loc	10 0 12
	movq	-112(%rbp), %rax
	movq	-120(%rbp), %rcx
	movq	-152(%rbp), %rdx
	movq	-144(%rbp), %rsi
	movq	-136(%rbp), %rdi
	movq	-128(%rbp), %r8
	.loc	10 403 34 is_stmt 1
	movq	$0, -48(%rbp)
	.loc	10 403 9 is_stmt 0
	movq	%r8, 16(%rcx)
	movq	%rdi, 24(%rcx)
	movq	-48(%rbp), %r8
	movq	-40(%rbp), %rdi
	movq	%r8, (%rcx)
	movq	%rdi, 8(%rcx)
	movq	%rsi, 32(%rcx)
	movq	%rdx, 40(%rcx)
	.loc	10 404 6 is_stmt 1
	addq	$160, %rsp
	popq	%rbp
	retq
LBB13_5:
	.loc	10 401 13
	leaq	l___unnamed_2(%rip), %rsi
	leaq	l___unnamed_3(%rip), %rcx
	xorl	%eax, %eax
	movl	%eax, %r8d
	leaq	-96(%rbp), %rdi
	movq	%rdi, -160(%rbp)
	movl	$1, %edx
	callq	__ZN4core3fmt9Arguments6new_v117h7f2a79ea6668a47fE
	movq	-160(%rbp), %rdi
	leaq	l___unnamed_4(%rip), %rsi
	callq	__ZN4core9panicking9panic_fmt17h9b5d807e24bcaaedE
Ltmp61:
Lfunc_end13:
	.cfi_endproc

	.globl	__ZN4core3mem7replace17h73b81993081a8ca3E
	.p2align	4, 0x90
__ZN4core3mem7replace17h73b81993081a8ca3E:
Lfunc_begin14:
	.file	13 "/rustc/2c8cc343237b8f7d5a3c3703e3a87f2eb2c54a74/library/core/src/mem" "mod.rs"
	.loc	13 905 0
	.cfi_startproc
	pushq	%rbp
	.cfi_def_cfa_offset 16
	.cfi_offset %rbp, -16
	movq	%rsp, %rbp
	.cfi_def_cfa_register %rbp
	subq	$96, %rsp
	movq	%rdi, -96(%rbp)
	movl	%esi, -88(%rbp)
	movq	%rdi, -72(%rbp)
	movl	%esi, -60(%rbp)
Ltmp62:
	.loc	13 910 32 prologue_end
	movq	%rdi, -56(%rbp)
Ltmp63:
	.loc	3 1157 34
	leaq	-76(%rbp), %rax
	movq	%rax, -48(%rbp)
	.loc	3 1157 9 is_stmt 0
	movl	(%rdi), %eax
	movl	%eax, -76(%rbp)
	.loc	3 1158 9 is_stmt 1
	movl	-76(%rbp), %eax
	movl	%eax, -84(%rbp)
	movl	%eax, -36(%rbp)
	.loc	3 0 9 is_stmt 0
	movl	-84(%rbp), %eax
	movq	-96(%rbp), %rcx
	movl	-88(%rbp), %edx
Ltmp64:
	.file	14 "/rustc/2c8cc343237b8f7d5a3c3703e3a87f2eb2c54a74/library/core/src/mem" "maybe_uninit.rs"
	.loc	14 627 38 is_stmt 1
	movl	%eax, -16(%rbp)
Ltmp65:
	.file	15 "/rustc/2c8cc343237b8f7d5a3c3703e3a87f2eb2c54a74/library/core/src/mem" "manually_drop.rs"
	.loc	15 89 9
	movl	%eax, -12(%rbp)
Ltmp66:
	.loc	13 911 20
	movq	%rcx, -8(%rbp)
	.loc	13 911 26 is_stmt 0
	movl	%edx, -80(%rbp)
Ltmp67:
	.loc	3 1354 9 is_stmt 1
	movl	-80(%rbp), %edx
	movl	%edx, (%rcx)
Ltmp68:
	.loc	13 914 2
	addq	$96, %rsp
	popq	%rbp
	retq
Ltmp69:
Lfunc_end14:
	.cfi_endproc

	.p2align	4, 0x90
__ZN4core3num23_$LT$impl$u20$usize$GT$11checked_add17hddb20185b5bff096E:
Lfunc_begin15:
	.file	16 "/rustc/2c8cc343237b8f7d5a3c3703e3a87f2eb2c54a74/library/core/src/num" "uint_macros.rs"
	.loc	16 442 0
	.cfi_startproc
	pushq	%rbp
	.cfi_def_cfa_offset 16
	.cfi_offset %rbp, -16
	movq	%rsp, %rbp
	.cfi_def_cfa_register %rbp
	subq	$120, %rsp
	movq	%rdi, -80(%rbp)
	movq	%rsi, -72(%rbp)
Ltmp70:
	.loc	16 443 26 prologue_end
	movq	%rdi, -64(%rbp)
	.loc	16 443 47 is_stmt 0
	movq	%rsi, -56(%rbp)
Ltmp71:
	.loc	16 1479 26 is_stmt 1
	addq	%rsi, %rdi
	setb	%al
	andb	$1, %al
	movq	%rdi, -48(%rbp)
	movb	%al, -40(%rbp)
	movq	-48(%rbp), %rcx
	movb	-40(%rbp), %al
	.loc	16 1479 18 is_stmt 0
	movq	%rcx, -32(%rbp)
	.loc	16 1479 21
	movb	%al, %dl
	andb	$1, %dl
	movb	%dl, -17(%rbp)
Ltmp72:
	.loc	16 1480 13 is_stmt 1
	movq	%rcx, -96(%rbp)
	andb	$1, %al
	movb	%al, -88(%rbp)
Ltmp73:
	.loc	16 443 18
	movq	-96(%rbp), %rax
	movq	%rax, -120(%rbp)
	movq	%rax, -16(%rbp)
	.loc	16 443 21 is_stmt 0
	movb	-88(%rbp), %al
	movb	%al, %cl
	andb	$1, %cl
	movb	%cl, -2(%rbp)
Ltmp74:
	.loc	16 444 16 is_stmt 1
	andb	$1, %al
	movb	%al, -1(%rbp)
	testb	$1, -1(%rbp)
	jne	LBB15_2
	.loc	16 0 16 is_stmt 0
	movq	-120(%rbp), %rax
	.loc	16 444 42
	movq	%rax, -104(%rbp)
	movq	$1, -112(%rbp)
	.loc	16 444 13
	jmp	LBB15_3
LBB15_2:
	.loc	16 444 30
	movq	$0, -112(%rbp)
Ltmp75:
LBB15_3:
	.loc	16 445 10 is_stmt 1
	movq	-112(%rbp), %rax
	movq	-104(%rbp), %rdx
	addq	$120, %rsp
	popq	%rbp
	retq
Ltmp76:
Lfunc_end15:
	.cfi_endproc

	.p2align	4, 0x90
__ZN4core3ops8function2Fn4call17h4f1e885c4e10f64aE:
Lfunc_begin16:
	.file	17 "/rustc/2c8cc343237b8f7d5a3c3703e3a87f2eb2c54a74/library/core/src/ops" "function.rs"
	.loc	17 79 0
	.cfi_startproc
	pushq	%rbp
	.cfi_def_cfa_offset 16
	.cfi_offset %rbp, -16
	movq	%rsp, %rbp
	.cfi_def_cfa_register %rbp
	subq	$16, %rsp
	movl	%esi, -12(%rbp)
	movq	%rdi, -8(%rbp)
Ltmp77:
	.loc	17 79 5 prologue_end
	movl	-12(%rbp), %edi
	callq	__ZN21unicode_normalization7lookups14bool_lookup_fk17hfbe953e08363b9adE
	addq	$16, %rsp
	popq	%rbp
	retq
Ltmp78:
Lfunc_end16:
	.cfi_endproc

	.p2align	4, 0x90
__ZN4core3ops8function2Fn4call17h64810efd87dccf13E:
Lfunc_begin17:
	.loc	17 79 0
	.cfi_startproc
	pushq	%rbp
	.cfi_def_cfa_offset 16
	.cfi_offset %rbp, -16
	movq	%rsp, %rbp
	.cfi_def_cfa_register %rbp
	subq	$16, %rsp
	movl	%esi, -16(%rbp)
	movl	%edx, -12(%rbp)
	movq	%rdi, -8(%rbp)
Ltmp79:
	.loc	17 79 5 prologue_end
	movl	-16(%rbp), %edi
	movl	-12(%rbp), %esi
	callq	__ZN21unicode_normalization7lookups18pair_lookup_fv_opt17he84ed41642b431c2E
	addq	$16, %rsp
	popq	%rbp
	retq
Ltmp80:
Lfunc_end17:
	.cfi_endproc

	.p2align	4, 0x90
__ZN4core3ops8function2Fn4call17h6aa9ebf3aa621651E:
Lfunc_begin18:
	.loc	17 79 0
	.cfi_startproc
	pushq	%rbp
	.cfi_def_cfa_offset 16
	.cfi_offset %rbp, -16
	movq	%rsp, %rbp
	.cfi_def_cfa_register %rbp
	subq	$32, %rsp
	movq	%rsi, -16(%rbp)
	movq	-16(%rbp), %rax
	movq	%rax, -24(%rbp)
	movq	%rdi, -8(%rbp)
Ltmp81:
	.loc	17 79 5 prologue_end
	movq	-24(%rbp), %rdi
	callq	__ZN21unicode_normalization7lookups14pair_lookup_fk17hb6cf37da6d8059e7E
	addq	$32, %rsp
	popq	%rbp
	retq
Ltmp82:
Lfunc_end18:
	.cfi_endproc

	.p2align	4, 0x90
__ZN4core3ops8function2Fn4call17hb53f743dd234a1b7E:
Lfunc_begin19:
	.loc	17 79 0
	.cfi_startproc
	pushq	%rbp
	.cfi_def_cfa_offset 16
	.cfi_offset %rbp, -16
	movq	%rsp, %rbp
	.cfi_def_cfa_register %rbp
	subq	$16, %rsp
	movl	%esi, -12(%rbp)
	movq	%rdi, -8(%rbp)
Ltmp83:
	.loc	17 79 5 prologue_end
	movl	-12(%rbp), %edi
	callq	__ZN21unicode_normalization7lookups14bool_lookup_fv17h32a842776562bc27E
	andb	$1, %al
	movzbl	%al, %eax
	addq	$16, %rsp
	popq	%rbp
	retq
Ltmp84:
Lfunc_end19:
	.cfi_endproc

	.p2align	4, 0x90
__ZN4core3ops8function2Fn4call17hda12656a66e1a4a6E:
Lfunc_begin20:
	.loc	17 79 0
	.cfi_startproc
	pushq	%rbp
	.cfi_def_cfa_offset 16
	.cfi_offset %rbp, -16
	movq	%rsp, %rbp
	.cfi_def_cfa_register %rbp
	subq	$16, %rsp
	movl	%esi, -12(%rbp)
	movq	%rdi, -8(%rbp)
Ltmp85:
	.loc	17 79 5 prologue_end
	movl	-12(%rbp), %edi
	callq	__ZN21unicode_normalization7lookups12u8_lookup_fv17h46f13aedd44c4164E
	addq	$16, %rsp
	popq	%rbp
	retq
Ltmp86:
Lfunc_end20:
	.cfi_endproc

	.p2align	4, 0x90
__ZN4core3ops8function2Fn4call17he7843ca30c0084e6E:
Lfunc_begin21:
	.loc	17 79 0
	.cfi_startproc
	pushq	%rbp
	.cfi_def_cfa_offset 16
	.cfi_offset %rbp, -16
	movq	%rsp, %rbp
	.cfi_def_cfa_register %rbp
	subq	$16, %rsp
	movl	%esi, -12(%rbp)
	movq	%rdi, -8(%rbp)
Ltmp87:
	.loc	17 79 5 prologue_end
	movl	-12(%rbp), %edi
	callq	__ZN21unicode_normalization7lookups12u8_lookup_fk17h4622606ed703184dE
	addq	$16, %rsp
	popq	%rbp
	retq
Ltmp88:
Lfunc_end21:
	.cfi_endproc

	.p2align	4, 0x90
__ZN4core3ops8function2Fn4call17hf124eb87f2e66cecE:
Lfunc_begin22:
	.loc	17 79 0
	.cfi_startproc
	pushq	%rbp
	.cfi_def_cfa_offset 16
	.cfi_offset %rbp, -16
	movq	%rsp, %rbp
	.cfi_def_cfa_register %rbp
	subq	$16, %rsp
	movl	%esi, -16(%rbp)
	movl	%edx, -12(%rbp)
	movq	%rdi, -8(%rbp)
Ltmp89:
	.loc	17 79 5 prologue_end
	movl	-16(%rbp), %edi
	movl	-12(%rbp), %esi
	callq	__ZN21unicode_normalization7lookups14pair_lookup_fk17h7c08b4cfe79d8bf5E
	addq	$16, %rsp
	popq	%rbp
	retq
Ltmp90:
Lfunc_end22:
	.cfi_endproc

	.p2align	4, 0x90
__ZN4core3ops8function2Fn4call17hfa20c629b00461cbE:
Lfunc_begin23:
	.loc	17 79 0
	.cfi_startproc
	pushq	%rbp
	.cfi_def_cfa_offset 16
	.cfi_offset %rbp, -16
	movq	%rsp, %rbp
	.cfi_def_cfa_register %rbp
	subq	$48, %rsp
	movq	%rsi, -32(%rbp)
	movq	-32(%rbp), %rax
	movq	%rax, -40(%rbp)
	movq	%rdi, -16(%rbp)
Ltmp91:
	.loc	17 79 5 prologue_end
	movq	-40(%rbp), %rdi
	callq	__ZN21unicode_normalization7lookups18pair_lookup_fv_opt17h90edcd8af784cba0E
	movl	%eax, %ecx
	movl	%ecx, -8(%rbp)
	shrq	$32, %rax
	movw	%ax, -4(%rbp)
	movw	-4(%rbp), %ax
	movw	%ax, -20(%rbp)
	movl	-8(%rbp), %eax
	movl	%eax, -24(%rbp)
	movl	-24(%rbp), %eax
	movzwl	-20(%rbp), %ecx
	shlq	$32, %rcx
	orq	%rcx, %rax
	addq	$48, %rsp
	popq	%rbp
	retq
Ltmp92:
Lfunc_end23:
	.cfi_endproc

	.p2align	4, 0x90
__ZN4core3ops8function6FnOnce9call_once17h3d0cb68c645667aeE:
Lfunc_begin24:
	.loc	17 250 0
	.cfi_startproc
	pushq	%rbp
	.cfi_def_cfa_offset 16
	.cfi_offset %rbp, -16
	movq	%rsp, %rbp
	.cfi_def_cfa_register %rbp
	subq	$32, %rsp
	movq	%rdi, -24(%rbp)
	movq	%rsi, -16(%rbp)
Ltmp93:
	.loc	17 250 5 prologue_end
	movq	-24(%rbp), %rdi
	movq	-16(%rbp), %rsi
	callq	__ZN4core3cmp5impls50_$LT$impl$u20$core..cmp..Ord$u20$for$u20$usize$GT$3cmp17hba9ec2288575e60eE
	addq	$32, %rsp
	popq	%rbp
	retq
Ltmp94:
Lfunc_end24:
	.cfi_endproc

	.p2align	4, 0x90
__ZN4core3ptr30drop_in_place$LT$$RF$usize$GT$17hf196487d5c36ecfcE:
Lfunc_begin25:
	.loc	3 490 0
	.cfi_startproc
	pushq	%rbp
	.cfi_def_cfa_offset 16
	.cfi_offset %rbp, -16
	movq	%rsp, %rbp
	.cfi_def_cfa_register %rbp
	pushq	%rax
	movq	%rdi, -8(%rbp)
Ltmp95:
	.loc	3 490 1 prologue_end
	addq	$8, %rsp
	popq	%rbp
	retq
Ltmp96:
Lfunc_end25:
	.cfi_endproc

	.globl	__ZN4core3ptr42drop_in_place$LT$alloc..string..String$GT$17hcbaa738af1179008E
	.p2align	4, 0x90
__ZN4core3ptr42drop_in_place$LT$alloc..string..String$GT$17hcbaa738af1179008E:
Lfunc_begin26:
	.loc	3 490 0
	.cfi_startproc
	pushq	%rbp
	.cfi_def_cfa_offset 16
	.cfi_offset %rbp, -16
	movq	%rsp, %rbp
	.cfi_def_cfa_register %rbp
	subq	$16, %rsp
	movq	%rdi, -8(%rbp)
Ltmp97:
	.loc	3 490 1 prologue_end
	callq	__ZN4core3ptr46drop_in_place$LT$alloc..vec..Vec$LT$u8$GT$$GT$17hb3e35db808605904E
	addq	$16, %rsp
	popq	%rbp
	retq
Ltmp98:
Lfunc_end26:
	.cfi_endproc

	.globl	__ZN4core3ptr46drop_in_place$LT$alloc..vec..Vec$LT$u8$GT$$GT$17hb3e35db808605904E
	.p2align	4, 0x90
__ZN4core3ptr46drop_in_place$LT$alloc..vec..Vec$LT$u8$GT$$GT$17hb3e35db808605904E:
Lfunc_begin27:
	.loc	3 490 0
	.cfi_startproc
	.cfi_personality 155, _rust_eh_personality
	.cfi_lsda 16, Lexception1
	pushq	%rbp
	.cfi_def_cfa_offset 16
	.cfi_offset %rbp, -16
	movq	%rsp, %rbp
	.cfi_def_cfa_register %rbp
	subq	$32, %rsp
	movq	%rdi, -32(%rbp)
	movq	%rdi, -24(%rbp)
Ltmp99:
Ltmp105:
	.loc	3 490 1 prologue_end
	callq	__ZN70_$LT$alloc..vec..Vec$LT$T$C$A$GT$$u20$as$u20$core..ops..drop..Drop$GT$4drop17hea0bdb07a9fa4b61E
Ltmp100:
	jmp	LBB27_3
LBB27_1:
Ltmp102:
	.loc	3 0 1 is_stmt 0
	movq	-32(%rbp), %rdi
	.loc	3 490 1
	callq	__ZN4core3ptr53drop_in_place$LT$alloc..raw_vec..RawVec$LT$u8$GT$$GT$17h97fe4c62980e910bE
Ltmp103:
	jmp	LBB27_5
LBB27_2:
Ltmp101:
	.loc	3 0 1
	movq	%rax, %rcx
	movl	%edx, %eax
	movq	%rcx, -16(%rbp)
	movl	%eax, -8(%rbp)
	jmp	LBB27_1
LBB27_3:
	movq	-32(%rbp), %rdi
	.loc	3 490 1
	callq	__ZN4core3ptr53drop_in_place$LT$alloc..raw_vec..RawVec$LT$u8$GT$$GT$17h97fe4c62980e910bE
	addq	$32, %rsp
	popq	%rbp
	retq
LBB27_4:
Ltmp104:
	callq	__ZN4core9panicking19panic_cannot_unwind17h1fbca7e1d7f56ae1E
LBB27_5:
	movq	-16(%rbp), %rdi
	callq	__Unwind_Resume
Ltmp106:
Lfunc_end27:
	.cfi_endproc
	.section	__TEXT,__gcc_except_tab
	.p2align	2
GCC_except_table27:
Lexception1:
	.byte	255
	.byte	255
	.byte	1
	.uleb128 Lcst_end1-Lcst_begin1
Lcst_begin1:
	.uleb128 Ltmp99-Lfunc_begin27
	.uleb128 Ltmp100-Ltmp99
	.uleb128 Ltmp101-Lfunc_begin27
	.byte	0
	.uleb128 Ltmp102-Lfunc_begin27
	.uleb128 Ltmp103-Ltmp102
	.uleb128 Ltmp104-Lfunc_begin27
	.byte	0
	.uleb128 Ltmp103-Lfunc_begin27
	.uleb128 Lfunc_end27-Ltmp103
	.byte	0
	.byte	0
Lcst_end1:
	.p2align	2

	.section	__TEXT,__text,regular,pure_instructions
	.globl	__ZN4core3ptr53drop_in_place$LT$alloc..raw_vec..RawVec$LT$u8$GT$$GT$17h97fe4c62980e910bE
	.p2align	4, 0x90
__ZN4core3ptr53drop_in_place$LT$alloc..raw_vec..RawVec$LT$u8$GT$$GT$17h97fe4c62980e910bE:
Lfunc_begin28:
	.loc	3 490 0 is_stmt 1
	.cfi_startproc
	pushq	%rbp
	.cfi_def_cfa_offset 16
	.cfi_offset %rbp, -16
	movq	%rsp, %rbp
	.cfi_def_cfa_register %rbp
	subq	$16, %rsp
	movq	%rdi, -8(%rbp)
Ltmp107:
	.loc	3 490 1 prologue_end
	callq	__ZN77_$LT$alloc..raw_vec..RawVec$LT$T$C$A$GT$$u20$as$u20$core..ops..drop..Drop$GT$4drop17hec82eb95abf87b24E
	addq	$16, %rsp
	popq	%rbp
	retq
Ltmp108:
Lfunc_end28:
	.cfi_endproc

	.globl	__ZN4core3ptr8non_null16NonNull$LT$T$GT$3new17hc95d9d1a5db075d3E
	.p2align	4, 0x90
__ZN4core3ptr8non_null16NonNull$LT$T$GT$3new17hc95d9d1a5db075d3E:
Lfunc_begin29:
	.loc	6 222 0
	.cfi_startproc
	pushq	%rbp
	.cfi_def_cfa_offset 16
	.cfi_offset %rbp, -16
	movq	%rsp, %rbp
	.cfi_def_cfa_register %rbp
	subq	$88, %rsp
	movq	%rdi, -88(%rbp)
	movq	%rdi, -56(%rbp)
Ltmp109:
	.loc	6 223 13 prologue_end
	movq	%rdi, -48(%rbp)
Ltmp110:
	.loc	5 52 36
	movq	%rdi, -64(%rbp)
	.loc	5 52 18 is_stmt 0
	movq	-64(%rbp), %rax
	movq	%rax, -40(%rbp)
Ltmp111:
	.loc	5 38 13 is_stmt 1
	movq	%rax, -32(%rbp)
Ltmp112:
	.loc	5 215 33
	movq	%rax, -24(%rbp)
	.loc	5 215 18 is_stmt 0
	movq	%rax, -16(%rbp)
Ltmp113:
	.loc	5 38 13 is_stmt 1
	cmpq	$0, -16(%rbp)
	sete	%al
Ltmp114:
	.loc	6 223 12
	xorb	$-1, %al
	testb	$1, %al
	jne	LBB29_2
	.loc	6 227 13
	movq	$0, -80(%rbp)
	.loc	6 223 9
	jmp	LBB29_3
LBB29_2:
	.loc	6 0 9 is_stmt 0
	movq	-88(%rbp), %rax
	.loc	6 225 47 is_stmt 1
	movq	%rax, -8(%rbp)
Ltmp115:
	.loc	6 201 13
	movq	%rax, -72(%rbp)
Ltmp116:
	.loc	6 225 13
	movq	-72(%rbp), %rax
	movq	%rax, -80(%rbp)
LBB29_3:
	.loc	6 229 6
	movq	-80(%rbp), %rax
	addq	$88, %rsp
	popq	%rbp
	retq
Ltmp117:
Lfunc_end29:
	.cfi_endproc

	.globl	__ZN4core3ptr8non_null26NonNull$LT$$u5b$T$u5d$$GT$20slice_from_raw_parts17h4842d673590b4b12E
	.p2align	4, 0x90
__ZN4core3ptr8non_null26NonNull$LT$$u5b$T$u5d$$GT$20slice_from_raw_parts17h4842d673590b4b12E:
Lfunc_begin30:
	.loc	6 482 0
	.cfi_startproc
	pushq	%rbp
	.cfi_def_cfa_offset 16
	.cfi_offset %rbp, -16
	movq	%rsp, %rbp
	.cfi_def_cfa_register %rbp
	subq	$128, %rsp
	movq	%rdi, -80(%rbp)
	movq	%rsi, -72(%rbp)
Ltmp118:
	.loc	6 484 70 prologue_end
	movq	%rdi, -64(%rbp)
Ltmp119:
	.loc	6 326 9
	movq	%rdi, -56(%rbp)
Ltmp120:
	.loc	6 484 85
	movq	%rsi, -48(%rbp)
Ltmp121:
	.loc	3 766 24
	movq	%rdi, -40(%rbp)
Ltmp122:
	.loc	5 60 9
	movq	%rdi, -32(%rbp)
Ltmp123:
	.loc	3 766 37
	movq	%rsi, -24(%rbp)
Ltmp124:
	.loc	4 135 36
	movq	%rdi, -96(%rbp)
	movq	%rsi, -88(%rbp)
	.loc	4 135 14 is_stmt 0
	movq	-96(%rbp), %rcx
	movq	-88(%rbp), %rax
	movq	%rcx, -112(%rbp)
	movq	%rax, -104(%rbp)
	movq	-112(%rbp), %rcx
	movq	-104(%rbp), %rax
	movq	%rcx, -16(%rbp)
	movq	%rax, -8(%rbp)
Ltmp125:
	.loc	6 201 13 is_stmt 1
	movq	%rcx, -128(%rbp)
	movq	%rax, -120(%rbp)
Ltmp126:
	.loc	6 485 6
	movq	-128(%rbp), %rax
	movq	-120(%rbp), %rdx
	addq	$128, %rsp
	popq	%rbp
	retq
Ltmp127:
Lfunc_end30:
	.cfi_endproc

	.globl	__ZN4core3ptr9const_ptr33_$LT$impl$u20$$BP$const$u20$T$GT$7sub_ptr17hd8a95efe5191bac2E
	.p2align	4, 0x90
__ZN4core3ptr9const_ptr33_$LT$impl$u20$$BP$const$u20$T$GT$7sub_ptr17hd8a95efe5191bac2E:
Lfunc_begin31:
	.loc	2 791 0
	.cfi_startproc
	pushq	%rbp
	.cfi_def_cfa_offset 16
	.cfi_offset %rbp, -16
	movq	%rsp, %rbp
	.cfi_def_cfa_register %rbp
	subq	$64, %rsp
	movq	%rdi, -56(%rbp)
	movq	%rsi, -48(%rbp)
	movq	%rdi, -32(%rbp)
	movq	%rsi, -24(%rbp)
Ltmp128:
	.loc	13 309 5 prologue_end
	movq	$1, -16(%rbp)
Ltmp129:
	.loc	2 806 17
	movb	$1, %al
	testb	$1, %al
	jne	LBB31_2
	movb	$0, -33(%rbp)
	jmp	LBB31_3
LBB31_2:
	movb	$1, -33(%rbp)
LBB31_3:
	.loc	2 806 9 is_stmt 0
	movb	-33(%rbp), %al
	xorb	$-1, %al
	testb	$1, %al
	jne	LBB31_5
	.loc	2 0 9
	movq	-48(%rbp), %rcx
	movq	-56(%rbp), %rax
	.loc	2 808 18 is_stmt 1
	subq	%rcx, %rax
	shrq	$0, %rax
	movq	%rax, -8(%rbp)
	movq	-8(%rbp), %rax
Ltmp130:
	.loc	2 809 6
	addq	$64, %rsp
	popq	%rbp
	retq
LBB31_5:
Ltmp131:
	.loc	2 806 9
	leaq	l___unnamed_5(%rip), %rdi
	leaq	l___unnamed_6(%rip), %rdx
	movl	$73, %esi
	callq	__ZN4core9panicking5panic17hc1bc45270cf64b03E
Ltmp132:
Lfunc_end31:
	.cfi_endproc

	.globl	__ZN4core3str11validations15next_code_point17heae4139dc38617c9E
	.p2align	4, 0x90
__ZN4core3str11validations15next_code_point17heae4139dc38617c9E:
Lfunc_begin32:
	.file	18 "/rustc/2c8cc343237b8f7d5a3c3703e3a87f2eb2c54a74/library/core/src/str" "validations.rs"
	.loc	18 36 0
	.cfi_startproc
	pushq	%rbp
	.cfi_def_cfa_offset 16
	.cfi_offset %rbp, -16
	movq	%rsp, %rbp
	.cfi_def_cfa_register %rbp
	subq	$144, %rsp
	movq	%rdi, -128(%rbp)
	movq	%rdi, -88(%rbp)
Ltmp133:
	.loc	18 38 14 prologue_end
	callq	__ZN91_$LT$core..slice..iter..Iter$LT$T$GT$$u20$as$u20$core..iter..traits..iterator..Iterator$GT$4next17h27d540e663836a99E
	movq	%rax, -104(%rbp)
Ltmp134:
	.file	19 "/rustc/2c8cc343237b8f7d5a3c3703e3a87f2eb2c54a74/library/core/src" "option.rs"
	.loc	19 2407 15
	movq	-104(%rbp), %rdx
	movl	$1, %eax
	xorl	%ecx, %ecx
	cmpq	$0, %rdx
	cmoveq	%rcx, %rax
	.loc	19 2407 9 is_stmt 0
	cmpq	$0, %rax
	jne	LBB32_2
	.loc	19 2409 21 is_stmt 1
	movq	$0, -112(%rbp)
	.loc	19 2409 44 is_stmt 0
	jmp	LBB32_3
LBB32_2:
	.loc	19 2408 18 is_stmt 1
	movq	-104(%rbp), %rax
	movq	%rax, -64(%rbp)
Ltmp135:
	.loc	19 2408 24 is_stmt 0
	movq	%rax, -112(%rbp)
Ltmp136:
LBB32_3:
	.loc	18 38 14 is_stmt 1
	movq	-112(%rbp), %rdx
	xorl	%eax, %eax
	movl	$1, %ecx
	cmpq	$0, %rdx
	cmoveq	%rcx, %rax
	cmpq	$0, %rax
	jne	LBB32_5
	movq	-112(%rbp), %rax
	movq	%rax, -56(%rbp)
	.loc	18 38 13 is_stmt 0
	movb	(%rax), %al
	movb	%al, -129(%rbp)
	movb	%al, -42(%rbp)
Ltmp137:
	.loc	18 39 8 is_stmt 1
	cmpb	$-128, %al
	jb	LBB32_8
	jmp	LBB32_7
Ltmp138:
LBB32_5:
	.loc	19 2420 21
	movl	$0, -120(%rbp)
Ltmp139:
LBB32_6:
	.loc	18 70 2
	jmp	LBB32_9
LBB32_7:
	.loc	18 0 2 is_stmt 0
	movb	-129(%rbp), %al
	movq	-128(%rbp), %rdi
Ltmp140:
	.loc	18 46 32 is_stmt 1
	movb	%al, -41(%rbp)
Ltmp141:
	.loc	18 12 5
	andb	$31, %al
	movzbl	%al, %eax
	movl	%eax, -136(%rbp)
	movl	%eax, -40(%rbp)
Ltmp142:
	.loc	18 49 23
	callq	__ZN91_$LT$core..slice..iter..Iter$LT$T$GT$$u20$as$u20$core..iter..traits..iterator..Iterator$GT$4next17h27d540e663836a99E
	movq	%rax, %rdi
	leaq	l___unnamed_7(%rip), %rsi
	callq	__ZN4core6option15Option$LT$T$GT$16unwrap_unchecked17h53790696db3a93eaE
	movl	-136(%rbp), %ecx
	movq	%rax, %rdx
	movb	-129(%rbp), %al
	.loc	18 49 22 is_stmt 0
	movb	(%rdx), %dl
	movb	%dl, -130(%rbp)
	movb	%dl, -33(%rbp)
Ltmp143:
	.loc	18 50 37 is_stmt 1
	movl	%ecx, -32(%rbp)
	.loc	18 50 43 is_stmt 0
	movb	%dl, -26(%rbp)
Ltmp144:
	.loc	18 18 5 is_stmt 1
	shll	$6, %ecx
	.loc	18 18 17 is_stmt 0
	andb	$63, %dl
	movzbl	%dl, %edx
	.loc	18 18 5
	orl	%edx, %ecx
	movl	%ecx, -92(%rbp)
Ltmp145:
	.loc	18 51 8 is_stmt 1
	cmpb	$-32, %al
	jae	LBB32_11
	jmp	LBB32_10
Ltmp146:
LBB32_8:
	.loc	18 0 8 is_stmt 0
	movb	-129(%rbp), %al
	.loc	18 40 21 is_stmt 1
	movzbl	%al, %eax
	.loc	18 40 16 is_stmt 0
	movl	%eax, -116(%rbp)
	movl	$1, -120(%rbp)
	.file	20 "/Users/natalie/.cargo/registry/src/github.com-1ecc6299db9ec823/unicode-normalization-0.1.22" "src/lib.rs"
	.loc	20 1 1 is_stmt 1
	jmp	LBB32_6
Ltmp147:
LBB32_9:
	.loc	18 70 2
	movl	-120(%rbp), %eax
	movl	-116(%rbp), %edx
	addq	$144, %rsp
	popq	%rbp
	retq
LBB32_10:
Ltmp148:
	.loc	18 69 10
	movl	-92(%rbp), %eax
	.loc	18 69 5 is_stmt 0
	movl	%eax, -116(%rbp)
	movl	$1, -120(%rbp)
Ltmp149:
	.loc	18 70 2 is_stmt 1
	jmp	LBB32_9
LBB32_11:
	.loc	18 0 2 is_stmt 0
	movq	-128(%rbp), %rdi
Ltmp150:
	.loc	18 56 27 is_stmt 1
	callq	__ZN91_$LT$core..slice..iter..Iter$LT$T$GT$$u20$as$u20$core..iter..traits..iterator..Iterator$GT$4next17h27d540e663836a99E
	movq	%rax, %rdi
	leaq	l___unnamed_8(%rip), %rsi
	callq	__ZN4core6option15Option$LT$T$GT$16unwrap_unchecked17h53790696db3a93eaE
	movb	-130(%rbp), %dl
	movl	-136(%rbp), %ecx
	movq	%rax, %rsi
	movb	-129(%rbp), %al
	.loc	18 56 26 is_stmt 0
	movb	(%rsi), %sil
	movb	%sil, -25(%rbp)
Ltmp151:
	.loc	18 57 38 is_stmt 1
	andb	$63, %dl
	movzbl	%dl, %edx
	movl	%edx, -24(%rbp)
	.loc	18 57 62 is_stmt 0
	movb	%sil, -17(%rbp)
Ltmp152:
	.loc	18 18 5 is_stmt 1
	shll	$6, %edx
	.loc	18 18 17 is_stmt 0
	andb	$63, %sil
	movzbl	%sil, %esi
	.loc	18 18 5
	orl	%esi, %edx
	movl	%edx, -140(%rbp)
	movl	%edx, -16(%rbp)
Ltmp153:
	.loc	18 58 14 is_stmt 1
	shll	$12, %ecx
	.loc	18 58 9 is_stmt 0
	orl	%edx, %ecx
	movl	%ecx, -92(%rbp)
	.loc	18 59 12 is_stmt 1
	cmpb	$-16, %al
	jae	LBB32_13
Ltmp154:
LBB32_12:
	.loc	18 51 5
	jmp	LBB32_10
LBB32_13:
	.loc	18 0 5 is_stmt 0
	movq	-128(%rbp), %rdi
Ltmp155:
	.loc	18 64 31 is_stmt 1
	callq	__ZN91_$LT$core..slice..iter..Iter$LT$T$GT$$u20$as$u20$core..iter..traits..iterator..Iterator$GT$4next17h27d540e663836a99E
	movq	%rax, %rdi
	leaq	l___unnamed_9(%rip), %rsi
	callq	__ZN4core6option15Option$LT$T$GT$16unwrap_unchecked17h53790696db3a93eaE
	movl	-140(%rbp), %ecx
	movq	%rax, %rdx
	movl	-136(%rbp), %eax
	.loc	18 64 30 is_stmt 0
	movb	(%rdx), %dl
	movb	%dl, -9(%rbp)
Ltmp156:
	.loc	18 65 18 is_stmt 1
	andl	$7, %eax
	shll	$18, %eax
	.loc	18 65 56 is_stmt 0
	movl	%ecx, -8(%rbp)
	.loc	18 65 61
	movb	%dl, -1(%rbp)
Ltmp157:
	.loc	18 18 5 is_stmt 1
	shll	$6, %ecx
	.loc	18 18 17 is_stmt 0
	andb	$63, %dl
	movzbl	%dl, %edx
	.loc	18 18 5
	orl	%edx, %ecx
Ltmp158:
	.loc	18 65 13 is_stmt 1
	orl	%ecx, %eax
	movl	%eax, -92(%rbp)
Ltmp159:
	.loc	18 59 9
	jmp	LBB32_12
Ltmp160:
Lfunc_end32:
	.cfi_endproc

	.p2align	4, 0x90
__ZN4core3str21_$LT$impl$u20$str$GT$5chars17h5a254857a99756c3E:
Lfunc_begin33:
	.file	21 "/rustc/2c8cc343237b8f7d5a3c3703e3a87f2eb2c54a74/library/core/src/str" "mod.rs"
	.loc	21 782 0
	.cfi_startproc
	pushq	%rbp
	.cfi_def_cfa_offset 16
	.cfi_offset %rbp, -16
	movq	%rsp, %rbp
	.cfi_def_cfa_register %rbp
	subq	$80, %rsp
	movq	%rdi, -64(%rbp)
	movq	%rsi, -56(%rbp)
Ltmp161:
	.loc	21 783 23 prologue_end
	movq	%rdi, -48(%rbp)
	movq	%rsi, -40(%rbp)
Ltmp162:
	.loc	21 327 18
	movq	%rdi, -32(%rbp)
	movq	%rsi, -24(%rbp)
	movq	-32(%rbp), %rdi
	movq	-24(%rbp), %rsi
Ltmp163:
	.loc	21 783 23
	movq	%rdi, -16(%rbp)
	movq	%rsi, -8(%rbp)
Ltmp164:
	.file	22 "/rustc/2c8cc343237b8f7d5a3c3703e3a87f2eb2c54a74/library/core/src/slice" "mod.rs"
	.loc	22 742 9
	callq	__ZN4core5slice4iter13Iter$LT$T$GT$3new17h04fe6342c99622a9E
Ltmp165:
	.loc	21 783 9
	movq	%rax, -80(%rbp)
	movq	%rdx, -72(%rbp)
	.loc	21 784 6
	movq	-80(%rbp), %rax
	movq	-72(%rbp), %rdx
	addq	$80, %rsp
	popq	%rbp
	retq
Ltmp166:
Lfunc_end33:
	.cfi_endproc

	.p2align	4, 0x90
__ZN4core4char18from_u32_unchecked17h546a673421d35440E:
Lfunc_begin34:
	.file	23 "/rustc/2c8cc343237b8f7d5a3c3703e3a87f2eb2c54a74/library/core/src/char" "mod.rs"
	.loc	23 126 0
	.cfi_startproc
	pushq	%rbp
	.cfi_def_cfa_offset 16
	.cfi_offset %rbp, -16
	movq	%rsp, %rbp
	.cfi_def_cfa_register %rbp
	subq	$12, %rsp
	movl	%edi, -12(%rbp)
Ltmp167:
	.loc	23 128 48 prologue_end
	movl	%edi, -8(%rbp)
Ltmp168:
	.file	24 "/rustc/2c8cc343237b8f7d5a3c3703e3a87f2eb2c54a74/library/core/src/char" "convert.rs"
	.loc	24 25 78
	movl	%edi, -4(%rbp)
	movl	-4(%rbp), %eax
Ltmp169:
	.loc	23 129 2
	addq	$12, %rsp
	popq	%rbp
	retq
Ltmp170:
Lfunc_end34:
	.cfi_endproc

	.p2align	4, 0x90
__ZN4core4char7convert65_$LT$impl$u20$core..convert..From$LT$char$GT$$u20$for$u20$u32$GT$4from17h68171f4eb77ff11eE:
Lfunc_begin35:
	.loc	24 43 0
	.cfi_startproc
	pushq	%rbp
	.cfi_def_cfa_offset 16
	.cfi_offset %rbp, -16
	movq	%rsp, %rbp
	.cfi_def_cfa_register %rbp
	subq	$4, %rsp
	movl	%edi, %eax
	movl	%eax, -4(%rbp)
Ltmp171:
	.loc	24 45 6 prologue_end
	addq	$4, %rsp
	popq	%rbp
	retq
Ltmp172:
Lfunc_end35:
	.cfi_endproc

	.p2align	4, 0x90
__ZN4core4char7methods15encode_utf8_raw17ha1e7da886d087148E:
Lfunc_begin36:
	.file	25 "/rustc/2c8cc343237b8f7d5a3c3703e3a87f2eb2c54a74/library/core/src/char" "methods.rs"
	.loc	25 1729 0
	.cfi_startproc
	pushq	%rbp
	.cfi_def_cfa_offset 16
	.cfi_offset %rbp, -16
	movq	%rsp, %rbp
	.cfi_def_cfa_register %rbp
	subq	$560, %rsp
	movq	%rsi, -544(%rbp)
	movq	%rdx, -536(%rbp)
	movl	%edi, -516(%rbp)
	movq	%rsi, -304(%rbp)
	movq	%rdx, -296(%rbp)
Ltmp173:
	.loc	25 1730 24 prologue_end
	movl	-516(%rbp), %edi
	.loc	25 1730 15 is_stmt 0
	callq	__ZN4core4char7methods8len_utf817h0f45c384cde86807E
	movq	-544(%rbp), %rsi
	movq	-536(%rbp), %rdx
	movq	%rax, -512(%rbp)
Ltmp174:
	.loc	25 1731 12 is_stmt 1
	movq	-512(%rbp), %rax
	.loc	25 1731 22 is_stmt 0
	movq	%rsi, -272(%rbp)
	movq	%rdx, -264(%rbp)
Ltmp175:
	.loc	1 30 25 is_stmt 1
	movq	%rsi, -256(%rbp)
	movq	%rdx, -248(%rbp)
Ltmp176:
	.loc	25 1731 11
	movq	%rax, -504(%rbp)
	movq	%rsi, -496(%rbp)
	movq	%rdx, -488(%rbp)
	.loc	25 1731 5 is_stmt 0
	movq	-504(%rbp), %rax
	decq	%rax
	movq	%rax, -528(%rbp)
	subq	$3, %rax
	ja	LBB36_1
	.loc	25 0 5
	movq	-528(%rbp), %rax
	leaq	LJTI36_0(%rip), %rcx
	movslq	(%rcx,%rax,4), %rax
	addq	%rcx, %rax
	jmpq	*%rax
LBB36_1:
	movq	-536(%rbp), %rcx
	leaq	-512(%rbp), %rsi
	.loc	25 1750 14 is_stmt 1
	movq	%rsi, -120(%rbp)
Ltmp177:
	.loc	10 328 23
	movq	%rsi, -112(%rbp)
	.loc	10 328 26 is_stmt 0
	movq	__ZN4core3fmt3num3imp54_$LT$impl$u20$core..fmt..Display$u20$for$u20$usize$GT$3fmt17ha5c925fcd7ed33faE@GOTPCREL(%rip), %rax
	movq	%rax, -104(%rbp)
Ltmp178:
	.loc	10 347 42 is_stmt 1
	movq	%rax, -96(%rbp)
	movq	-96(%rbp), %rdx
	.loc	10 347 68 is_stmt 0
	movq	%rsi, -88(%rbp)
	movq	-88(%rbp), %rsi
	.loc	10 347 18
	movq	%rsi, -384(%rbp)
	movq	%rdx, -376(%rbp)
	leaq	-516(%rbp), %rsi
Ltmp179:
	.loc	25 1750 14 is_stmt 1
	movq	%rsi, -80(%rbp)
Ltmp180:
	.loc	10 328 23
	movq	%rsi, -72(%rbp)
	.loc	10 328 26 is_stmt 0
	movq	__ZN4core3fmt3num53_$LT$impl$u20$core..fmt..UpperHex$u20$for$u20$u32$GT$3fmt17ha96bbefe8f663d11E@GOTPCREL(%rip), %rdx
	movq	%rdx, -64(%rbp)
Ltmp181:
	.loc	10 347 42 is_stmt 1
	movq	%rdx, -56(%rbp)
	movq	-56(%rbp), %rdx
	.loc	10 347 68 is_stmt 0
	movq	%rsi, -48(%rbp)
	movq	-48(%rbp), %rsi
	.loc	10 347 18
	movq	%rsi, -368(%rbp)
	movq	%rdx, -360(%rbp)
Ltmp182:
	.loc	25 1754 13 is_stmt 1
	movq	%rcx, -336(%rbp)
	leaq	-336(%rbp), %rcx
	.loc	25 1750 14
	movq	%rcx, -40(%rbp)
Ltmp183:
	.loc	10 328 23
	movq	%rcx, -32(%rbp)
	.loc	10 328 26 is_stmt 0
	movq	%rax, -24(%rbp)
Ltmp184:
	.loc	10 347 42 is_stmt 1
	movq	%rax, -16(%rbp)
	movq	-16(%rbp), %rax
	.loc	10 347 68 is_stmt 0
	movq	%rcx, -8(%rbp)
	movq	-8(%rbp), %rcx
	.loc	10 347 18
	movq	%rcx, -352(%rbp)
	movq	%rax, -344(%rbp)
Ltmp185:
	.loc	25 1750 14 is_stmt 1
	movq	-384(%rbp), %rcx
	movq	-376(%rbp), %rax
	movq	%rcx, -432(%rbp)
	movq	%rax, -424(%rbp)
	movq	-368(%rbp), %rcx
	movq	-360(%rbp), %rax
	movq	%rcx, -416(%rbp)
	movq	%rax, -408(%rbp)
	movq	-352(%rbp), %rcx
	movq	-344(%rbp), %rax
	movq	%rcx, -400(%rbp)
	movq	%rax, -392(%rbp)
	leaq	l___unnamed_10(%rip), %rsi
	leaq	-480(%rbp), %rdi
	movq	%rdi, -552(%rbp)
	leaq	-432(%rbp), %rcx
	movl	$3, %r8d
	movq	%r8, %rdx
	callq	__ZN4core3fmt9Arguments6new_v117h7f2a79ea6668a47fE
	movq	-552(%rbp), %rdi
	leaq	l___unnamed_11(%rip), %rsi
	callq	__ZN4core9panicking9panic_fmt17h9b5d807e24bcaaedE
LBB36_2:
	.loc	25 1732 13
	cmpq	$1, -488(%rbp)
	jae	LBB36_10
	jmp	LBB36_1
LBB36_3:
	.loc	25 1735 13
	cmpq	$2, -488(%rbp)
	jae	LBB36_9
	jmp	LBB36_1
LBB36_4:
	.loc	25 1739 13
	cmpq	$3, -488(%rbp)
	jae	LBB36_8
	jmp	LBB36_1
LBB36_5:
	.loc	25 1744 13
	cmpq	$4, -488(%rbp)
	jb	LBB36_1
	.loc	25 1744 14 is_stmt 0
	movq	-496(%rbp), %rsi
	movq	%rsi, -240(%rbp)
	.loc	25 1744 17
	movq	-496(%rbp), %rdx
	movq	%rdx, %rax
	addq	$1, %rax
	movq	%rax, -232(%rbp)
	.loc	25 1744 20
	movq	-496(%rbp), %rcx
	movq	%rcx, %rax
	addq	$2, %rax
	movq	%rax, -224(%rbp)
	.loc	25 1744 23
	movq	-496(%rbp), %rax
	movq	%rax, %rdi
	addq	$3, %rdi
	movq	%rdi, -216(%rbp)
Ltmp186:
	.loc	25 1745 19 is_stmt 1
	movl	-516(%rbp), %edi
	shrl	$18, %edi
	.loc	25 1745 18 is_stmt 0
	andl	$7, %edi
	.loc	25 1745 13
	orb	$-16, %dil
	movb	%dil, (%rsi)
	.loc	25 1746 19 is_stmt 1
	movl	-516(%rbp), %esi
	shrl	$12, %esi
	.loc	25 1746 18 is_stmt 0
	andl	$63, %esi
	.loc	25 1746 13
	orb	$-128, %sil
	movb	%sil, 1(%rdx)
	.loc	25 1747 19 is_stmt 1
	movl	-516(%rbp), %edx
	shrl	$6, %edx
	.loc	25 1747 18 is_stmt 0
	andl	$63, %edx
	.loc	25 1747 13
	orb	$-128, %dl
	movb	%dl, 2(%rcx)
	.loc	25 1748 19 is_stmt 1
	movl	-516(%rbp), %ecx
	.loc	25 1748 18 is_stmt 0
	andl	$63, %ecx
	.loc	25 1748 13
	orb	$-128, %cl
	movb	%cl, 3(%rax)
Ltmp187:
LBB36_7:
	.loc	25 0 13
	movq	-536(%rbp), %rcx
	movq	-544(%rbp), %rdx
	.loc	25 1757 10 is_stmt 1
	movq	%rdx, -160(%rbp)
	movq	%rcx, -152(%rbp)
	.loc	25 1757 16 is_stmt 0
	movq	-512(%rbp), %rax
	.loc	25 1757 14
	movq	%rax, -328(%rbp)
Ltmp188:
	.loc	1 30 9 is_stmt 1
	movq	-328(%rbp), %rax
	movq	%rax, -144(%rbp)
	.loc	1 30 25 is_stmt 0
	movq	%rdx, -136(%rbp)
	movq	%rcx, -128(%rbp)
Ltmp189:
	.loc	1 461 9 is_stmt 1
	movq	$0, -320(%rbp)
	movq	%rax, -312(%rbp)
	movq	-320(%rbp), %rdi
	movq	-312(%rbp), %rsi
	leaq	l___unnamed_12(%rip), %r8
	callq	__ZN106_$LT$core..ops..range..Range$LT$usize$GT$$u20$as$u20$core..slice..index..SliceIndex$LT$$u5b$T$u5d$$GT$$GT$9index_mut17hf56110fb0ac99181E
Ltmp190:
	.loc	25 1758 2
	addq	$560, %rsp
	popq	%rbp
	retq
LBB36_8:
Ltmp191:
	.loc	25 1739 14
	movq	-496(%rbp), %rdx
	movq	%rdx, -208(%rbp)
	.loc	25 1739 17 is_stmt 0
	movq	-496(%rbp), %rcx
	movq	%rcx, %rax
	addq	$1, %rax
	movq	%rax, -200(%rbp)
	.loc	25 1739 20
	movq	-496(%rbp), %rax
	movq	%rax, %rsi
	addq	$2, %rsi
	movq	%rsi, -192(%rbp)
Ltmp192:
	.loc	25 1740 19 is_stmt 1
	movl	-516(%rbp), %esi
	shrl	$12, %esi
	.loc	25 1740 18 is_stmt 0
	andl	$15, %esi
	.loc	25 1740 13
	orb	$-32, %sil
	movb	%sil, (%rdx)
	.loc	25 1741 19 is_stmt 1
	movl	-516(%rbp), %edx
	shrl	$6, %edx
	.loc	25 1741 18 is_stmt 0
	andl	$63, %edx
	.loc	25 1741 13
	orb	$-128, %dl
	movb	%dl, 1(%rcx)
	.loc	25 1742 19 is_stmt 1
	movl	-516(%rbp), %ecx
	.loc	25 1742 18 is_stmt 0
	andl	$63, %ecx
	.loc	25 1742 13
	orb	$-128, %cl
	movb	%cl, 2(%rax)
Ltmp193:
	.loc	25 1743 9 is_stmt 1
	jmp	LBB36_7
LBB36_9:
	.loc	25 1735 14
	movq	-496(%rbp), %rcx
	movq	%rcx, -184(%rbp)
	.loc	25 1735 17 is_stmt 0
	movq	-496(%rbp), %rax
	movq	%rax, %rdx
	addq	$1, %rdx
	movq	%rdx, -176(%rbp)
Ltmp194:
	.loc	25 1736 19 is_stmt 1
	movl	-516(%rbp), %edx
	shrl	$6, %edx
	.loc	25 1736 18 is_stmt 0
	andl	$31, %edx
	.loc	25 1736 13
	orb	$-64, %dl
	movb	%dl, (%rcx)
	.loc	25 1737 19 is_stmt 1
	movl	-516(%rbp), %ecx
	.loc	25 1737 18 is_stmt 0
	andl	$63, %ecx
	.loc	25 1737 13
	orb	$-128, %cl
	movb	%cl, 1(%rax)
Ltmp195:
	.loc	25 1738 9 is_stmt 1
	jmp	LBB36_7
LBB36_10:
	.loc	25 1732 14
	movq	-496(%rbp), %rax
	movq	%rax, -168(%rbp)
Ltmp196:
	.loc	25 1733 18
	movl	-516(%rbp), %ecx
	.loc	25 1733 13 is_stmt 0
	movb	%cl, (%rax)
Ltmp197:
	.loc	25 1734 9 is_stmt 1
	jmp	LBB36_7
Ltmp198:
Lfunc_end36:
	.cfi_endproc
	.p2align	2, 0x90
	.data_region jt32
.set L36_0_set_2, LBB36_2-LJTI36_0
.set L36_0_set_3, LBB36_3-LJTI36_0
.set L36_0_set_4, LBB36_4-LJTI36_0
.set L36_0_set_5, LBB36_5-LJTI36_0
LJTI36_0:
	.long	L36_0_set_2
	.long	L36_0_set_3
	.long	L36_0_set_4
	.long	L36_0_set_5
	.end_data_region

	.p2align	4, 0x90
__ZN4core4char7methods8len_utf817h0f45c384cde86807E:
Lfunc_begin37:
	.loc	25 1701 0
	.cfi_startproc
	pushq	%rbp
	.cfi_def_cfa_offset 16
	.cfi_offset %rbp, -16
	movq	%rsp, %rbp
	.cfi_def_cfa_register %rbp
	subq	$24, %rsp
	movl	%edi, -20(%rbp)
	movl	%edi, -4(%rbp)
Ltmp199:
	.loc	25 1702 8 prologue_end
	cmpl	$128, %edi
	jb	LBB37_2
	.loc	25 0 8 is_stmt 0
	movl	-20(%rbp), %eax
	.loc	25 1704 15 is_stmt 1
	cmpl	$2048, %eax
	jb	LBB37_5
	jmp	LBB37_4
LBB37_2:
	.loc	25 1703 9
	movq	$1, -16(%rbp)
LBB37_3:
	.loc	25 1711 2
	movq	-16(%rbp), %rax
	addq	$24, %rsp
	popq	%rbp
	retq
LBB37_4:
	.loc	25 0 2 is_stmt 0
	movl	-20(%rbp), %eax
	.loc	25 1706 15 is_stmt 1
	cmpl	$65536, %eax
	jb	LBB37_8
	jmp	LBB37_7
LBB37_5:
	.loc	25 1705 9
	movq	$2, -16(%rbp)
LBB37_6:
	.loc	25 1702 5
	jmp	LBB37_3
LBB37_7:
	.loc	25 1709 9
	movq	$4, -16(%rbp)
	.loc	25 1706 12
	jmp	LBB37_9
LBB37_8:
	.loc	25 1707 9
	movq	$3, -16(%rbp)
LBB37_9:
	.loc	25 1704 12
	jmp	LBB37_6
Ltmp200:
Lfunc_end37:
	.cfi_endproc

	.p2align	4, 0x90
__ZN4core4hint21unreachable_unchecked17he5b902cc399778f0E:
Lfunc_begin38:
	.file	26 "/rustc/2c8cc343237b8f7d5a3c3703e3a87f2eb2c54a74/library/core/src" "hint.rs"
	.loc	26 100 0
	.cfi_startproc
	pushq	%rbp
	.cfi_def_cfa_offset 16
	.cfi_offset %rbp, -16
	movq	%rsp, %rbp
	.cfi_def_cfa_register %rbp
Ltmp201:
	.loc	26 104 9 prologue_end
	ud2
Ltmp202:
Lfunc_end38:
	.cfi_endproc

	.globl	__ZN4core4iter6traits8iterator8Iterator4fold17h783853f66a05d1e5E
	.p2align	4, 0x90
__ZN4core4iter6traits8iterator8Iterator4fold17h783853f66a05d1e5E:
Lfunc_begin39:
	.file	27 "/rustc/2c8cc343237b8f7d5a3c3703e3a87f2eb2c54a74/library/core/src/iter/traits" "iterator.rs"
	.loc	27 2431 0
	.cfi_startproc
	.cfi_personality 155, _rust_eh_personality
	.cfi_lsda 16, Lexception2
	pushq	%rbp
	.cfi_def_cfa_offset 16
	.cfi_offset %rbp, -16
	movq	%rsp, %rbp
	.cfi_def_cfa_register %rbp
	subq	$80, %rsp
	movq	%rdi, -72(%rbp)
Ltmp208:
	movq	%rsi, -64(%rbp)
Ltmp209:
	.loc	27 2436 25 prologue_end
	movb	$1, -41(%rbp)
Ltmp210:
LBB39_1:
Ltmp203:
	.loc	27 0 25 is_stmt 0
	movq	-72(%rbp), %rdi
Ltmp211:
	.loc	27 2437 29 is_stmt 1
	callq	__ZN114_$LT$unicode_normalization..stream_safe..StreamSafe$LT$I$GT$$u20$as$u20$core..iter..traits..iterator..Iterator$GT$4next17h632ab25ecfd05c02E
Ltmp204:
	movl	%eax, -76(%rbp)
	jmp	LBB39_4
Ltmp212:
LBB39_2:
	.loc	27 2441 5
	testb	$1, -41(%rbp)
	jne	LBB39_11
	jmp	LBB39_10
Ltmp213:
LBB39_3:
Ltmp207:
	.loc	27 0 5 is_stmt 0
	movq	%rax, %rcx
	movl	%edx, %eax
	movq	%rcx, -24(%rbp)
	movl	%eax, -16(%rbp)
	jmp	LBB39_2
Ltmp214:
LBB39_4:
	movl	-76(%rbp), %eax
Ltmp215:
	.loc	27 2437 29 is_stmt 1
	movl	%eax, -52(%rbp)
	.loc	27 2437 19 is_stmt 0
	movl	$1, %eax
	xorl	%ecx, %ecx
	cmpl	$1114112, -52(%rbp)
	cmoveq	%rcx, %rax
	cmpq	$1, %rax
	jne	LBB39_6
Ltmp216:
	.loc	27 2437 24
	movl	-52(%rbp), %eax
	movl	%eax, -4(%rbp)
	.loc	27 2438 23 is_stmt 1
	movb	$0, -41(%rbp)
	.loc	27 2438 21 is_stmt 0
	movl	%eax, -48(%rbp)
	movl	-48(%rbp), %esi
Ltmp205:
	leaq	-64(%rbp), %rdi
	callq	__ZN4core4iter6traits8iterator8Iterator8for_each4call28_$u7b$$u7b$closure$u7d$$u7d$17h0e0094b0a2f74c7dE
Ltmp206:
	jmp	LBB39_9
Ltmp217:
LBB39_6:
	.loc	27 2437 9 is_stmt 1
	jmp	LBB39_7
Ltmp218:
LBB39_7:
	.loc	27 2441 5
	jmp	LBB39_8
Ltmp219:
LBB39_8:
	.loc	27 2441 6 is_stmt 0
	addq	$80, %rsp
	popq	%rbp
	retq
Ltmp220:
LBB39_9:
	.loc	27 2438 13 is_stmt 1
	movb	$1, -41(%rbp)
Ltmp221:
	.loc	27 2437 9
	jmp	LBB39_1
Ltmp222:
LBB39_10:
	.loc	27 2441 5
	jmp	LBB39_12
Ltmp223:
LBB39_11:
	jmp	LBB39_10
Ltmp224:
LBB39_12:
	.loc	27 2431 5
	movq	-24(%rbp), %rdi
	callq	__Unwind_Resume
Ltmp225:
Lfunc_end39:
	.cfi_endproc
	.section	__TEXT,__gcc_except_tab
	.p2align	2
GCC_except_table39:
Lexception2:
	.byte	255
	.byte	255
	.byte	1
	.uleb128 Lcst_end2-Lcst_begin2
Lcst_begin2:
	.uleb128 Ltmp203-Lfunc_begin39
	.uleb128 Ltmp206-Ltmp203
	.uleb128 Ltmp207-Lfunc_begin39
	.byte	0
	.uleb128 Ltmp206-Lfunc_begin39
	.uleb128 Lfunc_end39-Ltmp206
	.byte	0
	.byte	0
Lcst_end2:
	.p2align	2

	.section	__TEXT,__text,regular,pure_instructions
	.globl	__ZN4core4iter6traits8iterator8Iterator7collect17hfd8daa4ddb66b5c0E
	.p2align	4, 0x90
__ZN4core4iter6traits8iterator8Iterator7collect17hfd8daa4ddb66b5c0E:
Lfunc_begin40:
	.loc	27 1856 0
	.cfi_startproc
	pushq	%rbp
	.cfi_def_cfa_offset 16
	.cfi_offset %rbp, -16
	movq	%rsp, %rbp
	.cfi_def_cfa_register %rbp
	subq	$48, %rsp
	movq	%rdi, %rax
	movq	%rax, -40(%rbp)
Ltmp226:
	.loc	27 1860 33 prologue_end
	movq	(%rsi), %rax
	movq	%rax, -32(%rbp)
	movq	8(%rsi), %rax
	movq	%rax, -24(%rbp)
	movq	16(%rsi), %rax
	movq	%rax, -16(%rbp)
	movq	24(%rsi), %rax
	movq	%rax, -8(%rbp)
	.loc	27 1860 9 is_stmt 0
	leaq	-32(%rbp), %rsi
Ltmp227:
	callq	__ZN95_$LT$alloc..string..String$u20$as$u20$core..iter..traits..collect..FromIterator$LT$char$GT$$GT$9from_iter17h761448bf46e3964dE
	movq	-40(%rbp), %rax
	.loc	27 1861 6 is_stmt 1
	addq	$48, %rsp
	popq	%rbp
	retq
Ltmp228:
Lfunc_end40:
	.cfi_endproc

	.globl	__ZN4core4iter6traits8iterator8Iterator8for_each17h04b91cb2e00f79e1E
	.p2align	4, 0x90
__ZN4core4iter6traits8iterator8Iterator8for_each17h04b91cb2e00f79e1E:
Lfunc_begin41:
	.loc	27 827 0
	.cfi_startproc
	.cfi_personality 155, _rust_eh_personality
	.cfi_lsda 16, Lexception3
	pushq	%rbp
	.cfi_def_cfa_offset 16
	.cfi_offset %rbp, -16
	movq	%rsp, %rbp
	.cfi_def_cfa_register %rbp
	subq	$80, %rsp
	movq	%rsi, -32(%rbp)
Ltmp232:
	.loc	27 837 9 prologue_end
	movq	24(%rdi), %rax
	movq	%rax, -48(%rbp)
	movq	16(%rdi), %rax
	movq	%rax, -56(%rbp)
	movq	(%rdi), %rax
	movq	8(%rdi), %rcx
	movq	%rcx, -64(%rbp)
	movq	%rax, -72(%rbp)
	.loc	27 837 28 is_stmt 0
	movq	%rsi, -24(%rbp)
Ltmp233:
	.loc	27 834 13 is_stmt 1
	movq	%rsi, -40(%rbp)
Ltmp234:
	.loc	27 837 9
	movq	-40(%rbp), %rsi
Ltmp229:
	leaq	-72(%rbp), %rdi
Ltmp235:
	callq	__ZN4core4iter6traits8iterator8Iterator4fold17h783853f66a05d1e5E
Ltmp230:
	jmp	LBB41_3
Ltmp236:
LBB41_1:
	.loc	27 837 30 is_stmt 0
	xorl	%eax, %eax
	testb	$1, %al
	jne	LBB41_5
	jmp	LBB41_4
Ltmp237:
LBB41_2:
Ltmp231:
	.loc	27 0 30
	movq	%rax, %rcx
	movl	%edx, %eax
	movq	%rcx, -16(%rbp)
	movl	%eax, -8(%rbp)
	jmp	LBB41_1
Ltmp238:
LBB41_3:
	.loc	27 838 6 is_stmt 1
	addq	$80, %rsp
	popq	%rbp
	retq
Ltmp239:
LBB41_4:
	.loc	27 827 5
	movq	-16(%rbp), %rdi
	callq	__Unwind_Resume
Ltmp240:
LBB41_5:
	.loc	27 837 30
	jmp	LBB41_4
Ltmp241:
Lfunc_end41:
	.cfi_endproc
	.section	__TEXT,__gcc_except_tab
	.p2align	2
GCC_except_table41:
Lexception3:
	.byte	255
	.byte	255
	.byte	1
	.uleb128 Lcst_end3-Lcst_begin3
Lcst_begin3:
	.uleb128 Ltmp229-Lfunc_begin41
	.uleb128 Ltmp230-Ltmp229
	.uleb128 Ltmp231-Lfunc_begin41
	.byte	0
	.uleb128 Ltmp230-Lfunc_begin41
	.uleb128 Lfunc_end41-Ltmp230
	.byte	0
	.byte	0
Lcst_end3:
	.p2align	2

	.section	__TEXT,__text,regular,pure_instructions
	.globl	__ZN4core4iter6traits8iterator8Iterator8for_each4call28_$u7b$$u7b$closure$u7d$$u7d$17h0e0094b0a2f74c7dE
	.p2align	4, 0x90
__ZN4core4iter6traits8iterator8Iterator8for_each4call28_$u7b$$u7b$closure$u7d$$u7d$17h0e0094b0a2f74c7dE:
Lfunc_begin42:
	.loc	27 834 0
	.cfi_startproc
	pushq	%rbp
	.cfi_def_cfa_offset 16
	.cfi_offset %rbp, -16
	movq	%rsp, %rbp
	.cfi_def_cfa_register %rbp
	subq	$32, %rsp
	movq	%rdi, -16(%rbp)
	movl	%esi, -4(%rbp)
Ltmp242:
	.loc	27 834 29 prologue_end
	movl	%esi, -20(%rbp)
	movl	-20(%rbp), %esi
	callq	__ZN89_$LT$alloc..string..String$u20$as$u20$core..iter..traits..collect..Extend$LT$char$GT$$GT$6extend28_$u7b$$u7b$closure$u7d$$u7d$17hc0ee9a9c4407a193E
	.loc	27 834 36 is_stmt 0
	addq	$32, %rsp
	popq	%rbp
	retq
Ltmp243:
Lfunc_end42:
	.cfi_endproc

	.globl	__ZN4core4iter6traits8iterator8Iterator9size_hint17hfbff7c3e8c38f246E
	.p2align	4, 0x90
__ZN4core4iter6traits8iterator8Iterator9size_hint17hfbff7c3e8c38f246E:
Lfunc_begin43:
	.loc	27 221 0 is_stmt 1
	.cfi_startproc
	pushq	%rbp
	.cfi_def_cfa_offset 16
	.cfi_offset %rbp, -16
	movq	%rsp, %rbp
	.cfi_def_cfa_register %rbp
	subq	$24, %rsp
	movq	%rdi, %rax
	movq	%rsi, -8(%rbp)
Ltmp244:
	.loc	27 222 13 prologue_end
	movq	$0, -24(%rbp)
	.loc	27 222 9 is_stmt 0
	movq	$0, (%rdi)
	movq	-24(%rbp), %rdx
	movq	-16(%rbp), %rcx
	movq	%rdx, 8(%rdi)
	movq	%rcx, 16(%rdi)
	.loc	27 223 6 is_stmt 1
	addq	$24, %rsp
	popq	%rbp
	retq
Ltmp245:
Lfunc_end43:
	.cfi_endproc

	.p2align	4, 0x90
__ZN4core5alloc6layout6Layout5array5inner17h77ccc9286c550ec9E:
Lfunc_begin44:
	.file	28 "/rustc/2c8cc343237b8f7d5a3c3703e3a87f2eb2c54a74/library/core/src/alloc" "layout.rs"
	.loc	28 441 0
	.cfi_startproc
	pushq	%rbp
	.cfi_def_cfa_offset 16
	.cfi_offset %rbp, -16
	movq	%rsp, %rbp
	.cfi_def_cfa_register %rbp
	subq	$176, %rsp
	movq	%rdi, -168(%rbp)
	movq	%rsi, -160(%rbp)
	movq	%rdx, -152(%rbp)
	movq	%rdi, -88(%rbp)
	movq	%rsi, -80(%rbp)
	movq	%rdx, -72(%rbp)
Ltmp246:
	.loc	28 452 16 prologue_end
	cmpq	$0, %rdi
	jne	LBB44_2
	movb	$0, -121(%rbp)
	jmp	LBB44_5
LBB44_2:
	.loc	28 0 16 is_stmt 0
	movq	-168(%rbp), %rax
	movq	-160(%rbp), %rcx
	.loc	28 452 68
	movq	%rcx, -64(%rbp)
Ltmp247:
	.loc	28 93 32 is_stmt 1
	movq	%rcx, -56(%rbp)
Ltmp248:
	.file	29 "/rustc/2c8cc343237b8f7d5a3c3703e3a87f2eb2c54a74/library/core/src/ptr" "alignment.rs"
	.loc	29 97 9
	movq	%rcx, -104(%rbp)
	movq	-104(%rbp), %rdx
Ltmp249:
	.loc	28 93 31
	subq	$1, %rdx
	.loc	28 93 9 is_stmt 0
	movabsq	$9223372036854775807, %rcx
	subq	%rdx, %rcx
	movq	%rcx, -176(%rbp)
Ltmp250:
	.loc	28 452 41 is_stmt 1
	cmpq	$0, %rax
	sete	%al
	testb	$1, %al
	jne	LBB44_4
	.loc	28 0 41 is_stmt 0
	movq	-168(%rbp), %rcx
	movq	-176(%rbp), %rax
	.loc	28 452 41
	xorl	%edx, %edx
	divq	%rcx
	movq	%rax, %rcx
	movq	-152(%rbp), %rax
	.loc	28 452 37
	cmpq	%rcx, %rax
	seta	%al
	.loc	28 452 16
	andb	$1, %al
	movb	%al, -121(%rbp)
	jmp	LBB44_5
LBB44_4:
	.loc	28 452 41
	leaq	_str.0(%rip), %rdi
	leaq	l___unnamed_13(%rip), %rdx
	movl	$25, %esi
	callq	__ZN4core9panicking5panic17hc1bc45270cf64b03E
LBB44_5:
	.loc	28 452 16
	testb	$1, -121(%rbp)
	jne	LBB44_7
	.loc	28 0 16
	movq	-160(%rbp), %rax
	movq	-152(%rbp), %rdx
	movq	-168(%rbp), %rcx
	.loc	28 456 30 is_stmt 1
	imulq	%rdx, %rcx
	movq	%rcx, -48(%rbp)
Ltmp251:
	.loc	28 461 59
	movq	%rcx, -40(%rbp)
	.loc	28 461 71 is_stmt 0
	movq	%rax, -32(%rbp)
Ltmp252:
	.loc	29 97 9 is_stmt 1
	movq	%rax, -96(%rbp)
	movq	-96(%rbp), %rax
	movq	%rax, -24(%rbp)
Ltmp253:
	.loc	28 120 65
	movq	%rax, -16(%rbp)
Ltmp254:
	.loc	29 89 18
	movq	%rax, -8(%rbp)
	movq	-8(%rbp), %rax
Ltmp255:
	.loc	28 120 18
	movq	%rcx, -120(%rbp)
	movq	%rax, -112(%rbp)
Ltmp256:
	.loc	28 461 22
	movq	-120(%rbp), %rcx
	movq	-112(%rbp), %rax
	movq	%rcx, -144(%rbp)
	movq	%rax, -136(%rbp)
Ltmp257:
	.loc	28 462 10
	jmp	LBB44_8
LBB44_7:
	.loc	28 453 24
	movq	$0, -136(%rbp)
LBB44_8:
	.loc	28 462 10
	movq	-144(%rbp), %rax
	movq	-136(%rbp), %rdx
	addq	$176, %rsp
	popq	%rbp
	retq
Ltmp258:
Lfunc_end44:
	.cfi_endproc

	.globl	__ZN4core5slice29_$LT$impl$u20$$u5b$T$u5d$$GT$3len17h72d100693de4e74eE
	.p2align	4, 0x90
__ZN4core5slice29_$LT$impl$u20$$u5b$T$u5d$$GT$3len17h72d100693de4e74eE:
Lfunc_begin45:
	.loc	22 136 0
	.cfi_startproc
	pushq	%rbp
	.cfi_def_cfa_offset 16
	.cfi_offset %rbp, -16
	movq	%rsp, %rbp
	.cfi_def_cfa_register %rbp
	subq	$48, %rsp
	movq	%rdi, -32(%rbp)
	movq	%rsi, -24(%rbp)
Ltmp259:
	.loc	22 137 23 prologue_end
	movq	%rdi, -16(%rbp)
	movq	%rsi, -8(%rbp)
Ltmp260:
	.loc	4 98 14
	movq	%rdi, -48(%rbp)
	movq	%rsi, -40(%rbp)
	movq	-40(%rbp), %rax
Ltmp261:
	.loc	22 138 6
	addq	$48, %rsp
	popq	%rbp
	retq
Ltmp262:
Lfunc_end45:
	.cfi_endproc

	.globl	__ZN4core5slice4iter13Iter$LT$T$GT$3new17h04fe6342c99622a9E
	.p2align	4, 0x90
__ZN4core5slice4iter13Iter$LT$T$GT$3new17h04fe6342c99622a9E:
Lfunc_begin46:
	.file	30 "/rustc/2c8cc343237b8f7d5a3c3703e3a87f2eb2c54a74/library/core/src/slice" "iter.rs"
	.loc	30 82 0
	.cfi_startproc
	pushq	%rbp
	.cfi_def_cfa_offset 16
	.cfi_offset %rbp, -16
	movq	%rsp, %rbp
	.cfi_def_cfa_register %rbp
	subq	$280, %rsp
	movq	%rdi, -280(%rbp)
	movq	%rsi, -272(%rbp)
	movq	%rdi, -208(%rbp)
	movq	%rsi, -200(%rbp)
Ltmp263:
	.loc	30 83 19 prologue_end
	movq	%rdi, -184(%rbp)
	movq	%rsi, -176(%rbp)
Ltmp264:
	.loc	22 477 9
	movq	%rdi, -168(%rbp)
Ltmp265:
	.loc	30 86 21
	movq	%rdi, -160(%rbp)
Ltmp266:
	.loc	2 53 36
	movq	%rdi, -232(%rbp)
	.loc	2 53 18 is_stmt 0
	movq	-232(%rbp), %rax
	movq	%rax, -152(%rbp)
Ltmp267:
	.loc	2 39 13 is_stmt 1
	movq	%rax, -144(%rbp)
Ltmp268:
	.loc	2 209 33
	movq	%rax, -136(%rbp)
	.loc	2 209 18 is_stmt 0
	movq	%rax, -128(%rbp)
Ltmp269:
	.loc	30 89 20 is_stmt 1
	xorl	%eax, %eax
	testb	$1, %al
	jne	LBB46_2
	.loc	30 0 20 is_stmt 0
	movq	-272(%rbp), %rcx
	movq	-280(%rbp), %rax
	.loc	30 89 76
	movq	%rax, -40(%rbp)
	.loc	30 89 84
	movq	%rcx, -32(%rbp)
Ltmp270:
	.loc	2 932 18 is_stmt 1
	movq	%rax, -24(%rbp)
	.loc	2 932 30 is_stmt 0
	movq	%rcx, -16(%rbp)
Ltmp271:
	.loc	2 473 18 is_stmt 1
	addq	%rcx, %rax
	movq	%rax, -248(%rbp)
Ltmp272:
	.loc	30 89 17
	jmp	LBB46_3
LBB46_2:
	.loc	30 0 17 is_stmt 0
	movq	-272(%rbp), %rcx
	movq	-280(%rbp), %rax
	.loc	30 89 32
	movq	%rax, -120(%rbp)
	.loc	30 89 54
	movq	%rcx, -112(%rbp)
Ltmp273:
	.loc	2 1118 9 is_stmt 1
	movq	%rax, -104(%rbp)
Ltmp274:
	.loc	2 61 9
	movq	%rax, -96(%rbp)
Ltmp275:
	.loc	2 1118 40
	movq	%rcx, -88(%rbp)
Ltmp276:
	.loc	2 1100 9
	movq	%rax, -80(%rbp)
	.loc	2 1100 30 is_stmt 0
	movq	%rcx, -72(%rbp)
Ltmp277:
	.loc	2 555 18 is_stmt 1
	addq	%rcx, %rax
	movq	%rax, -64(%rbp)
	movq	-64(%rbp), %rax
	movq	%rax, -56(%rbp)
Ltmp278:
	.loc	2 100 29
	movq	%rax, -48(%rbp)
Ltmp279:
	.loc	4 118 36
	movq	%rax, -216(%rbp)
	.loc	4 118 14 is_stmt 0
	movq	-216(%rbp), %rax
	movq	%rax, -224(%rbp)
	movq	-224(%rbp), %rax
	movq	%rax, -248(%rbp)
Ltmp280:
LBB46_3:
	.loc	4 0 14
	movq	-280(%rbp), %rax
Ltmp281:
	.loc	30 91 48 is_stmt 1
	movq	%rax, -8(%rbp)
Ltmp282:
	.loc	6 201 13
	movq	%rax, -240(%rbp)
Ltmp283:
	.loc	30 91 64
	movq	-248(%rbp), %rax
	.loc	30 91 13 is_stmt 0
	movq	-240(%rbp), %rcx
	movq	%rcx, -256(%rbp)
	movq	%rax, -264(%rbp)
Ltmp284:
	.loc	30 93 6 is_stmt 1
	movq	-264(%rbp), %rax
	movq	-256(%rbp), %rdx
	addq	$280, %rsp
	popq	%rbp
	retq
Ltmp285:
Lfunc_end46:
	.cfi_endproc

	.globl	__ZN4core5slice4iter13Iter$LT$T$GT$8as_slice17hd735acf84f2c4cdbE
	.p2align	4, 0x90
__ZN4core5slice4iter13Iter$LT$T$GT$8as_slice17hd735acf84f2c4cdbE:
Lfunc_begin47:
	.loc	30 122 0
	.cfi_startproc
	pushq	%rbp
	.cfi_def_cfa_offset 16
	.cfi_offset %rbp, -16
	movq	%rsp, %rbp
	.cfi_def_cfa_register %rbp
	subq	$224, %rsp
	movq	%rdi, -224(%rbp)
	movq	%rdi, -160(%rbp)
Ltmp286:
	.loc	30 123 9 prologue_end
	movq	%rdi, -152(%rbp)
Ltmp287:
	.file	31 "/rustc/2c8cc343237b8f7d5a3c3703e3a87f2eb2c54a74/library/core/src/slice/iter" "macros.rs"
	.loc	31 68 41
	movq	8(%rdi), %rax
	movq	%rax, -216(%rbp)
	movq	%rax, -144(%rbp)
	movq	%rax, -136(%rbp)
	.loc	31 16 21
	movq	8(%rdi), %rax
	movq	%rax, -208(%rbp)
	movq	%rax, -128(%rbp)
Ltmp288:
	.loc	31 17 12
	xorl	%eax, %eax
	testb	$1, %al
	jne	LBB47_2
	.loc	31 0 12 is_stmt 0
	movq	-208(%rbp), %rsi
	movq	-224(%rbp), %rax
	.loc	31 25 22 is_stmt 1
	movq	(%rax), %rdi
	.loc	31 25 40 is_stmt 0
	movq	%rsi, -48(%rbp)
	.loc	31 25 22
	callq	__ZN4core3ptr9const_ptr33_$LT$impl$u20$$BP$const$u20$T$GT$7sub_ptr17hd8a95efe5191bac2E
	movq	%rax, -200(%rbp)
	.loc	31 17 9 is_stmt 1
	jmp	LBB47_3
LBB47_2:
	.loc	31 0 9 is_stmt 0
	movq	-208(%rbp), %rcx
	movq	-224(%rbp), %rax
	.loc	31 20 13 is_stmt 1
	movq	(%rax), %rax
	movq	%rax, -120(%rbp)
Ltmp289:
	.loc	2 209 33
	movq	%rax, -112(%rbp)
	.loc	2 209 18 is_stmt 0
	movq	%rax, -104(%rbp)
	movq	-104(%rbp), %rax
	movq	%rax, -96(%rbp)
Ltmp290:
	.loc	31 20 43 is_stmt 1
	movq	%rcx, -88(%rbp)
Ltmp291:
	.loc	6 326 9
	movq	%rcx, -80(%rbp)
Ltmp292:
	.loc	5 215 33
	movq	%rcx, -72(%rbp)
	.loc	5 215 18 is_stmt 0
	movq	%rcx, -64(%rbp)
	movq	-64(%rbp), %rcx
	movq	%rcx, -56(%rbp)
Ltmp293:
	.loc	16 1203 13 is_stmt 1
	subq	%rcx, %rax
	movq	%rax, -200(%rbp)
Ltmp294:
LBB47_3:
	.loc	16 0 13 is_stmt 0
	movq	-216(%rbp), %rcx
Ltmp295:
	.file	32 "/rustc/2c8cc343237b8f7d5a3c3703e3a87f2eb2c54a74/library/core/src/slice" "raw.rs"
	.loc	32 100 37 is_stmt 1
	movq	%rcx, -40(%rbp)
	.loc	32 100 43 is_stmt 0
	movq	-200(%rbp), %rax
	movq	%rax, -32(%rbp)
Ltmp296:
	.loc	3 734 20 is_stmt 1
	movq	%rcx, -24(%rbp)
Ltmp297:
	.loc	2 61 9
	movq	%rcx, -16(%rbp)
Ltmp298:
	.loc	3 734 33
	movq	%rax, -8(%rbp)
Ltmp299:
	.loc	4 118 36
	movq	%rcx, -176(%rbp)
	movq	%rax, -168(%rbp)
	.loc	4 118 14 is_stmt 0
	movq	-176(%rbp), %rcx
	movq	-168(%rbp), %rax
	movq	%rcx, -192(%rbp)
	movq	%rax, -184(%rbp)
	movq	-192(%rbp), %rax
	movq	-184(%rbp), %rdx
Ltmp300:
	.loc	30 124 6 is_stmt 1
	addq	$224, %rsp
	popq	%rbp
	retq
Ltmp301:
Lfunc_end47:
	.cfi_endproc

	.globl	__ZN4core5slice5index74_$LT$impl$u20$core..ops..index..Index$LT$I$GT$$u20$for$u20$$u5b$T$u5d$$GT$5index17h27a5569c358c80daE
	.p2align	4, 0x90
__ZN4core5slice5index74_$LT$impl$u20$core..ops..index..Index$LT$I$GT$$u20$for$u20$$u5b$T$u5d$$GT$5index17h27a5569c358c80daE:
Lfunc_begin48:
	.loc	1 17 0
	.cfi_startproc
	pushq	%rbp
	.cfi_def_cfa_offset 16
	.cfi_offset %rbp, -16
	movq	%rsp, %rbp
	.cfi_def_cfa_register %rbp
	subq	$32, %rsp
	movq	%rdx, -32(%rbp)
	movq	%rsi, %rdx
	movq	%rdi, %rsi
	movq	-32(%rbp), %rdi
	movq	%rsi, -24(%rbp)
	movq	%rdx, -16(%rbp)
	movq	%rdi, -8(%rbp)
Ltmp302:
	.loc	1 18 9 prologue_end
	callq	__ZN110_$LT$core..ops..range..RangeFrom$LT$usize$GT$$u20$as$u20$core..slice..index..SliceIndex$LT$$u5b$T$u5d$$GT$$GT$5index17h4820a1bbe53bc766E
	.loc	1 19 6
	addq	$32, %rsp
	popq	%rbp
	retq
Ltmp303:
Lfunc_end48:
	.cfi_endproc

	.globl	__ZN4core5slice5index74_$LT$impl$u20$core..ops..index..Index$LT$I$GT$$u20$for$u20$$u5b$T$u5d$$GT$5index17h4b4ff975ccf7248cE
	.p2align	4, 0x90
__ZN4core5slice5index74_$LT$impl$u20$core..ops..index..Index$LT$I$GT$$u20$for$u20$$u5b$T$u5d$$GT$5index17h4b4ff975ccf7248cE:
Lfunc_begin49:
	.loc	1 17 0
	.cfi_startproc
	pushq	%rbp
	.cfi_def_cfa_offset 16
	.cfi_offset %rbp, -16
	movq	%rsp, %rbp
	.cfi_def_cfa_register %rbp
	subq	$32, %rsp
	movq	%rdx, -32(%rbp)
	movq	%rsi, %rdx
	movq	%rdi, %rsi
	movq	-32(%rbp), %rdi
	movq	%rsi, -24(%rbp)
	movq	%rdx, -16(%rbp)
	movq	%rdi, -8(%rbp)
Ltmp304:
	.loc	1 18 9 prologue_end
	callq	__ZN108_$LT$core..ops..range..RangeTo$LT$usize$GT$$u20$as$u20$core..slice..index..SliceIndex$LT$$u5b$T$u5d$$GT$$GT$5index17h9f588254921ceff4E
	.loc	1 19 6
	addq	$32, %rsp
	popq	%rbp
	retq
Ltmp305:
Lfunc_end49:
	.cfi_endproc

	.globl	__ZN4core6option15Option$LT$T$GT$16unwrap_unchecked17h53790696db3a93eaE
	.p2align	4, 0x90
__ZN4core6option15Option$LT$T$GT$16unwrap_unchecked17h53790696db3a93eaE:
Lfunc_begin50:
	.loc	19 933 0
	.cfi_startproc
	.cfi_personality 155, _rust_eh_personality
	.cfi_lsda 16, Lexception4
	pushq	%rbp
	.cfi_def_cfa_offset 16
	.cfi_offset %rbp, -16
	movq	%rsp, %rbp
	.cfi_def_cfa_register %rbp
	subq	$32, %rsp
	movq	%rdi, -32(%rbp)
Ltmp309:
	.loc	19 935 15 prologue_end
	movq	-32(%rbp), %rdx
	movl	$1, %eax
	xorl	%ecx, %ecx
	cmpq	$0, %rdx
	cmoveq	%rcx, %rax
	.loc	19 935 9 is_stmt 0
	cmpq	$0, %rax
	jne	LBB50_2
Ltmp306:
	.loc	19 938 30 is_stmt 1
	callq	__ZN4core4hint21unreachable_unchecked17he5b902cc399778f0E
Ltmp307:
	jmp	LBB50_5
LBB50_2:
	.loc	19 936 18
	movq	-32(%rbp), %rax
	movq	%rax, -24(%rbp)
	.loc	19 940 6
	addq	$32, %rsp
	popq	%rbp
	retq
LBB50_3:
	.loc	19 940 5 is_stmt 0
	movq	-32(%rbp), %rdx
	movl	$1, %eax
	xorl	%ecx, %ecx
	cmpq	$0, %rdx
	cmoveq	%rcx, %rax
	cmpq	$1, %rax
	je	LBB50_6
	jmp	LBB50_7
LBB50_4:
Ltmp308:
	.loc	19 0 5
	movq	%rax, %rcx
	movl	%edx, %eax
	movq	%rcx, -16(%rbp)
	movl	%eax, -8(%rbp)
	jmp	LBB50_3
LBB50_5:
	ud2
LBB50_6:
	.loc	19 940 5
	movb	$1, %al
	testb	$1, %al
	jne	LBB50_8
	jmp	LBB50_7
LBB50_7:
	.loc	19 933 5 is_stmt 1
	movq	-16(%rbp), %rdi
	callq	__Unwind_Resume
LBB50_8:
	.loc	19 940 5
	jmp	LBB50_7
Ltmp310:
Lfunc_end50:
	.cfi_endproc
	.section	__TEXT,__gcc_except_tab
	.p2align	2
GCC_except_table50:
Lexception4:
	.byte	255
	.byte	255
	.byte	1
	.uleb128 Lcst_end4-Lcst_begin4
Lcst_begin4:
	.uleb128 Ltmp306-Lfunc_begin50
	.uleb128 Ltmp307-Ltmp306
	.uleb128 Ltmp308-Lfunc_begin50
	.byte	0
	.uleb128 Ltmp307-Lfunc_begin50
	.uleb128 Lfunc_end50-Ltmp307
	.byte	0
	.byte	0
Lcst_end4:
	.p2align	2

	.section	__TEXT,__text,regular,pure_instructions
	.globl	__ZN4core6option15Option$LT$T$GT$3map17h0454a64041ea14b4E
	.p2align	4, 0x90
__ZN4core6option15Option$LT$T$GT$3map17h0454a64041ea14b4E:
Lfunc_begin51:
	.loc	19 964 0
	.cfi_startproc
	pushq	%rbp
	.cfi_def_cfa_offset 16
	.cfi_offset %rbp, -16
	movq	%rsp, %rbp
	.cfi_def_cfa_register %rbp
	subq	$64, %rsp
	movl	%edi, %eax
	movl	%eax, -48(%rbp)
	shrq	$32, %rdi
	movw	%di, %ax
	movw	%ax, -44(%rbp)
	movl	-48(%rbp), %eax
	movl	%eax, -56(%rbp)
	movw	-44(%rbp), %ax
	movw	%ax, -52(%rbp)
Ltmp311:
	.loc	19 969 15 prologue_end
	movb	$1, -17(%rbp)
	movzwl	-56(%rbp), %eax
	.loc	19 969 9 is_stmt 0
	cmpq	$0, %rax
	jne	LBB51_2
	.loc	19 971 21 is_stmt 1
	movq	$0, -40(%rbp)
	jmp	LBB51_3
LBB51_2:
	.loc	19 970 18
	movw	-54(%rbp), %cx
	movw	-52(%rbp), %ax
	movw	%cx, -8(%rbp)
	movw	%ax, -6(%rbp)
Ltmp312:
	.loc	19 970 29 is_stmt 0
	movb	$0, -17(%rbp)
	movw	%cx, -24(%rbp)
	movw	%ax, -22(%rbp)
	movw	-24(%rbp), %ax
	movzwl	%ax, %edi
	movzwl	-22(%rbp), %esi
	callq	__ZN21unicode_normalization7lookups36cjk_compat_variants_fully_decomposed28_$u7b$$u7b$closure$u7d$$u7d$17h3d6f33edc84cae65E
	.loc	19 970 24
	movq	%rax, -40(%rbp)
	movq	%rdx, -32(%rbp)
Ltmp313:
LBB51_3:
	.loc	19 973 5 is_stmt 1
	testb	$1, -17(%rbp)
	jne	LBB51_5
LBB51_4:
	.loc	19 973 6 is_stmt 0
	movq	-40(%rbp), %rax
	movq	-32(%rbp), %rdx
	addq	$64, %rsp
	popq	%rbp
	retq
LBB51_5:
	.loc	19 973 5
	jmp	LBB51_4
Ltmp314:
Lfunc_end51:
	.cfi_endproc

	.globl	__ZN4core6option15Option$LT$T$GT$3map17h09036120e8c5e043E
	.p2align	4, 0x90
__ZN4core6option15Option$LT$T$GT$3map17h09036120e8c5e043E:
Lfunc_begin52:
	.loc	19 964 0 is_stmt 1
	.cfi_startproc
	pushq	%rbp
	.cfi_def_cfa_offset 16
	.cfi_offset %rbp, -16
	movq	%rsp, %rbp
	.cfi_def_cfa_register %rbp
	subq	$32, %rsp
	movl	%edi, -32(%rbp)
	movl	%esi, -28(%rbp)
Ltmp315:
	.loc	19 969 15 prologue_end
	movb	$1, -9(%rbp)
	movl	-32(%rbp), %eax
	.loc	19 969 9 is_stmt 0
	cmpq	$0, %rax
	jne	LBB52_2
	.loc	19 971 21 is_stmt 1
	movl	$1114112, -20(%rbp)
	jmp	LBB52_3
LBB52_2:
	.loc	19 970 18
	movl	-28(%rbp), %eax
	movl	%eax, -4(%rbp)
Ltmp316:
	.loc	19 970 29 is_stmt 0
	movb	$0, -9(%rbp)
	movl	%eax, -16(%rbp)
	movl	-16(%rbp), %edi
	callq	__ZN81_$LT$core..str..iter..Chars$u20$as$u20$core..iter..traits..iterator..Iterator$GT$4next28_$u7b$$u7b$closure$u7d$$u7d$17hd2fe275e4cd363deE
	.loc	19 970 24
	movl	%eax, -20(%rbp)
Ltmp317:
LBB52_3:
	.loc	19 973 5 is_stmt 1
	testb	$1, -9(%rbp)
	jne	LBB52_5
LBB52_4:
	.loc	19 973 6 is_stmt 0
	movl	-20(%rbp), %eax
	addq	$32, %rsp
	popq	%rbp
	retq
LBB52_5:
	.loc	19 973 5
	jmp	LBB52_4
Ltmp318:
Lfunc_end52:
	.cfi_endproc

	.globl	__ZN4core6option15Option$LT$T$GT$3map17h22793e6c90cc008dE
	.p2align	4, 0x90
__ZN4core6option15Option$LT$T$GT$3map17h22793e6c90cc008dE:
Lfunc_begin53:
	.loc	19 964 0 is_stmt 1
	.cfi_startproc
	pushq	%rbp
	.cfi_def_cfa_offset 16
	.cfi_offset %rbp, -16
	movq	%rsp, %rbp
	.cfi_def_cfa_register %rbp
	subq	$64, %rsp
	movl	%edi, %eax
	movl	%eax, -48(%rbp)
	shrq	$32, %rdi
	movw	%di, %ax
	movw	%ax, -44(%rbp)
	movl	-48(%rbp), %eax
	movl	%eax, -56(%rbp)
	movw	-44(%rbp), %ax
	movw	%ax, -52(%rbp)
Ltmp319:
	.loc	19 969 15 prologue_end
	movb	$1, -17(%rbp)
	movzwl	-56(%rbp), %eax
	.loc	19 969 9 is_stmt 0
	cmpq	$0, %rax
	jne	LBB53_2
	.loc	19 971 21 is_stmt 1
	movq	$0, -40(%rbp)
	jmp	LBB53_3
LBB53_2:
	.loc	19 970 18
	movw	-54(%rbp), %cx
	movw	-52(%rbp), %ax
	movw	%cx, -8(%rbp)
	movw	%ax, -6(%rbp)
Ltmp320:
	.loc	19 970 29 is_stmt 0
	movb	$0, -17(%rbp)
	movw	%cx, -24(%rbp)
	movw	%ax, -22(%rbp)
	movw	-24(%rbp), %ax
	movzwl	%ax, %edi
	movzwl	-22(%rbp), %esi
	callq	__ZN21unicode_normalization7lookups30compatibility_fully_decomposed28_$u7b$$u7b$closure$u7d$$u7d$17h6138821eaf2c964aE
	.loc	19 970 24
	movq	%rax, -40(%rbp)
	movq	%rdx, -32(%rbp)
Ltmp321:
LBB53_3:
	.loc	19 973 5 is_stmt 1
	testb	$1, -17(%rbp)
	jne	LBB53_5
LBB53_4:
	.loc	19 973 6 is_stmt 0
	movq	-40(%rbp), %rax
	movq	-32(%rbp), %rdx
	addq	$64, %rsp
	popq	%rbp
	retq
LBB53_5:
	.loc	19 973 5
	jmp	LBB53_4
Ltmp322:
Lfunc_end53:
	.cfi_endproc

	.globl	__ZN4core6option15Option$LT$T$GT$3map17h9f9b0b2a217b8846E
	.p2align	4, 0x90
__ZN4core6option15Option$LT$T$GT$3map17h9f9b0b2a217b8846E:
Lfunc_begin54:
	.loc	19 964 0 is_stmt 1
	.cfi_startproc
	pushq	%rbp
	.cfi_def_cfa_offset 16
	.cfi_offset %rbp, -16
	movq	%rsp, %rbp
	.cfi_def_cfa_register %rbp
	subq	$64, %rsp
	movl	%edi, %eax
	movl	%eax, -48(%rbp)
	shrq	$32, %rdi
	movw	%di, %ax
	movw	%ax, -44(%rbp)
	movl	-48(%rbp), %eax
	movl	%eax, -56(%rbp)
	movw	-44(%rbp), %ax
	movw	%ax, -52(%rbp)
Ltmp323:
	.loc	19 969 15 prologue_end
	movb	$1, -17(%rbp)
	movzwl	-56(%rbp), %eax
	.loc	19 969 9 is_stmt 0
	cmpq	$0, %rax
	jne	LBB54_2
	.loc	19 971 21 is_stmt 1
	movq	$0, -40(%rbp)
	jmp	LBB54_3
LBB54_2:
	.loc	19 970 18
	movw	-54(%rbp), %cx
	movw	-52(%rbp), %ax
	movw	%cx, -8(%rbp)
	movw	%ax, -6(%rbp)
Ltmp324:
	.loc	19 970 29 is_stmt 0
	movb	$0, -17(%rbp)
	movw	%cx, -24(%rbp)
	movw	%ax, -22(%rbp)
	movw	-24(%rbp), %ax
	movzwl	%ax, %edi
	movzwl	-22(%rbp), %esi
	callq	__ZN21unicode_normalization7lookups26canonical_fully_decomposed28_$u7b$$u7b$closure$u7d$$u7d$17h6efcf6b4ee867833E
	.loc	19 970 24
	movq	%rax, -40(%rbp)
	movq	%rdx, -32(%rbp)
Ltmp325:
LBB54_3:
	.loc	19 973 5 is_stmt 1
	testb	$1, -17(%rbp)
	jne	LBB54_5
LBB54_4:
	.loc	19 973 6 is_stmt 0
	movq	-40(%rbp), %rax
	movq	-32(%rbp), %rdx
	addq	$64, %rsp
	popq	%rbp
	retq
LBB54_5:
	.loc	19 973 5
	jmp	LBB54_4
Ltmp326:
Lfunc_end54:
	.cfi_endproc

	.globl	__ZN4core6option15Option$LT$T$GT$4take17hcd7d2281eb4abd3cE
	.p2align	4, 0x90
__ZN4core6option15Option$LT$T$GT$4take17hcd7d2281eb4abd3cE:
Lfunc_begin55:
	.loc	19 1621 0 is_stmt 1
	.cfi_startproc
	pushq	%rbp
	.cfi_def_cfa_offset 16
	.cfi_offset %rbp, -16
	movq	%rsp, %rbp
	.cfi_def_cfa_register %rbp
	subq	$16, %rsp
	movq	%rdi, -8(%rbp)
Ltmp327:
	.loc	19 1623 28 prologue_end
	movl	$1114112, -12(%rbp)
	.loc	19 1623 9 is_stmt 0
	movl	-12(%rbp), %esi
	callq	__ZN4core3mem7replace17h73b81993081a8ca3E
	.loc	19 1624 6 is_stmt 1
	addq	$16, %rsp
	popq	%rbp
	retq
Ltmp328:
Lfunc_end55:
	.cfi_endproc

	.globl	__ZN4core6option15Option$LT$T$GT$7or_else17h61e2d8bd7ee8ff18E
	.p2align	4, 0x90
__ZN4core6option15Option$LT$T$GT$7or_else17h61e2d8bd7ee8ff18E:
Lfunc_begin56:
	.loc	19 1411 0
	.cfi_startproc
	pushq	%rbp
	.cfi_def_cfa_offset 16
	.cfi_offset %rbp, -16
	movq	%rsp, %rbp
	.cfi_def_cfa_register %rbp
	subq	$64, %rsp
	movq	%rsi, -56(%rbp)
	movq	%rdx, -48(%rbp)
	movl	%edi, -36(%rbp)
	movq	%rsi, -24(%rbp)
	movq	%rdx, -16(%rbp)
Ltmp329:
	.loc	19 1416 15 prologue_end
	movb	$1, -25(%rbp)
	movl	$1, %eax
	xorl	%ecx, %ecx
	cmpl	$1114112, -36(%rbp)
	cmoveq	%rcx, %rax
	.loc	19 1416 9 is_stmt 0
	cmpq	$0, %rax
	jne	LBB56_2
	.loc	19 0 9
	movq	-48(%rbp), %rsi
	movq	-56(%rbp), %rdi
	.loc	19 1418 21 is_stmt 1
	movb	$0, -25(%rbp)
	callq	__ZN21unicode_normalization9normalize7compose28_$u7b$$u7b$closure$u7d$$u7d$17hf5e7eee419ef3f2bE
	movl	%eax, -32(%rbp)
	.loc	19 1418 23 is_stmt 0
	jmp	LBB56_3
LBB56_2:
	.loc	19 1417 18 is_stmt 1
	movl	-36(%rbp), %eax
	movl	%eax, -4(%rbp)
Ltmp330:
	.loc	19 1417 24 is_stmt 0
	movl	%eax, -32(%rbp)
Ltmp331:
LBB56_3:
	.loc	19 1420 5 is_stmt 1
	testb	$1, -25(%rbp)
	jne	LBB56_5
LBB56_4:
	.loc	19 1420 6 is_stmt 0
	movl	-32(%rbp), %eax
	addq	$64, %rsp
	popq	%rbp
	retq
LBB56_5:
	.loc	19 1420 5
	jmp	LBB56_4
Ltmp332:
Lfunc_end56:
	.cfi_endproc

	.globl	__ZN4core6option15Option$LT$T$GT$7or_else17he439db7085729d96E
	.p2align	4, 0x90
__ZN4core6option15Option$LT$T$GT$7or_else17he439db7085729d96E:
Lfunc_begin57:
	.loc	19 1411 0 is_stmt 1
	.cfi_startproc
	pushq	%rbp
	.cfi_def_cfa_offset 16
	.cfi_offset %rbp, -16
	movq	%rsp, %rbp
	.cfi_def_cfa_register %rbp
	subq	$48, %rsp
	movq	%rsi, -40(%rbp)
	movl	%edi, -28(%rbp)
	movq	%rsi, -16(%rbp)
Ltmp333:
	.loc	19 1416 15 prologue_end
	movb	$1, -17(%rbp)
	movl	$1, %eax
	xorl	%ecx, %ecx
	cmpl	$1114112, -28(%rbp)
	cmoveq	%rcx, %rax
	.loc	19 1416 9 is_stmt 0
	cmpq	$0, %rax
	jne	LBB57_2
	.loc	19 0 9
	movq	-40(%rbp), %rdi
	.loc	19 1418 21 is_stmt 1
	movb	$0, -17(%rbp)
	callq	__ZN114_$LT$unicode_normalization..stream_safe..StreamSafe$LT$I$GT$$u20$as$u20$core..iter..traits..iterator..Iterator$GT$4next28_$u7b$$u7b$closure$u7d$$u7d$17h6f98beff86d840bcE
	movl	%eax, -24(%rbp)
	.loc	19 1418 23 is_stmt 0
	jmp	LBB57_3
LBB57_2:
	.loc	19 1417 18 is_stmt 1
	movl	-28(%rbp), %eax
	movl	%eax, -4(%rbp)
Ltmp334:
	.loc	19 1417 24 is_stmt 0
	movl	%eax, -24(%rbp)
Ltmp335:
LBB57_3:
	.loc	19 1420 5 is_stmt 1
	testb	$1, -17(%rbp)
	jne	LBB57_5
LBB57_4:
	.loc	19 1420 6 is_stmt 0
	movl	-24(%rbp), %eax
	addq	$48, %rsp
	popq	%rbp
	retq
LBB57_5:
	.loc	19 1420 5
	jmp	LBB57_4
Ltmp336:
Lfunc_end57:
	.cfi_endproc

	.globl	__ZN4core6option15Option$LT$T$GT$7or_else17hf75c9fe1b9161a8cE
	.p2align	4, 0x90
__ZN4core6option15Option$LT$T$GT$7or_else17hf75c9fe1b9161a8cE:
Lfunc_begin58:
	.loc	19 1411 0 is_stmt 1
	.cfi_startproc
	pushq	%rbp
	.cfi_def_cfa_offset 16
	.cfi_offset %rbp, -16
	movq	%rsp, %rbp
	.cfi_def_cfa_register %rbp
	subq	$80, %rsp
	movq	%rdx, -72(%rbp)
	movq	%rdi, -64(%rbp)
	movq	%rsi, -56(%rbp)
	movq	%rdx, -24(%rbp)
Ltmp337:
	.loc	19 1416 15 prologue_end
	movb	$1, -25(%rbp)
	movq	-64(%rbp), %rdx
	movl	$1, %eax
	xorl	%ecx, %ecx
	cmpq	$0, %rdx
	cmoveq	%rcx, %rax
	.loc	19 1416 9 is_stmt 0
	cmpq	$0, %rax
	jne	LBB58_2
	.loc	19 0 9
	movq	-72(%rbp), %rdi
	.loc	19 1418 21 is_stmt 1
	movb	$0, -25(%rbp)
	callq	__ZN21unicode_normalization11stream_safe20classify_nonstarters28_$u7b$$u7b$closure$u7d$$u7d$17he71f4909a1bd8ac3E
	movq	%rdx, -40(%rbp)
	movq	%rax, -48(%rbp)
	.loc	19 1418 23 is_stmt 0
	jmp	LBB58_3
LBB58_2:
	.loc	19 1417 18 is_stmt 1
	movq	-64(%rbp), %rcx
	movq	-56(%rbp), %rax
	movq	%rcx, -16(%rbp)
	movq	%rax, -8(%rbp)
Ltmp338:
	.loc	19 1417 24 is_stmt 0
	movq	%rcx, -48(%rbp)
	movq	%rax, -40(%rbp)
Ltmp339:
LBB58_3:
	.loc	19 1420 5 is_stmt 1
	testb	$1, -25(%rbp)
	jne	LBB58_5
LBB58_4:
	.loc	19 1420 6 is_stmt 0
	movq	-48(%rbp), %rax
	movq	-40(%rbp), %rdx
	addq	$80, %rsp
	popq	%rbp
	retq
LBB58_5:
	.loc	19 1420 5
	jmp	LBB58_4
Ltmp340:
Lfunc_end58:
	.cfi_endproc

	.globl	__ZN4core6result19Result$LT$T$C$E$GT$16unwrap_unchecked17h51133fd6aaf7bed9E
	.p2align	4, 0x90
__ZN4core6result19Result$LT$T$C$E$GT$16unwrap_unchecked17h51133fd6aaf7bed9E:
Lfunc_begin59:
	.file	33 "/rustc/2c8cc343237b8f7d5a3c3703e3a87f2eb2c54a74/library/core/src" "result.rs"
	.loc	33 1530 0 is_stmt 1
	.cfi_startproc
	.cfi_personality 155, _rust_eh_personality
	.cfi_lsda 16, Lexception5
	pushq	%rbp
	.cfi_def_cfa_offset 16
	.cfi_offset %rbp, -16
	movq	%rsp, %rbp
	.cfi_def_cfa_register %rbp
	subq	$64, %rsp
	movq	%rdi, -48(%rbp)
	movq	%rsi, -40(%rbp)
Ltmp344:
	.loc	33 1532 15 prologue_end
	xorl	%eax, %eax
	movl	$1, %ecx
	cmpq	$0, -40(%rbp)
	cmoveq	%rcx, %rax
	.loc	33 1532 9 is_stmt 0
	cmpq	$0, %rax
	jne	LBB59_2
	.loc	33 1533 16 is_stmt 1
	movq	-48(%rbp), %rcx
	movq	%rcx, -64(%rbp)
	movq	-40(%rbp), %rax
	movq	%rax, -56(%rbp)
	movq	%rcx, -16(%rbp)
	movq	%rax, -8(%rbp)
	.loc	33 1537 5
	xorl	%eax, %eax
	movl	$1, %ecx
	cmpq	$0, -40(%rbp)
	cmoveq	%rcx, %rax
	cmpq	$0, %rax
	je	LBB59_10
	jmp	LBB59_11
LBB59_2:
Ltmp341:
	.loc	33 1535 32
	callq	__ZN4core4hint21unreachable_unchecked17he5b902cc399778f0E
Ltmp342:
	jmp	LBB59_5
LBB59_3:
	.loc	33 1537 5
	xorl	%eax, %eax
	movl	$1, %ecx
	cmpq	$0, -40(%rbp)
	cmoveq	%rcx, %rax
	cmpq	$0, %rax
	je	LBB59_6
	jmp	LBB59_7
LBB59_4:
Ltmp343:
	.loc	33 0 5 is_stmt 0
	movq	%rax, %rcx
	movl	%edx, %eax
	movq	%rcx, -32(%rbp)
	movl	%eax, -24(%rbp)
	jmp	LBB59_3
LBB59_5:
	ud2
LBB59_6:
	.loc	33 1537 5
	movb	$1, %al
	testb	$1, %al
	jne	LBB59_9
	jmp	LBB59_8
LBB59_7:
	jmp	LBB59_8
LBB59_8:
	.loc	33 1530 5 is_stmt 1
	movq	-32(%rbp), %rdi
	callq	__Unwind_Resume
LBB59_9:
	.loc	33 1537 5
	jmp	LBB59_8
LBB59_10:
	.loc	33 0 5 is_stmt 0
	movq	-56(%rbp), %rdx
	movq	-64(%rbp), %rax
	.loc	33 1537 6
	addq	$64, %rsp
	popq	%rbp
	retq
LBB59_11:
	.loc	33 1537 5
	jmp	LBB59_10
Ltmp345:
Lfunc_end59:
	.cfi_endproc
	.section	__TEXT,__gcc_except_tab
	.p2align	2
GCC_except_table59:
Lexception5:
	.byte	255
	.byte	255
	.byte	1
	.uleb128 Lcst_end5-Lcst_begin5
Lcst_begin5:
	.uleb128 Ltmp341-Lfunc_begin59
	.uleb128 Ltmp342-Ltmp341
	.uleb128 Ltmp343-Lfunc_begin59
	.byte	0
	.uleb128 Ltmp342-Lfunc_begin59
	.uleb128 Lfunc_end59-Ltmp342
	.byte	0
	.byte	0
Lcst_end5:
	.p2align	2

	.section	__TEXT,__text,regular,pure_instructions
	.globl	__ZN4core6result19Result$LT$T$C$E$GT$7map_err17hb934554c3756957eE
	.p2align	4, 0x90
__ZN4core6result19Result$LT$T$C$E$GT$7map_err17hb934554c3756957eE:
Lfunc_begin60:
	.loc	33 857 0 is_stmt 1
	.cfi_startproc
	pushq	%rbp
	.cfi_def_cfa_offset 16
	.cfi_offset %rbp, -16
	movq	%rsp, %rbp
	.cfi_def_cfa_register %rbp
	subq	$80, %rsp
	movq	%rcx, -80(%rbp)
	movq	%rdi, -72(%rbp)
	movq	%rdi, -64(%rbp)
	movq	%rsi, -56(%rbp)
	movq	%rdx, -48(%rbp)
	movq	%rcx, -32(%rbp)
Ltmp346:
	.loc	33 858 15 prologue_end
	movb	$1, -33(%rbp)
	movq	-56(%rbp), %rdx
	xorl	%eax, %eax
	movl	$1, %ecx
	cmpq	$0, %rdx
	cmoveq	%rcx, %rax
	.loc	33 858 9 is_stmt 0
	cmpq	$0, %rax
	jne	LBB60_2
	.loc	33 0 9
	movq	-72(%rbp), %rax
	.loc	33 859 16 is_stmt 1
	movq	-56(%rbp), %rdx
	movq	-48(%rbp), %rcx
	movq	%rdx, -16(%rbp)
	movq	%rcx, -8(%rbp)
Ltmp347:
	.loc	33 859 22 is_stmt 0
	movq	%rdx, 8(%rax)
	movq	%rcx, 16(%rax)
	movq	$0, (%rax)
Ltmp348:
	.loc	33 859 26
	jmp	LBB60_3
LBB60_2:
	.loc	33 0 26
	movq	-80(%rbp), %rdi
Ltmp349:
	.loc	33 860 27 is_stmt 1
	movb	$0, -33(%rbp)
	callq	__ZN5alloc7raw_vec11finish_grow28_$u7b$$u7b$closure$u7d$$u7d$17h7855b969d328f204E
	movq	%rax, %rcx
	movq	-72(%rbp), %rax
	.loc	33 860 23 is_stmt 0
	movq	%rcx, 8(%rax)
	movq	%rdx, 16(%rax)
	movq	$1, (%rax)
Ltmp350:
LBB60_3:
	.loc	33 862 5 is_stmt 1
	testb	$1, -33(%rbp)
	jne	LBB60_5
LBB60_4:
	.loc	33 0 5 is_stmt 0
	movq	-64(%rbp), %rax
	.loc	33 862 6
	addq	$80, %rsp
	popq	%rbp
	retq
LBB60_5:
	.loc	33 862 5
	jmp	LBB60_4
Ltmp351:
Lfunc_end60:
	.cfi_endproc

	.globl	__ZN4core6result19Result$LT$T$C$E$GT$7map_err17hd958e21a94bb1115E
	.p2align	4, 0x90
__ZN4core6result19Result$LT$T$C$E$GT$7map_err17hd958e21a94bb1115E:
Lfunc_begin61:
	.loc	33 857 0 is_stmt 1
	.cfi_startproc
	pushq	%rbp
	.cfi_def_cfa_offset 16
	.cfi_offset %rbp, -16
	movq	%rsp, %rbp
	.cfi_def_cfa_register %rbp
	subq	$80, %rsp
	movq	%rdi, -72(%rbp)
	movq	%rdi, -64(%rbp)
	movq	%rsi, -56(%rbp)
	movq	%rdx, -48(%rbp)
Ltmp352:
	.loc	33 858 15 prologue_end
	movb	$1, -33(%rbp)
	xorl	%eax, %eax
	movl	$1, %ecx
	cmpq	$0, -48(%rbp)
	cmoveq	%rcx, %rax
	.loc	33 858 9 is_stmt 0
	cmpq	$0, %rax
	jne	LBB61_2
	.loc	33 0 9
	movq	-72(%rbp), %rax
	.loc	33 859 16 is_stmt 1
	movq	-56(%rbp), %rdx
	movq	-48(%rbp), %rcx
	movq	%rdx, -16(%rbp)
	movq	%rcx, -8(%rbp)
Ltmp353:
	.loc	33 859 22 is_stmt 0
	movq	%rdx, 8(%rax)
	movq	%rcx, 16(%rax)
	movq	$0, (%rax)
Ltmp354:
	.loc	33 859 26
	jmp	LBB61_3
LBB61_2:
Ltmp355:
	.loc	33 860 27 is_stmt 1
	movb	$0, -33(%rbp)
	callq	__ZN5alloc7raw_vec11finish_grow28_$u7b$$u7b$closure$u7d$$u7d$17h09fae4fd81ddce8fE
	movq	%rax, %rcx
	movq	-72(%rbp), %rax
	.loc	33 860 23 is_stmt 0
	movq	%rcx, 8(%rax)
	movq	%rdx, 16(%rax)
	movq	$1, (%rax)
Ltmp356:
LBB61_3:
	.loc	33 862 5 is_stmt 1
	testb	$1, -33(%rbp)
	jne	LBB61_5
LBB61_4:
	.loc	33 0 5 is_stmt 0
	movq	-64(%rbp), %rax
	.loc	33 862 6
	addq	$80, %rsp
	popq	%rbp
	retq
LBB61_5:
	.loc	33 862 5
	jmp	LBB61_4
Ltmp357:
Lfunc_end61:
	.cfi_endproc

	.globl	__ZN4core6result19Result$LT$T$C$E$GT$7map_err17hf772a84ed61c1293E
	.p2align	4, 0x90
__ZN4core6result19Result$LT$T$C$E$GT$7map_err17hf772a84ed61c1293E:
Lfunc_begin62:
	.loc	33 857 0 is_stmt 1
	.cfi_startproc
	pushq	%rbp
	.cfi_def_cfa_offset 16
	.cfi_offset %rbp, -16
	movq	%rsp, %rbp
	.cfi_def_cfa_register %rbp
	subq	$96, %rsp
	movq	%rdi, -88(%rbp)
	movq	%rsi, -80(%rbp)
Ltmp358:
	.loc	33 858 15 prologue_end
	movb	$1, -33(%rbp)
	movabsq	$-9223372036854775807, %rdx
	movl	$1, %eax
	xorl	%ecx, %ecx
	cmpq	%rdx, -80(%rbp)
	cmoveq	%rcx, %rax
	.loc	33 858 9 is_stmt 0
	cmpq	$0, %rax
	jne	LBB62_2
Ltmp359:
	.loc	33 859 22 is_stmt 1
	movabsq	$-9223372036854775807, %rax
	movq	%rax, -64(%rbp)
Ltmp360:
	.loc	33 859 26 is_stmt 0
	jmp	LBB62_3
LBB62_2:
	.loc	33 860 17 is_stmt 1
	movq	-88(%rbp), %rcx
	movq	-80(%rbp), %rax
	movq	%rcx, -16(%rbp)
	movq	%rax, -8(%rbp)
Ltmp361:
	.loc	33 860 27 is_stmt 0
	movb	$0, -33(%rbp)
	movq	%rcx, -56(%rbp)
	movq	%rax, -48(%rbp)
	movq	-56(%rbp), %rdi
	movq	-48(%rbp), %rsi
	callq	__ZN5alloc7raw_vec14handle_reserve28_$u7b$$u7b$closure$u7d$$u7d$17h3b230b30fba10ec6E
	.loc	33 860 23
	movq	%rax, -72(%rbp)
	movq	%rdx, -64(%rbp)
Ltmp362:
LBB62_3:
	.loc	33 862 5 is_stmt 1
	testb	$1, -33(%rbp)
	jne	LBB62_5
LBB62_4:
	.loc	33 862 6 is_stmt 0
	movq	-72(%rbp), %rax
	movq	-64(%rbp), %rdx
	addq	$96, %rsp
	popq	%rbp
	retq
LBB62_5:
	.loc	33 862 5
	jmp	LBB62_4
Ltmp363:
Lfunc_end62:
	.cfi_endproc

	.globl	__ZN50_$LT$T$u20$as$u20$core..convert..Into$LT$U$GT$$GT$4into17h9ea86c1262b7108aE
	.p2align	4, 0x90
__ZN50_$LT$T$u20$as$u20$core..convert..Into$LT$U$GT$$GT$4into17h9ea86c1262b7108aE:
Lfunc_begin63:
	.file	34 "/rustc/2c8cc343237b8f7d5a3c3703e3a87f2eb2c54a74/library/core/src/convert" "mod.rs"
	.loc	34 725 0 is_stmt 1
	.cfi_startproc
	pushq	%rbp
	.cfi_def_cfa_offset 16
	.cfi_offset %rbp, -16
	movq	%rsp, %rbp
	.cfi_def_cfa_register %rbp
	subq	$16, %rsp
	movq	%rdi, -16(%rbp)
	movq	%rsi, -8(%rbp)
Ltmp364:
	.loc	34 726 9 prologue_end
	callq	__ZN122_$LT$alloc..collections..TryReserveError$u20$as$u20$core..convert..From$LT$alloc..collections..TryReserveErrorKind$GT$$GT$4from17hc4deb8e3a860abeeE
	.loc	34 727 6
	addq	$16, %rsp
	popq	%rbp
	retq
Ltmp365:
Lfunc_end63:
	.cfi_endproc

	.globl	__ZN50_$LT$T$u20$as$u20$core..convert..Into$LT$U$GT$$GT$4into17hd00a1c87b5c38d1bE
	.p2align	4, 0x90
__ZN50_$LT$T$u20$as$u20$core..convert..Into$LT$U$GT$$GT$4into17hd00a1c87b5c38d1bE:
Lfunc_begin64:
	.loc	34 725 0
	.cfi_startproc
	pushq	%rbp
	.cfi_def_cfa_offset 16
	.cfi_offset %rbp, -16
	movq	%rsp, %rbp
	.cfi_def_cfa_register %rbp
	subq	$16, %rsp
	movl	%edi, -4(%rbp)
Ltmp366:
	.loc	34 726 9 prologue_end
	callq	__ZN4core4char7convert65_$LT$impl$u20$core..convert..From$LT$char$GT$$u20$for$u20$u32$GT$4from17h68171f4eb77ff11eE
	.loc	34 727 6
	addq	$16, %rsp
	popq	%rbp
	retq
Ltmp367:
Lfunc_end64:
	.cfi_endproc

	.globl	__ZN50_$LT$T$u20$as$u20$core..convert..Into$LT$U$GT$$GT$4into17hf9fbbdacc5249521E
	.p2align	4, 0x90
__ZN50_$LT$T$u20$as$u20$core..convert..Into$LT$U$GT$$GT$4into17hf9fbbdacc5249521E:
Lfunc_begin65:
	.loc	34 725 0
	.cfi_startproc
	pushq	%rbp
	.cfi_def_cfa_offset 16
	.cfi_offset %rbp, -16
	movq	%rsp, %rbp
	.cfi_def_cfa_register %rbp
	subq	$16, %rsp
	movq	%rdi, -8(%rbp)
Ltmp368:
	.loc	34 726 9 prologue_end
	callq	__ZN119_$LT$core..ptr..non_null..NonNull$LT$T$GT$$u20$as$u20$core..convert..From$LT$core..ptr..unique..Unique$LT$T$GT$$GT$$GT$4from17h6caa7995582957c7E
	.loc	34 727 6
	addq	$16, %rsp
	popq	%rbp
	retq
Ltmp369:
Lfunc_end65:
	.cfi_endproc

	.globl	__ZN5alloc3vec16Vec$LT$T$C$A$GT$15append_elements17h16a187f3d057cfc9E
	.p2align	4, 0x90
__ZN5alloc3vec16Vec$LT$T$C$A$GT$15append_elements17h16a187f3d057cfc9E:
Lfunc_begin66:
	.file	35 "/rustc/2c8cc343237b8f7d5a3c3703e3a87f2eb2c54a74/library/alloc/src/vec" "mod.rs"
	.loc	35 1950 0
	.cfi_startproc
	pushq	%rbp
	.cfi_def_cfa_offset 16
	.cfi_offset %rbp, -16
	movq	%rsp, %rbp
	.cfi_def_cfa_register %rbp
	subq	$224, %rsp
	movq	%rdx, -224(%rbp)
	movq	%rsi, %rax
	movq	-224(%rbp), %rsi
	movq	%rdi, -200(%rbp)
	movq	%rax, -216(%rbp)
	movq	%rsi, -208(%rbp)
	movq	%rdi, -184(%rbp)
	movq	%rax, -176(%rbp)
	movq	%rsi, -168(%rbp)
Ltmp370:
	.loc	35 1951 30 prologue_end
	movq	%rsi, -160(%rbp)
Ltmp371:
	.loc	35 1952 9
	callq	__ZN5alloc3vec16Vec$LT$T$C$A$GT$7reserve17h9a3a43932b9a5075E
	movq	-216(%rbp), %rsi
	movq	-208(%rbp), %rdx
	movq	-200(%rbp), %rdi
	.loc	35 1953 19
	movq	%rdi, -152(%rbp)
Ltmp372:
	.loc	35 2062 9
	movq	16(%rdi), %rcx
	movq	%rcx, -144(%rbp)
Ltmp373:
	.loc	35 1954 43
	movq	%rsi, -136(%rbp)
	.loc	35 1954 62 is_stmt 0
	movq	%rdi, -128(%rbp)
Ltmp374:
	.loc	35 1280 19 is_stmt 1
	movq	%rdi, -120(%rbp)
Ltmp375:
	.file	36 "/rustc/2c8cc343237b8f7d5a3c3703e3a87f2eb2c54a74/library/alloc/src" "raw_vec.rs"
	.loc	36 224 9
	movq	8(%rdi), %rax
	movq	%rax, -112(%rbp)
Ltmp376:
	.loc	7 104 9
	movq	%rax, -104(%rbp)
Ltmp377:
	.loc	6 326 9
	movq	%rax, -96(%rbp)
Ltmp378:
	.loc	35 1282 21
	movq	%rax, -88(%rbp)
Ltmp379:
	.loc	5 52 36
	movq	%rax, -192(%rbp)
	.loc	5 52 18 is_stmt 0
	movq	-192(%rbp), %rdi
	movq	%rdi, -80(%rbp)
Ltmp380:
	.loc	5 38 13 is_stmt 1
	movq	%rdi, -72(%rbp)
Ltmp381:
	.loc	5 215 33
	movq	%rdi, -64(%rbp)
	.loc	5 215 18 is_stmt 0
	movq	%rdi, -56(%rbp)
Ltmp382:
	.loc	35 1954 84 is_stmt 1
	movq	%rcx, -48(%rbp)
Ltmp383:
	.loc	5 1034 18
	movq	%rax, -40(%rbp)
	.loc	5 1034 30 is_stmt 0
	movq	%rcx, -32(%rbp)
Ltmp384:
	.loc	5 487 18 is_stmt 1
	addq	%rcx, %rax
	movq	%rax, -24(%rbp)
	movq	-24(%rbp), %rdi
	movq	%rdi, -16(%rbp)
Ltmp385:
	.loc	35 1954 90
	movq	%rdx, -8(%rbp)
Ltmp386:
	.file	37 "/rustc/2c8cc343237b8f7d5a3c3703e3a87f2eb2c54a74/library/core/src" "intrinsics.rs"
	.loc	37 2372 9
	shlq	$0, %rdx
	callq	_memcpy
	movq	-208(%rbp), %rdx
	movq	-200(%rbp), %rdi
Ltmp387:
	.loc	35 1955 9
	addq	16(%rdi), %rdx
	movq	%rdx, 16(%rdi)
Ltmp388:
	.loc	35 1956 6
	addq	$224, %rsp
	popq	%rbp
	retq
Ltmp389:
Lfunc_end66:
	.cfi_endproc

	.globl	__ZN5alloc3vec16Vec$LT$T$C$A$GT$17extend_from_slice17h0e2be487dfebe7a0E
	.p2align	4, 0x90
__ZN5alloc3vec16Vec$LT$T$C$A$GT$17extend_from_slice17h0e2be487dfebe7a0E:
Lfunc_begin67:
	.loc	35 2397 0
	.cfi_startproc
	pushq	%rbp
	.cfi_def_cfa_offset 16
	.cfi_offset %rbp, -16
	movq	%rsp, %rbp
	.cfi_def_cfa_register %rbp
	subq	$64, %rsp
	movq	%rdx, -64(%rbp)
	movq	%rsi, %rax
	movq	-64(%rbp), %rsi
	movq	%rax, -56(%rbp)
	movq	%rdi, %rax
	movq	-56(%rbp), %rdi
	movq	%rax, -48(%rbp)
	movq	%rax, -40(%rbp)
	movq	%rdi, -32(%rbp)
	movq	%rsi, -24(%rbp)
Ltmp390:
	.loc	35 2398 26 prologue_end
	movq	%rdi, -16(%rbp)
	movq	%rsi, -8(%rbp)
Ltmp391:
	.loc	22 742 9
	callq	__ZN4core5slice4iter13Iter$LT$T$GT$3new17h04fe6342c99622a9E
	movq	-48(%rbp), %rdi
	movq	%rax, %rsi
Ltmp392:
	.loc	35 2398 9
	callq	__ZN132_$LT$alloc..vec..Vec$LT$T$C$A$GT$$u20$as$u20$alloc..vec..spec_extend..SpecExtend$LT$$RF$T$C$core..slice..iter..Iter$LT$T$GT$$GT$$GT$11spec_extend17h3e4a49f6f59f7211E
	.loc	35 2399 6
	addq	$64, %rsp
	popq	%rbp
	retq
Ltmp393:
Lfunc_end67:
	.cfi_endproc

	.globl	__ZN5alloc3vec16Vec$LT$T$C$A$GT$4push17h65f80cc263ceeaeaE
	.p2align	4, 0x90
__ZN5alloc3vec16Vec$LT$T$C$A$GT$4push17h65f80cc263ceeaeaE:
Lfunc_begin68:
	.loc	35 1836 0
	.cfi_startproc
	.cfi_personality 155, _rust_eh_personality
	.cfi_lsda 16, Lexception6
	pushq	%rbp
	.cfi_def_cfa_offset 16
	.cfi_offset %rbp, -16
	movq	%rsp, %rbp
	.cfi_def_cfa_register %rbp
	subq	$240, %rsp
	movq	%rdi, -216(%rbp)
	movb	%sil, %al
	movb	%al, -201(%rbp)
	movq	%rdi, -168(%rbp)
	movb	%al, -153(%rbp)
Ltmp397:
	.loc	35 1839 12 prologue_end
	movq	16(%rdi), %rax
	movq	%rax, -200(%rbp)
	.loc	35 1839 24 is_stmt 0
	movq	%rdi, -152(%rbp)
Ltmp398:
	.loc	36 232 12 is_stmt 1
	xorl	%eax, %eax
	testb	$1, %al
	jne	LBB68_2
	.loc	36 0 12 is_stmt 0
	movq	-216(%rbp), %rax
	.loc	36 232 44
	movq	(%rax), %rax
	movq	%rax, -192(%rbp)
	.loc	36 232 9
	jmp	LBB68_3
LBB68_2:
	.loc	36 232 24
	movq	$-1, -192(%rbp)
Ltmp399:
LBB68_3:
	.loc	36 0 24
	movq	-200(%rbp), %rax
	.loc	35 1839 12 is_stmt 1
	cmpq	-192(%rbp), %rax
	je	LBB68_5
LBB68_4:
	.loc	35 0 12 is_stmt 0
	movq	-216(%rbp), %rax
	.loc	35 1843 23 is_stmt 1
	movq	%rax, -128(%rbp)
Ltmp400:
	.loc	35 1280 19
	movq	%rax, -120(%rbp)
Ltmp401:
	.loc	36 224 9
	movq	8(%rax), %rax
	movq	%rax, -224(%rbp)
	movq	%rax, -112(%rbp)
Ltmp402:
	.loc	7 104 9
	movq	%rax, -104(%rbp)
Ltmp403:
	.loc	6 326 9
	movq	%rax, -96(%rbp)
Ltmp404:
	.loc	35 1282 21
	movq	%rax, -88(%rbp)
Ltmp405:
	.loc	5 52 36
	movq	%rax, -176(%rbp)
	.loc	5 52 18 is_stmt 0
	movq	-176(%rbp), %rax
	movq	%rax, -80(%rbp)
Ltmp406:
	.loc	5 38 13 is_stmt 1
	movq	%rax, -72(%rbp)
Ltmp407:
	.loc	5 215 33
	movq	%rax, -64(%rbp)
	.loc	5 215 18 is_stmt 0
	movq	%rax, -56(%rbp)
	movq	-56(%rbp), %rax
	jmp	LBB68_9
Ltmp408:
LBB68_5:
	.loc	5 0 18
	movq	-216(%rbp), %rdi
	.loc	35 1840 39 is_stmt 1
	movq	16(%rdi), %rsi
Ltmp394:
	.loc	35 1840 13 is_stmt 0
	callq	__ZN5alloc7raw_vec19RawVec$LT$T$C$A$GT$16reserve_for_push17h23c9e02fb4f9938dE
Ltmp395:
	jmp	LBB68_8
LBB68_6:
	.loc	35 1847 5 is_stmt 1
	movb	$1, %al
	testb	$1, %al
	jne	LBB68_12
	jmp	LBB68_11
LBB68_7:
Ltmp396:
	.loc	35 0 5 is_stmt 0
	movq	%rax, %rcx
	movl	%edx, %eax
	movq	%rcx, -144(%rbp)
	movl	%eax, -136(%rbp)
	jmp	LBB68_6
LBB68_8:
	.loc	35 1839 9 is_stmt 1
	jmp	LBB68_4
LBB68_9:
	.loc	35 0 9 is_stmt 0
	movq	-224(%rbp), %rax
	movq	-216(%rbp), %rcx
	.loc	35 1843 45 is_stmt 1
	movq	16(%rcx), %rcx
	movq	%rcx, -48(%rbp)
Ltmp409:
	.loc	5 1034 18
	movq	%rax, -40(%rbp)
	.loc	5 1034 30 is_stmt 0
	movq	%rcx, -32(%rbp)
Ltmp410:
	.loc	5 487 18 is_stmt 1
	addq	%rcx, %rax
	movq	%rax, -24(%rbp)
	movq	-24(%rbp), %rax
	movq	%rax, -232(%rbp)
	.loc	5 0 18 is_stmt 0
	movq	-216(%rbp), %rax
	movq	-232(%rbp), %rcx
	movb	-201(%rbp), %dl
	.loc	5 487 18
	movq	%rcx, -16(%rbp)
Ltmp411:
	.loc	35 1844 24 is_stmt 1
	movq	%rcx, -8(%rbp)
	.loc	35 1844 29 is_stmt 0
	movb	%dl, -177(%rbp)
Ltmp412:
	.loc	3 1354 9 is_stmt 1
	movb	-177(%rbp), %dl
	movb	%dl, (%rcx)
Ltmp413:
	.loc	35 1845 13
	movq	16(%rax), %rcx
	addq	$1, %rcx
	movq	%rcx, 16(%rax)
Ltmp414:
	.loc	35 1847 6
	addq	$240, %rsp
	popq	%rbp
	retq
LBB68_11:
	.loc	35 1836 5
	movq	-144(%rbp), %rdi
	callq	__Unwind_Resume
LBB68_12:
	.loc	35 1847 5
	jmp	LBB68_11
Ltmp415:
Lfunc_end68:
	.cfi_endproc
	.section	__TEXT,__gcc_except_tab
	.p2align	2
GCC_except_table68:
Lexception6:
	.byte	255
	.byte	255
	.byte	1
	.uleb128 Lcst_end6-Lcst_begin6
Lcst_begin6:
	.uleb128 Ltmp394-Lfunc_begin68
	.uleb128 Ltmp395-Ltmp394
	.uleb128 Ltmp396-Lfunc_begin68
	.byte	0
	.uleb128 Ltmp395-Lfunc_begin68
	.uleb128 Lfunc_end68-Ltmp395
	.byte	0
	.byte	0
Lcst_end6:
	.p2align	2

	.section	__TEXT,__text,regular,pure_instructions
	.globl	__ZN5alloc3vec16Vec$LT$T$C$A$GT$7reserve17h9a3a43932b9a5075E
	.p2align	4, 0x90
__ZN5alloc3vec16Vec$LT$T$C$A$GT$7reserve17h9a3a43932b9a5075E:
Lfunc_begin69:
	.loc	35 911 0
	.cfi_startproc
	pushq	%rbp
	.cfi_def_cfa_offset 16
	.cfi_offset %rbp, -16
	movq	%rsp, %rbp
	.cfi_def_cfa_register %rbp
	subq	$16, %rsp
	movq	%rsi, %rdx
	movq	%rdi, -16(%rbp)
	movq	%rdx, -8(%rbp)
Ltmp416:
	.loc	35 912 26 prologue_end
	movq	16(%rdi), %rsi
	.loc	35 912 9 is_stmt 0
	callq	__ZN5alloc7raw_vec19RawVec$LT$T$C$A$GT$7reserve17h333f528d3f89fc25E
	.loc	35 913 6 is_stmt 1
	addq	$16, %rsp
	popq	%rbp
	retq
Ltmp417:
Lfunc_end69:
	.cfi_endproc

	.p2align	4, 0x90
__ZN5alloc5alloc6Global10alloc_impl17h2fa0177c0fd85dfeE:
Lfunc_begin70:
	.file	38 "/rustc/2c8cc343237b8f7d5a3c3703e3a87f2eb2c54a74/library/alloc/src" "alloc.rs"
	.loc	38 172 0
	.cfi_startproc
	pushq	%rbp
	.cfi_def_cfa_offset 16
	.cfi_offset %rbp, -16
	movq	%rsp, %rbp
	.cfi_def_cfa_register %rbp
	subq	$352, %rsp
	movb	%cl, %al
	movb	%al, -345(%rbp)
	movq	%rsi, -336(%rbp)
	movq	%rdx, -328(%rbp)
	movq	%rdi, -208(%rbp)
	andb	$1, %al
	movb	%al, -193(%rbp)
Ltmp418:
	.loc	38 173 15 prologue_end
	leaq	-336(%rbp), %rax
	movq	%rax, -144(%rbp)
Ltmp419:
	.loc	28 129 9
	movq	-336(%rbp), %rax
	movq	%rax, -344(%rbp)
Ltmp420:
	.loc	38 173 9
	cmpq	$0, %rax
	jne	LBB70_2
	.loc	38 174 51
	leaq	-336(%rbp), %rax
	movq	%rax, -48(%rbp)
Ltmp421:
	.loc	28 216 71
	leaq	-336(%rbp), %rax
	movq	%rax, -40(%rbp)
Ltmp422:
	.loc	28 140 9
	movq	-328(%rbp), %rax
	movq	%rax, -32(%rbp)
Ltmp423:
	.loc	29 97 9
	movq	%rax, -232(%rbp)
	movq	-232(%rbp), %rax
	movq	%rax, -24(%rbp)
Ltmp424:
	.loc	3 599 14
	movq	%rax, -16(%rbp)
	movq	-16(%rbp), %rax
	movq	%rax, -8(%rbp)
Ltmp425:
	.loc	6 201 13
	movq	%rax, -304(%rbp)
Ltmp426:
	.loc	38 174 21
	movq	-304(%rbp), %rdi
	xorl	%eax, %eax
	movl	%eax, %esi
	callq	__ZN4core3ptr8non_null26NonNull$LT$$u5b$T$u5d$$GT$20slice_from_raw_parts17h4842d673590b4b12E
	.loc	38 174 18 is_stmt 0
	movq	%rax, -320(%rbp)
	movq	%rdx, -312(%rbp)
	.loc	38 174 72
	jmp	LBB70_15
LBB70_2:
	.loc	38 0 72
	movb	-345(%rbp), %al
	movq	-344(%rbp), %rcx
	.loc	38 176 13 is_stmt 1
	movq	%rcx, -136(%rbp)
Ltmp427:
	.loc	38 177 34
	testb	$1, %al
	jne	LBB70_4
	.loc	38 177 79 is_stmt 0
	movq	-336(%rbp), %rcx
	movq	-328(%rbp), %rax
	movq	%rcx, -272(%rbp)
	movq	%rax, -264(%rbp)
Ltmp428:
	.loc	38 95 27 is_stmt 1
	leaq	-272(%rbp), %rax
	movq	%rax, -104(%rbp)
Ltmp429:
	.loc	28 129 9
	movq	-272(%rbp), %rdi
Ltmp430:
	.loc	38 95 42
	leaq	-272(%rbp), %rax
	movq	%rax, -96(%rbp)
Ltmp431:
	.loc	28 140 9
	movq	-264(%rbp), %rax
	movq	%rax, -88(%rbp)
Ltmp432:
	.loc	29 97 9
	movq	%rax, -216(%rbp)
	movq	-216(%rbp), %rsi
Ltmp433:
	.loc	38 95 14
	callq	___rust_alloc
	movq	%rax, -296(%rbp)
Ltmp434:
	.loc	38 177 31
	jmp	LBB70_5
LBB70_4:
	.loc	38 177 56 is_stmt 0
	movq	-336(%rbp), %rcx
	movq	-328(%rbp), %rax
	movq	%rcx, -288(%rbp)
	movq	%rax, -280(%rbp)
Ltmp435:
	.loc	38 166 34 is_stmt 1
	leaq	-288(%rbp), %rax
	movq	%rax, -128(%rbp)
Ltmp436:
	.loc	28 129 9
	movq	-288(%rbp), %rdi
Ltmp437:
	.loc	38 166 49
	leaq	-288(%rbp), %rax
	movq	%rax, -120(%rbp)
Ltmp438:
	.loc	28 140 9
	movq	-280(%rbp), %rax
	movq	%rax, -112(%rbp)
Ltmp439:
	.loc	29 97 9
	movq	%rax, -224(%rbp)
	movq	-224(%rbp), %rsi
Ltmp440:
	.loc	38 166 14
	callq	___rust_alloc_zeroed
	movq	%rax, -296(%rbp)
Ltmp441:
LBB70_5:
	.loc	38 178 40
	movq	-296(%rbp), %rdi
	.loc	38 178 27 is_stmt 0
	callq	__ZN4core3ptr8non_null16NonNull$LT$T$GT$3new17hc95d9d1a5db075d3E
	movq	%rax, -240(%rbp)
Ltmp442:
	.loc	19 1096 15 is_stmt 1
	movq	-240(%rbp), %rdx
	movl	$1, %eax
	xorl	%ecx, %ecx
	cmpq	$0, %rdx
	cmoveq	%rcx, %rax
	.loc	19 1096 9 is_stmt 0
	cmpq	$0, %rax
	jne	LBB70_7
	.loc	19 1098 21 is_stmt 1
	movq	$0, -248(%rbp)
	.loc	19 1098 28 is_stmt 0
	jmp	LBB70_8
LBB70_7:
	.loc	19 1097 18 is_stmt 1
	movq	-240(%rbp), %rax
	movq	%rax, -80(%rbp)
Ltmp443:
	.loc	19 1097 24 is_stmt 0
	movq	%rax, -248(%rbp)
Ltmp444:
LBB70_8:
	.loc	33 2091 15 is_stmt 1
	movq	-248(%rbp), %rdx
	xorl	%eax, %eax
	movl	$1, %ecx
	cmpq	$0, %rdx
	cmoveq	%rcx, %rax
	.loc	33 2091 9 is_stmt 0
	cmpq	$0, %rax
	jne	LBB70_10
	.loc	33 2092 16 is_stmt 1
	movq	-248(%rbp), %rax
	movq	%rax, -72(%rbp)
Ltmp445:
	.loc	33 2092 22 is_stmt 0
	movq	%rax, -256(%rbp)
Ltmp446:
	.loc	33 2092 45
	jmp	LBB70_11
LBB70_10:
Ltmp447:
	.loc	33 2093 23 is_stmt 1
	movq	$0, -256(%rbp)
Ltmp448:
LBB70_11:
	.loc	38 178 27
	movq	-256(%rbp), %rdx
	xorl	%eax, %eax
	movl	$1, %ecx
	cmpq	$0, %rdx
	cmoveq	%rcx, %rax
	cmpq	$0, %rax
	jne	LBB70_13
	.loc	38 0 27 is_stmt 0
	movq	-344(%rbp), %rsi
	.loc	38 178 27
	movq	-256(%rbp), %rdi
	movq	%rdi, -64(%rbp)
Ltmp449:
	.loc	38 178 27
	movq	%rdi, -56(%rbp)
Ltmp450:
	.loc	38 179 20 is_stmt 1
	callq	__ZN4core3ptr8non_null26NonNull$LT$$u5b$T$u5d$$GT$20slice_from_raw_parts17h4842d673590b4b12E
	.loc	38 179 17 is_stmt 0
	movq	%rax, -320(%rbp)
	movq	%rdx, -312(%rbp)
Ltmp451:
	.loc	38 180 13 is_stmt 1
	jmp	LBB70_15
LBB70_13:
Ltmp452:
	.loc	33 2107 23
	movq	$0, -320(%rbp)
Ltmp453:
LBB70_14:
	.loc	38 182 6
	movq	-320(%rbp), %rax
	movq	-312(%rbp), %rdx
	addq	$352, %rsp
	popq	%rbp
	retq
LBB70_15:
	jmp	LBB70_14
Ltmp454:
Lfunc_end70:
	.cfi_endproc

	.p2align	4, 0x90
__ZN5alloc5alloc6Global9grow_impl17hc49013ba96ab4542E:
Lfunc_begin71:
	.loc	38 186 0
	.cfi_startproc
	pushq	%rbp
	.cfi_def_cfa_offset 16
	.cfi_offset %rbp, -16
	movq	%rsp, %rbp
	.cfi_def_cfa_register %rbp
	subq	$736, %rsp
	movq	%rsi, -688(%rbp)
	movq	%rdi, -680(%rbp)
	movb	16(%rbp), %al
	movb	%al, -665(%rbp)
	movq	%rdx, -656(%rbp)
	movq	%rcx, -648(%rbp)
	movq	%r8, -640(%rbp)
	movq	%r9, -632(%rbp)
	movq	%rdi, -504(%rbp)
	movq	%rsi, -496(%rbp)
	andb	$1, %al
	movb	%al, -481(%rbp)
Ltmp455:
	.loc	38 198 15 prologue_end
	leaq	-656(%rbp), %rax
	movq	%rax, -392(%rbp)
Ltmp456:
	.loc	28 129 9
	movq	-656(%rbp), %rax
	movq	%rax, -664(%rbp)
Ltmp457:
	.loc	38 198 9
	cmpq	$0, %rax
	jne	LBB71_2
	.loc	38 0 9 is_stmt 0
	movq	-680(%rbp), %rdi
	movb	-665(%rbp), %al
	.loc	38 199 34 is_stmt 1
	movq	-640(%rbp), %rsi
	movq	-632(%rbp), %rdx
	.loc	38 199 18 is_stmt 0
	movzbl	%al, %ecx
	andl	$1, %ecx
	callq	__ZN5alloc5alloc6Global10alloc_impl17h2fa0177c0fd85dfeE
	movq	%rdx, -616(%rbp)
	movq	%rax, -624(%rbp)
	.loc	38 199 52
	jmp	LBB71_16
LBB71_2:
	.loc	38 203 25 is_stmt 1
	leaq	-656(%rbp), %rax
	movq	%rax, -384(%rbp)
Ltmp458:
	.loc	28 140 9
	movq	-648(%rbp), %rax
	movq	%rax, -376(%rbp)
Ltmp459:
	.loc	29 97 9
	movq	%rax, -536(%rbp)
	movq	-536(%rbp), %rax
Ltmp460:
	.loc	38 203 47
	leaq	-640(%rbp), %rcx
	movq	%rcx, -368(%rbp)
Ltmp461:
	.loc	28 140 9
	movq	-632(%rbp), %rcx
	movq	%rcx, -360(%rbp)
Ltmp462:
	.loc	29 97 9
	movq	%rcx, -528(%rbp)
	movq	-528(%rbp), %rcx
Ltmp463:
	.loc	38 203 25
	cmpq	%rcx, %rax
	je	LBB71_4
	.loc	38 0 25 is_stmt 0
	movq	-680(%rbp), %rdi
	movb	-665(%rbp), %al
	movq	-664(%rbp), %rcx
	.loc	38 222 13 is_stmt 1
	movq	%rcx, -160(%rbp)
Ltmp464:
	.loc	38 223 47
	movq	-640(%rbp), %rsi
	movq	-632(%rbp), %rdx
	.loc	38 223 31 is_stmt 0
	movzbl	%al, %ecx
	andl	$1, %ecx
	callq	__ZN5alloc5alloc6Global10alloc_impl17h2fa0177c0fd85dfeE
	movq	%rdx, -544(%rbp)
	movq	%rax, -552(%rbp)
Ltmp465:
	.loc	33 2091 15 is_stmt 1
	movq	-552(%rbp), %rdx
	xorl	%eax, %eax
	movl	$1, %ecx
	cmpq	$0, %rdx
	cmoveq	%rcx, %rax
	.loc	33 2091 9 is_stmt 0
	cmpq	$0, %rax
	je	LBB71_17
	jmp	LBB71_18
Ltmp466:
LBB71_4:
	.loc	33 0 9
	movq	-688(%rbp), %rdi
	movq	-664(%rbp), %rax
	.loc	38 203 13 is_stmt 1
	movq	%rax, -352(%rbp)
Ltmp467:
	.loc	38 204 32
	leaq	-640(%rbp), %rax
	movq	%rax, -344(%rbp)
Ltmp468:
	.loc	28 129 9
	movq	-640(%rbp), %rcx
	movq	%rcx, -704(%rbp)
	movq	%rcx, -336(%rbp)
Ltmp469:
	.loc	38 207 48
	leaq	-656(%rbp), %rax
	movq	%rax, -328(%rbp)
	.loc	38 209 39
	movq	%rdi, -320(%rbp)
Ltmp470:
	.loc	6 326 9
	movq	%rdi, -312(%rbp)
Ltmp471:
	.loc	38 209 53
	movq	-656(%rbp), %rdx
	movq	-648(%rbp), %rax
	movq	%rdx, -608(%rbp)
	movq	%rax, -600(%rbp)
	.loc	38 209 65 is_stmt 0
	movq	%rcx, -304(%rbp)
Ltmp472:
	.loc	38 132 34 is_stmt 1
	leaq	-608(%rbp), %rax
	movq	%rax, -296(%rbp)
Ltmp473:
	.loc	28 129 9
	movq	-608(%rbp), %rsi
Ltmp474:
	.loc	38 132 49
	leaq	-608(%rbp), %rax
	movq	%rax, -288(%rbp)
Ltmp475:
	.loc	28 140 9
	movq	-600(%rbp), %rax
	movq	%rax, -280(%rbp)
Ltmp476:
	.loc	29 97 9
	movq	%rax, -520(%rbp)
	movq	-520(%rbp), %rdx
Ltmp477:
	.loc	38 132 14
	callq	___rust_realloc
	movq	%rax, %rdi
	movq	%rdi, -696(%rbp)
	movq	%rdi, -272(%rbp)
Ltmp478:
	.loc	38 210 27
	callq	__ZN4core3ptr8non_null16NonNull$LT$T$GT$3new17hc95d9d1a5db075d3E
	movq	%rax, -576(%rbp)
Ltmp479:
	.loc	19 1096 15
	movq	-576(%rbp), %rdx
	movl	$1, %eax
	xorl	%ecx, %ecx
	cmpq	$0, %rdx
	cmoveq	%rcx, %rax
	.loc	19 1096 9 is_stmt 0
	cmpq	$0, %rax
	jne	LBB71_6
	.loc	19 1098 21 is_stmt 1
	movq	$0, -584(%rbp)
	.loc	19 1098 28 is_stmt 0
	jmp	LBB71_7
LBB71_6:
	.loc	19 1097 18 is_stmt 1
	movq	-576(%rbp), %rax
	movq	%rax, -264(%rbp)
Ltmp480:
	.loc	19 1097 24 is_stmt 0
	movq	%rax, -584(%rbp)
Ltmp481:
LBB71_7:
	.loc	33 2091 15 is_stmt 1
	movq	-584(%rbp), %rdx
	xorl	%eax, %eax
	movl	$1, %ecx
	cmpq	$0, %rdx
	cmoveq	%rcx, %rax
	.loc	33 2091 9 is_stmt 0
	cmpq	$0, %rax
	jne	LBB71_9
	.loc	33 2092 16 is_stmt 1
	movq	-584(%rbp), %rax
	movq	%rax, -256(%rbp)
Ltmp482:
	.loc	33 2092 22 is_stmt 0
	movq	%rax, -592(%rbp)
Ltmp483:
	.loc	33 2092 45
	jmp	LBB71_10
LBB71_9:
Ltmp484:
	.loc	33 2093 23 is_stmt 1
	movq	$0, -592(%rbp)
Ltmp485:
LBB71_10:
	.loc	38 210 27
	movq	-592(%rbp), %rdx
	xorl	%eax, %eax
	movl	$1, %ecx
	cmpq	$0, %rdx
	cmoveq	%rcx, %rax
	cmpq	$0, %rax
	jne	LBB71_12
	.loc	38 0 27 is_stmt 0
	movb	-665(%rbp), %al
	.loc	38 210 27
	movq	-592(%rbp), %rcx
	movq	%rcx, -712(%rbp)
	movq	%rcx, -248(%rbp)
Ltmp486:
	.loc	38 210 27
	movq	%rcx, -240(%rbp)
Ltmp487:
	.loc	38 211 20 is_stmt 1
	testb	$1, %al
	jne	LBB71_15
	jmp	LBB71_14
Ltmp488:
LBB71_12:
	.loc	33 2107 23
	movq	$0, -624(%rbp)
Ltmp489:
LBB71_13:
	.loc	38 229 6
	jmp	LBB71_22
LBB71_14:
	.loc	38 0 6 is_stmt 0
	movq	-704(%rbp), %rsi
	movq	-712(%rbp), %rdi
Ltmp490:
	.loc	38 214 20 is_stmt 1
	callq	__ZN4core3ptr8non_null26NonNull$LT$$u5b$T$u5d$$GT$20slice_from_raw_parts17h4842d673590b4b12E
	.loc	38 214 17 is_stmt 0
	movq	%rax, -624(%rbp)
	movq	%rdx, -616(%rbp)
Ltmp491:
	.loc	38 215 13 is_stmt 1
	jmp	LBB71_16
LBB71_15:
	.loc	38 0 13 is_stmt 0
	movq	-664(%rbp), %rax
	movq	-704(%rbp), %rdx
	movq	-696(%rbp), %rcx
Ltmp492:
	.loc	38 212 21 is_stmt 1
	movq	%rcx, -232(%rbp)
	.loc	38 212 33 is_stmt 0
	movq	%rax, -224(%rbp)
Ltmp493:
	.loc	5 1034 18 is_stmt 1
	movq	%rcx, -216(%rbp)
	.loc	5 1034 30 is_stmt 0
	movq	%rax, -208(%rbp)
Ltmp494:
	.loc	5 487 18 is_stmt 1
	addq	%rax, %rcx
	movq	%rcx, -200(%rbp)
	movq	-200(%rbp), %rdi
	movq	%rdi, -192(%rbp)
Ltmp495:
	.loc	38 212 58
	subq	%rax, %rdx
	movq	%rdx, -184(%rbp)
Ltmp496:
	.loc	5 1488 30
	movq	%rdi, -176(%rbp)
	.loc	5 1488 41 is_stmt 0
	movq	%rdx, -168(%rbp)
Ltmp497:
	.loc	37 2529 9 is_stmt 1
	shlq	$0, %rdx
	xorl	%esi, %esi
	callq	_memset
Ltmp498:
	.loc	38 211 17
	jmp	LBB71_14
Ltmp499:
LBB71_16:
	.loc	38 229 6
	jmp	LBB71_22
LBB71_17:
Ltmp500:
	.loc	33 2092 16
	movq	-552(%rbp), %rcx
	movq	-544(%rbp), %rax
	movq	%rcx, -152(%rbp)
	movq	%rax, -144(%rbp)
Ltmp501:
	.loc	33 2092 22 is_stmt 0
	movq	%rcx, -568(%rbp)
	movq	%rax, -560(%rbp)
Ltmp502:
	.loc	33 2092 45
	jmp	LBB71_19
LBB71_18:
Ltmp503:
	.loc	33 2093 23 is_stmt 1
	movq	$0, -568(%rbp)
Ltmp504:
LBB71_19:
	.loc	38 223 31
	movq	-568(%rbp), %rdx
	xorl	%eax, %eax
	movl	$1, %ecx
	cmpq	$0, %rdx
	cmoveq	%rcx, %rax
	cmpq	$0, %rax
	jne	LBB71_21
	.loc	38 0 31 is_stmt 0
	movq	-688(%rbp), %rsi
	movq	-664(%rbp), %rdx
	.loc	38 223 31
	movq	-568(%rbp), %rax
	movq	%rax, -728(%rbp)
	movq	-560(%rbp), %rcx
	movq	%rcx, -720(%rbp)
	movq	%rax, -136(%rbp)
	movq	%rcx, -128(%rbp)
Ltmp505:
	.loc	38 223 31
	movq	%rax, -120(%rbp)
	movq	%rcx, -112(%rbp)
Ltmp506:
	.loc	38 224 42 is_stmt 1
	movq	%rsi, -104(%rbp)
	movq	%rsi, -96(%rbp)
	.loc	38 224 56 is_stmt 0
	movq	%rax, -88(%rbp)
	movq	%rcx, -80(%rbp)
Ltmp507:
	.loc	6 548 9 is_stmt 1
	movq	%rax, -72(%rbp)
	movq	%rcx, -64(%rbp)
Ltmp508:
	.loc	6 529 41
	movq	%rax, -56(%rbp)
	movq	%rcx, -48(%rbp)
Ltmp509:
	.loc	6 326 9
	movq	%rax, -40(%rbp)
	movq	%rcx, -32(%rbp)
Ltmp510:
	.loc	5 2037 9
	movq	%rax, -24(%rbp)
Ltmp511:
	.loc	6 201 13
	movq	%rax, -512(%rbp)
Ltmp512:
	.loc	6 326 9
	movq	-512(%rbp), %rdi
	movq	%rdi, -16(%rbp)
Ltmp513:
	.loc	38 224 78
	movq	%rdx, -8(%rbp)
Ltmp514:
	.loc	37 2372 9
	shlq	$0, %rdx
	callq	_memcpy
	movq	-680(%rbp), %rdi
	movq	-688(%rbp), %rsi
Ltmp515:
	.loc	38 225 38
	movq	-656(%rbp), %rdx
	movq	-648(%rbp), %rcx
	.loc	38 225 17 is_stmt 0
	callq	__ZN63_$LT$alloc..alloc..Global$u20$as$u20$core..alloc..Allocator$GT$10deallocate17hcd10bb1c13eb7193E
	movq	-728(%rbp), %rcx
	movq	-720(%rbp), %rax
	.loc	38 226 17 is_stmt 1
	movq	%rcx, -624(%rbp)
	movq	%rax, -616(%rbp)
Ltmp516:
	.loc	38 227 13
	jmp	LBB71_16
LBB71_21:
Ltmp517:
	.loc	33 2107 23
	movq	$0, -624(%rbp)
Ltmp518:
	.loc	20 1 1
	jmp	LBB71_13
LBB71_22:
	.loc	38 229 6
	movq	-624(%rbp), %rax
	movq	-616(%rbp), %rdx
	addq	$736, %rsp
	popq	%rbp
	retq
Ltmp519:
Lfunc_end71:
	.cfi_endproc

	.p2align	4, 0x90
__ZN5alloc6string6String4push17hf9d05c0205d5c54dE:
Lfunc_begin72:
	.file	39 "/rustc/2c8cc343237b8f7d5a3c3703e3a87f2eb2c54a74/library/alloc/src" "string.rs"
	.loc	39 1223 0
	.cfi_startproc
	pushq	%rbp
	.cfi_def_cfa_offset 16
	.cfi_offset %rbp, -16
	movq	%rsp, %rbp
	.cfi_def_cfa_register %rbp
	subq	$112, %rsp
	movl	%esi, -108(%rbp)
	movq	%rdi, %rax
	movl	-108(%rbp), %edi
	movq	%rax, -104(%rbp)
	movl	%edi, -96(%rbp)
	movq	%rax, -88(%rbp)
	movl	%edi, -76(%rbp)
Ltmp520:
	.loc	39 1224 15 prologue_end
	movl	%edi, -72(%rbp)
Ltmp521:
	.loc	25 594 9
	callq	__ZN4core4char7methods8len_utf817h0f45c384cde86807E
Ltmp522:
	.loc	39 1224 9
	cmpq	$1, %rax
	jne	LBB72_2
	.loc	39 0 9 is_stmt 0
	movq	-104(%rbp), %rdi
	movl	-96(%rbp), %eax
	.loc	39 1225 18 is_stmt 1
	movzbl	%al, %esi
	callq	__ZN5alloc3vec16Vec$LT$T$C$A$GT$4push17h65f80cc263ceeaeaE
	.loc	39 1225 40 is_stmt 0
	jmp	LBB72_3
LBB72_2:
	.loc	39 0 40
	movl	-96(%rbp), %eax
	.loc	39 1226 45 is_stmt 1
	movl	%eax, -68(%rbp)
	.loc	39 1226 65 is_stmt 0
	leaq	-92(%rbp), %rdi
	xorl	%esi, %esi
	movl	$4, %edx
	callq	_memset
	movl	-96(%rbp), %edi
	.loc	39 1226 60
	leaq	-92(%rbp), %rax
	movq	%rax, -64(%rbp)
	movq	$4, -56(%rbp)
Ltmp523:
	.loc	25 663 42 is_stmt 1
	leaq	-92(%rbp), %rsi
	movl	$4, %edx
	callq	__ZN4core4char7methods15encode_utf8_raw17ha1e7da886d087148E
	movq	-104(%rbp), %rdi
	movq	%rax, -48(%rbp)
	movq	%rdx, -40(%rbp)
Ltmp524:
	.loc	39 1226 45
	movq	%rax, -32(%rbp)
	movq	%rdx, -24(%rbp)
Ltmp525:
	.loc	21 327 18
	movq	%rax, -16(%rbp)
	movq	%rdx, -8(%rbp)
	movq	-16(%rbp), %rsi
	movq	-8(%rbp), %rdx
Ltmp526:
	.loc	39 1226 18
	callq	__ZN5alloc3vec16Vec$LT$T$C$A$GT$17extend_from_slice17h0e2be487dfebe7a0E
LBB72_3:
	.loc	39 1228 6
	addq	$112, %rsp
	popq	%rbp
	retq
Ltmp527:
Lfunc_end72:
	.cfi_endproc

	.globl	__ZN5alloc7raw_vec11finish_grow17he64684d24abda18eE
	.p2align	4, 0x90
__ZN5alloc7raw_vec11finish_grow17he64684d24abda18eE:
Lfunc_begin73:
	.loc	36 448 0
	.cfi_startproc
	pushq	%rbp
	.cfi_def_cfa_offset 16
	.cfi_offset %rbp, -16
	movq	%rsp, %rbp
	.cfi_def_cfa_register %rbp
	subq	$512, %rsp
	movq	%r8, -504(%rbp)
	movq	%rcx, -496(%rbp)
Ltmp528:
	movq	%rdi, -488(%rbp)
	movq	%rdi, -480(%rbp)
	movq	%rsi, -240(%rbp)
	movq	%rdx, -232(%rbp)
Ltmp529:
	movq	%r8, -224(%rbp)
Ltmp530:
	.loc	36 457 22 prologue_end
	leaq	-432(%rbp), %rdi
	callq	__ZN4core6result19Result$LT$T$C$E$GT$7map_err17hd958e21a94bb1115E
Ltmp531:
	.loc	33 2091 9
	cmpq	$0, -432(%rbp)
Ltmp532:
	jne	LBB73_2
Ltmp533:
	.loc	33 2092 16
	movq	-424(%rbp), %rcx
	movq	-416(%rbp), %rax
	movq	%rcx, -184(%rbp)
	movq	%rax, -176(%rbp)
Ltmp534:
	.loc	33 2092 22 is_stmt 0
	movq	%rcx, -448(%rbp)
	movq	%rax, -440(%rbp)
	movq	$0, -456(%rbp)
Ltmp535:
	.loc	33 2092 45
	jmp	LBB73_3
Ltmp536:
LBB73_2:
	.loc	33 2093 17 is_stmt 1
	movq	-424(%rbp), %rcx
	movq	-416(%rbp), %rax
	movq	%rcx, -200(%rbp)
	movq	%rax, -192(%rbp)
Ltmp537:
	.loc	33 2093 42 is_stmt 0
	movq	%rcx, -304(%rbp)
	movq	%rax, -296(%rbp)
	.loc	33 2093 23
	movq	-304(%rbp), %rcx
	movq	-296(%rbp), %rax
	movq	%rcx, -448(%rbp)
	movq	%rax, -440(%rbp)
	movq	$1, -456(%rbp)
Ltmp538:
LBB73_3:
	.loc	36 457 22 is_stmt 1
	cmpq	$0, -456(%rbp)
	jne	LBB73_5
Ltmp539:
	movq	-448(%rbp), %rcx
	movq	-440(%rbp), %rax
	movq	%rcx, -120(%rbp)
	movq	%rax, -112(%rbp)
Ltmp540:
	.loc	36 457 22 is_stmt 0
	movq	%rcx, -472(%rbp)
	movq	%rax, -464(%rbp)
Ltmp541:
	.loc	36 509 9 is_stmt 1
	movabsq	$-9223372036854775807, %rax
	movq	%rax, -368(%rbp)
Ltmp542:
	.loc	33 2091 15
	movabsq	$-9223372036854775807, %rdx
	movl	$1, %eax
	xorl	%ecx, %ecx
	cmpq	%rdx, -368(%rbp)
	cmoveq	%rcx, %rax
	.loc	33 2091 9 is_stmt 0
	cmpq	$0, %rax
	je	LBB73_7
	jmp	LBB73_8
Ltmp543:
LBB73_5:
	.loc	33 0 9
	movq	-488(%rbp), %rax
	.loc	36 457 62 is_stmt 1
	movq	-448(%rbp), %rdx
	movq	-440(%rbp), %rcx
	movq	%rdx, -168(%rbp)
	movq	%rcx, -160(%rbp)
Ltmp544:
	.loc	36 457 62 is_stmt 0
	movq	%rdx, -408(%rbp)
	movq	%rcx, -400(%rbp)
Ltmp545:
	.loc	33 2107 17 is_stmt 1
	movq	-408(%rbp), %rdx
	movq	-400(%rbp), %rcx
	movq	%rdx, -152(%rbp)
	movq	%rcx, -144(%rbp)
Ltmp546:
	.loc	33 2107 38 is_stmt 0
	movq	%rdx, -136(%rbp)
	movq	%rcx, -128(%rbp)
Ltmp547:
	.loc	8 117 9 is_stmt 1
	movq	%rdx, -288(%rbp)
	movq	%rcx, -280(%rbp)
Ltmp548:
	.loc	33 2107 23
	movq	-288(%rbp), %rdx
	movq	-280(%rbp), %rcx
	movq	%rdx, 8(%rax)
	movq	%rcx, 16(%rax)
	movq	$1, (%rax)
Ltmp549:
LBB73_6:
	.loc	36 473 2
	jmp	LBB73_12
Ltmp550:
LBB73_7:
	.loc	33 2092 22
	movabsq	$-9223372036854775807, %rax
	movq	%rax, -384(%rbp)
Ltmp551:
	.loc	33 2092 45 is_stmt 0
	jmp	LBB73_9
Ltmp552:
LBB73_8:
	.loc	33 2093 17 is_stmt 1
	movq	-376(%rbp), %rcx
	movq	-368(%rbp), %rax
	movq	%rcx, -104(%rbp)
	movq	%rax, -96(%rbp)
Ltmp553:
	.loc	33 2093 42 is_stmt 0
	movq	%rcx, -272(%rbp)
	movq	%rax, -264(%rbp)
	.loc	33 2093 23
	movq	-272(%rbp), %rcx
	movq	-264(%rbp), %rax
	movq	%rcx, -392(%rbp)
	movq	%rax, -384(%rbp)
Ltmp554:
LBB73_9:
	.loc	36 459 5 is_stmt 1
	movabsq	$-9223372036854775807, %rdx
	movl	$1, %eax
	xorl	%ecx, %ecx
	cmpq	%rdx, -384(%rbp)
	cmoveq	%rcx, %rax
	cmpq	$0, %rax
	jne	LBB73_11
Ltmp555:
	.loc	36 0 5 is_stmt 0
	movq	-496(%rbp), %rdx
Ltmp556:
	.loc	36 461 25 is_stmt 1
	movl	$1, %eax
	xorl	%ecx, %ecx
	cmpq	$0, 16(%rdx)
	cmoveq	%rcx, %rax
	cmpq	$1, %rax
	je	LBB73_13
	jmp	LBB73_14
Ltmp557:
LBB73_11:
	.loc	36 0 25 is_stmt 0
	movq	-488(%rbp), %rax
	.loc	36 459 35 is_stmt 1
	movq	-392(%rbp), %rdx
	movq	-384(%rbp), %rcx
	movq	%rdx, -88(%rbp)
	movq	%rcx, -80(%rbp)
Ltmp558:
	.loc	36 459 35 is_stmt 0
	movq	%rdx, -360(%rbp)
	movq	%rcx, -352(%rbp)
Ltmp559:
	.loc	33 2107 17 is_stmt 1
	movq	-360(%rbp), %rdx
	movq	-352(%rbp), %rcx
	movq	%rdx, -72(%rbp)
	movq	%rcx, -64(%rbp)
Ltmp560:
	.loc	33 2107 38 is_stmt 0
	movq	%rdx, -56(%rbp)
	movq	%rcx, -48(%rbp)
	.loc	33 2107 23
	movq	%rdx, 8(%rax)
	movq	%rcx, 16(%rax)
	movq	$1, (%rax)
Ltmp561:
	.loc	20 1 1 is_stmt 1
	jmp	LBB73_6
Ltmp562:
LBB73_12:
	.loc	20 0 1 is_stmt 0
	movq	-480(%rbp), %rax
	.loc	36 473 2 is_stmt 1
	addq	$512, %rsp
	popq	%rbp
	retq
Ltmp563:
LBB73_13:
	.loc	36 0 2 is_stmt 0
	movq	-504(%rbp), %rdi
	movq	-496(%rbp), %rax
Ltmp564:
	.loc	36 461 31 is_stmt 1
	movq	(%rax), %rsi
	movq	%rsi, -40(%rbp)
	.loc	36 461 36 is_stmt 0
	movq	8(%rax), %rcx
	movq	16(%rax), %rax
	movq	%rcx, -328(%rbp)
	movq	%rax, -320(%rbp)
	leaq	-328(%rbp), %rax
	.loc	36 465 32 is_stmt 1
	movq	%rax, -32(%rbp)
Ltmp565:
	.loc	28 140 9
	movq	-320(%rbp), %rax
	movq	%rax, -24(%rbp)
Ltmp566:
	.loc	29 97 9
	movq	%rax, -256(%rbp)
	leaq	-472(%rbp), %rax
Ltmp567:
	.loc	36 465 54
	movq	%rax, -16(%rbp)
Ltmp568:
	.loc	28 140 9
	movq	-464(%rbp), %rax
	movq	%rax, -8(%rbp)
Ltmp569:
	.loc	29 97 9
	movq	%rax, -248(%rbp)
Ltmp570:
	.loc	36 466 29
	movq	-328(%rbp), %rdx
	movq	-320(%rbp), %rcx
	.loc	36 466 41 is_stmt 0
	movq	-472(%rbp), %r8
	movq	-464(%rbp), %r9
	.loc	36 466 13
	callq	__ZN63_$LT$alloc..alloc..Global$u20$as$u20$core..alloc..Allocator$GT$4grow17h2908379c50c9a1ecE
	movq	%rdx, -336(%rbp)
	movq	%rax, -344(%rbp)
Ltmp571:
	.loc	36 461 18 is_stmt 1
	jmp	LBB73_15
Ltmp572:
LBB73_14:
	.loc	36 0 18 is_stmt 0
	movq	-504(%rbp), %rdi
	.loc	36 469 24 is_stmt 1
	movq	-472(%rbp), %rsi
	movq	-464(%rbp), %rdx
	.loc	36 469 9 is_stmt 0
	callq	__ZN63_$LT$alloc..alloc..Global$u20$as$u20$core..alloc..Allocator$GT$8allocate17ha2fcf747258792b9E
	movq	%rdx, -336(%rbp)
	movq	%rax, -344(%rbp)
Ltmp573:
LBB73_15:
	.loc	36 0 9
	movq	-488(%rbp), %rdi
Ltmp574:
	.loc	36 472 5 is_stmt 1
	movq	-344(%rbp), %rsi
	movq	-336(%rbp), %rdx
	.loc	36 472 20 is_stmt 0
	leaq	-472(%rbp), %rax
	movq	%rax, -312(%rbp)
	.loc	36 472 5
	movq	-312(%rbp), %rcx
	callq	__ZN4core6result19Result$LT$T$C$E$GT$7map_err17hb934554c3756957eE
Ltmp575:
	.loc	36 473 2 is_stmt 1
	jmp	LBB73_12
Ltmp576:
Lfunc_end73:
	.cfi_endproc

	.globl	__ZN5alloc7raw_vec11finish_grow28_$u7b$$u7b$closure$u7d$$u7d$17h09fae4fd81ddce8fE
	.p2align	4, 0x90
__ZN5alloc7raw_vec11finish_grow28_$u7b$$u7b$closure$u7d$$u7d$17h09fae4fd81ddce8fE:
Lfunc_begin74:
	.loc	36 457 0
	.cfi_startproc
	pushq	%rbp
	.cfi_def_cfa_offset 16
	.cfi_offset %rbp, -16
	movq	%rsp, %rbp
	.cfi_def_cfa_register %rbp
	subq	$32, %rsp
Ltmp577:
	.loc	36 457 45 prologue_end
	movq	$0, -24(%rbp)
	.loc	36 457 61 is_stmt 0
	movq	-32(%rbp), %rax
	movq	-24(%rbp), %rdx
	addq	$32, %rsp
	popq	%rbp
	retq
Ltmp578:
Lfunc_end74:
	.cfi_endproc

	.globl	__ZN5alloc7raw_vec11finish_grow28_$u7b$$u7b$closure$u7d$$u7d$17h7855b969d328f204E
	.p2align	4, 0x90
__ZN5alloc7raw_vec11finish_grow28_$u7b$$u7b$closure$u7d$$u7d$17h7855b969d328f204E:
Lfunc_begin75:
	.loc	36 472 0 is_stmt 1
	.cfi_startproc
	pushq	%rbp
	.cfi_def_cfa_offset 16
	.cfi_offset %rbp, -16
	movq	%rsp, %rbp
	.cfi_def_cfa_register %rbp
	subq	$32, %rsp
	movq	%rdi, -32(%rbp)
Ltmp579:
	.loc	36 472 45 prologue_end
	movq	-32(%rbp), %rax
	movq	(%rax), %rcx
	movq	8(%rax), %rax
	.loc	36 472 24 is_stmt 0
	movq	%rcx, -24(%rbp)
	movq	%rax, -16(%rbp)
	movq	-24(%rbp), %rdi
	movq	-16(%rbp), %rsi
	callq	__ZN50_$LT$T$u20$as$u20$core..convert..Into$LT$U$GT$$GT$4into17h9ea86c1262b7108aE
	.loc	36 472 84
	addq	$32, %rsp
	popq	%rbp
	retq
Ltmp580:
Lfunc_end75:
	.cfi_endproc

	.p2align	4, 0x90
__ZN5alloc7raw_vec14handle_reserve17hd853032d435abbb9E:
Lfunc_begin76:
	.loc	36 487 0 is_stmt 1
	.cfi_startproc
	pushq	%rbp
	.cfi_def_cfa_offset 16
	.cfi_offset %rbp, -16
	movq	%rsp, %rbp
	.cfi_def_cfa_register %rbp
	subq	$48, %rsp
	movq	%rdi, -32(%rbp)
	movq	%rsi, -24(%rbp)
Ltmp581:
	.loc	36 488 11 prologue_end
	callq	__ZN4core6result19Result$LT$T$C$E$GT$7map_err17hf772a84ed61c1293E
	movq	%rdx, -40(%rbp)
	movq	%rax, -48(%rbp)
	movabsq	$-9223372036854775807, %rdx
	movl	$1, %eax
	xorl	%ecx, %ecx
	cmpq	%rdx, -40(%rbp)
	cmoveq	%rcx, %rax
	.loc	36 488 5 is_stmt 0
	cmpq	$0, %rax
	jne	LBB76_2
	.loc	36 493 2 is_stmt 1
	addq	$48, %rsp
	popq	%rbp
	retq
LBB76_2:
	.loc	36 488 11
	movl	$1, %eax
	xorl	%ecx, %ecx
	cmpq	$0, -40(%rbp)
	cmoveq	%rcx, %rax
	.loc	36 488 5 is_stmt 0
	cmpq	$0, %rax
	jne	LBB76_4
	.loc	36 489 34 is_stmt 1
	callq	__ZN5alloc7raw_vec17capacity_overflow17h082ee8492f253a0eE
LBB76_4:
	.loc	36 490 26
	movq	-48(%rbp), %rdi
	movq	-40(%rbp), %rsi
	movq	%rdi, -16(%rbp)
	movq	%rsi, -8(%rbp)
Ltmp582:
	.loc	36 490 43 is_stmt 0
	callq	__ZN5alloc5alloc18handle_alloc_error17hb5f6ff255f23ea4dE
Ltmp583:
Lfunc_end76:
	.cfi_endproc

	.globl	__ZN5alloc7raw_vec14handle_reserve28_$u7b$$u7b$closure$u7d$$u7d$17h3b230b30fba10ec6E
	.p2align	4, 0x90
__ZN5alloc7raw_vec14handle_reserve28_$u7b$$u7b$closure$u7d$$u7d$17h3b230b30fba10ec6E:
Lfunc_begin77:
	.loc	36 488 0 is_stmt 1
	.cfi_startproc
	pushq	%rbp
	.cfi_def_cfa_offset 16
	.cfi_offset %rbp, -16
	movq	%rsp, %rbp
	.cfi_def_cfa_register %rbp
	subq	$72, %rsp
	movq	%rdi, -72(%rbp)
	movq	%rsi, -64(%rbp)
Ltmp584:
	.loc	36 488 30 prologue_end
	leaq	-72(%rbp), %rax
	movq	%rax, -32(%rbp)
Ltmp585:
	.loc	8 75 9
	leaq	-72(%rbp), %rax
	movq	%rax, -24(%rbp)
Ltmp586:
	.loc	8 80 10
	movl	$1, %eax
	xorl	%ecx, %ecx
	cmpq	$0, -64(%rbp)
	cmoveq	%rcx, %rax
	cmpq	$0, %rax
	jne	LBB77_2
	movq	$0, -48(%rbp)
	jmp	LBB77_3
LBB77_2:
	.loc	8 94 9
	leaq	-72(%rbp), %rax
	movq	%rax, -16(%rbp)
Ltmp587:
	.loc	8 94 9 is_stmt 0
	leaq	-72(%rbp), %rax
	movq	%rax, -8(%rbp)
Ltmp588:
	.loc	28 36 16 is_stmt 1
	movq	-72(%rbp), %rcx
	movq	-64(%rbp), %rax
Ltmp589:
	.loc	8 80 10
	movq	%rcx, -56(%rbp)
	movq	%rax, -48(%rbp)
Ltmp590:
LBB77_3:
	.loc	36 488 38
	movq	-56(%rbp), %rax
	movq	-48(%rbp), %rdx
	addq	$72, %rsp
	popq	%rbp
	retq
Ltmp591:
Lfunc_end77:
	.cfi_endproc

	.globl	__ZN5alloc7raw_vec19RawVec$LT$T$C$A$GT$13needs_to_grow17h7d32fb1a0f58ca31E
	.p2align	4, 0x90
__ZN5alloc7raw_vec19RawVec$LT$T$C$A$GT$13needs_to_grow17h7d32fb1a0f58ca31E:
Lfunc_begin78:
	.loc	36 360 0
	.cfi_startproc
	pushq	%rbp
	.cfi_def_cfa_offset 16
	.cfi_offset %rbp, -16
	movq	%rsp, %rbp
	.cfi_def_cfa_register %rbp
	subq	$72, %rsp
	movq	%rdi, -72(%rbp)
	movq	%rsi, -64(%rbp)
	movq	%rdx, -56(%rbp)
	movq	%rdi, -40(%rbp)
	movq	%rsi, -32(%rbp)
	movq	%rdx, -24(%rbp)
Ltmp592:
	.loc	36 361 22 prologue_end
	movq	%rdi, -16(%rbp)
Ltmp593:
	.loc	36 232 12
	xorl	%eax, %eax
	testb	$1, %al
	jne	LBB78_2
	.loc	36 0 12 is_stmt 0
	movq	-72(%rbp), %rax
	.loc	36 232 44
	movq	(%rax), %rax
	movq	%rax, -48(%rbp)
	.loc	36 232 9
	jmp	LBB78_3
LBB78_2:
	.loc	36 232 24
	movq	$-1, -48(%rbp)
Ltmp594:
LBB78_3:
	.loc	36 0 24
	movq	-56(%rbp), %rax
	movq	-64(%rbp), %rdx
	.loc	36 361 51 is_stmt 1
	movq	%rdx, -8(%rbp)
Ltmp595:
	.loc	16 1203 38
	movq	-48(%rbp), %rcx
	.loc	16 1203 13 is_stmt 0
	subq	%rdx, %rcx
Ltmp596:
	.loc	36 361 9 is_stmt 1
	cmpq	%rcx, %rax
	seta	%al
	.loc	36 362 6
	andb	$1, %al
	movzbl	%al, %eax
	addq	$72, %rsp
	popq	%rbp
	retq
Ltmp597:
Lfunc_end78:
	.cfi_endproc

	.globl	__ZN5alloc7raw_vec19RawVec$LT$T$C$A$GT$14current_memory17h71247ec5fe88145eE
	.p2align	4, 0x90
__ZN5alloc7raw_vec19RawVec$LT$T$C$A$GT$14current_memory17h71247ec5fe88145eE:
Lfunc_begin79:
	.loc	36 240 0
	.cfi_startproc
	pushq	%rbp
	.cfi_def_cfa_offset 16
	.cfi_offset %rbp, -16
	movq	%rsp, %rbp
	.cfi_def_cfa_register %rbp
	subq	$176, %rsp
	movq	%rsi, -152(%rbp)
	movq	%rdi, -144(%rbp)
	movq	%rdi, -136(%rbp)
	movq	%rsi, -80(%rbp)
Ltmp598:
	.loc	36 241 12 prologue_end
	xorl	%eax, %eax
	testb	$1, %al
	jne	LBB79_2
	.loc	36 0 12 is_stmt 0
	movq	-152(%rbp), %rax
	.loc	36 241 25
	cmpq	$0, (%rax)
	sete	%al
	.loc	36 241 12
	andb	$1, %al
	movb	%al, -121(%rbp)
	jmp	LBB79_3
LBB79_2:
	movb	$1, -121(%rbp)
LBB79_3:
	testb	$1, -121(%rbp)
	jne	LBB79_5
	.loc	36 0 12
	movq	-152(%rbp), %rax
	.loc	36 247 49 is_stmt 1
	movq	(%rax), %rdx
	movq	%rdx, -72(%rbp)
Ltmp599:
	.loc	13 459 5
	movq	$1, -64(%rbp)
Ltmp600:
	.loc	29 89 18
	movq	$1, -56(%rbp)
	movq	-56(%rbp), %rsi
Ltmp601:
	.loc	28 438 16
	movl	$1, %edi
	callq	__ZN4core5alloc6layout6Layout5array5inner17h77ccc9286c550ec9E
	movq	%rax, %rdi
	movq	%rdx, %rsi
Ltmp602:
	.loc	36 247 30
	leaq	l___unnamed_14(%rip), %rdx
	callq	__ZN4core6result19Result$LT$T$C$E$GT$16unwrap_unchecked17h51133fd6aaf7bed9E
	movq	%rax, %rcx
	movq	-152(%rbp), %rax
	movq	%rcx, -168(%rbp)
	movq	%rdx, -160(%rbp)
	movq	%rcx, -48(%rbp)
	movq	%rdx, -40(%rbp)
Ltmp603:
	.loc	36 248 23
	movq	8(%rax), %rax
	movq	%rax, -32(%rbp)
Ltmp604:
	.loc	7 137 22
	movq	%rax, -24(%rbp)
Ltmp605:
	.loc	6 450 41
	movq	%rax, -16(%rbp)
	movq	%rax, -8(%rbp)
Ltmp606:
	.loc	6 201 13
	movq	%rax, -88(%rbp)
Ltmp607:
	.loc	7 191 18
	movq	-88(%rbp), %rax
	.loc	7 191 9 is_stmt 0
	movq	%rax, -96(%rbp)
Ltmp608:
	.loc	36 248 23 is_stmt 1
	movq	-96(%rbp), %rdi
	callq	__ZN50_$LT$T$u20$as$u20$core..convert..Into$LT$U$GT$$GT$4into17hf9fbbdacc5249521E
	movq	-168(%rbp), %rcx
	movq	-160(%rbp), %rdx
	movq	%rax, %rsi
	movq	-144(%rbp), %rax
	.loc	36 248 22 is_stmt 0
	movq	%rsi, -120(%rbp)
	movq	%rcx, -112(%rbp)
	movq	%rdx, -104(%rbp)
	.loc	36 248 17
	movq	-120(%rbp), %rcx
	movq	%rcx, (%rax)
	movq	-112(%rbp), %rcx
	movq	%rcx, 8(%rax)
	movq	-104(%rbp), %rcx
	movq	%rcx, 16(%rax)
Ltmp609:
	.loc	36 241 9 is_stmt 1
	jmp	LBB79_6
LBB79_5:
	.loc	36 0 9 is_stmt 0
	movq	-144(%rbp), %rax
	.loc	36 242 13 is_stmt 1
	movq	$0, 16(%rax)
LBB79_6:
	.loc	36 0 13 is_stmt 0
	movq	-136(%rbp), %rax
	.loc	36 251 6 is_stmt 1
	addq	$176, %rsp
	popq	%rbp
	retq
Ltmp610:
Lfunc_end79:
	.cfi_endproc

	.globl	__ZN5alloc7raw_vec19RawVec$LT$T$C$A$GT$14grow_amortized17h730a101cd349a5b5E
	.p2align	4, 0x90
__ZN5alloc7raw_vec19RawVec$LT$T$C$A$GT$14grow_amortized17h730a101cd349a5b5E:
Lfunc_begin80:
	.loc	36 379 0
	.cfi_startproc
	pushq	%rbp
	.cfi_def_cfa_offset 16
	.cfi_offset %rbp, -16
	movq	%rsp, %rbp
	.cfi_def_cfa_register %rbp
	subq	$656, %rsp
	movq	%rdi, -624(%rbp)
	movq	%rsi, -616(%rbp)
	movq	%rdx, -608(%rbp)
	movq	%rdi, -352(%rbp)
	movq	%rsi, -344(%rbp)
	movq	%rdx, -336(%rbp)
Ltmp611:
	.loc	36 383 12 prologue_end
	xorl	%eax, %eax
	testb	$1, %al
	jne	LBB80_2
	.loc	36 0 12 is_stmt 0
	movq	-608(%rbp), %rsi
	movq	-616(%rbp), %rdi
	.loc	36 390 28 is_stmt 1
	callq	__ZN4core3num23_$LT$impl$u20$usize$GT$11checked_add17hddb20185b5bff096E
	movq	%rdx, -528(%rbp)
	movq	%rax, -536(%rbp)
	.loc	36 390 62 is_stmt 0
	movq	$0, -512(%rbp)
Ltmp612:
	.loc	19 1096 9 is_stmt 1
	cmpq	$0, -536(%rbp)
	je	LBB80_4
	jmp	LBB80_5
Ltmp613:
LBB80_2:
	.loc	36 386 24
	movq	$0, -576(%rbp)
	movq	-584(%rbp), %rdi
	movq	-576(%rbp), %rsi
	callq	__ZN50_$LT$T$u20$as$u20$core..convert..Into$LT$U$GT$$GT$4into17h9ea86c1262b7108aE
	.loc	36 386 20 is_stmt 0
	movq	%rax, -600(%rbp)
	movq	%rdx, -592(%rbp)
LBB80_3:
	.loc	36 403 6 is_stmt 1
	movq	-600(%rbp), %rax
	movq	-592(%rbp), %rdx
	addq	$656, %rsp
	popq	%rbp
	retq
LBB80_4:
Ltmp614:
	.loc	19 1098 25
	movq	-520(%rbp), %rcx
	movq	-512(%rbp), %rax
	.loc	19 1098 21 is_stmt 0
	movq	%rcx, -552(%rbp)
	movq	%rax, -544(%rbp)
	.loc	19 1098 28
	jmp	LBB80_6
LBB80_5:
	.loc	19 1097 18 is_stmt 1
	movq	-528(%rbp), %rax
	movq	%rax, -328(%rbp)
Ltmp615:
	.loc	19 1097 24 is_stmt 0
	movq	%rax, -552(%rbp)
	movabsq	$-9223372036854775807, %rax
	movq	%rax, -544(%rbp)
Ltmp616:
LBB80_6:
	.loc	33 2091 15 is_stmt 1
	movabsq	$-9223372036854775807, %rdx
	movl	$1, %eax
	xorl	%ecx, %ecx
	cmpq	%rdx, -544(%rbp)
	cmoveq	%rcx, %rax
	.loc	33 2091 9 is_stmt 0
	cmpq	$0, %rax
	jne	LBB80_8
	.loc	33 2092 16 is_stmt 1
	movq	-552(%rbp), %rax
	movq	%rax, -304(%rbp)
Ltmp617:
	.loc	33 2092 22 is_stmt 0
	movq	%rax, -568(%rbp)
	movabsq	$-9223372036854775807, %rax
	movq	%rax, -560(%rbp)
Ltmp618:
	.loc	33 2092 45
	jmp	LBB80_9
LBB80_8:
	.loc	33 2093 17 is_stmt 1
	movq	-552(%rbp), %rcx
	movq	-544(%rbp), %rax
	movq	%rcx, -320(%rbp)
	movq	%rax, -312(%rbp)
Ltmp619:
	.loc	33 2093 42 is_stmt 0
	movq	%rcx, -400(%rbp)
	movq	%rax, -392(%rbp)
	.loc	33 2093 23
	movq	-400(%rbp), %rcx
	movq	-392(%rbp), %rax
	movq	%rcx, -568(%rbp)
	movq	%rax, -560(%rbp)
Ltmp620:
LBB80_9:
	.loc	36 390 28 is_stmt 1
	movabsq	$-9223372036854775807, %rdx
	movl	$1, %eax
	xorl	%ecx, %ecx
	cmpq	%rdx, -560(%rbp)
	cmoveq	%rcx, %rax
	cmpq	$0, %rax
	jne	LBB80_11
	.loc	36 0 28 is_stmt 0
	movq	-624(%rbp), %rax
	.loc	36 390 28
	movq	-568(%rbp), %rsi
	movq	%rsi, -248(%rbp)
Ltmp621:
	.loc	36 390 28
	movq	%rsi, -240(%rbp)
Ltmp622:
	.loc	36 394 28 is_stmt 1
	movq	(%rax), %rdi
	shlq	$1, %rdi
	movq	%rdi, -232(%rbp)
	.loc	36 394 42 is_stmt 0
	movq	%rsi, -224(%rbp)
Ltmp623:
	.loc	11 1276 5 is_stmt 1
	movq	%rdi, -216(%rbp)
	.loc	11 1276 12 is_stmt 0
	movq	%rsi, -208(%rbp)
Ltmp624:
	.loc	11 803 13 is_stmt 1
	callq	__ZN4core3cmp6max_by17h0881f4edee265ef5E
	movq	%rax, %rsi
	movq	%rsi, -200(%rbp)
Ltmp625:
	.loc	36 395 52
	movq	%rsi, -192(%rbp)
	.loc	36 395 19 is_stmt 0
	movq	$8, -184(%rbp)
Ltmp626:
	.loc	11 1276 5 is_stmt 1
	movq	$8, -176(%rbp)
	.loc	11 1276 12 is_stmt 0
	movq	%rsi, -168(%rbp)
Ltmp627:
	.loc	11 803 13 is_stmt 1
	movl	$8, %edi
	callq	__ZN4core3cmp6max_by17h0881f4edee265ef5E
	movq	%rax, %rdx
	movq	%rdx, -648(%rbp)
	movq	%rdx, -160(%rbp)
Ltmp628:
	.loc	36 397 45
	movq	%rdx, -152(%rbp)
Ltmp629:
	.loc	13 459 5
	movq	$1, -144(%rbp)
Ltmp630:
	.loc	29 89 18
	movq	$1, -136(%rbp)
	movq	-136(%rbp), %rsi
Ltmp631:
	.loc	28 438 16
	movl	$1, %edi
	callq	__ZN4core5alloc6layout6Layout5array5inner17h77ccc9286c550ec9E
	movq	-624(%rbp), %rsi
	movq	%rax, -640(%rbp)
	movq	%rdx, -632(%rbp)
	movq	%rax, -128(%rbp)
	movq	%rdx, -120(%rbp)
Ltmp632:
	.loc	36 400 43
	leaq	-440(%rbp), %rdi
	callq	__ZN5alloc7raw_vec19RawVec$LT$T$C$A$GT$14current_memory17h71247ec5fe88145eE
	movq	-640(%rbp), %rsi
	movq	-632(%rbp), %rdx
	movq	-624(%rbp), %r8
	.loc	36 400 19 is_stmt 0
	leaq	-464(%rbp), %rdi
	leaq	-440(%rbp), %rcx
	callq	__ZN5alloc7raw_vec11finish_grow17he64684d24abda18eE
Ltmp633:
	.loc	33 2091 9 is_stmt 1
	cmpq	$0, -464(%rbp)
	je	LBB80_13
	jmp	LBB80_14
Ltmp634:
LBB80_11:
	.loc	36 390 79
	movq	-568(%rbp), %rcx
	movq	-560(%rbp), %rax
	movq	%rcx, -296(%rbp)
	movq	%rax, -288(%rbp)
Ltmp635:
	.loc	36 390 79 is_stmt 0
	movq	%rcx, -504(%rbp)
	movq	%rax, -496(%rbp)
Ltmp636:
	.loc	33 2107 17 is_stmt 1
	movq	-504(%rbp), %rcx
	movq	-496(%rbp), %rax
	movq	%rcx, -280(%rbp)
	movq	%rax, -272(%rbp)
Ltmp637:
	.loc	33 2107 38 is_stmt 0
	movq	%rcx, -264(%rbp)
	movq	%rax, -256(%rbp)
Ltmp638:
	.loc	8 117 9 is_stmt 1
	movq	%rcx, -384(%rbp)
	movq	%rax, -376(%rbp)
Ltmp639:
	.loc	33 2107 23
	movq	-384(%rbp), %rcx
	movq	-376(%rbp), %rax
	movq	%rcx, -600(%rbp)
	movq	%rax, -592(%rbp)
Ltmp640:
LBB80_12:
	.loc	20 1 1
	jmp	LBB80_3
LBB80_13:
Ltmp641:
	.loc	33 2092 16
	movq	-456(%rbp), %rcx
	movq	-448(%rbp), %rax
	movq	%rcx, -96(%rbp)
	movq	%rax, -88(%rbp)
Ltmp642:
	.loc	33 2092 22 is_stmt 0
	movq	%rcx, -480(%rbp)
	movq	%rax, -472(%rbp)
	movq	$0, -488(%rbp)
Ltmp643:
	.loc	33 2092 45
	jmp	LBB80_15
LBB80_14:
	.loc	33 2093 17 is_stmt 1
	movq	-456(%rbp), %rcx
	movq	-448(%rbp), %rax
	movq	%rcx, -112(%rbp)
	movq	%rax, -104(%rbp)
Ltmp644:
	.loc	33 2093 42 is_stmt 0
	movq	%rcx, -368(%rbp)
	movq	%rax, -360(%rbp)
	.loc	33 2093 23
	movq	-368(%rbp), %rcx
	movq	-360(%rbp), %rax
	movq	%rcx, -480(%rbp)
	movq	%rax, -472(%rbp)
	movq	$1, -488(%rbp)
Ltmp645:
LBB80_15:
	.loc	36 400 19 is_stmt 1
	cmpq	$0, -488(%rbp)
	jne	LBB80_17
	.loc	36 0 19 is_stmt 0
	movq	-648(%rbp), %rcx
	movq	-624(%rbp), %rdi
	.loc	36 400 19
	movq	-480(%rbp), %rsi
	movq	-472(%rbp), %rdx
	movq	%rsi, -32(%rbp)
	movq	%rdx, -24(%rbp)
Ltmp646:
	.loc	36 400 19
	movq	%rsi, -16(%rbp)
	movq	%rdx, -8(%rbp)
Ltmp647:
	.loc	36 401 9 is_stmt 1
	callq	__ZN5alloc7raw_vec19RawVec$LT$T$C$A$GT$15set_ptr_and_cap17hde9e0a799f72eb06E
	.loc	36 402 9
	movabsq	$-9223372036854775807, %rax
	movq	%rax, -592(%rbp)
Ltmp648:
	.loc	36 403 6
	jmp	LBB80_3
LBB80_17:
Ltmp649:
	.loc	36 400 82
	movq	-480(%rbp), %rcx
	movq	-472(%rbp), %rax
	movq	%rcx, -80(%rbp)
	movq	%rax, -72(%rbp)
Ltmp650:
	.loc	36 400 82 is_stmt 0
	movq	%rcx, -416(%rbp)
	movq	%rax, -408(%rbp)
Ltmp651:
	.loc	33 2107 17 is_stmt 1
	movq	-416(%rbp), %rcx
	movq	-408(%rbp), %rax
	movq	%rcx, -64(%rbp)
	movq	%rax, -56(%rbp)
Ltmp652:
	.loc	33 2107 38 is_stmt 0
	movq	%rcx, -48(%rbp)
	movq	%rax, -40(%rbp)
	.loc	33 2107 23
	movq	%rcx, -600(%rbp)
	movq	%rax, -592(%rbp)
Ltmp653:
	.loc	20 1 1 is_stmt 1
	jmp	LBB80_12
Ltmp654:
Lfunc_end80:
	.cfi_endproc

	.globl	__ZN5alloc7raw_vec19RawVec$LT$T$C$A$GT$15set_ptr_and_cap17hde9e0a799f72eb06E
	.p2align	4, 0x90
__ZN5alloc7raw_vec19RawVec$LT$T$C$A$GT$15set_ptr_and_cap17hde9e0a799f72eb06E:
Lfunc_begin81:
	.loc	36 364 0
	.cfi_startproc
	pushq	%rbp
	.cfi_def_cfa_offset 16
	.cfi_offset %rbp, -16
	movq	%rsp, %rbp
	.cfi_def_cfa_register %rbp
	subq	$112, %rsp
	movq	%rdi, -88(%rbp)
	movq	%rsi, -80(%rbp)
	movq	%rdx, -72(%rbp)
	movq	%rcx, -64(%rbp)
Ltmp655:
	.loc	36 368 51 prologue_end
	movq	%rsi, -56(%rbp)
	movq	%rdx, -48(%rbp)
Ltmp656:
	.loc	6 450 41
	movq	%rsi, -40(%rbp)
	movq	%rdx, -32(%rbp)
	movq	%rsi, -24(%rbp)
Ltmp657:
	.loc	6 201 13
	movq	%rsi, -104(%rbp)
Ltmp658:
	.loc	6 326 9
	movq	-104(%rbp), %rax
	movq	%rax, -16(%rbp)
Ltmp659:
	.loc	7 87 59
	movq	%rax, -8(%rbp)
Ltmp660:
	.loc	6 201 13
	movq	%rax, -96(%rbp)
Ltmp661:
	.loc	7 87 18
	movq	-96(%rbp), %rax
	movq	%rax, -112(%rbp)
Ltmp662:
	.loc	36 368 9
	movq	-112(%rbp), %rax
	movq	%rax, 8(%rdi)
	.loc	36 369 9
	movq	%rcx, (%rdi)
	.loc	36 370 6
	addq	$112, %rsp
	popq	%rbp
	retq
Ltmp663:
Lfunc_end81:
	.cfi_endproc

	.globl	__ZN5alloc7raw_vec19RawVec$LT$T$C$A$GT$16reserve_for_push17h23c9e02fb4f9938dE
	.p2align	4, 0x90
__ZN5alloc7raw_vec19RawVec$LT$T$C$A$GT$16reserve_for_push17h23c9e02fb4f9938dE:
Lfunc_begin82:
	.loc	36 297 0
	.cfi_startproc
	pushq	%rbp
	.cfi_def_cfa_offset 16
	.cfi_offset %rbp, -16
	movq	%rsp, %rbp
	.cfi_def_cfa_register %rbp
	subq	$16, %rsp
	movq	%rdi, -16(%rbp)
	movq	%rsi, -8(%rbp)
Ltmp664:
	.loc	36 298 24 prologue_end
	movl	$1, %edx
	callq	__ZN5alloc7raw_vec19RawVec$LT$T$C$A$GT$14grow_amortized17h730a101cd349a5b5E
	movq	%rax, %rdi
	movq	%rdx, %rsi
	.loc	36 298 9 is_stmt 0
	callq	__ZN5alloc7raw_vec14handle_reserve17hd853032d435abbb9E
	.loc	36 299 6 is_stmt 1
	addq	$16, %rsp
	popq	%rbp
	retq
Ltmp665:
Lfunc_end82:
	.cfi_endproc

	.globl	__ZN5alloc7raw_vec19RawVec$LT$T$C$A$GT$7reserve17h333f528d3f89fc25E
	.p2align	4, 0x90
__ZN5alloc7raw_vec19RawVec$LT$T$C$A$GT$7reserve17h333f528d3f89fc25E:
Lfunc_begin83:
	.loc	36 274 0
	.cfi_startproc
	pushq	%rbp
	.cfi_def_cfa_offset 16
	.cfi_offset %rbp, -16
	movq	%rsp, %rbp
	.cfi_def_cfa_register %rbp
	subq	$48, %rsp
	movq	%rdi, -48(%rbp)
	movq	%rsi, -40(%rbp)
	movq	%rdx, -32(%rbp)
	movq	%rdi, -24(%rbp)
	movq	%rsi, -16(%rbp)
	movq	%rdx, -8(%rbp)
Ltmp666:
	.loc	36 288 12 prologue_end
	callq	__ZN5alloc7raw_vec19RawVec$LT$T$C$A$GT$13needs_to_grow17h7d32fb1a0f58ca31E
	testb	$1, %al
	jne	LBB83_2
LBB83_1:
	.loc	36 291 6
	addq	$48, %rsp
	popq	%rbp
	retq
LBB83_2:
	.loc	36 0 6 is_stmt 0
	movq	-32(%rbp), %rdx
	movq	-40(%rbp), %rsi
	movq	-48(%rbp), %rdi
	.loc	36 289 13 is_stmt 1
	callq	__ZN5alloc7raw_vec19RawVec$LT$T$C$A$GT$7reserve21do_reserve_and_handle17hea4ee88deb7b34d5E
	.loc	36 288 9
	jmp	LBB83_1
Ltmp667:
Lfunc_end83:
	.cfi_endproc

	.globl	__ZN5alloc7raw_vec19RawVec$LT$T$C$A$GT$7reserve21do_reserve_and_handle17hea4ee88deb7b34d5E
	.p2align	4, 0x90
__ZN5alloc7raw_vec19RawVec$LT$T$C$A$GT$7reserve21do_reserve_and_handle17hea4ee88deb7b34d5E:
Lfunc_begin84:
	.loc	36 280 0
	.cfi_startproc
	pushq	%rbp
	.cfi_def_cfa_offset 16
	.cfi_offset %rbp, -16
	movq	%rsp, %rbp
	.cfi_def_cfa_register %rbp
	subq	$32, %rsp
	movq	%rdi, -24(%rbp)
	movq	%rsi, -16(%rbp)
	movq	%rdx, -8(%rbp)
Ltmp668:
	.loc	36 285 28 prologue_end
	callq	__ZN5alloc7raw_vec19RawVec$LT$T$C$A$GT$14grow_amortized17h730a101cd349a5b5E
	movq	%rax, %rdi
	movq	%rdx, %rsi
	.loc	36 285 13 is_stmt 0
	callq	__ZN5alloc7raw_vec14handle_reserve17hd853032d435abbb9E
	.loc	36 286 10 is_stmt 1
	addq	$32, %rsp
	popq	%rbp
	retq
Ltmp669:
Lfunc_end84:
	.cfi_endproc

	.globl	__ZN63_$LT$I$u20$as$u20$core..iter..traits..collect..IntoIterator$GT$9into_iter17h692fd97ce0109ccdE
	.p2align	4, 0x90
__ZN63_$LT$I$u20$as$u20$core..iter..traits..collect..IntoIterator$GT$9into_iter17h692fd97ce0109ccdE:
Lfunc_begin85:
	.file	40 "/rustc/2c8cc343237b8f7d5a3c3703e3a87f2eb2c54a74/library/core/src/iter/traits" "collect.rs"
	.loc	40 272 0
	.cfi_startproc
	pushq	%rbp
	.cfi_def_cfa_offset 16
	.cfi_offset %rbp, -16
	movq	%rsp, %rbp
	.cfi_def_cfa_register %rbp
	movq	%rdi, %rax
Ltmp670:
	.loc	40 273 9 prologue_end
	movq	(%rsi), %rcx
	movq	%rcx, (%rdi)
	movq	8(%rsi), %rcx
	movq	%rcx, 8(%rdi)
	movq	16(%rsi), %rcx
	movq	%rcx, 16(%rdi)
	movq	24(%rsi), %rcx
	movq	%rcx, 24(%rdi)
	.loc	40 274 6
	popq	%rbp
	retq
Ltmp671:
Lfunc_end85:
	.cfi_endproc

	.p2align	4, 0x90
__ZN63_$LT$alloc..alloc..Global$u20$as$u20$core..alloc..Allocator$GT$10deallocate17hcd10bb1c13eb7193E:
Lfunc_begin86:
	.loc	38 246 0
	.cfi_startproc
	pushq	%rbp
	.cfi_def_cfa_offset 16
	.cfi_offset %rbp, -16
	movq	%rsp, %rbp
	.cfi_def_cfa_register %rbp
	subq	$112, %rsp
	movq	%rsi, -112(%rbp)
	movq	%rdx, -104(%rbp)
	movq	%rcx, -96(%rbp)
	movq	%rdi, -64(%rbp)
	movq	%rsi, -56(%rbp)
Ltmp672:
	.loc	38 247 12 prologue_end
	leaq	-104(%rbp), %rax
	movq	%rax, -48(%rbp)
	cmpq	$0, -104(%rbp)
	jne	LBB86_2
	.loc	38 247 9 is_stmt 0
	jmp	LBB86_3
LBB86_2:
	.loc	38 0 9
	movq	-112(%rbp), %rdi
	.loc	38 250 30 is_stmt 1
	movq	%rdi, -40(%rbp)
Ltmp673:
	.loc	6 326 9
	movq	%rdi, -32(%rbp)
Ltmp674:
	.loc	38 250 44
	movq	-104(%rbp), %rcx
	movq	-96(%rbp), %rax
	movq	%rcx, -88(%rbp)
	movq	%rax, -80(%rbp)
Ltmp675:
	.loc	38 113 34
	leaq	-88(%rbp), %rax
	movq	%rax, -24(%rbp)
Ltmp676:
	.loc	28 129 9
	movq	-88(%rbp), %rsi
Ltmp677:
	.loc	38 113 49
	leaq	-88(%rbp), %rax
	movq	%rax, -16(%rbp)
Ltmp678:
	.loc	28 140 9
	movq	-80(%rbp), %rax
	movq	%rax, -8(%rbp)
Ltmp679:
	.loc	29 97 9
	movq	%rax, -72(%rbp)
	movq	-72(%rbp), %rdx
Ltmp680:
	.loc	38 113 14
	callq	___rust_dealloc
Ltmp681:
LBB86_3:
	.loc	38 252 6
	addq	$112, %rsp
	popq	%rbp
	retq
Ltmp682:
Lfunc_end86:
	.cfi_endproc

	.p2align	4, 0x90
__ZN63_$LT$alloc..alloc..Global$u20$as$u20$core..alloc..Allocator$GT$4grow17h2908379c50c9a1ecE:
Lfunc_begin87:
	.loc	38 255 0
	.cfi_startproc
	pushq	%rbp
	.cfi_def_cfa_offset 16
	.cfi_offset %rbp, -16
	movq	%rsp, %rbp
	.cfi_def_cfa_register %rbp
	subq	$64, %rsp
	movq	%rdi, -48(%rbp)
	movq	%rsi, -40(%rbp)
	movq	%rdx, -32(%rbp)
	movq	%rcx, -24(%rbp)
	movq	%r8, -16(%rbp)
	movq	%r9, -8(%rbp)
Ltmp683:
	.loc	38 262 18 prologue_end
	movq	%rsp, %rax
	movl	$0, (%rax)
	callq	__ZN5alloc5alloc6Global9grow_impl17hc49013ba96ab4542E
	.loc	38 263 6
	addq	$64, %rsp
	popq	%rbp
	retq
Ltmp684:
Lfunc_end87:
	.cfi_endproc

	.p2align	4, 0x90
__ZN63_$LT$alloc..alloc..Global$u20$as$u20$core..alloc..Allocator$GT$8allocate17ha2fcf747258792b9E:
Lfunc_begin88:
	.loc	38 236 0
	.cfi_startproc
	pushq	%rbp
	.cfi_def_cfa_offset 16
	.cfi_offset %rbp, -16
	movq	%rsp, %rbp
	.cfi_def_cfa_register %rbp
	subq	$32, %rsp
	movq	%rdi, -24(%rbp)
	movq	%rsi, -16(%rbp)
	movq	%rdx, -8(%rbp)
	xorl	%ecx, %ecx
Ltmp685:
	.loc	38 237 9 prologue_end
	callq	__ZN5alloc5alloc6Global10alloc_impl17h2fa0177c0fd85dfeE
	.loc	38 238 6
	addq	$32, %rsp
	popq	%rbp
	retq
Ltmp686:
Lfunc_end88:
	.cfi_endproc

	.globl	__ZN70_$LT$alloc..vec..Vec$LT$T$C$A$GT$$u20$as$u20$core..ops..drop..Drop$GT$4drop17hea0bdb07a9fa4b61E
	.p2align	4, 0x90
__ZN70_$LT$alloc..vec..Vec$LT$T$C$A$GT$$u20$as$u20$core..ops..drop..Drop$GT$4drop17hea0bdb07a9fa4b61E:
Lfunc_begin89:
	.loc	35 3054 0
	.cfi_startproc
	pushq	%rbp
	.cfi_def_cfa_offset 16
	.cfi_offset %rbp, -16
	movq	%rsp, %rbp
	.cfi_def_cfa_register %rbp
	subq	$160, %rsp
	movq	%rdi, -120(%rbp)
Ltmp687:
	.loc	35 3059 62 prologue_end
	movq	%rdi, -112(%rbp)
Ltmp688:
	.loc	35 1280 19
	movq	%rdi, -104(%rbp)
Ltmp689:
	.loc	36 224 9
	movq	8(%rdi), %rcx
	movq	%rcx, -96(%rbp)
Ltmp690:
	.loc	7 104 9
	movq	%rcx, -88(%rbp)
Ltmp691:
	.loc	6 326 9
	movq	%rcx, -80(%rbp)
Ltmp692:
	.loc	35 1282 21
	movq	%rcx, -72(%rbp)
Ltmp693:
	.loc	5 52 36
	movq	%rcx, -160(%rbp)
	.loc	5 52 18 is_stmt 0
	movq	-160(%rbp), %rax
	movq	%rax, -64(%rbp)
Ltmp694:
	.loc	5 38 13 is_stmt 1
	movq	%rax, -56(%rbp)
Ltmp695:
	.loc	5 215 33
	movq	%rax, -48(%rbp)
	.loc	5 215 18 is_stmt 0
	movq	%rax, -40(%rbp)
Ltmp696:
	.loc	35 3059 81 is_stmt 1
	movq	16(%rdi), %rax
	movq	%rax, -32(%rbp)
Ltmp697:
	.loc	3 766 24
	movq	%rcx, -24(%rbp)
Ltmp698:
	.loc	5 60 9
	movq	%rcx, -16(%rbp)
Ltmp699:
	.loc	3 766 37
	movq	%rax, -8(%rbp)
Ltmp700:
	.loc	4 135 36
	movq	%rcx, -136(%rbp)
	movq	%rax, -128(%rbp)
	.loc	4 135 14 is_stmt 0
	movq	-136(%rbp), %rcx
	movq	-128(%rbp), %rax
	movq	%rcx, -152(%rbp)
	movq	%rax, -144(%rbp)
Ltmp701:
	.loc	35 3062 6 is_stmt 1
	addq	$160, %rsp
	popq	%rbp
	retq
Ltmp702:
Lfunc_end89:
	.cfi_endproc

	.globl	__ZN77_$LT$alloc..raw_vec..RawVec$LT$T$C$A$GT$$u20$as$u20$core..ops..drop..Drop$GT$4drop17hec82eb95abf87b24E
	.p2align	4, 0x90
__ZN77_$LT$alloc..raw_vec..RawVec$LT$T$C$A$GT$$u20$as$u20$core..ops..drop..Drop$GT$4drop17hec82eb95abf87b24E:
Lfunc_begin90:
	.loc	36 477 0
	.cfi_startproc
	pushq	%rbp
	.cfi_def_cfa_offset 16
	.cfi_offset %rbp, -16
	movq	%rsp, %rbp
	.cfi_def_cfa_register %rbp
	subq	$64, %rsp
	movq	%rdi, %rsi
	movq	%rsi, -64(%rbp)
	movq	%rsi, -32(%rbp)
Ltmp703:
	.loc	36 478 38 prologue_end
	leaq	-56(%rbp), %rdi
	callq	__ZN5alloc7raw_vec19RawVec$LT$T$C$A$GT$14current_memory17h71247ec5fe88145eE
	.loc	36 478 16 is_stmt 0
	movl	$1, %eax
	xorl	%ecx, %ecx
	cmpq	$0, -40(%rbp)
	cmoveq	%rcx, %rax
	cmpq	$1, %rax
	jne	LBB90_2
	.loc	36 0 16
	movq	-64(%rbp), %rdi
	.loc	36 478 22
	movq	-56(%rbp), %rsi
	movq	%rsi, -24(%rbp)
	.loc	36 478 27
	movq	-48(%rbp), %rdx
	movq	-40(%rbp), %rcx
	movq	%rdx, -16(%rbp)
	movq	%rcx, -8(%rbp)
	.loc	36 479 22 is_stmt 1
	callq	__ZN63_$LT$alloc..alloc..Global$u20$as$u20$core..alloc..Allocator$GT$10deallocate17hcd10bb1c13eb7193E
Ltmp704:
LBB90_2:
	.loc	36 481 6
	addq	$64, %rsp
	popq	%rbp
	retq
Ltmp705:
Lfunc_end90:
	.cfi_endproc

	.p2align	4, 0x90
__ZN81_$LT$core..str..iter..Chars$u20$as$u20$core..iter..traits..iterator..Iterator$GT$4next17hb81e22f299310a85E:
Lfunc_begin91:
	.file	41 "/rustc/2c8cc343237b8f7d5a3c3703e3a87f2eb2c54a74/library/core/src/str" "iter.rs"
	.loc	41 41 0
	.cfi_startproc
	pushq	%rbp
	.cfi_def_cfa_offset 16
	.cfi_offset %rbp, -16
	movq	%rsp, %rbp
	.cfi_def_cfa_register %rbp
	subq	$16, %rsp
	movq	%rdi, -8(%rbp)
Ltmp706:
	.loc	41 44 18 prologue_end
	callq	__ZN4core3str11validations15next_code_point17heae4139dc38617c9E
	movl	%eax, %edi
	movl	%edx, %esi
	callq	__ZN4core6option15Option$LT$T$GT$3map17h09036120e8c5e043E
	.loc	41 45 6
	addq	$16, %rsp
	popq	%rbp
	retq
Ltmp707:
Lfunc_end91:
	.cfi_endproc

	.globl	__ZN81_$LT$core..str..iter..Chars$u20$as$u20$core..iter..traits..iterator..Iterator$GT$4next28_$u7b$$u7b$closure$u7d$$u7d$17hd2fe275e4cd363deE
	.p2align	4, 0x90
__ZN81_$LT$core..str..iter..Chars$u20$as$u20$core..iter..traits..iterator..Iterator$GT$4next28_$u7b$$u7b$closure$u7d$$u7d$17hd2fe275e4cd363deE:
Lfunc_begin92:
	.loc	41 44 0
	.cfi_startproc
	pushq	%rbp
	.cfi_def_cfa_offset 16
	.cfi_offset %rbp, -16
	movq	%rsp, %rbp
	.cfi_def_cfa_register %rbp
	subq	$24, %rsp
	movl	%edi, -16(%rbp)
Ltmp708:
	.loc	41 44 84 prologue_end
	movl	%edi, -12(%rbp)
Ltmp709:
	.loc	23 128 48
	movl	%edi, -8(%rbp)
Ltmp710:
	.loc	24 25 78
	movl	%edi, -4(%rbp)
	movl	-4(%rbp), %eax
Ltmp711:
	.loc	41 44 87
	addq	$24, %rsp
	popq	%rbp
	retq
Ltmp712:
Lfunc_end92:
	.cfi_endproc

	.globl	__ZN89_$LT$alloc..string..String$u20$as$u20$core..iter..traits..collect..Extend$LT$char$GT$$GT$6extend17h02d76f1a19acf2deE
	.p2align	4, 0x90
__ZN89_$LT$alloc..string..String$u20$as$u20$core..iter..traits..collect..Extend$LT$char$GT$$GT$6extend17h02d76f1a19acf2deE:
Lfunc_begin93:
	.loc	39 2082 0
	.cfi_startproc
	.cfi_personality 155, _rust_eh_personality
	.cfi_lsda 16, Lexception7
	pushq	%rbp
	.cfi_def_cfa_offset 16
	.cfi_offset %rbp, -16
	movq	%rsp, %rbp
	.cfi_def_cfa_register %rbp
	subq	$208, %rsp
	movq	%rdi, -200(%rbp)
Ltmp720:
	movq	%rdi, -48(%rbp)
Ltmp721:
	.loc	39 2083 24 prologue_end
	movq	24(%rsi), %rax
	movq	%rax, -128(%rbp)
	movq	16(%rsi), %rax
	movq	%rax, -136(%rbp)
	movq	(%rsi), %rax
	movq	8(%rsi), %rcx
	movq	%rcx, -144(%rbp)
	movq	%rax, -152(%rbp)
	leaq	-184(%rbp), %rdi
	movq	%rdi, -192(%rbp)
	leaq	-152(%rbp), %rsi
Ltmp722:
	callq	__ZN63_$LT$I$u20$as$u20$core..iter..traits..collect..IntoIterator$GT$9into_iter17h692fd97ce0109ccdE
	movq	-192(%rbp), %rsi
	.loc	39 2083 39 is_stmt 0
	movb	$1, -49(%rbp)
Ltmp713:
	leaq	-120(%rbp), %rdi
Ltmp723:
	.loc	39 2084 32 is_stmt 1
	callq	__ZN4core4iter6traits8iterator8Iterator9size_hint17hfbff7c3e8c38f246E
Ltmp714:
	jmp	LBB93_3
Ltmp724:
LBB93_1:
	.loc	39 2087 5
	testb	$1, -49(%rbp)
	jne	LBB93_7
	jmp	LBB93_6
Ltmp725:
LBB93_2:
Ltmp719:
	.loc	39 0 5 is_stmt 0
	movq	%rax, %rcx
	movl	%edx, %eax
	movq	%rcx, -40(%rbp)
	movl	%eax, -32(%rbp)
	jmp	LBB93_1
Ltmp726:
LBB93_3:
	movq	-200(%rbp), %rdi
Ltmp727:
	.loc	39 2084 14 is_stmt 1
	movq	-120(%rbp), %rsi
	movq	%rsi, -24(%rbp)
Ltmp728:
	.loc	39 2085 9
	movq	%rdi, -16(%rbp)
	.loc	39 2085 22 is_stmt 0
	movq	%rsi, -8(%rbp)
Ltmp715:
Ltmp729:
	.loc	39 1027 9 is_stmt 1
	callq	__ZN5alloc3vec16Vec$LT$T$C$A$GT$7reserve17h9a3a43932b9a5075E
Ltmp716:
	jmp	LBB93_4
Ltmp730:
LBB93_4:
	.loc	39 0 9 is_stmt 0
	movq	-200(%rbp), %rax
	.loc	39 2086 9 is_stmt 1
	movb	$0, -49(%rbp)
	movq	-160(%rbp), %rcx
	movq	%rcx, -72(%rbp)
	movq	-168(%rbp), %rcx
	movq	%rcx, -80(%rbp)
	movq	-184(%rbp), %rcx
	movq	-176(%rbp), %rdx
	movq	%rdx, -88(%rbp)
	movq	%rcx, -96(%rbp)
	.loc	39 2086 27 is_stmt 0
	movq	%rax, -64(%rbp)
	.loc	39 2086 9
	movq	-64(%rbp), %rsi
Ltmp717:
	leaq	-96(%rbp), %rdi
	callq	__ZN4core4iter6traits8iterator8Iterator8for_each17h04b91cb2e00f79e1E
Ltmp718:
	jmp	LBB93_5
Ltmp731:
LBB93_5:
	.loc	39 2087 6 is_stmt 1
	addq	$208, %rsp
	popq	%rbp
	retq
Ltmp732:
LBB93_6:
	.loc	39 2082 5
	movq	-40(%rbp), %rdi
	callq	__Unwind_Resume
Ltmp733:
LBB93_7:
	.loc	39 2087 5
	jmp	LBB93_6
Ltmp734:
Lfunc_end93:
	.cfi_endproc
	.section	__TEXT,__gcc_except_tab
	.p2align	2
GCC_except_table93:
Lexception7:
	.byte	255
	.byte	255
	.byte	1
	.uleb128 Lcst_end7-Lcst_begin7
Lcst_begin7:
	.uleb128 Lfunc_begin93-Lfunc_begin93
	.uleb128 Ltmp713-Lfunc_begin93
	.byte	0
	.byte	0
	.uleb128 Ltmp713-Lfunc_begin93
	.uleb128 Ltmp718-Ltmp713
	.uleb128 Ltmp719-Lfunc_begin93
	.byte	0
	.uleb128 Ltmp718-Lfunc_begin93
	.uleb128 Lfunc_end93-Ltmp718
	.byte	0
	.byte	0
Lcst_end7:
	.p2align	2

	.section	__TEXT,__text,regular,pure_instructions
	.globl	__ZN89_$LT$alloc..string..String$u20$as$u20$core..iter..traits..collect..Extend$LT$char$GT$$GT$6extend28_$u7b$$u7b$closure$u7d$$u7d$17hc0ee9a9c4407a193E
	.p2align	4, 0x90
__ZN89_$LT$alloc..string..String$u20$as$u20$core..iter..traits..collect..Extend$LT$char$GT$$GT$6extend28_$u7b$$u7b$closure$u7d$$u7d$17hc0ee9a9c4407a193E:
Lfunc_begin94:
	.loc	39 2086 0
	.cfi_startproc
	pushq	%rbp
	.cfi_def_cfa_offset 16
	.cfi_offset %rbp, -16
	movq	%rsp, %rbp
	.cfi_def_cfa_register %rbp
	subq	$16, %rsp
	movq	%rdi, -16(%rbp)
	movl	%esi, -4(%rbp)
Ltmp735:
	.loc	39 2086 36 prologue_end
	movq	(%rdi), %rdi
	callq	__ZN5alloc6string6String4push17hf9d05c0205d5c54dE
	.loc	39 2086 48 is_stmt 0
	addq	$16, %rsp
	popq	%rbp
	retq
Ltmp736:
Lfunc_end94:
	.cfi_endproc

	.globl	__ZN91_$LT$core..slice..iter..Iter$LT$T$GT$$u20$as$u20$core..iter..traits..iterator..Iterator$GT$4next17h27d540e663836a99E
	.p2align	4, 0x90
__ZN91_$LT$core..slice..iter..Iter$LT$T$GT$$u20$as$u20$core..iter..traits..iterator..Iterator$GT$4next17h27d540e663836a99E:
Lfunc_begin95:
	.loc	31 124 0 is_stmt 1
	.cfi_startproc
	pushq	%rbp
	.cfi_def_cfa_offset 16
	.cfi_offset %rbp, -16
	movq	%rsp, %rbp
	.cfi_def_cfa_register %rbp
	subq	$304, %rsp
	movq	%rdi, -304(%rbp)
	movq	%rdi, -240(%rbp)
Ltmp737:
	.loc	31 132 29 prologue_end
	movq	8(%rdi), %rax
	movq	%rax, -224(%rbp)
Ltmp738:
	.loc	6 326 9
	movq	%rax, -216(%rbp)
Ltmp739:
	.loc	5 52 36
	movq	%rax, -280(%rbp)
	.loc	5 52 18 is_stmt 0
	movq	-280(%rbp), %rax
	movq	%rax, -208(%rbp)
Ltmp740:
	.loc	5 38 13 is_stmt 1
	movq	%rax, -200(%rbp)
Ltmp741:
	.loc	5 215 33
	movq	%rax, -192(%rbp)
	.loc	5 215 18 is_stmt 0
	movq	%rax, -184(%rbp)
Ltmp742:
	.loc	31 133 24 is_stmt 1
	movb	$1, %al
	testb	$1, %al
	jne	LBB95_2
LBB95_1:
	.loc	31 0 24 is_stmt 0
	movq	-304(%rbp), %rcx
	.loc	31 136 24 is_stmt 1
	movq	8(%rcx), %rax
	movq	%rax, -136(%rbp)
	cmpq	(%rcx), %rax
	je	LBB95_4
	jmp	LBB95_3
LBB95_2:
	.loc	31 0 24 is_stmt 0
	movq	-304(%rbp), %rax
	.loc	31 134 33 is_stmt 1
	movq	(%rax), %rax
	movq	%rax, -176(%rbp)
Ltmp743:
	.loc	2 53 36
	movq	%rax, -272(%rbp)
	.loc	2 53 18 is_stmt 0
	movq	-272(%rbp), %rax
	movq	%rax, -168(%rbp)
Ltmp744:
	.loc	2 39 13 is_stmt 1
	movq	%rax, -160(%rbp)
Ltmp745:
	.loc	2 209 33
	movq	%rax, -152(%rbp)
	.loc	2 209 18 is_stmt 0
	movq	%rax, -144(%rbp)
Ltmp746:
	.loc	31 133 21 is_stmt 1
	jmp	LBB95_1
LBB95_3:
	.loc	31 0 21 is_stmt 0
	movq	-304(%rbp), %rax
	.loc	31 139 30 is_stmt 1
	movq	%rax, -128(%rbp)
Ltmp747:
	.loc	31 76 20
	xorl	%eax, %eax
	testb	$1, %al
	jne	LBB95_6
	jmp	LBB95_7
Ltmp748:
LBB95_4:
	.loc	31 137 25
	movq	$0, -296(%rbp)
LBB95_5:
	.loc	31 142 14
	movq	-296(%rbp), %rax
	addq	$304, %rsp
	popq	%rbp
	retq
LBB95_6:
	.loc	31 0 14 is_stmt 0
	movq	-304(%rbp), %rax
Ltmp749:
	.loc	31 57 29 is_stmt 1
	movq	(%rax), %rcx
	movq	%rcx, -64(%rbp)
Ltmp750:
	.loc	2 1198 9
	movq	%rcx, -56(%rbp)
Ltmp751:
	.loc	2 61 9
	movq	%rcx, -48(%rbp)
Ltmp752:
	.loc	2 1180 9
	movq	%rcx, -40(%rbp)
Ltmp753:
	.loc	2 555 18
	addq	$-1, %rcx
	movq	%rcx, -32(%rbp)
	movq	-32(%rbp), %rcx
	movq	%rcx, -24(%rbp)
Ltmp754:
	.loc	2 100 29
	movq	%rcx, -16(%rbp)
Ltmp755:
	.loc	4 118 36
	movq	%rcx, -248(%rbp)
	.loc	4 118 14 is_stmt 0
	movq	-248(%rbp), %rcx
	movq	%rcx, -256(%rbp)
	movq	-256(%rbp), %rcx
Ltmp756:
	.loc	31 57 17 is_stmt 1
	movq	%rcx, (%rax)
	.loc	31 78 21
	movq	8(%rax), %rax
	movq	%rax, -8(%rbp)
	movq	%rax, -288(%rbp)
	.loc	31 76 17
	jmp	LBB95_8
LBB95_7:
	.loc	31 0 17 is_stmt 0
	movq	-304(%rbp), %rcx
	.loc	31 80 31 is_stmt 1
	movq	8(%rcx), %rax
	movq	%rax, -120(%rbp)
Ltmp757:
	.loc	6 326 9
	movq	%rax, -112(%rbp)
Ltmp758:
	.loc	31 83 64
	movq	8(%rcx), %rdx
	movq	%rdx, -104(%rbp)
Ltmp759:
	.loc	6 326 9
	movq	%rdx, -96(%rbp)
Ltmp760:
	.loc	5 1034 18
	movq	%rdx, -88(%rbp)
Ltmp761:
	.loc	5 487 18
	addq	$1, %rdx
	movq	%rdx, -80(%rbp)
	movq	-80(%rbp), %rdx
	movq	%rdx, -72(%rbp)
Ltmp762:
	.loc	6 201 13
	movq	%rdx, -264(%rbp)
Ltmp763:
	.loc	31 83 21
	movq	-264(%rbp), %rdx
	movq	%rdx, 8(%rcx)
	.loc	31 84 21
	movq	%rax, -288(%rbp)
Ltmp764:
LBB95_8:
	.loc	31 139 30
	movq	-288(%rbp), %rax
	.loc	31 139 25 is_stmt 0
	movq	%rax, -296(%rbp)
	.loc	31 136 21 is_stmt 1
	jmp	LBB95_5
Ltmp765:
Lfunc_end95:
	.cfi_endproc

	.globl	__ZN95_$LT$alloc..string..String$u20$as$u20$core..iter..traits..collect..FromIterator$LT$char$GT$$GT$9from_iter17h761448bf46e3964dE
	.p2align	4, 0x90
__ZN95_$LT$alloc..string..String$u20$as$u20$core..iter..traits..collect..FromIterator$LT$char$GT$$GT$9from_iter17h761448bf46e3964dE:
Lfunc_begin96:
	.loc	39 2003 0
	.cfi_startproc
	.cfi_personality 155, _rust_eh_personality
	.cfi_lsda 16, Lexception8
	pushq	%rbp
	.cfi_def_cfa_offset 16
	.cfi_offset %rbp, -16
	movq	%rsp, %rbp
	.cfi_def_cfa_register %rbp
	subq	$96, %rsp
	movq	%rdi, -88(%rbp)
Ltmp772:
	movq	%rdi, %rax
	movq	%rax, -80(%rbp)
Ltmp773:
	.loc	35 425 20 prologue_end
	movq	L___unnamed_15(%rip), %rcx
	movq	L___unnamed_15+8(%rip), %rax
	.loc	35 425 9 is_stmt 0
	movq	%rcx, -40(%rbp)
	movq	%rax, -32(%rbp)
	movq	$0, -24(%rbp)
Ltmp774:
	.loc	39 456 9 is_stmt 1
	movq	-24(%rbp), %rax
	movq	%rax, 16(%rdi)
	movq	-40(%rbp), %rax
	movq	-32(%rbp), %rcx
	movq	%rcx, 8(%rdi)
	movq	%rax, (%rdi)
Ltmp775:
	.loc	39 2005 20
	movq	24(%rsi), %rax
	movq	%rax, -48(%rbp)
	movq	16(%rsi), %rax
	movq	%rax, -56(%rbp)
	movq	(%rsi), %rax
	movq	8(%rsi), %rcx
	movq	%rcx, -64(%rbp)
	movq	%rax, -72(%rbp)
Ltmp766:
	leaq	-72(%rbp), %rsi
Ltmp776:
	.loc	39 2005 9 is_stmt 0
	callq	__ZN89_$LT$alloc..string..String$u20$as$u20$core..iter..traits..collect..Extend$LT$char$GT$$GT$6extend17h02d76f1a19acf2deE
Ltmp777:
Ltmp767:
	jmp	LBB96_3
Ltmp778:
LBB96_1:
Ltmp769:
	.loc	39 0 9
	movq	-88(%rbp), %rdi
	.loc	39 2007 5 is_stmt 1
	callq	__ZN4core3ptr42drop_in_place$LT$alloc..string..String$GT$17hcbaa738af1179008E
Ltmp770:
	jmp	LBB96_5
Ltmp779:
LBB96_2:
Ltmp768:
	.loc	39 0 5 is_stmt 0
	movq	%rax, %rcx
	movl	%edx, %eax
	movq	%rcx, -16(%rbp)
	movl	%eax, -8(%rbp)
	jmp	LBB96_1
Ltmp780:
LBB96_3:
	movq	-80(%rbp), %rax
	.loc	39 2007 6
	addq	$96, %rsp
	popq	%rbp
	retq
Ltmp781:
LBB96_4:
Ltmp771:
	.loc	39 2003 5 is_stmt 1
	callq	__ZN4core9panicking19panic_cannot_unwind17h1fbca7e1d7f56ae1E
Ltmp782:
LBB96_5:
	.loc	39 2007 5
	xorl	%eax, %eax
	testb	$1, %al
	jne	LBB96_7
	jmp	LBB96_6
Ltmp783:
LBB96_6:
	.loc	39 2003 5
	movq	-16(%rbp), %rdi
	callq	__Unwind_Resume
Ltmp784:
LBB96_7:
	.loc	39 2007 5
	jmp	LBB96_6
Ltmp785:
Lfunc_end96:
	.cfi_endproc
	.section	__TEXT,__gcc_except_tab
	.p2align	2
GCC_except_table96:
Lexception8:
	.byte	255
	.byte	255
	.byte	1
	.uleb128 Lcst_end8-Lcst_begin8
Lcst_begin8:
	.uleb128 Ltmp766-Lfunc_begin96
	.uleb128 Ltmp767-Ltmp766
	.uleb128 Ltmp768-Lfunc_begin96
	.byte	0
	.uleb128 Ltmp769-Lfunc_begin96
	.uleb128 Ltmp770-Ltmp769
	.uleb128 Ltmp771-Lfunc_begin96
	.byte	0
	.uleb128 Ltmp770-Lfunc_begin96
	.uleb128 Lfunc_end96-Ltmp770
	.byte	0
	.byte	0
Lcst_end8:
	.p2align	2

	.section	__TEXT,__text,regular,pure_instructions
	.globl	__ZN21unicode_normalization7lookups25canonical_combining_class17h0595252e9f8c65a2E
	.p2align	4, 0x90
__ZN21unicode_normalization7lookups25canonical_combining_class17h0595252e9f8c65a2E:
Lfunc_begin97:
	.file	42 "/Users/natalie/.cargo/registry/src/github.com-1ecc6299db9ec823/unicode-normalization-0.1.22" "src/lookups.rs"
	.loc	42 19 0
	.cfi_startproc
	pushq	%rbp
	.cfi_def_cfa_offset 16
	.cfi_offset %rbp, -16
	movq	%rsp, %rbp
	.cfi_def_cfa_register %rbp
	subq	$16, %rsp
	movl	%edi, -4(%rbp)
Ltmp786:
	.loc	42 21 9 prologue_end
	callq	__ZN50_$LT$T$u20$as$u20$core..convert..Into$LT$U$GT$$GT$4into17hd00a1c87b5c38d1bE
	movl	%eax, %edi
	.loc	42 22 9
	movq	l___unnamed_16(%rip), %rsi
	movq	l___unnamed_16+8(%rip), %rdx
	.loc	42 23 9
	movq	l___unnamed_17(%rip), %rcx
	movq	l___unnamed_17+8(%rip), %r8
	.loc	42 20 5
	xorl	%r9d, %r9d
	callq	__ZN21unicode_normalization12perfect_hash10mph_lookup17ha44dd9ba7310febbE
	.loc	42 28 2
	addq	$16, %rsp
	popq	%rbp
	retq
Ltmp787:
Lfunc_end97:
	.cfi_endproc

	.p2align	4, 0x90
__ZN21unicode_normalization7lookups17composition_table17hbee10a3913fa513fE:
Lfunc_begin98:
	.loc	42 30 0
	.cfi_startproc
	pushq	%rbp
	.cfi_def_cfa_offset 16
	.cfi_offset %rbp, -16
	movq	%rsp, %rbp
	.cfi_def_cfa_register %rbp
	subq	$32, %rsp
	movl	%edi, -28(%rbp)
	movl	%esi, -24(%rbp)
	movl	%edi, -8(%rbp)
	movl	%esi, -4(%rbp)
Ltmp788:
	.loc	42 31 8 prologue_end
	cmpl	$65536, %edi
	jb	LBB98_2
	movb	$0, -13(%rbp)
	jmp	LBB98_3
LBB98_2:
	.loc	42 0 8 is_stmt 0
	movl	-24(%rbp), %eax
	.loc	42 31 28
	cmpl	$65536, %eax
	setb	%al
	.loc	42 31 8
	andb	$1, %al
	movb	%al, -13(%rbp)
LBB98_3:
	testb	$1, -13(%rbp)
	jne	LBB98_5
	.loc	42 0 8
	movl	-24(%rbp), %esi
	movl	-28(%rbp), %edi
	.loc	42 41 9 is_stmt 1
	callq	__ZN21unicode_normalization6tables24composition_table_astral17h3be65adb52a1e0c9E
	movl	%eax, -20(%rbp)
	jmp	LBB98_6
LBB98_5:
	.loc	42 0 9 is_stmt 0
	movl	-24(%rbp), %eax
	movl	-28(%rbp), %edi
	.loc	42 33 13 is_stmt 1
	shll	$16, %edi
	orl	%eax, %edi
	.loc	42 34 13
	movq	l___unnamed_18(%rip), %rsi
	movq	l___unnamed_18+8(%rip), %rdx
	.loc	42 35 13
	movq	l___unnamed_19(%rip), %rcx
	movq	l___unnamed_19+8(%rip), %r8
	.loc	42 38 13
	movl	$1114112, -12(%rbp)
	.loc	42 32 9
	movl	-12(%rbp), %r9d
	callq	__ZN21unicode_normalization12perfect_hash10mph_lookup17h768c7c34f11f6165E
	movl	%eax, -20(%rbp)
LBB98_6:
	.loc	42 43 2
	movl	-20(%rbp), %eax
	addq	$32, %rsp
	popq	%rbp
	retq
Ltmp789:
Lfunc_end98:
	.cfi_endproc

	.globl	__ZN21unicode_normalization7lookups26canonical_fully_decomposed17hb195cef1e3bf8de2E
	.p2align	4, 0x90
__ZN21unicode_normalization7lookups26canonical_fully_decomposed17hb195cef1e3bf8de2E:
Lfunc_begin99:
	.loc	42 45 0
	.cfi_startproc
	pushq	%rbp
	.cfi_def_cfa_offset 16
	.cfi_offset %rbp, -16
	movq	%rsp, %rbp
	.cfi_def_cfa_register %rbp
	subq	$32, %rsp
	movl	%edi, -12(%rbp)
Ltmp790:
	.loc	42 47 9 prologue_end
	callq	__ZN50_$LT$T$u20$as$u20$core..convert..Into$LT$U$GT$$GT$4into17hd00a1c87b5c38d1bE
	movl	%eax, %edi
	.loc	42 48 9
	movq	l___unnamed_20(%rip), %rsi
	movq	l___unnamed_20+8(%rip), %rdx
	.loc	42 49 9
	movq	l___unnamed_21(%rip), %rcx
	movq	l___unnamed_21+8(%rip), %r8
	.loc	42 52 9
	movw	$0, -24(%rbp)
	.loc	42 46 5
	movl	-24(%rbp), %eax
	movl	%eax, %r9d
	movzwl	-20(%rbp), %eax
	shlq	$32, %rax
	orq	%rax, %r9
	callq	__ZN21unicode_normalization12perfect_hash10mph_lookup17h945d78e319b1bdebE
	movl	%eax, %ecx
	movl	%ecx, -8(%rbp)
	shrq	$32, %rax
	movw	%ax, -4(%rbp)
	movw	-4(%rbp), %ax
	movw	%ax, -28(%rbp)
	movl	-8(%rbp), %eax
	movl	%eax, -32(%rbp)
	movl	-32(%rbp), %eax
	movl	%eax, %edi
	movzwl	-28(%rbp), %eax
	shlq	$32, %rax
	orq	%rax, %rdi
	callq	__ZN4core6option15Option$LT$T$GT$3map17h9f9b0b2a217b8846E
	.loc	42 55 2
	addq	$32, %rsp
	popq	%rbp
	retq
Ltmp791:
Lfunc_end99:
	.cfi_endproc

	.p2align	4, 0x90
__ZN21unicode_normalization7lookups26canonical_fully_decomposed28_$u7b$$u7b$closure$u7d$$u7d$17h6efcf6b4ee867833E:
Lfunc_begin100:
	.loc	42 54 0
	.cfi_startproc
	pushq	%rbp
	.cfi_def_cfa_offset 16
	.cfi_offset %rbp, -16
	movq	%rsp, %rbp
	.cfi_def_cfa_register %rbp
	subq	$48, %rsp
	movw	%si, %cx
	movw	%cx, -34(%rbp)
	movw	%di, %ax
	movw	%ax, -8(%rbp)
	movw	%cx, -6(%rbp)
Ltmp792:
	.loc	42 54 12 prologue_end
	movw	%ax, -4(%rbp)
	.loc	42 54 19 is_stmt 0
	movw	%cx, -2(%rbp)
Ltmp793:
	.loc	42 54 26
	movq	l___unnamed_22(%rip), %rdi
	movq	l___unnamed_22+8(%rip), %rsi
	.loc	42 54 53
	movzwl	%ax, %eax
	movq	%rax, -32(%rbp)
	.loc	42 54 26
	movq	-32(%rbp), %rdx
	leaq	l___unnamed_23(%rip), %rcx
	movq	%rcx, -48(%rbp)
	callq	__ZN4core5slice5index74_$LT$impl$u20$core..ops..index..Index$LT$I$GT$$u20$for$u20$$u5b$T$u5d$$GT$5index17h27a5569c358c80daE
	movq	-48(%rbp), %rcx
	movq	%rax, %rdi
	movw	-34(%rbp), %ax
	movq	%rdx, %rsi
	.loc	42 54 73
	movzwl	%ax, %eax
	.loc	42 54 71
	movq	%rax, -24(%rbp)
	.loc	42 54 26
	movq	-24(%rbp), %rdx
	callq	__ZN4core5slice5index74_$LT$impl$u20$core..ops..index..Index$LT$I$GT$$u20$for$u20$$u5b$T$u5d$$GT$5index17h4b4ff975ccf7248cE
Ltmp794:
	.loc	42 54 86
	addq	$48, %rsp
	popq	%rbp
	retq
Ltmp795:
Lfunc_end100:
	.cfi_endproc

	.globl	__ZN21unicode_normalization7lookups30compatibility_fully_decomposed17h2a3f2ea86b08eb64E
	.p2align	4, 0x90
__ZN21unicode_normalization7lookups30compatibility_fully_decomposed17h2a3f2ea86b08eb64E:
Lfunc_begin101:
	.loc	42 57 0 is_stmt 1
	.cfi_startproc
	pushq	%rbp
	.cfi_def_cfa_offset 16
	.cfi_offset %rbp, -16
	movq	%rsp, %rbp
	.cfi_def_cfa_register %rbp
	subq	$32, %rsp
	movl	%edi, -12(%rbp)
Ltmp796:
	.loc	42 59 9 prologue_end
	callq	__ZN50_$LT$T$u20$as$u20$core..convert..Into$LT$U$GT$$GT$4into17hd00a1c87b5c38d1bE
	movl	%eax, %edi
	.loc	42 60 9
	movq	l___unnamed_24(%rip), %rsi
	movq	l___unnamed_24+8(%rip), %rdx
	.loc	42 61 9
	movq	l___unnamed_25(%rip), %rcx
	movq	l___unnamed_25+8(%rip), %r8
	.loc	42 64 9
	movw	$0, -24(%rbp)
	.loc	42 58 5
	movl	-24(%rbp), %eax
	movl	%eax, %r9d
	movzwl	-20(%rbp), %eax
	shlq	$32, %rax
	orq	%rax, %r9
	callq	__ZN21unicode_normalization12perfect_hash10mph_lookup17h945d78e319b1bdebE
	movl	%eax, %ecx
	movl	%ecx, -8(%rbp)
	shrq	$32, %rax
	movw	%ax, -4(%rbp)
	movw	-4(%rbp), %ax
	movw	%ax, -28(%rbp)
	movl	-8(%rbp), %eax
	movl	%eax, -32(%rbp)
	movl	-32(%rbp), %eax
	movl	%eax, %edi
	movzwl	-28(%rbp), %eax
	shlq	$32, %rax
	orq	%rax, %rdi
	callq	__ZN4core6option15Option$LT$T$GT$3map17h22793e6c90cc008dE
	.loc	42 67 2
	addq	$32, %rsp
	popq	%rbp
	retq
Ltmp797:
Lfunc_end101:
	.cfi_endproc

	.p2align	4, 0x90
__ZN21unicode_normalization7lookups30compatibility_fully_decomposed28_$u7b$$u7b$closure$u7d$$u7d$17h6138821eaf2c964aE:
Lfunc_begin102:
	.loc	42 66 0
	.cfi_startproc
	pushq	%rbp
	.cfi_def_cfa_offset 16
	.cfi_offset %rbp, -16
	movq	%rsp, %rbp
	.cfi_def_cfa_register %rbp
	subq	$48, %rsp
	movw	%si, %cx
	movw	%cx, -34(%rbp)
	movw	%di, %ax
	movw	%ax, -8(%rbp)
	movw	%cx, -6(%rbp)
Ltmp798:
	.loc	42 66 12 prologue_end
	movw	%ax, -4(%rbp)
	.loc	42 66 19 is_stmt 0
	movw	%cx, -2(%rbp)
Ltmp799:
	.loc	42 66 26
	movq	l___unnamed_26(%rip), %rdi
	movq	l___unnamed_26+8(%rip), %rsi
	.loc	42 66 57
	movzwl	%ax, %eax
	movq	%rax, -32(%rbp)
	.loc	42 66 26
	movq	-32(%rbp), %rdx
	leaq	l___unnamed_27(%rip), %rcx
	movq	%rcx, -48(%rbp)
	callq	__ZN4core5slice5index74_$LT$impl$u20$core..ops..index..Index$LT$I$GT$$u20$for$u20$$u5b$T$u5d$$GT$5index17h27a5569c358c80daE
	movq	-48(%rbp), %rcx
	movq	%rax, %rdi
	movw	-34(%rbp), %ax
	movq	%rdx, %rsi
	.loc	42 66 77
	movzwl	%ax, %eax
	.loc	42 66 75
	movq	%rax, -24(%rbp)
	.loc	42 66 26
	movq	-24(%rbp), %rdx
	callq	__ZN4core5slice5index74_$LT$impl$u20$core..ops..index..Index$LT$I$GT$$u20$for$u20$$u5b$T$u5d$$GT$5index17h4b4ff975ccf7248cE
Ltmp800:
	.loc	42 66 90
	addq	$48, %rsp
	popq	%rbp
	retq
Ltmp801:
Lfunc_end102:
	.cfi_endproc

	.globl	__ZN21unicode_normalization7lookups36cjk_compat_variants_fully_decomposed17he25b6884e56838fbE
	.p2align	4, 0x90
__ZN21unicode_normalization7lookups36cjk_compat_variants_fully_decomposed17he25b6884e56838fbE:
Lfunc_begin103:
	.loc	42 69 0 is_stmt 1
	.cfi_startproc
	pushq	%rbp
	.cfi_def_cfa_offset 16
	.cfi_offset %rbp, -16
	movq	%rsp, %rbp
	.cfi_def_cfa_register %rbp
	subq	$32, %rsp
	movl	%edi, -12(%rbp)
Ltmp802:
	.loc	42 71 9 prologue_end
	callq	__ZN50_$LT$T$u20$as$u20$core..convert..Into$LT$U$GT$$GT$4into17hd00a1c87b5c38d1bE
	movl	%eax, %edi
	.loc	42 72 9
	movq	l___unnamed_28(%rip), %rsi
	movq	l___unnamed_28+8(%rip), %rdx
	.loc	42 73 9
	movq	l___unnamed_29(%rip), %rcx
	movq	l___unnamed_29+8(%rip), %r8
	.loc	42 76 9
	movw	$0, -24(%rbp)
	.loc	42 70 5
	movl	-24(%rbp), %eax
	movl	%eax, %r9d
	movzwl	-20(%rbp), %eax
	shlq	$32, %rax
	orq	%rax, %r9
	callq	__ZN21unicode_normalization12perfect_hash10mph_lookup17h945d78e319b1bdebE
	movl	%eax, %ecx
	movl	%ecx, -8(%rbp)
	shrq	$32, %rax
	movw	%ax, -4(%rbp)
	movw	-4(%rbp), %ax
	movw	%ax, -28(%rbp)
	movl	-8(%rbp), %eax
	movl	%eax, -32(%rbp)
	movl	-32(%rbp), %eax
	movl	%eax, %edi
	movzwl	-28(%rbp), %eax
	shlq	$32, %rax
	orq	%rax, %rdi
	callq	__ZN4core6option15Option$LT$T$GT$3map17h0454a64041ea14b4E
	.loc	42 79 2
	addq	$32, %rsp
	popq	%rbp
	retq
Ltmp803:
Lfunc_end103:
	.cfi_endproc

	.p2align	4, 0x90
__ZN21unicode_normalization7lookups36cjk_compat_variants_fully_decomposed28_$u7b$$u7b$closure$u7d$$u7d$17h3d6f33edc84cae65E:
Lfunc_begin104:
	.loc	42 78 0
	.cfi_startproc
	pushq	%rbp
	.cfi_def_cfa_offset 16
	.cfi_offset %rbp, -16
	movq	%rsp, %rbp
	.cfi_def_cfa_register %rbp
	subq	$48, %rsp
	movw	%si, %cx
	movw	%cx, -34(%rbp)
	movw	%di, %ax
	movw	%ax, -8(%rbp)
	movw	%cx, -6(%rbp)
Ltmp804:
	.loc	42 78 12 prologue_end
	movw	%ax, -4(%rbp)
	.loc	42 78 19 is_stmt 0
	movw	%cx, -2(%rbp)
Ltmp805:
	.loc	42 78 26
	movq	l___unnamed_30(%rip), %rdi
	movq	l___unnamed_30+8(%rip), %rsi
	.loc	42 78 63
	movzwl	%ax, %eax
	movq	%rax, -32(%rbp)
	.loc	42 78 26
	movq	-32(%rbp), %rdx
	leaq	l___unnamed_31(%rip), %rcx
	movq	%rcx, -48(%rbp)
	callq	__ZN4core5slice5index74_$LT$impl$u20$core..ops..index..Index$LT$I$GT$$u20$for$u20$$u5b$T$u5d$$GT$5index17h27a5569c358c80daE
	movq	-48(%rbp), %rcx
	movq	%rax, %rdi
	movw	-34(%rbp), %ax
	movq	%rdx, %rsi
	.loc	42 78 83
	movzwl	%ax, %eax
	.loc	42 78 81
	movq	%rax, -24(%rbp)
	.loc	42 78 26
	movq	-24(%rbp), %rdx
	callq	__ZN4core5slice5index74_$LT$impl$u20$core..ops..index..Index$LT$I$GT$$u20$for$u20$$u5b$T$u5d$$GT$5index17h4b4ff975ccf7248cE
Ltmp806:
	.loc	42 78 96
	addq	$48, %rsp
	popq	%rbp
	retq
Ltmp807:
Lfunc_end104:
	.cfi_endproc

	.globl	__ZN21unicode_normalization7lookups17is_combining_mark17hd549c85597b833e1E
	.p2align	4, 0x90
__ZN21unicode_normalization7lookups17is_combining_mark17hd549c85597b833e1E:
Lfunc_begin105:
	.loc	42 82 0 is_stmt 1
	.cfi_startproc
	pushq	%rbp
	.cfi_def_cfa_offset 16
	.cfi_offset %rbp, -16
	movq	%rsp, %rbp
	.cfi_def_cfa_register %rbp
	subq	$16, %rsp
	movl	%edi, -4(%rbp)
Ltmp808:
	.loc	42 84 9 prologue_end
	callq	__ZN50_$LT$T$u20$as$u20$core..convert..Into$LT$U$GT$$GT$4into17hd00a1c87b5c38d1bE
	movl	%eax, %edi
	.loc	42 85 9
	movq	l___unnamed_32(%rip), %rsi
	movq	l___unnamed_32+8(%rip), %rdx
	.loc	42 86 9
	movq	l___unnamed_33(%rip), %rcx
	movq	l___unnamed_33+8(%rip), %r8
	.loc	42 83 5
	xorl	%r9d, %r9d
	callq	__ZN21unicode_normalization12perfect_hash10mph_lookup17h2ec12762b67b4829E
	.loc	42 91 2
	andb	$1, %al
	movzbl	%al, %eax
	addq	$16, %rsp
	popq	%rbp
	retq
Ltmp809:
Lfunc_end105:
	.cfi_endproc

	.globl	__ZN21unicode_normalization7lookups32stream_safe_trailing_nonstarters17h13eb30b37de6084dE
	.p2align	4, 0x90
__ZN21unicode_normalization7lookups32stream_safe_trailing_nonstarters17h13eb30b37de6084dE:
Lfunc_begin106:
	.loc	42 93 0
	.cfi_startproc
	pushq	%rbp
	.cfi_def_cfa_offset 16
	.cfi_offset %rbp, -16
	movq	%rsp, %rbp
	.cfi_def_cfa_register %rbp
	subq	$16, %rsp
	movl	%edi, -4(%rbp)
Ltmp810:
	.loc	42 95 9 prologue_end
	callq	__ZN50_$LT$T$u20$as$u20$core..convert..Into$LT$U$GT$$GT$4into17hd00a1c87b5c38d1bE
	movl	%eax, %edi
	.loc	42 96 9
	movq	l___unnamed_34(%rip), %rsi
	movq	l___unnamed_34+8(%rip), %rdx
	.loc	42 97 9
	movq	l___unnamed_35(%rip), %rcx
	movq	l___unnamed_35+8(%rip), %r8
	.loc	42 94 5
	xorl	%r9d, %r9d
	callq	__ZN21unicode_normalization12perfect_hash10mph_lookup17ha44dd9ba7310febbE
	movzbl	%al, %eax
	.loc	42 102 2
	addq	$16, %rsp
	popq	%rbp
	retq
Ltmp811:
Lfunc_end106:
	.cfi_endproc

	.p2align	4, 0x90
__ZN21unicode_normalization7lookups12u8_lookup_fk17h4622606ed703184dE:
Lfunc_begin107:
	.loc	42 106 0
	.cfi_startproc
	pushq	%rbp
	.cfi_def_cfa_offset 16
	.cfi_offset %rbp, -16
	movq	%rsp, %rbp
	.cfi_def_cfa_register %rbp
	subq	$4, %rsp
	movl	%edi, %eax
	movl	%eax, -4(%rbp)
Ltmp812:
	.loc	42 107 5 prologue_end
	shrl	$8, %eax
	.loc	42 108 2
	addq	$4, %rsp
	popq	%rbp
	retq
Ltmp813:
Lfunc_end107:
	.cfi_endproc

	.p2align	4, 0x90
__ZN21unicode_normalization7lookups12u8_lookup_fv17h46f13aedd44c4164E:
Lfunc_begin108:
	.loc	42 112 0
	.cfi_startproc
	pushq	%rbp
	.cfi_def_cfa_offset 16
	.cfi_offset %rbp, -16
	movq	%rsp, %rbp
	.cfi_def_cfa_register %rbp
	subq	$4, %rsp
	movl	%edi, -4(%rbp)
Ltmp814:
	.loc	42 113 5 prologue_end
	andl	$255, %edi
	movb	%dil, %al
	.loc	42 114 2
	addq	$4, %rsp
	popq	%rbp
	retq
Ltmp815:
Lfunc_end108:
	.cfi_endproc

	.p2align	4, 0x90
__ZN21unicode_normalization7lookups14bool_lookup_fk17hfbe953e08363b9adE:
Lfunc_begin109:
	.loc	42 118 0
	.cfi_startproc
	pushq	%rbp
	.cfi_def_cfa_offset 16
	.cfi_offset %rbp, -16
	movq	%rsp, %rbp
	.cfi_def_cfa_register %rbp
	subq	$4, %rsp
	movl	%edi, %eax
	movl	%eax, -4(%rbp)
Ltmp816:
	.loc	42 120 2 prologue_end
	addq	$4, %rsp
	popq	%rbp
	retq
Ltmp817:
Lfunc_end109:
	.cfi_endproc

	.p2align	4, 0x90
__ZN21unicode_normalization7lookups14bool_lookup_fv17h32a842776562bc27E:
Lfunc_begin110:
	.loc	42 124 0
	.cfi_startproc
	pushq	%rbp
	.cfi_def_cfa_offset 16
	.cfi_offset %rbp, -16
	movq	%rsp, %rbp
	.cfi_def_cfa_register %rbp
	subq	$4, %rsp
	movl	%edi, -4(%rbp)
Ltmp818:
	.loc	42 126 2 prologue_end
	movb	$1, %al
	andb	$1, %al
	movzbl	%al, %eax
	addq	$4, %rsp
	popq	%rbp
	retq
Ltmp819:
Lfunc_end110:
	.cfi_endproc

	.p2align	4, 0x90
__ZN21unicode_normalization7lookups14pair_lookup_fk17h7c08b4cfe79d8bf5E:
Lfunc_begin111:
	.loc	42 130 0
	.cfi_startproc
	pushq	%rbp
	.cfi_def_cfa_offset 16
	.cfi_offset %rbp, -16
	movq	%rsp, %rbp
	.cfi_def_cfa_register %rbp
	pushq	%rax
	movl	%edi, %eax
	movl	%eax, -8(%rbp)
	movl	%esi, -4(%rbp)
Ltmp820:
	.loc	42 132 2 prologue_end
	addq	$8, %rsp
	popq	%rbp
	retq
Ltmp821:
Lfunc_end111:
	.cfi_endproc

	.p2align	4, 0x90
__ZN21unicode_normalization7lookups14pair_lookup_fk17hb6cf37da6d8059e7E:
Lfunc_begin112:
	.loc	42 130 0
	.cfi_startproc
	pushq	%rbp
	.cfi_def_cfa_offset 16
	.cfi_offset %rbp, -16
	movq	%rsp, %rbp
	.cfi_def_cfa_register %rbp
	subq	$16, %rsp
	movq	%rdi, -8(%rbp)
	movq	-8(%rbp), %rax
	movq	%rax, -16(%rbp)
Ltmp822:
	.loc	42 131 5 prologue_end
	movl	-16(%rbp), %eax
	.loc	42 132 2
	addq	$16, %rsp
	popq	%rbp
	retq
Ltmp823:
Lfunc_end112:
	.cfi_endproc

	.p2align	4, 0x90
__ZN21unicode_normalization7lookups18pair_lookup_fv_opt17h90edcd8af784cba0E:
Lfunc_begin113:
	.loc	42 136 0
	.cfi_startproc
	pushq	%rbp
	.cfi_def_cfa_offset 16
	.cfi_offset %rbp, -16
	movq	%rsp, %rbp
	.cfi_def_cfa_register %rbp
	subq	$24, %rsp
	movq	%rdi, -16(%rbp)
	movq	-16(%rbp), %rax
	movq	%rax, -24(%rbp)
Ltmp824:
	.loc	42 137 10 prologue_end
	movw	-20(%rbp), %cx
	movw	-18(%rbp), %ax
	.loc	42 137 5 is_stmt 0
	movw	%cx, -6(%rbp)
	movw	%ax, -4(%rbp)
	movw	$1, -8(%rbp)
	.loc	42 138 2 is_stmt 1
	movl	-8(%rbp), %eax
	movzwl	-4(%rbp), %ecx
	shlq	$32, %rcx
	orq	%rcx, %rax
	addq	$24, %rsp
	popq	%rbp
	retq
Ltmp825:
Lfunc_end113:
	.cfi_endproc

	.p2align	4, 0x90
__ZN21unicode_normalization7lookups18pair_lookup_fv_opt17he84ed41642b431c2E:
Lfunc_begin114:
	.loc	42 136 0
	.cfi_startproc
	pushq	%rbp
	.cfi_def_cfa_offset 16
	.cfi_offset %rbp, -16
	movq	%rsp, %rbp
	.cfi_def_cfa_register %rbp
	subq	$16, %rsp
	movl	%edi, -8(%rbp)
	movl	%esi, -4(%rbp)
Ltmp826:
	.loc	42 137 5 prologue_end
	movl	%esi, -12(%rbp)
	.loc	42 138 2
	movl	-12(%rbp), %eax
	addq	$16, %rsp
	popq	%rbp
	retq
Ltmp827:
Lfunc_end114:
	.cfi_endproc

	.globl	__ZN21unicode_normalization9normalize7compose17h4f4308f491ef2c0aE
	.p2align	4, 0x90
__ZN21unicode_normalization9normalize7compose17h4f4308f491ef2c0aE:
Lfunc_begin115:
	.file	43 "/Users/natalie/.cargo/registry/src/github.com-1ecc6299db9ec823/unicode-normalization-0.1.22" "src/normalize.rs"
	.loc	43 105 0
	.cfi_startproc
	pushq	%rbp
	.cfi_def_cfa_offset 16
	.cfi_offset %rbp, -16
	movq	%rsp, %rbp
	.cfi_def_cfa_register %rbp
	subq	$128, %rsp
	movl	%edi, -80(%rbp)
	movl	%esi, -76(%rbp)
Ltmp828:
	.loc	43 106 20 prologue_end
	movl	-80(%rbp), %ecx
	.loc	43 106 23 is_stmt 0
	movl	-76(%rbp), %eax
	movl	%ecx, -32(%rbp)
	movl	%eax, -28(%rbp)
Ltmp829:
	.loc	43 172 18 is_stmt 1
	movl	%ecx, -48(%rbp)
	movl	%eax, -44(%rbp)
	.loc	43 172 10 is_stmt 0
	movl	-48(%rbp), %ecx
	movl	%ecx, -88(%rbp)
	movl	%ecx, -24(%rbp)
	.loc	43 172 13
	movl	-44(%rbp), %eax
	movl	%eax, -84(%rbp)
	movl	%eax, -20(%rbp)
Ltmp830:
	.loc	43 173 11 is_stmt 1
	movl	%ecx, -40(%rbp)
	movl	%eax, -36(%rbp)
	.loc	43 175 10
	movl	$4352, %eax
	cmpl	-40(%rbp), %eax
	jbe	LBB115_2
LBB115_1:
	.loc	43 183 10
	movl	$44032, %eax
	cmpl	-40(%rbp), %eax
	jbe	LBB115_19
	jmp	LBB115_4
LBB115_2:
	.loc	43 175 10
	cmpl	$4370, -40(%rbp)
	ja	LBB115_1
	.loc	43 175 27 is_stmt 0
	movl	$4449, %eax
	cmpl	-36(%rbp), %eax
	jbe	LBB115_5
LBB115_4:
	.loc	43 186 14 is_stmt 1
	movl	$1114112, -52(%rbp)
	jmp	LBB115_30
LBB115_5:
	.loc	43 175 27
	cmpl	$4469, -36(%rbp)
	ja	LBB115_4
	.loc	43 0 27 is_stmt 0
	movl	-88(%rbp), %eax
	.loc	43 176 27 is_stmt 1
	movl	%eax, %ecx
	subl	$4352, %ecx
	movl	%ecx, -92(%rbp)
	cmpl	$4352, %eax
	setb	%al
	testb	$1, %al
	jne	LBB115_8
	.loc	43 0 27 is_stmt 0
	movl	-84(%rbp), %eax
	movl	-92(%rbp), %ecx
	.loc	43 176 27
	movl	%ecx, -16(%rbp)
Ltmp831:
	.loc	43 177 27 is_stmt 1
	movl	%eax, %ecx
	subl	$4449, %ecx
	movl	%ecx, -96(%rbp)
	cmpl	$4449, %eax
	setb	%al
	testb	$1, %al
	jne	LBB115_10
	jmp	LBB115_9
Ltmp832:
LBB115_8:
	.loc	43 176 27
	leaq	_str.1(%rip), %rdi
	leaq	l___unnamed_36(%rip), %rdx
	movl	$33, %esi
	callq	__ZN4core9panicking5panic17hc1bc45270cf64b03E
LBB115_9:
	.loc	43 0 27 is_stmt 0
	movl	-92(%rbp), %eax
	movl	-96(%rbp), %ecx
Ltmp833:
	.loc	43 177 27 is_stmt 1
	movl	%ecx, -12(%rbp)
Ltmp834:
	.loc	43 178 28
	movl	$588, %ecx
	mull	%ecx
	movl	%eax, -100(%rbp)
	seto	%al
	testb	$1, %al
	jne	LBB115_12
	jmp	LBB115_11
Ltmp835:
LBB115_10:
	.loc	43 177 27
	leaq	_str.1(%rip), %rdi
	leaq	l___unnamed_37(%rip), %rdx
	movl	$33, %esi
	callq	__ZN4core9panicking5panic17hc1bc45270cf64b03E
LBB115_11:
	.loc	43 0 27 is_stmt 0
	movl	-96(%rbp), %eax
Ltmp836:
	.loc	43 178 48 is_stmt 1
	movl	$28, %ecx
	mull	%ecx
	movl	%eax, -104(%rbp)
	seto	%al
	testb	$1, %al
	jne	LBB115_14
	jmp	LBB115_13
LBB115_12:
	.loc	43 178 28 is_stmt 0
	leaq	_str.2(%rip), %rdi
	leaq	l___unnamed_38(%rip), %rdx
	movl	$33, %esi
	callq	__ZN4core9panicking5panic17hc1bc45270cf64b03E
LBB115_13:
	.loc	43 0 28
	movl	-104(%rbp), %ecx
	movl	-100(%rbp), %eax
	.loc	43 178 28
	addl	%ecx, %eax
	movl	%eax, -108(%rbp)
	setb	%al
	testb	$1, %al
	jne	LBB115_16
	jmp	LBB115_15
LBB115_14:
	.loc	43 178 48
	leaq	_str.2(%rip), %rdi
	leaq	l___unnamed_39(%rip), %rdx
	movl	$33, %esi
	callq	__ZN4core9panicking5panic17hc1bc45270cf64b03E
LBB115_15:
	.loc	43 0 48
	movl	-108(%rbp), %eax
	.loc	43 178 28
	movl	%eax, -8(%rbp)
Ltmp837:
	.loc	43 179 21 is_stmt 1
	addl	$44032, %eax
	movl	%eax, -112(%rbp)
	setb	%al
	testb	$1, %al
	jne	LBB115_18
	jmp	LBB115_17
Ltmp838:
LBB115_16:
	.loc	43 178 28
	leaq	_str.3(%rip), %rdi
	leaq	l___unnamed_38(%rip), %rdx
	movl	$28, %esi
	callq	__ZN4core9panicking5panic17hc1bc45270cf64b03E
LBB115_17:
	.loc	43 0 28 is_stmt 0
	movl	-112(%rbp), %edi
Ltmp839:
	.loc	43 179 21 is_stmt 1
	movl	%edi, -4(%rbp)
Ltmp840:
	.loc	43 180 27
	callq	__ZN4core4char18from_u32_unchecked17h546a673421d35440E
	.loc	43 180 13 is_stmt 0
	movl	%eax, -52(%rbp)
Ltmp841:
	.loc	43 181 9 is_stmt 1
	jmp	LBB115_30
LBB115_18:
Ltmp842:
	.loc	43 179 21
	leaq	_str.3(%rip), %rdi
	leaq	l___unnamed_40(%rip), %rdx
	movl	$28, %esi
	callq	__ZN4core9panicking5panic17hc1bc45270cf64b03E
Ltmp843:
LBB115_19:
	.loc	43 183 10
	cmpl	$55203, -40(%rbp)
	ja	LBB115_4
	.loc	43 183 27 is_stmt 0
	movl	$4520, %eax
	cmpl	-36(%rbp), %eax
	ja	LBB115_4
	cmpl	$4546, -36(%rbp)
	ja	LBB115_4
	.loc	43 0 27
	movl	-88(%rbp), %eax
	.loc	43 183 48
	movl	%eax, %ecx
	subl	$44032, %ecx
	movl	%ecx, -116(%rbp)
	cmpl	$44032, %eax
	setb	%al
	testb	$1, %al
	jne	LBB115_24
	.loc	43 0 48
	movl	-116(%rbp), %eax
	.loc	43 183 48
	movl	$28, %ecx
	xorl	%edx, %edx
	divl	%ecx
	cmpl	$0, %edx
	je	LBB115_25
	jmp	LBB115_4
LBB115_24:
	leaq	_str.1(%rip), %rdi
	leaq	l___unnamed_41(%rip), %rdx
	movl	$33, %esi
	callq	__ZN4core9panicking5panic17hc1bc45270cf64b03E
LBB115_25:
	.loc	43 0 48
	movl	-84(%rbp), %eax
	.loc	43 184 56 is_stmt 1
	movl	%eax, %ecx
	subl	$4519, %ecx
	movl	%ecx, -120(%rbp)
	cmpl	$4519, %eax
	setb	%al
	testb	$1, %al
	jne	LBB115_27
	.loc	43 0 56 is_stmt 0
	movl	-120(%rbp), %ecx
	movl	-88(%rbp), %eax
	.loc	43 184 52
	addl	%ecx, %eax
	movl	%eax, -124(%rbp)
	setb	%al
	testb	$1, %al
	jne	LBB115_29
	jmp	LBB115_28
LBB115_27:
	.loc	43 184 56
	leaq	_str.1(%rip), %rdi
	leaq	l___unnamed_42(%rip), %rdx
	movl	$33, %esi
	callq	__ZN4core9panicking5panic17hc1bc45270cf64b03E
LBB115_28:
	.loc	43 0 56
	movl	-124(%rbp), %edi
	.loc	43 184 27
	callq	__ZN4core4char18from_u32_unchecked17h546a673421d35440E
	.loc	43 184 13
	movl	%eax, -52(%rbp)
	.loc	43 184 71
	jmp	LBB115_30
LBB115_29:
	.loc	43 184 52
	leaq	_str.3(%rip), %rdi
	leaq	l___unnamed_43(%rip), %rdx
	movl	$28, %esi
	callq	__ZN4core9panicking5panic17hc1bc45270cf64b03E
Ltmp844:
LBB115_30:
	.loc	43 188 2 is_stmt 1
	movl	-52(%rbp), %edi
Ltmp845:
	.loc	43 106 34
	leaq	-80(%rbp), %rax
	movq	%rax, -72(%rbp)
	leaq	-76(%rbp), %rax
	movq	%rax, -64(%rbp)
	.loc	43 106 5 is_stmt 0
	movq	-72(%rbp), %rsi
	movq	-64(%rbp), %rdx
	callq	__ZN4core6option15Option$LT$T$GT$7or_else17h61e2d8bd7ee8ff18E
	.loc	43 107 2 is_stmt 1
	addq	$128, %rsp
	popq	%rbp
	retq
Ltmp846:
Lfunc_end115:
	.cfi_endproc

	.p2align	4, 0x90
__ZN21unicode_normalization9normalize7compose28_$u7b$$u7b$closure$u7d$$u7d$17hf5e7eee419ef3f2bE:
Lfunc_begin116:
	.loc	43 106 0
	.cfi_startproc
	pushq	%rbp
	.cfi_def_cfa_offset 16
	.cfi_offset %rbp, -16
	movq	%rsp, %rbp
	.cfi_def_cfa_register %rbp
	subq	$16, %rsp
	movq	%rdi, -16(%rbp)
	movq	%rsi, -8(%rbp)
Ltmp847:
	.loc	43 106 55 prologue_end
	movq	-16(%rbp), %rax
	movl	(%rax), %edi
	.loc	43 106 58 is_stmt 0
	movq	-8(%rbp), %rax
	movl	(%rax), %esi
	.loc	43 106 37
	callq	__ZN21unicode_normalization7lookups17composition_table17hbee10a3913fa513fE
	.loc	43 106 60
	addq	$16, %rsp
	popq	%rbp
	retq
Ltmp848:
Lfunc_end116:
	.cfi_endproc

	.globl	__ZN21unicode_normalization9normalize18is_hangul_syllable17h7b146c5444017317E
	.p2align	4, 0x90
__ZN21unicode_normalization9normalize18is_hangul_syllable17h7b146c5444017317E:
Lfunc_begin117:
	.loc	43 130 0 is_stmt 1
	.cfi_startproc
	pushq	%rbp
	.cfi_def_cfa_offset 16
	.cfi_offset %rbp, -16
	movq	%rsp, %rbp
	.cfi_def_cfa_register %rbp
	subq	$12, %rsp
	movl	%edi, -12(%rbp)
	movl	%edi, -4(%rbp)
Ltmp849:
	.loc	43 131 5 prologue_end
	cmpl	$44032, %edi
	jae	LBB117_2
	movb	$0, -5(%rbp)
	jmp	LBB117_3
LBB117_2:
	.loc	43 0 5 is_stmt 0
	movl	-12(%rbp), %eax
	.loc	43 131 29
	cmpl	$55204, %eax
	setb	%al
	.loc	43 131 5
	andb	$1, %al
	movb	%al, -5(%rbp)
LBB117_3:
	.loc	43 132 2 is_stmt 1
	movb	-5(%rbp), %al
	andb	$1, %al
	movzbl	%al, %eax
	addq	$12, %rsp
	popq	%rbp
	retq
Ltmp850:
Lfunc_end117:
	.cfi_endproc

	.p2align	4, 0x90
__ZN21unicode_normalization9normalize27hangul_decomposition_length17h7ee017c7ec6528ccE:
Lfunc_begin118:
	.loc	43 157 0
	.cfi_startproc
	pushq	%rbp
	.cfi_def_cfa_offset 16
	.cfi_offset %rbp, -16
	movq	%rsp, %rbp
	.cfi_def_cfa_register %rbp
	subq	$32, %rsp
	movl	%edi, -12(%rbp)
Ltmp851:
	.loc	43 158 14 prologue_end
	movl	%edi, %eax
	subl	$44032, %eax
	movl	%eax, -28(%rbp)
	cmpl	$44032, %edi
	setb	%al
	testb	$1, %al
	jne	LBB118_2
	.loc	43 0 14 is_stmt 0
	movl	-28(%rbp), %eax
	.loc	43 158 14
	movl	%eax, -8(%rbp)
Ltmp852:
	.loc	43 159 14 is_stmt 1
	movl	$28, %ecx
	xorl	%edx, %edx
	divl	%ecx
	movl	%edx, -4(%rbp)
Ltmp853:
	.loc	43 160 8
	cmpl	$0, %edx
	ja	LBB118_4
	jmp	LBB118_3
Ltmp854:
LBB118_2:
	.loc	43 158 14
	leaq	_str.1(%rip), %rdi
	leaq	l___unnamed_44(%rip), %rdx
	movl	$33, %esi
	callq	__ZN4core9panicking5panic17hc1bc45270cf64b03E
LBB118_3:
Ltmp855:
	.loc	43 163 9
	movq	$2, -24(%rbp)
	.loc	43 160 5
	jmp	LBB118_5
LBB118_4:
	.loc	43 161 9
	movq	$3, -24(%rbp)
Ltmp856:
LBB118_5:
	.loc	43 165 2
	movq	-24(%rbp), %rax
	addq	$32, %rsp
	popq	%rbp
	retq
Ltmp857:
Lfunc_end118:
	.cfi_endproc

	.p2align	4, 0x90
__ZN21unicode_normalization12perfect_hash7my_hash17h03b8eb37124e8a00E:
Lfunc_begin119:
	.file	44 "/Users/natalie/.cargo/registry/src/github.com-1ecc6299db9ec823/unicode-normalization-0.1.22" "src/perfect_hash.rs"
	.loc	44 16 0
	.cfi_startproc
	pushq	%rbp
	.cfi_def_cfa_offset 16
	.cfi_offset %rbp, -16
	movq	%rsp, %rbp
	.cfi_def_cfa_register %rbp
	subq	$64, %rsp
	movl	%edi, -48(%rbp)
	movl	%esi, -44(%rbp)
	movq	%rdx, -40(%rbp)
	movl	%edi, -24(%rbp)
	movl	%esi, -20(%rbp)
Ltmp858:
	.loc	16 1162 13 prologue_end
	movl	%edi, %eax
	addl	%esi, %eax
	movl	%eax, -8(%rbp)
	movl	$-1640531527, -4(%rbp)
Ltmp859:
	.loc	16 1226 13
	imull	$-1640531527, %eax, %eax
Ltmp860:
	.loc	44 17 13
	movl	%eax, -32(%rbp)
	movl	%edi, -16(%rbp)
	movl	$826366246, -12(%rbp)
Ltmp861:
	.loc	16 1226 13
	imull	$826366246, %edi, %ecx
Ltmp862:
	.loc	44 18 13
	xorl	%ecx, %eax
	movl	%eax, -28(%rbp)
Ltmp863:
	.loc	44 19 7
	movl	%eax, %eax
	.loc	44 19 6 is_stmt 0
	mulq	%rdx
	movq	%rax, -56(%rbp)
	seto	%al
	testb	$1, %al
	jne	LBB119_2
	.loc	44 0 6
	movq	-56(%rbp), %rax
	.loc	44 19 5
	shrq	$32, %rax
Ltmp864:
	.loc	44 20 2 is_stmt 1
	addq	$64, %rsp
	popq	%rbp
	retq
LBB119_2:
Ltmp865:
	.loc	44 19 6
	leaq	_str.2(%rip), %rdi
	leaq	l___unnamed_45(%rip), %rdx
	movl	$33, %esi
	callq	__ZN4core9panicking5panic17hc1bc45270cf64b03E
Ltmp866:
Lfunc_end119:
	.cfi_endproc

	.p2align	4, 0x90
__ZN21unicode_normalization12perfect_hash10mph_lookup17h2ec12762b67b4829E:
Lfunc_begin120:
	.loc	44 30 0
	.cfi_startproc
	.cfi_personality 155, _rust_eh_personality
	.cfi_lsda 16, Lexception9
	pushq	%rbp
	.cfi_def_cfa_offset 16
	.cfi_offset %rbp, -16
	movq	%rsp, %rbp
	.cfi_def_cfa_register %rbp
	subq	$192, %rsp
	movq	%r8, -144(%rbp)
	movq	%rcx, -136(%rbp)
	movq	%rdx, -128(%rbp)
	movq	%rsi, %rax
	movq	-128(%rbp), %rsi
	movq	%rax, -120(%rbp)
	movl	%edi, %edx
	movq	-120(%rbp), %rdi
	movl	%edx, -112(%rbp)
	movb	%r9b, %al
	movb	%al, -105(%rbp)
	movl	%edx, -68(%rbp)
	movq	%rdi, -64(%rbp)
	movq	%rsi, -56(%rbp)
	movq	%rcx, -48(%rbp)
	movq	%r8, -40(%rbp)
	andb	$1, %al
	movb	%al, -25(%rbp)
Ltmp884:
	.loc	44 43 9 prologue_end
	movb	$0, -69(%rbp)
	movb	$1, -69(%rbp)
Ltmp867:
	.loc	44 43 32 is_stmt 0
	callq	__ZN4core5slice29_$LT$impl$u20$$u5b$T$u5d$$GT$3len17h72d100693de4e74eE
Ltmp868:
	movq	%rax, -104(%rbp)
	jmp	LBB120_3
LBB120_1:
	.loc	44 50 1 is_stmt 1
	jmp	LBB120_16
LBB120_2:
Ltmp883:
	.loc	44 0 1 is_stmt 0
	movq	%rax, %rcx
	movl	%edx, %eax
	movq	%rcx, -24(%rbp)
	movl	%eax, -16(%rbp)
	jmp	LBB120_1
LBB120_3:
Ltmp869:
	movq	-104(%rbp), %rdx
	movl	-112(%rbp), %edi
	xorl	%esi, %esi
	.loc	44 43 18 is_stmt 1
	callq	__ZN21unicode_normalization12perfect_hash7my_hash17h03b8eb37124e8a00E
Ltmp870:
	movq	%rax, -152(%rbp)
	jmp	LBB120_4
LBB120_4:
	.loc	44 0 18 is_stmt 0
	movq	-152(%rbp), %rax
	movq	-128(%rbp), %rcx
	.loc	44 43 13
	cmpq	%rcx, %rax
	setb	%al
	testb	$1, %al
	jne	LBB120_5
	jmp	LBB120_6
LBB120_5:
	.loc	44 0 13
	movq	-128(%rbp), %rsi
	movq	-120(%rbp), %rdi
	movq	-152(%rbp), %rax
	.loc	44 43 13
	movzwl	(%rdi,%rax,2), %eax
	movl	%eax, -164(%rbp)
	movl	%eax, -8(%rbp)
Ltmp873:
Ltmp885:
	.loc	44 44 36 is_stmt 1
	callq	__ZN4core5slice29_$LT$impl$u20$$u5b$T$u5d$$GT$3len17h72d100693de4e74eE
Ltmp874:
	movq	%rax, -160(%rbp)
	jmp	LBB120_8
Ltmp886:
LBB120_6:
Ltmp871:
	.loc	44 0 36 is_stmt 0
	movq	-128(%rbp), %rsi
	movq	-152(%rbp), %rdi
	.loc	44 43 13 is_stmt 1
	leaq	l___unnamed_46(%rip), %rdx
	callq	__ZN4core9panicking18panic_bounds_check17hacb8a94866cda541E
Ltmp872:
	jmp	LBB120_7
LBB120_7:
	.loc	44 0 13 is_stmt 0
	ud2
LBB120_8:
Ltmp875:
	movq	-160(%rbp), %rdx
	movl	-164(%rbp), %esi
	movl	-112(%rbp), %edi
Ltmp887:
	.loc	44 44 22 is_stmt 1
	callq	__ZN21unicode_normalization12perfect_hash7my_hash17h03b8eb37124e8a00E
Ltmp876:
	movq	%rax, -176(%rbp)
	jmp	LBB120_9
LBB120_9:
	.loc	44 0 22 is_stmt 0
	movq	-176(%rbp), %rax
	movq	-144(%rbp), %rcx
	.loc	44 44 19
	cmpq	%rcx, %rax
	setb	%al
	testb	$1, %al
	jne	LBB120_10
	jmp	LBB120_11
LBB120_10:
	.loc	44 0 19
	movq	-136(%rbp), %rax
	movq	-176(%rbp), %rcx
	.loc	44 44 19
	movl	(%rax,%rcx,4), %eax
	movl	%eax, -184(%rbp)
	movl	%eax, -4(%rbp)
Ltmp888:
	.loc	44 45 13 is_stmt 1
	movl	%eax, -80(%rbp)
	movl	-80(%rbp), %esi
Ltmp879:
	leaq	-96(%rbp), %rdi
	callq	__ZN4core3ops8function2Fn4call17h4f1e885c4e10f64aE
Ltmp880:
	movl	%eax, -180(%rbp)
	jmp	LBB120_12
Ltmp889:
LBB120_11:
Ltmp877:
	.loc	44 0 13 is_stmt 0
	movq	-144(%rbp), %rsi
	movq	-176(%rbp), %rdi
	.loc	44 44 19 is_stmt 1
	leaq	l___unnamed_47(%rip), %rdx
	callq	__ZN4core9panicking18panic_bounds_check17hacb8a94866cda541E
Ltmp878:
	jmp	LBB120_7
LBB120_12:
	.loc	44 0 19 is_stmt 0
	movl	-112(%rbp), %eax
	movl	-180(%rbp), %ecx
Ltmp890:
	.loc	44 45 8 is_stmt 1
	cmpl	%ecx, %eax
	je	LBB120_14
	.loc	44 0 8 is_stmt 0
	movb	-105(%rbp), %al
	.loc	44 48 9 is_stmt 1
	movb	$0, -69(%rbp)
	andb	$1, %al
	movb	%al, -81(%rbp)
	.loc	44 45 5
	jmp	LBB120_17
LBB120_14:
	.loc	44 0 5 is_stmt 0
	movl	-184(%rbp), %eax
	.loc	44 46 9 is_stmt 1
	movl	%eax, -76(%rbp)
	movl	-76(%rbp), %esi
Ltmp881:
	leaq	-88(%rbp), %rdi
	callq	__ZN4core3ops8function2Fn4call17hb53f743dd234a1b7E
Ltmp882:
	movb	%al, -185(%rbp)
	jmp	LBB120_15
LBB120_15:
	.loc	44 0 9 is_stmt 0
	movb	-185(%rbp), %al
	.loc	44 46 9
	andb	$1, %al
	movb	%al, -81(%rbp)
	jmp	LBB120_17
Ltmp891:
LBB120_16:
	.loc	44 50 1 is_stmt 1
	jmp	LBB120_20
LBB120_17:
	testb	$1, -69(%rbp)
	jne	LBB120_19
LBB120_18:
	jmp	LBB120_21
LBB120_19:
	jmp	LBB120_18
LBB120_20:
	.loc	44 30 1
	movq	-24(%rbp), %rdi
	callq	__Unwind_Resume
LBB120_21:
	.loc	44 50 2
	movb	-81(%rbp), %al
	andb	$1, %al
	movzbl	%al, %eax
	addq	$192, %rsp
	popq	%rbp
	retq
Ltmp892:
Lfunc_end120:
	.cfi_endproc
	.section	__TEXT,__gcc_except_tab
	.p2align	2
GCC_except_table120:
Lexception9:
	.byte	255
	.byte	255
	.byte	1
	.uleb128 Lcst_end9-Lcst_begin9
Lcst_begin9:
	.uleb128 Ltmp867-Lfunc_begin120
	.uleb128 Ltmp882-Ltmp867
	.uleb128 Ltmp883-Lfunc_begin120
	.byte	0
	.uleb128 Ltmp882-Lfunc_begin120
	.uleb128 Lfunc_end120-Ltmp882
	.byte	0
	.byte	0
Lcst_end9:
	.p2align	2

	.section	__TEXT,__text,regular,pure_instructions
	.p2align	4, 0x90
__ZN21unicode_normalization12perfect_hash10mph_lookup17h768c7c34f11f6165E:
Lfunc_begin121:
	.loc	44 30 0
	.cfi_startproc
	.cfi_personality 155, _rust_eh_personality
	.cfi_lsda 16, Lexception10
	pushq	%rbp
	.cfi_def_cfa_offset 16
	.cfi_offset %rbp, -16
	movq	%rsp, %rbp
	.cfi_def_cfa_register %rbp
	subq	$240, %rsp
	movq	%rdx, -184(%rbp)
	movq	%rsi, %rax
	movq	-184(%rbp), %rsi
	movq	%rax, -176(%rbp)
	movl	%edi, %eax
	movq	-176(%rbp), %rdi
	movl	%eax, -164(%rbp)
	movq	%rdi, -160(%rbp)
	movq	%rsi, -152(%rbp)
	movq	%rcx, -144(%rbp)
	movq	%r8, -136(%rbp)
	movl	%r9d, -124(%rbp)
	movl	%eax, -76(%rbp)
	movq	%rdi, -72(%rbp)
	movq	%rsi, -64(%rbp)
	movq	%rcx, -56(%rbp)
	movq	%r8, -48(%rbp)
	movl	%r9d, -36(%rbp)
Ltmp910:
	.loc	44 43 9 prologue_end
	movb	$0, -77(%rbp)
	movb	$1, -77(%rbp)
Ltmp893:
	.loc	44 43 32 is_stmt 0
	callq	__ZN4core5slice29_$LT$impl$u20$$u5b$T$u5d$$GT$3len17h72d100693de4e74eE
Ltmp894:
	movq	%rax, -120(%rbp)
	jmp	LBB121_3
LBB121_1:
	.loc	44 50 1 is_stmt 1
	jmp	LBB121_16
LBB121_2:
Ltmp909:
	.loc	44 0 1 is_stmt 0
	movq	%rax, %rcx
	movl	%edx, %eax
	movq	%rcx, -32(%rbp)
	movl	%eax, -24(%rbp)
	jmp	LBB121_1
LBB121_3:
Ltmp895:
	movq	-120(%rbp), %rdx
	movl	-164(%rbp), %edi
	xorl	%esi, %esi
	.loc	44 43 18 is_stmt 1
	callq	__ZN21unicode_normalization12perfect_hash7my_hash17h03b8eb37124e8a00E
Ltmp896:
	movq	%rax, -192(%rbp)
	jmp	LBB121_4
LBB121_4:
	.loc	44 0 18 is_stmt 0
	movq	-192(%rbp), %rax
	movq	-152(%rbp), %rcx
	.loc	44 43 13
	cmpq	%rcx, %rax
	setb	%al
	testb	$1, %al
	jne	LBB121_5
	jmp	LBB121_6
LBB121_5:
	.loc	44 0 13
	movq	-152(%rbp), %rsi
	movq	-160(%rbp), %rdi
	movq	-192(%rbp), %rax
	.loc	44 43 13
	movzwl	(%rdi,%rax,2), %eax
	movl	%eax, -204(%rbp)
	movl	%eax, -12(%rbp)
Ltmp899:
Ltmp911:
	.loc	44 44 36 is_stmt 1
	callq	__ZN4core5slice29_$LT$impl$u20$$u5b$T$u5d$$GT$3len17h72d100693de4e74eE
Ltmp900:
	movq	%rax, -200(%rbp)
	jmp	LBB121_8
Ltmp912:
LBB121_6:
Ltmp897:
	.loc	44 0 36 is_stmt 0
	movq	-152(%rbp), %rsi
	movq	-192(%rbp), %rdi
	.loc	44 43 13 is_stmt 1
	leaq	l___unnamed_46(%rip), %rdx
	callq	__ZN4core9panicking18panic_bounds_check17hacb8a94866cda541E
Ltmp898:
	jmp	LBB121_7
LBB121_7:
	.loc	44 0 13 is_stmt 0
	ud2
LBB121_8:
Ltmp901:
	movq	-200(%rbp), %rdx
	movl	-204(%rbp), %esi
	movl	-164(%rbp), %edi
Ltmp913:
	.loc	44 44 22 is_stmt 1
	callq	__ZN21unicode_normalization12perfect_hash7my_hash17h03b8eb37124e8a00E
Ltmp902:
	movq	%rax, -216(%rbp)
	jmp	LBB121_9
LBB121_9:
	.loc	44 0 22 is_stmt 0
	movq	-216(%rbp), %rax
	movq	-136(%rbp), %rcx
	.loc	44 44 19
	cmpq	%rcx, %rax
	setb	%al
	testb	$1, %al
	jne	LBB121_10
	jmp	LBB121_11
LBB121_10:
	.loc	44 0 19
	movq	-144(%rbp), %rax
	movq	-216(%rbp), %rdx
	.loc	44 44 19
	movl	(%rax,%rdx,8), %ecx
	movl	%ecx, -228(%rbp)
	movl	4(%rax,%rdx,8), %eax
	movl	%eax, -224(%rbp)
	movl	%ecx, -8(%rbp)
	movl	%eax, -4(%rbp)
Ltmp914:
	.loc	44 45 13 is_stmt 1
	movl	%ecx, -96(%rbp)
	movl	%eax, -92(%rbp)
	movl	-96(%rbp), %esi
	movl	-92(%rbp), %edx
Ltmp905:
	leaq	-112(%rbp), %rdi
	callq	__ZN4core3ops8function2Fn4call17hf124eb87f2e66cecE
Ltmp906:
	movl	%eax, -220(%rbp)
	jmp	LBB121_12
Ltmp915:
LBB121_11:
Ltmp903:
	.loc	44 0 13 is_stmt 0
	movq	-136(%rbp), %rsi
	movq	-216(%rbp), %rdi
	.loc	44 44 19 is_stmt 1
	leaq	l___unnamed_47(%rip), %rdx
	callq	__ZN4core9panicking18panic_bounds_check17hacb8a94866cda541E
Ltmp904:
	jmp	LBB121_7
LBB121_12:
	.loc	44 0 19 is_stmt 0
	movl	-164(%rbp), %eax
	movl	-220(%rbp), %ecx
Ltmp916:
	.loc	44 45 8 is_stmt 1
	cmpl	%ecx, %eax
	je	LBB121_14
	.loc	44 0 8 is_stmt 0
	movl	-124(%rbp), %eax
	.loc	44 48 9 is_stmt 1
	movb	$0, -77(%rbp)
	movl	%eax, -100(%rbp)
	.loc	44 45 5
	jmp	LBB121_17
LBB121_14:
	.loc	44 0 5 is_stmt 0
	movl	-224(%rbp), %eax
	movl	-228(%rbp), %ecx
	.loc	44 46 9 is_stmt 1
	movl	%ecx, -88(%rbp)
	movl	%eax, -84(%rbp)
	movl	-88(%rbp), %esi
	movl	-84(%rbp), %edx
Ltmp907:
	leaq	-104(%rbp), %rdi
	callq	__ZN4core3ops8function2Fn4call17h64810efd87dccf13E
Ltmp908:
	movl	%eax, -232(%rbp)
	jmp	LBB121_15
LBB121_15:
	.loc	44 0 9 is_stmt 0
	movl	-232(%rbp), %eax
	.loc	44 46 9
	movl	%eax, -100(%rbp)
	jmp	LBB121_17
Ltmp917:
LBB121_16:
	.loc	44 50 1 is_stmt 1
	jmp	LBB121_20
LBB121_17:
	testb	$1, -77(%rbp)
	jne	LBB121_19
LBB121_18:
	jmp	LBB121_21
LBB121_19:
	jmp	LBB121_18
LBB121_20:
	.loc	44 30 1
	movq	-32(%rbp), %rdi
	callq	__Unwind_Resume
LBB121_21:
	.loc	44 50 2
	movl	-100(%rbp), %eax
	addq	$240, %rsp
	popq	%rbp
	retq
Ltmp918:
Lfunc_end121:
	.cfi_endproc
	.section	__TEXT,__gcc_except_tab
	.p2align	2
GCC_except_table121:
Lexception10:
	.byte	255
	.byte	255
	.byte	1
	.uleb128 Lcst_end10-Lcst_begin10
Lcst_begin10:
	.uleb128 Ltmp893-Lfunc_begin121
	.uleb128 Ltmp908-Ltmp893
	.uleb128 Ltmp909-Lfunc_begin121
	.byte	0
	.uleb128 Ltmp908-Lfunc_begin121
	.uleb128 Lfunc_end121-Ltmp908
	.byte	0
	.byte	0
Lcst_end10:
	.p2align	2

	.section	__TEXT,__text,regular,pure_instructions
	.p2align	4, 0x90
__ZN21unicode_normalization12perfect_hash10mph_lookup17h945d78e319b1bdebE:
Lfunc_begin122:
	.loc	44 30 0
	.cfi_startproc
	.cfi_personality 155, _rust_eh_personality
	.cfi_lsda 16, Lexception11
	pushq	%rbp
	.cfi_def_cfa_offset 16
	.cfi_offset %rbp, -16
	movq	%rsp, %rbp
	.cfi_def_cfa_register %rbp
	subq	$256, %rsp
	movq	%r8, -200(%rbp)
	movq	%rcx, -192(%rbp)
	movq	%rdx, -184(%rbp)
	movq	%rsi, %rax
	movq	-184(%rbp), %rsi
	movq	%rax, -176(%rbp)
	movl	%edi, %eax
	movq	-176(%rbp), %rdi
	movl	%eax, -164(%rbp)
	movl	%r9d, %edx
	movl	%edx, -128(%rbp)
	shrq	$32, %r9
	movw	%r9w, %dx
	movw	%dx, -124(%rbp)
	movw	-124(%rbp), %dx
	movw	%dx, -132(%rbp)
	movl	-128(%rbp), %edx
	movl	%edx, -136(%rbp)
	movl	%eax, -68(%rbp)
	movq	%rdi, -64(%rbp)
	movq	%rsi, -56(%rbp)
	movq	%rcx, -48(%rbp)
	movq	%r8, -40(%rbp)
Ltmp936:
	.loc	44 43 9 prologue_end
	movb	$0, -69(%rbp)
	movb	$1, -69(%rbp)
Ltmp919:
	.loc	44 43 32 is_stmt 0
	callq	__ZN4core5slice29_$LT$impl$u20$$u5b$T$u5d$$GT$3len17h72d100693de4e74eE
Ltmp920:
	movq	%rax, -160(%rbp)
	jmp	LBB122_3
LBB122_1:
	.loc	44 50 1 is_stmt 1
	jmp	LBB122_16
LBB122_2:
Ltmp935:
	.loc	44 0 1 is_stmt 0
	movq	%rax, %rcx
	movl	%edx, %eax
	movq	%rcx, -32(%rbp)
	movl	%eax, -24(%rbp)
	jmp	LBB122_1
LBB122_3:
Ltmp921:
	movq	-160(%rbp), %rdx
	movl	-164(%rbp), %edi
	xorl	%esi, %esi
	.loc	44 43 18 is_stmt 1
	callq	__ZN21unicode_normalization12perfect_hash7my_hash17h03b8eb37124e8a00E
Ltmp922:
	movq	%rax, -208(%rbp)
	jmp	LBB122_4
LBB122_4:
	.loc	44 0 18 is_stmt 0
	movq	-208(%rbp), %rax
	movq	-184(%rbp), %rcx
	.loc	44 43 13
	cmpq	%rcx, %rax
	setb	%al
	testb	$1, %al
	jne	LBB122_5
	jmp	LBB122_6
LBB122_5:
	.loc	44 0 13
	movq	-184(%rbp), %rsi
	movq	-176(%rbp), %rdi
	movq	-208(%rbp), %rax
	.loc	44 43 13
	movzwl	(%rdi,%rax,2), %eax
	movl	%eax, -220(%rbp)
	movl	%eax, -12(%rbp)
Ltmp925:
Ltmp937:
	.loc	44 44 36 is_stmt 1
	callq	__ZN4core5slice29_$LT$impl$u20$$u5b$T$u5d$$GT$3len17h72d100693de4e74eE
Ltmp926:
	movq	%rax, -216(%rbp)
	jmp	LBB122_8
Ltmp938:
LBB122_6:
Ltmp923:
	.loc	44 0 36 is_stmt 0
	movq	-184(%rbp), %rsi
	movq	-208(%rbp), %rdi
	.loc	44 43 13 is_stmt 1
	leaq	l___unnamed_46(%rip), %rdx
	callq	__ZN4core9panicking18panic_bounds_check17hacb8a94866cda541E
Ltmp924:
	jmp	LBB122_7
LBB122_7:
	.loc	44 0 13 is_stmt 0
	ud2
LBB122_8:
Ltmp927:
	movq	-216(%rbp), %rdx
	movl	-220(%rbp), %esi
	movl	-164(%rbp), %edi
Ltmp939:
	.loc	44 44 22 is_stmt 1
	callq	__ZN21unicode_normalization12perfect_hash7my_hash17h03b8eb37124e8a00E
Ltmp928:
	movq	%rax, -232(%rbp)
	jmp	LBB122_9
LBB122_9:
	.loc	44 0 22 is_stmt 0
	movq	-232(%rbp), %rax
	movq	-200(%rbp), %rcx
	.loc	44 44 19
	cmpq	%rcx, %rax
	setb	%al
	testb	$1, %al
	jne	LBB122_10
	jmp	LBB122_11
LBB122_10:
	.loc	44 0 19
	movq	-192(%rbp), %rax
	movq	-232(%rbp), %rcx
	.loc	44 44 19
	movq	(%rax,%rcx,8), %rax
	movq	%rax, -112(%rbp)
Ltmp940:
	.loc	44 45 16 is_stmt 1
	movq	-112(%rbp), %rax
	movq	%rax, -96(%rbp)
	.loc	44 45 13 is_stmt 0
	movq	-96(%rbp), %rax
	movq	%rax, -104(%rbp)
	movq	-104(%rbp), %rsi
Ltmp931:
	leaq	-152(%rbp), %rdi
	callq	__ZN4core3ops8function2Fn4call17h6aa9ebf3aa621651E
Ltmp932:
	movl	%eax, -236(%rbp)
	jmp	LBB122_12
Ltmp941:
LBB122_11:
Ltmp929:
	.loc	44 0 13
	movq	-200(%rbp), %rsi
	movq	-232(%rbp), %rdi
	.loc	44 44 19 is_stmt 1
	leaq	l___unnamed_47(%rip), %rdx
	callq	__ZN4core9panicking18panic_bounds_check17hacb8a94866cda541E
Ltmp930:
	jmp	LBB122_7
LBB122_12:
	.loc	44 0 19 is_stmt 0
	movl	-164(%rbp), %eax
	movl	-236(%rbp), %ecx
Ltmp942:
	.loc	44 45 8 is_stmt 1
	cmpl	%ecx, %eax
	je	LBB122_14
	.loc	44 48 9
	movb	$0, -69(%rbp)
	movl	-136(%rbp), %eax
	movl	%eax, -120(%rbp)
	movw	-132(%rbp), %ax
	movw	%ax, -116(%rbp)
	.loc	44 45 5
	jmp	LBB122_17
LBB122_14:
	.loc	44 46 12
	movq	-112(%rbp), %rax
	movq	%rax, -80(%rbp)
	.loc	44 46 9 is_stmt 0
	movq	-80(%rbp), %rax
	movq	%rax, -88(%rbp)
	movq	-88(%rbp), %rsi
Ltmp933:
	leaq	-144(%rbp), %rdi
	callq	__ZN4core3ops8function2Fn4call17hfa20c629b00461cbE
Ltmp934:
	movq	%rax, -248(%rbp)
	jmp	LBB122_15
LBB122_15:
	.loc	44 0 9
	movq	-248(%rbp), %rax
	.loc	44 46 9
	movl	%eax, %ecx
	movl	%ecx, -8(%rbp)
	shrq	$32, %rax
	movw	%ax, -4(%rbp)
	movl	-8(%rbp), %eax
	movl	%eax, -120(%rbp)
	movw	-4(%rbp), %ax
	movw	%ax, -116(%rbp)
	jmp	LBB122_17
Ltmp943:
LBB122_16:
	.loc	44 50 1 is_stmt 1
	jmp	LBB122_20
LBB122_17:
	testb	$1, -69(%rbp)
	jne	LBB122_19
LBB122_18:
	jmp	LBB122_21
LBB122_19:
	jmp	LBB122_18
LBB122_20:
	.loc	44 30 1
	movq	-32(%rbp), %rdi
	callq	__Unwind_Resume
LBB122_21:
	.loc	44 50 2
	movl	-120(%rbp), %eax
	movzwl	-116(%rbp), %ecx
	shlq	$32, %rcx
	orq	%rcx, %rax
	addq	$256, %rsp
	popq	%rbp
	retq
Ltmp944:
Lfunc_end122:
	.cfi_endproc
	.section	__TEXT,__gcc_except_tab
	.p2align	2
GCC_except_table122:
Lexception11:
	.byte	255
	.byte	255
	.byte	1
	.uleb128 Lcst_end11-Lcst_begin11
Lcst_begin11:
	.uleb128 Ltmp919-Lfunc_begin122
	.uleb128 Ltmp934-Ltmp919
	.uleb128 Ltmp935-Lfunc_begin122
	.byte	0
	.uleb128 Ltmp934-Lfunc_begin122
	.uleb128 Lfunc_end122-Ltmp934
	.byte	0
	.byte	0
Lcst_end11:
	.p2align	2

	.section	__TEXT,__text,regular,pure_instructions
	.p2align	4, 0x90
__ZN21unicode_normalization12perfect_hash10mph_lookup17ha44dd9ba7310febbE:
Lfunc_begin123:
	.loc	44 30 0
	.cfi_startproc
	.cfi_personality 155, _rust_eh_personality
	.cfi_lsda 16, Lexception12
	pushq	%rbp
	.cfi_def_cfa_offset 16
	.cfi_offset %rbp, -16
	movq	%rsp, %rbp
	.cfi_def_cfa_register %rbp
	subq	$192, %rsp
	movq	%r8, -144(%rbp)
	movq	%rcx, -136(%rbp)
	movq	%rdx, -128(%rbp)
	movq	%rsi, %rax
	movq	-128(%rbp), %rsi
	movq	%rax, -120(%rbp)
	movl	%edi, %edx
	movq	-120(%rbp), %rdi
	movl	%edx, -112(%rbp)
	movb	%r9b, %al
	movb	%al, -105(%rbp)
	movl	%edx, -68(%rbp)
	movq	%rdi, -64(%rbp)
	movq	%rsi, -56(%rbp)
	movq	%rcx, -48(%rbp)
	movq	%r8, -40(%rbp)
	movb	%al, -25(%rbp)
Ltmp962:
	.loc	44 43 9 prologue_end
	movb	$0, -69(%rbp)
	movb	$1, -69(%rbp)
Ltmp945:
	.loc	44 43 32 is_stmt 0
	callq	__ZN4core5slice29_$LT$impl$u20$$u5b$T$u5d$$GT$3len17h72d100693de4e74eE
Ltmp946:
	movq	%rax, -104(%rbp)
	jmp	LBB123_3
LBB123_1:
	.loc	44 50 1 is_stmt 1
	jmp	LBB123_16
LBB123_2:
Ltmp961:
	.loc	44 0 1 is_stmt 0
	movq	%rax, %rcx
	movl	%edx, %eax
	movq	%rcx, -24(%rbp)
	movl	%eax, -16(%rbp)
	jmp	LBB123_1
LBB123_3:
Ltmp947:
	movq	-104(%rbp), %rdx
	movl	-112(%rbp), %edi
	xorl	%esi, %esi
	.loc	44 43 18 is_stmt 1
	callq	__ZN21unicode_normalization12perfect_hash7my_hash17h03b8eb37124e8a00E
Ltmp948:
	movq	%rax, -152(%rbp)
	jmp	LBB123_4
LBB123_4:
	.loc	44 0 18 is_stmt 0
	movq	-152(%rbp), %rax
	movq	-128(%rbp), %rcx
	.loc	44 43 13
	cmpq	%rcx, %rax
	setb	%al
	testb	$1, %al
	jne	LBB123_5
	jmp	LBB123_6
LBB123_5:
	.loc	44 0 13
	movq	-128(%rbp), %rsi
	movq	-120(%rbp), %rdi
	movq	-152(%rbp), %rax
	.loc	44 43 13
	movzwl	(%rdi,%rax,2), %eax
	movl	%eax, -164(%rbp)
	movl	%eax, -8(%rbp)
Ltmp951:
Ltmp963:
	.loc	44 44 36 is_stmt 1
	callq	__ZN4core5slice29_$LT$impl$u20$$u5b$T$u5d$$GT$3len17h72d100693de4e74eE
Ltmp952:
	movq	%rax, -160(%rbp)
	jmp	LBB123_8
Ltmp964:
LBB123_6:
Ltmp949:
	.loc	44 0 36 is_stmt 0
	movq	-128(%rbp), %rsi
	movq	-152(%rbp), %rdi
	.loc	44 43 13 is_stmt 1
	leaq	l___unnamed_46(%rip), %rdx
	callq	__ZN4core9panicking18panic_bounds_check17hacb8a94866cda541E
Ltmp950:
	jmp	LBB123_7
LBB123_7:
	.loc	44 0 13 is_stmt 0
	ud2
LBB123_8:
Ltmp953:
	movq	-160(%rbp), %rdx
	movl	-164(%rbp), %esi
	movl	-112(%rbp), %edi
Ltmp965:
	.loc	44 44 22 is_stmt 1
	callq	__ZN21unicode_normalization12perfect_hash7my_hash17h03b8eb37124e8a00E
Ltmp954:
	movq	%rax, -176(%rbp)
	jmp	LBB123_9
LBB123_9:
	.loc	44 0 22 is_stmt 0
	movq	-176(%rbp), %rax
	movq	-144(%rbp), %rcx
	.loc	44 44 19
	cmpq	%rcx, %rax
	setb	%al
	testb	$1, %al
	jne	LBB123_10
	jmp	LBB123_11
LBB123_10:
	.loc	44 0 19
	movq	-136(%rbp), %rax
	movq	-176(%rbp), %rcx
	.loc	44 44 19
	movl	(%rax,%rcx,4), %eax
	movl	%eax, -184(%rbp)
	movl	%eax, -4(%rbp)
Ltmp966:
	.loc	44 45 13 is_stmt 1
	movl	%eax, -80(%rbp)
	movl	-80(%rbp), %esi
Ltmp957:
	leaq	-96(%rbp), %rdi
	callq	__ZN4core3ops8function2Fn4call17he7843ca30c0084e6E
Ltmp958:
	movl	%eax, -180(%rbp)
	jmp	LBB123_12
Ltmp967:
LBB123_11:
Ltmp955:
	.loc	44 0 13 is_stmt 0
	movq	-144(%rbp), %rsi
	movq	-176(%rbp), %rdi
	.loc	44 44 19 is_stmt 1
	leaq	l___unnamed_47(%rip), %rdx
	callq	__ZN4core9panicking18panic_bounds_check17hacb8a94866cda541E
Ltmp956:
	jmp	LBB123_7
LBB123_12:
	.loc	44 0 19 is_stmt 0
	movl	-112(%rbp), %eax
	movl	-180(%rbp), %ecx
Ltmp968:
	.loc	44 45 8 is_stmt 1
	cmpl	%ecx, %eax
	je	LBB123_14
	.loc	44 0 8 is_stmt 0
	movb	-105(%rbp), %al
	.loc	44 48 9 is_stmt 1
	movb	$0, -69(%rbp)
	movb	%al, -81(%rbp)
	.loc	44 45 5
	jmp	LBB123_17
LBB123_14:
	.loc	44 0 5 is_stmt 0
	movl	-184(%rbp), %eax
	.loc	44 46 9 is_stmt 1
	movl	%eax, -76(%rbp)
	movl	-76(%rbp), %esi
Ltmp959:
	leaq	-88(%rbp), %rdi
	callq	__ZN4core3ops8function2Fn4call17hda12656a66e1a4a6E
Ltmp960:
	movb	%al, -185(%rbp)
	jmp	LBB123_15
LBB123_15:
	.loc	44 0 9 is_stmt 0
	movb	-185(%rbp), %al
	.loc	44 46 9
	movb	%al, -81(%rbp)
	jmp	LBB123_17
Ltmp969:
LBB123_16:
	.loc	44 50 1 is_stmt 1
	jmp	LBB123_20
LBB123_17:
	testb	$1, -69(%rbp)
	jne	LBB123_19
LBB123_18:
	jmp	LBB123_21
LBB123_19:
	jmp	LBB123_18
LBB123_20:
	.loc	44 30 1
	movq	-24(%rbp), %rdi
	callq	__Unwind_Resume
LBB123_21:
	.loc	44 50 2
	movb	-81(%rbp), %al
	addq	$192, %rsp
	popq	%rbp
	retq
Ltmp970:
Lfunc_end123:
	.cfi_endproc
	.section	__TEXT,__gcc_except_tab
	.p2align	2
GCC_except_table123:
Lexception12:
	.byte	255
	.byte	255
	.byte	1
	.uleb128 Lcst_end12-Lcst_begin12
Lcst_begin12:
	.uleb128 Ltmp945-Lfunc_begin123
	.uleb128 Ltmp960-Ltmp945
	.uleb128 Ltmp961-Lfunc_begin123
	.byte	0
	.uleb128 Ltmp960-Lfunc_begin123
	.uleb128 Lfunc_end123-Ltmp960
	.byte	0
	.byte	0
Lcst_end12:
	.p2align	2

	.section	__TEXT,__text,regular,pure_instructions
	.globl	__ZN21unicode_normalization11stream_safe19StreamSafe$LT$I$GT$3new17hfb7275a211d0c3e3E
	.p2align	4, 0x90
__ZN21unicode_normalization11stream_safe19StreamSafe$LT$I$GT$3new17hfb7275a211d0c3e3E:
Lfunc_begin124:
	.file	45 "/Users/natalie/.cargo/registry/src/github.com-1ecc6299db9ec823/unicode-normalization-0.1.22" "src/stream_safe.rs"
	.loc	45 21 0
	.cfi_startproc
	pushq	%rbp
	.cfi_def_cfa_offset 16
	.cfi_offset %rbp, -16
	movq	%rsp, %rbp
	.cfi_def_cfa_register %rbp
	subq	$24, %rsp
	movq	%rdi, %rax
	movq	%rsi, -16(%rbp)
	movq	%rdx, -8(%rbp)
Ltmp971:
	.loc	45 25 21 prologue_end
	movl	$1114112, -20(%rbp)
	.loc	45 22 9
	movq	%rsi, (%rdi)
	movq	%rdx, 8(%rdi)
	movq	$0, 16(%rdi)
	movl	-20(%rbp), %ecx
	movl	%ecx, 24(%rdi)
	.loc	45 27 6
	addq	$24, %rsp
	popq	%rbp
	retq
Ltmp972:
Lfunc_end124:
	.cfi_endproc

	.globl	__ZN114_$LT$unicode_normalization..stream_safe..StreamSafe$LT$I$GT$$u20$as$u20$core..iter..traits..iterator..Iterator$GT$4next17h632ab25ecfd05c02E
	.p2align	4, 0x90
__ZN114_$LT$unicode_normalization..stream_safe..StreamSafe$LT$I$GT$$u20$as$u20$core..iter..traits..iterator..Iterator$GT$4next17h632ab25ecfd05c02E:
Lfunc_begin125:
	.loc	45 34 0
	.cfi_startproc
	pushq	%rbp
	.cfi_def_cfa_offset 16
	.cfi_offset %rbp, -16
	movq	%rsp, %rbp
	.cfi_def_cfa_register %rbp
	subq	$96, %rsp
	movq	%rdi, -64(%rbp)
Ltmp973:
	.loc	45 35 29 prologue_end
	movq	-64(%rbp), %rdi
	addq	$24, %rdi
	callq	__ZN4core6option15Option$LT$T$GT$4take17hcd7d2281eb4abd3cE
	movl	%eax, %edi
	.loc	45 35 56 is_stmt 0
	leaq	-64(%rbp), %rax
	movq	%rax, -48(%rbp)
	.loc	45 35 29
	movq	-48(%rbp), %rsi
	callq	__ZN4core6option15Option$LT$T$GT$7or_else17he439db7085729d96E
	movl	%eax, -52(%rbp)
	movl	$1, %eax
	xorl	%ecx, %ecx
	cmpl	$1114112, -52(%rbp)
	cmoveq	%rcx, %rax
	.loc	45 35 23
	cmpq	$0, %rax
	jne	LBB125_2
	.loc	45 36 28 is_stmt 1
	movl	$1114112, -56(%rbp)
	.loc	20 1 1
	jmp	LBB125_7
LBB125_2:
	.loc	45 37 18
	movl	-52(%rbp), %esi
	movl	%esi, -76(%rbp)
	movl	%esi, -8(%rbp)
Ltmp974:
	.loc	45 37 24 is_stmt 0
	movl	%esi, -4(%rbp)
Ltmp975:
	.loc	45 39 17 is_stmt 1
	leaq	-40(%rbp), %rdi
	callq	__ZN21unicode_normalization11stream_safe20classify_nonstarters17hd6a3b56455201fa7E
Ltmp976:
	.loc	45 40 12
	movq	-64(%rbp), %rax
	movq	16(%rax), %rax
	addq	-40(%rbp), %rax
	movq	%rax, -72(%rbp)
	setb	%al
	testb	$1, %al
	jne	LBB125_4
	.loc	45 0 12 is_stmt 0
	movq	-72(%rbp), %rax
	.loc	45 40 12
	cmpq	$30, %rax
	ja	LBB125_6
	jmp	LBB125_5
LBB125_4:
	leaq	_str.3(%rip), %rdi
	leaq	l___unnamed_48(%rip), %rdx
	movl	$28, %esi
	callq	__ZN4core9panicking5panic17hc1bc45270cf64b03E
LBB125_5:
	.loc	45 51 12 is_stmt 1
	movq	-40(%rbp), %rax
	cmpq	-24(%rbp), %rax
	je	LBB125_9
	jmp	LBB125_8
LBB125_6:
	.loc	45 0 12 is_stmt 0
	movl	-76(%rbp), %eax
	.loc	45 44 13 is_stmt 1
	movq	-64(%rbp), %rcx
	movq	$0, 16(%rcx)
	.loc	45 45 27
	movl	%eax, -12(%rbp)
	.loc	45 45 13 is_stmt 0
	movq	-64(%rbp), %rax
	movl	-12(%rbp), %ecx
	movl	%ecx, 24(%rax)
	.loc	45 46 20 is_stmt 1
	movl	$847, -56(%rbp)
Ltmp977:
LBB125_7:
	.loc	45 59 6
	movl	-56(%rbp), %eax
	addq	$96, %rsp
	popq	%rbp
	retq
LBB125_8:
Ltmp978:
	.loc	45 56 37
	movq	-32(%rbp), %rcx
	.loc	45 56 13 is_stmt 0
	movq	-64(%rbp), %rax
	movq	%rcx, 16(%rax)
	.loc	45 51 9 is_stmt 1
	jmp	LBB125_12
LBB125_9:
	.loc	45 52 38
	movq	-24(%rbp), %rax
	.loc	45 52 13 is_stmt 0
	movq	-64(%rbp), %rcx
	addq	16(%rcx), %rax
	movq	%rax, -88(%rbp)
	setb	%al
	testb	$1, %al
	jne	LBB125_11
	.loc	45 0 13
	movq	-88(%rbp), %rcx
	.loc	45 52 13
	movq	-64(%rbp), %rax
	movq	%rcx, 16(%rax)
	.loc	45 51 9 is_stmt 1
	jmp	LBB125_12
LBB125_11:
	.loc	45 52 13
	leaq	_str.3(%rip), %rdi
	leaq	l___unnamed_49(%rip), %rdx
	movl	$28, %esi
	callq	__ZN4core9panicking5panic17hc1bc45270cf64b03E
LBB125_12:
	.loc	45 0 13 is_stmt 0
	movl	-76(%rbp), %eax
	.loc	45 58 9 is_stmt 1
	movl	%eax, -56(%rbp)
Ltmp979:
	.loc	45 59 6
	jmp	LBB125_7
Ltmp980:
Lfunc_end125:
	.cfi_endproc

	.p2align	4, 0x90
__ZN114_$LT$unicode_normalization..stream_safe..StreamSafe$LT$I$GT$$u20$as$u20$core..iter..traits..iterator..Iterator$GT$4next28_$u7b$$u7b$closure$u7d$$u7d$17h6f98beff86d840bcE:
Lfunc_begin126:
	.loc	45 35 0
	.cfi_startproc
	pushq	%rbp
	.cfi_def_cfa_offset 16
	.cfi_offset %rbp, -16
	movq	%rsp, %rbp
	.cfi_def_cfa_register %rbp
	subq	$16, %rsp
	movq	%rdi, -8(%rbp)
Ltmp981:
	.loc	45 35 59 prologue_end
	movq	-8(%rbp), %rax
	movq	(%rax), %rdi
	callq	__ZN81_$LT$core..str..iter..Chars$u20$as$u20$core..iter..traits..iterator..Iterator$GT$4next17hb81e22f299310a85E
	.loc	45 35 75 is_stmt 0
	addq	$16, %rsp
	popq	%rbp
	retq
Ltmp982:
Lfunc_end126:
	.cfi_endproc

	.p2align	4, 0x90
__ZN21unicode_normalization11stream_safe20classify_nonstarters17hd6a3b56455201fa7E:
Lfunc_begin127:
	.loc	45 70 0 is_stmt 1
	.cfi_startproc
	pushq	%rbp
	.cfi_def_cfa_offset 16
	.cfi_offset %rbp, -16
	movq	%rsp, %rbp
	.cfi_def_cfa_register %rbp
	subq	$96, %rsp
	movq	%rdi, -80(%rbp)
	movq	%rdi, -72(%rbp)
	movl	%esi, -60(%rbp)
Ltmp983:
	.loc	45 72 8 prologue_end
	cmpl	$127, -60(%rbp)
	jbe	LBB127_2
	.loc	45 80 27
	movl	-60(%rbp), %edi
	.loc	45 80 8 is_stmt 0
	callq	__ZN21unicode_normalization9normalize18is_hangul_syllable17h7b146c5444017317E
	testb	$1, %al
	jne	LBB127_5
	jmp	LBB127_4
LBB127_2:
	.loc	45 0 8
	movq	-80(%rbp), %rax
	.loc	45 73 16 is_stmt 1
	movq	$0, (%rax)
	movq	$0, 8(%rax)
	movq	$1, 16(%rax)
LBB127_3:
	.loc	45 0 16 is_stmt 0
	movq	-72(%rbp), %rax
	.loc	45 104 2 is_stmt 1
	addq	$96, %rsp
	popq	%rbp
	retq
LBB127_4:
	.loc	45 87 49
	movl	-60(%rbp), %edi
	.loc	45 87 18 is_stmt 0
	callq	__ZN21unicode_normalization7lookups30compatibility_fully_decomposed17h2a3f2ea86b08eb64E
	movq	%rax, %rdi
	movq	%rdx, %rsi
	leaq	-60(%rbp), %rax
	.loc	45 87 60
	movq	%rax, -40(%rbp)
	.loc	45 87 18
	movq	-40(%rbp), %rdx
	callq	__ZN4core6option15Option$LT$T$GT$7or_else17hf75c9fe1b9161a8cE
	movq	%rdx, -48(%rbp)
	movq	%rax, -56(%rbp)
Ltmp984:
	.loc	45 88 11 is_stmt 1
	movq	-56(%rbp), %rdx
	movl	$1, %eax
	xorl	%ecx, %ecx
	cmpq	$0, %rdx
	cmoveq	%rcx, %rax
	.loc	45 88 5 is_stmt 0
	cmpq	$0, %rax
	je	LBB127_6
	jmp	LBB127_7
Ltmp985:
LBB127_5:
	.loc	45 84 60 is_stmt 1
	movl	-60(%rbp), %edi
	.loc	45 84 32 is_stmt 0
	callq	__ZN21unicode_normalization9normalize27hangul_decomposition_length17h7ee017c7ec6528ccE
	movq	%rax, %rcx
	movq	-80(%rbp), %rax
	.loc	45 81 16 is_stmt 1
	movq	$0, (%rax)
	movq	$0, 8(%rax)
	movq	%rcx, 16(%rax)
	.loc	20 1 1
	jmp	LBB127_3
LBB127_6:
Ltmp986:
	.loc	45 95 59
	movl	-60(%rbp), %edi
	.loc	45 95 33 is_stmt 0
	callq	__ZN21unicode_normalization7lookups25canonical_combining_class17h0595252e9f8c65a2E
	cmpb	$0, %al
	setne	%al
	movb	%al, %cl
	andb	$1, %cl
	movb	%cl, -1(%rbp)
Ltmp987:
	.loc	45 96 33 is_stmt 1
	testb	$1, %al
	jne	LBB127_9
	jmp	LBB127_8
Ltmp988:
LBB127_7:
	.loc	45 89 14
	movq	-56(%rbp), %rcx
	movq	-48(%rbp), %rax
	movq	%rax, -88(%rbp)
	movq	%rcx, -24(%rbp)
	movq	%rax, -16(%rbp)
Ltmp989:
	.loc	45 90 66
	movl	-60(%rbp), %edi
	.loc	45 90 34 is_stmt 0
	callq	__ZN21unicode_normalization6tables31stream_safe_leading_nonstarters17h7fc4fceb077d3b3cE
	movq	%rax, -96(%rbp)
	.loc	45 91 68 is_stmt 1
	movl	-60(%rbp), %edi
	.loc	45 91 35 is_stmt 0
	callq	__ZN21unicode_normalization7lookups32stream_safe_trailing_nonstarters17h13eb30b37de6084dE
	movq	-96(%rbp), %rsi
	movq	-88(%rbp), %rcx
	movq	%rax, %rdx
	movq	-80(%rbp), %rax
	.loc	45 89 25 is_stmt 1
	movq	%rsi, (%rax)
	movq	%rdx, 8(%rax)
	movq	%rcx, 16(%rax)
Ltmp990:
	.loc	45 93 9
	jmp	LBB127_3
LBB127_8:
Ltmp991:
	.loc	45 96 60
	movq	$0, -32(%rbp)
	.loc	45 96 30 is_stmt 0
	jmp	LBB127_10
LBB127_9:
	.loc	45 96 49
	movq	$1, -32(%rbp)
LBB127_10:
	.loc	45 0 49
	movq	-80(%rbp), %rax
Ltmp992:
	.loc	45 98 38 is_stmt 1
	movq	-32(%rbp), %rdx
	.loc	45 99 39
	movq	-32(%rbp), %rcx
	.loc	45 97 13
	movq	%rdx, (%rax)
	movq	%rcx, 8(%rax)
	movq	$1, 16(%rax)
Ltmp993:
	.loc	45 102 9
	jmp	LBB127_3
Ltmp994:
Lfunc_end127:
	.cfi_endproc

	.p2align	4, 0x90
__ZN21unicode_normalization11stream_safe20classify_nonstarters28_$u7b$$u7b$closure$u7d$$u7d$17he71f4909a1bd8ac3E:
Lfunc_begin128:
	.loc	45 87 0
	.cfi_startproc
	pushq	%rbp
	.cfi_def_cfa_offset 16
	.cfi_offset %rbp, -16
	movq	%rsp, %rbp
	.cfi_def_cfa_register %rbp
	subq	$16, %rsp
	movq	%rdi, -8(%rbp)
Ltmp995:
	.loc	45 87 90 prologue_end
	movq	-8(%rbp), %rax
	movl	(%rax), %edi
	.loc	45 87 63 is_stmt 0
	callq	__ZN21unicode_normalization7lookups26canonical_fully_decomposed17hb195cef1e3bf8de2E
	.loc	45 87 92
	addq	$16, %rsp
	popq	%rbp
	retq
Ltmp996:
Lfunc_end128:
	.cfi_endproc

	.globl	__ZN21unicode_normalization10__test_api11stream_safe17he210fa4949517758E
	.p2align	4, 0x90
__ZN21unicode_normalization10__test_api11stream_safe17he210fa4949517758E:
Lfunc_begin129:
	.file	46 "/Users/natalie/.cargo/registry/src/github.com-1ecc6299db9ec823/unicode-normalization-0.1.22" "src/__test_api.rs"
	.loc	46 12 0 is_stmt 1
	.cfi_startproc
	pushq	%rbp
	.cfi_def_cfa_offset 16
	.cfi_offset %rbp, -16
	movq	%rsp, %rbp
	.cfi_def_cfa_register %rbp
	subq	$80, %rsp
	movq	%rdx, -80(%rbp)
	movq	%rsi, %rax
	movq	-80(%rbp), %rsi
	movq	%rax, -72(%rbp)
	movq	%rdi, %rax
	movq	-72(%rbp), %rdi
	movq	%rax, -64(%rbp)
	movq	%rax, -56(%rbp)
	movq	%rdi, -16(%rbp)
	movq	%rsi, -8(%rbp)
Ltmp997:
	.loc	46 13 21 prologue_end
	callq	__ZN4core3str21_$LT$impl$u20$str$GT$5chars17h5a254857a99756c3E
	movq	%rax, %rsi
	.loc	46 13 5 is_stmt 0
	leaq	-48(%rbp), %rdi
	callq	__ZN21unicode_normalization11stream_safe19StreamSafe$LT$I$GT$3new17hfb7275a211d0c3e3E
	movq	-64(%rbp), %rdi
	leaq	-48(%rbp), %rsi
	callq	__ZN4core4iter6traits8iterator8Iterator7collect17hfd8daa4ddb66b5c0E
	movq	-56(%rbp), %rax
	.loc	46 14 2 is_stmt 1
	addq	$80, %rsp
	popq	%rbp
	retq
Ltmp998:
Lfunc_end129:
	.cfi_endproc

	.globl	__ZN85_$LT$unicode_normalization..quick_check..IsNormalized$u20$as$u20$core..fmt..Debug$GT$3fmt17h0e35ad2cb771de99E
	.p2align	4, 0x90
__ZN85_$LT$unicode_normalization..quick_check..IsNormalized$u20$as$u20$core..fmt..Debug$GT$3fmt17h0e35ad2cb771de99E:
Lfunc_begin130:
	.file	47 "/Users/natalie/.cargo/registry/src/github.com-1ecc6299db9ec823/unicode-normalization-0.1.22" "src/quick_check.rs"
	.loc	47 9 0
	.cfi_startproc
	pushq	%rbp
	.cfi_def_cfa_offset 16
	.cfi_offset %rbp, -16
	movq	%rsp, %rbp
	.cfi_def_cfa_register %rbp
	subq	$48, %rsp
	movq	%rsi, -48(%rbp)
	movq	%rdi, -16(%rbp)
	movq	%rsi, -8(%rbp)
Ltmp999:
	.loc	47 9 10 prologue_end
	movzbl	(%rdi), %eax
	movq	%rax, -40(%rbp)
	testq	%rax, %rax
	je	LBB130_2
	jmp	LBB130_6
LBB130_6:
	.loc	47 0 10 is_stmt 0
	movq	-40(%rbp), %rax
	.loc	47 9 10
	subq	$1, %rax
	je	LBB130_3
	jmp	LBB130_7
LBB130_7:
	jmp	LBB130_4
	ud2
LBB130_2:
	leaq	l___unnamed_50(%rip), %rax
	movq	%rax, -32(%rbp)
	movq	$3, -24(%rbp)
	.loc	47 9 14
	jmp	LBB130_5
LBB130_3:
	.loc	47 9 10
	leaq	l___unnamed_51(%rip), %rax
	movq	%rax, -32(%rbp)
	movq	$2, -24(%rbp)
	.loc	47 9 14
	jmp	LBB130_5
LBB130_4:
	.loc	47 9 10
	leaq	l___unnamed_52(%rip), %rax
	movq	%rax, -32(%rbp)
	movq	$5, -24(%rbp)
LBB130_5:
	.loc	47 0 10
	movq	-48(%rbp), %rdi
	.loc	47 9 10
	movq	-32(%rbp), %rsi
	movq	-24(%rbp), %rdx
	callq	__ZN4core3fmt9Formatter9write_str17hb029d9999327a35fE
	.loc	47 9 15
	andb	$1, %al
	movzbl	%al, %eax
	addq	$48, %rsp
	popq	%rbp
	retq
Ltmp1000:
Lfunc_end130:
	.cfi_endproc

	.globl	__ZN86_$LT$unicode_normalization..stream_safe..Decomposition$u20$as$u20$core..fmt..Debug$GT$3fmt17h1481944dee2acf2dE
	.p2align	4, 0x90
__ZN86_$LT$unicode_normalization..stream_safe..Decomposition$u20$as$u20$core..fmt..Debug$GT$3fmt17h1481944dee2acf2dE:
Lfunc_begin131:
	.loc	45 62 0 is_stmt 1
	.cfi_startproc
	pushq	%rbp
	.cfi_def_cfa_offset 16
	.cfi_offset %rbp, -16
	movq	%rsp, %rbp
	.cfi_def_cfa_register %rbp
	pushq	%r14
	pushq	%rbx
	subq	$128, %rsp
	.cfi_offset %rbx, -32
	.cfi_offset %r14, -24
	movq	%rsi, -64(%rbp)
	movq	%rdi, %rax
	movq	-64(%rbp), %rdi
	movq	%rax, -32(%rbp)
	movq	%rdi, -24(%rbp)
Ltmp1001:
	.loc	45 64 5 prologue_end
	movq	%rax, -56(%rbp)
	.loc	45 65 5
	movq	%rax, %rcx
	addq	$8, %rcx
	movq	%rcx, -48(%rbp)
	.loc	45 66 5
	addq	$16, %rax
	movq	%rax, -40(%rbp)
	.loc	45 62 10
	leaq	l___unnamed_53(%rip), %rsi
	movl	$13, %edx
	leaq	l___unnamed_54(%rip), %rcx
	movl	$19, %r8d
	leaq	-56(%rbp), %r9
	leaq	l___unnamed_1(%rip), %rax
	leaq	l___unnamed_55(%rip), %r14
	leaq	-48(%rbp), %rbx
	leaq	l___unnamed_56(%rip), %r11
	leaq	-40(%rbp), %r10
	movq	%rax, (%rsp)
	movq	%r14, 8(%rsp)
	movq	$20, 16(%rsp)
	movq	%rbx, 24(%rsp)
	movq	%rax, 32(%rsp)
	movq	%r11, 40(%rsp)
	movq	$17, 48(%rsp)
	movq	%r10, 56(%rsp)
	movq	%rax, 64(%rsp)
	callq	__ZN4core3fmt9Formatter26debug_struct_field3_finish17hf5caeae338c1d93dE
	.loc	45 62 15 is_stmt 0
	andb	$1, %al
	movzbl	%al, %eax
	addq	$128, %rsp
	popq	%rbx
	popq	%r14
	popq	%rbp
	retq
Ltmp1002:
Lfunc_end131:
	.cfi_endproc

	.p2align	4, 0x90
__ZN21unicode_normalization6tables24composition_table_astral17h3be65adb52a1e0c9E:
Lfunc_begin132:
	.file	48 "/Users/natalie/.cargo/registry/src/github.com-1ecc6299db9ec823/unicode-normalization-0.1.22" "src/tables.rs"
	.loc	48 3731 0 is_stmt 1
	.cfi_startproc
	pushq	%rbp
	.cfi_def_cfa_offset 16
	.cfi_offset %rbp, -16
	movq	%rsp, %rbp
	.cfi_def_cfa_register %rbp
	subq	$32, %rsp
	movl	%edi, -8(%rbp)
	movl	%esi, -4(%rbp)
Ltmp1003:
	.loc	48 3732 11 prologue_end
	movl	%edi, -16(%rbp)
	movl	%esi, -12(%rbp)
	.loc	48 3732 5 is_stmt 0
	movl	-16(%rbp), %eax
	movl	%eax, -24(%rbp)
	subl	$69785, %eax
	je	LBB132_2
	jmp	LBB132_26
LBB132_26:
	.loc	48 0 5
	movl	-24(%rbp), %eax
	.loc	48 3732 5
	subl	$69787, %eax
	je	LBB132_3
	jmp	LBB132_27
LBB132_27:
	.loc	48 0 5
	movl	-24(%rbp), %eax
	.loc	48 3732 5
	subl	$69797, %eax
	je	LBB132_4
	jmp	LBB132_28
LBB132_28:
	.loc	48 0 5
	movl	-24(%rbp), %eax
	.loc	48 3732 5
	subl	$69937, %eax
	je	LBB132_5
	jmp	LBB132_29
LBB132_29:
	.loc	48 0 5
	movl	-24(%rbp), %eax
	.loc	48 3732 5
	subl	$69938, %eax
	je	LBB132_6
	jmp	LBB132_30
LBB132_30:
	.loc	48 0 5
	movl	-24(%rbp), %eax
	.loc	48 3732 5
	subl	$70471, %eax
	je	LBB132_7
	jmp	LBB132_31
LBB132_31:
	.loc	48 0 5
	movl	-24(%rbp), %eax
	.loc	48 3732 5
	subl	$70841, %eax
	je	LBB132_8
	jmp	LBB132_32
LBB132_32:
	.loc	48 0 5
	movl	-24(%rbp), %eax
	.loc	48 3732 5
	subl	$71096, %eax
	je	LBB132_9
	jmp	LBB132_33
LBB132_33:
	.loc	48 0 5
	movl	-24(%rbp), %eax
	.loc	48 3732 5
	subl	$71097, %eax
	je	LBB132_10
	jmp	LBB132_34
LBB132_34:
	.loc	48 0 5
	movl	-24(%rbp), %eax
	.loc	48 3732 5
	subl	$71989, %eax
	je	LBB132_11
	jmp	LBB132_1
LBB132_1:
	.loc	48 3746 14 is_stmt 1
	movl	$1114112, -20(%rbp)
	jmp	LBB132_13
LBB132_2:
	.loc	48 3732 5
	cmpl	$69818, -12(%rbp)
	je	LBB132_25
	jmp	LBB132_1
LBB132_3:
	cmpl	$69818, -12(%rbp)
	je	LBB132_24
	jmp	LBB132_1
LBB132_4:
	cmpl	$69818, -12(%rbp)
	je	LBB132_23
	jmp	LBB132_1
LBB132_5:
	cmpl	$69927, -12(%rbp)
	je	LBB132_22
	jmp	LBB132_1
LBB132_6:
	cmpl	$69927, -12(%rbp)
	je	LBB132_21
	jmp	LBB132_1
LBB132_7:
	movl	-12(%rbp), %eax
	movl	%eax, -28(%rbp)
	subl	$70462, %eax
	je	LBB132_19
	jmp	LBB132_37
LBB132_37:
	.loc	48 0 5 is_stmt 0
	movl	-28(%rbp), %eax
	.loc	48 3732 5
	subl	$70487, %eax
	je	LBB132_20
	jmp	LBB132_1
LBB132_8:
	movl	-12(%rbp), %eax
	movl	%eax, -32(%rbp)
	subl	$70832, %eax
	je	LBB132_16
	jmp	LBB132_35
LBB132_35:
	.loc	48 0 5
	movl	-32(%rbp), %eax
	.loc	48 3732 5
	subl	$70842, %eax
	je	LBB132_17
	jmp	LBB132_36
LBB132_36:
	.loc	48 0 5
	movl	-32(%rbp), %eax
	.loc	48 3732 5
	subl	$70845, %eax
	je	LBB132_18
	jmp	LBB132_1
LBB132_9:
	cmpl	$71087, -12(%rbp)
	je	LBB132_15
	jmp	LBB132_1
LBB132_10:
	cmpl	$71087, -12(%rbp)
	je	LBB132_14
	jmp	LBB132_1
LBB132_11:
	cmpl	$71984, -12(%rbp)
	jne	LBB132_1
	.loc	48 3745 39 is_stmt 1
	movl	$71992, -20(%rbp)
LBB132_13:
	.loc	48 3748 2
	movl	-20(%rbp), %eax
	addq	$32, %rsp
	popq	%rbp
	retq
LBB132_14:
	.loc	48 3744 39
	movl	$71099, -20(%rbp)
	jmp	LBB132_13
LBB132_15:
	.loc	48 3743 39
	movl	$71098, -20(%rbp)
	jmp	LBB132_13
LBB132_16:
	.loc	48 3740 39
	movl	$70844, -20(%rbp)
	jmp	LBB132_13
LBB132_17:
	.loc	48 3741 39
	movl	$70843, -20(%rbp)
	jmp	LBB132_13
LBB132_18:
	.loc	48 3742 39
	movl	$70846, -20(%rbp)
	jmp	LBB132_13
LBB132_19:
	.loc	48 3738 39
	movl	$70475, -20(%rbp)
	jmp	LBB132_13
LBB132_20:
	.loc	48 3739 39
	movl	$70476, -20(%rbp)
	jmp	LBB132_13
LBB132_21:
	.loc	48 3737 39
	movl	$69935, -20(%rbp)
	jmp	LBB132_13
LBB132_22:
	.loc	48 3736 39
	movl	$69934, -20(%rbp)
	jmp	LBB132_13
LBB132_23:
	.loc	48 3735 39
	movl	$69803, -20(%rbp)
	jmp	LBB132_13
LBB132_24:
	.loc	48 3734 39
	movl	$69788, -20(%rbp)
	jmp	LBB132_13
LBB132_25:
	.loc	48 3733 39
	movl	$69786, -20(%rbp)
	jmp	LBB132_13
Ltmp1004:
Lfunc_end132:
	.cfi_endproc

	.p2align	4, 0x90
__ZN21unicode_normalization6tables31stream_safe_leading_nonstarters17h7fc4fceb077d3b3cE:
Lfunc_begin133:
	.loc	48 35663 0
	.cfi_startproc
	pushq	%rbp
	.cfi_def_cfa_offset 16
	.cfi_offset %rbp, -16
	movq	%rsp, %rbp
	.cfi_def_cfa_register %rbp
	subq	$24, %rsp
	movl	%edi, -20(%rbp)
	movl	%edi, -4(%rbp)
Ltmp1005:
	.loc	48 35664 5 prologue_end
	subl	$832, %edi
	je	LBB133_2
	jmp	LBB133_12
LBB133_12:
	.loc	48 0 5 is_stmt 0
	movl	-20(%rbp), %eax
	.loc	48 35664 5
	subl	$833, %eax
	je	LBB133_3
	jmp	LBB133_13
LBB133_13:
	.loc	48 0 5
	movl	-20(%rbp), %eax
	.loc	48 35664 5
	subl	$835, %eax
	je	LBB133_4
	jmp	LBB133_14
LBB133_14:
	.loc	48 0 5
	movl	-20(%rbp), %eax
	.loc	48 35664 5
	subl	$836, %eax
	je	LBB133_5
	jmp	LBB133_15
LBB133_15:
	.loc	48 0 5
	movl	-20(%rbp), %eax
	.loc	48 35664 5
	subl	$3955, %eax
	je	LBB133_6
	jmp	LBB133_16
LBB133_16:
	.loc	48 0 5
	movl	-20(%rbp), %eax
	.loc	48 35664 5
	subl	$3957, %eax
	je	LBB133_7
	jmp	LBB133_17
LBB133_17:
	.loc	48 0 5
	movl	-20(%rbp), %eax
	.loc	48 35664 5
	subl	$3969, %eax
	je	LBB133_8
	jmp	LBB133_18
LBB133_18:
	.loc	48 0 5
	movl	-20(%rbp), %eax
	.loc	48 35664 5
	subl	$65438, %eax
	je	LBB133_9
	jmp	LBB133_19
LBB133_19:
	.loc	48 0 5
	movl	-20(%rbp), %eax
	.loc	48 35664 5
	subl	$65439, %eax
	je	LBB133_10
	jmp	LBB133_1
LBB133_1:
	.loc	48 35674 14 is_stmt 1
	movq	$0, -16(%rbp)
	jmp	LBB133_11
LBB133_2:
	.loc	48 35665 23
	movq	$1, -16(%rbp)
	jmp	LBB133_11
LBB133_3:
	.loc	48 35666 23
	movq	$1, -16(%rbp)
	jmp	LBB133_11
LBB133_4:
	.loc	48 35667 23
	movq	$1, -16(%rbp)
	jmp	LBB133_11
LBB133_5:
	.loc	48 35668 23
	movq	$2, -16(%rbp)
	jmp	LBB133_11
LBB133_6:
	.loc	48 35669 23
	movq	$2, -16(%rbp)
	jmp	LBB133_11
LBB133_7:
	.loc	48 35670 23
	movq	$2, -16(%rbp)
	jmp	LBB133_11
LBB133_8:
	.loc	48 35671 23
	movq	$2, -16(%rbp)
	jmp	LBB133_11
LBB133_9:
	.loc	48 35672 23
	movq	$1, -16(%rbp)
	jmp	LBB133_11
LBB133_10:
	.loc	48 35673 23
	movq	$1, -16(%rbp)
LBB133_11:
	.loc	48 35676 2
	movq	-16(%rbp), %rax
	addq	$24, %rsp
	popq	%rbp
	retq
Ltmp1006:
Lfunc_end133:
	.cfi_endproc

	.section	__TEXT,__const
l___unnamed_57:
	.ascii	"invalid args"

	.section	__DATA,__const
	.p2align	3
l___unnamed_2:
	.quad	l___unnamed_57
	.asciz	"\f\000\000\000\000\000\000"

	.section	__TEXT,__const
	.p2align	3
l___unnamed_3:
	.byte	0

l___unnamed_58:
	.ascii	"/rustc/2c8cc343237b8f7d5a3c3703e3a87f2eb2c54a74/library/core/src/fmt/mod.rs"

	.section	__DATA,__const
	.p2align	3
l___unnamed_4:
	.quad	l___unnamed_58
	.asciz	"K\000\000\000\000\000\000\000\221\001\000\000\r\000\000"

	.section	__TEXT,__const
l___unnamed_5:
	.ascii	"assertion failed: 0 < pointee_size && pointee_size <= isize::MAX as usize"

l___unnamed_59:
	.ascii	"/rustc/2c8cc343237b8f7d5a3c3703e3a87f2eb2c54a74/library/core/src/ptr/const_ptr.rs"

	.section	__DATA,__const
	.p2align	3
l___unnamed_6:
	.quad	l___unnamed_59
	.asciz	"Q\000\000\000\000\000\000\000&\003\000\000\t\000\000"

	.section	__TEXT,__const
l___unnamed_60:
	.ascii	"/rustc/2c8cc343237b8f7d5a3c3703e3a87f2eb2c54a74/library/core/src/str/validations.rs"

	.section	__DATA,__const
	.p2align	3
l___unnamed_7:
	.quad	l___unnamed_60
	.asciz	"S\000\000\000\000\000\000\0001\000\000\000$\000\000"

	.p2align	3
l___unnamed_8:
	.quad	l___unnamed_60
	.asciz	"S\000\000\000\000\000\000\0008\000\000\000(\000\000"

	.p2align	3
l___unnamed_9:
	.quad	l___unnamed_60
	.asciz	"S\000\000\000\000\000\000\000@\000\000\000,\000\000"

	.section	__TEXT,__const
l___unnamed_61:
	.ascii	"/rustc/2c8cc343237b8f7d5a3c3703e3a87f2eb2c54a74/library/core/src/char/methods.rs"

	.section	__DATA,__const
	.p2align	3
l___unnamed_12:
	.quad	l___unnamed_61
	.asciz	"P\000\000\000\000\000\000\000\335\006\000\000\n\000\000"

	.section	__TEXT,__const
l___unnamed_62:
	.ascii	"encode_utf8: need "

l___unnamed_63:
	.ascii	" bytes to encode U+"

l___unnamed_64:
	.ascii	", but the buffer has "

	.section	__DATA,__const
	.p2align	3
l___unnamed_10:
	.quad	l___unnamed_62
	.asciz	"\022\000\000\000\000\000\000"
	.quad	l___unnamed_63
	.asciz	"\023\000\000\000\000\000\000"
	.quad	l___unnamed_64
	.asciz	"\025\000\000\000\000\000\000"

	.p2align	3
l___unnamed_11:
	.quad	l___unnamed_61
	.asciz	"P\000\000\000\000\000\000\000\326\006\000\000\016\000\000"

	.section	__TEXT,__const
l___unnamed_65:
	.ascii	"/rustc/2c8cc343237b8f7d5a3c3703e3a87f2eb2c54a74/library/core/src/alloc/layout.rs"

	.section	__DATA,__const
	.p2align	3
l___unnamed_13:
	.quad	l___unnamed_65
	.asciz	"P\000\000\000\000\000\000\000\304\001\000\000)\000\000"

	.section	__TEXT,__const
	.p2align	4
_str.0:
	.ascii	"attempt to divide by zero"

l___unnamed_66:
	.ascii	"/rustc/2c8cc343237b8f7d5a3c3703e3a87f2eb2c54a74/library/alloc/src/raw_vec.rs"

	.section	__DATA,__const
	.p2align	3
l___unnamed_14:
	.quad	l___unnamed_66
	.asciz	"L\000\000\000\000\000\000\000\367\000\000\000;\000\000"

	.section	__TEXT,__literal16,16byte_literals
	.p2align	3
L___unnamed_15:
	.asciz	"\000\000\000\000\000\000\000\000\001\000\000\000\000\000\000"

	.section	__TEXT,__const
	.p2align	1
l___unnamed_67:
	.asciz	"\000\000\001\000$\002\227\001\004\000\000\000o\000\004\000\257\000\000\000\000\000\004\000\000\000\000\000\210\000\n\000\b\000\000\000\000\000\000\000\034\000F\000\001\000\r\000\033\000\000\000\025\000\022\000E\000\354\0006\000\020\000\000\000\000\000\000\000\002\000\000\000\224\000\000\000W\000\000\000\b\000\003\000\007\000\000\000\026\000:\000\002\000#\000\003\000\004\000\034\000\001\000\000\000G\000\021\000\027\000\004\000\033\000\000\000\023\000\000\000\000\000\000\000\000\000\001\000\007\000\007\000\004\000.\000\000\000\000\000,\000\000\000\000\000\003\000\017\000\000\000\000\000\023\000\000\000\001\000\002\000\001\000\t\000\000\000\000\000\000\000\001\000\001\000\000\000\002\000\002\000\003\000\002\000\036\000\000\000\b\000\021\000\001\000\000\000\005\000\000\000y\000\000\000\004\000\023\000\000\000\000\000\005\000\002\000\000\000\005\000\001\000\025\000\001\000\000\000\003\000\f\000\000\0005\000\003\000\002\000\005\000\006\000\000\000\005\000\004\000\002\000\034\000\000\000\000\000\000\000\004\000\000\000\000\000\000\000\t\000\002\000\t\000\007\000\000\000\005\000\000\000\b\000\007\000\000\000\022\000\t\000\000\0009\000\002\000\t\000\000\000\004\000\002\000\000\000\000\000\000\000\000\000\000\000\000\000\001\000\"\000\002\000\000\000\033\000\023\000\f\000\024\000\006\000\004\000\005\000\023\000\002\000\000\000\003\000\004\000\002\000\000\000\030\000\000\000\006\000\004\000\000\000\000\000\n\000\n\000\000\000\001\000\000\000\017\000\020\000\001\000\000\000\000\000\000\000\002\000\017\000\001\000\004\000\002\000\n\000\013\000\t\000\004\000\001\000\000\000\013\000\000\000\003\000\000\000\006\000\000\000\006\000\000\000\003\000\004\000\000\000\000\000\003\000\000\000\000\000\001\000\002\000\025\000\000\000\000\000\000\000\024\000\033\000\000\000\f\000\000\000\000\000\b\000\003\000\f\000\000\000\016\000\002\000\000\000\003\000\000\000\n\000\002\000\006\000\001\000\000\000\004\000\000\000\001\000\006\000\002\000\003\000\002\000\020\000\000\000\017\000\000\000\000\000\000\000\003\000\003\000\004\000\r\000\006\000\000\000\000\000\002\000\000\000\000\000\000\000\030\000\n\000\006\000\001\000\001\000\b\000\000\000\001\000\001\000\007\000\000\000\003\000\t\000\021\000\005\000\001\000\005\000\003\000\026\000\007\000\005\000\004\000\000\000\n\000\006\000\003\000\000\000\001\000\000\000\007\000\000\000\006\000\000\000\005\000A\000\t\000\001\000\n\000\000\000\005\000\002\000\021\000\013\000\003\000\001\000\000\000\000\000\001\000\001\000\000\000\002\000\000\000\006\000\030\000\003\000\000\000\003\000\000\000\002\000\000\000\002\000\000\000\000\000\000\000\000\000\005\000\001\000\000\000\000\000\t\000\001\000\000\000\000\000\002\000\001\000\000\000\001\000\002\000\001\000\000\000\003\000\001\000\001\000\001\000\000\000\003\000\f\000\001\000\003\000\001\000\000\000\002\000\000\000\000\000\005\000\001\000\005\000\000\000\001\000\013\000\005\000\000\000\000\000\000\000\000\000\000\000\000\000\017\000\000\000\000\000\002\000\007\000\000\000\000\000\000\000\000\000\000\000\000\000\001\000\000\000\t\000\b\000\000\000\000\000\003\000\003\000\001\000\004\000\003\000\004\000\005\000\002\000\000\000\000\000\002\000\006\000\001\000\005\000\001\000\000\000\003\000\006\000\b\000\002\000\002\000\006\000\003\000\000\000\020\000\006\000\006\000\005\000\001\000\007\000\000\000\002\000\003\000\002\000\000\000\000\000\000\000\006\000\000\000\000\000\000\000\000\000\001\000\000\000\000\000\000\000\001\000\001\000\b\000\001\000\000\000\002\000\000\000\001\000\f\000\004\000\001\000\002\000\001\000\004\000\002\000\005\000\004\000\000\000\003\000\004\000\002\000\000\000\001\000\003\000\007\000\006\000\b\000\000\000\002\000\003\000\000\000\002\000\002\000\002\000\004\000\000\000\000\000\006\000\006\000\006\000\f\000\005\000\000\000\000\000\000\000\001\000\002\000\000\000\003\000\000\000\t\000\003\000\002\000\001\000\001\000\t\000\001\000\000\000\b\000\001\000\006\000\000\000\003\000\000\000\005\000\001\000\001\000\000\000\000\000\002\000\004\000\000\000\002\000\000\000\002\000\006\000\006\000\002\000\b\000\005\000\006\000\005\000\001\000\006\000\002\000\000\000\001\000\000\000\000\000\003\000\000\000\001\000\t\000\005\000\005\000\016\000\000\000\003\000\005\000\000\000\000\000\001\000\001\000\000\000\000\000\000\000\000\000\001\000\004\000\000\000\002\000\004\000\006\000\005\000\006\000\000\000\000\000\001\000\001\000\000\000\000\000\005\000\002\000\b\000\b\000\001\000\006\000\000\000\001\000\000\000\001\000\000\000\b\000\000\000\004\000\007\000\n\000\001\000\000\000\000\000\002\000\001\000\001\000\001\000\000\000\001\000\002\000\000\000\002\000\001\000\004\000\004\000\000\000\000\000\000\000\006\000\000\000\003\000\003\000\000\000\000\000\000\000\000\000\000\000\002\000\001\000\001\000\002\000\002\000\000\000\004\000\002\000\001\000\000\000\000\000\001\000\000\000\001\000\001\000\000\000\002\000\002\000\002\000\002\000\000\000\001\000\005\000\004\000\001\000\000\000\001\000\001\000\000\000\000\000\001\000\004\000\001\000\002\000\001\000\001\000\000\000\000\000\000\000\000\000\000\000\001\000\000\000\001\000\000\000\000\000\004\000\001\000\002\000\000\000\001\000\r\000\004\000\000\000\001\000\004\000\000\000\005\000\003\000\007\000\003\000\003\000\003\000\002\000\000\000\002\000\002\000\002\000\001\000\000\000\001\000\003\000\004\000\001\000\000\000\001\000\004\000\001\000\000\000\000\000\000\000\001\000\003\000\001\000\000\000\000\000\001\000\004\000\001\000\b\000\002\000\004\000\001\000\001\000\001\000\005\000\001\000\004\000\001\000\001\000\002\000\006\000\000\000\000\000\000\000\000\000\002\000\000\000\002\000\000\000\006\000\003\000\001\000\003\000\002\000\003\000\005\000\004\000\001\000\000\000\005\000\000\000\000\000\001\000\003\000\000\000\002\000\000\000\001\000\001\000\000\000\000\000\000\000\001\000\000\000\000\000\000\000\005\000\005\000\b\000\000\000\000\000\000\000\000\000\006\000\000\000\000\000\000\000\000\000\002\000\002\000\005\000\001\000\000\000\001\000\001\000\000\000\002\000\002\000\007\000\001\000\001\000\002\000\000\000\002\000\002\000\001\000\000\000\000\000\001\000\000\000\002\000\002\000\002\000\004\000\001\000\004\000\000\000\002\000\002\000\004\000\004\000\000\000\b\000\004\000\006\000\002\000\001\000\001\000\000\000\001\000\000\000\000\000\000\000\003\000\006\000\001\000\000\000\003\000\002\000\001\000\000\000\005\000\004\000\000\000\000\000\005\000\002\000\000\000\000\000\002\000\000\000\000\000\004\000\003\000\000\000\t\000\005\000\002\000\000\000\000\000\002\000\000\000\001\000\007\000\000\000\003\000\001\000\002\000\001\000\000\000\000\000\002\000\003\000\000\000\002\000\003\000\001\000\002\000\001\000\002\000\000\000\004\000\002\000\001\000\001\000\001\000\002\000\002\000\000\000\004\000\002\000\001\000\000\000\000\000\003\000\000\000\000\000\000\000\000\000\000\000\000\000\000\000\000\000\000\000\000\000\000\000\000\000\001\000\000\000\002\000\000\000\001\000\000\000\002\000\001\000\001\000\000\000\002\000\000\000\001\000\000\000\000\000\001\000\001\000\000\000\001\000\000\000\002\000\000\000\003\000\000\000\001\000\001\000\000\000\000\000\001\000\002\000\001\000\002\000\003\000\005\000\003\000\001\000\000\000\001\000\003\000\007\000\000\000\000\000\002\000\000\000\002\000\003\000\001"

	.section	__DATA,__const
	.p2align	3
l___unnamed_16:
	.quad	l___unnamed_67
	.asciz	"\232\003\000\000\000\000\000"

	.section	__TEXT,__const
	.p2align	2
l___unnamed_68:
	.ascii	"\346J\003\000\346\372-\000\332\372\035\000\3349\003\000\351\374\035\000\tM\n\000\346\320 \000\346\223\005\000\334\340\002\001\346\364\034\000\334\242\005\000\346&\376\000\tE\035\001\031\302\005\000\334\352\006\000\346u\246\000\334N\017\001\346\353\250\000\3342\003\000\tM\f\000\346A\007\000\330q\321\001\334-\376\000\346\362\035\000\346\336\035\000\346\341\250\000\024\273\005\000\346\325\035\000\346\316\b\000\346{\032\000\204t\017\000\346\346\250\000\037\031\006\000\007\303\024\001\346y\032\000\346]\006\000\034\361\b\000\346 \340\001\346\361\250\000\334\375\035\000\346%\376\000\346G\351\001\346u\032\000\t\272\016\000\346*\340\001\033K\006\000\346\331\006\000\t\266\026\001\346\354\035\000\t:\016\000\346T\t\000\346\351-\000\346\263\032\000\346\363\b\000\346\367\b\000\346\342\250\000\346\013\340\001\334(\376\000\001\330 \000\346\260\252\000\334M\017\001\346%\b\000\346\021\006\000\346\276\252\000\346 \b\000\346\350\b\000\346\006\003\000\346\344-\000\tA\037\001\007\312\021\001\346\360,\000\334\327\034\000\334:\n\001\3461\341\001\t:\020\000\334;\007\000\350X\003\000\346\207\004\000\346\261\032\000\346p\023\001\346\320\034\000\346\356\250\000\334<\003\000\346\325 \000\346\031\b\000\3460k\001\001\363j\001\007\274\t\000\346\351\035\000\346\332\035\000\346k\023\001\346+\b\000\t4\027\000\346\333\035\000\016\264\005\000\342m\321\001\001i\321\001\346L\003\000\346\360-\000\0017\003\000\346s\023\001\007\351\022\001\334\300\032\000\001\352 \000\346>\003\000\201q\017\000\001h\321\001\346F\003\000\334\326\350\001\334\320\350\001\334,\376\000\346\340\034\000\346\352\b\000\346\333 \000\3461k\001\3465\007\000\334\375\016\001\334~\321\001\t4\032\001\346\037\b\000\346\034\340\001\346\337\035\000\334\350 \000\t\355\253\000\346\341\035\000\334\026\003\000\334\202\321\001\346\327 \000\037O\006\000\346\365\b\000\tM\r\000\346\311\032\000\t\271\020\001\346\274\032\000\346z\246\000\346\252\321\001\334\356\344\001\3460\341\001\346\237\005\000\3369\031\000\346W\003\000\t\340\031\001\006\360o\001\3463\007\000\334)\376\000\346\370\034\000\t\204\017\000\346d\003\000\334\027\003\000\346\203\004\000\346l\003\000\013\261\005\000\346\322\034\000\346\007\003\000!Q\006\000\3340\003\000\334\031\003\000\334V\006\000\346\344\035\000\334R\t\000\360E\003\000\346\361-\000\334;\031\000\346Y\006\000\346\253\005\000\346s\033\000\346\361,\000\007\274\n\000\202|\017\000\346j\023\001\346\344\250\000\346\373\b\000\f\262\005\000\346!\376\000\346\373-\000\350\032\003\000\3348\007\000\001\323 \000\334*\376\000\346i\023\001\202r\017\000\346\302\032\000\334{\321\001\346\206\017\000\312'\003\000\346\300\035\000\346H\017\001\tF\020\001\346k\033\000\334\346\b\000\3464\341\001\346A\003\000\350\366\035\000\346\354\250\000\346\253\321\001\346\354\006\000\346\256\342\001\017\265\005\000\346\307\032\000\346\002\340\001\334\306\017\000\3466\341\001\346\337\b\000\034L\006\000\346X\006\000\346\341\006\000\346\347-\000\334\317\b\000\346\002\003\000\334\304\032\000\346\277\252\000\023\271\005\000\334\213\321\001\t+\027\001\346\363-\000\3349\007\000\346\340-\000\334\334\034\000\tp\020\001\334,\251\000\346#\b\000\346\363\035\000\346}\246\000\334F\017\001\346\314\035\000\346\334\006\000\tG\032\001v\271\016\000\346k\003\000\346^\006\000\346\371\034\000\346\326\b\000\346\340\b\000\346n\033\000\346\330\b\000\346&\340\001\346C\003\000\001\331 \000\346H\351\001\020\266\005\000\346\021\340\001\346\350\035\000\344\367\035\000\346\374-\000\t\227\035\001\346\206\004\000\346\301\035\000\334\221\005\000\tD\035\001\t\304\250\000\t\252\033\000\334\377\016\001\334\355\006\000\334V\003\000\346\356\035\000\346\355-\000\035M\006\000\t\322\027\000\t<\r\000\346E\351\001\t\302\024\001\346\003\003\000\346\360\246\000\340/0\000\346\033\340\001\346h\023\001\t?\026\001\001\343\034\000\334\243\005\000\334\357\b\000\334\226\005\000\346(\340\001\334O\017\001\t,\250\000\330r\321\001\346\357,\000\346I\017\001\346\352\250\000\334,\003\000\t;\r\000\346\017\340\001\334\355\b\000\t\024\027\000\346\273\032\000\334\323\350\001\007<\013\000\346\235\005\000\334\346\n\001\346\373\035\000\006\361o\001\346*\b\000\334\356 \000\334\337\034\000\334\335\034\000\334\322\b\000\346_\023\000\202z\017\000\346\020\006\000\tB\024\001\346\356-\000\346^\024\001\346=\007\000\352]\003\000\346/\376\000\007\274\f\000\346\307\035\000\346\347\006\000\312!\003\000\334\246\005\000\346\360\250\000\023\272\005\000\346\354-\000\334\356\b\000\001\362j\001\022\307\005\000\346\022\006\000\346\234\005\000\007B\035\001\334\272\032\000\346\264\032\000\334\322\350\001\334[\b\000\346r\033\000\346\000\340\001\n\260\005\000\334\305\005\000\334G\017\001\346x\032\000\t4\021\001\007F\024\001\346&\r\001\346\334 \000\346P\003\000\202}\017\000\334\037\003\000\t9\020\000\334\323\b\000\007\346\033\000\3341\007\000\346\022\003\000\346)\b\000\334\372\b\000\346\353\007\000\346\335\035\000\330e\321\001\346\351 \000\346\036\340\001\3465\341\001\346\355\035\000[V\f\000\346\022\340\001\346\343-\000\202{\017\000\334\336\034\000\346m\003\000\346\364\b\000\334\324\350\001\334<\007\000\346t\023\001\346\254\005\000\346\310\032\000\346\353-\000\334+\251\000\007s\021\001\t\300\021\001\0016\003\000\202\200\017\000\346\324 \000\334\233\005\000\346\001\340\001\346'\b\000\0014\003\000\330\033\003\000\001\322 \000\346\003\340\001\346\360\035\000\334\035\003\000\346\364-\000\346r\023\001\346\024\003\000\344\251\030\000\346l\023\001\346\345-\000\t3\021\001\346]\023\000\346w\032\000g9\016\000\346'\r\001\t\315\f\000\334-\003\000\346\222\005\000\346\357-\000\346\312\b\000\346\341-\000\346W\006\000\334+\003\000\346\254\016\001\346\t\003\000\3460\007\000\334_\006\000\346\024\340\001\346\336\b\000\346\376-\000\3463k\001\346\315\b\000\334)\003\000\035\362\b\000\007<\t\000\346G\007\000\334Y\b\000\3466\007\000\3468\n\001\346\035\b\000\334\325\034\000\346C\007\000\334F\007\000\334\231\b\000 \032\006\000\001\342\034\000\346\001\003\000\346D\351\001\346\206\321\001\346\340\006\000\007C\031\001\334U\003\000\036\030\006\000\346o\246\000\346\377\b\000\346\000\021\001\346=\003\000\334\302\035\000\346\025\006\000\346B\003\000\346\027\032\000\346g\023\001\346\253\016\001\346\353\006\000\346\037\340\001kJ\016\000\334%\003\000\334I\003\000\346#\376\000\346v\003\001\346\377-\000\330o\321\001\346\017\003\000\t\253\033\000\346\342-\000\346@\007\000\t>\031\001\3309\017\000\334\357 \000\346\346-\000\346\207\321\001\346\322\035\000\346J\017\001\346\330\006\000\0074\033\000\346\352-\000\346y\246\000\346\204\017\001\346\207\017\000\351_\003\000\346\000\003\000\346\356\007\000\346\362-\000\tB\037\001\346:\007\000\334\036\003\000\346\r\340\001\326\316\035\000\334\267\032\000\330n\321\001\346R\003\000\334\366\b\000\346w\246\000\346|\032\000\346\347\b\000\3462k\001\346\331\035\000\334\371\035\000\334\351\b\000\346f\023\001\346\306\032\000\001\347\034\000\346\321\034\000\352^\003\000\001\364j\001\346\260\032\000\346K\003\000\334;\003\000#p\006\000\346f\003\000\346%\r\001\346\376\t\000\334\264\252\000\t\315\013\000\346\311\035\000\026\275\005\000\334\320\b\000\346\026\b\000\334\375\001\001\007<\n\000\334|\321\001\3462\007\000\346&\b\000\007;\023\001\334\331\034\000\346\036\b\000\334\203\017\001\346\023\003\000\334\377\035\000\334\177\321\001\001g\321\001\t`\032\000\346I\351\001\334\r\n\001\t9\030\001\334\031\017\000\346\347\035\000\tM\013\000\346\234\b\000\346\375-\000\346g\003\000\t\300\251\000\346{\246\000\3343\003\000\346\241\005\000\346\353\b\000\346\t\340\001\346\357\035\000\334$\003\000\334+\376\000\334'\376\000\346$\r\001\346\033\b\000\346\b\340\001\346\035\340\001\tS\251\000\346\333\006\000TU\f\000\t\177-\000\346\332\034\000\025\274\005\000\336\232\005\000\346v\246\000\346\370-\000\346\326 \000\r\263\005\000\334\201\321\001\334\312\032\000\346S\t\000\312(\003\000\346\240\005\000\346\225\005\000\346\325\b\000\346\b\003\000\346t\246\000\346\f\003\000\346v\032\000\346\306\035\000\346\342\006\000\346L\017\001\346\360 \000\346\313\b\000\346\017\n\001\346^\023\000\346o\033\000\346\262\032\000\344\370\035\000\334\252\005\000\346\345\n\001\346\237\b\000\346\f\340\001\001\345 \000\346\374\b\000 P\006\000\346\354\b\000\346\230\b\000\346\355\342\001\346\327\035\000g8\016\000\346\235\b\000\346q\033\000\334Z\b\000\346\305\035\000\346\211\321\001\346\237\246\000\334H\003\000\346\333\b\000\346\304\035\000\334 \003\000\346\343\250\000\346F\351\001\330p\321\001\t\366\252\000\346\314\032\000\352`\003\000\334\277\032\000\346\301\032\000\350,0\000\346\367-\000v\270\016\000\3462\341\001\346\376\035\000\346?\003\000\001\353 \000\346-\b\000\334G\003\000\0076\022\001\346\361\246\000\346I\007\000\346\335\027\000\346\361\007\000\346\027\006\000\346\315\032\000\346\346\035\000\346\344\b\000\346Q\003\000\346\236\b\000\346\023\006\000\352\315\035\000\334U\006\000\346\341 \000\334\\\006\000\334\275\032\000\334\271\032\000\346x\246\000\t?\n\001\334*\003\000\346\355\250\000\332*0\000\001\332 \000\346\r\003\000\344+0\000\346\327\b\000\033\360\b\000\346\334\b\000\021\267\005\000\t\006\250\000\346\255\321\001\346\344\006\000\346\340\035\000\336\255\005\000\346\361\035\000\346\002\021\001\334\325\350\001\346\016\003\000\346\357\007\000\346\360\007\000\346\227\005\000\346'\340\001\346\354\342\001\334\034\003\000\350\025\003\000\346\267\252\000\346\026\006\000\346\366-\000\027\277\005\000\0019\n\001\346S\006\000\330f\321\001\346\305\032\000\352a\003\000\346\370\b\000\334\303\032\000\0077\020\000\t5\022\001\346n\003\000\346\004\340\001\346#\340\001\346h\003\000\346\326\035\000\346D\003\000\334B\007\000\346\205\004\000\007\272\020\001\334\330\034\000\001\324\034\000\346\376\b\000\346\365-\000\346\016\340\001z\313\016\000\tM\t\000\346\353\035\000\007<\023\001\346\357\344\001\334Y\003\000\346\020\340\001\346\004\003\000\346\250\005\000\334\326\034\000\346\263\252\000\346p\033\000\346\350\006\000\334-\251\000\346\331\b\000\3464k\001\334\030\017\000\346\n\003\000\334\355 \000\350\354\344\001\346\357\342\001\346B\322\001\334T\003\000\001\361j\001\346[\003\000\346\343\035\000\334>\007\000\346\005\340\001\t\277\025\001\346\310\035\000\346\204\004\000\346\034\b\000\3463\341\001\022\270\005\000\346@\003\000\346\230\005\000\001\236\274\001\346\334\035\000\007\300\025\001\334\343\b\000\t?\034\001\334\205\017\001\351\\\003\000\346\333\034\000\346\254\321\001\334\321\350\001\334\265\032\000\t\312\r\000\312\"\003\000\334K\017\001\346\303\035\000\334Z\003\000\346\354\007\000\t\352\022\001kK\016\000\334\375\007\000\334.\003\000\346[\006\000\346\"\376\000\346\323\035\000\334\232\b\000\346\350\250\000\334\371\b\000\346o\003\000\346m\033\000\346\314\b\000\tM\023\001\346:\031\000\b\2320\000\346 \376\000\346\342\035\000\334\355\034\000\334\376\016\001\346\023\340\001\346\324\b\000\334N\003\000\3465k\001\346z\003\001\t\177\020\001\346\335\b\000\346\321\035\000\0018\003\000\346|\246\000\346\316\032\000\346\217\340\001\007:\030\001\346D\322\001\346\030\340\001\t\315\n\000\334\245\005\000\036N\006\000\001\344\034\000\3347\017\000\346E\007\000\007<\f\000\"R\006\000\346\005\003\000\334:\003\000\346\365\035\000\346\027\340\001\001\350\034\000\t=\031\001\346\321 \000\334\030\003\000\346\"\b\000\007\267\026\001\346\020\003\000\346!\b\000\346x\003\001\334\244\005\000\346\203\017\000\346\301\252\000\312\320\035\000\346\205\321\001\334\321\b\000\346\257\005\000\346\345\035\000\b\2310\000\346e\003\000\346Q\t\000\346i\003\000\334H\007\000z\311\016\000\346\027\b\000\346\332\006\000\350\355\344\001\001\345\034\000\3347\007\000\346\021\003\000\334\343\006\000\t\363\033\000\334\233\b\000\346\001\021\001\030\301\005\000\346\350-\000\346\024\006\000\346.\376\000\346y\003\001\334\317\035\000\346,\b\000\334/\003\000\tD\033\000\t\025\027\000\346\313\032\000\334l\033\000z\312\016\000\346\025\340\001\001\346 \000\346$\376\000\346C\322\001\346!\340\001kI\016\000$\021\007\000\346\337\006\000\007\263\251\000\346Z\006\000\334\177\032\000\346\332\b\000\346\341\b\000\t\231\032\001\334\200\321\001\346\357\250\000\346\364\035\000\346w\003\001\351b\003\000\346\224\005\000\0015\003\000\334\362\007\000\334\212\321\001\346\313\035\000\346\251\005\000\001\346\034\000\334M\003\000z\310\016\000\346\327\006\000\334\215\020\000\346\304\005\000\346j\003\000\334&\003\000\346\n\340\001\346\340\250\000\334\247\005\000\346\352\035\000\346\326\006\000\346\347\250\000\346\013\003\000\001\360j\001\0077\034\000\340.0\000kH\016\000\346\330\035\000\334\270\032\000\334\030\032\000\346\371-\000\032\036\373\000\346c\003\000\346J\007\000\346$\340\001\346\231\005\000\346\236\005\000\346\363\007\000\t\362\033\000\346\030\b\000\346\351\250\000\3466k\001\334P\017\001\346\324\035\000\346\262\252\000\346\345\250\000\334D\007\000\346\202\017\001\336-0\000\3341\003\000\346\210\321\001\346\355\007\000\346\006\340\001\346\270\252\000\334S\003\000\346\026\340\001\334\312\035\000\346?\007\000\3345\017\000\346\236\246\000\334#\003\000\346\345\b\000\334\354 \000\346\356\342\001\344\256\005\000\346q\023\001\346)\340\001\3344\007\000\334\266\032\000\346\347 \000\334}\321\001\346\375\b\000\t\315\t\000\346\202\017\000\346z\032\000\346T\006\000\007J\351\001"

	.section	__DATA,__const
	.p2align	3
l___unnamed_17:
	.quad	l___unnamed_68
	.asciz	"\232\003\000\000\000\000\000"

	.section	__TEXT,__const
	.p2align	1
l___unnamed_69:
	.asciz	"\000\000\000\000\000\000\000\000]\002\003\000]\000\000\000\002\000\t\000\004\000\207\000\006\0005\001\001\000\000\000\000\000\004\000\003\000\341\000x\000\000\000\002\000)\000\b\000\217\000$\000\000\000\000\000\000\0001\000\000\000\000\000m\000\000\0003\000\001\000L\000\000\000\001\000\000\000\000\000\b\000|\000\006\000L\000E\000*\000\002\000\000\000\000\000\000\000\n\000\000\000\000\000Y\000\000\000\020\000\003\000\t\000\016\000\006\000\001\000\f\000\020\000\000\000\000\000\000\000=\000\000\000\000\000*\000\000\000\000\000\001\000 \000\n\000\000\000\001\000\016\000\002\000\020\000\"\000\000\000a\000\000\000\004\000\025\000\000\000\004\000\003\000\000\000\000\000\003\000\000\000\r\000\001\000\001\000$\000\003\000\004\000\000\000\000\000\030\000X\000\000\000\000\000\n\000\031\000\020\000\000\000\002\000\000\000\000\000\022\000\025\000\000\000\f\000\007\000\003\000\000\000\032\000\007\000\f\000\001\000\005\000\004\000!\000\001\000\002\000\000\000\000\000\001\000\n\000\000\000\n\000\000\000\004\000\t\000\005\000\r\000\005\000\000\000\003\000\006\000&\000\013\000\000\000\004\000\006\000\000\000\023\000\000\000\000\000\004\000\001\000\000\000\000\000\000\000$\000\001\000\035\000\001\000\000\000\000\000\020\000\000\000\001\000\001\000\001\000\000\000\000\000\n\000\000\000\r\000\000\000\020\000\000\000\006\000\005\000\000\000\000\000\t\000\003\000\001\000\000\000\000\000\000\000\000\000\002\000\001\000\002\000\000\000\000\000\026\000\001\000\002\000\000\000\001\000\000\000\006\000\001\000%\000\005\000\000\000\n\000\r\000\002\000\000\000\001\000\000\000\000\000\022\000\000\000\000\000\001\000\000\000\001\000\000\000\001\000\000\000\004\000\t\000\000\000\001\000\004\000\000\000\004\000\001\000\006\000\013\000\003\000\006\000\007\000\000\000\000\000\000\000\r\000\017\000\016\000\000\000\001\000\001\000\004\000\017\000\020\000\000\000\005\000\000\000\031\000\001\000\016\000\000\000\b\000\001\000\003\000\000\000\000\000\005\000\001\000\000\000\000\000\021\000\000\000\004\000\005\000\000\000\001\000\000\000\000\000\000\000\000\000\002\000\001\000\000\000\000\000\002\000\001\000\001\000\005\000\b\000\000\000\000\000\f\000\n\000\000\000\006\000\t\000\003\000\001\000\006\000\001\000\000\000\033\000\001\000\016\000\000\000\b\000\005\000\003\000\025\000\000\000\002\000\007\000\013\000\003\000\000\000\n\000\003\000\000\000\006\000\000\000\n\000\000\000\001\000\003\000\b\000\000\000\t\000\000\000\001\000\002\000\000\000\005\000\000\000\001\000\000\000\000\000\000\000\027\000\000\000\000\000\002\000\000\000\005\000\026\000\000\000\020\000\003\000\004\000\021\000\001\000\003\000\000\000\000\000\000\000\004\000\001\000\000\000\005\000\000\000\002\000\001\000\000\000\002\000\000\000\002\000\002\000\000\000\000\000\000\000\000\000\002\000\000\000\022\000\001\000\004\000\n\000\013\000\004\000\000\000\002\000\000\000\003\000\000\000\004\000\005\000\000\000\000\000\021\000\001\000\006\000\006\000\000\000\002\000\000\000\001\000\000\000\004\000\000\000\000\000\001\000\001\000\007\000\000\000\003\000\n\000\000\000\001\000\n\000\002\000\000\000\001\000\000\000\000\000\r\000\005\000\001\000\001\000\000\000\000\000\005\000\006\000\b\000\004\000\005\000\000\000\013\000\000\000\004\000\013\000\000\000\000\000\001\000\005\000\000\000\013\000\000\000\006\000\000\000\000\000\000\000\000\000\001\000\000\000\004\000\000\000\006\000\000\000\000\000\007\000\023\000\004\000\031\000\003\000\001\000\000\000\001\000\006\000\006\000\000\000\000\000\000\000\000\000\f\000\002\000\003\000\000\000\004\000\000\000\001\000\000\000\001\000\005\000\001\000\001\000\002\000\001\000\000\000\000\000\000\000\000\000\t\000\000\000\000\000\007\000\001\000\t\000\006\000\004\000\001\000\005\000\000\000\001\000\002\000\b\000\000\000\t\000\000\000\000\000\001\000\003\000\013\000\000\000\001\000\000\000\000\000\005\000\000\000\000\000\000\000\000\000\000\000\003\000\000\000\002\000\001\000\002\000\000\000\000\000\000\000\004\000\001\000\000\000\006\000\002\000\005\000\b\000\022\000\000\000\000\000\000\000\003\000\001\000\000\000\000\000\000\000\002\000\003\000\003\000\000\000\000\000\001\000\000\000\001\000\000\000\003\000\000\000\000\000\002\000\001\000\004\000\r\000\000\000\000\000\013\000\000\000\001\000\000\000\000\000\f\000\000\000\000\000\000\000\005\000\b\000\002\000\000\000\002\000\001\000\006\000\001\000\001\000\001\000\000\000\002\000\000\000\005\000\001\000\001\000\000\000\002\000\000\000\000\000\000\000\000\000\016\000\020\000\000\000\005\000\004\000\002\000\001\000\000\000\000\000\003\000\001\000\000\000\002\000\001\000\004\000\000\000\000\000\003\000\000\000\001\000\001\000\003\000\001\000\005\000\002\000\003\000\004\000\000\000\003\000\003\000\006\000\000\000\000\000\001\000\000\000\002\000\016\000\001\000\002\000\001\000\004\000\002\000\005\000\002\000\001\000\001\000\000\000\001\000\000\000\005\000\005\000\006\000\006\000\005\000\000\000\002\000\001\000\000\000\002\000\004\000\001\000\000\000\005\000\000\000\006\000\002\000\b\000\000\000\000\000\007\000\001\000\002\000\002\000\005\000\004\000\021\000\000\000\003\000\000\000\001\000\000\000\001\000\004\000\000\000\003\000\002\000\000\000\001\000\003\000\000\000\013\000\006\000\000\000\006\000\000\000\004\000\001\000\002\000\000\000\001\000\000\000\002\000\001\000\002\000\000\000\005\000\001\000\000\000\000\000\000\000\001\000\003\000\002\000\006\000\000\000\000\000\002\000\004\000\006\000\000\000\000\000\000\000\000\000\f\000\f\000\000\000\000\000\000\000\004\000\004\000\000\000\b\000\003\000\001\000\000\000\001\000\000\000\003\000\000\000\000\000\005\000\000\000\005\000\001\000\000\000\003\000\004\000\001\000\002\000\003\000\000\000\001\000\007\000\000\000\000\000\007\000\000\000\002\000\002\000\000\000\000\000\001\000\001\000\001\000\001\000\013\000\000\000\004\000\000\000\001\000\001\000\000\000\002\000\001\000\001\000\005\000\000\000\000\000\003\000\006\000\000\000\000\000\004\000\002\000\001\000\003\000\003\000\n\000\007\000\000\000\004\000\001\000\006\000\000\000\001\000\000\000\000\000\002\000\001\000\001\000\000\000\000\000\000\000\000\000\000\000\002\000\001\000\001\000\001\000\004\000\000\000\003\000\000\000\001\000\000\000\000\000\001\000\000\000\001\000\000\000\004\000\000\000\001\000\000\000\006\000\000\000\001\000\000\000\004\000\000\000\001\000\002\000\006\000\000\000\002\000\000\000\003\000\007\000\000\000\003\000\000\000\001\000\001\000\000\000\000\000\003\000\005\000\002\000\000\000\001\000\001\000\002\000\002\000\004\000\001\000\000\000\000\000\001\000\000\000\003\000\002\000\000\000\001\000\000\000\002\000\004\000\002\000\000\000\001\000\005\000\000\000\000\000\002\000\001\000\001\000\000\000\000\000\001\000\000\000\005\000\002\000\000\000\b\000\003\000\001\000\001\000\001\000\003\000\004\000\000\000\002\000\000\000\001\000\002\000\000\000\000\000\000\000\000\000\000\000\001\000\000\000\006\000\000\000\000\000\000\000\003\000\000\000\000\000\002\000\002\000\000\000\001\000\003\000\001\000\003\000\001\000\002\000\000\000\001\000\002\000\000\000\000\000\001\000\000\000\003\000\001\000\002\000\000\000\002\000\001\000\000\000\002\000\004\000\000\000\005\000\005\000\000\000\005\000\002\000\000\000\001\000\003\000\001\000\000\000\002\000\006\000\002\000\001\000\000\000\000\000\000\000\003"

	.section	__DATA,__const
	.p2align	3
l___unnamed_18:
	.quad	l___unnamed_69
	.asciz	"\240\003\000\000\000\000\000"

	.section	__TEXT,__const
	.p2align	2
l___unnamed_70:
