	.section	__TEXT,__text,regular,pure_instructions
	.macosx_version_min 10, 7
	.file	1 "/Users/natalie/.cargo/registry/src/github.com-1ecc6299db9ec823/url-2.3.1" "src/origin.rs"
	.globl	__ZN100_$LT$core..iter..adapters..skip..Skip$LT$I$GT$$u20$as$u20$core..iter..traits..iterator..Iterator$GT$4next17h36c548e6b1c586b0E
	.p2align	4, 0x90
__ZN100_$LT$core..iter..adapters..skip..Skip$LT$I$GT$$u20$as$u20$core..iter..traits..iterator..Iterator$GT$4next17h36c548e6b1c586b0E:
Lfunc_begin0:
	.file	2 "/rustc/2c8cc343237b8f7d5a3c3703e3a87f2eb2c54a74/library/core/src/iter/adapters" "skip.rs"
	.loc	2 34 0
	.cfi_startproc
	pushq	%rbp
	.cfi_def_cfa_offset 16
	.cfi_offset %rbp, -16
	movq	%rsp, %rbp
	.cfi_def_cfa_register %rbp
	subq	$48, %rsp
	movq	%rsi, -48(%rbp)
	movq	%rdi, -40(%rbp)
	movq	%rdi, -32(%rbp)
	movq	%rsi, -24(%rbp)
Ltmp0:
	.loc	2 35 21 prologue_end
	cmpq	$0, 64(%rsi)
	seta	%al
	.loc	2 35 12 is_stmt 0
	andb	$1, %al
	movb	%al, -9(%rbp)
	testb	$1, -9(%rbp)
	jne	LBB0_2
	.loc	2 0 12
	movq	-48(%rbp), %rsi
	movq	-40(%rbp), %rdi
	.loc	2 38 13 is_stmt 1
	callq	__ZN80_$LT$std..path..Components$u20$as$u20$core..iter..traits..iterator..Iterator$GT$4next17h815346e1d1d33de3E
	.loc	2 35 9
	jmp	LBB0_3
LBB0_2:
	.loc	2 0 9 is_stmt 0
	movq	-48(%rbp), %rdi
	.loc	2 36 44 is_stmt 1
	addq	$64, %rdi
	movq	%rdi, -8(%rbp)
Ltmp1:
	.file	3 "/rustc/2c8cc343237b8f7d5a3c3703e3a87f2eb2c54a74/library/core/src/mem" "mod.rs"
	.loc	3 839 5
	xorl	%eax, %eax
	movl	%eax, %esi
	callq	__ZN4core3mem7replace17hc1ff0f03d2acd468E
	movq	-40(%rbp), %rdi
	movq	-48(%rbp), %rsi
	movq	%rax, %rdx
Ltmp2:
	.loc	2 36 13
	callq	__ZN4core4iter6traits8iterator8Iterator3nth17he390373c7fcad640E
LBB0_3:
	.loc	2 0 13 is_stmt 0
	movq	-32(%rbp), %rax
	.loc	2 40 6 is_stmt 1
	addq	$48, %rsp
	popq	%rbp
	retq
Ltmp3:
Lfunc_end0:
	.cfi_endproc

	.globl	__ZN100_$LT$core..iter..adapters..take..Take$LT$I$GT$$u20$as$u20$core..iter..traits..iterator..Iterator$GT$4next17h307404d9a816f66bE
	.p2align	4, 0x90
__ZN100_$LT$core..iter..adapters..take..Take$LT$I$GT$$u20$as$u20$core..iter..traits..iterator..Iterator$GT$4next17h307404d9a816f66bE:
Lfunc_begin1:
	.file	4 "/rustc/2c8cc343237b8f7d5a3c3703e3a87f2eb2c54a74/library/core/src/iter/adapters" "take.rs"
	.loc	4 34 0
	.cfi_startproc
	pushq	%rbp
	.cfi_def_cfa_offset 16
	.cfi_offset %rbp, -16
	movq	%rsp, %rbp
	.cfi_def_cfa_register %rbp
	subq	$32, %rsp
	movq	%rdi, -24(%rbp)
	movq	%rdi, -8(%rbp)
Ltmp4:
	.loc	4 35 12 prologue_end
	cmpq	$0, (%rdi)
	jne	LBB1_2
	.loc	4 39 13
	movl	$1114112, -12(%rbp)
	.loc	4 35 9
	jmp	LBB1_3
LBB1_2:
	.loc	4 0 9 is_stmt 0
	movq	-24(%rbp), %rdi
	.loc	4 36 13 is_stmt 1
	movq	(%rdi), %rax
	subq	$1, %rax
	movq	%rax, (%rdi)
	.loc	4 37 13
	addq	$8, %rdi
	callq	__ZN72_$LT$$RF$mut$u20$I$u20$as$u20$core..iter..traits..iterator..Iterator$GT$4next17h9c7c419188f22fb0E
	movl	%eax, -12(%rbp)
LBB1_3:
	.loc	4 41 6
	movl	-12(%rbp), %eax
	addq	$32, %rsp
	popq	%rbp
	retq
Ltmp5:
Lfunc_end1:
	.cfi_endproc

	.globl	__ZN100_$LT$core..iter..adapters..take..Take$LT$I$GT$$u20$as$u20$core..iter..traits..iterator..Iterator$GT$8for_each17h90e11e8092217ba0E
	.p2align	4, 0x90
__ZN100_$LT$core..iter..adapters..take..Take$LT$I$GT$$u20$as$u20$core..iter..traits..iterator..Iterator$GT$8for_each17h90e11e8092217ba0E:
Lfunc_begin2:
	.loc	4 103 0
	.cfi_startproc
	.cfi_personality 155, _rust_eh_personality
	.cfi_lsda 16, Lexception0
	pushq	%rbp
	.cfi_def_cfa_offset 16
	.cfi_offset %rbp, -16
	movq	%rsp, %rbp
	.cfi_def_cfa_register %rbp
	subq	$96, %rsp
	movq	%rdx, -72(%rbp)
	movq	%rdi, -56(%rbp)
	movq	%rsi, -48(%rbp)
	movq	%rdx, -32(%rbp)
Ltmp11:
	.loc	4 116 13 prologue_end
	movb	$1, -33(%rbp)
	.loc	4 116 25 is_stmt 0
	movq	-56(%rbp), %rax
	movq	%rax, -64(%rbp)
	movq	%rax, -24(%rbp)
Ltmp12:
	.loc	4 117 12 is_stmt 1
	cmpq	$0, %rax
	ja	LBB2_2
Ltmp13:
LBB2_1:
	.loc	4 120 5
	testb	$1, -33(%rbp)
	jne	LBB2_8
	jmp	LBB2_7
LBB2_2:
	.loc	4 0 5 is_stmt 0
	movq	-72(%rbp), %rdi
	movq	-64(%rbp), %rax
Ltmp14:
	.loc	4 118 13 is_stmt 1
	leaq	-48(%rbp), %rcx
	movq	%rcx, -96(%rbp)
	.loc	4 118 32 is_stmt 0
	decq	%rax
	movq	%rax, -88(%rbp)
	.loc	4 118 53
	movb	$0, -33(%rbp)
Ltmp6:
	.loc	4 118 47
	callq	__ZN100_$LT$core..iter..adapters..take..Take$LT$I$GT$$u20$as$u20$core..iter..traits..iterator..Iterator$GT$8for_each5check17h634bd83776afb387E
Ltmp7:
	movq	%rax, -80(%rbp)
	jmp	LBB2_5
Ltmp15:
LBB2_3:
	.loc	4 103 5 is_stmt 1
	movq	-16(%rbp), %rdi
	callq	__Unwind_Resume
LBB2_4:
Ltmp10:
	.loc	4 0 5 is_stmt 0
	movq	%rax, %rcx
	movl	%edx, %eax
	movq	%rcx, -16(%rbp)
	movl	%eax, -8(%rbp)
	jmp	LBB2_3
LBB2_5:
Ltmp8:
	movq	-80(%rbp), %rdx
	movq	-88(%rbp), %rsi
	movq	-96(%rbp), %rdi
Ltmp16:
	.loc	4 118 13 is_stmt 1
	callq	__ZN4core4iter6traits8iterator8Iterator8try_fold17h74408ba1a51b30a5E
Ltmp9:
	jmp	LBB2_6
LBB2_6:
	.loc	4 117 9
	jmp	LBB2_1
Ltmp17:
LBB2_7:
	.loc	4 120 6
	addq	$96, %rsp
	popq	%rbp
	retq
LBB2_8:
	.loc	4 120 5 is_stmt 0
	jmp	LBB2_7
Ltmp18:
Lfunc_end2:
	.cfi_endproc
	.section	__TEXT,__gcc_except_tab
	.p2align	2
GCC_except_table2:
Lexception0:
	.byte	255
	.byte	255
	.byte	1
	.uleb128 Lcst_end0-Lcst_begin0
Lcst_begin0:
	.uleb128 Ltmp6-Lfunc_begin2
	.uleb128 Ltmp7-Ltmp6
	.uleb128 Ltmp10-Lfunc_begin2
	.byte	0
	.uleb128 Ltmp7-Lfunc_begin2
	.uleb128 Ltmp8-Ltmp7
	.byte	0
	.byte	0
	.uleb128 Ltmp8-Lfunc_begin2
	.uleb128 Ltmp9-Ltmp8
	.uleb128 Ltmp10-Lfunc_begin2
	.byte	0
Lcst_end0:
	.p2align	2

	.section	__TEXT,__text,regular,pure_instructions
	.globl	__ZN100_$LT$core..iter..adapters..take..Take$LT$I$GT$$u20$as$u20$core..iter..traits..iterator..Iterator$GT$8for_each5check17h634bd83776afb387E
	.p2align	4, 0x90
__ZN100_$LT$core..iter..adapters..take..Take$LT$I$GT$$u20$as$u20$core..iter..traits..iterator..Iterator$GT$8for_each5check17h634bd83776afb387E:
Lfunc_begin3:
	.loc	4 107 0 is_stmt 1
	.cfi_startproc
	pushq	%rbp
	.cfi_def_cfa_offset 16
	.cfi_offset %rbp, -16
	movq	%rsp, %rbp
	.cfi_def_cfa_register %rbp
	subq	$16, %rsp
	movq	%rdi, -8(%rbp)
Ltmp19:
	.loc	4 110 13 prologue_end
	movq	%rdi, -16(%rbp)
	.loc	4 114 10
	movq	-16(%rbp), %rax
	addq	$16, %rsp
	popq	%rbp
	retq
Ltmp20:
Lfunc_end3:
	.cfi_endproc

	.globl	__ZN100_$LT$core..iter..adapters..take..Take$LT$I$GT$$u20$as$u20$core..iter..traits..iterator..Iterator$GT$8for_each5check28_$u7b$$u7b$closure$u7d$$u7d$17h9186295d47e394abE
	.p2align	4, 0x90
__ZN100_$LT$core..iter..adapters..take..Take$LT$I$GT$$u20$as$u20$core..iter..traits..iterator..Iterator$GT$8for_each5check28_$u7b$$u7b$closure$u7d$$u7d$17h9186295d47e394abE:
Lfunc_begin4:
	.loc	4 110 0
	.cfi_startproc
	pushq	%rbp
	.cfi_def_cfa_offset 16
	.cfi_offset %rbp, -16
	movq	%rsp, %rbp
	.cfi_def_cfa_register %rbp
	subq	$48, %rsp
	movq	%rsi, -40(%rbp)
	movq	%rdi, -24(%rbp)
	movq	%rsi, -16(%rbp)
	movl	%edx, -4(%rbp)
Ltmp21:
	.loc	4 111 17 prologue_end
	movl	%edx, -28(%rbp)
	movl	-28(%rbp), %esi
	callq	__ZN89_$LT$alloc..string..String$u20$as$u20$core..iter..traits..collect..Extend$LT$char$GT$$GT$6extend28_$u7b$$u7b$closure$u7d$$u7d$17h3757c3e3fbec927eE
	movq	-40(%rbp), %rdi
	movl	$1, %esi
	.loc	4 112 17
	callq	__ZN4core3num23_$LT$impl$u20$usize$GT$11checked_sub17hb9e86e9983c93624E
	.loc	4 113 14
	addq	$48, %rsp
	popq	%rbp
	retq
Ltmp22:
Lfunc_end4:
	.cfi_endproc

	.globl	__ZN100_$LT$core..iter..adapters..take..Take$LT$I$GT$$u20$as$u20$core..iter..traits..iterator..Iterator$GT$9size_hint17h02b97603da8b4a12E
	.p2align	4, 0x90
__ZN100_$LT$core..iter..adapters..take..Take$LT$I$GT$$u20$as$u20$core..iter..traits..iterator..Iterator$GT$9size_hint17h02b97603da8b4a12E:
Lfunc_begin5:
	.loc	4 58 0
	.cfi_startproc
	pushq	%rbp
	.cfi_def_cfa_offset 16
	.cfi_offset %rbp, -16
	movq	%rsp, %rbp
	.cfi_def_cfa_register %rbp
	subq	$176, %rsp
	movq	%rsi, -168(%rbp)
	movq	%rdi, -160(%rbp)
	movq	%rdi, -152(%rbp)
	movq	%rsi, -72(%rbp)
Ltmp23:
	.loc	4 59 12 prologue_end
	cmpq	$0, (%rsi)
	jne	LBB5_2
	.loc	4 0 12 is_stmt 0
	movq	-160(%rbp), %rax
	.loc	4 60 24 is_stmt 1
	movq	$0, -136(%rbp)
	movq	$1, -144(%rbp)
	.loc	4 60 20 is_stmt 0
	movq	$0, (%rax)
	movq	-144(%rbp), %rdx
	movq	-136(%rbp), %rcx
	movq	%rdx, 8(%rax)
	movq	%rcx, 16(%rax)
	.loc	4 73 6 is_stmt 1
	jmp	LBB5_8
LBB5_2:
	.loc	4 0 6 is_stmt 0
	movq	-168(%rbp), %rsi
	.loc	4 63 30 is_stmt 1
	addq	$8, %rsi
	leaq	-112(%rbp), %rdi
	callq	__ZN72_$LT$$RF$mut$u20$I$u20$as$u20$core..iter..traits..iterator..Iterator$GT$9size_hint17h89b73a5758308f2aE
	movq	-168(%rbp), %rax
	.loc	4 63 14 is_stmt 0
	movq	-112(%rbp), %rdi
	movq	%rdi, -64(%rbp)
	.loc	4 63 21
	movq	-104(%rbp), %rdx
	movq	-96(%rbp), %rcx
	movq	%rdx, -128(%rbp)
	movq	%rcx, -120(%rbp)
Ltmp24:
	.loc	4 65 30 is_stmt 1
	movq	%rdi, -56(%rbp)
	.loc	4 65 37 is_stmt 0
	movq	(%rax), %rsi
	movq	%rsi, -48(%rbp)
Ltmp25:
	.file	5 "/rustc/2c8cc343237b8f7d5a3c3703e3a87f2eb2c54a74/library/core/src" "cmp.rs"
	.loc	5 1185 5 is_stmt 1
	movq	%rdi, -40(%rbp)
	.loc	5 1185 12 is_stmt 0
	movq	%rsi, -32(%rbp)
Ltmp26:
	.loc	5 833 13 is_stmt 1
	callq	__ZN4core3cmp6min_by17hafed8255140713f1E
	movq	%rax, -176(%rbp)
	movq	%rax, -24(%rbp)
Ltmp27:
	.loc	4 67 21
	cmpq	$1, -128(%rbp)
	jne	LBB5_4
	.loc	4 0 21 is_stmt 0
	movq	-168(%rbp), %rcx
	.loc	4 68 18 is_stmt 1
	leaq	-128(%rbp), %rax
	addq	$8, %rax
	movq	%rax, -16(%rbp)
	.loc	4 68 24 is_stmt 0
	movq	-120(%rbp), %rax
	cmpq	(%rcx), %rax
	jb	LBB5_6
	jmp	LBB5_5
LBB5_4:
	.loc	4 0 24
	movq	-168(%rbp), %rax
	.loc	4 69 23 is_stmt 1
	movq	(%rax), %rax
	.loc	4 69 18 is_stmt 0
	movq	%rax, -80(%rbp)
	movq	$1, -88(%rbp)
	.loc	4 69 29
	jmp	LBB5_7
LBB5_5:
	.loc	4 68 24 is_stmt 1
	jmp	LBB5_4
LBB5_6:
	.loc	4 68 18 is_stmt 0
	movq	-120(%rbp), %rax
	movq	%rax, -8(%rbp)
Ltmp28:
	.loc	4 68 38
	movq	%rax, -80(%rbp)
	movq	$1, -88(%rbp)
Ltmp29:
LBB5_7:
	.loc	4 0 38
	movq	-160(%rbp), %rax
	movq	-176(%rbp), %rsi
Ltmp30:
	.loc	4 72 17 is_stmt 1
	movq	-88(%rbp), %rdx
	movq	-80(%rbp), %rcx
	.loc	4 72 9 is_stmt 0
	movq	%rsi, (%rax)
	movq	%rdx, 8(%rax)
	movq	%rcx, 16(%rax)
Ltmp31:
LBB5_8:
	.loc	4 0 9
	movq	-152(%rbp), %rax
	.loc	4 73 6 is_stmt 1
	addq	$176, %rsp
	popq	%rbp
	retq
Ltmp32:
Lfunc_end5:
	.cfi_endproc

	.globl	__ZN100_$LT$core..ops..range..RangeInclusive$LT$T$GT$$u20$as$u20$core..ops..range..RangeBounds$LT$T$GT$$GT$11start_bound17h6842c154c5a93a72E
	.p2align	4, 0x90
__ZN100_$LT$core..ops..range..RangeInclusive$LT$T$GT$$u20$as$u20$core..ops..range..RangeBounds$LT$T$GT$$GT$11start_bound17h6842c154c5a93a72E:
Lfunc_begin6:
	.file	6 "/rustc/2c8cc343237b8f7d5a3c3703e3a87f2eb2c54a74/library/core/src/ops" "range.rs"
	.loc	6 871 0
	.cfi_startproc
	pushq	%rbp
	.cfi_def_cfa_offset 16
	.cfi_offset %rbp, -16
	movq	%rsp, %rbp
	.cfi_def_cfa_register %rbp
	subq	$24, %rsp
	movq	%rdi, -8(%rbp)
Ltmp33:
	.loc	6 872 9 prologue_end
	movq	%rdi, -16(%rbp)
	movq	$0, -24(%rbp)
	.loc	6 873 6
	movq	-24(%rbp), %rax
	movq	-16(%rbp), %rdx
	addq	$24, %rsp
	popq	%rbp
	retq
Ltmp34:
Lfunc_end6:
	.cfi_endproc

	.globl	__ZN100_$LT$core..ops..range..RangeInclusive$LT$T$GT$$u20$as$u20$core..ops..range..RangeBounds$LT$T$GT$$GT$9end_bound17h78f19b6a9649f387E
	.p2align	4, 0x90
__ZN100_$LT$core..ops..range..RangeInclusive$LT$T$GT$$u20$as$u20$core..ops..range..RangeBounds$LT$T$GT$$GT$9end_bound17h78f19b6a9649f387E:
Lfunc_begin7:
	.loc	6 874 0
	.cfi_startproc
	pushq	%rbp
	.cfi_def_cfa_offset 16
	.cfi_offset %rbp, -16
	movq	%rsp, %rbp
	.cfi_def_cfa_register %rbp
	subq	$32, %rsp
	movq	%rdi, -32(%rbp)
	movq	%rdi, -8(%rbp)
Ltmp35:
	.loc	6 875 12 prologue_end
	testb	$1, 8(%rdi)
	jne	LBB7_2
	.loc	6 0 12 is_stmt 0
	movq	-32(%rbp), %rax
	.loc	6 880 22 is_stmt 1
	addq	$4, %rax
	.loc	6 880 13 is_stmt 0
	movq	%rax, -16(%rbp)
	movq	$0, -24(%rbp)
	.loc	6 875 9 is_stmt 1
	jmp	LBB7_3
LBB7_2:
	.loc	6 0 9 is_stmt 0
	movq	-32(%rbp), %rax
	.loc	6 878 22 is_stmt 1
	addq	$4, %rax
	.loc	6 878 13 is_stmt 0
	movq	%rax, -16(%rbp)
	movq	$1, -24(%rbp)
LBB7_3:
	.loc	6 882 6 is_stmt 1
	movq	-24(%rbp), %rax
	movq	-16(%rbp), %rdx
	addq	$32, %rsp
	popq	%rbp
	retq
Ltmp36:
Lfunc_end7:
	.cfi_endproc

	.p2align	4, 0x90
__ZN102_$LT$core..str..iter..CharIndices$u20$as$u20$core..iter..traits..double_ended..DoubleEndedIterator$GT$9next_back17h1a895dbfee936187E:
Lfunc_begin8:
	.file	7 "/rustc/2c8cc343237b8f7d5a3c3703e3a87f2eb2c54a74/library/core/src/str" "iter.rs"
	.loc	7 171 0
	.cfi_startproc
	pushq	%rbp
	.cfi_def_cfa_offset 16
	.cfi_offset %rbp, -16
	movq	%rsp, %rbp
	.cfi_def_cfa_register %rbp
	subq	$48, %rsp
	movq	%rdi, -40(%rbp)
	movq	%rdi, -16(%rbp)
Ltmp37:
	.loc	7 172 9 prologue_end
	movq	%rdi, -8(%rbp)
Ltmp38:
	.loc	7 84 18
	callq	__ZN4core3str11validations23next_code_point_reverse17h259df0f9cbbad49bE
	movl	%eax, %edi
	movl	%edx, %esi
	callq	__ZN4core6option15Option$LT$T$GT$3map17h2d5eb5228b43d433E
	movl	%eax, %edi
	movq	-40(%rbp), %rax
Ltmp39:
	.loc	7 172 35
	movq	%rax, %rcx
	addq	$16, %rcx
	movq	%rcx, -32(%rbp)
	movq	%rax, -24(%rbp)
	.loc	7 172 9 is_stmt 0
	movq	-32(%rbp), %rsi
	movq	-24(%rbp), %rdx
	callq	__ZN4core6option15Option$LT$T$GT$3map17he8b832cb7ecff3faE
	.loc	7 176 6 is_stmt 1
	addq	$48, %rsp
	popq	%rbp
	retq
Ltmp40:
Lfunc_end8:
	.cfi_endproc

	.globl	__ZN102_$LT$core..str..iter..CharIndices$u20$as$u20$core..iter..traits..double_ended..DoubleEndedIterator$GT$9next_back28_$u7b$$u7b$closure$u7d$$u7d$17hdf3b70cdd29eeb21E
	.p2align	4, 0x90
__ZN102_$LT$core..str..iter..CharIndices$u20$as$u20$core..iter..traits..double_ended..DoubleEndedIterator$GT$9next_back28_$u7b$$u7b$closure$u7d$$u7d$17hdf3b70cdd29eeb21E:
Lfunc_begin9:
	.loc	7 172 0
	.cfi_startproc
	pushq	%rbp
	.cfi_def_cfa_offset 16
	.cfi_offset %rbp, -16
	movq	%rsp, %rbp
	.cfi_def_cfa_register %rbp
	subq	$96, %rsp
	movl	%edx, -84(%rbp)
	movq	%rdi, -72(%rbp)
	movq	%rsi, -64(%rbp)
	movl	%edx, -36(%rbp)
Ltmp41:
	.loc	7 173 25 prologue_end
	movq	-72(%rbp), %rcx
	.loc	7 173 45 is_stmt 0
	movq	-64(%rbp), %rax
	.loc	7 173 25
	movq	(%rcx), %rcx
	movq	%rcx, -80(%rbp)
	.loc	7 173 45
	movq	%rax, -32(%rbp)
Ltmp42:
	.file	8 "/rustc/2c8cc343237b8f7d5a3c3703e3a87f2eb2c54a74/library/core/src/slice/iter" "macros.rs"
	.loc	8 16 21 is_stmt 1
	movq	8(%rax), %rsi
	movq	%rsi, -24(%rbp)
Ltmp43:
	.loc	8 25 22
	movq	(%rax), %rdi
	.loc	8 25 40 is_stmt 0
	movq	%rsi, -16(%rbp)
	.loc	8 25 22
	callq	__ZN4core3ptr9const_ptr33_$LT$impl$u20$$BP$const$u20$T$GT$7sub_ptr17hc32fa110e98753f4E
	movl	-84(%rbp), %edx
	movq	%rax, %rcx
	movq	-80(%rbp), %rax
Ltmp44:
	.loc	7 173 25 is_stmt 1
	addq	%rcx, %rax
	movq	%rax, -8(%rbp)
Ltmp45:
	.loc	7 174 13
	movq	%rax, -56(%rbp)
	movl	%edx, -48(%rbp)
Ltmp46:
	.loc	7 175 10
	movq	-56(%rbp), %rax
	movl	-48(%rbp), %edx
	addq	$96, %rsp
	popq	%rbp
	retq
Ltmp47:
Lfunc_end9:
	.cfi_endproc

	.globl	__ZN103_$LT$alloc..vec..into_iter..IntoIter$LT$T$C$A$GT$$u20$as$u20$core..iter..traits..iterator..Iterator$GT$4next17h48fbe8c47ee195b8E
	.p2align	4, 0x90
__ZN103_$LT$alloc..vec..into_iter..IntoIter$LT$T$C$A$GT$$u20$as$u20$core..iter..traits..iterator..Iterator$GT$4next17h48fbe8c47ee195b8E:
Lfunc_begin10:
	.file	9 "/rustc/2c8cc343237b8f7d5a3c3703e3a87f2eb2c54a74/library/alloc/src/vec" "into_iter.rs"
	.loc	9 187 0
	.cfi_startproc
	pushq	%rbp
	.cfi_def_cfa_offset 16
	.cfi_offset %rbp, -16
	movq	%rsp, %rbp
	.cfi_def_cfa_register %rbp
	subq	$272, %rsp
	movq	%rdi, -264(%rbp)
	movq	%rdi, -192(%rbp)
Ltmp48:
	.loc	9 188 12 prologue_end
	movq	8(%rdi), %rax
	cmpq	16(%rdi), %rax
	je	LBB10_2
	.loc	9 190 19
	xorl	%eax, %eax
	testb	$1, %al
	jne	LBB10_5
	jmp	LBB10_4
LBB10_2:
	.loc	9 189 13
	movq	$0, -256(%rbp)
LBB10_3:
	.loc	9 203 6
	movq	-256(%rbp), %rax
	movq	-248(%rbp), %rdx
	addq	$272, %rsp
	popq	%rbp
	retq
LBB10_4:
	.loc	9 0 6 is_stmt 0
	movq	-264(%rbp), %rcx
	.loc	9 198 23 is_stmt 1
	movq	8(%rcx), %rax
	movq	%rax, -80(%rbp)
Ltmp49:
	.loc	9 199 33
	movq	8(%rcx), %rdx
	movq	%rdx, -72(%rbp)
Ltmp50:
	.file	10 "/rustc/2c8cc343237b8f7d5a3c3703e3a87f2eb2c54a74/library/core/src/ptr" "const_ptr.rs"
	.loc	10 932 18
	movq	%rdx, -64(%rbp)
Ltmp51:
	.loc	10 473 18
	addq	$16, %rdx
	movq	%rdx, -56(%rbp)
	movq	-56(%rbp), %rdx
Ltmp52:
	.loc	9 199 13
	movq	%rdx, 8(%rcx)
	.loc	9 201 37
	movq	%rax, -48(%rbp)
Ltmp53:
	.file	11 "/rustc/2c8cc343237b8f7d5a3c3703e3a87f2eb2c54a74/library/core/src/ptr" "mod.rs"
	.loc	11 1157 34
	leaq	-208(%rbp), %rcx
	movq	%rcx, -40(%rbp)
	.loc	11 1157 9 is_stmt 0
	movq	(%rax), %rcx
	movq	%rcx, -208(%rbp)
	movq	8(%rax), %rax
	movq	%rax, -200(%rbp)
	.loc	11 1158 9 is_stmt 1
	movq	-208(%rbp), %rcx
	movq	-200(%rbp), %rax
	movq	%rcx, -32(%rbp)
	movq	%rax, -24(%rbp)
Ltmp54:
	.file	12 "/rustc/2c8cc343237b8f7d5a3c3703e3a87f2eb2c54a74/library/core/src/mem" "maybe_uninit.rs"
	.loc	12 627 38
	movq	%rcx, -16(%rbp)
	movq	%rax, -8(%rbp)
Ltmp55:
	.loc	9 201 13
	movq	%rcx, -256(%rbp)
	movq	%rax, -248(%rbp)
Ltmp56:
	.loc	9 190 16
	jmp	LBB10_6
LBB10_5:
	.loc	9 0 16 is_stmt 0
	movq	-264(%rbp), %rax
	.loc	9 193 24 is_stmt 1
	movq	16(%rax), %rcx
	movq	%rcx, -176(%rbp)
Ltmp57:
	.loc	10 1198 9
	movq	%rcx, -168(%rbp)
Ltmp58:
	.loc	10 61 9
	movq	%rcx, -160(%rbp)
Ltmp59:
	.loc	10 1180 9
	movq	%rcx, -152(%rbp)
Ltmp60:
	.loc	10 555 18
	addq	$-1, %rcx
	movq	%rcx, -144(%rbp)
	movq	-144(%rbp), %rcx
	movq	%rcx, -136(%rbp)
Ltmp61:
	.loc	10 100 29
	movq	%rcx, -128(%rbp)
Ltmp62:
	.file	13 "/rustc/2c8cc343237b8f7d5a3c3703e3a87f2eb2c54a74/library/core/src/ptr" "metadata.rs"
	.loc	13 118 36
	movq	%rcx, -232(%rbp)
	.loc	13 118 14 is_stmt 0
	movq	-232(%rbp), %rcx
	movq	%rcx, -240(%rbp)
	movq	-240(%rbp), %rcx
Ltmp63:
	.loc	9 193 13 is_stmt 1
	movq	%rcx, 16(%rax)
Ltmp64:
	.loc	3 646 9
	leaq	_str.0(%rip), %rdi
	movl	$58, %esi
	callq	__ZN4core9panicking14panic_nounwind17h30c28fda67313a65E
Ltmp65:
	.loc	12 399 13
	leaq	-224(%rbp), %rax
	movq	%rax, -120(%rbp)
Ltmp66:
	.loc	12 569 9
	leaq	-224(%rbp), %rax
	movq	%rax, -112(%rbp)
Ltmp67:
	.file	14 "/rustc/2c8cc343237b8f7d5a3c3703e3a87f2eb2c54a74/library/core/src/ptr" "mut_ptr.rs"
	.loc	14 1488 30
	leaq	-224(%rbp), %rax
	movq	%rax, -104(%rbp)
Ltmp68:
	.file	15 "/rustc/2c8cc343237b8f7d5a3c3703e3a87f2eb2c54a74/library/core/src" "intrinsics.rs"
	.loc	15 2529 9
	leaq	-224(%rbp), %rdi
	xorl	%esi, %esi
	movl	$16, %edx
	callq	_memset
Ltmp69:
	.loc	12 627 38
	movq	-224(%rbp), %rcx
	movq	-216(%rbp), %rax
	movq	%rcx, -96(%rbp)
	movq	%rax, -88(%rbp)
Ltmp70:
	.loc	9 196 13
	movq	%rcx, -256(%rbp)
	movq	%rax, -248(%rbp)
LBB10_6:
	.loc	9 188 9
	jmp	LBB10_3
Ltmp71:
Lfunc_end10:
	.cfi_endproc

	.globl	__ZN103_$LT$alloc..vec..into_iter..IntoIter$LT$T$C$A$GT$$u20$as$u20$core..iter..traits..iterator..Iterator$GT$9size_hint17hd7dccb07596e1227E
	.p2align	4, 0x90
__ZN103_$LT$alloc..vec..into_iter..IntoIter$LT$T$C$A$GT$$u20$as$u20$core..iter..traits..iterator..Iterator$GT$9size_hint17hd7dccb07596e1227E:
Lfunc_begin11:
	.loc	9 206 0
	.cfi_startproc
	pushq	%rbp
	.cfi_def_cfa_offset 16
	.cfi_offset %rbp, -16
	movq	%rsp, %rbp
	.cfi_def_cfa_register %rbp
	subq	$128, %rsp
	movq	%rsi, -120(%rbp)
	movq	%rdi, -112(%rbp)
	movq	%rdi, -104(%rbp)
	movq	%rsi, -72(%rbp)
Ltmp72:
	.loc	9 207 24 prologue_end
	xorl	%eax, %eax
	testb	$1, %al
	jne	LBB11_2
	.loc	9 0 24 is_stmt 0
	movq	-120(%rbp), %rax
	.loc	9 210 22 is_stmt 1
	movq	16(%rax), %rdi
	.loc	9 210 39 is_stmt 0
	movq	8(%rax), %rsi
	.loc	9 210 22
	callq	__ZN4core3ptr9const_ptr33_$LT$impl$u20$$BP$const$u20$T$GT$7sub_ptr17h90911035b4d7f004E
	movq	%rax, -96(%rbp)
	.loc	9 207 21 is_stmt 1
	jmp	LBB11_3
LBB11_2:
	.loc	9 0 21 is_stmt 0
	movq	-120(%rbp), %rcx
	.loc	9 208 13 is_stmt 1
	movq	16(%rcx), %rax
	movq	%rax, -64(%rbp)
Ltmp73:
	.loc	10 209 33
	movq	%rax, -56(%rbp)
	.loc	10 209 18 is_stmt 0
	movq	%rax, -48(%rbp)
	movq	-48(%rbp), %rax
	movq	%rax, -40(%rbp)
Ltmp74:
	.loc	9 208 42 is_stmt 1
	movq	8(%rcx), %rcx
	movq	%rcx, -32(%rbp)
Ltmp75:
	.loc	10 209 33
	movq	%rcx, -24(%rbp)
	.loc	10 209 18 is_stmt 0
	movq	%rcx, -16(%rbp)
	movq	-16(%rbp), %rcx
	movq	%rcx, -8(%rbp)
Ltmp76:
	.file	16 "/rustc/2c8cc343237b8f7d5a3c3703e3a87f2eb2c54a74/library/core/src/num" "uint_macros.rs"
	.loc	16 1203 13 is_stmt 1
	subq	%rcx, %rax
	movq	%rax, -96(%rbp)
Ltmp77:
LBB11_3:
	.loc	16 0 13 is_stmt 0
	movq	-104(%rbp), %rax
	movq	-112(%rbp), %rcx
Ltmp78:
	.loc	9 212 10 is_stmt 1
	movq	-96(%rbp), %rdx
	.loc	9 212 22 is_stmt 0
	movq	-96(%rbp), %rsi
	.loc	9 212 17
	movq	%rsi, -80(%rbp)
	movq	$1, -88(%rbp)
	.loc	9 212 9
	movq	%rdx, (%rcx)
	movq	-88(%rbp), %rsi
	movq	-80(%rbp), %rdx
	movq	%rsi, 8(%rcx)
	movq	%rdx, 16(%rcx)
Ltmp79:
	.loc	9 213 6 is_stmt 1
	addq	$128, %rsp
	popq	%rbp
	retq
Ltmp80:
Lfunc_end11:
	.cfi_endproc

	.globl	__ZN103_$LT$core..ops..try_trait..NeverShortCircuit$LT$T$GT$$u20$as$u20$core..ops..try_trait..FromResidual$GT$13from_residual17ha56f1515bb542a03E
	.p2align	4, 0x90
__ZN103_$LT$core..ops..try_trait..NeverShortCircuit$LT$T$GT$$u20$as$u20$core..ops..try_trait..FromResidual$GT$13from_residual17ha56f1515bb542a03E:
Lfunc_begin12:
	.file	17 "/rustc/2c8cc343237b8f7d5a3c3703e3a87f2eb2c54a74/library/core/src/ops" "try_trait.rs"
	.loc	17 411 0
	.cfi_startproc
	pushq	%rbp
	.cfi_def_cfa_offset 16
	.cfi_offset %rbp, -16
	movq	%rsp, %rbp
	.cfi_def_cfa_register %rbp
	pushq	%rax
Ltmp81:
	.loc	17 412 15 prologue_end
	ud2
Ltmp82:
Lfunc_end12:
	.cfi_endproc

	.globl	__ZN104_$LT$core..ops..control_flow..ControlFlow$LT$B$C$C$GT$$u20$as$u20$core..ops..try_trait..FromResidual$GT$13from_residual17hd5a4afda5fa0739eE
	.p2align	4, 0x90
__ZN104_$LT$core..ops..control_flow..ControlFlow$LT$B$C$C$GT$$u20$as$u20$core..ops..try_trait..FromResidual$GT$13from_residual17hd5a4afda5fa0739eE:
Lfunc_begin13:
	.file	18 "/rustc/2c8cc343237b8f7d5a3c3703e3a87f2eb2c54a74/library/core/src/ops" "control_flow.rs"
	.loc	18 123 0
	.cfi_startproc
	pushq	%rbp
	.cfi_def_cfa_offset 16
	.cfi_offset %rbp, -16
	movq	%rsp, %rbp
	.cfi_def_cfa_register %rbp
	subq	$24, %rsp
Ltmp83:
	.loc	18 125 38 prologue_end
	movb	$1, -17(%rbp)
Ltmp84:
	.loc	18 127 6
	movb	-17(%rbp), %al
	andb	$1, %al
	movzbl	%al, %eax
	addq	$24, %rsp
	popq	%rbp
	retq
Ltmp85:
Lfunc_end13:
	.cfi_endproc

	.globl	__ZN104_$LT$core..ops..control_flow..ControlFlow$LT$B$C$C$GT$$u20$as$u20$core..ops..try_trait..FromResidual$GT$13from_residual17he6966f2ac5d3027aE
	.p2align	4, 0x90
__ZN104_$LT$core..ops..control_flow..ControlFlow$LT$B$C$C$GT$$u20$as$u20$core..ops..try_trait..FromResidual$GT$13from_residual17he6966f2ac5d3027aE:
Lfunc_begin14:
	.loc	18 123 0
	.cfi_startproc
	pushq	%rbp
	.cfi_def_cfa_offset 16
	.cfi_offset %rbp, -16
	movq	%rsp, %rbp
	.cfi_def_cfa_register %rbp
	subq	$12, %rsp
	movl	%edi, -12(%rbp)
Ltmp86:
	.loc	18 125 32 prologue_end
	movl	-12(%rbp), %eax
	movl	%eax, -4(%rbp)
Ltmp87:
	.loc	18 125 38 is_stmt 0
	movl	%eax, -8(%rbp)
Ltmp88:
	.loc	18 127 6 is_stmt 1
	movl	-8(%rbp), %eax
	addq	$12, %rsp
	popq	%rbp
	retq
Ltmp89:
Lfunc_end14:
	.cfi_endproc

	.globl	__ZN104_$LT$core..str..pattern..MultiCharEqSearcher$LT$C$GT$$u20$as$u20$core..str..pattern..ReverseSearcher$GT$9next_back17h99b75443f327b21eE
	.p2align	4, 0x90
__ZN104_$LT$core..str..pattern..MultiCharEqSearcher$LT$C$GT$$u20$as$u20$core..str..pattern..ReverseSearcher$GT$9next_back17h99b75443f327b21eE:
Lfunc_begin15:
	.file	19 "/rustc/2c8cc343237b8f7d5a3c3703e3a87f2eb2c54a74/library/core/src/str" "pattern.rs"
	.loc	19 678 0
	.cfi_startproc
	pushq	%rbp
	.cfi_def_cfa_offset 16
	.cfi_offset %rbp, -16
	movq	%rsp, %rbp
	.cfi_def_cfa_register %rbp
	subq	$192, %rsp
	movq	%rsi, %rax
	movq	%rax, -160(%rbp)
	movq	%rdi, -152(%rbp)
	movq	%rdi, -144(%rbp)
	movq	%rax, -104(%rbp)
Ltmp90:
	.loc	19 679 17 prologue_end
	movq	%rax, %rsi
	addq	$16, %rsi
	movq	%rsi, -136(%rbp)
	movq	%rsi, -96(%rbp)
Ltmp91:
	.loc	19 682 23
	movq	%rsi, -88(%rbp)
Ltmp92:
	.loc	8 16 21
	movq	24(%rax), %rsi
	movq	%rsi, -80(%rbp)
Ltmp93:
	.loc	8 25 22
	movq	16(%rax), %rdi
	.loc	8 25 40 is_stmt 0
	movq	%rsi, -72(%rbp)
	.loc	8 25 22
	callq	__ZN4core3ptr9const_ptr33_$LT$impl$u20$$BP$const$u20$T$GT$7sub_ptr17hc32fa110e98753f4E
	movq	-136(%rbp), %rdi
	movq	%rax, %rcx
	movq	%rcx, -128(%rbp)
	movq	%rax, -64(%rbp)
Ltmp94:
	.loc	19 683 31 is_stmt 1
	callq	__ZN102_$LT$core..str..iter..CharIndices$u20$as$u20$core..iter..traits..double_ended..DoubleEndedIterator$GT$9next_back17h1a895dbfee936187E
	movl	%edx, -112(%rbp)
	movq	%rax, -120(%rbp)
	.loc	19 683 16 is_stmt 0
	movl	$1, %eax
	xorl	%ecx, %ecx
	cmpl	$1114112, -112(%rbp)
	cmoveq	%rcx, %rax
	cmpq	$1, %rax
	jne	LBB15_2
	.loc	19 0 16
	movq	-136(%rbp), %rax
	.loc	19 683 22
	movq	-120(%rbp), %rcx
	movq	%rcx, -184(%rbp)
	movq	%rcx, -56(%rbp)
	.loc	19 683 25
	movl	-112(%rbp), %ecx
	movl	%ecx, -172(%rbp)
	movl	%ecx, -44(%rbp)
	.loc	19 684 23 is_stmt 1
	movq	%rax, -40(%rbp)
Ltmp95:
	.loc	8 16 21
	movq	8(%rax), %rsi
	movq	%rsi, -32(%rbp)
Ltmp96:
	.loc	8 25 22
	movq	(%rax), %rdi
	.loc	8 25 40 is_stmt 0
	movq	%rsi, -24(%rbp)
	.loc	8 25 22
	callq	__ZN4core3ptr9const_ptr33_$LT$impl$u20$$BP$const$u20$T$GT$7sub_ptr17hc32fa110e98753f4E
	movq	-160(%rbp), %rdi
	movl	-172(%rbp), %esi
	movq	%rax, %rcx
	movq	-128(%rbp), %rax
	movq	%rcx, -16(%rbp)
Ltmp97:
	.loc	19 685 28 is_stmt 1
	subq	%rcx, %rax
	movq	%rax, -168(%rbp)
	movq	%rax, -8(%rbp)
Ltmp98:
	.loc	19 686 16
	callq	__ZN53_$LT$F$u20$as$u20$core..str..pattern..MultiCharEq$GT$7matches17h3f65d1df4c98b3cbE
	testb	$1, %al
	jne	LBB15_5
	jmp	LBB15_4
Ltmp99:
LBB15_2:
	.loc	19 0 16 is_stmt 0
	movq	-152(%rbp), %rax
	.loc	19 692 9 is_stmt 1
	movq	$2, (%rax)
Ltmp100:
LBB15_3:
	.loc	19 0 9 is_stmt 0
	movq	-144(%rbp), %rax
	.loc	19 693 6 is_stmt 1
	addq	$192, %rsp
	popq	%rbp
	retq
LBB15_4:
	.loc	19 0 6 is_stmt 0
	movq	-152(%rbp), %rax
	movq	-184(%rbp), %rdx
	movq	-168(%rbp), %rsi
Ltmp101:
	.loc	19 689 46 is_stmt 1
	movq	%rdx, %rcx
	addq	%rsi, %rcx
	.loc	19 689 24 is_stmt 0
	movq	%rdx, 8(%rax)
	movq	%rcx, 16(%rax)
	movq	$1, (%rax)
	.loc	19 689 17
	jmp	LBB15_6
LBB15_5:
	.loc	19 0 17
	movq	-152(%rbp), %rax
	movq	-184(%rbp), %rdx
	movq	-168(%rbp), %rsi
	.loc	19 687 45 is_stmt 1
	movq	%rdx, %rcx
	addq	%rsi, %rcx
	.loc	19 687 24 is_stmt 0
	movq	%rdx, 8(%rax)
	movq	%rcx, 16(%rax)
	movq	$0, (%rax)
Ltmp102:
LBB15_6:
	.loc	19 693 6 is_stmt 1
	jmp	LBB15_3
Ltmp103:
Lfunc_end15:
	.cfi_endproc

	.globl	__ZN104_$LT$core..str..pattern..MultiCharEqSearcher$LT$C$GT$$u20$as$u20$core..str..pattern..ReverseSearcher$GT$9next_back17haa9b096743169fd7E
	.p2align	4, 0x90
__ZN104_$LT$core..str..pattern..MultiCharEqSearcher$LT$C$GT$$u20$as$u20$core..str..pattern..ReverseSearcher$GT$9next_back17haa9b096743169fd7E:
Lfunc_begin16:
	.loc	19 678 0
	.cfi_startproc
	pushq	%rbp
	.cfi_def_cfa_offset 16
	.cfi_offset %rbp, -16
	movq	%rsp, %rbp
	.cfi_def_cfa_register %rbp
	subq	$192, %rsp
	movq	%rsi, %rax
	movq	%rax, -160(%rbp)
	movq	%rdi, -152(%rbp)
	movq	%rdi, -144(%rbp)
	movq	%rax, -104(%rbp)
Ltmp104:
	.loc	19 679 17 prologue_end
	movq	%rax, %rsi
	addq	$16, %rsi
	movq	%rsi, -136(%rbp)
	movq	%rsi, -96(%rbp)
Ltmp105:
	.loc	19 682 23
	movq	%rsi, -88(%rbp)
Ltmp106:
	.loc	8 16 21
	movq	24(%rax), %rsi
	movq	%rsi, -80(%rbp)
Ltmp107:
	.loc	8 25 22
	movq	16(%rax), %rdi
	.loc	8 25 40 is_stmt 0
	movq	%rsi, -72(%rbp)
	.loc	8 25 22
	callq	__ZN4core3ptr9const_ptr33_$LT$impl$u20$$BP$const$u20$T$GT$7sub_ptr17hc32fa110e98753f4E
	movq	-136(%rbp), %rdi
	movq	%rax, %rcx
	movq	%rcx, -128(%rbp)
	movq	%rax, -64(%rbp)
Ltmp108:
	.loc	19 683 31 is_stmt 1
	callq	__ZN102_$LT$core..str..iter..CharIndices$u20$as$u20$core..iter..traits..double_ended..DoubleEndedIterator$GT$9next_back17h1a895dbfee936187E
	movl	%edx, -112(%rbp)
	movq	%rax, -120(%rbp)
	.loc	19 683 16 is_stmt 0
	movl	$1, %eax
	xorl	%ecx, %ecx
	cmpl	$1114112, -112(%rbp)
	cmoveq	%rcx, %rax
	cmpq	$1, %rax
	jne	LBB16_2
	.loc	19 0 16
	movq	-136(%rbp), %rax
	.loc	19 683 22
	movq	-120(%rbp), %rcx
	movq	%rcx, -184(%rbp)
	movq	%rcx, -56(%rbp)
	.loc	19 683 25
	movl	-112(%rbp), %ecx
	movl	%ecx, -172(%rbp)
	movl	%ecx, -44(%rbp)
	.loc	19 684 23 is_stmt 1
	movq	%rax, -40(%rbp)
Ltmp109:
	.loc	8 16 21
	movq	8(%rax), %rsi
	movq	%rsi, -32(%rbp)
Ltmp110:
	.loc	8 25 22
	movq	(%rax), %rdi
	.loc	8 25 40 is_stmt 0
	movq	%rsi, -24(%rbp)
	.loc	8 25 22
	callq	__ZN4core3ptr9const_ptr33_$LT$impl$u20$$BP$const$u20$T$GT$7sub_ptr17hc32fa110e98753f4E
	movq	-160(%rbp), %rdi
	movl	-172(%rbp), %esi
	movq	%rax, %rcx
	movq	-128(%rbp), %rax
	movq	%rcx, -16(%rbp)
Ltmp111:
	.loc	19 685 28 is_stmt 1
	subq	%rcx, %rax
	movq	%rax, -168(%rbp)
	movq	%rax, -8(%rbp)
Ltmp112:
	.loc	19 686 16
	callq	__ZN53_$LT$F$u20$as$u20$core..str..pattern..MultiCharEq$GT$7matches17h7e283c81dc7624a1E
	testb	$1, %al
	jne	LBB16_5
	jmp	LBB16_4
Ltmp113:
LBB16_2:
	.loc	19 0 16 is_stmt 0
	movq	-152(%rbp), %rax
	.loc	19 692 9 is_stmt 1
	movq	$2, (%rax)
Ltmp114:
LBB16_3:
	.loc	19 0 9 is_stmt 0
	movq	-144(%rbp), %rax
	.loc	19 693 6 is_stmt 1
	addq	$192, %rsp
	popq	%rbp
	retq
LBB16_4:
	.loc	19 0 6 is_stmt 0
	movq	-152(%rbp), %rax
	movq	-184(%rbp), %rdx
	movq	-168(%rbp), %rsi
Ltmp115:
	.loc	19 689 46 is_stmt 1
	movq	%rdx, %rcx
	addq	%rsi, %rcx
	.loc	19 689 24 is_stmt 0
	movq	%rdx, 8(%rax)
	movq	%rcx, 16(%rax)
	movq	$1, (%rax)
	.loc	19 689 17
	jmp	LBB16_6
LBB16_5:
	.loc	19 0 17
	movq	-152(%rbp), %rax
	movq	-184(%rbp), %rdx
	movq	-168(%rbp), %rsi
	.loc	19 687 45 is_stmt 1
	movq	%rdx, %rcx
	addq	%rsi, %rcx
	.loc	19 687 24 is_stmt 0
	movq	%rdx, 8(%rax)
	movq	%rcx, 16(%rax)
	movq	$0, (%rax)
Ltmp116:
LBB16_6:
	.loc	19 693 6 is_stmt 1
	jmp	LBB16_3
Ltmp117:
Lfunc_end16:
	.cfi_endproc

	.globl	__ZN106_$LT$core..str..pattern..CharPredicateSearcher$LT$F$GT$$u20$as$u20$core..str..pattern..ReverseSearcher$GT$16next_reject_back17hb6113a776d3e0e53E
	.p2align	4, 0x90
__ZN106_$LT$core..str..pattern..CharPredicateSearcher$LT$F$GT$$u20$as$u20$core..str..pattern..ReverseSearcher$GT$16next_reject_back17hb6113a776d3e0e53E:
Lfunc_begin17:
	.loc	19 771 0
	.cfi_startproc
	pushq	%rbp
	.cfi_def_cfa_offset 16
	.cfi_offset %rbp, -16
	movq	%rsp, %rbp
	.cfi_def_cfa_register %rbp
	subq	$16, %rsp
	movq	%rdi, %rax
	movq	%rax, -16(%rbp)
	movq	%rsi, -8(%rbp)
Ltmp118:
	.loc	19 772 13 prologue_end
	callq	__ZN4core3str7pattern15ReverseSearcher16next_reject_back17h9336b05bdf09d178E
	movq	-16(%rbp), %rax
	.loc	19 773 10
	addq	$16, %rsp
	popq	%rbp
	retq
Ltmp119:
Lfunc_end17:
	.cfi_endproc

	.globl	__ZN106_$LT$core..str..pattern..CharPredicateSearcher$LT$F$GT$$u20$as$u20$core..str..pattern..ReverseSearcher$GT$16next_reject_back17hba899a58a9f5ead0E
	.p2align	4, 0x90
__ZN106_$LT$core..str..pattern..CharPredicateSearcher$LT$F$GT$$u20$as$u20$core..str..pattern..ReverseSearcher$GT$16next_reject_back17hba899a58a9f5ead0E:
Lfunc_begin18:
	.loc	19 771 0
	.cfi_startproc
	pushq	%rbp
	.cfi_def_cfa_offset 16
	.cfi_offset %rbp, -16
	movq	%rsp, %rbp
	.cfi_def_cfa_register %rbp
	subq	$16, %rsp
	movq	%rdi, %rax
	movq	%rax, -16(%rbp)
	movq	%rsi, -8(%rbp)
Ltmp120:
	.loc	19 772 13 prologue_end
	callq	__ZN4core3str7pattern15ReverseSearcher16next_reject_back17hf52158a34b97b732E
	movq	-16(%rbp), %rax
	.loc	19 773 10
	addq	$16, %rsp
	popq	%rbp
	retq
Ltmp121:
Lfunc_end18:
	.cfi_endproc

	.globl	__ZN108_$LT$core..iter..adapters..peekable..Peekable$LT$I$GT$$u20$as$u20$core..iter..traits..iterator..Iterator$GT$4next17hbfe9c2975515b110E
	.p2align	4, 0x90
__ZN108_$LT$core..iter..adapters..peekable..Peekable$LT$I$GT$$u20$as$u20$core..iter..traits..iterator..Iterator$GT$4next17hbfe9c2975515b110E:
Lfunc_begin19:
	.file	20 "/rustc/2c8cc343237b8f7d5a3c3703e3a87f2eb2c54a74/library/core/src/iter/adapters" "peekable.rs"
	.loc	20 36 0
	.cfi_startproc
	pushq	%rbp
	.cfi_def_cfa_offset 16
	.cfi_offset %rbp, -16
	movq	%rsp, %rbp
	.cfi_def_cfa_register %rbp
	subq	$112, %rsp
	movq	%rdi, %rsi
	movq	%rsi, -104(%rbp)
	movq	%rsi, -32(%rbp)
Ltmp122:
	.loc	20 37 15 prologue_end
	addq	$72, %rsi
	movq	%rsi, -24(%rbp)
Ltmp123:
	.file	21 "/rustc/2c8cc343237b8f7d5a3c3703e3a87f2eb2c54a74/library/core/src" "option.rs"
	.loc	21 1623 28
	movq	$0, -56(%rbp)
	.loc	21 1623 9 is_stmt 0
	leaq	-80(%rbp), %rdi
	leaq	-56(%rbp), %rdx
	callq	__ZN4core3mem7replace17hf325a5c4975d59bdE
Ltmp124:
	.loc	20 37 9 is_stmt 1
	cmpq	$0, -80(%rbp)
	jne	LBB19_2
	.loc	20 0 9 is_stmt 0
	movq	-104(%rbp), %rdi
	.loc	20 39 21 is_stmt 1
	callq	__ZN90_$LT$core..str..iter..Split$LT$P$GT$$u20$as$u20$core..iter..traits..iterator..Iterator$GT$4next17h12d5a7a33c8fdeb2E
	movq	%rdx, -88(%rbp)
	movq	%rax, -96(%rbp)
	.loc	20 39 36 is_stmt 0
	jmp	LBB19_3
LBB19_2:
	.loc	20 38 18 is_stmt 1
	movq	-72(%rbp), %rcx
	movq	-64(%rbp), %rax
	movq	%rcx, -16(%rbp)
	movq	%rax, -8(%rbp)
Ltmp125:
	.loc	20 38 24 is_stmt 0
	movq	%rcx, -96(%rbp)
	movq	%rax, -88(%rbp)
Ltmp126:
LBB19_3:
	.loc	20 41 6 is_stmt 1
	movq	-96(%rbp), %rax
	movq	-88(%rbp), %rdx
	addq	$112, %rsp
	popq	%rbp
	retq
Ltmp127:
Lfunc_end19:
	.cfi_endproc

	.p2align	4, 0x90
__ZN109_$LT$alloc..string..String$u20$as$u20$core..ops..index..Index$LT$core..ops..range..Range$LT$usize$GT$$GT$$GT$5index17h47f280ba84e5b40bE:
Lfunc_begin20:
	.file	22 "/rustc/2c8cc343237b8f7d5a3c3703e3a87f2eb2c54a74/library/alloc/src" "string.rs"
	.loc	22 2361 0
	.cfi_startproc
	pushq	%rbp
	.cfi_def_cfa_offset 16
	.cfi_offset %rbp, -16
	movq	%rsp, %rbp
	.cfi_def_cfa_register %rbp
	subq	$128, %rsp
	movq	%rsi, -128(%rbp)
	movq	%rdx, -120(%rbp)
	movq	%rcx, -112(%rbp)
	movq	%rdi, -104(%rbp)
	movq	%rsi, -96(%rbp)
	movq	%rdx, -88(%rbp)
Ltmp128:
	.loc	22 2362 10 prologue_end
	movq	%rdi, -72(%rbp)
Ltmp129:
	.loc	22 2389 43
	callq	__ZN72_$LT$alloc..vec..Vec$LT$T$C$A$GT$$u20$as$u20$core..ops..deref..Deref$GT$5deref17h7a5c131a8ce8beeeE
	movq	-128(%rbp), %rdi
	movq	-120(%rbp), %rsi
	movq	-112(%rbp), %r8
	movq	%rax, -64(%rbp)
	movq	%rdx, -56(%rbp)
Ltmp130:
	.file	23 "/rustc/2c8cc343237b8f7d5a3c3703e3a87f2eb2c54a74/library/core/src/str" "converts.rs"
	.loc	23 173 14
	movq	%rax, -48(%rbp)
	movq	%rdx, -40(%rbp)
	movq	-48(%rbp), %rdx
	movq	-40(%rbp), %rcx
Ltmp131:
	.loc	22 2362 10
	movq	%rdx, -32(%rbp)
	movq	%rcx, -24(%rbp)
	.loc	22 2362 19 is_stmt 0
	movq	%rdi, -16(%rbp)
	movq	%rsi, -8(%rbp)
Ltmp132:
	.file	24 "/rustc/2c8cc343237b8f7d5a3c3703e3a87f2eb2c54a74/library/core/src/str" "traits.rs"
	.loc	24 65 9 is_stmt 1
	callq	__ZN4core3str6traits108_$LT$impl$u20$core..slice..index..SliceIndex$LT$str$GT$$u20$for$u20$core..ops..range..Range$LT$usize$GT$$GT$5index17h00e8744453a4aea1E
Ltmp133:
	.loc	22 2363 6
	addq	$128, %rsp
	popq	%rbp
	retq
Ltmp134:
Lfunc_end20:
	.cfi_endproc

	.globl	__ZN110_$LT$core..iter..adapters..enumerate..Enumerate$LT$I$GT$$u20$as$u20$core..iter..traits..iterator..Iterator$GT$4next17h1008f59eb60e64b8E
	.p2align	4, 0x90
__ZN110_$LT$core..iter..adapters..enumerate..Enumerate$LT$I$GT$$u20$as$u20$core..iter..traits..iterator..Iterator$GT$4next17h1008f59eb60e64b8E:
Lfunc_begin21:
	.file	25 "/rustc/2c8cc343237b8f7d5a3c3703e3a87f2eb2c54a74/library/core/src/iter/adapters" "enumerate.rs"
	.loc	25 45 0
	.cfi_startproc
	.cfi_personality 155, _rust_eh_personality
	.cfi_lsda 16, Lexception1
	pushq	%rbp
	.cfi_def_cfa_offset 16
	.cfi_offset %rbp, -16
	movq	%rsp, %rbp
	.cfi_def_cfa_register %rbp
	subq	$160, %rsp
	movq	%rdi, -128(%rbp)
	movq	%rdi, -72(%rbp)
Ltmp138:
	.loc	25 46 17 prologue_end
	callq	__ZN91_$LT$core..slice..iter..Iter$LT$T$GT$$u20$as$u20$core..iter..traits..iterator..Iterator$GT$4next17h07339236ce5dd8d8E
	movq	%rax, -96(%rbp)
Ltmp139:
	.loc	21 2407 15
	movq	-96(%rbp), %rdx
	movl	$1, %eax
	xorl	%ecx, %ecx
	cmpq	$0, %rdx
	cmoveq	%rcx, %rax
	.loc	21 2407 9 is_stmt 0
	cmpq	$0, %rax
	jne	LBB21_2
	.loc	21 2409 21 is_stmt 1
	movq	$0, -104(%rbp)
	.loc	21 2409 44 is_stmt 0
	jmp	LBB21_3
LBB21_2:
	.loc	21 2408 18 is_stmt 1
	movq	-96(%rbp), %rax
	movq	%rax, -48(%rbp)
Ltmp140:
	.loc	21 2408 24 is_stmt 0
	movq	%rax, -104(%rbp)
Ltmp141:
LBB21_3:
	.loc	25 46 17 is_stmt 1
	movq	-104(%rbp), %rdx
	xorl	%eax, %eax
	movl	$1, %ecx
	cmpq	$0, %rdx
	cmoveq	%rcx, %rax
	cmpq	$0, %rax
	jne	LBB21_5
	.loc	25 0 17 is_stmt 0
	movq	-128(%rbp), %rax
	.loc	25 46 17
	movq	-104(%rbp), %rcx
	movq	%rcx, -152(%rbp)
	movq	%rcx, -40(%rbp)
Ltmp142:
	.loc	25 46 17
	movq	%rcx, -32(%rbp)
Ltmp143:
	.loc	25 47 17 is_stmt 1
	movq	16(%rax), %rcx
	movq	%rcx, -144(%rbp)
	movq	%rcx, -24(%rbp)
Ltmp144:
	.loc	25 48 9
	movq	16(%rax), %rax
	addq	$1, %rax
	movq	%rax, -136(%rbp)
	setb	%al
	testb	$1, %al
	jne	LBB21_8
	jmp	LBB21_7
Ltmp145:
LBB21_5:
	.loc	21 2420 21
	movq	$0, -112(%rbp)
Ltmp146:
LBB21_6:
	.loc	25 50 6
	movq	-120(%rbp), %rax
	movq	-112(%rbp), %rdx
	addq	$160, %rsp
	popq	%rbp
	retq
LBB21_7:
	.loc	25 0 6 is_stmt 0
	movq	-152(%rbp), %rax
	movq	-144(%rbp), %rcx
	movq	-128(%rbp), %rdx
	movq	-136(%rbp), %rsi
Ltmp147:
	.loc	25 48 9 is_stmt 1
	movq	%rsi, 16(%rdx)
	.loc	25 49 14
	movq	%rcx, -88(%rbp)
	movq	%rax, -80(%rbp)
	.loc	25 49 9 is_stmt 0
	movq	-88(%rbp), %rcx
	movq	-80(%rbp), %rax
	movq	%rcx, -120(%rbp)
	movq	%rax, -112(%rbp)
Ltmp148:
	.loc	25 50 6 is_stmt 1
	jmp	LBB21_6
LBB21_8:
Ltmp135:
Ltmp149:
	.loc	25 48 9
	leaq	_str.1(%rip), %rdi
	leaq	l___unnamed_24(%rip), %rdx
	movl	$28, %esi
	callq	__ZN4core9panicking5panic17hc1bc45270cf64b03E
Ltmp136:
	jmp	LBB21_11
Ltmp150:
LBB21_9:
	.loc	25 45 5
	movq	-16(%rbp), %rdi
	callq	__Unwind_Resume
Ltmp151:
LBB21_10:
Ltmp137:
	.loc	25 0 5 is_stmt 0
	movq	%rax, %rcx
	movl	%edx, %eax
	movq	%rcx, -16(%rbp)
	movl	%eax, -8(%rbp)
	jmp	LBB21_9
LBB21_11:
	ud2
Lfunc_end21:
	.cfi_endproc
	.section	__TEXT,__gcc_except_tab
	.p2align	2
GCC_except_table21:
Lexception1:
	.byte	255
	.byte	255
	.byte	1
	.uleb128 Lcst_end1-Lcst_begin1
Lcst_begin1:
	.uleb128 Lfunc_begin21-Lfunc_begin21
	.uleb128 Ltmp135-Lfunc_begin21
	.byte	0
	.byte	0
	.uleb128 Ltmp135-Lfunc_begin21
	.uleb128 Ltmp136-Ltmp135
	.uleb128 Ltmp137-Lfunc_begin21
	.byte	0
	.uleb128 Ltmp136-Lfunc_begin21
	.uleb128 Lfunc_end21-Ltmp136
	.byte	0
	.byte	0
Lcst_end1:
	.p2align	2

	.section	__TEXT,__text,regular,pure_instructions
	.p2align	4, 0x90
__ZN111_$LT$alloc..string..String$u20$as$u20$core..ops..index..Index$LT$core..ops..range..RangeTo$LT$usize$GT$$GT$$GT$5index17h9b341586bb0f47d4E:
Lfunc_begin22:
	.loc	22 2370 0 is_stmt 1
	.cfi_startproc
	pushq	%rbp
	.cfi_def_cfa_offset 16
	.cfi_offset %rbp, -16
	movq	%rsp, %rbp
	.cfi_def_cfa_register %rbp
	subq	$112, %rsp
	movq	%rsi, -104(%rbp)
	movq	%rdx, -96(%rbp)
	movq	%rdi, -88(%rbp)
	movq	%rsi, -80(%rbp)
Ltmp152:
	.loc	22 2371 10 prologue_end
	movq	%rdi, -64(%rbp)
Ltmp153:
	.loc	22 2389 43
	callq	__ZN72_$LT$alloc..vec..Vec$LT$T$C$A$GT$$u20$as$u20$core..ops..deref..Deref$GT$5deref17h7a5c131a8ce8beeeE
	movq	-104(%rbp), %rdi
	movq	-96(%rbp), %rcx
	movq	%rax, -56(%rbp)
	movq	%rdx, -48(%rbp)
Ltmp154:
	.loc	23 173 14
	movq	%rax, -40(%rbp)
	movq	%rdx, -32(%rbp)
	movq	-40(%rbp), %rsi
	movq	-32(%rbp), %rdx
Ltmp155:
	.loc	22 2371 10
	movq	%rsi, -24(%rbp)
	movq	%rdx, -16(%rbp)
	.loc	22 2371 19 is_stmt 0
	movq	%rdi, -8(%rbp)
Ltmp156:
	.loc	24 65 9 is_stmt 1
	callq	__ZN4core3str6traits110_$LT$impl$u20$core..slice..index..SliceIndex$LT$str$GT$$u20$for$u20$core..ops..range..RangeTo$LT$usize$GT$$GT$5index17h7c58bb0144cd436cE
Ltmp157:
	.loc	22 2372 6
	addq	$112, %rsp
	popq	%rbp
	retq
Ltmp158:
Lfunc_end22:
	.cfi_endproc

	.globl	__ZN111_$LT$alloc..vec..Vec$LT$T$GT$$u20$as$u20$alloc..vec..spec_from_iter_nested..SpecFromIterNested$LT$T$C$I$GT$$GT$9from_iter17hf906d37a089fa50bE
	.p2align	4, 0x90
__ZN111_$LT$alloc..vec..Vec$LT$T$GT$$u20$as$u20$alloc..vec..spec_from_iter_nested..SpecFromIterNested$LT$T$C$I$GT$$GT$9from_iter17hf906d37a089fa50bE:
Lfunc_begin23:
	.file	26 "/rustc/2c8cc343237b8f7d5a3c3703e3a87f2eb2c54a74/library/alloc/src/vec" "spec_from_iter_nested.rs"
	.loc	26 20 0
	.cfi_startproc
	.cfi_personality 155, _rust_eh_personality
	.cfi_lsda 16, Lexception2
	pushq	%rbp
	.cfi_def_cfa_offset 16
	.cfi_offset %rbp, -16
	movq	%rsp, %rbp
	.cfi_def_cfa_register %rbp
	subq	$528, %rsp
	movq	%rsi, -456(%rbp)
Ltmp175:
	movq	%rdi, %rax
	movq	-456(%rbp), %rdi
	movq	%rax, -448(%rbp)
	movq	%rax, -440(%rbp)
Ltmp176:
	.loc	26 26 13 prologue_end
	movb	$1, -234(%rbp)
Ltmp159:
	.loc	26 26 32 is_stmt 0
	callq	__ZN90_$LT$core..str..iter..Split$LT$P$GT$$u20$as$u20$core..iter..traits..iterator..Iterator$GT$4next17h12d5a7a33c8fdeb2E
Ltmp160:
	movq	%rdx, -432(%rbp)
	movq	%rax, -424(%rbp)
	jmp	LBB23_3
Ltmp177:
LBB23_1:
	.loc	26 45 5 is_stmt 1
	testb	$1, -234(%rbp)
	jne	LBB23_19
	jmp	LBB23_18
Ltmp178:
LBB23_2:
Ltmp161:
	.loc	26 0 5 is_stmt 0
	movq	%rax, %rcx
	movl	%edx, %eax
	movq	%rcx, -208(%rbp)
	movl	%eax, -200(%rbp)
	jmp	LBB23_1
Ltmp179:
LBB23_3:
	movq	-432(%rbp), %rax
	movq	-424(%rbp), %rcx
	.loc	26 26 32 is_stmt 1
	movq	%rcx, -392(%rbp)
	movq	%rax, -384(%rbp)
	movq	-392(%rbp), %rdx
	movl	$1, %eax
	xorl	%ecx, %ecx
	cmpq	$0, %rdx
	cmoveq	%rcx, %rax
	.loc	26 26 26 is_stmt 0
	cmpq	$0, %rax
	jne	LBB23_5
Ltmp180:
	.loc	26 0 26
	movq	-448(%rbp), %rax
Ltmp181:
	.file	27 "/rustc/2c8cc343237b8f7d5a3c3703e3a87f2eb2c54a74/library/alloc/src/vec" "mod.rs"
	.loc	27 425 20 is_stmt 1
	movq	L___unnamed_25(%rip), %rdx
	movq	L___unnamed_25+8(%rip), %rcx
	.loc	27 425 9 is_stmt 0
	movq	%rdx, (%rax)
	movq	%rcx, 8(%rax)
	movq	$0, 16(%rax)
Ltmp182:
	.loc	26 45 5 is_stmt 1
	jmp	LBB23_20
Ltmp183:
LBB23_5:
	.loc	26 0 5 is_stmt 0
	movq	-456(%rbp), %rsi
	.loc	26 28 18 is_stmt 1
	movq	-392(%rbp), %rcx
	movq	%rcx, -472(%rbp)
	movq	-384(%rbp), %rax
	movq	%rax, -464(%rbp)
	movq	%rcx, -192(%rbp)
	movq	%rax, -184(%rbp)
Ltmp162:
	leaq	-376(%rbp), %rdi
Ltmp184:
	.loc	26 29 34
	callq	__ZN4core4iter6traits8iterator8Iterator9size_hint17h43711e0faeda1e15E
Ltmp163:
	jmp	LBB23_8
Ltmp185:
LBB23_6:
	.loc	26 39 13
	movb	$1, %al
	testb	$1, %al
	jne	LBB23_14
	jmp	LBB23_1
Ltmp186:
LBB23_7:
Ltmp168:
	.loc	26 0 13 is_stmt 0
	movq	%rax, %rcx
	movl	%edx, %eax
	movq	%rcx, -208(%rbp)
	movl	%eax, -200(%rbp)
	jmp	LBB23_6
Ltmp187:
LBB23_8:
	.loc	26 29 22 is_stmt 1
	movq	-376(%rbp), %rax
	movq	%rax, -176(%rbp)
Ltmp188:
	.loc	26 31 61
	movq	%rax, -168(%rbp)
Ltmp189:
	.loc	16 1022 13
	incq	%rax
	movq	$-1, %rcx
	cmoveq	%rcx, %rax
	movq	%rax, -160(%rbp)
	movq	-160(%rbp), %rax
	movq	%rax, -480(%rbp)
	movq	%rax, -152(%rbp)
Ltmp190:
	.loc	16 0 13 is_stmt 0
	movq	-480(%rbp), %rsi
	.loc	26 31 21 is_stmt 1
	movq	$4, -144(%rbp)
Ltmp191:
	.loc	5 1276 5
	movq	$4, -136(%rbp)
	.loc	5 1276 12 is_stmt 0
	movq	%rsi, -128(%rbp)
Ltmp164:
	movl	$4, %edi
Ltmp192:
	.loc	5 803 13 is_stmt 1
	callq	__ZN4core3cmp6max_by17h094e7d56a89e8de4E
Ltmp165:
	movq	%rax, -488(%rbp)
	jmp	LBB23_10
Ltmp193:
LBB23_10:
	.loc	5 0 13 is_stmt 0
	movq	-488(%rbp), %rdi
	.loc	5 803 13
	movq	%rdi, -120(%rbp)
Ltmp194:
	.loc	26 32 53 is_stmt 1
	movq	%rdi, -112(%rbp)
Ltmp195:
	.loc	27 483 32
	movq	%rdi, -104(%rbp)
Ltmp196:
	.loc	27 676 45
	movq	%rdi, -96(%rbp)
Ltmp197:
	.file	28 "/rustc/2c8cc343237b8f7d5a3c3703e3a87f2eb2c54a74/library/alloc/src" "raw_vec.rs"
	.loc	28 131 37
	movb	$0, -233(%rbp)
	.loc	28 131 9 is_stmt 0
	movzbl	-233(%rbp), %esi
Ltmp166:
	callq	__ZN5alloc7raw_vec19RawVec$LT$T$C$A$GT$11allocate_in17h3ea34c9754d50f3dE
Ltmp167:
	movq	%rdx, -504(%rbp)
	movq	%rax, -496(%rbp)
	jmp	LBB23_11
Ltmp198:
LBB23_11:
	.loc	28 0 9
	movq	-504(%rbp), %rax
	movq	-496(%rbp), %rcx
	.loc	27 676 9 is_stmt 1
	movq	%rcx, -352(%rbp)
	movq	%rax, -344(%rbp)
	movq	$0, -336(%rbp)
Ltmp199:
	.loc	26 35 32
	leaq	-352(%rbp), %rax
	movq	%rax, -88(%rbp)
Ltmp200:
	.loc	27 1280 19
	leaq	-352(%rbp), %rax
	movq	%rax, -80(%rbp)
Ltmp201:
	.loc	28 224 9
	movq	-344(%rbp), %rax
	movq	%rax, -512(%rbp)
	movq	%rax, -72(%rbp)
Ltmp202:
	.file	29 "/rustc/2c8cc343237b8f7d5a3c3703e3a87f2eb2c54a74/library/core/src/ptr" "unique.rs"
	.loc	29 104 9
	movq	%rax, -64(%rbp)
Ltmp203:
	.file	30 "/rustc/2c8cc343237b8f7d5a3c3703e3a87f2eb2c54a74/library/core/src/ptr" "non_null.rs"
	.loc	30 326 9
	movq	%rax, -56(%rbp)
Ltmp204:
	.loc	27 1282 21
	movq	%rax, -48(%rbp)
Ltmp205:
	.loc	14 52 36
	movq	%rax, -232(%rbp)
	.loc	14 52 18 is_stmt 0
	movq	-232(%rbp), %rax
	movq	%rax, -40(%rbp)
Ltmp206:
	.loc	14 38 13 is_stmt 1
	movq	%rax, -32(%rbp)
Ltmp207:
	.loc	14 215 33
	movq	%rax, -24(%rbp)
	.loc	14 215 18 is_stmt 0
	movq	%rax, -16(%rbp)
	movq	-16(%rbp), %rax
Ltmp208:
	.loc	14 0 18
	movq	-456(%rbp), %rsi
	movq	-512(%rbp), %rax
	movq	-464(%rbp), %rcx
	movq	-472(%rbp), %rdx
	.loc	26 35 53 is_stmt 1
	movq	%rdx, -328(%rbp)
	movq	%rcx, -320(%rbp)
Ltmp209:
	.loc	11 1354 9
	movq	-328(%rbp), %rcx
	movq	-320(%rbp), %rdx
	movq	%rdx, 8(%rax)
	movq	%rcx, (%rax)
	leaq	-352(%rbp), %rax
Ltmp210:
	.loc	26 36 21
	movq	%rax, -8(%rbp)
Ltmp211:
	.loc	27 1377 9
	movq	$1, -336(%rbp)
Ltmp212:
	.loc	26 38 17
	movq	-336(%rbp), %rax
	movq	%rax, -400(%rbp)
	movq	-352(%rbp), %rax
	movq	-344(%rbp), %rcx
	movq	%rcx, -408(%rbp)
	movq	%rax, -416(%rbp)
Ltmp213:
	.loc	26 43 64
	movb	$0, -234(%rbp)
	movl	$9, %ecx
	leaq	-312(%rbp), %rdi
	movq	%rdi, -520(%rbp)
	rep;movsq (%rsi), %es:(%rdi)
	movq	-520(%rbp), %rsi
Ltmp169:
	leaq	-416(%rbp), %rdi
	.loc	26 43 9 is_stmt 0
	callq	__ZN97_$LT$alloc..vec..Vec$LT$T$C$A$GT$$u20$as$u20$alloc..vec..spec_extend..SpecExtend$LT$T$C$I$GT$$GT$11spec_extend17hf24ecb1affad3499E
Ltmp170:
	jmp	LBB23_17
Ltmp214:
LBB23_13:
Ltmp174:
	.loc	26 20 5 is_stmt 1
	callq	__ZN4core9panicking19panic_cannot_unwind17h1fbca7e1d7f56ae1E
Ltmp215:
LBB23_14:
	.loc	26 39 13
	jmp	LBB23_1
Ltmp216:
LBB23_15:
Ltmp172:
	.loc	26 0 13 is_stmt 0
	leaq	-416(%rbp), %rdi
	.loc	26 45 5 is_stmt 1
	callq	__ZN4core3ptr51drop_in_place$LT$alloc..vec..Vec$LT$$RF$str$GT$$GT$17h043b1fbc8ff074bbE
Ltmp173:
	jmp	LBB23_1
Ltmp217:
LBB23_16:
Ltmp171:
	.loc	26 0 5 is_stmt 0
	movq	%rax, %rcx
	movl	%edx, %eax
	movq	%rcx, -208(%rbp)
	movl	%eax, -200(%rbp)
	jmp	LBB23_15
Ltmp218:
LBB23_17:
	movq	-448(%rbp), %rax
Ltmp219:
	.loc	26 44 9 is_stmt 1
	movq	-416(%rbp), %rcx
	movq	%rcx, (%rax)
	movq	-408(%rbp), %rcx
	movq	%rcx, 8(%rax)
	movq	-400(%rbp), %rcx
	movq	%rcx, 16(%rax)
Ltmp220:
	.loc	26 45 5
	jmp	LBB23_20
Ltmp221:
LBB23_18:
	.loc	26 20 5
	movq	-208(%rbp), %rdi
	callq	__Unwind_Resume
Ltmp222:
LBB23_19:
	.loc	26 45 5
	jmp	LBB23_18
Ltmp223:
LBB23_20:
	.loc	26 0 5 is_stmt 0
	movq	-440(%rbp), %rax
	.loc	26 45 6
	addq	$528, %rsp
	popq	%rbp
	retq
Ltmp224:
Lfunc_end23:
	.cfi_endproc
	.section	__TEXT,__gcc_except_tab
	.p2align	2
GCC_except_table23:
Lexception2:
	.byte	255
	.byte	255
	.byte	1
	.uleb128 Lcst_end2-Lcst_begin2
Lcst_begin2:
	.uleb128 Ltmp159-Lfunc_begin23
	.uleb128 Ltmp160-Ltmp159
	.uleb128 Ltmp161-Lfunc_begin23
	.byte	0
	.uleb128 Ltmp162-Lfunc_begin23
	.uleb128 Ltmp167-Ltmp162
	.uleb128 Ltmp168-Lfunc_begin23
	.byte	0
	.uleb128 Ltmp169-Lfunc_begin23
	.uleb128 Ltmp170-Ltmp169
	.uleb128 Ltmp171-Lfunc_begin23
	.byte	0
	.uleb128 Ltmp172-Lfunc_begin23
	.uleb128 Ltmp173-Ltmp172
	.uleb128 Ltmp174-Lfunc_begin23
	.byte	0
	.uleb128 Ltmp173-Lfunc_begin23
	.uleb128 Lfunc_end23-Ltmp173
	.byte	0
	.byte	0
Lcst_end2:
	.p2align	2

	.section	__TEXT,__text,regular,pure_instructions
	.p2align	4, 0x90
__ZN113_$LT$alloc..string..String$u20$as$u20$core..ops..index..Index$LT$core..ops..range..RangeFrom$LT$usize$GT$$GT$$GT$5index17h791c7c07848e92b9E:
Lfunc_begin24:
	.loc	22 2379 0 is_stmt 1
	.cfi_startproc
	pushq	%rbp
	.cfi_def_cfa_offset 16
	.cfi_offset %rbp, -16
	movq	%rsp, %rbp
	.cfi_def_cfa_register %rbp
	subq	$112, %rsp
	movq	%rsi, -104(%rbp)
	movq	%rdx, -96(%rbp)
	movq	%rdi, -88(%rbp)
	movq	%rsi, -80(%rbp)
Ltmp225:
	.loc	22 2380 10 prologue_end
	movq	%rdi, -64(%rbp)
Ltmp226:
	.loc	22 2389 43
	callq	__ZN72_$LT$alloc..vec..Vec$LT$T$C$A$GT$$u20$as$u20$core..ops..deref..Deref$GT$5deref17h7a5c131a8ce8beeeE
	movq	-104(%rbp), %rdi
	movq	-96(%rbp), %rcx
	movq	%rax, -56(%rbp)
	movq	%rdx, -48(%rbp)
Ltmp227:
	.loc	23 173 14
	movq	%rax, -40(%rbp)
	movq	%rdx, -32(%rbp)
	movq	-40(%rbp), %rsi
	movq	-32(%rbp), %rdx
Ltmp228:
	.loc	22 2380 10
	movq	%rsi, -24(%rbp)
	movq	%rdx, -16(%rbp)
	.loc	22 2380 19 is_stmt 0
	movq	%rdi, -8(%rbp)
Ltmp229:
	.loc	24 65 9 is_stmt 1
	callq	__ZN4core3str6traits112_$LT$impl$u20$core..slice..index..SliceIndex$LT$str$GT$$u20$for$u20$core..ops..range..RangeFrom$LT$usize$GT$$GT$5index17hf0996d7cf5e63b7aE
Ltmp230:
	.loc	22 2381 6
	addq	$112, %rsp
	popq	%rbp
	retq
Ltmp231:
Lfunc_end24:
	.cfi_endproc

	.globl	__ZN115_$LT$core..iter..adapters..take_while..TakeWhile$LT$I$C$P$GT$$u20$as$u20$core..iter..traits..iterator..Iterator$GT$4fold17h2c960945c6cd4292E
	.p2align	4, 0x90
__ZN115_$LT$core..iter..adapters..take_while..TakeWhile$LT$I$C$P$GT$$u20$as$u20$core..iter..traits..iterator..Iterator$GT$4fold17h2c960945c6cd4292E:
Lfunc_begin25:
	.file	31 "/rustc/2c8cc343237b8f7d5a3c3703e3a87f2eb2c54a74/library/core/src/iter" "mod.rs"
	.loc	31 365 0
	.cfi_startproc
	.cfi_personality 155, _rust_eh_personality
	.cfi_lsda 16, Lexception3
	pushq	%rbp
	.cfi_def_cfa_offset 16
	.cfi_offset %rbp, -16
	movq	%rsp, %rbp
	.cfi_def_cfa_register %rbp
	subq	$64, %rsp
	movq	%rdi, -64(%rbp)
Ltmp237:
	movq	%rsi, -48(%rbp)
Ltmp238:
	.loc	31 372 17 prologue_end
	movb	$1, -33(%rbp)
Ltmp232:
	leaq	-48(%rbp), %rdi
Ltmp239:
	.loc	31 372 24 is_stmt 0
	callq	__ZN4core13const_closure60ConstFnMutClosure$LT$$RF$mut$u20$CapturedData$C$Function$GT$3new17h877797b6a47ed375E
Ltmp233:
	movq	%rax, -56(%rbp)
Ltmp240:
	jmp	LBB25_3
Ltmp241:
LBB25_1:
	.loc	31 374 9 is_stmt 1
	jmp	LBB25_5
Ltmp242:
LBB25_2:
Ltmp236:
	.loc	31 0 9 is_stmt 0
	movq	%rax, %rcx
	movl	%edx, %eax
	movq	%rcx, -24(%rbp)
	movl	%eax, -16(%rbp)
	jmp	LBB25_1
Ltmp243:
LBB25_3:
	movq	-56(%rbp), %rsi
	movq	-64(%rbp), %rdi
	.loc	31 372 24 is_stmt 1
	movq	%rsi, -8(%rbp)
Ltmp244:
	.loc	31 373 28
	movb	$0, -33(%rbp)
Ltmp234:
	.loc	31 373 13 is_stmt 0
	callq	__ZN115_$LT$core..iter..adapters..take_while..TakeWhile$LT$I$C$P$GT$$u20$as$u20$core..iter..traits..iterator..Iterator$GT$8try_fold17h5bae628ce42939a2E
Ltmp235:
	jmp	LBB25_4
Ltmp245:
LBB25_4:
	.loc	31 374 9 is_stmt 1
	jmp	LBB25_6
Ltmp246:
LBB25_5:
	testb	$1, -33(%rbp)
	jne	LBB25_8
	jmp	LBB25_7
Ltmp247:
LBB25_6:
	.loc	31 374 10 is_stmt 0
	addq	$64, %rsp
	popq	%rbp
	retq
Ltmp248:
LBB25_7:
	.loc	31 365 9 is_stmt 1
	movq	-24(%rbp), %rdi
	callq	__Unwind_Resume
Ltmp249:
LBB25_8:
	.loc	31 374 9
	jmp	LBB25_7
Ltmp250:
Lfunc_end25:
	.cfi_endproc
	.section	__TEXT,__gcc_except_tab
	.p2align	2
GCC_except_table25:
Lexception3:
	.byte	255
	.byte	255
	.byte	1
	.uleb128 Lcst_end3-Lcst_begin3
Lcst_begin3:
	.uleb128 Ltmp232-Lfunc_begin25
	.uleb128 Ltmp235-Ltmp232
	.uleb128 Ltmp236-Lfunc_begin25
	.byte	0
	.uleb128 Ltmp235-Lfunc_begin25
	.uleb128 Lfunc_end25-Ltmp235
	.byte	0
	.byte	0
Lcst_end3:
	.p2align	2

	.section	__TEXT,__text,regular,pure_instructions
	.globl	__ZN115_$LT$core..iter..adapters..take_while..TakeWhile$LT$I$C$P$GT$$u20$as$u20$core..iter..traits..iterator..Iterator$GT$4fold17h44819c62fe3864f5E
	.p2align	4, 0x90
__ZN115_$LT$core..iter..adapters..take_while..TakeWhile$LT$I$C$P$GT$$u20$as$u20$core..iter..traits..iterator..Iterator$GT$4fold17h44819c62fe3864f5E:
Lfunc_begin26:
	.loc	31 365 0
	.cfi_startproc
	.cfi_personality 155, _rust_eh_personality
	.cfi_lsda 16, Lexception4
	pushq	%rbp
	.cfi_def_cfa_offset 16
	.cfi_offset %rbp, -16
	movq	%rsp, %rbp
	.cfi_def_cfa_register %rbp
	subq	$64, %rsp
	movq	%rdi, -64(%rbp)
Ltmp256:
	movq	%rsi, -48(%rbp)
Ltmp257:
	.loc	31 372 17 prologue_end
	movb	$1, -33(%rbp)
Ltmp251:
	leaq	-48(%rbp), %rdi
Ltmp258:
	.loc	31 372 24 is_stmt 0
	callq	__ZN4core13const_closure60ConstFnMutClosure$LT$$RF$mut$u20$CapturedData$C$Function$GT$3new17h85e2b046142affcaE
Ltmp252:
	movq	%rax, -56(%rbp)
Ltmp259:
	jmp	LBB26_3
Ltmp260:
LBB26_1:
	.loc	31 374 9 is_stmt 1
	jmp	LBB26_5
Ltmp261:
LBB26_2:
Ltmp255:
	.loc	31 0 9 is_stmt 0
	movq	%rax, %rcx
	movl	%edx, %eax
	movq	%rcx, -24(%rbp)
	movl	%eax, -16(%rbp)
	jmp	LBB26_1
Ltmp262:
LBB26_3:
	movq	-56(%rbp), %rsi
	movq	-64(%rbp), %rdi
	.loc	31 372 24 is_stmt 1
	movq	%rsi, -8(%rbp)
Ltmp263:
	.loc	31 373 28
	movb	$0, -33(%rbp)
Ltmp253:
	.loc	31 373 13 is_stmt 0
	callq	__ZN115_$LT$core..iter..adapters..take_while..TakeWhile$LT$I$C$P$GT$$u20$as$u20$core..iter..traits..iterator..Iterator$GT$8try_fold17h6d6f43f521e84918E
Ltmp254:
	jmp	LBB26_4
Ltmp264:
LBB26_4:
	.loc	31 374 9 is_stmt 1
	jmp	LBB26_6
Ltmp265:
LBB26_5:
	testb	$1, -33(%rbp)
	jne	LBB26_8
	jmp	LBB26_7
Ltmp266:
LBB26_6:
	.loc	31 374 10 is_stmt 0
	addq	$64, %rsp
	popq	%rbp
	retq
Ltmp267:
LBB26_7:
	.loc	31 365 9 is_stmt 1
	movq	-24(%rbp), %rdi
	callq	__Unwind_Resume
Ltmp268:
LBB26_8:
	.loc	31 374 9
	jmp	LBB26_7
Ltmp269:
Lfunc_end26:
	.cfi_endproc
	.section	__TEXT,__gcc_except_tab
	.p2align	2
GCC_except_table26:
Lexception4:
	.byte	255
	.byte	255
	.byte	1
	.uleb128 Lcst_end4-Lcst_begin4
Lcst_begin4:
	.uleb128 Ltmp251-Lfunc_begin26
	.uleb128 Ltmp254-Ltmp251
	.uleb128 Ltmp255-Lfunc_begin26
	.byte	0
	.uleb128 Ltmp254-Lfunc_begin26
	.uleb128 Lfunc_end26-Ltmp254
	.byte	0
	.byte	0
Lcst_end4:
	.p2align	2

	.section	__TEXT,__text,regular,pure_instructions
	.globl	__ZN115_$LT$core..iter..adapters..take_while..TakeWhile$LT$I$C$P$GT$$u20$as$u20$core..iter..traits..iterator..Iterator$GT$8try_fold17h5bae628ce42939a2E
	.p2align	4, 0x90
__ZN115_$LT$core..iter..adapters..take_while..TakeWhile$LT$I$C$P$GT$$u20$as$u20$core..iter..traits..iterator..Iterator$GT$8try_fold17h5bae628ce42939a2E:
Lfunc_begin27:
	.file	32 "/rustc/2c8cc343237b8f7d5a3c3703e3a87f2eb2c54a74/library/core/src/iter/adapters" "take_while.rs"
	.loc	32 67 0
	.cfi_startproc
	.cfi_personality 155, _rust_eh_personality
	.cfi_lsda 16, Lexception5
	pushq	%rbp
	.cfi_def_cfa_offset 16
	.cfi_offset %rbp, -16
	movq	%rsp, %rbp
	.cfi_def_cfa_register %rbp
	subq	$112, %rsp
	movq	%rdi, -104(%rbp)
	movq	%rsi, -96(%rbp)
	movq	%rdi, -56(%rbp)
	movq	%rsi, -40(%rbp)
Ltmp280:
	.loc	32 88 12 prologue_end
	movb	$1, -58(%rbp)
	testb	$1, 16(%rdi)
	jne	LBB27_2
	.loc	32 0 12 is_stmt 0
	movq	-96(%rbp), %rcx
	movq	-104(%rbp), %rdx
	.loc	32 91 24 is_stmt 1
	movq	%rdx, %rsi
	addq	$16, %rsi
	movq	%rsi, -16(%rbp)
Ltmp281:
	.loc	32 92 21
	movq	%rdx, -8(%rbp)
Ltmp282:
	.loc	32 93 32
	movb	$1, -57(%rbp)
	.loc	32 93 53 is_stmt 0
	movb	$0, -58(%rbp)
Ltmp270:
	leaq	-88(%rbp), %rdi
	.loc	32 93 38
	callq	__ZN115_$LT$core..iter..adapters..take_while..TakeWhile$LT$I$C$P$GT$$u20$as$u20$core..iter..traits..iterator..Iterator$GT$8try_fold5check17h57ce5b1139e83554E
Ltmp271:
	jmp	LBB27_9
Ltmp283:
LBB27_2:
Ltmp277:
	.loc	32 89 19 is_stmt 1
	callq	__ZN94_$LT$core..ops..try_trait..NeverShortCircuit$LT$T$GT$$u20$as$u20$core..ops..try_trait..Try$GT$11from_output17h45c2abc2d718513eE
Ltmp278:
	jmp	LBB27_5
LBB27_3:
	.loc	32 95 5
	testb	$1, -58(%rbp)
	jne	LBB27_14
	jmp	LBB27_13
LBB27_4:
Ltmp279:
	.loc	32 0 5 is_stmt 0
	movq	%rax, %rcx
	movl	%edx, %eax
	movq	%rcx, -32(%rbp)
	movl	%eax, -24(%rbp)
	jmp	LBB27_3
LBB27_5:
	.loc	32 88 9 is_stmt 1
	jmp	LBB27_6
LBB27_6:
	.loc	32 95 5
	testb	$1, -58(%rbp)
	jne	LBB27_16
	jmp	LBB27_15
LBB27_7:
Ltmp284:
	.loc	32 93 58
	testb	$1, -57(%rbp)
	jne	LBB27_11
	jmp	LBB27_3
LBB27_8:
Ltmp274:
	.loc	32 0 58 is_stmt 0
	movq	%rax, %rcx
	movl	%edx, %eax
	movq	%rcx, -32(%rbp)
	movl	%eax, -24(%rbp)
	jmp	LBB27_7
LBB27_9:
	movq	-104(%rbp), %rdi
	.loc	32 93 13
	movb	$0, -57(%rbp)
Ltmp272:
	leaq	-88(%rbp), %rsi
	callq	__ZN4core4iter6traits8iterator8Iterator8try_fold17hb11cdc33bf72cb77E
Ltmp273:
	movb	%al, -105(%rbp)
	jmp	LBB27_10
LBB27_10:
Ltmp275:
	.loc	32 0 13
	movb	-105(%rbp), %al
	.loc	32 93 13
	movzbl	%al, %edi
	andl	$1, %edi
	callq	__ZN4core3ops12control_flow77ControlFlow$LT$R$C$$LT$R$u20$as$u20$core..ops..try_trait..Try$GT$..Output$GT$8into_try17hf28cdd40a4f877eaE
Ltmp276:
	jmp	LBB27_12
LBB27_11:
	.loc	32 93 58
	jmp	LBB27_3
Ltmp285:
LBB27_12:
	.loc	32 88 9 is_stmt 1
	jmp	LBB27_6
LBB27_13:
	.loc	32 67 5
	movq	-32(%rbp), %rdi
	callq	__Unwind_Resume
LBB27_14:
	.loc	32 95 5
	jmp	LBB27_13
LBB27_15:
	.loc	32 95 6 is_stmt 0
	addq	$112, %rsp
	popq	%rbp
	retq
LBB27_16:
	.loc	32 95 5
	jmp	LBB27_15
Ltmp286:
Lfunc_end27:
	.cfi_endproc
	.section	__TEXT,__gcc_except_tab
	.p2align	2
GCC_except_table27:
Lexception5:
	.byte	255
	.byte	255
	.byte	1
	.uleb128 Lcst_end5-Lcst_begin5
Lcst_begin5:
	.uleb128 Ltmp270-Lfunc_begin27
	.uleb128 Ltmp271-Ltmp270
	.uleb128 Ltmp274-Lfunc_begin27
	.byte	0
	.uleb128 Ltmp277-Lfunc_begin27
	.uleb128 Ltmp278-Ltmp277
	.uleb128 Ltmp279-Lfunc_begin27
	.byte	0
	.uleb128 Ltmp272-Lfunc_begin27
	.uleb128 Ltmp273-Ltmp272
	.uleb128 Ltmp274-Lfunc_begin27
	.byte	0
	.uleb128 Ltmp275-Lfunc_begin27
	.uleb128 Ltmp276-Ltmp275
	.uleb128 Ltmp279-Lfunc_begin27
	.byte	0
	.uleb128 Ltmp276-Lfunc_begin27
	.uleb128 Lfunc_end27-Ltmp276
	.byte	0
	.byte	0
Lcst_end5:
	.p2align	2

	.section	__TEXT,__text,regular,pure_instructions
	.globl	__ZN115_$LT$core..iter..adapters..take_while..TakeWhile$LT$I$C$P$GT$$u20$as$u20$core..iter..traits..iterator..Iterator$GT$8try_fold17h6d6f43f521e84918E
	.p2align	4, 0x90
__ZN115_$LT$core..iter..adapters..take_while..TakeWhile$LT$I$C$P$GT$$u20$as$u20$core..iter..traits..iterator..Iterator$GT$8try_fold17h6d6f43f521e84918E:
Lfunc_begin28:
	.loc	32 67 0 is_stmt 1
	.cfi_startproc
	.cfi_personality 155, _rust_eh_personality
	.cfi_lsda 16, Lexception6
	pushq	%rbp
	.cfi_def_cfa_offset 16
	.cfi_offset %rbp, -16
	movq	%rsp, %rbp
	.cfi_def_cfa_register %rbp
	subq	$112, %rsp
	movq	%rdi, -104(%rbp)
	movq	%rsi, -96(%rbp)
	movq	%rdi, -56(%rbp)
	movq	%rsi, -40(%rbp)
Ltmp297:
	.loc	32 88 12 prologue_end
	movb	$1, -58(%rbp)
	testb	$1, 16(%rdi)
	jne	LBB28_2
	.loc	32 0 12 is_stmt 0
	movq	-96(%rbp), %rcx
	movq	-104(%rbp), %rdx
	.loc	32 91 24 is_stmt 1
	movq	%rdx, %rsi
	addq	$16, %rsi
	movq	%rsi, -16(%rbp)
Ltmp298:
	.loc	32 92 21
	movq	%rdx, -8(%rbp)
Ltmp299:
	.loc	32 93 32
	movb	$1, -57(%rbp)
	.loc	32 93 53 is_stmt 0
	movb	$0, -58(%rbp)
Ltmp287:
	leaq	-88(%rbp), %rdi
	.loc	32 93 38
	callq	__ZN115_$LT$core..iter..adapters..take_while..TakeWhile$LT$I$C$P$GT$$u20$as$u20$core..iter..traits..iterator..Iterator$GT$8try_fold5check17h59746365ca0e4fdeE
Ltmp288:
	jmp	LBB28_9
Ltmp300:
LBB28_2:
Ltmp294:
	.loc	32 89 19 is_stmt 1
	callq	__ZN94_$LT$core..ops..try_trait..NeverShortCircuit$LT$T$GT$$u20$as$u20$core..ops..try_trait..Try$GT$11from_output17h45c2abc2d718513eE
Ltmp295:
	jmp	LBB28_5
LBB28_3:
	.loc	32 95 5
	testb	$1, -58(%rbp)
	jne	LBB28_14
	jmp	LBB28_13
LBB28_4:
Ltmp296:
	.loc	32 0 5 is_stmt 0
	movq	%rax, %rcx
	movl	%edx, %eax
	movq	%rcx, -32(%rbp)
	movl	%eax, -24(%rbp)
	jmp	LBB28_3
LBB28_5:
	.loc	32 88 9 is_stmt 1
	jmp	LBB28_6
LBB28_6:
	.loc	32 95 5
	testb	$1, -58(%rbp)
	jne	LBB28_16
	jmp	LBB28_15
LBB28_7:
Ltmp301:
	.loc	32 93 58
	testb	$1, -57(%rbp)
	jne	LBB28_11
	jmp	LBB28_3
LBB28_8:
Ltmp291:
	.loc	32 0 58 is_stmt 0
	movq	%rax, %rcx
	movl	%edx, %eax
	movq	%rcx, -32(%rbp)
	movl	%eax, -24(%rbp)
	jmp	LBB28_7
LBB28_9:
	movq	-104(%rbp), %rdi
	.loc	32 93 13
	movb	$0, -57(%rbp)
Ltmp289:
	leaq	-88(%rbp), %rsi
	callq	__ZN4core4iter6traits8iterator8Iterator8try_fold17h19295d6764fda715E
Ltmp290:
	movb	%al, -105(%rbp)
	jmp	LBB28_10
LBB28_10:
Ltmp292:
	.loc	32 0 13
	movb	-105(%rbp), %al
	.loc	32 93 13
	movzbl	%al, %edi
	andl	$1, %edi
	callq	__ZN4core3ops12control_flow77ControlFlow$LT$R$C$$LT$R$u20$as$u20$core..ops..try_trait..Try$GT$..Output$GT$8into_try17hf28cdd40a4f877eaE
Ltmp293:
	jmp	LBB28_12
LBB28_11:
	.loc	32 93 58
	jmp	LBB28_3
Ltmp302:
LBB28_12:
	.loc	32 88 9 is_stmt 1
	jmp	LBB28_6
LBB28_13:
	.loc	32 67 5
	movq	-32(%rbp), %rdi
	callq	__Unwind_Resume
LBB28_14:
	.loc	32 95 5
	jmp	LBB28_13
LBB28_15:
	.loc	32 95 6 is_stmt 0
	addq	$112, %rsp
	popq	%rbp
	retq
LBB28_16:
	.loc	32 95 5
	jmp	LBB28_15
Ltmp303:
Lfunc_end28:
	.cfi_endproc
	.section	__TEXT,__gcc_except_tab
	.p2align	2
GCC_except_table28:
Lexception6:
	.byte	255
	.byte	255
	.byte	1
	.uleb128 Lcst_end6-Lcst_begin6
Lcst_begin6:
	.uleb128 Ltmp287-Lfunc_begin28
	.uleb128 Ltmp288-Ltmp287
	.uleb128 Ltmp291-Lfunc_begin28
	.byte	0
	.uleb128 Ltmp294-Lfunc_begin28
	.uleb128 Ltmp295-Ltmp294
	.uleb128 Ltmp296-Lfunc_begin28
	.byte	0
	.uleb128 Ltmp289-Lfunc_begin28
	.uleb128 Ltmp290-Ltmp289
	.uleb128 Ltmp291-Lfunc_begin28
	.byte	0
	.uleb128 Ltmp292-Lfunc_begin28
	.uleb128 Ltmp293-Ltmp292
	.uleb128 Ltmp296-Lfunc_begin28
	.byte	0
	.uleb128 Ltmp293-Lfunc_begin28
	.uleb128 Lfunc_end28-Ltmp293
	.byte	0
	.byte	0
Lcst_end6:
	.p2align	2

	.section	__TEXT,__text,regular,pure_instructions
	.globl	__ZN115_$LT$core..iter..adapters..take_while..TakeWhile$LT$I$C$P$GT$$u20$as$u20$core..iter..traits..iterator..Iterator$GT$8try_fold5check17h57ce5b1139e83554E
	.p2align	4, 0x90
__ZN115_$LT$core..iter..adapters..take_while..TakeWhile$LT$I$C$P$GT$$u20$as$u20$core..iter..traits..iterator..Iterator$GT$8try_fold5check17h57ce5b1139e83554E:
Lfunc_begin29:
	.loc	32 73 0 is_stmt 1
	.cfi_startproc
	pushq	%rbp
	.cfi_def_cfa_offset 16
	.cfi_offset %rbp, -16
	movq	%rsp, %rbp
	.cfi_def_cfa_register %rbp
	subq	$24, %rsp
	movq	%rdi, %rax
	movq	%rsi, -24(%rbp)
	movq	%rdx, -16(%rbp)
	movq	%rcx, -8(%rbp)
Ltmp304:
	.loc	32 78 13 prologue_end
	movq	%rdx, (%rdi)
	movq	%rcx, 8(%rdi)
	movq	%rsi, 16(%rdi)
	.loc	32 86 10
	addq	$24, %rsp
	popq	%rbp
	retq
Ltmp305:
Lfunc_end29:
	.cfi_endproc

	.globl	__ZN115_$LT$core..iter..adapters..take_while..TakeWhile$LT$I$C$P$GT$$u20$as$u20$core..iter..traits..iterator..Iterator$GT$8try_fold5check17h59746365ca0e4fdeE
	.p2align	4, 0x90
__ZN115_$LT$core..iter..adapters..take_while..TakeWhile$LT$I$C$P$GT$$u20$as$u20$core..iter..traits..iterator..Iterator$GT$8try_fold5check17h59746365ca0e4fdeE:
Lfunc_begin30:
	.loc	32 73 0
	.cfi_startproc
	pushq	%rbp
	.cfi_def_cfa_offset 16
	.cfi_offset %rbp, -16
	movq	%rsp, %rbp
	.cfi_def_cfa_register %rbp
	subq	$24, %rsp
	movq	%rdi, %rax
	movq	%rsi, -24(%rbp)
	movq	%rdx, -16(%rbp)
	movq	%rcx, -8(%rbp)
Ltmp306:
	.loc	32 78 13 prologue_end
	movq	%rdx, (%rdi)
	movq	%rcx, 8(%rdi)
	movq	%rsi, 16(%rdi)
	.loc	32 86 10
	addq	$24, %rsp
	popq	%rbp
	retq
Ltmp307:
Lfunc_end30:
	.cfi_endproc

	.globl	__ZN115_$LT$core..iter..adapters..take_while..TakeWhile$LT$I$C$P$GT$$u20$as$u20$core..iter..traits..iterator..Iterator$GT$8try_fold5check28_$u7b$$u7b$closure$u7d$$u7d$17h770f3f0d193515ecE
	.p2align	4, 0x90
__ZN115_$LT$core..iter..adapters..take_while..TakeWhile$LT$I$C$P$GT$$u20$as$u20$core..iter..traits..iterator..Iterator$GT$8try_fold5check28_$u7b$$u7b$closure$u7d$$u7d$17h770f3f0d193515ecE:
Lfunc_begin31:
	.loc	32 78 0
	.cfi_startproc
	.cfi_personality 155, _rust_eh_personality
	.cfi_lsda 16, Lexception7
	pushq	%rbp
	.cfi_def_cfa_offset 16
	.cfi_offset %rbp, -16
	movq	%rsp, %rbp
	.cfi_def_cfa_register %rbp
	subq	$80, %rsp
	movq	%rdi, -72(%rbp)
	movl	%esi, -56(%rbp)
	movq	%rdi, -32(%rbp)
Ltmp317:
	.loc	32 79 20 prologue_end
	movb	$1, -33(%rbp)
	movb	$1, -34(%rbp)
	movq	(%rdi), %rdi
	leaq	-56(%rbp), %rax
	movq	%rax, -48(%rbp)
	movq	-48(%rbp), %rsi
Ltmp308:
	callq	__ZN3url6parser6Parser14parse_relative28_$u7b$$u7b$closure$u7d$$u7d$28_$u7b$$u7b$closure$u7d$$u7d$17h8bf6e0c894ecf1d2E
Ltmp309:
	movb	%al, -57(%rbp)
	jmp	LBB31_3
LBB31_1:
	.loc	32 85 13
	testb	$1, -34(%rbp)
	jne	LBB31_11
	jmp	LBB31_10
LBB31_2:
Ltmp316:
	.loc	32 0 13 is_stmt 0
	movq	%rax, %rcx
	movl	%edx, %eax
	movq	%rcx, -16(%rbp)
	movl	%eax, -8(%rbp)
	jmp	LBB31_1
LBB31_3:
	movb	-57(%rbp), %al
	.loc	32 79 20 is_stmt 1
	testb	$1, %al
	jne	LBB31_5
	jmp	LBB31_4
LBB31_4:
	.loc	32 0 20 is_stmt 0
	movq	-72(%rbp), %rax
	.loc	32 82 21 is_stmt 1
	movq	16(%rax), %rax
	movb	$1, (%rax)
	.loc	32 83 46
	movb	$0, -33(%rbp)
Ltmp310:
	callq	__ZN94_$LT$core..ops..try_trait..NeverShortCircuit$LT$T$GT$$u20$as$u20$core..ops..try_trait..Try$GT$11from_output17h45c2abc2d718513eE
Ltmp311:
	jmp	LBB31_9
LBB31_5:
	.loc	32 0 46 is_stmt 0
	movq	-72(%rbp), %rdi
	.loc	32 80 43 is_stmt 1
	addq	$8, %rdi
	.loc	32 80 48 is_stmt 0
	movb	$0, -33(%rbp)
	.loc	32 80 53
	movb	$0, -34(%rbp)
	movl	-56(%rbp), %eax
	.loc	32 80 43
	movl	%eax, -40(%rbp)
	movl	-40(%rbp), %esi
Ltmp312:
	callq	__ZN141_$LT$core..const_closure..ConstFnMutClosure$LT$$RF$mut$u20$A$C$Function$GT$$u20$as$u20$core..ops..function..FnMut$LT$ClosureArguments$GT$$GT$8call_mut17h899888bf4d269135E
Ltmp313:
	jmp	LBB31_6
LBB31_6:
Ltmp314:
	.loc	32 80 21
	callq	__ZN4core3ops12control_flow77ControlFlow$LT$R$C$$LT$R$u20$as$u20$core..ops..try_trait..Try$GT$..Output$GT$8from_try17h006fdba9a27836edE
Ltmp315:
	movb	%al, -73(%rbp)
	jmp	LBB31_7
LBB31_7:
	.loc	32 0 21
	movb	-73(%rbp), %al
	.loc	32 80 21
	andb	$1, %al
	movb	%al, -49(%rbp)
LBB31_8:
	.loc	32 85 13 is_stmt 1
	testb	$1, -34(%rbp)
	jne	LBB31_13
	jmp	LBB31_12
LBB31_9:
	.loc	32 83 21
	movb	$1, -49(%rbp)
	.loc	32 79 17
	jmp	LBB31_8
LBB31_10:
	.loc	32 85 13
	testb	$1, -33(%rbp)
	jne	LBB31_15
	jmp	LBB31_14
LBB31_11:
	jmp	LBB31_10
LBB31_12:
	.loc	32 85 14 is_stmt 0
	movb	-49(%rbp), %al
	andb	$1, %al
	movzbl	%al, %eax
	addq	$80, %rsp
	popq	%rbp
	retq
LBB31_13:
	.loc	32 85 13
	jmp	LBB31_12
LBB31_14:
	.loc	32 78 13 is_stmt 1
	movq	-16(%rbp), %rdi
	callq	__Unwind_Resume
LBB31_15:
	.loc	32 85 13
	jmp	LBB31_14
Ltmp318:
Lfunc_end31:
	.cfi_endproc
	.section	__TEXT,__gcc_except_tab
	.p2align	2
GCC_except_table31:
Lexception7:
	.byte	255
	.byte	255
	.byte	1
	.uleb128 Lcst_end7-Lcst_begin7
Lcst_begin7:
	.uleb128 Ltmp308-Lfunc_begin31
	.uleb128 Ltmp315-Ltmp308
	.uleb128 Ltmp316-Lfunc_begin31
	.byte	0
	.uleb128 Ltmp315-Lfunc_begin31
	.uleb128 Lfunc_end31-Ltmp315
	.byte	0
	.byte	0
Lcst_end7:
	.p2align	2

	.section	__TEXT,__text,regular,pure_instructions
	.globl	__ZN115_$LT$core..iter..adapters..take_while..TakeWhile$LT$I$C$P$GT$$u20$as$u20$core..iter..traits..iterator..Iterator$GT$8try_fold5check28_$u7b$$u7b$closure$u7d$$u7d$17h7df64faddeda7ad6E
	.p2align	4, 0x90
__ZN115_$LT$core..iter..adapters..take_while..TakeWhile$LT$I$C$P$GT$$u20$as$u20$core..iter..traits..iterator..Iterator$GT$8try_fold5check28_$u7b$$u7b$closure$u7d$$u7d$17h7df64faddeda7ad6E:
Lfunc_begin32:
	.loc	32 78 0
	.cfi_startproc
	.cfi_personality 155, _rust_eh_personality
	.cfi_lsda 16, Lexception8
	pushq	%rbp
	.cfi_def_cfa_offset 16
	.cfi_offset %rbp, -16
	movq	%rsp, %rbp
	.cfi_def_cfa_register %rbp
	subq	$80, %rsp
	movq	%rdi, -72(%rbp)
	movl	%esi, -56(%rbp)
	movq	%rdi, -32(%rbp)
Ltmp328:
	.loc	32 79 20 prologue_end
	movb	$1, -33(%rbp)
	movb	$1, -34(%rbp)
	movq	(%rdi), %rdi
	leaq	-56(%rbp), %rax
	movq	%rax, -48(%rbp)
	movq	-48(%rbp), %rsi
Ltmp319:
	callq	__ZN3url6parser6Parser17parse_with_scheme28_$u7b$$u7b$closure$u7d$$u7d$28_$u7b$$u7b$closure$u7d$$u7d$17h7cd6ccf27a04587cE
Ltmp320:
	movb	%al, -57(%rbp)
	jmp	LBB32_3
LBB32_1:
	.loc	32 85 13
	testb	$1, -34(%rbp)
	jne	LBB32_11
	jmp	LBB32_10
LBB32_2:
Ltmp327:
	.loc	32 0 13 is_stmt 0
	movq	%rax, %rcx
	movl	%edx, %eax
	movq	%rcx, -16(%rbp)
	movl	%eax, -8(%rbp)
	jmp	LBB32_1
LBB32_3:
	movb	-57(%rbp), %al
	.loc	32 79 20 is_stmt 1
	testb	$1, %al
	jne	LBB32_5
	jmp	LBB32_4
LBB32_4:
	.loc	32 0 20 is_stmt 0
	movq	-72(%rbp), %rax
	.loc	32 82 21 is_stmt 1
	movq	16(%rax), %rax
	movb	$1, (%rax)
	.loc	32 83 46
	movb	$0, -33(%rbp)
Ltmp321:
	callq	__ZN94_$LT$core..ops..try_trait..NeverShortCircuit$LT$T$GT$$u20$as$u20$core..ops..try_trait..Try$GT$11from_output17h45c2abc2d718513eE
Ltmp322:
	jmp	LBB32_9
LBB32_5:
	.loc	32 0 46 is_stmt 0
	movq	-72(%rbp), %rdi
	.loc	32 80 43 is_stmt 1
	addq	$8, %rdi
	.loc	32 80 48 is_stmt 0
	movb	$0, -33(%rbp)
	.loc	32 80 53
	movb	$0, -34(%rbp)
	movl	-56(%rbp), %eax
	.loc	32 80 43
	movl	%eax, -40(%rbp)
	movl	-40(%rbp), %esi
Ltmp323:
	callq	__ZN141_$LT$core..const_closure..ConstFnMutClosure$LT$$RF$mut$u20$A$C$Function$GT$$u20$as$u20$core..ops..function..FnMut$LT$ClosureArguments$GT$$GT$8call_mut17h1183bbe270d63014E
Ltmp324:
	jmp	LBB32_6
LBB32_6:
Ltmp325:
	.loc	32 80 21
	callq	__ZN4core3ops12control_flow77ControlFlow$LT$R$C$$LT$R$u20$as$u20$core..ops..try_trait..Try$GT$..Output$GT$8from_try17h006fdba9a27836edE
Ltmp326:
	movb	%al, -73(%rbp)
	jmp	LBB32_7
LBB32_7:
	.loc	32 0 21
	movb	-73(%rbp), %al
	.loc	32 80 21
	andb	$1, %al
	movb	%al, -49(%rbp)
LBB32_8:
	.loc	32 85 13 is_stmt 1
	testb	$1, -34(%rbp)
	jne	LBB32_13
	jmp	LBB32_12
LBB32_9:
	.loc	32 83 21
	movb	$1, -49(%rbp)
	.loc	32 79 17
	jmp	LBB32_8
LBB32_10:
	.loc	32 85 13
	testb	$1, -33(%rbp)
	jne	LBB32_15
	jmp	LBB32_14
LBB32_11:
	jmp	LBB32_10
LBB32_12:
	.loc	32 85 14 is_stmt 0
	movb	-49(%rbp), %al
	andb	$1, %al
	movzbl	%al, %eax
	addq	$80, %rsp
	popq	%rbp
	retq
LBB32_13:
	.loc	32 85 13
	jmp	LBB32_12
LBB32_14:
	.loc	32 78 13 is_stmt 1
	movq	-16(%rbp), %rdi
	callq	__Unwind_Resume
LBB32_15:
	.loc	32 85 13
	jmp	LBB32_14
Ltmp329:
Lfunc_end32:
	.cfi_endproc
	.section	__TEXT,__gcc_except_tab
	.p2align	2
GCC_except_table32:
Lexception8:
	.byte	255
	.byte	255
	.byte	1
	.uleb128 Lcst_end8-Lcst_begin8
Lcst_begin8:
	.uleb128 Ltmp319-Lfunc_begin32
	.uleb128 Ltmp326-Ltmp319
	.uleb128 Ltmp327-Lfunc_begin32
	.byte	0
	.uleb128 Ltmp326-Lfunc_begin32
	.uleb128 Lfunc_end32-Ltmp326
	.byte	0
	.byte	0
Lcst_end8:
	.p2align	2

	.section	__TEXT,__text,regular,pure_instructions
	.globl	__ZN115_$LT$core..iter..adapters..take_while..TakeWhile$LT$I$C$P$GT$$u20$as$u20$core..iter..traits..iterator..Iterator$GT$9size_hint17h20ca7a7f075ce163E
	.p2align	4, 0x90
__ZN115_$LT$core..iter..adapters..take_while..TakeWhile$LT$I$C$P$GT$$u20$as$u20$core..iter..traits..iterator..Iterator$GT$9size_hint17h20ca7a7f075ce163E:
Lfunc_begin33:
	.loc	32 57 0
	.cfi_startproc
	pushq	%rbp
	.cfi_def_cfa_offset 16
	.cfi_offset %rbp, -16
	movq	%rsp, %rbp
	.cfi_def_cfa_register %rbp
	subq	$96, %rsp
	movq	%rsi, -88(%rbp)
	movq	%rdi, -80(%rbp)
	movq	%rdi, -72(%rbp)
	movq	%rsi, -24(%rbp)
Ltmp330:
	.loc	32 58 12 prologue_end
	testb	$1, 16(%rsi)
	jne	LBB33_2
	.loc	32 0 12 is_stmt 0
	movq	-88(%rbp), %rsi
	.loc	32 61 30 is_stmt 1
	leaq	-48(%rbp), %rdi
	callq	__ZN4core4iter6traits8iterator8Iterator9size_hint17h308de66ab89e6ba3E
	movq	-80(%rbp), %rax
	.loc	32 61 21 is_stmt 0
	movq	-40(%rbp), %rdx
	movq	-32(%rbp), %rcx
	movq	%rdx, -16(%rbp)
	movq	%rcx, -8(%rbp)
Ltmp331:
	.loc	32 62 13 is_stmt 1
	movq	$0, (%rax)
	movq	%rdx, 8(%rax)
	movq	%rcx, 16(%rax)
Ltmp332:
	.loc	32 58 9
	jmp	LBB33_3
LBB33_2:
	.loc	32 0 9 is_stmt 0
	movq	-80(%rbp), %rax
	.loc	32 59 17 is_stmt 1
	movq	$0, -56(%rbp)
	movq	$1, -64(%rbp)
	.loc	32 59 13 is_stmt 0
	movq	$0, (%rax)
	movq	-64(%rbp), %rdx
	movq	-56(%rbp), %rcx
	movq	%rdx, 8(%rax)
	movq	%rcx, 16(%rax)
LBB33_3:
	.loc	32 0 13
	movq	-72(%rbp), %rax
	.loc	32 64 6 is_stmt 1
	addq	$96, %rsp
	popq	%rbp
	retq
Ltmp333:
Lfunc_end33:
	.cfi_endproc

	.globl	__ZN115_$LT$core..iter..adapters..take_while..TakeWhile$LT$I$C$P$GT$$u20$as$u20$core..iter..traits..iterator..Iterator$GT$9size_hint17h7691bab476bf77d9E
	.p2align	4, 0x90
__ZN115_$LT$core..iter..adapters..take_while..TakeWhile$LT$I$C$P$GT$$u20$as$u20$core..iter..traits..iterator..Iterator$GT$9size_hint17h7691bab476bf77d9E:
Lfunc_begin34:
	.loc	32 57 0
	.cfi_startproc
	pushq	%rbp
	.cfi_def_cfa_offset 16
	.cfi_offset %rbp, -16
	movq	%rsp, %rbp
	.cfi_def_cfa_register %rbp
	subq	$96, %rsp
	movq	%rsi, -88(%rbp)
	movq	%rdi, -80(%rbp)
	movq	%rdi, -72(%rbp)
	movq	%rsi, -24(%rbp)
Ltmp334:
	.loc	32 58 12 prologue_end
	testb	$1, 16(%rsi)
	jne	LBB34_2
	.loc	32 0 12 is_stmt 0
	movq	-88(%rbp), %rsi
	.loc	32 61 30 is_stmt 1
	leaq	-48(%rbp), %rdi
	callq	__ZN4core4iter6traits8iterator8Iterator9size_hint17h308de66ab89e6ba3E
	movq	-80(%rbp), %rax
	.loc	32 61 21 is_stmt 0
	movq	-40(%rbp), %rdx
	movq	-32(%rbp), %rcx
	movq	%rdx, -16(%rbp)
	movq	%rcx, -8(%rbp)
Ltmp335:
	.loc	32 62 13 is_stmt 1
	movq	$0, (%rax)
	movq	%rdx, 8(%rax)
	movq	%rcx, 16(%rax)
Ltmp336:
	.loc	32 58 9
	jmp	LBB34_3
LBB34_2:
	.loc	32 0 9 is_stmt 0
	movq	-80(%rbp), %rax
	.loc	32 59 17 is_stmt 1
	movq	$0, -56(%rbp)
	movq	$1, -64(%rbp)
	.loc	32 59 13 is_stmt 0
	movq	$0, (%rax)
	movq	-64(%rbp), %rdx
	movq	-56(%rbp), %rcx
	movq	%rdx, 8(%rax)
	movq	%rcx, 16(%rax)
LBB34_3:
	.loc	32 0 13
	movq	-72(%rbp), %rax
	.loc	32 64 6 is_stmt 1
	addq	$96, %rsp
	popq	%rbp
	retq
Ltmp337:
Lfunc_end34:
	.cfi_endproc

	.globl	__ZN141_$LT$core..const_closure..ConstFnMutClosure$LT$$RF$mut$u20$A$C$Function$GT$$u20$as$u20$core..ops..function..FnMut$LT$ClosureArguments$GT$$GT$8call_mut17h1183bbe270d63014E
	.p2align	4, 0x90
__ZN141_$LT$core..const_closure..ConstFnMutClosure$LT$$RF$mut$u20$A$C$Function$GT$$u20$as$u20$core..ops..function..FnMut$LT$ClosureArguments$GT$$GT$8call_mut17h1183bbe270d63014E:
Lfunc_begin35:
	.file	33 "/rustc/2c8cc343237b8f7d5a3c3703e3a87f2eb2c54a74/library/core/src" "const_closure.rs"
	.loc	33 66 0
	.cfi_startproc
	pushq	%rbp
	.cfi_def_cfa_offset 16
	.cfi_offset %rbp, -16
	movq	%rsp, %rbp
	.cfi_def_cfa_register %rbp
	subq	$48, %rsp
	movl	%esi, -36(%rbp)
	movq	%rdi, -16(%rbp)
Ltmp338:
	.loc	33 68 35 prologue_end
	movq	%rdi, -8(%rbp)
Ltmp339:
	.loc	33 69 29
	movq	(%rdi), %rcx
	.loc	33 69 42 is_stmt 0
	movl	-36(%rbp), %eax
	.loc	33 69 17
	movq	%rcx, -32(%rbp)
	movl	%eax, -24(%rbp)
	movq	-32(%rbp), %rsi
	movl	-24(%rbp), %edx
	callq	__ZN4core3ops8function2Fn4call17h9c1a55ff90698dd1E
Ltmp340:
	.loc	33 70 14 is_stmt 1
	addq	$48, %rsp
	popq	%rbp
	retq
Ltmp341:
Lfunc_end35:
	.cfi_endproc

	.globl	__ZN141_$LT$core..const_closure..ConstFnMutClosure$LT$$RF$mut$u20$A$C$Function$GT$$u20$as$u20$core..ops..function..FnMut$LT$ClosureArguments$GT$$GT$8call_mut17h899888bf4d269135E
	.p2align	4, 0x90
__ZN141_$LT$core..const_closure..ConstFnMutClosure$LT$$RF$mut$u20$A$C$Function$GT$$u20$as$u20$core..ops..function..FnMut$LT$ClosureArguments$GT$$GT$8call_mut17h899888bf4d269135E:
Lfunc_begin36:
	.loc	33 66 0
	.cfi_startproc
	pushq	%rbp
	.cfi_def_cfa_offset 16
	.cfi_offset %rbp, -16
	movq	%rsp, %rbp
	.cfi_def_cfa_register %rbp
	subq	$48, %rsp
	movl	%esi, -36(%rbp)
	movq	%rdi, -16(%rbp)
Ltmp342:
	.loc	33 68 35 prologue_end
	movq	%rdi, -8(%rbp)
Ltmp343:
	.loc	33 69 29
	movq	(%rdi), %rcx
	.loc	33 69 42 is_stmt 0
	movl	-36(%rbp), %eax
	.loc	33 69 17
	movq	%rcx, -32(%rbp)
	movl	%eax, -24(%rbp)
	movq	-32(%rbp), %rsi
	movl	-24(%rbp), %edx
	callq	__ZN4core3ops8function2Fn4call17h373a243daf3ab35cE
Ltmp344:
	.loc	33 70 14 is_stmt 1
	addq	$48, %rsp
	popq	%rbp
	retq
Ltmp345:
Lfunc_end36:
	.cfi_endproc

	.globl	__ZN153_$LT$core..result..Result$LT$T$C$F$GT$$u20$as$u20$core..ops..try_trait..FromResidual$LT$core..result..Result$LT$core..convert..Infallible$C$E$GT$$GT$$GT$13from_residual17h07508e89f5af3ed1E
	.p2align	4, 0x90
__ZN153_$LT$core..result..Result$LT$T$C$F$GT$$u20$as$u20$core..ops..try_trait..FromResidual$LT$core..result..Result$LT$core..convert..Infallible$C$E$GT$$GT$$GT$13from_residual17h07508e89f5af3ed1E:
Lfunc_begin37:
	.file	34 "/rustc/2c8cc343237b8f7d5a3c3703e3a87f2eb2c54a74/library/core/src" "result.rs"
	.loc	34 2105 0
	.cfi_startproc
	pushq	%rbp
	.cfi_def_cfa_offset 16
	.cfi_offset %rbp, -16
	movq	%rsp, %rbp
	.cfi_def_cfa_register %rbp
	subq	$3, %rsp
	movb	%sil, %cl
	movq	%rdi, %rax
	movb	%cl, -3(%rbp)
Ltmp346:
	.loc	34 2107 17 prologue_end
	movb	-3(%rbp), %cl
	movb	%cl, -2(%rbp)
	movb	%cl, -1(%rbp)
Ltmp347:
	.loc	34 2107 23 is_stmt 0
	movb	%cl, 1(%rdi)
	movb	$3, (%rdi)
Ltmp348:
	.loc	34 2109 6 is_stmt 1
	addq	$3, %rsp
	popq	%rbp
	retq
Ltmp349:
Lfunc_end37:
	.cfi_endproc

	.globl	__ZN153_$LT$core..result..Result$LT$T$C$F$GT$$u20$as$u20$core..ops..try_trait..FromResidual$LT$core..result..Result$LT$core..convert..Infallible$C$E$GT$$GT$$GT$13from_residual17h0a028fc08255e33fE
	.p2align	4, 0x90
__ZN153_$LT$core..result..Result$LT$T$C$F$GT$$u20$as$u20$core..ops..try_trait..FromResidual$LT$core..result..Result$LT$core..convert..Infallible$C$E$GT$$GT$$GT$13from_residual17h0a028fc08255e33fE:
Lfunc_begin38:
	.loc	34 2105 0
	.cfi_startproc
	pushq	%rbp
	.cfi_def_cfa_offset 16
	.cfi_offset %rbp, -16
	movq	%rsp, %rbp
	.cfi_def_cfa_register %rbp
	subq	$3, %rsp
	movb	%sil, %cl
	movq	%rdi, %rax
	movb	%cl, -3(%rbp)
Ltmp350:
	.loc	34 2107 17 prologue_end
	movb	-3(%rbp), %cl
	movb	%cl, -2(%rbp)
	movb	%cl, -1(%rbp)
Ltmp351:
	.loc	34 2107 23 is_stmt 0
	movb	%cl, (%rdi)
	movb	$2, 17(%rdi)
Ltmp352:
	.loc	34 2109 6 is_stmt 1
	addq	$3, %rsp
	popq	%rbp
	retq
Ltmp353:
Lfunc_end38:
	.cfi_endproc

	.globl	__ZN153_$LT$core..result..Result$LT$T$C$F$GT$$u20$as$u20$core..ops..try_trait..FromResidual$LT$core..result..Result$LT$core..convert..Infallible$C$E$GT$$GT$$GT$13from_residual17h364cd638967ca521E
	.p2align	4, 0x90
__ZN153_$LT$core..result..Result$LT$T$C$F$GT$$u20$as$u20$core..ops..try_trait..FromResidual$LT$core..result..Result$LT$core..convert..Infallible$C$E$GT$$GT$$GT$13from_residual17h364cd638967ca521E:
Lfunc_begin39:
	.loc	34 2105 0
	.cfi_startproc
	pushq	%rbp
	.cfi_def_cfa_offset 16
	.cfi_offset %rbp, -16
	movq	%rsp, %rbp
	.cfi_def_cfa_register %rbp
	subq	$3, %rsp
	movb	%sil, %cl
	movq	%rdi, %rax
	movb	%cl, -3(%rbp)
Ltmp354:
	.loc	34 2107 17 prologue_end
	movb	-3(%rbp), %cl
	movb	%cl, -2(%rbp)
	movb	%cl, -1(%rbp)
Ltmp355:
	.loc	34 2107 23 is_stmt 0
	movb	%cl, (%rdi)
	movl	$2, 24(%rdi)
Ltmp356:
	.loc	34 2109 6 is_stmt 1
	addq	$3, %rsp
	popq	%rbp
	retq
Ltmp357:
Lfunc_end39:
	.cfi_endproc

	.globl	__ZN153_$LT$core..result..Result$LT$T$C$F$GT$$u20$as$u20$core..ops..try_trait..FromResidual$LT$core..result..Result$LT$core..convert..Infallible$C$E$GT$$GT$$GT$13from_residual17h644c45d68ae40b17E
	.p2align	4, 0x90
__ZN153_$LT$core..result..Result$LT$T$C$F$GT$$u20$as$u20$core..ops..try_trait..FromResidual$LT$core..result..Result$LT$core..convert..Infallible$C$E$GT$$GT$$GT$13from_residual17h644c45d68ae40b17E:
Lfunc_begin40:
	.loc	34 2105 0
	.cfi_startproc
	pushq	%rbp
	.cfi_def_cfa_offset 16
	.cfi_offset %rbp, -16
	movq	%rsp, %rbp
	.cfi_def_cfa_register %rbp
	subq	$4, %rsp
	movb	%dil, %al
	movb	%al, -4(%rbp)
Ltmp358:
	.loc	34 2107 17 prologue_end
	movb	-4(%rbp), %al
	movb	%al, -2(%rbp)
	movb	%al, -1(%rbp)
Ltmp359:
	.loc	34 2107 23 is_stmt 0
	movb	%al, -3(%rbp)
Ltmp360:
	.loc	34 2109 6 is_stmt 1
	movb	-3(%rbp), %al
	addq	$4, %rsp
	popq	%rbp
	retq
Ltmp361:
Lfunc_end40:
	.cfi_endproc

	.globl	__ZN153_$LT$core..result..Result$LT$T$C$F$GT$$u20$as$u20$core..ops..try_trait..FromResidual$LT$core..result..Result$LT$core..convert..Infallible$C$E$GT$$GT$$GT$13from_residual17h727c2b9dbfe7089eE
	.p2align	4, 0x90
__ZN153_$LT$core..result..Result$LT$T$C$F$GT$$u20$as$u20$core..ops..try_trait..FromResidual$LT$core..result..Result$LT$core..convert..Infallible$C$E$GT$$GT$$GT$13from_residual17h727c2b9dbfe7089eE:
Lfunc_begin41:
	.loc	34 2105 0
	.cfi_startproc
	pushq	%rbp
	.cfi_def_cfa_offset 16
	.cfi_offset %rbp, -16
	movq	%rsp, %rbp
	.cfi_def_cfa_register %rbp
	subq	$3, %rsp
	movb	%sil, %cl
	movq	%rdi, %rax
	movb	%cl, -3(%rbp)
Ltmp362:
	.loc	34 2107 17 prologue_end
	movb	-3(%rbp), %cl
	movb	%cl, -2(%rbp)
	movb	%cl, -1(%rbp)
Ltmp363:
	.loc	34 2107 23 is_stmt 0
	movb	%cl, 4(%rdi)
	movl	$2, (%rdi)
Ltmp364:
	.loc	34 2109 6 is_stmt 1
	addq	$3, %rsp
	popq	%rbp
	retq
Ltmp365:
Lfunc_end41:
	.cfi_endproc

	.globl	__ZN153_$LT$core..result..Result$LT$T$C$F$GT$$u20$as$u20$core..ops..try_trait..FromResidual$LT$core..result..Result$LT$core..convert..Infallible$C$E$GT$$GT$$GT$13from_residual17hb63ec3deb5a890fcE
	.p2align	4, 0x90
__ZN153_$LT$core..result..Result$LT$T$C$F$GT$$u20$as$u20$core..ops..try_trait..FromResidual$LT$core..result..Result$LT$core..convert..Infallible$C$E$GT$$GT$$GT$13from_residual17hb63ec3deb5a890fcE:
Lfunc_begin42:
	.loc	34 2105 0
	.cfi_startproc
	pushq	%rbp
	.cfi_def_cfa_offset 16
	.cfi_offset %rbp, -16
	movq	%rsp, %rbp
	.cfi_def_cfa_register %rbp
	subq	$3, %rsp
	movb	%sil, %cl
	movq	%rdi, %rax
	movb	%cl, -3(%rbp)
Ltmp366:
	.loc	34 2107 17 prologue_end
	movb	-3(%rbp), %cl
	movb	%cl, -2(%rbp)
	movb	%cl, -1(%rbp)
Ltmp367:
	.loc	34 2107 23 is_stmt 0
	movb	%cl, (%rdi)
	movw	$2, 4(%rdi)
Ltmp368:
	.loc	34 2109 6 is_stmt 1
	addq	$3, %rsp
	popq	%rbp
	retq
Ltmp369:
Lfunc_end42:
	.cfi_endproc

	.globl	__ZN153_$LT$core..result..Result$LT$T$C$F$GT$$u20$as$u20$core..ops..try_trait..FromResidual$LT$core..result..Result$LT$core..convert..Infallible$C$E$GT$$GT$$GT$13from_residual17hb822a7f4f7104430E
	.p2align	4, 0x90
__ZN153_$LT$core..result..Result$LT$T$C$F$GT$$u20$as$u20$core..ops..try_trait..FromResidual$LT$core..result..Result$LT$core..convert..Infallible$C$E$GT$$GT$$GT$13from_residual17hb822a7f4f7104430E:
Lfunc_begin43:
	.loc	34 2105 0
	.cfi_startproc
	pushq	%rbp
	.cfi_def_cfa_offset 16
	.cfi_offset %rbp, -16
	movq	%rsp, %rbp
	.cfi_def_cfa_register %rbp
	subq	$3, %rsp
	movb	%sil, %cl
	movq	%rdi, %rax
	movb	%cl, -3(%rbp)
Ltmp370:
	.loc	34 2107 17 prologue_end
	movb	-3(%rbp), %cl
	movb	%cl, -2(%rbp)
	movb	%cl, -1(%rbp)
Ltmp371:
	.loc	34 2107 23 is_stmt 0
	movb	%cl, 1(%rdi)
	movb	$3, (%rdi)
Ltmp372:
	.loc	34 2109 6 is_stmt 1
	addq	$3, %rsp
	popq	%rbp
	retq
Ltmp373:
Lfunc_end43:
	.cfi_endproc

	.globl	__ZN153_$LT$core..result..Result$LT$T$C$F$GT$$u20$as$u20$core..ops..try_trait..FromResidual$LT$core..result..Result$LT$core..convert..Infallible$C$E$GT$$GT$$GT$13from_residual17he12820783f0e3214E
	.p2align	4, 0x90
__ZN153_$LT$core..result..Result$LT$T$C$F$GT$$u20$as$u20$core..ops..try_trait..FromResidual$LT$core..result..Result$LT$core..convert..Infallible$C$E$GT$$GT$$GT$13from_residual17he12820783f0e3214E:
Lfunc_begin44:
	.loc	34 2105 0
	.cfi_startproc
	pushq	%rbp
	.cfi_def_cfa_offset 16
	.cfi_offset %rbp, -16
	movq	%rsp, %rbp
	.cfi_def_cfa_register %rbp
	subq	$24, %rsp
Ltmp374:
	.loc	34 2107 23 prologue_end
	movb	$1, -17(%rbp)
Ltmp375:
	.loc	34 2109 6
	movb	-17(%rbp), %al
	andb	$1, %al
	movzbl	%al, %eax
	addq	$24, %rsp
	popq	%rbp
	retq
Ltmp376:
Lfunc_end44:
	.cfi_endproc

	.globl	__ZN153_$LT$core..result..Result$LT$T$C$F$GT$$u20$as$u20$core..ops..try_trait..FromResidual$LT$core..result..Result$LT$core..convert..Infallible$C$E$GT$$GT$$GT$13from_residual17hf47df3547658a018E
	.p2align	4, 0x90
__ZN153_$LT$core..result..Result$LT$T$C$F$GT$$u20$as$u20$core..ops..try_trait..FromResidual$LT$core..result..Result$LT$core..convert..Infallible$C$E$GT$$GT$$GT$13from_residual17hf47df3547658a018E:
Lfunc_begin45:
	.loc	34 2105 0
	.cfi_startproc
	pushq	%rbp
	.cfi_def_cfa_offset 16
	.cfi_offset %rbp, -16
	movq	%rsp, %rbp
	.cfi_def_cfa_register %rbp
	subq	$3, %rsp
	movb	%sil, %cl
	movq	%rdi, %rax
	movb	%cl, -3(%rbp)
Ltmp377:
	.loc	34 2107 17 prologue_end
	movb	-3(%rbp), %cl
	movb	%cl, -2(%rbp)
	movb	%cl, -1(%rbp)
Ltmp378:
	.loc	34 2107 23 is_stmt 0
	movb	%cl, (%rdi)
	movq	$0, 16(%rdi)
Ltmp379:
	.loc	34 2109 6 is_stmt 1
	addq	$3, %rsp
	popq	%rbp
	retq
Ltmp380:
Lfunc_end45:
	.cfi_endproc

	.globl	__ZN157_$LT$$LT$alloc..vec..into_iter..IntoIter$LT$T$C$A$GT$$u20$as$u20$core..ops..drop..Drop$GT$..drop..DropGuard$LT$T$C$A$GT$$u20$as$u20$core..ops..drop..Drop$GT$4drop17hcc430b0907645420E
	.p2align	4, 0x90
__ZN157_$LT$$LT$alloc..vec..into_iter..IntoIter$LT$T$C$A$GT$$u20$as$u20$core..ops..drop..Drop$GT$..drop..DropGuard$LT$T$C$A$GT$$u20$as$u20$core..ops..drop..Drop$GT$4drop17hcc430b0907645420E:
Lfunc_begin46:
	.loc	9 390 0
	.cfi_startproc
	.cfi_personality 155, _rust_eh_personality
	.cfi_lsda 16, Lexception9
	pushq	%rbp
	.cfi_def_cfa_offset 16
	.cfi_offset %rbp, -16
	movq	%rsp, %rbp
	.cfi_def_cfa_register %rbp
	subq	$160, %rsp
	movq	%rdi, -120(%rbp)
Ltmp384:
	.loc	9 393 52 prologue_end
	movq	(%rdi), %rax
	movq	%rax, -80(%rbp)
Ltmp385:
	.file	35 "/rustc/2c8cc343237b8f7d5a3c3703e3a87f2eb2c54a74/library/core/src/mem" "manually_drop.rs"
	.loc	35 113 28
	movq	%rax, -72(%rbp)
	leaq	-144(%rbp), %rax
Ltmp386:
	.loc	11 1157 34
	movq	%rax, -64(%rbp)
Ltmp387:
	.loc	9 395 55
	movq	(%rdi), %rax
	movq	24(%rax), %rcx
	movq	%rcx, -56(%rbp)
Ltmp388:
	.loc	30 326 9
	movq	%rcx, -48(%rbp)
Ltmp389:
	.loc	9 395 76
	movq	(%rdi), %rax
	movq	(%rax), %rax
	movq	%rax, -40(%rbp)
Ltmp390:
	.loc	28 216 52
	movq	%rcx, -32(%rbp)
Ltmp391:
	.loc	29 87 59
	movq	%rcx, -24(%rbp)
Ltmp392:
	.loc	30 201 13
	movq	%rcx, -128(%rbp)
Ltmp393:
	.loc	29 87 18
	movq	-128(%rbp), %rcx
	movq	%rcx, -136(%rbp)
Ltmp394:
	.loc	28 216 9
	movq	-136(%rbp), %rcx
	movq	%rcx, -152(%rbp)
	movq	%rax, -160(%rbp)
Ltmp381:
	leaq	-160(%rbp), %rdi
Ltmp395:
	.loc	9 395 94
	callq	__ZN4core3ptr58drop_in_place$LT$alloc..raw_vec..RawVec$LT$$RF$str$GT$$GT$17h6bfebed4ec59d405E
Ltmp382:
	jmp	LBB46_3
Ltmp396:
LBB46_1:
	.loc	9 396 17
	xorl	%eax, %eax
	testb	$1, %al
	jne	LBB46_5
	jmp	LBB46_4
LBB46_2:
Ltmp383:
	.loc	9 0 17 is_stmt 0
	movq	%rax, %rcx
	movl	%edx, %eax
	movq	%rcx, -16(%rbp)
	movl	%eax, -8(%rbp)
	jmp	LBB46_1
LBB46_3:
	.loc	9 397 14 is_stmt 1
	addq	$160, %rsp
	popq	%rbp
	retq
LBB46_4:
	.loc	9 390 13
	movq	-16(%rbp), %rdi
	callq	__Unwind_Resume
LBB46_5:
	.loc	9 396 17
	jmp	LBB46_4
Ltmp397:
Lfunc_end46:
	.cfi_endproc
	.section	__TEXT,__gcc_except_tab
	.p2align	2
GCC_except_table46:
Lexception9:
	.byte	255
	.byte	255
	.byte	1
	.uleb128 Lcst_end9-Lcst_begin9
Lcst_begin9:
	.uleb128 Ltmp381-Lfunc_begin46
	.uleb128 Ltmp382-Ltmp381
	.uleb128 Ltmp383-Lfunc_begin46
	.byte	0
	.uleb128 Ltmp382-Lfunc_begin46
	.uleb128 Lfunc_end46-Ltmp382
	.byte	0
	.byte	0
Lcst_end9:
	.p2align	2

	.section	__TEXT,__text,regular,pure_instructions
	.globl	__ZN15form_urlencoded19Serializer$LT$T$GT$10for_suffix17hd705ae31d54f1e95E
	.p2align	4, 0x90
__ZN15form_urlencoded19Serializer$LT$T$GT$10for_suffix17hd705ae31d54f1e95E:
Lfunc_begin47:
	.file	36 "/Users/natalie/.cargo/registry/src/github.com-1ecc6299db9ec823/form_urlencoded-1.1.0/src" "lib.rs"
	.loc	36 211 0
	.cfi_startproc
	.cfi_personality 155, _rust_eh_personality
	.cfi_lsda 16, Lexception10
	pushq	%rbp
	.cfi_def_cfa_offset 16
	.cfi_offset %rbp, -16
	movq	%rsp, %rbp
	.cfi_def_cfa_register %rbp
	subq	$320, %rsp
	movq	%rsi, -232(%rbp)
Ltmp418:
	movq	%rdi, %rax
	movq	-232(%rbp), %rdi
	movq	%rax, -224(%rbp)
	movq	%rax, -216(%rbp)
	movq	%rdx, -200(%rbp)
Ltmp398:
Ltmp419:
	.loc	36 212 12 prologue_end
	callq	__ZN57_$LT$url..UrlQuery$u20$as$u20$form_urlencoded..Target$GT$13as_mut_string17hfbe1e52c91be6225E
Ltmp399:
	movq	%rax, -208(%rbp)
	jmp	LBB47_3
Ltmp420:
LBB47_1:
Ltmp415:
	.loc	36 0 12 is_stmt 0
	movq	-232(%rbp), %rdi
	.loc	36 225 5 is_stmt 1
	callq	__ZN4core3ptr34drop_in_place$LT$url..UrlQuery$GT$17hce3e5359463547e5E
Ltmp416:
	jmp	LBB47_14
Ltmp421:
LBB47_2:
Ltmp414:
	.loc	36 0 5 is_stmt 0
	movq	%rax, %rcx
	movl	%edx, %eax
	movq	%rcx, -16(%rbp)
	movl	%eax, -8(%rbp)
	jmp	LBB47_1
Ltmp422:
LBB47_3:
Ltmp400:
	movq	-208(%rbp), %rdi
	.loc	36 212 12 is_stmt 1
	callq	__ZN5alloc6string6String3len17h48426f79df68185fE
Ltmp401:
	movq	%rax, -240(%rbp)
	jmp	LBB47_4
Ltmp423:
LBB47_4:
	.loc	36 0 12 is_stmt 0
	movq	-240(%rbp), %rax
	.loc	36 212 12
	cmpq	-200(%rbp), %rax
	jb	LBB47_6
Ltmp424:
	.loc	36 0 12
	movq	-224(%rbp), %rdi
	movq	-232(%rbp), %rax
	.loc	36 221 26 is_stmt 1
	movq	(%rax), %rcx
	movq	%rcx, -64(%rbp)
	movq	8(%rax), %rcx
	movq	%rcx, -56(%rbp)
	movq	16(%rax), %rcx
	movq	%rcx, -48(%rbp)
	movq	24(%rax), %rax
	movq	%rax, -40(%rbp)
	.loc	36 221 21 is_stmt 0
	movq	-64(%rbp), %rax
	movq	%rax, -96(%rbp)
	movq	-56(%rbp), %rax
	movq	%rax, -88(%rbp)
	movq	-48(%rbp), %rax
	movq	%rax, -80(%rbp)
	movq	-40(%rbp), %rax
	movq	%rax, -72(%rbp)
	movq	$1, -104(%rbp)
	.loc	36 222 13 is_stmt 1
	movq	-200(%rbp), %rax
	movq	%rax, -248(%rbp)
	.loc	36 223 23
	movq	$0, -32(%rbp)
	.loc	36 220 9
	addq	$24, %rdi
	leaq	-104(%rbp), %rsi
	movl	$40, %edx
	callq	_memcpy
	movq	-248(%rbp), %rdx
	movq	-224(%rbp), %rcx
	movq	-216(%rbp), %rax
	movq	%rdx, 16(%rcx)
	movq	-32(%rbp), %rsi
	movq	-24(%rbp), %rdx
	movq	%rsi, (%rcx)
	movq	%rdx, 8(%rcx)
	.loc	36 225 6
	addq	$320, %rsp
	popq	%rbp
	retq
Ltmp425:
LBB47_6:
Ltmp402:
	.loc	36 0 6 is_stmt 0
	leaq	-200(%rbp), %rdi
	.loc	36 213 13 is_stmt 1
	callq	__ZN4core3fmt10ArgumentV111new_display17hec1559c2dad85ed5E
Ltmp403:
	movq	%rdx, -264(%rbp)
	movq	%rax, -256(%rbp)
	jmp	LBB47_7
Ltmp426:
LBB47_7:
	.loc	36 0 13 is_stmt 0
	movq	-232(%rbp), %rdi
	movq	-264(%rbp), %rax
	movq	-256(%rbp), %rcx
	movq	%rcx, -288(%rbp)
	movq	%rax, -280(%rbp)
Ltmp404:
	.loc	36 216 17 is_stmt 1
	callq	__ZN57_$LT$url..UrlQuery$u20$as$u20$form_urlencoded..Target$GT$13as_mut_string17hfbe1e52c91be6225E
Ltmp405:
	movq	%rax, -272(%rbp)
	jmp	LBB47_8
Ltmp427:
LBB47_8:
Ltmp406:
	.loc	36 0 17 is_stmt 0
	movq	-272(%rbp), %rdi
	.loc	36 216 17
	callq	__ZN5alloc6string6String3len17h48426f79df68185fE
Ltmp407:
	movq	%rax, -296(%rbp)
	jmp	LBB47_9
Ltmp428:
LBB47_9:
	.loc	36 0 17
	movq	-296(%rbp), %rax
	.loc	36 216 17
	movq	%rax, -112(%rbp)
Ltmp408:
	leaq	-112(%rbp), %rdi
	.loc	36 213 13 is_stmt 1
	callq	__ZN4core3fmt10ArgumentV111new_display17hec1559c2dad85ed5E
Ltmp409:
	movq	%rdx, -312(%rbp)
	movq	%rax, -304(%rbp)
	jmp	LBB47_10
Ltmp429:
LBB47_10:
	.loc	36 0 13 is_stmt 0
	movq	-312(%rbp), %rax
	movq	-304(%rbp), %rcx
	movq	-280(%rbp), %rdx
	movq	-288(%rbp), %rsi
	.loc	36 213 13
	movq	%rsi, -144(%rbp)
	movq	%rdx, -136(%rbp)
	movq	%rcx, -128(%rbp)
	movq	%rax, -120(%rbp)
Ltmp410:
	leaq	l___unnamed_26(%rip), %rsi
	leaq	-192(%rbp), %rdi
	leaq	-144(%rbp), %rcx
	movl	$2, %r8d
	movq	%r8, %rdx
	callq	__ZN4core3fmt9Arguments6new_v117hff8f2e9fe1cd3d15E
Ltmp411:
	jmp	LBB47_11
Ltmp430:
LBB47_11:
Ltmp412:
	leaq	l___unnamed_27(%rip), %rsi
	leaq	-192(%rbp), %rdi
	callq	__ZN4core9panicking9panic_fmt17h9b5d807e24bcaaedE
Ltmp413:
	jmp	LBB47_12
Ltmp431:
LBB47_12:
	.loc	36 0 13
	ud2
Ltmp432:
LBB47_13:
Ltmp417:
	.loc	36 211 5 is_stmt 1
	callq	__ZN4core9panicking19panic_cannot_unwind17h1fbca7e1d7f56ae1E
Ltmp433:
LBB47_14:
	movq	-16(%rbp), %rdi
	callq	__Unwind_Resume
Ltmp434:
Lfunc_end47:
	.cfi_endproc
	.section	__TEXT,__gcc_except_tab
	.p2align	2
GCC_except_table47:
Lexception10:
	.byte	255
	.byte	255
	.byte	1
	.uleb128 Lcst_end10-Lcst_begin10
Lcst_begin10:
	.uleb128 Ltmp398-Lfunc_begin47
	.uleb128 Ltmp399-Ltmp398
	.uleb128 Ltmp414-Lfunc_begin47
	.byte	0
	.uleb128 Ltmp415-Lfunc_begin47
	.uleb128 Ltmp416-Ltmp415
	.uleb128 Ltmp417-Lfunc_begin47
	.byte	0
	.uleb128 Ltmp400-Lfunc_begin47
	.uleb128 Ltmp401-Ltmp400
	.uleb128 Ltmp414-Lfunc_begin47
	.byte	0
	.uleb128 Ltmp401-Lfunc_begin47
	.uleb128 Ltmp402-Ltmp401
	.byte	0
	.byte	0
	.uleb128 Ltmp402-Lfunc_begin47
	.uleb128 Ltmp413-Ltmp402
	.uleb128 Ltmp414-Lfunc_begin47
	.byte	0
	.uleb128 Ltmp413-Lfunc_begin47
	.uleb128 Lfunc_end47-Ltmp413
	.byte	0
	.byte	0
Lcst_end10:
	.p2align	2

	.section	__TEXT,__text,regular,pure_instructions
	.p2align	4, 0x90
__ZN16percent_encoding14percent_decode17h4fb378e430a6fefaE:
Lfunc_begin48:
	.file	37 "/Users/natalie/.cargo/registry/src/github.com-1ecc6299db9ec823/percent-encoding-2.2.0/src" "lib.rs"
	.loc	37 346 0
	.cfi_startproc
	pushq	%rbp
	.cfi_def_cfa_offset 16
	.cfi_offset %rbp, -16
	movq	%rsp, %rbp
	.cfi_def_cfa_register %rbp
	subq	$32, %rsp
	movq	%rdi, -16(%rbp)
	movq	%rsi, -8(%rbp)
Ltmp435:
	.loc	37 348 16 prologue_end
	callq	__ZN4core5slice29_$LT$impl$u20$$u5b$T$u5d$$GT$4iter17hf36d7b3f4158d51fE
	.loc	37 347 5
	movq	%rax, -32(%rbp)
	movq	%rdx, -24(%rbp)
	.loc	37 350 2
	movq	-32(%rbp), %rax
	movq	-24(%rbp), %rdx
	addq	$32, %rsp
	popq	%rbp
	retq
Ltmp436:
Lfunc_end48:
	.cfi_endproc

	.p2align	4, 0x90
__ZN16percent_encoding14percent_encode17hb2249b20aabe9ad8E:
Lfunc_begin49:
	.loc	37 223 0
	.cfi_startproc
	pushq	%rbp
	.cfi_def_cfa_offset 16
	.cfi_offset %rbp, -16
	movq	%rsp, %rbp
	.cfi_def_cfa_register %rbp
	subq	$24, %rsp
	movq	%rdi, %rax
	movq	%rsi, -24(%rbp)
	movq	%rdx, -16(%rbp)
	movq	%rcx, -8(%rbp)
Ltmp437:
	.loc	37 224 5 prologue_end
	movq	%rsi, (%rdi)
	movq	%rdx, 8(%rdi)
	movq	%rcx, 16(%rdi)
	.loc	37 228 2
	addq	$24, %rsp
	popq	%rbp
	retq
Ltmp438:
Lfunc_end49:
	.cfi_endproc

	.p2align	4, 0x90
__ZN16percent_encoding19utf8_percent_encode17hd3ba7b8c0c8cd214E:
Lfunc_begin50:
	.loc	37 242 0
	.cfi_startproc
	pushq	%rbp
	.cfi_def_cfa_offset 16
	.cfi_offset %rbp, -16
	movq	%rsp, %rbp
	.cfi_def_cfa_register %rbp
	subq	$64, %rsp
	movq	%rdi, %rax
	movq	%rax, -64(%rbp)
	movq	%rsi, -56(%rbp)
	movq	%rdx, -48(%rbp)
	movq	%rcx, -40(%rbp)
	movq	%rsi, -32(%rbp)
	movq	%rdx, -24(%rbp)
Ltmp439:
	.file	38 "/rustc/2c8cc343237b8f7d5a3c3703e3a87f2eb2c54a74/library/core/src/str" "mod.rs"
	.loc	38 327 18 prologue_end
	movq	%rsi, -16(%rbp)
	movq	%rdx, -8(%rbp)
	movq	-16(%rbp), %rsi
	movq	-8(%rbp), %rdx
Ltmp440:
	.loc	37 243 5
	callq	__ZN16percent_encoding14percent_encode17hb2249b20aabe9ad8E
	movq	-64(%rbp), %rax
	.loc	37 244 2
	addq	$64, %rsp
	popq	%rbp
	retq
Ltmp441:
Lfunc_end50:
	.cfi_endproc

	.p2align	4, 0x90
__ZN3std3net7ip_addr8Ipv6Addr3new17h5737bcb4ff439937E:
Lfunc_begin51:
	.file	39 "/rustc/2c8cc343237b8f7d5a3c3703e3a87f2eb2c54a74/library/std/src/net" "ip_addr.rs"
	.loc	39 1178 0
	.cfi_startproc
	pushq	%rbp
	.cfi_def_cfa_offset 16
	.cfi_offset %rbp, -16
	movq	%rsp, %rbp
	.cfi_def_cfa_register %rbp
	pushq	%rbx
	subq	$112, %rsp
	.cfi_offset %rbx, -24
	movl	%r8d, %eax
	movw	%r9w, %r8w
	movw	%ax, %r9w
	movw	%cx, %r10w
	movw	%dx, %r11w
	movw	%si, %bx
	movq	%rdi, %rax
	movw	32(%rbp), %cx
	movw	24(%rbp), %dx
	movw	16(%rbp), %si
	movw	%bx, -66(%rbp)
	movw	%r11w, -64(%rbp)
	movw	%r10w, -62(%rbp)
	movw	%r9w, -60(%rbp)
	movw	%r8w, -58(%rbp)
Ltmp442:
	.loc	39 1180 13 prologue_end
	movw	%bx, -56(%rbp)
Ltmp443:
	.loc	16 385 17
	movw	%bx, -54(%rbp)
Ltmp444:
	.loc	16 263 13
	rolw	$8, %bx
	movw	%bx, -52(%rbp)
	movw	-52(%rbp), %bx
Ltmp445:
	.loc	39 1181 13
	movw	%r11w, -50(%rbp)
Ltmp446:
	.loc	16 385 17
	movw	%r11w, -48(%rbp)
Ltmp447:
	.loc	16 263 13
	rolw	$8, %r11w
	movw	%r11w, -46(%rbp)
	movw	-46(%rbp), %r11w
Ltmp448:
	.loc	39 1182 13
	movw	%r10w, -44(%rbp)
Ltmp449:
	.loc	16 385 17
	movw	%r10w, -42(%rbp)
Ltmp450:
	.loc	16 263 13
	rolw	$8, %r10w
	movw	%r10w, -40(%rbp)
	movw	-40(%rbp), %r10w
Ltmp451:
	.loc	39 1183 13
	movw	%r9w, -38(%rbp)
Ltmp452:
	.loc	16 385 17
	movw	%r9w, -36(%rbp)
Ltmp453:
	.loc	16 263 13
	rolw	$8, %r9w
	movw	%r9w, -34(%rbp)
	movw	-34(%rbp), %r9w
Ltmp454:
	.loc	39 1184 13
	movw	%r8w, -32(%rbp)
Ltmp455:
	.loc	16 385 17
	movw	%r8w, -30(%rbp)
Ltmp456:
	.loc	16 263 13
	rolw	$8, %r8w
	movw	%r8w, -28(%rbp)
	movw	-28(%rbp), %r8w
Ltmp457:
	.loc	39 1185 13
	movw	%si, -26(%rbp)
Ltmp458:
	.loc	16 385 17
	movw	%si, -24(%rbp)
Ltmp459:
	.loc	16 263 13
	rolw	$8, %si
	movw	%si, -22(%rbp)
	movw	-22(%rbp), %si
Ltmp460:
	.loc	39 1186 13
	movw	%dx, -20(%rbp)
Ltmp461:
	.loc	16 385 17
	movw	%dx, -18(%rbp)
Ltmp462:
	.loc	16 263 13
	rolw	$8, %dx
	movw	%dx, -16(%rbp)
	movw	-16(%rbp), %dx
Ltmp463:
	.loc	39 1187 13
	movw	%cx, -14(%rbp)
Ltmp464:
	.loc	16 385 17
	movw	%cx, -12(%rbp)
Ltmp465:
	.loc	16 263 13
	rolw	$8, %cx
	movw	%cx, -10(%rbp)
	movw	-10(%rbp), %cx
Ltmp466:
	.loc	39 1179 22
	movw	%bx, -114(%rbp)
	movw	%r11w, -112(%rbp)
	movw	%r10w, -110(%rbp)
	movw	%r9w, -108(%rbp)
	movw	%r8w, -106(%rbp)
	movw	%si, -104(%rbp)
	movw	%dx, -102(%rbp)
	movw	%cx, -100(%rbp)
Ltmp467:
	.loc	39 1192 55
	movq	-114(%rbp), %rcx
	movq	%rcx, -82(%rbp)
	movq	-106(%rbp), %rcx
	movq	%rcx, -74(%rbp)
	.loc	39 1192 30 is_stmt 0
	movq	-82(%rbp), %rcx
	movq	%rcx, -98(%rbp)
	movq	-74(%rbp), %rcx
	movq	%rcx, -90(%rbp)
	.loc	39 1189 9 is_stmt 1
	movq	-98(%rbp), %rcx
	movq	%rcx, (%rdi)
	movq	-90(%rbp), %rcx
	movq	%rcx, 8(%rdi)
Ltmp468:
	.loc	39 1194 6
	addq	$112, %rsp
	popq	%rbx
	popq	%rbp
	retq
Ltmp469:
Lfunc_end51:
	.cfi_endproc

	.p2align	4, 0x90
__ZN3std3net7ip_addr8Ipv6Addr8segments17he84ba2178a2a4044E:
Lfunc_begin52:
	.loc	39 1245 0
	.cfi_startproc
	pushq	%rbp
	.cfi_def_cfa_offset 16
	.cfi_offset %rbp, -16
	movq	%rsp, %rbp
	.cfi_def_cfa_register %rbp
	pushq	%rbx
	subq	$104, %rsp
	.cfi_offset %rbx, -24
	movq	%rdi, %rax
	movq	%rsi, -80(%rbp)
Ltmp470:
	.loc	39 1248 74 prologue_end
	movq	(%rsi), %rcx
	movq	%rcx, -96(%rbp)
	movq	8(%rsi), %rcx
	movq	%rcx, -88(%rbp)
	.loc	39 1248 49 is_stmt 0
	movq	-96(%rbp), %rcx
	movq	%rcx, -112(%rbp)
	movq	-88(%rbp), %rcx
	movq	%rcx, -104(%rbp)
	.loc	39 1248 14
	movw	-112(%rbp), %bx
	movw	%bx, -72(%rbp)
	.loc	39 1248 17
	movw	-110(%rbp), %r11w
	movw	%r11w, -70(%rbp)
	.loc	39 1248 20
	movw	-108(%rbp), %r10w
	movw	%r10w, -68(%rbp)
	.loc	39 1248 23
	movw	-106(%rbp), %r9w
	movw	%r9w, -66(%rbp)
	.loc	39 1248 26
	movw	-104(%rbp), %r8w
	movw	%r8w, -64(%rbp)
	.loc	39 1248 29
	movw	-102(%rbp), %si
	movw	%si, -62(%rbp)
	.loc	39 1248 32
	movw	-100(%rbp), %dx
	movw	%dx, -60(%rbp)
	.loc	39 1248 35
	movw	-98(%rbp), %cx
	movw	%cx, -58(%rbp)
Ltmp471:
	.loc	39 1251 26 is_stmt 1
	movw	%bx, -56(%rbp)
Ltmp472:
	.loc	16 318 17
	movw	%bx, -54(%rbp)
Ltmp473:
	.loc	16 263 13
	rolw	$8, %bx
	movw	%bx, -52(%rbp)
	movw	-52(%rbp), %bx
Ltmp474:
	.loc	39 1252 26
	movw	%r11w, -50(%rbp)
Ltmp475:
	.loc	16 318 17
	movw	%r11w, -48(%rbp)
Ltmp476:
	.loc	16 263 13
	rolw	$8, %r11w
	movw	%r11w, -46(%rbp)
	movw	-46(%rbp), %r11w
Ltmp477:
	.loc	39 1253 26
	movw	%r10w, -44(%rbp)
Ltmp478:
	.loc	16 318 17
	movw	%r10w, -42(%rbp)
Ltmp479:
	.loc	16 263 13
	rolw	$8, %r10w
	movw	%r10w, -40(%rbp)
	movw	-40(%rbp), %r10w
Ltmp480:
	.loc	39 1254 26
	movw	%r9w, -38(%rbp)
Ltmp481:
	.loc	16 318 17
	movw	%r9w, -36(%rbp)
Ltmp482:
	.loc	16 263 13
	rolw	$8, %r9w
	movw	%r9w, -34(%rbp)
	movw	-34(%rbp), %r9w
Ltmp483:
	.loc	39 1255 26
	movw	%r8w, -32(%rbp)
Ltmp484:
	.loc	16 318 17
	movw	%r8w, -30(%rbp)
Ltmp485:
	.loc	16 263 13
	rolw	$8, %r8w
	movw	%r8w, -28(%rbp)
	movw	-28(%rbp), %r8w
Ltmp486:
	.loc	39 1256 26
	movw	%si, -26(%rbp)
Ltmp487:
	.loc	16 318 17
	movw	%si, -24(%rbp)
Ltmp488:
	.loc	16 263 13
	rolw	$8, %si
	movw	%si, -22(%rbp)
	movw	-22(%rbp), %si
Ltmp489:
	.loc	39 1257 26
	movw	%dx, -20(%rbp)
Ltmp490:
	.loc	16 318 17
	movw	%dx, -18(%rbp)
Ltmp491:
	.loc	16 263 13
	rolw	$8, %dx
	movw	%dx, -16(%rbp)
	movw	-16(%rbp), %dx
Ltmp492:
	.loc	39 1258 26
	movw	%cx, -14(%rbp)
Ltmp493:
	.loc	16 318 17
	movw	%cx, -12(%rbp)
Ltmp494:
	.loc	16 263 13
	rolw	$8, %cx
	movw	%cx, -10(%rbp)
	movw	-10(%rbp), %cx
Ltmp495:
	.loc	39 1250 9
	movw	%bx, (%rdi)
	movw	%r11w, 2(%rdi)
	movw	%r10w, 4(%rdi)
	movw	%r9w, 6(%rdi)
	movw	%r8w, 8(%rdi)
	movw	%si, 10(%rdi)
	movw	%dx, 12(%rdi)
	movw	%cx, 14(%rdi)
Ltmp496:
	.loc	39 1260 6
	addq	$104, %rsp
	popq	%rbx
	popq	%rbp
	retq
Ltmp497:
Lfunc_end52:
	.cfi_endproc

	.globl	__ZN3std4path4Path3new17hfcfa85e87bd197fdE
	.p2align	4, 0x90
__ZN3std4path4Path3new17hfcfa85e87bd197fdE:
Lfunc_begin53:
	.file	40 "/rustc/2c8cc343237b8f7d5a3c3703e3a87f2eb2c54a74/library/std/src" "path.rs"
	.loc	40 2037 0
	.cfi_startproc
	pushq	%rbp
	.cfi_def_cfa_offset 16
	.cfi_offset %rbp, -16
	movq	%rsp, %rbp
	.cfi_def_cfa_register %rbp
	subq	$16, %rsp
	movq	%rdi, -8(%rbp)
Ltmp498:
	.loc	40 2038 21 prologue_end
	callq	__ZN98_$LT$std..ffi..os_str..OsString$u20$as$u20$core..convert..AsRef$LT$std..ffi..os_str..OsStr$GT$$GT$6as_ref17hc93407e0a4c90e0cE
	.loc	40 2039 6
	addq	$16, %rsp
	popq	%rbp
	retq
Ltmp499:
Lfunc_end53:
	.cfi_endproc

	.p2align	4, 0x90
__ZN41_$LT$bool$u20$as$u20$core..fmt..Debug$GT$3fmt17h111d31f6f7ee6e1eE:
Lfunc_begin54:
	.file	41 "/rustc/2c8cc343237b8f7d5a3c3703e3a87f2eb2c54a74/library/core/src/fmt" "mod.rs"
	.loc	41 2406 0
	.cfi_startproc
	pushq	%rbp
	.cfi_def_cfa_offset 16
	.cfi_offset %rbp, -16
	movq	%rsp, %rbp
	.cfi_def_cfa_register %rbp
	subq	$16, %rsp
	movq	%rdi, -16(%rbp)
	movq	%rsi, -8(%rbp)
Ltmp500:
	.loc	41 2407 9 prologue_end
	callq	__ZN43_$LT$bool$u20$as$u20$core..fmt..Display$GT$3fmt17hcd777b7f8f92eb67E
	.loc	41 2408 6
	andb	$1, %al
	movzbl	%al, %eax
	addq	$16, %rsp
	popq	%rbp
	retq
Ltmp501:
Lfunc_end54:
	.cfi_endproc

	.globl	__ZN42_$LT$$RF$T$u20$as$u20$core..fmt..Debug$GT$3fmt17h1dfc02277637e666E
	.p2align	4, 0x90
__ZN42_$LT$$RF$T$u20$as$u20$core..fmt..Debug$GT$3fmt17h1dfc02277637e666E:
Lfunc_begin55:
	.loc	41 2377 0
	.cfi_startproc
	pushq	%rbp
	.cfi_def_cfa_offset 16
	.cfi_offset %rbp, -16
	movq	%rsp, %rbp
	.cfi_def_cfa_register %rbp
	subq	$16, %rsp
	movq	%rdi, -16(%rbp)
	movq	%rsi, -8(%rbp)
Ltmp502:
	.loc	41 2377 71 prologue_end
	movq	(%rdi), %rdi
	.loc	41 2377 62 is_stmt 0
	callq	__ZN4core3fmt3num50_$LT$impl$u20$core..fmt..Debug$u20$for$u20$u16$GT$3fmt17h87773da239fe90efE
	.loc	41 2377 84
	andb	$1, %al
	movzbl	%al, %eax
	addq	$16, %rsp
	popq	%rbp
	retq
Ltmp503:
Lfunc_end55:
	.cfi_endproc

	.globl	__ZN42_$LT$$RF$T$u20$as$u20$core..fmt..Debug$GT$3fmt17h1efabdf41ab66c1eE
	.p2align	4, 0x90
__ZN42_$LT$$RF$T$u20$as$u20$core..fmt..Debug$GT$3fmt17h1efabdf41ab66c1eE:
Lfunc_begin56:
	.loc	41 2377 0 is_stmt 1
	.cfi_startproc
	pushq	%rbp
	.cfi_def_cfa_offset 16
	.cfi_offset %rbp, -16
	movq	%rsp, %rbp
	.cfi_def_cfa_register %rbp
	subq	$16, %rsp
	movq	%rdi, -16(%rbp)
	movq	%rsi, -8(%rbp)
Ltmp504:
	.loc	41 2377 71 prologue_end
	movq	(%rdi), %rdi
	.loc	41 2377 62 is_stmt 0
	callq	__ZN4core3fmt3num50_$LT$impl$u20$core..fmt..Debug$u20$for$u20$u32$GT$3fmt17h4b0cd3a9df6012a7E
	.loc	41 2377 84
	andb	$1, %al
	movzbl	%al, %eax
	addq	$16, %rsp
	popq	%rbp
	retq
Ltmp505:
Lfunc_end56:
	.cfi_endproc

	.globl	__ZN42_$LT$$RF$T$u20$as$u20$core..fmt..Debug$GT$3fmt17h313f647d378f4548E
	.p2align	4, 0x90
__ZN42_$LT$$RF$T$u20$as$u20$core..fmt..Debug$GT$3fmt17h313f647d378f4548E:
Lfunc_begin57:
	.loc	41 2377 0 is_stmt 1
	.cfi_startproc
	pushq	%rbp
	.cfi_def_cfa_offset 16
	.cfi_offset %rbp, -16
	movq	%rsp, %rbp
	.cfi_def_cfa_register %rbp
	subq	$16, %rsp
	movq	%rdi, -16(%rbp)
	movq	%rsi, -8(%rbp)
Ltmp506:
	.loc	41 2377 71 prologue_end
	movq	(%rdi), %rdi
	.loc	41 2377 62 is_stmt 0
	callq	__ZN50_$LT$$RF$mut$u20$T$u20$as$u20$core..fmt..Debug$GT$3fmt17h43364967c2fc465eE
	.loc	41 2377 84
	andb	$1, %al
	movzbl	%al, %eax
	addq	$16, %rsp
	popq	%rbp
	retq
Ltmp507:
Lfunc_end57:
	.cfi_endproc

	.globl	__ZN42_$LT$$RF$T$u20$as$u20$core..fmt..Debug$GT$3fmt17h34aa90a578108a21E
	.p2align	4, 0x90
__ZN42_$LT$$RF$T$u20$as$u20$core..fmt..Debug$GT$3fmt17h34aa90a578108a21E:
Lfunc_begin58:
	.loc	41 2377 0 is_stmt 1
	.cfi_startproc
	pushq	%rbp
	.cfi_def_cfa_offset 16
	.cfi_offset %rbp, -16
	movq	%rsp, %rbp
	.cfi_def_cfa_register %rbp
	subq	$16, %rsp
	movq	%rdi, -16(%rbp)
	movq	%rsi, -8(%rbp)
Ltmp508:
	.loc	41 2377 71 prologue_end
	movq	(%rdi), %rdi
	.loc	41 2377 62 is_stmt 0
	callq	__ZN62_$LT$url..origin..OpaqueOrigin$u20$as$u20$core..fmt..Debug$GT$3fmt17h1cf85c0c28f83efcE
	.loc	41 2377 84
	andb	$1, %al
	movzbl	%al, %eax
	addq	$16, %rsp
	popq	%rbp
	retq
Ltmp509:
Lfunc_end58:
	.cfi_endproc

	.globl	__ZN42_$LT$$RF$T$u20$as$u20$core..fmt..Debug$GT$3fmt17h5f1d053028a0883bE
	.p2align	4, 0x90
__ZN42_$LT$$RF$T$u20$as$u20$core..fmt..Debug$GT$3fmt17h5f1d053028a0883bE:
Lfunc_begin59:
	.loc	41 2377 0 is_stmt 1
	.cfi_startproc
	pushq	%rbp
	.cfi_def_cfa_offset 16
	.cfi_offset %rbp, -16
	movq	%rsp, %rbp
	.cfi_def_cfa_register %rbp
	subq	$16, %rsp
	movq	%rdi, -16(%rbp)
	movq	%rsi, -8(%rbp)
Ltmp510:
	.loc	41 2377 71 prologue_end
	movq	(%rdi), %rdi
	.loc	41 2377 62 is_stmt 0
	callq	__ZN64_$LT$std..net..ip_addr..Ipv6Addr$u20$as$u20$core..fmt..Debug$GT$3fmt17h5274b3ca9ebb45eaE
	.loc	41 2377 84
	andb	$1, %al
	movzbl	%al, %eax
	addq	$16, %rsp
	popq	%rbp
	retq
Ltmp511:
Lfunc_end59:
	.cfi_endproc

	.globl	__ZN42_$LT$$RF$T$u20$as$u20$core..fmt..Debug$GT$3fmt17h6927555703815137E
	.p2align	4, 0x90
__ZN42_$LT$$RF$T$u20$as$u20$core..fmt..Debug$GT$3fmt17h6927555703815137E:
Lfunc_begin60:
	.loc	41 2377 0 is_stmt 1
	.cfi_startproc
	pushq	%rbp
	.cfi_def_cfa_offset 16
	.cfi_offset %rbp, -16
	movq	%rsp, %rbp
	.cfi_def_cfa_register %rbp
	subq	$16, %rsp
	movq	%rdi, -16(%rbp)
	movq	%rsi, -8(%rbp)
Ltmp512:
	.loc	41 2377 71 prologue_end
	movq	(%rdi), %rdi
	.loc	41 2377 62 is_stmt 0
	callq	__ZN66_$LT$core..option..Option$LT$T$GT$$u20$as$u20$core..fmt..Debug$GT$3fmt17h8bb703d861ee7f37E
	.loc	41 2377 84
	andb	$1, %al
	movzbl	%al, %eax
	addq	$16, %rsp
	popq	%rbp
	retq
Ltmp513:
Lfunc_end60:
	.cfi_endproc

	.globl	__ZN42_$LT$$RF$T$u20$as$u20$core..fmt..Debug$GT$3fmt17ha56f2e690fdc82beE
	.p2align	4, 0x90
__ZN42_$LT$$RF$T$u20$as$u20$core..fmt..Debug$GT$3fmt17ha56f2e690fdc82beE:
Lfunc_begin61:
	.loc	41 2377 0 is_stmt 1
	.cfi_startproc
	pushq	%rbp
	.cfi_def_cfa_offset 16
	.cfi_offset %rbp, -16
	movq	%rsp, %rbp
	.cfi_def_cfa_register %rbp
	subq	$16, %rsp
	movq	%rdi, -16(%rbp)
	movq	%rsi, -8(%rbp)
Ltmp514:
	.loc	41 2377 71 prologue_end
	movq	(%rdi), %rdi
	.loc	41 2377 62 is_stmt 0
	callq	__ZN64_$LT$std..net..ip_addr..Ipv4Addr$u20$as$u20$core..fmt..Debug$GT$3fmt17h2797f7b8ca6820ebE
	.loc	41 2377 84
	andb	$1, %al
	movzbl	%al, %eax
	addq	$16, %rsp
	popq	%rbp
	retq
Ltmp515:
Lfunc_end61:
	.cfi_endproc

	.globl	__ZN42_$LT$$RF$T$u20$as$u20$core..fmt..Debug$GT$3fmt17hbce9cb306f4c4b5fE
	.p2align	4, 0x90
__ZN42_$LT$$RF$T$u20$as$u20$core..fmt..Debug$GT$3fmt17hbce9cb306f4c4b5fE:
Lfunc_begin62:
	.loc	41 2377 0 is_stmt 1
	.cfi_startproc
	pushq	%rbp
	.cfi_def_cfa_offset 16
	.cfi_offset %rbp, -16
	movq	%rsp, %rbp
	.cfi_def_cfa_register %rbp
	subq	$16, %rsp
	movq	%rdi, -16(%rbp)
	movq	%rsi, -8(%rbp)
Ltmp516:
	.loc	41 2377 71 prologue_end
	movq	(%rdi), %rdi
	.loc	41 2377 62 is_stmt 0
	callq	__ZN61_$LT$url..host..Host$LT$S$GT$$u20$as$u20$core..fmt..Debug$GT$3fmt17h10fecaa58610d844E
	.loc	41 2377 84
	andb	$1, %al
	movzbl	%al, %eax
	addq	$16, %rsp
	popq	%rbp
	retq
Ltmp517:
Lfunc_end62:
	.cfi_endproc

	.globl	__ZN42_$LT$$RF$T$u20$as$u20$core..fmt..Debug$GT$3fmt17hd6c296e881def178E
	.p2align	4, 0x90
__ZN42_$LT$$RF$T$u20$as$u20$core..fmt..Debug$GT$3fmt17hd6c296e881def178E:
Lfunc_begin63:
	.loc	41 2377 0 is_stmt 1
	.cfi_startproc
	pushq	%rbp
	.cfi_def_cfa_offset 16
	.cfi_offset %rbp, -16
	movq	%rsp, %rbp
	.cfi_def_cfa_register %rbp
	subq	$16, %rsp
	movq	%rdi, -16(%rbp)
	movq	%rsi, -8(%rbp)
Ltmp518:
	.loc	41 2377 71 prologue_end
	movq	(%rdi), %rdi
	.loc	41 2377 62 is_stmt 0
	callq	__ZN58_$LT$alloc..string..String$u20$as$u20$core..fmt..Debug$GT$3fmt17h99a12779bbb7e857E
	.loc	41 2377 84
	andb	$1, %al
	movzbl	%al, %eax
	addq	$16, %rsp
	popq	%rbp
	retq
Ltmp519:
Lfunc_end63:
	.cfi_endproc

	.globl	__ZN42_$LT$$RF$T$u20$as$u20$core..fmt..Debug$GT$3fmt17he06aeba26d50e570E
	.p2align	4, 0x90
__ZN42_$LT$$RF$T$u20$as$u20$core..fmt..Debug$GT$3fmt17he06aeba26d50e570E:
Lfunc_begin64:
	.loc	41 2377 0 is_stmt 1
	.cfi_startproc
	pushq	%rbp
	.cfi_def_cfa_offset 16
	.cfi_offset %rbp, -16
	movq	%rsp, %rbp
	.cfi_def_cfa_register %rbp
	subq	$16, %rsp
	movq	%rdi, -16(%rbp)
	movq	%rsi, -8(%rbp)
Ltmp520:
	.loc	41 2377 71 prologue_end
	movq	(%rdi), %rdi
	.loc	41 2377 62 is_stmt 0
	callq	__ZN61_$LT$url..host..Host$LT$S$GT$$u20$as$u20$core..fmt..Debug$GT$3fmt17h98916186aa8b80ceE
	.loc	41 2377 84
	andb	$1, %al
	movzbl	%al, %eax
	addq	$16, %rsp
	popq	%rbp
	retq
Ltmp521:
Lfunc_end64:
	.cfi_endproc

	.globl	__ZN42_$LT$$RF$T$u20$as$u20$core..fmt..Debug$GT$3fmt17hf9675b4d1931cb56E
	.p2align	4, 0x90
__ZN42_$LT$$RF$T$u20$as$u20$core..fmt..Debug$GT$3fmt17hf9675b4d1931cb56E:
Lfunc_begin65:
	.loc	41 2377 0 is_stmt 1
	.cfi_startproc
	pushq	%rbp
	.cfi_def_cfa_offset 16
	.cfi_offset %rbp, -16
	movq	%rsp, %rbp
	.cfi_def_cfa_register %rbp
	subq	$16, %rsp
	movq	%rdi, -16(%rbp)
	movq	%rsi, -8(%rbp)
Ltmp522:
	.loc	41 2377 71 prologue_end
	movq	(%rdi), %rdi
	.loc	41 2377 62 is_stmt 0
	callq	__ZN66_$LT$core..option..Option$LT$T$GT$$u20$as$u20$core..fmt..Debug$GT$3fmt17h11b03afafe70fc74E
	.loc	41 2377 84
	andb	$1, %al
	movzbl	%al, %eax
	addq	$16, %rsp
	popq	%rbp
	retq
Ltmp523:
Lfunc_end65:
	.cfi_endproc

	.globl	__ZN44_$LT$$RF$T$u20$as$u20$core..fmt..Display$GT$3fmt17hc6eb4a2408485204E
	.p2align	4, 0x90
__ZN44_$LT$$RF$T$u20$as$u20$core..fmt..Display$GT$3fmt17hc6eb4a2408485204E:
Lfunc_begin66:
	.loc	41 2377 0 is_stmt 1
	.cfi_startproc
	pushq	%rbp
	.cfi_def_cfa_offset 16
	.cfi_offset %rbp, -16
	movq	%rsp, %rbp
	.cfi_def_cfa_register %rbp
	subq	$16, %rsp
	movq	%rdi, -16(%rbp)
	movq	%rsi, -8(%rbp)
Ltmp524:
	.loc	41 2377 71 prologue_end
	movq	(%rdi), %rdi
	.loc	41 2377 62 is_stmt 0
	callq	__ZN60_$LT$alloc..string..String$u20$as$u20$core..fmt..Display$GT$3fmt17h4eb1e35503bd61f0E
	.loc	41 2377 84
	andb	$1, %al
	movzbl	%al, %eax
	addq	$16, %rsp
	popq	%rbp
	retq
Ltmp525:
Lfunc_end66:
	.cfi_endproc

	.globl	__ZN44_$LT$$RF$T$u20$as$u20$core..fmt..Display$GT$3fmt17he294df756dfe1414E
	.p2align	4, 0x90
__ZN44_$LT$$RF$T$u20$as$u20$core..fmt..Display$GT$3fmt17he294df756dfe1414E:
Lfunc_begin67:
	.loc	41 2377 0 is_stmt 1
	.cfi_startproc
	pushq	%rbp
	.cfi_def_cfa_offset 16
	.cfi_offset %rbp, -16
	movq	%rsp, %rbp
	.cfi_def_cfa_register %rbp
	subq	$16, %rsp
	movq	%rsi, %rdx
	movq	%rdi, %rax
	movq	%rax, -16(%rbp)
	movq	%rdx, -8(%rbp)
Ltmp526:
	.loc	41 2377 71 prologue_end
	movq	(%rax), %rdi
	movq	8(%rax), %rsi
	.loc	41 2377 62 is_stmt 0
	callq	__ZN42_$LT$str$u20$as$u20$core..fmt..Display$GT$3fmt17hd1cabce055ea2fbdE
	.loc	41 2377 84
	andb	$1, %al
	movzbl	%al, %eax
	addq	$16, %rsp
	popq	%rbp
	retq
Ltmp527:
Lfunc_end67:
	.cfi_endproc

	.globl	__ZN44_$LT$$RF$T$u20$as$u20$core..fmt..Display$GT$3fmt17hfb8c9755730a8477E
	.p2align	4, 0x90
__ZN44_$LT$$RF$T$u20$as$u20$core..fmt..Display$GT$3fmt17hfb8c9755730a8477E:
Lfunc_begin68:
	.loc	41 2377 0 is_stmt 1
	.cfi_startproc
	pushq	%rbp
	.cfi_def_cfa_offset 16
	.cfi_offset %rbp, -16
	movq	%rsp, %rbp
	.cfi_def_cfa_register %rbp
	subq	$16, %rsp
	movq	%rdi, -16(%rbp)
	movq	%rsi, -8(%rbp)
Ltmp528:
	.loc	41 2377 71 prologue_end
	movq	(%rdi), %rdi
	.loc	41 2377 62 is_stmt 0
	callq	__ZN63_$LT$url..host..Host$LT$S$GT$$u20$as$u20$core..fmt..Display$GT$3fmt17h77bda9cb8228ad07E
	.loc	41 2377 84
	andb	$1, %al
	movzbl	%al, %eax
	addq	$16, %rsp
	popq	%rbp
	retq
Ltmp529:
Lfunc_end68:
	.cfi_endproc

	.globl	__ZN45_$LT$T$u20$as$u20$alloc..string..ToString$GT$9to_string17h3ec34a1c686d586eE
	.p2align	4, 0x90
__ZN45_$LT$T$u20$as$u20$alloc..string..ToString$GT$9to_string17h3ec34a1c686d586eE:
Lfunc_begin69:
	.loc	22 2532 0 is_stmt 1
	.cfi_startproc
	.cfi_personality 155, _rust_eh_personality
	.cfi_lsda 16, Lexception11
	pushq	%rbp
	.cfi_def_cfa_offset 16
	.cfi_offset %rbp, -16
	movq	%rsp, %rbp
	.cfi_def_cfa_register %rbp
	subq	$144, %rsp
	movq	%rsi, %rax
	movq	%rax, -136(%rbp)
	movq	%rdi, %rsi
	movq	%rsi, -128(%rbp)
Ltmp540:
	movq	%rsi, %rdi
	movq	%rdi, -120(%rbp)
	movq	%rax, -24(%rbp)
Ltmp541:
	.loc	27 425 20 prologue_end
	movq	L___unnamed_28(%rip), %rcx
	movq	L___unnamed_28+8(%rip), %rax
	.loc	27 425 9 is_stmt 0
	movq	%rcx, -48(%rbp)
	movq	%rax, -40(%rbp)
	movq	$0, -32(%rbp)
Ltmp542:
	.loc	22 456 9 is_stmt 1
	movq	-32(%rbp), %rax
	movq	%rax, 16(%rsi)
	movq	-48(%rbp), %rax
	movq	-40(%rbp), %rcx
	movq	%rcx, 8(%rsi)
	movq	%rax, (%rsi)
Ltmp543:
Ltmp530:
	.loc	22 2534 29
	leaq	l___unnamed_1(%rip), %rdx
	leaq	-112(%rbp), %rdi
	callq	__ZN4core3fmt9Formatter3new17h7f05d885df8ba719E
Ltmp544:
Ltmp531:
	jmp	LBB69_3
Ltmp545:
LBB69_1:
Ltmp537:
	.loc	22 0 29 is_stmt 0
	movq	-128(%rbp), %rdi
	.loc	22 2539 5 is_stmt 1
	callq	__ZN4core3ptr42drop_in_place$LT$alloc..string..String$GT$17h4e7d11210995f00cE
Ltmp538:
	jmp	LBB69_7
LBB69_2:
Ltmp536:
	.loc	22 0 5 is_stmt 0
	movq	%rax, %rcx
	movl	%edx, %eax
	movq	%rcx, -16(%rbp)
	movl	%eax, -8(%rbp)
	jmp	LBB69_1
LBB69_3:
Ltmp546:
Ltmp532:
	movq	-136(%rbp), %rdi
	leaq	-112(%rbp), %rsi
Ltmp547:
	.loc	22 2536 9 is_stmt 1
	callq	__ZN70_$LT$percent_encoding..PercentEncode$u20$as$u20$core..fmt..Display$GT$3fmt17h12d92039350a7984E
Ltmp533:
	movb	%al, -137(%rbp)
	jmp	LBB69_4
Ltmp548:
LBB69_4:
Ltmp534:
	.loc	22 0 9 is_stmt 0
	movb	-137(%rbp), %al
	.loc	22 2536 9
	movzbl	%al, %edi
	andl	$1, %edi
	leaq	l___unnamed_29(%rip), %rsi
	leaq	l___unnamed_30(%rip), %rcx
	movl	$55, %edx
	callq	__ZN4core6result19Result$LT$T$C$E$GT$6expect17he0d4b4bf1864ed78E
Ltmp535:
	jmp	LBB69_5
Ltmp549:
LBB69_5:
	.loc	22 0 9
	movq	-120(%rbp), %rax
	.loc	22 2539 6 is_stmt 1
	addq	$144, %rsp
	popq	%rbp
	retq
LBB69_6:
Ltmp539:
	.loc	22 2532 5
	callq	__ZN4core9panicking19panic_cannot_unwind17h1fbca7e1d7f56ae1E
LBB69_7:
	movq	-16(%rbp), %rdi
	callq	__Unwind_Resume
Ltmp550:
Lfunc_end69:
	.cfi_endproc
	.section	__TEXT,__gcc_except_tab
	.p2align	2
GCC_except_table69:
Lexception11:
	.byte	255
	.byte	255
	.byte	1
	.uleb128 Lcst_end11-Lcst_begin11
Lcst_begin11:
	.uleb128 Ltmp530-Lfunc_begin69
	.uleb128 Ltmp531-Ltmp530
	.uleb128 Ltmp536-Lfunc_begin69
	.byte	0
	.uleb128 Ltmp537-Lfunc_begin69
	.uleb128 Ltmp538-Ltmp537
	.uleb128 Ltmp539-Lfunc_begin69
	.byte	0
	.uleb128 Ltmp532-Lfunc_begin69
	.uleb128 Ltmp535-Ltmp532
	.uleb128 Ltmp536-Lfunc_begin69
	.byte	0
	.uleb128 Ltmp535-Lfunc_begin69
	.uleb128 Lfunc_end69-Ltmp535
	.byte	0
	.byte	0
Lcst_end11:
	.p2align	2

	.section	__TEXT,__text,regular,pure_instructions
	.globl	__ZN45_$LT$T$u20$as$u20$alloc..string..ToString$GT$9to_string17h56f32369dc8a0f26E
	.p2align	4, 0x90
__ZN45_$LT$T$u20$as$u20$alloc..string..ToString$GT$9to_string17h56f32369dc8a0f26E:
Lfunc_begin70:
	.loc	22 2532 0
	.cfi_startproc
	.cfi_personality 155, _rust_eh_personality
	.cfi_lsda 16, Lexception12
	pushq	%rbp
	.cfi_def_cfa_offset 16
	.cfi_offset %rbp, -16
	movq	%rsp, %rbp
	.cfi_def_cfa_register %rbp
	subq	$144, %rsp
	movq	%rsi, %rax
	movq	%rax, -136(%rbp)
	movq	%rdi, %rsi
	movq	%rsi, -128(%rbp)
Ltmp561:
	movq	%rsi, %rdi
	movq	%rdi, -120(%rbp)
	movq	%rax, -24(%rbp)
Ltmp562:
	.loc	27 425 20 prologue_end
	movq	L___unnamed_28(%rip), %rcx
	movq	L___unnamed_28+8(%rip), %rax
	.loc	27 425 9 is_stmt 0
	movq	%rcx, -48(%rbp)
	movq	%rax, -40(%rbp)
	movq	$0, -32(%rbp)
Ltmp563:
	.loc	22 456 9 is_stmt 1
	movq	-32(%rbp), %rax
	movq	%rax, 16(%rsi)
	movq	-48(%rbp), %rax
	movq	-40(%rbp), %rcx
	movq	%rcx, 8(%rsi)
	movq	%rax, (%rsi)
Ltmp564:
Ltmp551:
	.loc	22 2534 29
	leaq	l___unnamed_1(%rip), %rdx
	leaq	-112(%rbp), %rdi
	callq	__ZN4core3fmt9Formatter3new17h7f05d885df8ba719E
Ltmp565:
Ltmp552:
	jmp	LBB70_3
Ltmp566:
LBB70_1:
Ltmp558:
	.loc	22 0 29 is_stmt 0
	movq	-128(%rbp), %rdi
	.loc	22 2539 5 is_stmt 1
	callq	__ZN4core3ptr42drop_in_place$LT$alloc..string..String$GT$17h4e7d11210995f00cE
Ltmp559:
	jmp	LBB70_7
LBB70_2:
Ltmp557:
	.loc	22 0 5 is_stmt 0
	movq	%rax, %rcx
	movl	%edx, %eax
	movq	%rcx, -16(%rbp)
	movl	%eax, -8(%rbp)
	jmp	LBB70_1
LBB70_3:
Ltmp567:
Ltmp553:
	movq	-136(%rbp), %rdi
	leaq	-112(%rbp), %rsi
Ltmp568:
	.loc	22 2536 9 is_stmt 1
	callq	__ZN63_$LT$url..host..Host$LT$S$GT$$u20$as$u20$core..fmt..Display$GT$3fmt17h77bda9cb8228ad07E
Ltmp554:
	movb	%al, -137(%rbp)
	jmp	LBB70_4
Ltmp569:
LBB70_4:
Ltmp555:
	.loc	22 0 9 is_stmt 0
	movb	-137(%rbp), %al
	.loc	22 2536 9
	movzbl	%al, %edi
	andl	$1, %edi
	leaq	l___unnamed_29(%rip), %rsi
	leaq	l___unnamed_30(%rip), %rcx
	movl	$55, %edx
	callq	__ZN4core6result19Result$LT$T$C$E$GT$6expect17he0d4b4bf1864ed78E
Ltmp556:
	jmp	LBB70_5
Ltmp570:
LBB70_5:
	.loc	22 0 9
	movq	-120(%rbp), %rax
	.loc	22 2539 6 is_stmt 1
	addq	$144, %rsp
	popq	%rbp
	retq
LBB70_6:
Ltmp560:
	.loc	22 2532 5
	callq	__ZN4core9panicking19panic_cannot_unwind17h1fbca7e1d7f56ae1E
LBB70_7:
	movq	-16(%rbp), %rdi
	callq	__Unwind_Resume
Ltmp571:
Lfunc_end70:
	.cfi_endproc
	.section	__TEXT,__gcc_except_tab
	.p2align	2
GCC_except_table70:
Lexception12:
	.byte	255
	.byte	255
	.byte	1
	.uleb128 Lcst_end12-Lcst_begin12
Lcst_begin12:
	.uleb128 Ltmp551-Lfunc_begin70
	.uleb128 Ltmp552-Ltmp551
	.uleb128 Ltmp557-Lfunc_begin70
	.byte	0
	.uleb128 Ltmp558-Lfunc_begin70
	.uleb128 Ltmp559-Ltmp558
	.uleb128 Ltmp560-Lfunc_begin70
	.byte	0
	.uleb128 Ltmp553-Lfunc_begin70
	.uleb128 Ltmp556-Ltmp553
	.uleb128 Ltmp557-Lfunc_begin70
	.byte	0
	.uleb128 Ltmp556-Lfunc_begin70
	.uleb128 Lfunc_end70-Ltmp556
	.byte	0
	.byte	0
Lcst_end12:
	.p2align	2

	.section	__TEXT,__text,regular,pure_instructions
	.globl	__ZN45_$LT$T$u20$as$u20$alloc..string..ToString$GT$9to_string17h6d180433c30f4b1bE
	.p2align	4, 0x90
__ZN45_$LT$T$u20$as$u20$alloc..string..ToString$GT$9to_string17h6d180433c30f4b1bE:
Lfunc_begin71:
	.loc	22 2532 0
	.cfi_startproc
	.cfi_personality 155, _rust_eh_personality
	.cfi_lsda 16, Lexception13
	pushq	%rbp
	.cfi_def_cfa_offset 16
	.cfi_offset %rbp, -16
	movq	%rsp, %rbp
	.cfi_def_cfa_register %rbp
	subq	$144, %rsp
	movq	%rsi, %rax
	movq	%rax, -136(%rbp)
	movq	%rdi, %rsi
	movq	%rsi, -128(%rbp)
Ltmp582:
	movq	%rsi, %rdi
	movq	%rdi, -120(%rbp)
	movq	%rax, -24(%rbp)
Ltmp583:
	.loc	27 425 20 prologue_end
	movq	L___unnamed_28(%rip), %rcx
	movq	L___unnamed_28+8(%rip), %rax
	.loc	27 425 9 is_stmt 0
	movq	%rcx, -48(%rbp)
	movq	%rax, -40(%rbp)
	movq	$0, -32(%rbp)
Ltmp584:
	.loc	22 456 9 is_stmt 1
	movq	-32(%rbp), %rax
	movq	%rax, 16(%rsi)
	movq	-48(%rbp), %rax
	movq	-40(%rbp), %rcx
	movq	%rcx, 8(%rsi)
	movq	%rax, (%rsi)
Ltmp585:
Ltmp572:
	.loc	22 2534 29
	leaq	l___unnamed_1(%rip), %rdx
	leaq	-112(%rbp), %rdi
	callq	__ZN4core3fmt9Formatter3new17h7f05d885df8ba719E
Ltmp586:
Ltmp573:
	jmp	LBB71_3
Ltmp587:
LBB71_1:
Ltmp579:
	.loc	22 0 29 is_stmt 0
	movq	-128(%rbp), %rdi
	.loc	22 2539 5 is_stmt 1
	callq	__ZN4core3ptr42drop_in_place$LT$alloc..string..String$GT$17h4e7d11210995f00cE
Ltmp580:
	jmp	LBB71_7
LBB71_2:
Ltmp578:
	.loc	22 0 5 is_stmt 0
	movq	%rax, %rcx
	movl	%edx, %eax
	movq	%rcx, -16(%rbp)
	movl	%eax, -8(%rbp)
	jmp	LBB71_1
LBB71_3:
Ltmp588:
Ltmp574:
	movq	-136(%rbp), %rdi
	leaq	-112(%rbp), %rsi
Ltmp589:
	.loc	22 2536 9 is_stmt 1
	callq	__ZN66_$LT$std..net..ip_addr..Ipv4Addr$u20$as$u20$core..fmt..Display$GT$3fmt17h87050c1eb492c860E
Ltmp575:
	movb	%al, -137(%rbp)
	jmp	LBB71_4
Ltmp590:
LBB71_4:
Ltmp576:
	.loc	22 0 9 is_stmt 0
	movb	-137(%rbp), %al
	.loc	22 2536 9
	movzbl	%al, %edi
	andl	$1, %edi
	leaq	l___unnamed_29(%rip), %rsi
	leaq	l___unnamed_30(%rip), %rcx
	movl	$55, %edx
	callq	__ZN4core6result19Result$LT$T$C$E$GT$6expect17he0d4b4bf1864ed78E
Ltmp577:
	jmp	LBB71_5
Ltmp591:
LBB71_5:
	.loc	22 0 9
	movq	-120(%rbp), %rax
	.loc	22 2539 6 is_stmt 1
	addq	$144, %rsp
	popq	%rbp
	retq
LBB71_6:
Ltmp581:
	.loc	22 2532 5
	callq	__ZN4core9panicking19panic_cannot_unwind17h1fbca7e1d7f56ae1E
LBB71_7:
	movq	-16(%rbp), %rdi
	callq	__Unwind_Resume
Ltmp592:
Lfunc_end71:
	.cfi_endproc
	.section	__TEXT,__gcc_except_tab
	.p2align	2
GCC_except_table71:
Lexception13:
	.byte	255
	.byte	255
	.byte	1
	.uleb128 Lcst_end13-Lcst_begin13
Lcst_begin13:
	.uleb128 Ltmp572-Lfunc_begin71
	.uleb128 Ltmp573-Ltmp572
	.uleb128 Ltmp578-Lfunc_begin71
	.byte	0
	.uleb128 Ltmp579-Lfunc_begin71
	.uleb128 Ltmp580-Ltmp579
	.uleb128 Ltmp581-Lfunc_begin71
	.byte	0
	.uleb128 Ltmp574-Lfunc_begin71
	.uleb128 Ltmp577-Ltmp574
	.uleb128 Ltmp578-Lfunc_begin71
	.byte	0
	.uleb128 Ltmp577-Lfunc_begin71
	.uleb128 Lfunc_end71-Ltmp577
	.byte	0
	.byte	0
Lcst_end13:
	.p2align	2

	.section	__TEXT,__text,regular,pure_instructions
	.p2align	4, 0x90
__ZN47_$LT$str$u20$as$u20$alloc..string..ToString$GT$9to_string17hd74746a74e943918E:
Lfunc_begin72:
	.loc	22 2607 0
	.cfi_startproc
	pushq	%rbp
	.cfi_def_cfa_offset 16
	.cfi_offset %rbp, -16
	movq	%rsp, %rbp
	.cfi_def_cfa_register %rbp
	subq	$144, %rsp
	movq	%rdi, -144(%rbp)
	movq	%rdi, -136(%rbp)
	movq	%rsi, -80(%rbp)
	movq	%rdx, -72(%rbp)
Ltmp593:
	.loc	22 2608 22 prologue_end
	movq	%rsi, -64(%rbp)
	movq	%rdx, -56(%rbp)
Ltmp594:
	.loc	22 2662 9
	movq	%rsi, -48(%rbp)
	movq	%rdx, -40(%rbp)
Ltmp595:
	.file	42 "/rustc/2c8cc343237b8f7d5a3c3703e3a87f2eb2c54a74/library/alloc/src" "str.rs"
	.loc	42 209 46
	movq	%rsi, -32(%rbp)
	movq	%rdx, -24(%rbp)
Ltmp596:
	.loc	38 327 18
	movq	%rsi, -16(%rbp)
	movq	%rdx, -8(%rbp)
	movq	-16(%rbp), %rsi
	movq	-8(%rbp), %rdx
Ltmp597:
	.loc	42 209 46
	leaq	-128(%rbp), %rdi
	callq	__ZN5alloc5slice64_$LT$impl$u20$alloc..borrow..ToOwned$u20$for$u20$$u5b$T$u5d$$GT$8to_owned17h607b302c8a77fb8aE
	movq	-144(%rbp), %rdi
	movq	-136(%rbp), %rax
Ltmp598:
	.loc	22 846 23
	movq	-128(%rbp), %rcx
	movq	%rcx, -104(%rbp)
	movq	-120(%rbp), %rcx
	movq	%rcx, -96(%rbp)
	movq	-112(%rbp), %rcx
	movq	%rcx, -88(%rbp)
	.loc	22 846 9 is_stmt 0
	movq	-104(%rbp), %rcx
	movq	%rcx, (%rdi)
	movq	-96(%rbp), %rcx
	movq	%rcx, 8(%rdi)
	movq	-88(%rbp), %rcx
	movq	%rcx, 16(%rdi)
Ltmp599:
	.loc	22 2609 6 is_stmt 1
	addq	$144, %rsp
	popq	%rbp
	retq
Ltmp600:
Lfunc_end72:
	.cfi_endproc

	.globl	__ZN49_$LT$F$u20$as$u20$core..str..pattern..Pattern$GT$13into_searcher17h3de0c92ffd3ecaf6E
	.p2align	4, 0x90
__ZN49_$LT$F$u20$as$u20$core..str..pattern..Pattern$GT$13into_searcher17h3de0c92ffd3ecaf6E:
Lfunc_begin73:
	.loc	19 705 0
	.cfi_startproc
	pushq	%rbp
	.cfi_def_cfa_offset 16
	.cfi_offset %rbp, -16
	movq	%rsp, %rbp
	.cfi_def_cfa_register %rbp
	subq	$96, %rsp
	movq	%rdi, -88(%rbp)
	movq	%rdi, -80(%rbp)
	movq	%rsi, -16(%rbp)
	movq	%rdx, -8(%rbp)
Ltmp601:
	.loc	19 706 21 prologue_end
	leaq	-72(%rbp), %rdi
	callq	__ZN95_$LT$core..str..pattern..MultiCharEqPattern$LT$C$GT$$u20$as$u20$core..str..pattern..Pattern$GT$13into_searcher17ha3e0637a7a36bc17E
	movq	-88(%rbp), %rdi
	.loc	19 706 13 is_stmt 0
	leaq	-72(%rbp), %rsi
	movl	$40, %edx
	callq	_memcpy
	movq	-80(%rbp), %rax
	.loc	19 707 10 is_stmt 1
	addq	$96, %rsp
	popq	%rbp
	retq
Ltmp602:
Lfunc_end73:
	.cfi_endproc

	.globl	__ZN49_$LT$F$u20$as$u20$core..str..pattern..Pattern$GT$13into_searcher17ha82b910cf87974f5E
	.p2align	4, 0x90
__ZN49_$LT$F$u20$as$u20$core..str..pattern..Pattern$GT$13into_searcher17ha82b910cf87974f5E:
Lfunc_begin74:
	.loc	19 705 0
	.cfi_startproc
	pushq	%rbp
	.cfi_def_cfa_offset 16
	.cfi_offset %rbp, -16
	movq	%rsp, %rbp
	.cfi_def_cfa_register %rbp
	subq	$96, %rsp
	movq	%rdi, -88(%rbp)
	movq	%rdi, -80(%rbp)
	movq	%rsi, -16(%rbp)
	movq	%rdx, -8(%rbp)
Ltmp603:
	.loc	19 706 21 prologue_end
	leaq	-72(%rbp), %rdi
	callq	__ZN95_$LT$core..str..pattern..MultiCharEqPattern$LT$C$GT$$u20$as$u20$core..str..pattern..Pattern$GT$13into_searcher17heada172b40833fe6E
	movq	-88(%rbp), %rdi
	.loc	19 706 13 is_stmt 0
	leaq	-72(%rbp), %rsi
	movl	$40, %edx
	callq	_memcpy
	movq	-80(%rbp), %rax
	.loc	19 707 10 is_stmt 1
	addq	$96, %rsp
	popq	%rbp
	retq
Ltmp604:
Lfunc_end74:
	.cfi_endproc

	.globl	__ZN49_$LT$F$u20$as$u20$core..str..pattern..Pattern$GT$13into_searcher17hac961f80f8209124E
	.p2align	4, 0x90
__ZN49_$LT$F$u20$as$u20$core..str..pattern..Pattern$GT$13into_searcher17hac961f80f8209124E:
Lfunc_begin75:
	.loc	19 705 0
	.cfi_startproc
	pushq	%rbp
	.cfi_def_cfa_offset 16
	.cfi_offset %rbp, -16
	movq	%rsp, %rbp
	.cfi_def_cfa_register %rbp
	subq	$96, %rsp
	movq	%rdi, -88(%rbp)
	movq	%rdi, -80(%rbp)
	movq	%rsi, -16(%rbp)
	movq	%rdx, -8(%rbp)
Ltmp605:
	.loc	19 706 21 prologue_end
	leaq	-72(%rbp), %rdi
	callq	__ZN95_$LT$core..str..pattern..MultiCharEqPattern$LT$C$GT$$u20$as$u20$core..str..pattern..Pattern$GT$13into_searcher17h3c9ba43baac15eb1E
	movq	-88(%rbp), %rdi
	.loc	19 706 13 is_stmt 0
	leaq	-72(%rbp), %rsi
	movl	$40, %edx
	callq	_memcpy
	movq	-80(%rbp), %rax
	.loc	19 707 10 is_stmt 1
	addq	$96, %rsp
	popq	%rbp
	retq
Ltmp606:
Lfunc_end75:
	.cfi_endproc

	.globl	__ZN49_$LT$F$u20$as$u20$core..str..pattern..Pattern$GT$13into_searcher17hfde526c1e91fb0b7E
	.p2align	4, 0x90
__ZN49_$LT$F$u20$as$u20$core..str..pattern..Pattern$GT$13into_searcher17hfde526c1e91fb0b7E:
Lfunc_begin76:
	.loc	19 705 0
	.cfi_startproc
	pushq	%rbp
	.cfi_def_cfa_offset 16
	.cfi_offset %rbp, -16
	movq	%rsp, %rbp
	.cfi_def_cfa_register %rbp
	subq	$96, %rsp
	movq	%rdi, -88(%rbp)
	movq	%rdi, -80(%rbp)
	movq	%rsi, -16(%rbp)
	movq	%rdx, -8(%rbp)
Ltmp607:
	.loc	19 706 21 prologue_end
	leaq	-72(%rbp), %rdi
	callq	__ZN95_$LT$core..str..pattern..MultiCharEqPattern$LT$C$GT$$u20$as$u20$core..str..pattern..Pattern$GT$13into_searcher17h8c15fbad87e5ebacE
	movq	-88(%rbp), %rdi
	.loc	19 706 13 is_stmt 0
	leaq	-72(%rbp), %rsi
	movl	$40, %edx
	callq	_memcpy
	movq	-80(%rbp), %rax
	.loc	19 707 10 is_stmt 1
	addq	$96, %rsp
	popq	%rbp
	retq
Ltmp608:
Lfunc_end76:
	.cfi_endproc

	.p2align	4, 0x90
__ZN49_$LT$isize$u20$as$u20$core..iter..range..Step$GT$17forward_unchecked17h35d03d576ea37c9dE:
Lfunc_begin77:
	.file	43 "/rustc/2c8cc343237b8f7d5a3c3703e3a87f2eb2c54a74/library/core/src/iter" "range.rs"
	.loc	43 189 0
	.cfi_startproc
	pushq	%rbp
	.cfi_def_cfa_offset 16
	.cfi_offset %rbp, -16
	movq	%rsp, %rbp
	.cfi_def_cfa_register %rbp
	subq	$40, %rsp
	movq	%rdi, -40(%rbp)
	movq	%rsi, -32(%rbp)
Ltmp609:
	.loc	43 191 22 prologue_end
	movq	%rdi, -24(%rbp)
	.loc	43 191 42 is_stmt 0
	movq	%rsi, -16(%rbp)
Ltmp610:
	.file	44 "/rustc/2c8cc343237b8f7d5a3c3703e3a87f2eb2c54a74/library/core/src/num" "int_macros.rs"
	.loc	44 460 22 is_stmt 1
	addq	%rsi, %rdi
	movq	%rdi, -8(%rbp)
	movq	-8(%rbp), %rax
Ltmp611:
	.loc	43 192 10
	addq	$40, %rsp
	popq	%rbp
	retq
Ltmp612:
Lfunc_end77:
	.cfi_endproc

	.globl	__ZN4core13const_closure60ConstFnMutClosure$LT$$RF$mut$u20$CapturedData$C$Function$GT$3new17h85e2b046142affcaE
	.p2align	4, 0x90
__ZN4core13const_closure60ConstFnMutClosure$LT$$RF$mut$u20$CapturedData$C$Function$GT$3new17h85e2b046142affcaE:
Lfunc_begin78:
	.loc	33 35 0
	.cfi_startproc
	pushq	%rbp
	.cfi_def_cfa_offset 16
	.cfi_offset %rbp, -16
	movq	%rsp, %rbp
	.cfi_def_cfa_register %rbp
	subq	$24, %rsp
	movq	%rdi, -16(%rbp)
Ltmp613:
	.loc	33 42 9 prologue_end
	movq	%rdi, -24(%rbp)
	.loc	33 43 6
	movq	-24(%rbp), %rax
	addq	$24, %rsp
	popq	%rbp
	retq
Ltmp614:
Lfunc_end78:
	.cfi_endproc

	.globl	__ZN4core13const_closure60ConstFnMutClosure$LT$$RF$mut$u20$CapturedData$C$Function$GT$3new17h877797b6a47ed375E
	.p2align	4, 0x90
__ZN4core13const_closure60ConstFnMutClosure$LT$$RF$mut$u20$CapturedData$C$Function$GT$3new17h877797b6a47ed375E:
Lfunc_begin79:
	.loc	33 35 0
	.cfi_startproc
	pushq	%rbp
	.cfi_def_cfa_offset 16
	.cfi_offset %rbp, -16
	movq	%rsp, %rbp
	.cfi_def_cfa_register %rbp
	subq	$24, %rsp
	movq	%rdi, -16(%rbp)
Ltmp615:
	.loc	33 42 9 prologue_end
	movq	%rdi, -24(%rbp)
	.loc	33 43 6
	movq	-24(%rbp), %rax
	addq	$24, %rsp
	popq	%rbp
	retq
Ltmp616:
Lfunc_end79:
	.cfi_endproc

	.globl	__ZN4core3cmp3Ord3min17h65c9030fb88d9ce3E
	.p2align	4, 0x90
__ZN4core3cmp3Ord3min17h65c9030fb88d9ce3E:
Lfunc_begin80:
	.loc	5 826 0
	.cfi_startproc
	pushq	%rbp
	.cfi_def_cfa_offset 16
	.cfi_offset %rbp, -16
	movq	%rsp, %rbp
	.cfi_def_cfa_register %rbp
	subq	$16, %rsp
	movq	%rdi, -16(%rbp)
	movq	%rsi, -8(%rbp)
Ltmp617:
	.loc	5 833 13 prologue_end
	callq	__ZN4core3cmp6min_by17hafed8255140713f1E
	.loc	5 841 6
	addq	$16, %rsp
	popq	%rbp
	retq
Ltmp618:
Lfunc_end80:
	.cfi_endproc

	.globl	__ZN4core3cmp3min17h1e92656b3b5a8bd1E
	.p2align	4, 0x90
__ZN4core3cmp3min17h1e92656b3b5a8bd1E:
Lfunc_begin81:
	.loc	5 1184 0
	.cfi_startproc
	pushq	%rbp
	.cfi_def_cfa_offset 16
	.cfi_offset %rbp, -16
	movq	%rsp, %rbp
	.cfi_def_cfa_register %rbp
	subq	$16, %rsp
	movq	%rdi, -16(%rbp)
	movq	%rsi, -8(%rbp)
Ltmp619:
	.loc	5 1185 5 prologue_end
	callq	__ZN4core3cmp3Ord3min17h65c9030fb88d9ce3E
	.loc	5 1186 2
	addq	$16, %rsp
	popq	%rbp
	retq
Ltmp620:
Lfunc_end81:
	.cfi_endproc

	.p2align	4, 0x90
__ZN4core3cmp5impls54_$LT$impl$u20$core..cmp..PartialEq$u20$for$u20$u16$GT$2eq17hd774e75639105f08E:
Lfunc_begin82:
	.loc	5 1352 0
	.cfi_startproc
	pushq	%rbp
	.cfi_def_cfa_offset 16
	.cfi_offset %rbp, -16
	movq	%rsp, %rbp
	.cfi_def_cfa_register %rbp
	subq	$16, %rsp
	movq	%rdi, -16(%rbp)
	movq	%rsi, -8(%rbp)
Ltmp621:
	.loc	5 1352 52 prologue_end
	movw	(%rdi), %ax
	cmpw	(%rsi), %ax
	sete	%al
	.loc	5 1352 73 is_stmt 0
	andb	$1, %al
	movzbl	%al, %eax
	addq	$16, %rsp
	popq	%rbp
	retq
Ltmp622:
Lfunc_end82:
	.cfi_endproc

	.p2align	4, 0x90
__ZN4core3cmp5impls54_$LT$impl$u20$core..cmp..PartialEq$u20$for$u20$u32$GT$2eq17h8e86651ff1f60324E:
Lfunc_begin83:
	.loc	5 1352 0 is_stmt 1
	.cfi_startproc
	pushq	%rbp
	.cfi_def_cfa_offset 16
	.cfi_offset %rbp, -16
	movq	%rsp, %rbp
	.cfi_def_cfa_register %rbp
	subq	$16, %rsp
	movq	%rdi, -16(%rbp)
	movq	%rsi, -8(%rbp)
Ltmp623:
	.loc	5 1352 52 prologue_end
	movl	(%rdi), %eax
	cmpl	(%rsi), %eax
	sete	%al
	.loc	5 1352 73 is_stmt 0
	andb	$1, %al
	movzbl	%al, %eax
	addq	$16, %rsp
	popq	%rbp
	retq
Ltmp624:
Lfunc_end83:
	.cfi_endproc

	.p2align	4, 0x90
__ZN4core3cmp5impls56_$LT$impl$u20$core..cmp..PartialOrd$u20$for$u20$char$GT$2le17h9e688f09f852c842E:
Lfunc_begin84:
	.loc	5 1443 0 is_stmt 1
	.cfi_startproc
	pushq	%rbp
	.cfi_def_cfa_offset 16
	.cfi_offset %rbp, -16
	movq	%rsp, %rbp
	.cfi_def_cfa_register %rbp
	subq	$16, %rsp
	movq	%rdi, -16(%rbp)
	movq	%rsi, -8(%rbp)
Ltmp625:
	.loc	5 1443 52 prologue_end
	movl	(%rdi), %eax
	cmpl	(%rsi), %eax
	setbe	%al
	.loc	5 1443 73 is_stmt 0
	andb	$1, %al
	movzbl	%al, %eax
	addq	$16, %rsp
	popq	%rbp
	retq
Ltmp626:
Lfunc_end84:
	.cfi_endproc

	.p2align	4, 0x90
__ZN4core3cmp5impls56_$LT$impl$u20$core..cmp..PartialOrd$u20$for$u20$char$GT$2lt17he4312bc1366614ddE:
Lfunc_begin85:
	.loc	5 1441 0 is_stmt 1
	.cfi_startproc
	pushq	%rbp
	.cfi_def_cfa_offset 16
	.cfi_offset %rbp, -16
	movq	%rsp, %rbp
	.cfi_def_cfa_register %rbp
	subq	$16, %rsp
	movq	%rdi, -16(%rbp)
	movq	%rsi, -8(%rbp)
Ltmp627:
	.loc	5 1441 52 prologue_end
	movl	(%rdi), %eax
	cmpl	(%rsi), %eax
	setb	%al
	.loc	5 1441 72 is_stmt 0
	andb	$1, %al
	movzbl	%al, %eax
	addq	$16, %rsp
	popq	%rbp
	retq
Ltmp628:
Lfunc_end85:
	.cfi_endproc

	.p2align	4, 0x90
__ZN4core3cmp5impls57_$LT$impl$u20$core..cmp..PartialOrd$u20$for$u20$isize$GT$2lt17h48ec13b0a190a906E:
Lfunc_begin86:
	.loc	5 1441 0 is_stmt 1
	.cfi_startproc
	pushq	%rbp
	.cfi_def_cfa_offset 16
	.cfi_offset %rbp, -16
	movq	%rsp, %rbp
	.cfi_def_cfa_register %rbp
	subq	$16, %rsp
	movq	%rdi, -16(%rbp)
	movq	%rsi, -8(%rbp)
Ltmp629:
	.loc	5 1441 52 prologue_end
	movq	(%rdi), %rax
	cmpq	(%rsi), %rax
	setl	%al
	.loc	5 1441 72 is_stmt 0
	andb	$1, %al
	movzbl	%al, %eax
	addq	$16, %rsp
	popq	%rbp
	retq
Ltmp630:
Lfunc_end86:
	.cfi_endproc

	.globl	__ZN4core3cmp5impls69_$LT$impl$u20$core..cmp..PartialEq$LT$$RF$B$GT$$u20$for$u20$$RF$A$GT$2eq17h4b57d21b940b36d8E
	.p2align	4, 0x90
__ZN4core3cmp5impls69_$LT$impl$u20$core..cmp..PartialEq$LT$$RF$B$GT$$u20$for$u20$$RF$A$GT$2eq17h4b57d21b940b36d8E:
Lfunc_begin87:
	.loc	5 1530 0 is_stmt 1
	.cfi_startproc
	pushq	%rbp
	.cfi_def_cfa_offset 16
	.cfi_offset %rbp, -16
	movq	%rsp, %rbp
	.cfi_def_cfa_register %rbp
	subq	$16, %rsp
	movq	%rsi, %rax
	movq	%rdi, %rcx
	movq	%rcx, -16(%rbp)
	movq	%rax, -8(%rbp)
Ltmp631:
	.loc	5 1531 27 prologue_end
	movq	(%rcx), %rdi
	movq	8(%rcx), %rsi
	.loc	5 1531 34 is_stmt 0
	movq	(%rax), %rdx
	movq	8(%rax), %rcx
	.loc	5 1531 13
	callq	__ZN4core3str6traits54_$LT$impl$u20$core..cmp..PartialEq$u20$for$u20$str$GT$2eq17ha62a5fddc25eea85E
	.loc	5 1532 10 is_stmt 1
	andb	$1, %al
	movzbl	%al, %eax
	addq	$16, %rsp
	popq	%rbp
	retq
Ltmp632:
Lfunc_end87:
	.cfi_endproc

	.globl	__ZN4core3cmp5impls69_$LT$impl$u20$core..cmp..PartialEq$LT$$RF$B$GT$$u20$for$u20$$RF$A$GT$2eq17h6190ddf51b7b15a4E
	.p2align	4, 0x90
__ZN4core3cmp5impls69_$LT$impl$u20$core..cmp..PartialEq$LT$$RF$B$GT$$u20$for$u20$$RF$A$GT$2eq17h6190ddf51b7b15a4E:
Lfunc_begin88:
	.loc	5 1530 0
	.cfi_startproc
	pushq	%rbp
	.cfi_def_cfa_offset 16
	.cfi_offset %rbp, -16
	movq	%rsp, %rbp
	.cfi_def_cfa_register %rbp
	subq	$16, %rsp
	movq	%rdi, -16(%rbp)
	movq	%rsi, -8(%rbp)
Ltmp633:
	.loc	5 1531 27 prologue_end
	movq	(%rdi), %rdi
	.loc	5 1531 34 is_stmt 0
	movq	(%rsi), %rsi
	.loc	5 1531 13
	callq	__ZN68_$LT$std..net..ip_addr..Ipv6Addr$u20$as$u20$core..cmp..PartialEq$GT$2eq17hd7275e0a0a9cd3adE
	.loc	5 1532 10 is_stmt 1
	andb	$1, %al
	movzbl	%al, %eax
	addq	$16, %rsp
	popq	%rbp
	retq
Ltmp634:
Lfunc_end88:
	.cfi_endproc

	.globl	__ZN4core3cmp5impls69_$LT$impl$u20$core..cmp..PartialEq$LT$$RF$B$GT$$u20$for$u20$$RF$A$GT$2eq17h963da472bea8fde8E
	.p2align	4, 0x90
__ZN4core3cmp5impls69_$LT$impl$u20$core..cmp..PartialEq$LT$$RF$B$GT$$u20$for$u20$$RF$A$GT$2eq17h963da472bea8fde8E:
Lfunc_begin89:
	.loc	5 1530 0
	.cfi_startproc
	pushq	%rbp
	.cfi_def_cfa_offset 16
	.cfi_offset %rbp, -16
	movq	%rsp, %rbp
	.cfi_def_cfa_register %rbp
	subq	$16, %rsp
	movq	%rdi, -16(%rbp)
	movq	%rsi, -8(%rbp)
Ltmp635:
	.loc	5 1531 27 prologue_end
	movq	(%rdi), %rdi
	.loc	5 1531 34 is_stmt 0
	movq	(%rsi), %rsi
	.loc	5 1531 13
	callq	__ZN4core3cmp5impls69_$LT$impl$u20$core..cmp..PartialEq$LT$$RF$B$GT$$u20$for$u20$$RF$A$GT$2eq17h4b57d21b940b36d8E
	.loc	5 1532 10 is_stmt 1
	andb	$1, %al
	movzbl	%al, %eax
	addq	$16, %rsp
	popq	%rbp
	retq
Ltmp636:
Lfunc_end89:
	.cfi_endproc

	.globl	__ZN4core3cmp5impls69_$LT$impl$u20$core..cmp..PartialEq$LT$$RF$B$GT$$u20$for$u20$$RF$A$GT$2eq17hb65dc4ba441684a0E
	.p2align	4, 0x90
__ZN4core3cmp5impls69_$LT$impl$u20$core..cmp..PartialEq$LT$$RF$B$GT$$u20$for$u20$$RF$A$GT$2eq17hb65dc4ba441684a0E:
Lfunc_begin90:
	.loc	5 1530 0
	.cfi_startproc
	pushq	%rbp
	.cfi_def_cfa_offset 16
	.cfi_offset %rbp, -16
	movq	%rsp, %rbp
	.cfi_def_cfa_register %rbp
	subq	$16, %rsp
	movq	%rsi, %rax
	movq	%rdi, -16(%rbp)
	movq	%rax, -8(%rbp)
Ltmp637:
	.loc	5 1531 27 prologue_end
	movq	(%rdi), %rdi
	.loc	5 1531 34 is_stmt 0
	movq	(%rax), %rsi
	movq	8(%rax), %rdx
	.loc	5 1531 13
	callq	__ZN73_$LT$alloc..string..String$u20$as$u20$core..cmp..PartialEq$LT$str$GT$$GT$2eq17haaf3cdb9f4544000E
	.loc	5 1532 10 is_stmt 1
	andb	$1, %al
	movzbl	%al, %eax
	addq	$16, %rsp
	popq	%rbp
	retq
Ltmp638:
Lfunc_end90:
	.cfi_endproc

	.globl	__ZN4core3cmp5impls69_$LT$impl$u20$core..cmp..PartialEq$LT$$RF$B$GT$$u20$for$u20$$RF$A$GT$2eq17hc90bd579932284ceE
	.p2align	4, 0x90
__ZN4core3cmp5impls69_$LT$impl$u20$core..cmp..PartialEq$LT$$RF$B$GT$$u20$for$u20$$RF$A$GT$2eq17hc90bd579932284ceE:
Lfunc_begin91:
	.loc	5 1530 0
	.cfi_startproc
	pushq	%rbp
	.cfi_def_cfa_offset 16
	.cfi_offset %rbp, -16
	movq	%rsp, %rbp
	.cfi_def_cfa_register %rbp
	subq	$16, %rsp
	movq	%rdi, -16(%rbp)
	movq	%rsi, -8(%rbp)
Ltmp639:
	.loc	5 1531 27 prologue_end
	movq	(%rdi), %rdi
	.loc	5 1531 34 is_stmt 0
	movq	(%rsi), %rsi
	.loc	5 1531 13
	callq	__ZN68_$LT$std..net..ip_addr..Ipv4Addr$u20$as$u20$core..cmp..PartialEq$GT$2eq17h89fd2e20039b0205E
	.loc	5 1532 10 is_stmt 1
	andb	$1, %al
	movzbl	%al, %eax
	addq	$16, %rsp
	popq	%rbp
	retq
Ltmp640:
Lfunc_end91:
	.cfi_endproc

	.globl	__ZN4core3cmp5impls69_$LT$impl$u20$core..cmp..PartialEq$LT$$RF$B$GT$$u20$for$u20$$RF$A$GT$2eq17he03b6cd275497242E
	.p2align	4, 0x90
__ZN4core3cmp5impls69_$LT$impl$u20$core..cmp..PartialEq$LT$$RF$B$GT$$u20$for$u20$$RF$A$GT$2eq17he03b6cd275497242E:
Lfunc_begin92:
	.loc	5 1530 0
	.cfi_startproc
	pushq	%rbp
	.cfi_def_cfa_offset 16
	.cfi_offset %rbp, -16
	movq	%rsp, %rbp
	.cfi_def_cfa_register %rbp
	subq	$16, %rsp
	movq	%rdi, -16(%rbp)
	movq	%rsi, -8(%rbp)
Ltmp641:
	.loc	5 1531 27 prologue_end
	movq	(%rdi), %rdi
	.loc	5 1531 34 is_stmt 0
	movq	(%rsi), %rsi
	.loc	5 1531 13
	callq	__ZN62_$LT$alloc..string..String$u20$as$u20$core..cmp..PartialEq$GT$2eq17h1f2a2a3f385e11f5E
	.loc	5 1532 10 is_stmt 1
	andb	$1, %al
	movzbl	%al, %eax
	addq	$16, %rsp
	popq	%rbp
	retq
Ltmp642:
Lfunc_end92:
	.cfi_endproc

	.globl	__ZN4core3cmp5impls69_$LT$impl$u20$core..cmp..PartialEq$LT$$RF$B$GT$$u20$for$u20$$RF$A$GT$2ne17hb8d35297209bf747E
	.p2align	4, 0x90
__ZN4core3cmp5impls69_$LT$impl$u20$core..cmp..PartialEq$LT$$RF$B$GT$$u20$for$u20$$RF$A$GT$2ne17hb8d35297209bf747E:
Lfunc_begin93:
	.loc	5 1534 0
	.cfi_startproc
	pushq	%rbp
	.cfi_def_cfa_offset 16
	.cfi_offset %rbp, -16
	movq	%rsp, %rbp
	.cfi_def_cfa_register %rbp
	subq	$16, %rsp
	movq	%rdi, -16(%rbp)
	movq	%rsi, -8(%rbp)
Ltmp643:
	.loc	5 1535 27 prologue_end
	movq	(%rdi), %rdi
	.loc	5 1535 34 is_stmt 0
	movq	(%rsi), %rsi
	.loc	5 1535 13
	callq	__ZN62_$LT$alloc..string..String$u20$as$u20$core..cmp..PartialEq$GT$2ne17hfff1680acdf129eaE
	.loc	5 1536 10 is_stmt 1
	andb	$1, %al
	movzbl	%al, %eax
	addq	$16, %rsp
	popq	%rbp
	retq
Ltmp644:
Lfunc_end93:
	.cfi_endproc

	.globl	__ZN4core3cmp5impls69_$LT$impl$u20$core..cmp..PartialEq$LT$$RF$B$GT$$u20$for$u20$$RF$A$GT$2ne17hd8acad1d7ece781bE
	.p2align	4, 0x90
__ZN4core3cmp5impls69_$LT$impl$u20$core..cmp..PartialEq$LT$$RF$B$GT$$u20$for$u20$$RF$A$GT$2ne17hd8acad1d7ece781bE:
Lfunc_begin94:
	.loc	5 1534 0
	.cfi_startproc
	pushq	%rbp
	.cfi_def_cfa_offset 16
	.cfi_offset %rbp, -16
	movq	%rsp, %rbp
	.cfi_def_cfa_register %rbp
	subq	$16, %rsp
	movq	%rsi, %rax
	movq	%rdi, %rcx
	movq	%rcx, -16(%rbp)
	movq	%rax, -8(%rbp)
Ltmp645:
	.loc	5 1535 27 prologue_end
	movq	(%rcx), %rdi
	movq	8(%rcx), %rsi
	.loc	5 1535 34 is_stmt 0
	movq	(%rax), %rdx
	movq	8(%rax), %rcx
	.loc	5 1535 13
	callq	__ZN4core3str6traits54_$LT$impl$u20$core..cmp..PartialEq$u20$for$u20$str$GT$2ne17h33461bc7ae0141b4E
	.loc	5 1536 10 is_stmt 1
	andb	$1, %al
	movzbl	%al, %eax
	addq	$16, %rsp
	popq	%rbp
	retq
Ltmp646:
Lfunc_end94:
	.cfi_endproc

	.globl	__ZN4core3cmp9PartialEq2ne17h34f1c4f5fd789ae7E
	.p2align	4, 0x90
__ZN4core3cmp9PartialEq2ne17h34f1c4f5fd789ae7E:
Lfunc_begin95:
	.loc	5 227 0
	.cfi_startproc
	pushq	%rbp
	.cfi_def_cfa_offset 16
	.cfi_offset %rbp, -16
	movq	%rsp, %rbp
	.cfi_def_cfa_register %rbp
	subq	$16, %rsp
	movq	%rdi, -16(%rbp)
	movq	%rsi, -8(%rbp)
Ltmp647:
	.loc	5 228 10 prologue_end
	callq	__ZN70_$LT$core..option..Option$LT$T$GT$$u20$as$u20$core..cmp..PartialEq$GT$2eq17h734b2e9d08ed7675E
	.loc	5 228 9 is_stmt 0
	xorb	$-1, %al
	.loc	5 229 6 is_stmt 1
	andb	$1, %al
	movzbl	%al, %eax
	addq	$16, %rsp
	popq	%rbp
	retq
Ltmp648:
Lfunc_end95:
	.cfi_endproc

	.globl	__ZN4core3cmp9PartialEq2ne17h48f15f93cc44efc3E
	.p2align	4, 0x90
__ZN4core3cmp9PartialEq2ne17h48f15f93cc44efc3E:
Lfunc_begin96:
	.loc	5 227 0
	.cfi_startproc
	pushq	%rbp
	.cfi_def_cfa_offset 16
	.cfi_offset %rbp, -16
	movq	%rsp, %rbp
	.cfi_def_cfa_register %rbp
	subq	$16, %rsp
	movq	%rdi, -16(%rbp)
	movq	%rsi, -8(%rbp)
Ltmp649:
	.loc	5 228 10 prologue_end
	callq	__ZN64_$LT$url..host..HostInternal$u20$as$u20$core..cmp..PartialEq$GT$2eq17h086694ddac18f392E
	.loc	5 228 9 is_stmt 0
	xorb	$-1, %al
	.loc	5 229 6 is_stmt 1
	andb	$1, %al
	movzbl	%al, %eax
	addq	$16, %rsp
	popq	%rbp
	retq
Ltmp650:
Lfunc_end96:
	.cfi_endproc

	.globl	__ZN4core3cmp9PartialEq2ne17h78f5361f2fdd9211E
	.p2align	4, 0x90
__ZN4core3cmp9PartialEq2ne17h78f5361f2fdd9211E:
Lfunc_begin97:
	.loc	5 227 0
	.cfi_startproc
	pushq	%rbp
	.cfi_def_cfa_offset 16
	.cfi_offset %rbp, -16
	movq	%rsp, %rbp
	.cfi_def_cfa_register %rbp
	subq	$16, %rsp
	movq	%rdi, -16(%rbp)
	movq	%rsi, -8(%rbp)
Ltmp651:
	.loc	5 228 10 prologue_end
	callq	__ZN70_$LT$core..option..Option$LT$T$GT$$u20$as$u20$core..cmp..PartialEq$GT$2eq17hf67074502968098bE
	.loc	5 228 9 is_stmt 0
	xorb	$-1, %al
	.loc	5 229 6 is_stmt 1
	andb	$1, %al
	movzbl	%al, %eax
	addq	$16, %rsp
	popq	%rbp
	retq
Ltmp652:
Lfunc_end97:
	.cfi_endproc

	.globl	__ZN4core3cmp9PartialEq2ne17hc3d832ee13fe0edeE
	.p2align	4, 0x90
__ZN4core3cmp9PartialEq2ne17hc3d832ee13fe0edeE:
Lfunc_begin98:
	.loc	5 227 0
	.cfi_startproc
	pushq	%rbp
	.cfi_def_cfa_offset 16
	.cfi_offset %rbp, -16
	movq	%rsp, %rbp
	.cfi_def_cfa_register %rbp
	subq	$16, %rsp
	movq	%rdi, -16(%rbp)
	movq	%rsi, -8(%rbp)
Ltmp653:
	.loc	5 228 10 prologue_end
	callq	__ZN61_$LT$url..parser..Context$u20$as$u20$core..cmp..PartialEq$GT$2eq17h2f5ef73dc8c43291E
	.loc	5 228 9 is_stmt 0
	xorb	$-1, %al
	.loc	5 229 6 is_stmt 1
	andb	$1, %al
	movzbl	%al, %eax
	addq	$16, %rsp
	popq	%rbp
	retq
Ltmp654:
Lfunc_end98:
	.cfi_endproc

	.globl	__ZN4core3cmp9PartialEq2ne17hdaf8349a70c21d91E
	.p2align	4, 0x90
__ZN4core3cmp9PartialEq2ne17hdaf8349a70c21d91E:
Lfunc_begin99:
	.loc	5 227 0
	.cfi_startproc
	pushq	%rbp
	.cfi_def_cfa_offset 16
	.cfi_offset %rbp, -16
	movq	%rsp, %rbp
	.cfi_def_cfa_register %rbp
	subq	$16, %rsp
	movq	%rdi, -16(%rbp)
	movq	%rsi, -8(%rbp)
Ltmp655:
	.loc	5 228 10 prologue_end
	callq	__ZN70_$LT$core..option..Option$LT$T$GT$$u20$as$u20$core..cmp..PartialEq$GT$2eq17hb18dc554c8730ebbE
	.loc	5 228 9 is_stmt 0
	xorb	$-1, %al
	.loc	5 229 6 is_stmt 1
	andb	$1, %al
	movzbl	%al, %eax
	addq	$16, %rsp
	popq	%rbp
	retq
Ltmp656:
Lfunc_end99:
	.cfi_endproc

	.globl	__ZN4core3cmp9PartialEq2ne17hffd3a0a7ea4436f9E
	.p2align	4, 0x90
__ZN4core3cmp9PartialEq2ne17hffd3a0a7ea4436f9E:
Lfunc_begin100:
	.loc	5 227 0
	.cfi_startproc
	pushq	%rbp
	.cfi_def_cfa_offset 16
	.cfi_offset %rbp, -16
	movq	%rsp, %rbp
	.cfi_def_cfa_register %rbp
	subq	$16, %rsp
	movq	%rdi, -16(%rbp)
	movq	%rsi, -8(%rbp)
Ltmp657:
	.loc	5 228 10 prologue_end
	callq	__ZN70_$LT$core..option..Option$LT$T$GT$$u20$as$u20$core..cmp..PartialEq$GT$2eq17h6dcbbe2718daf940E
	.loc	5 228 9 is_stmt 0
	xorb	$-1, %al
	.loc	5 229 6 is_stmt 1
	andb	$1, %al
	movzbl	%al, %eax
	addq	$16, %rsp
	popq	%rbp
	retq
Ltmp658:
Lfunc_end100:
	.cfi_endproc

	.globl	__ZN4core3fmt10ArgumentV111new_display17h03ce242094cad626E
	.p2align	4, 0x90
__ZN4core3fmt10ArgumentV111new_display17h03ce242094cad626E:
Lfunc_begin101:
	.loc	41 327 0
	.cfi_startproc
	pushq	%rbp
	.cfi_def_cfa_offset 16
	.cfi_offset %rbp, -16
	movq	%rsp, %rbp
	.cfi_def_cfa_register %rbp
	subq	$56, %rsp
	movq	%rdi, -40(%rbp)
Ltmp659:
	.loc	41 328 23 prologue_end
	movq	%rdi, -32(%rbp)
	.loc	41 328 26 is_stmt 0
	leaq	__ZN63_$LT$url..host..Host$LT$S$GT$$u20$as$u20$core..fmt..Display$GT$3fmt17h77bda9cb8228ad07E(%rip), %rax
	movq	%rax, -24(%rbp)
Ltmp660:
	.loc	41 347 42 is_stmt 1
	movq	%rax, -16(%rbp)
	movq	-16(%rbp), %rax
	.loc	41 347 68 is_stmt 0
	movq	%rdi, -8(%rbp)
	movq	-8(%rbp), %rcx
	.loc	41 347 18
	movq	%rcx, -56(%rbp)
	movq	%rax, -48(%rbp)
Ltmp661:
	.loc	41 329 10 is_stmt 1
	movq	-56(%rbp), %rax
	movq	-48(%rbp), %rdx
	addq	$56, %rsp
	popq	%rbp
	retq
Ltmp662:
Lfunc_end101:
	.cfi_endproc

	.globl	__ZN4core3fmt10ArgumentV111new_display17h2a34a99b4b03a2e3E
	.p2align	4, 0x90
__ZN4core3fmt10ArgumentV111new_display17h2a34a99b4b03a2e3E:
Lfunc_begin102:
	.loc	41 327 0
	.cfi_startproc
	pushq	%rbp
	.cfi_def_cfa_offset 16
	.cfi_offset %rbp, -16
	movq	%rsp, %rbp
	.cfi_def_cfa_register %rbp
	subq	$56, %rsp
	movq	%rdi, -40(%rbp)
Ltmp663:
	.loc	41 328 23 prologue_end
	movq	%rdi, -32(%rbp)
	.loc	41 328 26 is_stmt 0
	leaq	__ZN44_$LT$$RF$T$u20$as$u20$core..fmt..Display$GT$3fmt17hc6eb4a2408485204E(%rip), %rax
	movq	%rax, -24(%rbp)
Ltmp664:
	.loc	41 347 42 is_stmt 1
	movq	%rax, -16(%rbp)
	movq	-16(%rbp), %rax
	.loc	41 347 68 is_stmt 0
	movq	%rdi, -8(%rbp)
	movq	-8(%rbp), %rcx
	.loc	41 347 18
	movq	%rcx, -56(%rbp)
	movq	%rax, -48(%rbp)
Ltmp665:
	.loc	41 329 10 is_stmt 1
	movq	-56(%rbp), %rax
	movq	-48(%rbp), %rdx
	addq	$56, %rsp
	popq	%rbp
	retq
Ltmp666:
Lfunc_end102:
	.cfi_endproc

	.globl	__ZN4core3fmt10ArgumentV111new_display17h99b558054714ff1fE
	.p2align	4, 0x90
__ZN4core3fmt10ArgumentV111new_display17h99b558054714ff1fE:
Lfunc_begin103:
	.loc	41 327 0
	.cfi_startproc
	pushq	%rbp
	.cfi_def_cfa_offset 16
	.cfi_offset %rbp, -16
	movq	%rsp, %rbp
	.cfi_def_cfa_register %rbp
	subq	$56, %rsp
	movq	%rdi, -40(%rbp)
Ltmp667:
	.loc	41 328 23 prologue_end
	movq	%rdi, -32(%rbp)
	.loc	41 328 26 is_stmt 0
	leaq	__ZN44_$LT$$RF$T$u20$as$u20$core..fmt..Display$GT$3fmt17he294df756dfe1414E(%rip), %rax
	movq	%rax, -24(%rbp)
Ltmp668:
	.loc	41 347 42 is_stmt 1
	movq	%rax, -16(%rbp)
	movq	-16(%rbp), %rax
	.loc	41 347 68 is_stmt 0
	movq	%rdi, -8(%rbp)
	movq	-8(%rbp), %rcx
	.loc	41 347 18
	movq	%rcx, -56(%rbp)
	movq	%rax, -48(%rbp)
Ltmp669:
	.loc	41 329 10 is_stmt 1
	movq	-56(%rbp), %rax
	movq	-48(%rbp), %rdx
	addq	$56, %rsp
	popq	%rbp
	retq
Ltmp670:
Lfunc_end103:
	.cfi_endproc

	.globl	__ZN4core3fmt10ArgumentV111new_display17hacb0678d23305f8cE
	.p2align	4, 0x90
__ZN4core3fmt10ArgumentV111new_display17hacb0678d23305f8cE:
Lfunc_begin104:
	.loc	41 327 0
	.cfi_startproc
	pushq	%rbp
	.cfi_def_cfa_offset 16
	.cfi_offset %rbp, -16
	movq	%rsp, %rbp
	.cfi_def_cfa_register %rbp
	subq	$56, %rsp
	movq	%rdi, -40(%rbp)
Ltmp671:
	.loc	41 328 23 prologue_end
	movq	%rdi, -32(%rbp)
	.loc	41 328 26 is_stmt 0
	leaq	__ZN44_$LT$$RF$T$u20$as$u20$core..fmt..Display$GT$3fmt17hfb8c9755730a8477E(%rip), %rax
	movq	%rax, -24(%rbp)
Ltmp672:
	.loc	41 347 42 is_stmt 1
	movq	%rax, -16(%rbp)
	movq	-16(%rbp), %rax
	.loc	41 347 68 is_stmt 0
	movq	%rdi, -8(%rbp)
	movq	-8(%rbp), %rcx
	.loc	41 347 18
	movq	%rcx, -56(%rbp)
	movq	%rax, -48(%rbp)
Ltmp673:
	.loc	41 329 10 is_stmt 1
	movq	-56(%rbp), %rax
	movq	-48(%rbp), %rdx
	addq	$56, %rsp
	popq	%rbp
	retq
Ltmp674:
Lfunc_end104:
	.cfi_endproc

	.globl	__ZN4core3fmt10ArgumentV111new_display17he531baf49e5357a4E
	.p2align	4, 0x90
__ZN4core3fmt10ArgumentV111new_display17he531baf49e5357a4E:
Lfunc_begin105:
	.loc	41 327 0
	.cfi_startproc
	pushq	%rbp
	.cfi_def_cfa_offset 16
	.cfi_offset %rbp, -16
	movq	%rsp, %rbp
	.cfi_def_cfa_register %rbp
	subq	$56, %rsp
	movq	%rdi, -40(%rbp)
Ltmp675:
	.loc	41 328 23 prologue_end
	movq	%rdi, -32(%rbp)
	.loc	41 328 26 is_stmt 0
	movq	__ZN4core3fmt3num3imp52_$LT$impl$u20$core..fmt..Display$u20$for$u20$u16$GT$3fmt17h7d8f7431eaeff3c6E@GOTPCREL(%rip), %rax
	movq	%rax, -24(%rbp)
Ltmp676:
	.loc	41 347 42 is_stmt 1
	movq	%rax, -16(%rbp)
	movq	-16(%rbp), %rax
	.loc	41 347 68 is_stmt 0
	movq	%rdi, -8(%rbp)
	movq	-8(%rbp), %rcx
	.loc	41 347 18
	movq	%rcx, -56(%rbp)
	movq	%rax, -48(%rbp)
Ltmp677:
	.loc	41 329 10 is_stmt 1
	movq	-56(%rbp), %rax
	movq	-48(%rbp), %rdx
	addq	$56, %rsp
	popq	%rbp
	retq
Ltmp678:
Lfunc_end105:
	.cfi_endproc

	.globl	__ZN4core3fmt10ArgumentV113new_lower_hex17hec949b822d51aa0cE
	.p2align	4, 0x90
__ZN4core3fmt10ArgumentV113new_lower_hex17hec949b822d51aa0cE:
Lfunc_begin106:
	.loc	41 327 0
	.cfi_startproc
	pushq	%rbp
	.cfi_def_cfa_offset 16
	.cfi_offset %rbp, -16
	movq	%rsp, %rbp
	.cfi_def_cfa_register %rbp
	subq	$56, %rsp
	movq	%rdi, -40(%rbp)
Ltmp679:
	.loc	41 328 23 prologue_end
	movq	%rdi, -32(%rbp)
	.loc	41 328 26 is_stmt 0
	movq	__ZN4core3fmt3num53_$LT$impl$u20$core..fmt..LowerHex$u20$for$u20$u16$GT$3fmt17he1af57f7bbe2599fE@GOTPCREL(%rip), %rax
	movq	%rax, -24(%rbp)
Ltmp680:
	.loc	41 347 42 is_stmt 1
	movq	%rax, -16(%rbp)
	movq	-16(%rbp), %rax
	.loc	41 347 68 is_stmt 0
	movq	%rdi, -8(%rbp)
	movq	-8(%rbp), %rcx
	.loc	41 347 18
	movq	%rcx, -56(%rbp)
	movq	%rax, -48(%rbp)
Ltmp681:
	.loc	41 329 10 is_stmt 1
	movq	-56(%rbp), %rax
	movq	-48(%rbp), %rdx
	addq	$56, %rsp
	popq	%rbp
	retq
Ltmp682:
Lfunc_end106:
	.cfi_endproc

	.globl	__ZN4core3fmt10ArgumentV19new_debug17h0390ae71f1caf773E
	.p2align	4, 0x90
__ZN4core3fmt10ArgumentV19new_debug17h0390ae71f1caf773E:
Lfunc_begin107:
	.loc	41 327 0
	.cfi_startproc
	pushq	%rbp
	.cfi_def_cfa_offset 16
	.cfi_offset %rbp, -16
	movq	%rsp, %rbp
	.cfi_def_cfa_register %rbp
	subq	$56, %rsp
	movq	%rdi, -40(%rbp)
Ltmp683:
	.loc	41 328 23 prologue_end
	movq	%rdi, -32(%rbp)
	.loc	41 328 26 is_stmt 0
	leaq	__ZN66_$LT$core..option..Option$LT$T$GT$$u20$as$u20$core..fmt..Debug$GT$3fmt17h5baed5bdd955b8a1E(%rip), %rax
	movq	%rax, -24(%rbp)
Ltmp684:
	.loc	41 347 42 is_stmt 1
	movq	%rax, -16(%rbp)
	movq	-16(%rbp), %rax
	.loc	41 347 68 is_stmt 0
	movq	%rdi, -8(%rbp)
	movq	-8(%rbp), %rcx
	.loc	41 347 18
	movq	%rcx, -56(%rbp)
	movq	%rax, -48(%rbp)
Ltmp685:
	.loc	41 329 10 is_stmt 1
	movq	-56(%rbp), %rax
	movq	-48(%rbp), %rdx
	addq	$56, %rsp
	popq	%rbp
	retq
Ltmp686:
Lfunc_end107:
	.cfi_endproc

	.globl	__ZN4core3fmt10ArgumentV19new_debug17h0f88ac103a41e25eE
	.p2align	4, 0x90
__ZN4core3fmt10ArgumentV19new_debug17h0f88ac103a41e25eE:
Lfunc_begin108:
	.loc	41 327 0
	.cfi_startproc
	pushq	%rbp
	.cfi_def_cfa_offset 16
	.cfi_offset %rbp, -16
	movq	%rsp, %rbp
	.cfi_def_cfa_register %rbp
	subq	$56, %rsp
	movq	%rdi, -40(%rbp)
Ltmp687:
	.loc	41 328 23 prologue_end
	movq	%rdi, -32(%rbp)
	.loc	41 328 26 is_stmt 0
	leaq	__ZN4core3fmt3num50_$LT$impl$u20$core..fmt..Debug$u20$for$u20$u32$GT$3fmt17h4b0cd3a9df6012a7E(%rip), %rax
	movq	%rax, -24(%rbp)
Ltmp688:
	.loc	41 347 42 is_stmt 1
	movq	%rax, -16(%rbp)
	movq	-16(%rbp), %rax
	.loc	41 347 68 is_stmt 0
	movq	%rdi, -8(%rbp)
	movq	-8(%rbp), %rcx
	.loc	41 347 18
	movq	%rcx, -56(%rbp)
	movq	%rax, -48(%rbp)
Ltmp689:
	.loc	41 329 10 is_stmt 1
	movq	-56(%rbp), %rax
	movq	-48(%rbp), %rdx
	addq	$56, %rsp
	popq	%rbp
	retq
Ltmp690:
Lfunc_end108:
	.cfi_endproc

	.globl	__ZN4core3fmt10ArgumentV19new_debug17h1cf37cabd99c7457E
	.p2align	4, 0x90
__ZN4core3fmt10ArgumentV19new_debug17h1cf37cabd99c7457E:
Lfunc_begin109:
	.loc	41 327 0
	.cfi_startproc
	pushq	%rbp
	.cfi_def_cfa_offset 16
	.cfi_offset %rbp, -16
	movq	%rsp, %rbp
	.cfi_def_cfa_register %rbp
	subq	$56, %rsp
	movq	%rdi, -40(%rbp)
Ltmp691:
	.loc	41 328 23 prologue_end
	movq	%rdi, -32(%rbp)
	.loc	41 328 26 is_stmt 0
	leaq	__ZN58_$LT$alloc..string..String$u20$as$u20$core..fmt..Debug$GT$3fmt17h99a12779bbb7e857E(%rip), %rax
	movq	%rax, -24(%rbp)
Ltmp692:
	.loc	41 347 42 is_stmt 1
	movq	%rax, -16(%rbp)
	movq	-16(%rbp), %rax
	.loc	41 347 68 is_stmt 0
	movq	%rdi, -8(%rbp)
	movq	-8(%rbp), %rcx
	.loc	41 347 18
	movq	%rcx, -56(%rbp)
	movq	%rax, -48(%rbp)
Ltmp693:
	.loc	41 329 10 is_stmt 1
	movq	-56(%rbp), %rax
	movq	-48(%rbp), %rdx
	addq	$56, %rsp
	popq	%rbp
	retq
Ltmp694:
Lfunc_end109:
	.cfi_endproc

	.globl	__ZN4core3fmt10ArgumentV19new_debug17h372afed3bdd41f4aE
	.p2align	4, 0x90
__ZN4core3fmt10ArgumentV19new_debug17h372afed3bdd41f4aE:
Lfunc_begin110:
	.loc	41 327 0
	.cfi_startproc
	pushq	%rbp
	.cfi_def_cfa_offset 16
	.cfi_offset %rbp, -16
	movq	%rsp, %rbp
	.cfi_def_cfa_register %rbp
	subq	$56, %rsp
	movq	%rdi, -40(%rbp)
Ltmp695:
	.loc	41 328 23 prologue_end
	movq	%rdi, -32(%rbp)
	.loc	41 328 26 is_stmt 0
	movq	__ZN42_$LT$$RF$T$u20$as$u20$core..fmt..Debug$GT$3fmt17heb133d3005e3e025E@GOTPCREL(%rip), %rax
	movq	%rax, -24(%rbp)
Ltmp696:
	.loc	41 347 42 is_stmt 1
	movq	%rax, -16(%rbp)
	movq	-16(%rbp), %rax
	.loc	41 347 68 is_stmt 0
	movq	%rdi, -8(%rbp)
	movq	-8(%rbp), %rcx
	.loc	41 347 18
	movq	%rcx, -56(%rbp)
	movq	%rax, -48(%rbp)
Ltmp697:
	.loc	41 329 10 is_stmt 1
	movq	-56(%rbp), %rax
	movq	-48(%rbp), %rdx
	addq	$56, %rsp
	popq	%rbp
	retq
Ltmp698:
Lfunc_end110:
	.cfi_endproc

	.globl	__ZN4core3fmt10ArgumentV19new_debug17h75da7c70039b817fE
	.p2align	4, 0x90
__ZN4core3fmt10ArgumentV19new_debug17h75da7c70039b817fE:
Lfunc_begin111:
	.loc	41 327 0
	.cfi_startproc
	pushq	%rbp
	.cfi_def_cfa_offset 16
	.cfi_offset %rbp, -16
	movq	%rsp, %rbp
	.cfi_def_cfa_register %rbp
	subq	$56, %rsp
	movq	%rdi, -40(%rbp)
Ltmp699:
	.loc	41 328 23 prologue_end
	movq	%rdi, -32(%rbp)
	.loc	41 328 26 is_stmt 0
	leaq	__ZN60_$LT$url..host..HostInternal$u20$as$u20$core..fmt..Debug$GT$3fmt17h54e1e67fd68ad0c4E(%rip), %rax
	movq	%rax, -24(%rbp)
Ltmp700:
	.loc	41 347 42 is_stmt 1
	movq	%rax, -16(%rbp)
	movq	-16(%rbp), %rax
	.loc	41 347 68 is_stmt 0
	movq	%rdi, -8(%rbp)
	movq	-8(%rbp), %rcx
	.loc	41 347 18
	movq	%rcx, -56(%rbp)
	movq	%rax, -48(%rbp)
Ltmp701:
	.loc	41 329 10 is_stmt 1
	movq	-56(%rbp), %rax
	movq	-48(%rbp), %rdx
	addq	$56, %rsp
	popq	%rbp
	retq
Ltmp702:
Lfunc_end111:
	.cfi_endproc

	.globl	__ZN4core3fmt10ArgumentV19new_debug17hb2eb251e66d77d18E
	.p2align	4, 0x90
__ZN4core3fmt10ArgumentV19new_debug17hb2eb251e66d77d18E:
Lfunc_begin112:
	.loc	41 327 0
	.cfi_startproc
	pushq	%rbp
	.cfi_def_cfa_offset 16
	.cfi_offset %rbp, -16
	movq	%rsp, %rbp
	.cfi_def_cfa_register %rbp
	subq	$56, %rsp
	movq	%rdi, -40(%rbp)
Ltmp703:
	.loc	41 328 23 prologue_end
	movq	%rdi, -32(%rbp)
	.loc	41 328 26 is_stmt 0
	leaq	__ZN4core3fmt3num49_$LT$impl$u20$core..fmt..Debug$u20$for$u20$u8$GT$3fmt17hed1a3418e84d1381E(%rip), %rax
	movq	%rax, -24(%rbp)
Ltmp704:
	.loc	41 347 42 is_stmt 1
	movq	%rax, -16(%rbp)
	movq	-16(%rbp), %rax
	.loc	41 347 68 is_stmt 0
	movq	%rdi, -8(%rbp)
	movq	-8(%rbp), %rcx
	.loc	41 347 18
	movq	%rcx, -56(%rbp)
	movq	%rax, -48(%rbp)
Ltmp705:
	.loc	41 329 10 is_stmt 1
	movq	-56(%rbp), %rax
	movq	-48(%rbp), %rdx
	addq	$56, %rsp
	popq	%rbp
	retq
Ltmp706:
Lfunc_end112:
	.cfi_endproc

	.globl	__ZN4core3fmt10ArgumentV19new_debug17hca309636e15fee1fE
	.p2align	4, 0x90
__ZN4core3fmt10ArgumentV19new_debug17hca309636e15fee1fE:
Lfunc_begin113:
	.loc	41 327 0
	.cfi_startproc
	pushq	%rbp
	.cfi_def_cfa_offset 16
	.cfi_offset %rbp, -16
	movq	%rsp, %rbp
	.cfi_def_cfa_register %rbp
	subq	$56, %rsp
	movq	%rdi, -40(%rbp)
Ltmp707:
	.loc	41 328 23 prologue_end
	movq	%rdi, -32(%rbp)
	.loc	41 328 26 is_stmt 0
	leaq	__ZN42_$LT$$RF$T$u20$as$u20$core..fmt..Debug$GT$3fmt17hd6c296e881def178E(%rip), %rax
	movq	%rax, -24(%rbp)
Ltmp708:
	.loc	41 347 42 is_stmt 1
	movq	%rax, -16(%rbp)
	movq	-16(%rbp), %rax
	.loc	41 347 68 is_stmt 0
	movq	%rdi, -8(%rbp)
	movq	-8(%rbp), %rcx
	.loc	41 347 18
	movq	%rcx, -56(%rbp)
	movq	%rax, -48(%rbp)
Ltmp709:
	.loc	41 329 10 is_stmt 1
	movq	-56(%rbp), %rax
	movq	-48(%rbp), %rdx
	addq	$56, %rsp
	popq	%rbp
	retq
Ltmp710:
Lfunc_end113:
	.cfi_endproc

	.globl	__ZN4core3fmt10ArgumentV19new_debug17hdf80e772ab53f5ecE
	.p2align	4, 0x90
__ZN4core3fmt10ArgumentV19new_debug17hdf80e772ab53f5ecE:
Lfunc_begin114:
	.loc	41 327 0
	.cfi_startproc
	pushq	%rbp
	.cfi_def_cfa_offset 16
	.cfi_offset %rbp, -16
	movq	%rsp, %rbp
	.cfi_def_cfa_register %rbp
	subq	$56, %rsp
	movq	%rdi, -40(%rbp)
Ltmp711:
	.loc	41 328 23 prologue_end
	movq	%rdi, -32(%rbp)
	.loc	41 328 26 is_stmt 0
	leaq	__ZN66_$LT$core..option..Option$LT$T$GT$$u20$as$u20$core..fmt..Debug$GT$3fmt17h2f206252db861614E(%rip), %rax
	movq	%rax, -24(%rbp)
Ltmp712:
	.loc	41 347 42 is_stmt 1
	movq	%rax, -16(%rbp)
	movq	-16(%rbp), %rax
	.loc	41 347 68 is_stmt 0
	movq	%rdi, -8(%rbp)
	movq	-8(%rbp), %rcx
	.loc	41 347 18
	movq	%rcx, -56(%rbp)
	movq	%rax, -48(%rbp)
Ltmp713:
	.loc	41 329 10 is_stmt 1
	movq	-56(%rbp), %rax
	movq	-48(%rbp), %rdx
	addq	$56, %rsp
	popq	%rbp
	retq
Ltmp714:
Lfunc_end114:
	.cfi_endproc

	.p2align	4, 0x90
__ZN4core3fmt3num49_$LT$impl$u20$core..fmt..Debug$u20$for$u20$u8$GT$3fmt17hed1a3418e84d1381E:
Lfunc_begin115:
	.file	45 "/rustc/2c8cc343237b8f7d5a3c3703e3a87f2eb2c54a74/library/core/src/fmt" "num.rs"
	.loc	45 185 0
	.cfi_startproc
	pushq	%rbp
	.cfi_def_cfa_offset 16
	.cfi_offset %rbp, -16
	movq	%rsp, %rbp
	.cfi_def_cfa_register %rbp
	subq	$48, %rsp
	movq	%rsi, -48(%rbp)
	movq	%rdi, %rax
	movq	-48(%rbp), %rdi
	movq	%rax, -40(%rbp)
	movq	%rdi, -32(%rbp)
	movq	%rax, -16(%rbp)
	movq	%rdi, -8(%rbp)
Ltmp715:
	.loc	45 186 20 prologue_end
	callq	__ZN4core3fmt9Formatter15debug_lower_hex17h0921e6b9188d914eE
	testb	$1, %al
	jne	LBB115_2
	.loc	45 0 20 is_stmt 0
	movq	-32(%rbp), %rdi
	.loc	45 188 27 is_stmt 1
	callq	__ZN4core3fmt9Formatter15debug_upper_hex17h8ce487049a6cccf8E
	testb	$1, %al
	jne	LBB115_5
	jmp	LBB115_4
LBB115_2:
	.loc	45 0 27 is_stmt 0
	movq	-32(%rbp), %rsi
	movq	-40(%rbp), %rdi
	.loc	45 187 21 is_stmt 1
	callq	__ZN4core3fmt3num52_$LT$impl$u20$core..fmt..LowerHex$u20$for$u20$u8$GT$3fmt17h5cfdcd8eebabca5eE
	andb	$1, %al
	movb	%al, -17(%rbp)
LBB115_3:
	.loc	45 193 14
	movb	-17(%rbp), %al
	andb	$1, %al
	movzbl	%al, %eax
	addq	$48, %rsp
	popq	%rbp
	retq
LBB115_4:
	.loc	45 0 14 is_stmt 0
	movq	-32(%rbp), %rsi
	movq	-40(%rbp), %rdi
	.loc	45 191 21 is_stmt 1
	callq	__ZN4core3fmt3num3imp51_$LT$impl$u20$core..fmt..Display$u20$for$u20$u8$GT$3fmt17he2a0798a745fb926E
	andb	$1, %al
	movb	%al, -17(%rbp)
	.loc	45 188 24
	jmp	LBB115_6
LBB115_5:
	.loc	45 0 24 is_stmt 0
	movq	-32(%rbp), %rsi
	movq	-40(%rbp), %rdi
	.loc	45 189 21 is_stmt 1
	callq	__ZN4core3fmt3num52_$LT$impl$u20$core..fmt..UpperHex$u20$for$u20$u8$GT$3fmt17h0d44eda8e53b13dbE
	andb	$1, %al
	movb	%al, -17(%rbp)
LBB115_6:
	.loc	45 186 17
	jmp	LBB115_3
Ltmp716:
Lfunc_end115:
	.cfi_endproc

	.p2align	4, 0x90
__ZN4core3fmt3num50_$LT$impl$u20$core..fmt..Debug$u20$for$u20$u16$GT$3fmt17h87773da239fe90efE:
Lfunc_begin116:
	.loc	45 185 0
	.cfi_startproc
	pushq	%rbp
	.cfi_def_cfa_offset 16
	.cfi_offset %rbp, -16
	movq	%rsp, %rbp
	.cfi_def_cfa_register %rbp
	subq	$48, %rsp
	movq	%rsi, -48(%rbp)
	movq	%rdi, %rax
	movq	-48(%rbp), %rdi
	movq	%rax, -40(%rbp)
	movq	%rdi, -32(%rbp)
	movq	%rax, -16(%rbp)
	movq	%rdi, -8(%rbp)
Ltmp717:
	.loc	45 186 20 prologue_end
	callq	__ZN4core3fmt9Formatter15debug_lower_hex17h0921e6b9188d914eE
	testb	$1, %al
	jne	LBB116_2
	.loc	45 0 20 is_stmt 0
	movq	-32(%rbp), %rdi
	.loc	45 188 27 is_stmt 1
	callq	__ZN4core3fmt9Formatter15debug_upper_hex17h8ce487049a6cccf8E
	testb	$1, %al
	jne	LBB116_5
	jmp	LBB116_4
LBB116_2:
	.loc	45 0 27 is_stmt 0
	movq	-32(%rbp), %rsi
	movq	-40(%rbp), %rdi
	.loc	45 187 21 is_stmt 1
	callq	__ZN4core3fmt3num53_$LT$impl$u20$core..fmt..LowerHex$u20$for$u20$u16$GT$3fmt17he1af57f7bbe2599fE
	andb	$1, %al
	movb	%al, -17(%rbp)
LBB116_3:
	.loc	45 193 14
	movb	-17(%rbp), %al
	andb	$1, %al
	movzbl	%al, %eax
	addq	$48, %rsp
	popq	%rbp
	retq
LBB116_4:
	.loc	45 0 14 is_stmt 0
	movq	-32(%rbp), %rsi
	movq	-40(%rbp), %rdi
	.loc	45 191 21 is_stmt 1
	callq	__ZN4core3fmt3num3imp52_$LT$impl$u20$core..fmt..Display$u20$for$u20$u16$GT$3fmt17h7d8f7431eaeff3c6E
	andb	$1, %al
	movb	%al, -17(%rbp)
	.loc	45 188 24
	jmp	LBB116_6
LBB116_5:
	.loc	45 0 24 is_stmt 0
	movq	-32(%rbp), %rsi
	movq	-40(%rbp), %rdi
	.loc	45 189 21 is_stmt 1
	callq	__ZN4core3fmt3num53_$LT$impl$u20$core..fmt..UpperHex$u20$for$u20$u16$GT$3fmt17h2cf7e042780f1009E
	andb	$1, %al
	movb	%al, -17(%rbp)
LBB116_6:
	.loc	45 186 17
	jmp	LBB116_3
Ltmp718:
Lfunc_end116:
	.cfi_endproc

	.p2align	4, 0x90
__ZN4core3fmt3num50_$LT$impl$u20$core..fmt..Debug$u20$for$u20$u32$GT$3fmt17h4b0cd3a9df6012a7E:
Lfunc_begin117:
	.loc	45 185 0
	.cfi_startproc
	pushq	%rbp
	.cfi_def_cfa_offset 16
	.cfi_offset %rbp, -16
	movq	%rsp, %rbp
	.cfi_def_cfa_register %rbp
	subq	$48, %rsp
	movq	%rsi, -48(%rbp)
	movq	%rdi, %rax
	movq	-48(%rbp), %rdi
	movq	%rax, -40(%rbp)
	movq	%rdi, -32(%rbp)
	movq	%rax, -16(%rbp)
	movq	%rdi, -8(%rbp)
Ltmp719:
	.loc	45 186 20 prologue_end
	callq	__ZN4core3fmt9Formatter15debug_lower_hex17h0921e6b9188d914eE
	testb	$1, %al
	jne	LBB117_2
	.loc	45 0 20 is_stmt 0
	movq	-32(%rbp), %rdi
	.loc	45 188 27 is_stmt 1
	callq	__ZN4core3fmt9Formatter15debug_upper_hex17h8ce487049a6cccf8E
	testb	$1, %al
	jne	LBB117_5
	jmp	LBB117_4
LBB117_2:
	.loc	45 0 27 is_stmt 0
	movq	-32(%rbp), %rsi
	movq	-40(%rbp), %rdi
	.loc	45 187 21 is_stmt 1
	callq	__ZN4core3fmt3num53_$LT$impl$u20$core..fmt..LowerHex$u20$for$u20$u32$GT$3fmt17h794cf20b87700632E
	andb	$1, %al
	movb	%al, -17(%rbp)
LBB117_3:
	.loc	45 193 14
	movb	-17(%rbp), %al
	andb	$1, %al
	movzbl	%al, %eax
	addq	$48, %rsp
	popq	%rbp
	retq
LBB117_4:
	.loc	45 0 14 is_stmt 0
	movq	-32(%rbp), %rsi
	movq	-40(%rbp), %rdi
	.loc	45 191 21 is_stmt 1
	callq	__ZN4core3fmt3num3imp52_$LT$impl$u20$core..fmt..Display$u20$for$u20$u32$GT$3fmt17h081c917b2ee7d4e9E
	andb	$1, %al
	movb	%al, -17(%rbp)
	.loc	45 188 24
	jmp	LBB117_6
LBB117_5:
	.loc	45 0 24 is_stmt 0
	movq	-32(%rbp), %rsi
	movq	-40(%rbp), %rdi
	.loc	45 189 21 is_stmt 1
	callq	__ZN4core3fmt3num53_$LT$impl$u20$core..fmt..UpperHex$u20$for$u20$u32$GT$3fmt17ha96bbefe8f663d11E
	andb	$1, %al
	movb	%al, -17(%rbp)
LBB117_6:
	.loc	45 186 17
	jmp	LBB117_3
Ltmp720:
Lfunc_end117:
	.cfi_endproc

	.globl	__ZN4core3fmt5Write9write_fmt17h83dd3ccd9c5d16d3E
	.p2align	4, 0x90
__ZN4core3fmt5Write9write_fmt17h83dd3ccd9c5d16d3E:
Lfunc_begin118:
	.loc	41 196 0
	.cfi_startproc
	pushq	%rbp
	.cfi_def_cfa_offset 16
	.cfi_offset %rbp, -16
	movq	%rsp, %rbp
	.cfi_def_cfa_register %rbp
	subq	$64, %rsp
	movq	%rdi, -56(%rbp)
Ltmp721:
	.loc	41 197 26 prologue_end
	leaq	-48(%rbp), %rdi
	movl	$48, %edx
	callq	_memcpy
Ltmp722:
	.loc	41 197 9 is_stmt 0
	leaq	-56(%rbp), %rdi
	leaq	l___unnamed_2(%rip), %rsi
	leaq	-48(%rbp), %rdx
	callq	__ZN4core3fmt5write17hfa389e524187f2c6E
	.loc	41 198 6 is_stmt 1
	andb	$1, %al
	movzbl	%al, %eax
	addq	$64, %rsp
	popq	%rbp
	retq
Ltmp723:
Lfunc_end118:
	.cfi_endproc

	.p2align	4, 0x90
__ZN4core3fmt9Arguments6as_str17h0e28d4d2b320de39E:
Lfunc_begin119:
	.loc	41 521 0
	.cfi_startproc
	pushq	%rbp
	.cfi_def_cfa_offset 16
	.cfi_offset %rbp, -16
	movq	%rsp, %rbp
	.cfi_def_cfa_register %rbp
	subq	$64, %rsp
	movq	%rdi, -16(%rbp)
Ltmp724:
	.loc	41 522 16 prologue_end
	movq	16(%rdi), %rsi
	movq	24(%rdi), %rdx
	.loc	41 522 29 is_stmt 0
	movq	32(%rdi), %rcx
	movq	40(%rdi), %rax
	.loc	41 522 15
	movq	%rsi, -48(%rbp)
	movq	%rdx, -40(%rbp)
	movq	%rcx, -32(%rbp)
	movq	%rax, -24(%rbp)
	.loc	41 523 14 is_stmt 1
	cmpq	$0, -40(%rbp)
	je	LBB119_2
	.loc	41 524 14
	cmpq	$1, -40(%rbp)
	je	LBB119_6
	jmp	LBB119_3
LBB119_2:
	.loc	41 523 18
	cmpq	$0, -24(%rbp)
	je	LBB119_4
LBB119_3:
	.loc	41 525 18
	movq	$0, -64(%rbp)
	jmp	LBB119_5
LBB119_4:
	.loc	41 523 25
	leaq	l___unnamed_31(%rip), %rax
	movq	%rax, -64(%rbp)
	movq	$0, -56(%rbp)
LBB119_5:
	.loc	41 527 6
	movq	-64(%rbp), %rax
	movq	-56(%rbp), %rdx
	addq	$64, %rsp
	popq	%rbp
	retq
LBB119_6:
	.loc	41 524 19
	cmpq	$0, -24(%rbp)
	jne	LBB119_3
	.loc	41 524 15 is_stmt 0
	movq	-48(%rbp), %rax
	movq	%rax, -8(%rbp)
Ltmp725:
	.loc	41 524 31
	movq	(%rax), %rcx
	movq	8(%rax), %rax
	.loc	41 524 26
	movq	%rcx, -64(%rbp)
	movq	%rax, -56(%rbp)
Ltmp726:
	.loc	41 524 32
	jmp	LBB119_5
Ltmp727:
Lfunc_end119:
	.cfi_endproc

	.p2align	4, 0x90
__ZN4core3fmt9Arguments6new_v117hff8f2e9fe1cd3d15E:
Lfunc_begin120:
	.loc	41 399 0 is_stmt 1
	.cfi_startproc
	pushq	%rbp
	.cfi_def_cfa_offset 16
	.cfi_offset %rbp, -16
	movq	%rsp, %rbp
	.cfi_def_cfa_register %rbp
	subq	$160, %rsp
	movq	%r8, -152(%rbp)
	movq	%rcx, -144(%rbp)
	movq	%rdx, -136(%rbp)
	movq	%rsi, -128(%rbp)
	movq	%rdi, -120(%rbp)
	movq	%rdi, -112(%rbp)
	movq	%rsi, -32(%rbp)
	movq	%rdx, -24(%rbp)
	movq	%rcx, -16(%rbp)
	movq	%r8, -8(%rbp)
Ltmp728:
	.loc	41 400 12 prologue_end
	cmpq	%r8, %rdx
	jb	LBB120_2
	.loc	41 0 12 is_stmt 0
	movq	-136(%rbp), %rax
	movq	-152(%rbp), %rcx
	.loc	41 400 56
	addq	$1, %rcx
	.loc	41 400 41
	cmpq	%rcx, %rax
	seta	%al
	.loc	41 400 12
	andb	$1, %al
	movb	%al, -97(%rbp)
	jmp	LBB120_3
LBB120_2:
	movb	$1, -97(%rbp)
LBB120_3:
	testb	$1, -97(%rbp)
	jne	LBB120_5
	.loc	41 0 12
	movq	-112(%rbp), %rax
	movq	-120(%rbp), %rcx
	movq	-152(%rbp), %rdx
	movq	-144(%rbp), %rsi
	movq	-136(%rbp), %rdi
	movq	-128(%rbp), %r8
	.loc	41 403 34 is_stmt 1
	movq	$0, -48(%rbp)
	.loc	41 403 9 is_stmt 0
	movq	%r8, 16(%rcx)
	movq	%rdi, 24(%rcx)
	movq	-48(%rbp), %r8
	movq	-40(%rbp), %rdi
	movq	%r8, (%rcx)
	movq	%rdi, 8(%rcx)
	movq	%rsi, 32(%rcx)
	movq	%rdx, 40(%rcx)
	.loc	41 404 6 is_stmt 1
	addq	$160, %rsp
	popq	%rbp
	retq
LBB120_5:
	.loc	41 401 13
	leaq	l___unnamed_32(%rip), %rsi
	leaq	l___unnamed_31(%rip), %rcx
	xorl	%eax, %eax
	movl	%eax, %r8d
	leaq	-96(%rbp), %rdi
	movq	%rdi, -160(%rbp)
	movl	$1, %edx
	callq	__ZN4core3fmt9Arguments6new_v117hff8f2e9fe1cd3d15E
	movq	-160(%rbp), %rdi
	leaq	l___unnamed_33(%rip), %rsi
	callq	__ZN4core9panicking9panic_fmt17h9b5d807e24bcaaedE
Ltmp729:
Lfunc_end120:
	.cfi_endproc

	.globl	__ZN4core3mem4take17he3ef4bcee366e26fE
	.p2align	4, 0x90
__ZN4core3mem4take17he3ef4bcee366e26fE:
Lfunc_begin121:
	.loc	3 838 0
	.cfi_startproc
	pushq	%rbp
	.cfi_def_cfa_offset 16
	.cfi_offset %rbp, -16
	movq	%rsp, %rbp
	.cfi_def_cfa_register %rbp
	subq	$64, %rsp
	movq	%rsi, -48(%rbp)
	movq	%rdi, -56(%rbp)
	movq	%rdi, -40(%rbp)
	movq	%rsi, -8(%rbp)
Ltmp730:
	.loc	3 839 19 prologue_end
	leaq	-32(%rbp), %rdi
	callq	__ZN64_$LT$alloc..string..String$u20$as$u20$core..default..Default$GT$7default17h3e4750047c794b9cE
	movq	-56(%rbp), %rdi
	movq	-48(%rbp), %rsi
	.loc	3 839 5 is_stmt 0
	leaq	-32(%rbp), %rdx
	callq	__ZN4core3mem7replace17hd71bec59019bd869E
	movq	-40(%rbp), %rax
	.loc	3 840 2 is_stmt 1
	addq	$64, %rsp
	popq	%rbp
	retq
Ltmp731:
Lfunc_end121:
	.cfi_endproc

	.globl	__ZN4core3mem7replace17h2b7ac4a5bf9eda51E
	.p2align	4, 0x90
__ZN4core3mem7replace17h2b7ac4a5bf9eda51E:
Lfunc_begin122:
	.loc	3 905 0
	.cfi_startproc
	pushq	%rbp
	.cfi_def_cfa_offset 16
	.cfi_offset %rbp, -16
	movq	%rsp, %rbp
	.cfi_def_cfa_register %rbp
	subq	$176, %rsp
	movq	%rdx, -176(%rbp)
Ltmp732:
	movq	%rsi, -168(%rbp)
	movq	%rdi, -160(%rbp)
	movq	%rdi, -152(%rbp)
	movq	%rsi, -48(%rbp)
Ltmp733:
	.loc	3 910 32 prologue_end
	movq	%rsi, -40(%rbp)
Ltmp734:
	.loc	11 1157 34
	leaq	-120(%rbp), %rax
	movq	%rax, -32(%rbp)
	.loc	11 1157 9 is_stmt 0
	movq	(%rsi), %rax
	movq	%rax, -120(%rbp)
	movq	8(%rsi), %rax
	movq	%rax, -112(%rbp)
	movq	16(%rsi), %rax
	movq	%rax, -104(%rbp)
	.loc	11 1158 9 is_stmt 1
	movq	-120(%rbp), %rax
	movq	%rax, -96(%rbp)
	movq	-112(%rbp), %rax
	movq	%rax, -88(%rbp)
	movq	-104(%rbp), %rax
	movq	%rax, -80(%rbp)
Ltmp735:
	.loc	11 0 9 is_stmt 0
	movq	-152(%rbp), %rax
	movq	-168(%rbp), %rcx
	movq	-176(%rbp), %rdx
	movq	-160(%rbp), %rsi
Ltmp736:
	.loc	12 627 38 is_stmt 1
	movq	-96(%rbp), %rdi
	movq	%rdi, -72(%rbp)
	movq	-88(%rbp), %rdi
	movq	%rdi, -64(%rbp)
	movq	-80(%rbp), %rdi
	movq	%rdi, -56(%rbp)
Ltmp737:
	.loc	35 89 9
	movq	-72(%rbp), %rdi
	movq	%rdi, (%rsi)
	movq	-64(%rbp), %rdi
	movq	%rdi, 8(%rsi)
	movq	-56(%rbp), %rdi
	movq	%rdi, 16(%rsi)
Ltmp738:
	.loc	3 911 20
	movq	%rcx, -8(%rbp)
	.loc	3 911 26 is_stmt 0
	movq	(%rdx), %rsi
	movq	%rsi, -144(%rbp)
	movq	8(%rdx), %rsi
	movq	%rsi, -136(%rbp)
	movq	16(%rdx), %rdx
	movq	%rdx, -128(%rbp)
Ltmp739:
	.loc	11 1354 9 is_stmt 1
	movq	-144(%rbp), %rdx
	movq	%rdx, (%rcx)
	movq	-136(%rbp), %rdx
	movq	%rdx, 8(%rcx)
	movq	-128(%rbp), %rdx
	movq	%rdx, 16(%rcx)
Ltmp740:
	.loc	3 914 2
	addq	$176, %rsp
	popq	%rbp
	retq
Ltmp741:
Lfunc_end122:
	.cfi_endproc

	.globl	__ZN4core3mem7replace17h2c830eb853068f57E
	.p2align	4, 0x90
__ZN4core3mem7replace17h2c830eb853068f57E:
Lfunc_begin123:
	.loc	3 905 0
	.cfi_startproc
	pushq	%rbp
	.cfi_def_cfa_offset 16
	.cfi_offset %rbp, -16
	movq	%rsp, %rbp
	.cfi_def_cfa_register %rbp
	subq	$120, %rsp
	movq	%rdi, -120(%rbp)
	movq	%rsi, -112(%rbp)
	movq	%rdi, -80(%rbp)
	movq	%rsi, -72(%rbp)
Ltmp742:
	.loc	3 910 32 prologue_end
	movq	%rdi, -64(%rbp)
Ltmp743:
	.loc	11 1157 34
	leaq	-88(%rbp), %rax
	movq	%rax, -56(%rbp)
	.loc	11 1157 9 is_stmt 0
	movq	(%rdi), %rax
	movq	%rax, -88(%rbp)
	.loc	11 1158 9 is_stmt 1
	movq	-88(%rbp), %rax
	movq	%rax, -104(%rbp)
	movq	%rax, -48(%rbp)
	.loc	11 0 9 is_stmt 0
	movq	-104(%rbp), %rax
	movq	-120(%rbp), %rcx
	movq	-112(%rbp), %rdx
Ltmp744:
	.loc	12 627 38 is_stmt 1
	movq	%rax, -24(%rbp)
Ltmp745:
	.loc	35 89 9
	movq	%rax, -16(%rbp)
Ltmp746:
	.loc	3 911 20
	movq	%rcx, -8(%rbp)
	.loc	3 911 26 is_stmt 0
	movq	%rdx, -96(%rbp)
Ltmp747:
	.loc	11 1354 9 is_stmt 1
	movq	-96(%rbp), %rdx
	movq	%rdx, (%rcx)
Ltmp748:
	.loc	3 914 2
	addq	$120, %rsp
	popq	%rbp
	retq
Ltmp749:
Lfunc_end123:
	.cfi_endproc

	.globl	__ZN4core3mem7replace17h94aa414230fa77b2E
	.p2align	4, 0x90
__ZN4core3mem7replace17h94aa414230fa77b2E:
Lfunc_begin124:
	.loc	3 905 0
	.cfi_startproc
	pushq	%rbp
	.cfi_def_cfa_offset 16
	.cfi_offset %rbp, -16
	movq	%rsp, %rbp
	.cfi_def_cfa_register %rbp
	subq	$120, %rsp
	movq	%rdi, -120(%rbp)
	movq	%rsi, -112(%rbp)
	movq	%rdi, -80(%rbp)
	movq	%rsi, -72(%rbp)
Ltmp750:
	.loc	3 910 32 prologue_end
	movq	%rdi, -64(%rbp)
Ltmp751:
	.loc	11 1157 34
	leaq	-88(%rbp), %rax
	movq	%rax, -56(%rbp)
	.loc	11 1157 9 is_stmt 0
	movq	(%rdi), %rax
	movq	%rax, -88(%rbp)
	.loc	11 1158 9 is_stmt 1
	movq	-88(%rbp), %rax
	movq	%rax, -104(%rbp)
	movq	%rax, -48(%rbp)
	.loc	11 0 9 is_stmt 0
	movq	-104(%rbp), %rax
	movq	-120(%rbp), %rcx
	movq	-112(%rbp), %rdx
Ltmp752:
	.loc	12 627 38 is_stmt 1
	movq	%rax, -24(%rbp)
Ltmp753:
	.loc	35 89 9
	movq	%rax, -16(%rbp)
Ltmp754:
	.loc	3 911 20
	movq	%rcx, -8(%rbp)
	.loc	3 911 26 is_stmt 0
	movq	%rdx, -96(%rbp)
Ltmp755:
	.loc	11 1354 9 is_stmt 1
	movq	-96(%rbp), %rdx
	movq	%rdx, (%rcx)
Ltmp756:
	.loc	3 914 2
	addq	$120, %rsp
	popq	%rbp
	retq
Ltmp757:
Lfunc_end124:
	.cfi_endproc

	.globl	__ZN4core3mem7replace17hb4bb2889e78134d6E
	.p2align	4, 0x90
__ZN4core3mem7replace17hb4bb2889e78134d6E:
Lfunc_begin125:
	.loc	3 905 0
	.cfi_startproc
	pushq	%rbp
	.cfi_def_cfa_offset 16
	.cfi_offset %rbp, -16
	movq	%rsp, %rbp
	.cfi_def_cfa_register %rbp
	subq	$120, %rsp
	movq	%rdi, -120(%rbp)
	movl	%esi, -112(%rbp)
	movl	%edx, -108(%rbp)
	movq	%rdi, -80(%rbp)
	movl	%esi, -72(%rbp)
	movl	%edx, -68(%rbp)
Ltmp758:
	.loc	3 910 32 prologue_end
	movq	%rdi, -64(%rbp)
Ltmp759:
	.loc	11 1157 34
	leaq	-88(%rbp), %rax
	movq	%rax, -56(%rbp)
	.loc	11 1157 9 is_stmt 0
	movq	(%rdi), %rax
	movq	%rax, -88(%rbp)
	.loc	11 1158 9 is_stmt 1
	movl	-88(%rbp), %ecx
	movl	%ecx, -104(%rbp)
	movl	-84(%rbp), %eax
	movl	%eax, -100(%rbp)
	movl	%ecx, -48(%rbp)
	movl	%eax, -44(%rbp)
	.loc	11 0 9 is_stmt 0
	movl	-100(%rbp), %edx
	movl	-104(%rbp), %eax
	movq	-120(%rbp), %rcx
	movl	-108(%rbp), %esi
	movl	-112(%rbp), %edi
Ltmp760:
	.loc	12 627 38 is_stmt 1
	movl	%eax, -24(%rbp)
	movl	%edx, -20(%rbp)
Ltmp761:
	.loc	35 89 9
	movl	%eax, -16(%rbp)
	movl	%edx, -12(%rbp)
Ltmp762:
	.loc	3 911 20
	movq	%rcx, -8(%rbp)
	.loc	3 911 26 is_stmt 0
	movl	%edi, -96(%rbp)
	movl	%esi, -92(%rbp)
Ltmp763:
	.loc	11 1354 9 is_stmt 1
	movq	-96(%rbp), %rsi
	movq	%rsi, (%rcx)
Ltmp764:
	.loc	3 914 2
	addq	$120, %rsp
	popq	%rbp
	retq
Ltmp765:
Lfunc_end125:
	.cfi_endproc

	.globl	__ZN4core3mem7replace17hd059deb4b7d9e38eE
	.p2align	4, 0x90
__ZN4core3mem7replace17hd059deb4b7d9e38eE:
Lfunc_begin126:
	.loc	3 905 0
	.cfi_startproc
	pushq	%rbp
	.cfi_def_cfa_offset 16
	.cfi_offset %rbp, -16
	movq	%rsp, %rbp
	.cfi_def_cfa_register %rbp
	subq	$176, %rsp
	movq	%rdx, -176(%rbp)
Ltmp766:
	movq	%rsi, -168(%rbp)
	movq	%rdi, -160(%rbp)
	movq	%rdi, -152(%rbp)
	movq	%rsi, -48(%rbp)
Ltmp767:
	.loc	3 910 32 prologue_end
	movq	%rsi, -40(%rbp)
Ltmp768:
	.loc	11 1157 34
	leaq	-120(%rbp), %rax
	movq	%rax, -32(%rbp)
	.loc	11 1157 9 is_stmt 0
	movq	(%rsi), %rax
	movq	%rax, -120(%rbp)
	movq	8(%rsi), %rax
	movq	%rax, -112(%rbp)
	movq	16(%rsi), %rax
	movq	%rax, -104(%rbp)
	.loc	11 1158 9 is_stmt 1
	movq	-120(%rbp), %rax
	movq	%rax, -96(%rbp)
	movq	-112(%rbp), %rax
	movq	%rax, -88(%rbp)
	movq	-104(%rbp), %rax
	movq	%rax, -80(%rbp)
Ltmp769:
	.loc	11 0 9 is_stmt 0
	movq	-152(%rbp), %rax
	movq	-168(%rbp), %rcx
	movq	-176(%rbp), %rdx
	movq	-160(%rbp), %rsi
Ltmp770:
	.loc	12 627 38 is_stmt 1
	movq	-96(%rbp), %rdi
	movq	%rdi, -72(%rbp)
	movq	-88(%rbp), %rdi
	movq	%rdi, -64(%rbp)
	movq	-80(%rbp), %rdi
	movq	%rdi, -56(%rbp)
Ltmp771:
	.loc	35 89 9
	movq	-72(%rbp), %rdi
	movq	%rdi, (%rsi)
	movq	-64(%rbp), %rdi
	movq	%rdi, 8(%rsi)
	movq	-56(%rbp), %rdi
	movq	%rdi, 16(%rsi)
Ltmp772:
	.loc	3 911 20
	movq	%rcx, -8(%rbp)
	.loc	3 911 26 is_stmt 0
	movq	(%rdx), %rsi
	movq	%rsi, -144(%rbp)
	movq	8(%rdx), %rsi
	movq	%rsi, -136(%rbp)
	movq	16(%rdx), %rdx
	movq	%rdx, -128(%rbp)
Ltmp773:
	.loc	11 1354 9 is_stmt 1
	movq	-144(%rbp), %rdx
	movq	%rdx, (%rcx)
	movq	-136(%rbp), %rdx
	movq	%rdx, 8(%rcx)
	movq	-128(%rbp), %rdx
	movq	%rdx, 16(%rcx)
Ltmp774:
	.loc	3 914 2
	addq	$176, %rsp
	popq	%rbp
	retq
Ltmp775:
Lfunc_end126:
	.cfi_endproc

	.globl	__ZN4core3mem7replace17hf325a5c4975d59bdE
	.p2align	4, 0x90
__ZN4core3mem7replace17hf325a5c4975d59bdE:
Lfunc_begin127:
	.loc	3 905 0
	.cfi_startproc
	pushq	%rbp
	.cfi_def_cfa_offset 16
	.cfi_offset %rbp, -16
	movq	%rsp, %rbp
	.cfi_def_cfa_register %rbp
	subq	$176, %rsp
	movq	%rdx, -176(%rbp)
Ltmp776:
	movq	%rsi, -168(%rbp)
	movq	%rdi, -160(%rbp)
	movq	%rdi, -152(%rbp)
	movq	%rsi, -48(%rbp)
Ltmp777:
	.loc	3 910 32 prologue_end
	movq	%rsi, -40(%rbp)
Ltmp778:
	.loc	11 1157 34
	leaq	-120(%rbp), %rax
	movq	%rax, -32(%rbp)
	.loc	11 1157 9 is_stmt 0
	movq	(%rsi), %rax
	movq	%rax, -120(%rbp)
	movq	8(%rsi), %rax
	movq	%rax, -112(%rbp)
	movq	16(%rsi), %rax
	movq	%rax, -104(%rbp)
	.loc	11 1158 9 is_stmt 1
	movq	-120(%rbp), %rax
	movq	%rax, -96(%rbp)
	movq	-112(%rbp), %rax
	movq	%rax, -88(%rbp)
	movq	-104(%rbp), %rax
	movq	%rax, -80(%rbp)
Ltmp779:
	.loc	11 0 9 is_stmt 0
	movq	-152(%rbp), %rax
	movq	-168(%rbp), %rcx
	movq	-176(%rbp), %rdx
	movq	-160(%rbp), %rsi
Ltmp780:
	.loc	12 627 38 is_stmt 1
	movq	-96(%rbp), %rdi
	movq	%rdi, -72(%rbp)
	movq	-88(%rbp), %rdi
	movq	%rdi, -64(%rbp)
	movq	-80(%rbp), %rdi
	movq	%rdi, -56(%rbp)
Ltmp781:
	.loc	35 89 9
	movq	-72(%rbp), %rdi
	movq	%rdi, (%rsi)
	movq	-64(%rbp), %rdi
	movq	%rdi, 8(%rsi)
	movq	-56(%rbp), %rdi
	movq	%rdi, 16(%rsi)
Ltmp782:
	.loc	3 911 20
	movq	%rcx, -8(%rbp)
	.loc	3 911 26 is_stmt 0
	movq	(%rdx), %rsi
	movq	%rsi, -144(%rbp)
	movq	8(%rdx), %rsi
	movq	%rsi, -136(%rbp)
	movq	16(%rdx), %rdx
	movq	%rdx, -128(%rbp)
Ltmp783:
	.loc	11 1354 9 is_stmt 1
	movq	-144(%rbp), %rdx
	movq	%rdx, (%rcx)
	movq	-136(%rbp), %rdx
	movq	%rdx, 8(%rcx)
	movq	-128(%rbp), %rdx
	movq	%rdx, 16(%rcx)
Ltmp784:
	.loc	3 914 2
	addq	$176, %rsp
	popq	%rbp
	retq
Ltmp785:
Lfunc_end127:
	.cfi_endproc

	.p2align	4, 0x90
__ZN4core3num23_$LT$impl$u20$usize$GT$11checked_add17h72f2e179cf771e32E:
Lfunc_begin128:
	.loc	16 442 0
	.cfi_startproc
	pushq	%rbp
	.cfi_def_cfa_offset 16
	.cfi_offset %rbp, -16
	movq	%rsp, %rbp
	.cfi_def_cfa_register %rbp
	subq	$120, %rsp
	movq	%rdi, -80(%rbp)
	movq	%rsi, -72(%rbp)
Ltmp786:
	.loc	16 443 26 prologue_end
	movq	%rdi, -64(%rbp)
	.loc	16 443 47 is_stmt 0
	movq	%rsi, -56(%rbp)
Ltmp787:
	.loc	16 1479 26 is_stmt 1
	addq	%rsi, %rdi
	setb	%al
	andb	$1, %al
	movq	%rdi, -48(%rbp)
	movb	%al, -40(%rbp)
	movq	-48(%rbp), %rcx
	movb	-40(%rbp), %al
	.loc	16 1479 18 is_stmt 0
	movq	%rcx, -32(%rbp)
	.loc	16 1479 21
	movb	%al, %dl
	andb	$1, %dl
	movb	%dl, -17(%rbp)
Ltmp788:
	.loc	16 1480 13 is_stmt 1
	movq	%rcx, -96(%rbp)
	andb	$1, %al
	movb	%al, -88(%rbp)
Ltmp789:
	.loc	16 443 18
	movq	-96(%rbp), %rax
	movq	%rax, -120(%rbp)
	movq	%rax, -16(%rbp)
	.loc	16 443 21 is_stmt 0
	movb	-88(%rbp), %al
	movb	%al, %cl
	andb	$1, %cl
	movb	%cl, -2(%rbp)
Ltmp790:
	.loc	16 444 16 is_stmt 1
	andb	$1, %al
	movb	%al, -1(%rbp)
	testb	$1, -1(%rbp)
	jne	LBB128_2
	.loc	16 0 16 is_stmt 0
	movq	-120(%rbp), %rax
	.loc	16 444 42
	movq	%rax, -104(%rbp)
	movq	$1, -112(%rbp)
	.loc	16 444 13
	jmp	LBB128_3
LBB128_2:
	.loc	16 444 30
	movq	$0, -112(%rbp)
Ltmp791:
LBB128_3:
	.loc	16 445 10 is_stmt 1
	movq	-112(%rbp), %rax
	movq	-104(%rbp), %rdx
	addq	$120, %rsp
	popq	%rbp
	retq
Ltmp792:
Lfunc_end128:
	.cfi_endproc

	.p2align	4, 0x90
__ZN4core3num23_$LT$impl$u20$usize$GT$11checked_sub17hb9e86e9983c93624E:
Lfunc_begin129:
	.loc	16 511 0
	.cfi_startproc
	pushq	%rbp
	.cfi_def_cfa_offset 16
	.cfi_offset %rbp, -16
	movq	%rsp, %rbp
	.cfi_def_cfa_register %rbp
	subq	$120, %rsp
	movq	%rdi, %rax
	movq	%rax, -80(%rbp)
	movq	%rsi, -72(%rbp)
Ltmp793:
	.loc	16 512 26 prologue_end
	movq	%rax, -64(%rbp)
	.loc	16 512 47 is_stmt 0
	movq	%rsi, -56(%rbp)
Ltmp794:
	.loc	16 1578 26 is_stmt 1
	movq	%rax, %rdi
	subq	%rsi, %rdi
	cmpq	%rsi, %rax
	setb	%al
	andb	$1, %al
	movq	%rdi, -48(%rbp)
	movb	%al, -40(%rbp)
	movq	-48(%rbp), %rcx
	movb	-40(%rbp), %al
	.loc	16 1578 18 is_stmt 0
	movq	%rcx, -32(%rbp)
	.loc	16 1578 21
	movb	%al, %dl
	andb	$1, %dl
	movb	%dl, -17(%rbp)
Ltmp795:
	.loc	16 1579 13 is_stmt 1
	movq	%rcx, -96(%rbp)
	andb	$1, %al
	movb	%al, -88(%rbp)
Ltmp796:
	.loc	16 512 18
	movq	-96(%rbp), %rax
	movq	%rax, -120(%rbp)
	movq	%rax, -16(%rbp)
	.loc	16 512 21 is_stmt 0
	movb	-88(%rbp), %al
	movb	%al, %cl
	andb	$1, %cl
	movb	%cl, -2(%rbp)
Ltmp797:
	.loc	16 513 16 is_stmt 1
	andb	$1, %al
	movb	%al, -1(%rbp)
	testb	$1, -1(%rbp)
	jne	LBB129_2
	.loc	16 0 16 is_stmt 0
	movq	-120(%rbp), %rax
	.loc	16 513 42
	movq	%rax, -104(%rbp)
	movq	$1, -112(%rbp)
	.loc	16 513 13
	jmp	LBB129_3
LBB129_2:
	.loc	16 513 30
	movq	$0, -112(%rbp)
Ltmp798:
LBB129_3:
	.loc	16 514 10 is_stmt 1
	movq	-112(%rbp), %rax
	movq	-104(%rbp), %rdx
	addq	$120, %rsp
	popq	%rbp
	retq
Ltmp799:
Lfunc_end129:
	.cfi_endproc

	.globl	__ZN4core3ops12control_flow24ControlFlow$LT$B$C$C$GT$11break_value17h8ab54f3ddcf44253E
	.p2align	4, 0x90
__ZN4core3ops12control_flow24ControlFlow$LT$B$C$C$GT$11break_value17h8ab54f3ddcf44253E:
Lfunc_begin130:
	.loc	18 183 0
	.cfi_startproc
	pushq	%rbp
	.cfi_def_cfa_offset 16
	.cfi_offset %rbp, -16
	movq	%rsp, %rbp
	.cfi_def_cfa_register %rbp
	subq	$12, %rsp
	movl	%edi, -12(%rbp)
Ltmp800:
	.loc	18 184 15 prologue_end
	movl	$1, %eax
	xorl	%ecx, %ecx
	cmpl	$1114112, -12(%rbp)
	cmoveq	%rcx, %rax
	.loc	18 184 9 is_stmt 0
	cmpq	$0, %rax
	jne	LBB130_2
	.loc	18 185 42 is_stmt 1
	movl	$1114112, -8(%rbp)
	jmp	LBB130_3
LBB130_2:
	.loc	18 186 32
	movl	-12(%rbp), %eax
	movl	%eax, -4(%rbp)
Ltmp801:
	.loc	18 186 38 is_stmt 0
	movl	%eax, -8(%rbp)
Ltmp802:
LBB130_3:
	.loc	18 188 5 is_stmt 1
	movl	$1, %eax
	xorl	%ecx, %ecx
	cmpl	$1114112, -12(%rbp)
	cmoveq	%rcx, %rax
	cmpq	$1, %rax
	jne	LBB130_5
LBB130_4:
	.loc	18 188 6 is_stmt 0
	movl	-8(%rbp), %eax
	addq	$12, %rsp
	popq	%rbp
	retq
LBB130_5:
	.loc	18 188 5
	jmp	LBB130_4
Ltmp803:
Lfunc_end130:
	.cfi_endproc

	.globl	__ZN4core3ops12control_flow77ControlFlow$LT$R$C$$LT$R$u20$as$u20$core..ops..try_trait..Try$GT$..Output$GT$8from_try17h006fdba9a27836edE
	.p2align	4, 0x90
__ZN4core3ops12control_flow77ControlFlow$LT$R$C$$LT$R$u20$as$u20$core..ops..try_trait..Try$GT$..Output$GT$8from_try17h006fdba9a27836edE:
Lfunc_begin131:
	.loc	18 246 0 is_stmt 1
	.cfi_startproc
	pushq	%rbp
	.cfi_def_cfa_offset 16
	.cfi_offset %rbp, -16
	movq	%rsp, %rbp
	.cfi_def_cfa_register %rbp
	subq	$48, %rsp
Ltmp804:
	.loc	18 247 15 prologue_end
	callq	__ZN94_$LT$core..ops..try_trait..NeverShortCircuit$LT$T$GT$$u20$as$u20$core..ops..try_trait..Try$GT$6branch17h86fb557f101656ceE
	.loc	18 247 9 is_stmt 0
	movb	$1, %al
	testb	$1, %al
	jne	LBB131_1
	jmp	LBB131_2
LBB131_1:
Ltmp805:
	.loc	18 248 41 is_stmt 1
	movb	$0, -33(%rbp)
Ltmp806:
	.loc	18 248 64 is_stmt 0
	jmp	LBB131_3
LBB131_2:
Ltmp807:
	.loc	18 249 57 is_stmt 1
	callq	__ZN103_$LT$core..ops..try_trait..NeverShortCircuit$LT$T$GT$$u20$as$u20$core..ops..try_trait..FromResidual$GT$13from_residual17ha56f1515bb542a03E
	.loc	18 249 38 is_stmt 0
	movb	$1, -33(%rbp)
Ltmp808:
LBB131_3:
	.loc	18 251 6 is_stmt 1
	movb	-33(%rbp), %al
	andb	$1, %al
	movzbl	%al, %eax
	addq	$48, %rsp
	popq	%rbp
	retq
Ltmp809:
Lfunc_end131:
	.cfi_endproc

	.globl	__ZN4core3ops12control_flow77ControlFlow$LT$R$C$$LT$R$u20$as$u20$core..ops..try_trait..Try$GT$..Output$GT$8into_try17hf28cdd40a4f877eaE
	.p2align	4, 0x90
__ZN4core3ops12control_flow77ControlFlow$LT$R$C$$LT$R$u20$as$u20$core..ops..try_trait..Try$GT$..Output$GT$8into_try17hf28cdd40a4f877eaE:
Lfunc_begin132:
	.loc	18 255 0
	.cfi_startproc
	pushq	%rbp
	.cfi_def_cfa_offset 16
	.cfi_offset %rbp, -16
	movq	%rsp, %rbp
	.cfi_def_cfa_register %rbp
	subq	$32, %rsp
	movb	%dil, %al
	andb	$1, %al
	movb	%al, -17(%rbp)
Ltmp810:
	.loc	18 256 15 prologue_end
	movb	-17(%rbp), %al
	andb	$1, %al
	movzbl	%al, %eax
	.loc	18 256 9 is_stmt 0
	cmpq	$0, %rax
	jne	LBB132_2
Ltmp811:
	.loc	18 257 41 is_stmt 1
	callq	__ZN94_$LT$core..ops..try_trait..NeverShortCircuit$LT$T$GT$$u20$as$u20$core..ops..try_trait..Try$GT$11from_output17h45c2abc2d718513eE
Ltmp812:
	.loc	18 257 57 is_stmt 0
	jmp	LBB132_3
LBB132_2:
	.loc	18 258 38 is_stmt 1
	jmp	LBB132_3
LBB132_3:
	.loc	18 260 6
	addq	$32, %rsp
	popq	%rbp
	retq
Ltmp813:
Lfunc_end132:
	.cfi_endproc

	.globl	__ZN4core3ops5range11RangeBounds8contains17h74406e27ec42b809E
	.p2align	4, 0x90
__ZN4core3ops5range11RangeBounds8contains17h74406e27ec42b809E:
Lfunc_begin133:
	.loc	6 810 0
	.cfi_startproc
	pushq	%rbp
	.cfi_def_cfa_offset 16
	.cfi_offset %rbp, -16
	movq	%rsp, %rbp
	.cfi_def_cfa_register %rbp
	subq	$224, %rsp
	movq	%rdi, -208(%rbp)
	movq	%rsi, -192(%rbp)
	movq	%rdi, -88(%rbp)
Ltmp814:
	.loc	6 815 16 prologue_end
	callq	__ZN100_$LT$core..ops..range..RangeInclusive$LT$T$GT$$u20$as$u20$core..ops..range..RangeBounds$LT$T$GT$$GT$11start_bound17h6842c154c5a93a72E
	movq	%rdx, -168(%rbp)
	movq	%rax, -176(%rbp)
	movq	-176(%rbp), %rax
	movq	%rax, -200(%rbp)
	.loc	6 815 9 is_stmt 0
	testq	%rax, %rax
	je	LBB133_2
	jmp	LBB133_14
LBB133_14:
	.loc	6 0 9
	movq	-200(%rbp), %rax
	.loc	6 815 9
	subq	$1, %rax
	je	LBB133_3
	jmp	LBB133_15
LBB133_15:
	jmp	LBB133_4
	.loc	6 815 16
	ud2
LBB133_2:
	.loc	6 816 22 is_stmt 1
	movq	-168(%rbp), %rax
	movq	%rax, -160(%rbp)
Ltmp815:
	.loc	6 816 32 is_stmt 0
	leaq	-160(%rbp), %rax
	movq	%rax, -64(%rbp)
	.loc	6 816 41
	movq	-192(%rbp), %rax
	movq	%rax, -152(%rbp)
	leaq	-152(%rbp), %rax
	movq	%rax, -56(%rbp)
Ltmp816:
	.loc	5 1553 28 is_stmt 1
	movq	-160(%rbp), %rdi
	.loc	5 1553 35 is_stmt 0
	movq	-152(%rbp), %rsi
	.loc	5 1553 13
	callq	__ZN4core3cmp5impls56_$LT$impl$u20$core..cmp..PartialOrd$u20$for$u20$char$GT$2le17h9e688f09f852c842E
	andb	$1, %al
	movb	%al, -177(%rbp)
Ltmp817:
	.loc	6 816 44 is_stmt 1
	jmp	LBB133_5
LBB133_3:
	.loc	6 817 22
	movq	-168(%rbp), %rax
	movq	%rax, -144(%rbp)
Ltmp818:
	.loc	6 817 32 is_stmt 0
	leaq	-144(%rbp), %rax
	movq	%rax, -80(%rbp)
	.loc	6 817 40
	movq	-192(%rbp), %rax
	movq	%rax, -136(%rbp)
	leaq	-136(%rbp), %rax
	movq	%rax, -72(%rbp)
Ltmp819:
	.loc	5 1549 28 is_stmt 1
	movq	-144(%rbp), %rdi
	.loc	5 1549 35 is_stmt 0
	movq	-136(%rbp), %rsi
	.loc	5 1549 13
	callq	__ZN4core3cmp5impls56_$LT$impl$u20$core..cmp..PartialOrd$u20$for$u20$char$GT$2lt17he4312bc1366614ddE
	andb	$1, %al
	movb	%al, -177(%rbp)
Ltmp820:
	.loc	6 817 43 is_stmt 1
	jmp	LBB133_5
LBB133_4:
	.loc	6 818 26
	movb	$1, -177(%rbp)
LBB133_5:
	.loc	6 815 9
	testb	$1, -177(%rbp)
	jne	LBB133_7
	movb	$0, -178(%rbp)
	jmp	LBB133_13
LBB133_7:
	.loc	6 0 9 is_stmt 0
	movq	-208(%rbp), %rdi
	.loc	6 819 22 is_stmt 1
	callq	__ZN100_$LT$core..ops..range..RangeInclusive$LT$T$GT$$u20$as$u20$core..ops..range..RangeBounds$LT$T$GT$$GT$9end_bound17h78f19b6a9649f387E
	movq	%rdx, -112(%rbp)
	movq	%rax, -120(%rbp)
	movq	-120(%rbp), %rax
	movq	%rax, -216(%rbp)
	.loc	6 819 15 is_stmt 0
	testq	%rax, %rax
	je	LBB133_9
	jmp	LBB133_16
LBB133_16:
	.loc	6 0 15
	movq	-216(%rbp), %rax
	.loc	6 819 15
	subq	$1, %rax
	je	LBB133_10
	jmp	LBB133_17
LBB133_17:
	jmp	LBB133_11
	.loc	6 819 22
	ud2
LBB133_9:
	.loc	6 820 22 is_stmt 1
	movq	-112(%rbp), %rax
	movq	%rax, -24(%rbp)
Ltmp821:
	.loc	6 820 30 is_stmt 0
	leaq	-192(%rbp), %rcx
	movq	%rcx, -16(%rbp)
	.loc	6 820 38
	movq	%rax, -104(%rbp)
	leaq	-104(%rbp), %rax
	movq	%rax, -8(%rbp)
Ltmp822:
	.loc	5 1553 28 is_stmt 1
	movq	-192(%rbp), %rdi
	.loc	5 1553 35 is_stmt 0
	movq	-104(%rbp), %rsi
	.loc	5 1553 13
	callq	__ZN4core3cmp5impls56_$LT$impl$u20$core..cmp..PartialOrd$u20$for$u20$char$GT$2le17h9e688f09f852c842E
	andb	$1, %al
	movb	%al, -121(%rbp)
Ltmp823:
	.loc	6 820 40 is_stmt 1
	jmp	LBB133_12
LBB133_10:
	.loc	6 821 22
	movq	-112(%rbp), %rax
	movq	%rax, -48(%rbp)
Ltmp824:
	.loc	6 821 30 is_stmt 0
	leaq	-192(%rbp), %rcx
	movq	%rcx, -40(%rbp)
	.loc	6 821 37
	movq	%rax, -96(%rbp)
	leaq	-96(%rbp), %rax
	movq	%rax, -32(%rbp)
Ltmp825:
	.loc	5 1549 28 is_stmt 1
	movq	-192(%rbp), %rdi
	.loc	5 1549 35 is_stmt 0
	movq	-96(%rbp), %rsi
	.loc	5 1549 13
	callq	__ZN4core3cmp5impls56_$LT$impl$u20$core..cmp..PartialOrd$u20$for$u20$char$GT$2lt17he4312bc1366614ddE
	andb	$1, %al
	movb	%al, -121(%rbp)
Ltmp826:
	.loc	6 821 39 is_stmt 1
	jmp	LBB133_12
LBB133_11:
	.loc	6 822 26
	movb	$1, -121(%rbp)
LBB133_12:
	.loc	6 815 9
	movb	-121(%rbp), %al
	andb	$1, %al
	movb	%al, -178(%rbp)
LBB133_13:
	.loc	6 824 6
	movb	-178(%rbp), %al
	andb	$1, %al
	movzbl	%al, %eax
	addq	$224, %rsp
	popq	%rbp
	retq
Ltmp827:
Lfunc_end133:
	.cfi_endproc

	.globl	__ZN4core3ops5range25RangeInclusive$LT$Idx$GT$8contains17h95d9182d0148bba8E
	.p2align	4, 0x90
__ZN4core3ops5range25RangeInclusive$LT$Idx$GT$8contains17h95d9182d0148bba8E:
Lfunc_begin134:
	.loc	6 503 0
	.cfi_startproc
	pushq	%rbp
	.cfi_def_cfa_offset 16
	.cfi_offset %rbp, -16
	movq	%rsp, %rbp
	.cfi_def_cfa_register %rbp
	subq	$16, %rsp
	movq	%rdi, -16(%rbp)
	movq	%rsi, -8(%rbp)
Ltmp828:
	.loc	6 508 9 prologue_end
	callq	__ZN4core3ops5range11RangeBounds8contains17h74406e27ec42b809E
	.loc	6 509 6
	andb	$1, %al
	movzbl	%al, %eax
	addq	$16, %rsp
	popq	%rbp
	retq
Ltmp829:
Lfunc_end134:
	.cfi_endproc

	.p2align	4, 0x90
__ZN4core3ops8function2Fn4call17h373a243daf3ab35cE:
Lfunc_begin135:
	.file	46 "/rustc/2c8cc343237b8f7d5a3c3703e3a87f2eb2c54a74/library/core/src/ops" "function.rs"
	.loc	46 79 0
	.cfi_startproc
	pushq	%rbp
	.cfi_def_cfa_offset 16
	.cfi_offset %rbp, -16
	movq	%rsp, %rbp
	.cfi_def_cfa_register %rbp
	subq	$32, %rsp
	movq	%rsi, -24(%rbp)
	movl	%edx, -16(%rbp)
	movq	%rdi, -8(%rbp)
Ltmp830:
	.loc	46 79 5 prologue_end
	movq	-24(%rbp), %rdi
	movl	-16(%rbp), %esi
	callq	__ZN4core3ops9try_trait26NeverShortCircuit$LT$T$GT$14wrap_mut_2_imp17h9ab7756bbdaf2dc7E
	addq	$32, %rsp
	popq	%rbp
	retq
Ltmp831:
Lfunc_end135:
	.cfi_endproc

	.p2align	4, 0x90
__ZN4core3ops8function2Fn4call17h9c1a55ff90698dd1E:
Lfunc_begin136:
	.loc	46 79 0
	.cfi_startproc
	pushq	%rbp
	.cfi_def_cfa_offset 16
	.cfi_offset %rbp, -16
	movq	%rsp, %rbp
	.cfi_def_cfa_register %rbp
	subq	$32, %rsp
	movq	%rsi, -24(%rbp)
	movl	%edx, -16(%rbp)
	movq	%rdi, -8(%rbp)
Ltmp832:
	.loc	46 79 5 prologue_end
	movq	-24(%rbp), %rdi
	movl	-16(%rbp), %esi
	callq	__ZN4core3ops9try_trait26NeverShortCircuit$LT$T$GT$14wrap_mut_2_imp17h39d905ab02778b97E
	addq	$32, %rsp
	popq	%rbp
	retq
Ltmp833:
Lfunc_end136:
	.cfi_endproc

	.p2align	4, 0x90
__ZN4core3ops8function5FnMut8call_mut17h1fa9a8bb0ebf346eE:
Lfunc_begin137:
	.loc	46 166 0
	.cfi_startproc
	pushq	%rbp
	.cfi_def_cfa_offset 16
	.cfi_offset %rbp, -16
	movq	%rsp, %rbp
	.cfi_def_cfa_register %rbp
	subq	$16, %rsp
	movl	%esi, -12(%rbp)
	movq	%rdi, -8(%rbp)
Ltmp834:
	.loc	46 166 5 prologue_end
	movl	-12(%rbp), %edi
	callq	__ZN3url6parser19c0_control_or_space17h87cd9022429738ceE
	andb	$1, %al
	movzbl	%al, %eax
	addq	$16, %rsp
	popq	%rbp
	retq
Ltmp835:
Lfunc_end137:
	.cfi_endproc

	.p2align	4, 0x90
__ZN4core3ops8function5FnMut8call_mut17h47c24058e4f37e1fE:
Lfunc_begin138:
	.loc	46 166 0
	.cfi_startproc
	pushq	%rbp
	.cfi_def_cfa_offset 16
	.cfi_offset %rbp, -16
	movq	%rsp, %rbp
	.cfi_def_cfa_register %rbp
	subq	$16, %rsp
	movl	%esi, -12(%rbp)
	movq	%rdi, -8(%rbp)
Ltmp836:
	.loc	46 166 5 prologue_end
	movl	-12(%rbp), %edi
	callq	__ZN3url6parser21ascii_tab_or_new_line17hd76ebd72f4614b50E
	andb	$1, %al
	movzbl	%al, %eax
	addq	$16, %rsp
	popq	%rbp
	retq
Ltmp837:
Lfunc_end138:
	.cfi_endproc

	.p2align	4, 0x90
__ZN4core3ops8function6FnOnce9call_once17hb64f372c881aa7beE:
Lfunc_begin139:
	.loc	46 250 0
	.cfi_startproc
	pushq	%rbp
	.cfi_def_cfa_offset 16
	.cfi_offset %rbp, -16
	movq	%rsp, %rbp
	.cfi_def_cfa_register %rbp
	subq	$32, %rsp
	movq	%rdi, %rax
	movq	%rax, -32(%rbp)
	movq	(%rsi), %rax
	movq	%rax, -24(%rbp)
	movq	8(%rsi), %rax
	movq	%rax, -16(%rbp)
Ltmp838:
	.loc	46 250 5 prologue_end
	leaq	-24(%rbp), %rsi
	callq	__ZN3url4host4Host4Ipv617hba8a513ab8258d46E
	movq	-32(%rbp), %rax
	addq	$32, %rsp
	popq	%rbp
	retq
Ltmp839:
Lfunc_end139:
	.cfi_endproc

	.p2align	4, 0x90
__ZN4core3ops8function6FnOnce9call_once17hc0a0af35c6957e63E:
Lfunc_begin140:
	.loc	46 250 0
	.cfi_startproc
	pushq	%rbp
	.cfi_def_cfa_offset 16
	.cfi_offset %rbp, -16
	movq	%rsp, %rbp
	.cfi_def_cfa_register %rbp
	subq	$16, %rsp
	movl	%edi, -12(%rbp)
Ltmp840:
	.loc	46 250 5 prologue_end
	movl	-12(%rbp), %edi
	callq	__ZN3url6parser11ascii_alpha17h38f8ae6e817f12d2E
	andb	$1, %al
	movzbl	%al, %eax
	addq	$16, %rsp
	popq	%rbp
	retq
Ltmp841:
Lfunc_end140:
	.cfi_endproc

	.p2align	4, 0x90
__ZN4core3ops8function6FnOnce9call_once17hc9933f9431bd776dE:
Lfunc_begin141:
	.loc	46 250 0
	.cfi_startproc
	pushq	%rbp
	.cfi_def_cfa_offset 16
	.cfi_offset %rbp, -16
	movq	%rsp, %rbp
	.cfi_def_cfa_register %rbp
	subq	$32, %rsp
	movq	%rdi, %rax
	movq	%rax, -32(%rbp)
	movq	%rsi, -24(%rbp)
	movq	%rdx, -16(%rbp)
Ltmp842:
	.loc	46 250 5 prologue_end
	movq	-24(%rbp), %rsi
	movq	-16(%rbp), %rdx
	callq	__ZN5alloc3str56_$LT$impl$u20$alloc..borrow..ToOwned$u20$for$u20$str$GT$8to_owned17hf765024face0430dE
	movq	-32(%rbp), %rax
	addq	$32, %rsp
	popq	%rbp
	retq
Ltmp843:
Lfunc_end141:
	.cfi_endproc

	.p2align	4, 0x90
__ZN4core3ops8function6FnOnce9call_once17hced70591184b7c3fE:
Lfunc_begin142:
	.loc	46 250 0
	.cfi_startproc
	pushq	%rbp
	.cfi_def_cfa_offset 16
	.cfi_offset %rbp, -16
	movq	%rsp, %rbp
	.cfi_def_cfa_register %rbp
	subq	$32, %rsp
	movq	(%rdi), %rax
	movq	%rax, -24(%rbp)
	movl	8(%rdi), %eax
	movl	%eax, -16(%rbp)
Ltmp844:
	.loc	46 250 5 prologue_end
	leaq	-24(%rbp), %rdi
	callq	__ZN50_$LT$T$u20$as$u20$core..convert..Into$LT$U$GT$$GT$4into17hf1e4dd23e2f88386E
	addq	$32, %rsp
	popq	%rbp
	retq
Ltmp845:
Lfunc_end142:
	.cfi_endproc

	.globl	__ZN4core3ops9try_trait26NeverShortCircuit$LT$T$GT$14wrap_mut_2_imp17h39d905ab02778b97E
	.p2align	4, 0x90
__ZN4core3ops9try_trait26NeverShortCircuit$LT$T$GT$14wrap_mut_2_imp17h39d905ab02778b97E:
Lfunc_begin143:
	.loc	17 384 0
	.cfi_startproc
	pushq	%rbp
	.cfi_def_cfa_offset 16
	.cfi_offset %rbp, -16
	movq	%rsp, %rbp
	.cfi_def_cfa_register %rbp
	subq	$32, %rsp
	movq	%rdi, -24(%rbp)
	movl	%esi, -12(%rbp)
Ltmp846:
	.loc	17 386 13 prologue_end
	movl	%esi, -4(%rbp)
Ltmp847:
	.loc	17 388 27
	movl	%esi, -28(%rbp)
	movl	-28(%rbp), %esi
	callq	__ZN4core4iter6traits8iterator8Iterator8for_each4call28_$u7b$$u7b$closure$u7d$$u7d$17h5f5ce70e520b034eE
Ltmp848:
	.loc	17 389 6
	addq	$32, %rsp
	popq	%rbp
	retq
Ltmp849:
Lfunc_end143:
	.cfi_endproc

	.globl	__ZN4core3ops9try_trait26NeverShortCircuit$LT$T$GT$14wrap_mut_2_imp17h9ab7756bbdaf2dc7E
	.p2align	4, 0x90
__ZN4core3ops9try_trait26NeverShortCircuit$LT$T$GT$14wrap_mut_2_imp17h9ab7756bbdaf2dc7E:
Lfunc_begin144:
	.loc	17 384 0
	.cfi_startproc
	pushq	%rbp
	.cfi_def_cfa_offset 16
	.cfi_offset %rbp, -16
	movq	%rsp, %rbp
	.cfi_def_cfa_register %rbp
	subq	$32, %rsp
	movq	%rdi, -24(%rbp)
	movl	%esi, -12(%rbp)
Ltmp850:
	.loc	17 386 13 prologue_end
	movl	%esi, -4(%rbp)
Ltmp851:
	.loc	17 388 27
	movl	%esi, -28(%rbp)
	movl	-28(%rbp), %esi
	callq	__ZN4core4iter6traits8iterator8Iterator8for_each4call28_$u7b$$u7b$closure$u7d$$u7d$17h667a6339ff9f4720E
Ltmp852:
	.loc	17 389 6
	addq	$32, %rsp
	popq	%rbp
	retq
Ltmp853:
Lfunc_end144:
	.cfi_endproc

	.globl	__ZN4core3ptr119drop_in_place$LT$core..result..Result$LT$$LP$url..host..Host$C$url..parser..Input$RP$$C$url..parser..ParseError$GT$$GT$17h10ba9f6f602d216eE
	.p2align	4, 0x90
__ZN4core3ptr119drop_in_place$LT$core..result..Result$LT$$LP$url..host..Host$C$url..parser..Input$RP$$C$url..parser..ParseError$GT$$GT$17h10ba9f6f602d216eE:
Lfunc_begin145:
	.loc	11 490 0
	.cfi_startproc
	pushq	%rbp
	.cfi_def_cfa_offset 16
	.cfi_offset %rbp, -16
	movq	%rsp, %rbp
	.cfi_def_cfa_register %rbp
	subq	$16, %rsp
	movq	%rdi, -16(%rbp)
	movq	%rdi, -8(%rbp)
Ltmp854:
	.loc	11 490 1 prologue_end
	xorl	%eax, %eax
	movl	$1, %ecx
	cmpb	$3, (%rdi)
	cmoveq	%rcx, %rax
	cmpq	$0, %rax
	jne	LBB145_2
	.loc	11 0 1 is_stmt 0
	movq	-16(%rbp), %rdi
	.loc	11 490 1
	callq	__ZN4core3ptr65drop_in_place$LT$$LP$url..host..Host$C$url..parser..Input$RP$$GT$17h996682c956f3fb4eE
LBB145_2:
	addq	$16, %rsp
	popq	%rbp
	retq
Ltmp855:
Lfunc_end145:
	.cfi_endproc

	.globl	__ZN4core3ptr161drop_in_place$LT$$LT$alloc..vec..into_iter..IntoIter$LT$T$C$A$GT$$u20$as$u20$core..ops..drop..Drop$GT$..drop..DropGuard$LT$$RF$str$C$alloc..alloc..Global$GT$$GT$17hc017f960f7355beeE
	.p2align	4, 0x90
__ZN4core3ptr161drop_in_place$LT$$LT$alloc..vec..into_iter..IntoIter$LT$T$C$A$GT$$u20$as$u20$core..ops..drop..Drop$GT$..drop..DropGuard$LT$$RF$str$C$alloc..alloc..Global$GT$$GT$17hc017f960f7355beeE:
Lfunc_begin146:
	.loc	11 490 0 is_stmt 1
	.cfi_startproc
	pushq	%rbp
	.cfi_def_cfa_offset 16
	.cfi_offset %rbp, -16
	movq	%rsp, %rbp
	.cfi_def_cfa_register %rbp
	subq	$16, %rsp
	movq	%rdi, -8(%rbp)
Ltmp856:
	.loc	11 490 1 prologue_end
	callq	__ZN157_$LT$$LT$alloc..vec..into_iter..IntoIter$LT$T$C$A$GT$$u20$as$u20$core..ops..drop..Drop$GT$..drop..DropGuard$LT$T$C$A$GT$$u20$as$u20$core..ops..drop..Drop$GT$4drop17hcc430b0907645420E
	addq	$16, %rsp
	popq	%rbp
	retq
Ltmp857:
Lfunc_end146:
	.cfi_endproc

	.p2align	4, 0x90
__ZN4core3ptr25drop_in_place$LT$bool$GT$17hee955d396809a6d4E:
Lfunc_begin147:
	.loc	11 490 0
	.cfi_startproc
	pushq	%rbp
	.cfi_def_cfa_offset 16
	.cfi_offset %rbp, -16
	movq	%rsp, %rbp
	.cfi_def_cfa_register %rbp
	pushq	%rax
	movq	%rdi, -8(%rbp)
Ltmp858:
	.loc	11 490 1 prologue_end
	addq	$8, %rsp
	popq	%rbp
	retq
Ltmp859:
Lfunc_end147:
	.cfi_endproc

	.p2align	4, 0x90
__ZN4core3ptr28drop_in_place$LT$$RF$str$GT$17h9cc3edd21f8ee79dE:
Lfunc_begin148:
	.loc	11 490 0
	.cfi_startproc
	pushq	%rbp
	.cfi_def_cfa_offset 16
	.cfi_offset %rbp, -16
	movq	%rsp, %rbp
	.cfi_def_cfa_register %rbp
	pushq	%rax
	movq	%rdi, -8(%rbp)
Ltmp860:
	.loc	11 490 1 prologue_end
	addq	$8, %rsp
	popq	%rbp
	retq
Ltmp861:
Lfunc_end148:
	.cfi_endproc

	.p2align	4, 0x90
__ZN4core3ptr28drop_in_place$LT$$RF$u16$GT$17h41d3651b6bd0f416E:
Lfunc_begin149:
	.loc	11 490 0
	.cfi_startproc
	pushq	%rbp
	.cfi_def_cfa_offset 16
	.cfi_offset %rbp, -16
	movq	%rsp, %rbp
	.cfi_def_cfa_register %rbp
	pushq	%rax
	movq	%rdi, -8(%rbp)
Ltmp862:
	.loc	11 490 1 prologue_end
	addq	$8, %rsp
	popq	%rbp
	retq
Ltmp863:
Lfunc_end149:
	.cfi_endproc

	.p2align	4, 0x90
__ZN4core3ptr28drop_in_place$LT$$RF$u32$GT$17h90a61eb14ea66100E:
Lfunc_begin150:
	.loc	11 490 0
	.cfi_startproc
	pushq	%rbp
	.cfi_def_cfa_offset 16
	.cfi_offset %rbp, -16
	movq	%rsp, %rbp
	.cfi_def_cfa_register %rbp
	pushq	%rax
	movq	%rdi, -8(%rbp)
Ltmp864:
	.loc	11 490 1 prologue_end
	addq	$8, %rsp
	popq	%rbp
	retq
Ltmp865:
Lfunc_end150:
	.cfi_endproc

	.globl	__ZN4core3ptr29drop_in_place$LT$url..Url$GT$17hd0a4d90be9b48a0bE
	.p2align	4, 0x90
__ZN4core3ptr29drop_in_place$LT$url..Url$GT$17hd0a4d90be9b48a0bE:
Lfunc_begin151:
	.loc	11 490 0
	.cfi_startproc
	pushq	%rbp
	.cfi_def_cfa_offset 16
	.cfi_offset %rbp, -16
	movq	%rsp, %rbp
	.cfi_def_cfa_register %rbp
	subq	$16, %rsp
	movq	%rdi, -8(%rbp)
Ltmp866:
	.loc	11 490 1 prologue_end
	callq	__ZN4core3ptr42drop_in_place$LT$alloc..string..String$GT$17h4e7d11210995f00cE
	addq	$16, %rsp
	popq	%rbp
	retq
Ltmp867:
Lfunc_end151:
	.cfi_endproc

	.p2align	4, 0x90
__ZN4core3ptr30drop_in_place$LT$$RF$usize$GT$17h4b256fc234c000a3E:
Lfunc_begin152:
	.loc	11 490 0
	.cfi_startproc
	pushq	%rbp
	.cfi_def_cfa_offset 16
	.cfi_offset %rbp, -16
	movq	%rsp, %rbp
	.cfi_def_cfa_register %rbp
	pushq	%rax
	movq	%rdi, -8(%rbp)
Ltmp868:
	.loc	11 490 1 prologue_end
	addq	$8, %rsp
	popq	%rbp
	retq
Ltmp869:
Lfunc_end152:
	.cfi_endproc

	.p2align	4, 0x90
__ZN4core3ptr32drop_in_place$LT$$RF$$RF$str$GT$17hc779d056703645feE:
Lfunc_begin153:
	.loc	11 490 0
	.cfi_startproc
	pushq	%rbp
	.cfi_def_cfa_offset 16
	.cfi_offset %rbp, -16
	movq	%rsp, %rbp
	.cfi_def_cfa_register %rbp
	pushq	%rax
	movq	%rdi, -8(%rbp)
Ltmp870:
	.loc	11 490 1 prologue_end
	addq	$8, %rsp
	popq	%rbp
	retq
Ltmp871:
Lfunc_end153:
	.cfi_endproc

	.globl	__ZN4core3ptr34drop_in_place$LT$url..UrlQuery$GT$17hce3e5359463547e5E
	.p2align	4, 0x90
__ZN4core3ptr34drop_in_place$LT$url..UrlQuery$GT$17hce3e5359463547e5E:
Lfunc_begin154:
	.loc	11 490 0
	.cfi_startproc
	.cfi_personality 155, _rust_eh_personality
	.cfi_lsda 16, Lexception14
	pushq	%rbp
	.cfi_def_cfa_offset 16
	.cfi_offset %rbp, -16
	movq	%rsp, %rbp
	.cfi_def_cfa_register %rbp
	subq	$32, %rsp
	movq	%rdi, -32(%rbp)
	movq	%rdi, -24(%rbp)
Ltmp872:
Ltmp878:
	.loc	11 490 1 prologue_end
	callq	__ZN55_$LT$url..UrlQuery$u20$as$u20$core..ops..drop..Drop$GT$4drop17h70bcadb4dcf58437E
Ltmp873:
	jmp	LBB154_3
LBB154_1:
	.loc	11 0 1 is_stmt 0
	movq	-32(%rbp), %rdi
	.loc	11 490 1
	addq	$8, %rdi
Ltmp875:
	callq	__ZN4core3ptr70drop_in_place$LT$core..option..Option$LT$alloc..string..String$GT$$GT$17h01662e6e383dff1fE
Ltmp876:
	jmp	LBB154_5
LBB154_2:
Ltmp874:
	.loc	11 0 1
	movq	%rax, %rcx
	movl	%edx, %eax
	movq	%rcx, -16(%rbp)
	movl	%eax, -8(%rbp)
	jmp	LBB154_1
LBB154_3:
	movq	-32(%rbp), %rdi
	.loc	11 490 1
	addq	$8, %rdi
	callq	__ZN4core3ptr70drop_in_place$LT$core..option..Option$LT$alloc..string..String$GT$$GT$17h01662e6e383dff1fE
	addq	$32, %rsp
	popq	%rbp
	retq
LBB154_4:
Ltmp877:
	callq	__ZN4core9panicking19panic_cannot_unwind17h1fbca7e1d7f56ae1E
LBB154_5:
	movq	-16(%rbp), %rdi
	callq	__Unwind_Resume
Ltmp879:
Lfunc_end154:
	.cfi_endproc
	.section	__TEXT,__gcc_except_tab
	.p2align	2
GCC_except_table154:
Lexception14:
	.byte	255
	.byte	255
	.byte	1
	.uleb128 Lcst_end14-Lcst_begin14
Lcst_begin14:
	.uleb128 Ltmp872-Lfunc_begin154
	.uleb128 Ltmp873-Ltmp872
	.uleb128 Ltmp874-Lfunc_begin154
	.byte	0
	.uleb128 Ltmp875-Lfunc_begin154
	.uleb128 Ltmp876-Ltmp875
	.uleb128 Ltmp877-Lfunc_begin154
	.byte	0
	.uleb128 Ltmp876-Lfunc_begin154
	.uleb128 Lfunc_end154-Ltmp876
	.byte	0
	.byte	0
Lcst_end14:
	.p2align	2

	.section	__TEXT,__text,regular,pure_instructions
	.globl	__ZN4core3ptr36drop_in_place$LT$url..host..Host$GT$17hf20754dad57fea29E
	.p2align	4, 0x90
__ZN4core3ptr36drop_in_place$LT$url..host..Host$GT$17hf20754dad57fea29E:
Lfunc_begin155:
	.loc	11 490 0 is_stmt 1
	.cfi_startproc
	pushq	%rbp
	.cfi_def_cfa_offset 16
	.cfi_offset %rbp, -16
	movq	%rsp, %rbp
	.cfi_def_cfa_register %rbp
	subq	$32, %rsp
	movq	%rdi, -24(%rbp)
	movq	%rdi, -8(%rbp)
Ltmp880:
	.loc	11 490 1 prologue_end
	movzbl	(%rdi), %eax
	movq	%rax, -16(%rbp)
	testq	%rax, %rax
	je	LBB155_2
	jmp	LBB155_3
LBB155_3:
	.loc	11 0 1 is_stmt 0
	movq	-16(%rbp), %rax
	.loc	11 490 1
	subq	$1, %rax
	jne	LBB155_1
	jmp	LBB155_1
LBB155_1:
	addq	$32, %rsp
	popq	%rbp
	retq
LBB155_2:
	.loc	11 0 1
	movq	-24(%rbp), %rdi
	.loc	11 490 1
	addq	$8, %rdi
	callq	__ZN4core3ptr42drop_in_place$LT$alloc..string..String$GT$17h4e7d11210995f00cE
	jmp	LBB155_1
Ltmp881:
Lfunc_end155:
	.cfi_endproc

	.p2align	4, 0x90
__ZN4core3ptr37drop_in_place$LT$core..fmt..Error$GT$17h921c3f661a4e23ecE:
Lfunc_begin156:
	.loc	11 490 0 is_stmt 1
	.cfi_startproc
	pushq	%rbp
	.cfi_def_cfa_offset 16
	.cfi_offset %rbp, -16
	movq	%rsp, %rbp
	.cfi_def_cfa_register %rbp
	pushq	%rax
	movq	%rdi, -8(%rbp)
Ltmp882:
	.loc	11 490 1 prologue_end
	addq	$8, %rsp
	popq	%rbp
	retq
Ltmp883:
Lfunc_end156:
	.cfi_endproc

	.globl	__ZN4core3ptr39drop_in_place$LT$std..path..PathBuf$GT$17hcd0cdbf5e40a9fdfE
	.p2align	4, 0x90
__ZN4core3ptr39drop_in_place$LT$std..path..PathBuf$GT$17hcd0cdbf5e40a9fdfE:
Lfunc_begin157:
	.loc	11 490 0
	.cfi_startproc
	pushq	%rbp
	.cfi_def_cfa_offset 16
	.cfi_offset %rbp, -16
	movq	%rsp, %rbp
	.cfi_def_cfa_register %rbp
	subq	$16, %rsp
	movq	%rdi, -8(%rbp)
Ltmp884:
	.loc	11 490 1 prologue_end
	callq	__ZN4core3ptr47drop_in_place$LT$std..ffi..os_str..OsString$GT$17hf0dab148c3d7f5dcE
	addq	$16, %rsp
	popq	%rbp
	retq
Ltmp885:
Lfunc_end157:
	.cfi_endproc

	.p2align	4, 0x90
__ZN4core3ptr40drop_in_place$LT$$RF$url..host..Host$GT$17hc0e8486c5544d80bE:
Lfunc_begin158:
	.loc	11 490 0
	.cfi_startproc
	pushq	%rbp
	.cfi_def_cfa_offset 16
	.cfi_offset %rbp, -16
	movq	%rsp, %rbp
	.cfi_def_cfa_register %rbp
	pushq	%rax
	movq	%rdi, -8(%rbp)
Ltmp886:
	.loc	11 490 1 prologue_end
	addq	$8, %rsp
	popq	%rbp
	retq
Ltmp887:
Lfunc_end158:
	.cfi_endproc

	.globl	__ZN4core3ptr40drop_in_place$LT$url..origin..Origin$GT$17h3d9b9e9c6a2d51f7E
	.p2align	4, 0x90
__ZN4core3ptr40drop_in_place$LT$url..origin..Origin$GT$17h3d9b9e9c6a2d51f7E:
Lfunc_begin159:
	.loc	11 490 0
	.cfi_startproc
	.cfi_personality 155, _rust_eh_personality
	.cfi_lsda 16, Lexception15
	pushq	%rbp
	.cfi_def_cfa_offset 16
	.cfi_offset %rbp, -16
	movq	%rsp, %rbp
	.cfi_def_cfa_register %rbp
	subq	$32, %rsp
	movq	%rdi, -32(%rbp)
	movq	%rdi, -24(%rbp)
Ltmp894:
	.loc	11 490 1 prologue_end
	movzwl	(%rdi), %eax
	cmpq	$0, %rax
	jne	LBB159_2
LBB159_1:
	addq	$32, %rsp
	popq	%rbp
	retq
LBB159_2:
	.loc	11 0 1 is_stmt 0
	movq	-32(%rbp), %rdi
	.loc	11 490 1
	addq	$8, %rdi
Ltmp888:
	callq	__ZN4core3ptr42drop_in_place$LT$alloc..string..String$GT$17h4e7d11210995f00cE
Ltmp889:
	jmp	LBB159_5
LBB159_3:
	.loc	11 0 1
	movq	-32(%rbp), %rdi
	.loc	11 490 1
	addq	$32, %rdi
Ltmp891:
	callq	__ZN4core3ptr36drop_in_place$LT$url..host..Host$GT$17hf20754dad57fea29E
Ltmp892:
	jmp	LBB159_7
LBB159_4:
Ltmp890:
	.loc	11 0 1
	movq	%rax, %rcx
	movl	%edx, %eax
	movq	%rcx, -16(%rbp)
	movl	%eax, -8(%rbp)
	jmp	LBB159_3
LBB159_5:
	movq	-32(%rbp), %rdi
	.loc	11 490 1
	addq	$32, %rdi
	callq	__ZN4core3ptr36drop_in_place$LT$url..host..Host$GT$17hf20754dad57fea29E
	jmp	LBB159_1
LBB159_6:
Ltmp893:
	callq	__ZN4core9panicking19panic_cannot_unwind17h1fbca7e1d7f56ae1E
LBB159_7:
	movq	-16(%rbp), %rdi
	callq	__Unwind_Resume
Ltmp895:
Lfunc_end159:
	.cfi_endproc
	.section	__TEXT,__gcc_except_tab
	.p2align	2
GCC_except_table159:
Lexception15:
	.byte	255
	.byte	255
	.byte	1
	.uleb128 Lcst_end15-Lcst_begin15
Lcst_begin15:
	.uleb128 Ltmp888-Lfunc_begin159
	.uleb128 Ltmp889-Ltmp888
	.uleb128 Ltmp890-Lfunc_begin159
	.byte	0
	.uleb128 Ltmp891-Lfunc_begin159
	.uleb128 Ltmp892-Ltmp891
	.uleb128 Ltmp893-Lfunc_begin159
	.byte	0
	.uleb128 Ltmp892-Lfunc_begin159
	.uleb128 Lfunc_end159-Ltmp892
	.byte	0
	.byte	0
Lcst_end15:
	.p2align	2

	.section	__TEXT,__text,regular,pure_instructions
	.globl	__ZN4core3ptr40drop_in_place$LT$url..parser..Parser$GT$17haedf8e856ddde207E
	.p2align	4, 0x90
__ZN4core3ptr40drop_in_place$LT$url..parser..Parser$GT$17haedf8e856ddde207E:
Lfunc_begin160:
	.loc	11 490 0 is_stmt 1
	.cfi_startproc
	pushq	%rbp
	.cfi_def_cfa_offset 16
	.cfi_offset %rbp, -16
	movq	%rsp, %rbp
	.cfi_def_cfa_register %rbp
	subq	$16, %rsp
	movq	%rdi, -8(%rbp)
Ltmp896:
	.loc	11 490 1 prologue_end
	addq	$40, %rdi
	callq	__ZN4core3ptr42drop_in_place$LT$alloc..string..String$GT$17h4e7d11210995f00cE
	addq	$16, %rsp
	popq	%rbp
	retq
Ltmp897:
Lfunc_end160:
	.cfi_endproc

	.globl	__ZN4core3ptr41drop_in_place$LT$alloc..string..Drain$GT$17h6bc188fa2de2ec98E
	.p2align	4, 0x90
__ZN4core3ptr41drop_in_place$LT$alloc..string..Drain$GT$17h6bc188fa2de2ec98E:
Lfunc_begin161:
	.loc	11 490 0
	.cfi_startproc
	pushq	%rbp
	.cfi_def_cfa_offset 16
	.cfi_offset %rbp, -16
	movq	%rsp, %rbp
	.cfi_def_cfa_register %rbp
	subq	$16, %rsp
	movq	%rdi, -8(%rbp)
Ltmp898:
	.loc	11 490 1 prologue_end
	callq	__ZN62_$LT$alloc..string..Drain$u20$as$u20$core..ops..drop..Drop$GT$4drop17ha9f2bd803efb3e28E
	addq	$16, %rsp
	popq	%rbp
	retq
Ltmp899:
Lfunc_end161:
	.cfi_endproc

	.p2align	4, 0x90
__ZN4core3ptr44drop_in_place$LT$url..parser..ParseError$GT$17hb8060197bdc1c375E:
Lfunc_begin162:
	.loc	11 490 0
	.cfi_startproc
	pushq	%rbp
	.cfi_def_cfa_offset 16
	.cfi_offset %rbp, -16
	movq	%rsp, %rbp
	.cfi_def_cfa_register %rbp
	pushq	%rax
	movq	%rdi, -8(%rbp)
Ltmp900:
	.loc	11 490 1 prologue_end
	addq	$8, %rsp
	popq	%rbp
	retq
Ltmp901:
Lfunc_end162:
	.cfi_endproc

	.p2align	4, 0x90
__ZN4core3ptr45drop_in_place$LT$$RF$$RF$mut$u20$url..Url$GT$17h7c9043f09b3652acE:
Lfunc_begin163:
	.loc	11 490 0
	.cfi_startproc
	pushq	%rbp
	.cfi_def_cfa_offset 16
	.cfi_offset %rbp, -16
	movq	%rsp, %rbp
	.cfi_def_cfa_register %rbp
	pushq	%rax
	movq	%rdi, -8(%rbp)
Ltmp902:
	.loc	11 490 1 prologue_end
	addq	$8, %rsp
	popq	%rbp
	retq
Ltmp903:
Lfunc_end163:
	.cfi_endproc

	.p2align	4, 0x90
__ZN4core3ptr46drop_in_place$LT$$RF$alloc..string..String$GT$17h2a37e1f032fe2808E:
Lfunc_begin164:
	.loc	11 490 0
	.cfi_startproc
	pushq	%rbp
	.cfi_def_cfa_offset 16
	.cfi_offset %rbp, -16
	movq	%rsp, %rbp
	.cfi_def_cfa_register %rbp
	pushq	%rax
	movq	%rdi, -8(%rbp)
Ltmp904:
	.loc	11 490 1 prologue_end
	addq	$8, %rsp
	popq	%rbp
	retq
Ltmp905:
Lfunc_end164:
	.cfi_endproc

	.globl	__ZN4core3ptr47drop_in_place$LT$alloc..vec..Vec$LT$u32$GT$$GT$17h49ffa9aa518af09fE
	.p2align	4, 0x90
__ZN4core3ptr47drop_in_place$LT$alloc..vec..Vec$LT$u32$GT$$GT$17h49ffa9aa518af09fE:
Lfunc_begin165:
	.loc	11 490 0
	.cfi_startproc
	.cfi_personality 155, _rust_eh_personality
	.cfi_lsda 16, Lexception16
	pushq	%rbp
	.cfi_def_cfa_offset 16
	.cfi_offset %rbp, -16
	movq	%rsp, %rbp
	.cfi_def_cfa_register %rbp
	subq	$32, %rsp
	movq	%rdi, -32(%rbp)
	movq	%rdi, -24(%rbp)
Ltmp906:
Ltmp912:
	.loc	11 490 1 prologue_end
	callq	__ZN70_$LT$alloc..vec..Vec$LT$T$C$A$GT$$u20$as$u20$core..ops..drop..Drop$GT$4drop17h0de50ce7aa0255ffE
Ltmp907:
	jmp	LBB165_3
LBB165_1:
Ltmp909:
	.loc	11 0 1 is_stmt 0
	movq	-32(%rbp), %rdi
	.loc	11 490 1
	callq	__ZN4core3ptr54drop_in_place$LT$alloc..raw_vec..RawVec$LT$u32$GT$$GT$17h0254e98977945604E
Ltmp910:
	jmp	LBB165_5
LBB165_2:
Ltmp908:
	.loc	11 0 1
	movq	%rax, %rcx
	movl	%edx, %eax
	movq	%rcx, -16(%rbp)
	movl	%eax, -8(%rbp)
	jmp	LBB165_1
LBB165_3:
	movq	-32(%rbp), %rdi
	.loc	11 490 1
	callq	__ZN4core3ptr54drop_in_place$LT$alloc..raw_vec..RawVec$LT$u32$GT$$GT$17h0254e98977945604E
	addq	$32, %rsp
	popq	%rbp
	retq
LBB165_4:
Ltmp911:
	callq	__ZN4core9panicking19panic_cannot_unwind17h1fbca7e1d7f56ae1E
LBB165_5:
	movq	-16(%rbp), %rdi
	callq	__Unwind_Resume
Ltmp913:
Lfunc_end165:
	.cfi_endproc
	.section	__TEXT,__gcc_except_tab
	.p2align	2
GCC_except_table165:
Lexception16:
	.byte	255
	.byte	255
	.byte	1
	.uleb128 Lcst_end16-Lcst_begin16
Lcst_begin16:
	.uleb128 Ltmp906-Lfunc_begin165
	.uleb128 Ltmp907-Ltmp906
	.uleb128 Ltmp908-Lfunc_begin165
	.byte	0
	.uleb128 Ltmp909-Lfunc_begin165
	.uleb128 Ltmp910-Ltmp909
	.uleb128 Ltmp911-Lfunc_begin165
	.byte	0
	.uleb128 Ltmp910-Lfunc_begin165
	.uleb128 Lfunc_end165-Ltmp910
	.byte	0
	.byte	0
Lcst_end16:
	.p2align	2

	.section	__TEXT,__text,regular,pure_instructions
	.globl	__ZN4core3ptr47drop_in_place$LT$std..ffi..os_str..OsString$GT$17hf0dab148c3d7f5dcE
	.p2align	4, 0x90
__ZN4core3ptr47drop_in_place$LT$std..ffi..os_str..OsString$GT$17hf0dab148c3d7f5dcE:
Lfunc_begin166:
	.loc	11 490 0 is_stmt 1
	.cfi_startproc
	pushq	%rbp
	.cfi_def_cfa_offset 16
	.cfi_offset %rbp, -16
	movq	%rsp, %rbp
	.cfi_def_cfa_register %rbp
	subq	$16, %rsp
	movq	%rdi, -8(%rbp)
Ltmp914:
	.loc	11 490 1 prologue_end
	callq	__ZN4core3ptr48drop_in_place$LT$std..sys..unix..os_str..Buf$GT$17h9caf2031ff3f1d96E
	addq	$16, %rsp
	popq	%rbp
	retq
Ltmp915:
Lfunc_end166:
	.cfi_endproc

	.globl	__ZN4core3ptr48drop_in_place$LT$std..sys..unix..os_str..Buf$GT$17h9caf2031ff3f1d96E
	.p2align	4, 0x90
__ZN4core3ptr48drop_in_place$LT$std..sys..unix..os_str..Buf$GT$17h9caf2031ff3f1d96E:
Lfunc_begin167:
	.loc	11 490 0
	.cfi_startproc
	pushq	%rbp
	.cfi_def_cfa_offset 16
	.cfi_offset %rbp, -16
	movq	%rsp, %rbp
	.cfi_def_cfa_register %rbp
	subq	$16, %rsp
	movq	%rdi, -8(%rbp)
Ltmp916:
	.loc	11 490 1 prologue_end
	callq	__ZN4core3ptr46drop_in_place$LT$alloc..vec..Vec$LT$u8$GT$$GT$17h0ddc1914ea669d68E
	addq	$16, %rsp
	popq	%rbp
	retq
Ltmp917:
Lfunc_end167:
	.cfi_endproc

	.globl	__ZN4core3ptr4swap17h0c57c68aeb1fa107E
	.p2align	4, 0x90
__ZN4core3ptr4swap17h0c57c68aeb1fa107E:
Lfunc_begin168:
	.loc	11 841 0
	.cfi_startproc
	pushq	%rbp
	.cfi_def_cfa_offset 16
	.cfi_offset %rbp, -16
	movq	%rsp, %rbp
	.cfi_def_cfa_register %rbp
	subq	$88, %rsp
	movq	%rdi, -80(%rbp)
	movq	%rsi, -72(%rbp)
Ltmp918:
	.loc	11 852 29 prologue_end
	movq	%rdi, -64(%rbp)
	.loc	11 852 32 is_stmt 0
	leaq	-82(%rbp), %rax
	movq	%rax, -56(%rbp)
Ltmp919:
	.loc	12 569 9 is_stmt 1
	leaq	-82(%rbp), %rax
	movq	%rax, -48(%rbp)
Ltmp920:
	.loc	15 2372 9
	movw	(%rdi), %ax
	movw	%ax, -82(%rbp)
Ltmp921:
	.loc	11 853 14
	movq	%rsi, -40(%rbp)
	.loc	11 853 17 is_stmt 0
	movq	%rdi, -32(%rbp)
Ltmp922:
	.loc	15 2458 9 is_stmt 1
	movw	(%rsi), %ax
	movw	%ax, (%rdi)
Ltmp923:
	.loc	11 854 29
	leaq	-82(%rbp), %rax
	movq	%rax, -24(%rbp)
Ltmp924:
	.loc	12 530 9
	leaq	-82(%rbp), %rax
	movq	%rax, -16(%rbp)
Ltmp925:
	.loc	11 854 43
	movq	%rsi, -8(%rbp)
Ltmp926:
	.loc	15 2372 9
	movw	-82(%rbp), %ax
	movw	%ax, (%rsi)
Ltmp927:
	.loc	11 856 2
	addq	$88, %rsp
	popq	%rbp
	retq
Ltmp928:
Lfunc_end168:
	.cfi_endproc

	.p2align	4, 0x90
__ZN4core3ptr50drop_in_place$LT$$RF$url..origin..OpaqueOrigin$GT$17hc3c524b1b39dba2cE:
Lfunc_begin169:
	.loc	11 490 0
	.cfi_startproc
	pushq	%rbp
	.cfi_def_cfa_offset 16
	.cfi_offset %rbp, -16
	movq	%rsp, %rbp
	.cfi_def_cfa_register %rbp
	pushq	%rax
	movq	%rdi, -8(%rbp)
Ltmp929:
	.loc	11 490 1 prologue_end
	addq	$8, %rsp
	popq	%rbp
	retq
Ltmp930:
Lfunc_end169:
	.cfi_endproc

	.globl	__ZN4core3ptr51drop_in_place$LT$alloc..vec..Vec$LT$$RF$str$GT$$GT$17h043b1fbc8ff074bbE
	.p2align	4, 0x90
__ZN4core3ptr51drop_in_place$LT$alloc..vec..Vec$LT$$RF$str$GT$$GT$17h043b1fbc8ff074bbE:
Lfunc_begin170:
	.loc	11 490 0
	.cfi_startproc
	.cfi_personality 155, _rust_eh_personality
	.cfi_lsda 16, Lexception17
	pushq	%rbp
	.cfi_def_cfa_offset 16
	.cfi_offset %rbp, -16
	movq	%rsp, %rbp
	.cfi_def_cfa_register %rbp
	subq	$32, %rsp
	movq	%rdi, -32(%rbp)
	movq	%rdi, -24(%rbp)
Ltmp931:
Ltmp937:
	.loc	11 490 1 prologue_end
	callq	__ZN70_$LT$alloc..vec..Vec$LT$T$C$A$GT$$u20$as$u20$core..ops..drop..Drop$GT$4drop17h3af53e57f6b3c289E
Ltmp932:
	jmp	LBB170_3
LBB170_1:
Ltmp934:
	.loc	11 0 1 is_stmt 0
	movq	-32(%rbp), %rdi
	.loc	11 490 1
	callq	__ZN4core3ptr58drop_in_place$LT$alloc..raw_vec..RawVec$LT$$RF$str$GT$$GT$17h6bfebed4ec59d405E
Ltmp935:
	jmp	LBB170_5
LBB170_2:
Ltmp933:
	.loc	11 0 1
	movq	%rax, %rcx
	movl	%edx, %eax
	movq	%rcx, -16(%rbp)
	movl	%eax, -8(%rbp)
	jmp	LBB170_1
LBB170_3:
	movq	-32(%rbp), %rdi
	.loc	11 490 1
	callq	__ZN4core3ptr58drop_in_place$LT$alloc..raw_vec..RawVec$LT$$RF$str$GT$$GT$17h6bfebed4ec59d405E
	addq	$32, %rsp
	popq	%rbp
	retq
LBB170_4:
Ltmp936:
	callq	__ZN4core9panicking19panic_cannot_unwind17h1fbca7e1d7f56ae1E
LBB170_5:
	movq	-16(%rbp), %rdi
	callq	__Unwind_Resume
Ltmp938:
Lfunc_end170:
	.cfi_endproc
	.section	__TEXT,__gcc_except_tab
	.p2align	2
GCC_except_table170:
Lexception17:
	.byte	255
	.byte	255
	.byte	1
	.uleb128 Lcst_end17-Lcst_begin17
Lcst_begin17:
	.uleb128 Ltmp931-Lfunc_begin170
	.uleb128 Ltmp932-Ltmp931
	.uleb128 Ltmp933-Lfunc_begin170
	.byte	0
	.uleb128 Ltmp934-Lfunc_begin170
	.uleb128 Ltmp935-Ltmp934
	.uleb128 Ltmp936-Lfunc_begin170
	.byte	0
	.uleb128 Ltmp935-Lfunc_begin170
	.uleb128 Lfunc_end170-Ltmp935
	.byte	0
	.byte	0
Lcst_end17:
	.p2align	2

	.section	__TEXT,__text,regular,pure_instructions
	.p2align	4, 0x90
__ZN4core3ptr52drop_in_place$LT$$RF$std..net..ip_addr..Ipv4Addr$GT$17h3cd5dcaacf9411b2E:
Lfunc_begin171:
	.loc	11 490 0 is_stmt 1
	.cfi_startproc
	pushq	%rbp
	.cfi_def_cfa_offset 16
	.cfi_offset %rbp, -16
	movq	%rsp, %rbp
	.cfi_def_cfa_register %rbp
	pushq	%rax
	movq	%rdi, -8(%rbp)
Ltmp939:
	.loc	11 490 1 prologue_end
	addq	$8, %rsp
	popq	%rbp
	retq
Ltmp940:
Lfunc_end171:
	.cfi_endproc

	.p2align	4, 0x90
__ZN4core3ptr52drop_in_place$LT$$RF$std..net..ip_addr..Ipv6Addr$GT$17hbfda5f62fa91ff87E:
Lfunc_begin172:
	.loc	11 490 0
	.cfi_startproc
	pushq	%rbp
	.cfi_def_cfa_offset 16
	.cfi_offset %rbp, -16
	movq	%rsp, %rbp
	.cfi_def_cfa_register %rbp
	pushq	%rax
	movq	%rdi, -8(%rbp)
Ltmp941:
	.loc	11 490 1 prologue_end
	addq	$8, %rsp
	popq	%rbp
	retq
Ltmp942:
Lfunc_end172:
	.cfi_endproc

	.p2align	4, 0x90
__ZN4core3ptr52drop_in_place$LT$core..num..error..ParseIntError$GT$17h7c7ed3df64b59bbbE:
Lfunc_begin173:
	.loc	11 490 0
	.cfi_startproc
	pushq	%rbp
	.cfi_def_cfa_offset 16
	.cfi_offset %rbp, -16
	movq	%rsp, %rbp
	.cfi_def_cfa_register %rbp
	pushq	%rax
	movq	%rdi, -8(%rbp)
Ltmp943:
	.loc	11 490 1 prologue_end
	addq	$8, %rsp
	popq	%rbp
	retq
Ltmp944:
Lfunc_end173:
	.cfi_endproc

	.p2align	4, 0x90
__ZN4core3ptr52drop_in_place$LT$core..option..Option$LT$u16$GT$$GT$17h52de8cef09fda158E:
Lfunc_begin174:
	.loc	11 490 0
	.cfi_startproc
	pushq	%rbp
	.cfi_def_cfa_offset 16
	.cfi_offset %rbp, -16
	movq	%rsp, %rbp
	.cfi_def_cfa_register %rbp
	pushq	%rax
	movq	%rdi, -8(%rbp)
Ltmp945:
	.loc	11 490 1 prologue_end
	addq	$8, %rsp
	popq	%rbp
	retq
Ltmp946:
Lfunc_end174:
	.cfi_endproc

	.p2align	4, 0x90
__ZN4core3ptr54drop_in_place$LT$$RF$mut$u20$alloc..string..String$GT$17h1c67178b409b10f1E:
Lfunc_begin175:
	.loc	11 490 0
	.cfi_startproc
	pushq	%rbp
	.cfi_def_cfa_offset 16
	.cfi_offset %rbp, -16
	movq	%rsp, %rbp
	.cfi_def_cfa_register %rbp
	pushq	%rax
	movq	%rdi, -8(%rbp)
Ltmp947:
	.loc	11 490 1 prologue_end
	addq	$8, %rsp
	popq	%rbp
	retq
Ltmp948:
Lfunc_end175:
	.cfi_endproc

	.globl	__ZN4core3ptr54drop_in_place$LT$alloc..raw_vec..RawVec$LT$u32$GT$$GT$17h0254e98977945604E
	.p2align	4, 0x90
__ZN4core3ptr54drop_in_place$LT$alloc..raw_vec..RawVec$LT$u32$GT$$GT$17h0254e98977945604E:
Lfunc_begin176:
	.loc	11 490 0
	.cfi_startproc
	pushq	%rbp
	.cfi_def_cfa_offset 16
	.cfi_offset %rbp, -16
	movq	%rsp, %rbp
	.cfi_def_cfa_register %rbp
	subq	$16, %rsp
	movq	%rdi, -8(%rbp)
Ltmp949:
	.loc	11 490 1 prologue_end
	callq	__ZN77_$LT$alloc..raw_vec..RawVec$LT$T$C$A$GT$$u20$as$u20$core..ops..drop..Drop$GT$4drop17h2b11178b59455480E
	addq	$16, %rsp
	popq	%rbp
	retq
Ltmp950:
Lfunc_end176:
	.cfi_endproc

	.p2align	4, 0x90
__ZN4core3ptr55drop_in_place$LT$$RF$url..host..Host$LT$$RF$str$GT$$GT$17hf1832a018e23dd72E:
Lfunc_begin177:
	.loc	11 490 0
	.cfi_startproc
	pushq	%rbp
	.cfi_def_cfa_offset 16
	.cfi_offset %rbp, -16
	movq	%rsp, %rbp
	.cfi_def_cfa_register %rbp
	pushq	%rax
	movq	%rdi, -8(%rbp)
Ltmp951:
	.loc	11 490 1 prologue_end
	addq	$8, %rsp
	popq	%rbp
	retq
Ltmp952:
Lfunc_end177:
	.cfi_endproc

	.p2align	4, 0x90
__ZN4core3ptr56drop_in_place$LT$core..option..Option$LT$$RF$str$GT$$GT$17hfad21674cdff145fE:
Lfunc_begin178:
	.loc	11 490 0
	.cfi_startproc
	pushq	%rbp
	.cfi_def_cfa_offset 16
	.cfi_offset %rbp, -16
	movq	%rsp, %rbp
	.cfi_def_cfa_register %rbp
	pushq	%rax
	movq	%rdi, -8(%rbp)
Ltmp953:
	.loc	11 490 1 prologue_end
	addq	$8, %rsp
	popq	%rbp
	retq
Ltmp954:
Lfunc_end178:
	.cfi_endproc

	.globl	__ZN4core3ptr58drop_in_place$LT$alloc..raw_vec..RawVec$LT$$RF$str$GT$$GT$17h6bfebed4ec59d405E
	.p2align	4, 0x90
__ZN4core3ptr58drop_in_place$LT$alloc..raw_vec..RawVec$LT$$RF$str$GT$$GT$17h6bfebed4ec59d405E:
Lfunc_begin179:
	.loc	11 490 0
	.cfi_startproc
	pushq	%rbp
	.cfi_def_cfa_offset 16
	.cfi_offset %rbp, -16
	movq	%rsp, %rbp
	.cfi_def_cfa_register %rbp
	subq	$16, %rsp
	movq	%rdi, -8(%rbp)
Ltmp955:
	.loc	11 490 1 prologue_end
	callq	__ZN77_$LT$alloc..raw_vec..RawVec$LT$T$C$A$GT$$u20$as$u20$core..ops..drop..Drop$GT$4drop17h78d4461cf58e27b6E
	addq	$16, %rsp
	popq	%rbp
	retq
Ltmp956:
Lfunc_end179:
	.cfi_endproc

	.globl	__ZN4core3ptr65drop_in_place$LT$$LP$url..host..Host$C$url..parser..Input$RP$$GT$17h996682c956f3fb4eE
	.p2align	4, 0x90
__ZN4core3ptr65drop_in_place$LT$$LP$url..host..Host$C$url..parser..Input$RP$$GT$17h996682c956f3fb4eE:
Lfunc_begin180:
	.loc	11 490 0
	.cfi_startproc
	pushq	%rbp
	.cfi_def_cfa_offset 16
	.cfi_offset %rbp, -16
	movq	%rsp, %rbp
	.cfi_def_cfa_register %rbp
	subq	$16, %rsp
	movq	%rdi, -8(%rbp)
Ltmp957:
	.loc	11 490 1 prologue_end
	callq	__ZN4core3ptr36drop_in_place$LT$url..host..Host$GT$17hf20754dad57fea29E
	addq	$16, %rsp
	popq	%rbp
	retq
Ltmp958:
Lfunc_end180:
	.cfi_endproc

	.globl	__ZN4core3ptr67drop_in_place$LT$alloc..vec..into_iter..IntoIter$LT$$RF$str$GT$$GT$17ha4fcc4756dc0826dE
	.p2align	4, 0x90
__ZN4core3ptr67drop_in_place$LT$alloc..vec..into_iter..IntoIter$LT$$RF$str$GT$$GT$17ha4fcc4756dc0826dE:
Lfunc_begin181:
	.loc	11 490 0
	.cfi_startproc
	pushq	%rbp
	.cfi_def_cfa_offset 16
	.cfi_offset %rbp, -16
	movq	%rsp, %rbp
	.cfi_def_cfa_register %rbp
	subq	$16, %rsp
	movq	%rdi, -8(%rbp)
Ltmp959:
	.loc	11 490 1 prologue_end
	callq	__ZN86_$LT$alloc..vec..into_iter..IntoIter$LT$T$C$A$GT$$u20$as$u20$core..ops..drop..Drop$GT$4drop17ha33ca3eea217e851E
	addq	$16, %rsp
	popq	%rbp
	retq
Ltmp960:
Lfunc_end181:
	.cfi_endproc

	.globl	__ZN4core3ptr70drop_in_place$LT$core..option..Option$LT$alloc..string..String$GT$$GT$17h01662e6e383dff1fE
	.p2align	4, 0x90
__ZN4core3ptr70drop_in_place$LT$core..option..Option$LT$alloc..string..String$GT$$GT$17h01662e6e383dff1fE:
Lfunc_begin182:
	.loc	11 490 0
	.cfi_startproc
	pushq	%rbp
	.cfi_def_cfa_offset 16
	.cfi_offset %rbp, -16
	movq	%rsp, %rbp
	.cfi_def_cfa_register %rbp
	subq	$16, %rsp
	movq	%rdi, -16(%rbp)
	movq	%rdi, -8(%rbp)
Ltmp961:
	.loc	11 490 1 prologue_end
	movq	8(%rdi), %rdx
	movl	$1, %eax
	xorl	%ecx, %ecx
	cmpq	$0, %rdx
	cmoveq	%rcx, %rax
	cmpq	$0, %rax
	jne	LBB182_2
LBB182_1:
	addq	$16, %rsp
	popq	%rbp
	retq
LBB182_2:
	.loc	11 0 1 is_stmt 0
	movq	-16(%rbp), %rdi
	.loc	11 490 1
	callq	__ZN4core3ptr42drop_in_place$LT$alloc..string..String$GT$17h4e7d11210995f00cE
	jmp	LBB182_1
Ltmp962:
Lfunc_end182:
	.cfi_endproc

	.p2align	4, 0x90
__ZN4core3ptr73drop_in_place$LT$$RF$core..option..Option$LT$$RF$mut$u20$url..Url$GT$$GT$17h65f77e072e32f491E:
Lfunc_begin183:
	.loc	11 490 0 is_stmt 1
	.cfi_startproc
	pushq	%rbp
	.cfi_def_cfa_offset 16
	.cfi_offset %rbp, -16
	movq	%rsp, %rbp
	.cfi_def_cfa_register %rbp
	pushq	%rax
	movq	%rdi, -8(%rbp)
Ltmp963:
	.loc	11 490 1 prologue_end
	addq	$8, %rsp
	popq	%rbp
	retq
Ltmp964:
Lfunc_end183:
	.cfi_endproc

	.p2align	4, 0x90
__ZN4core3ptr74drop_in_place$LT$$RF$core..option..Option$LT$alloc..string..String$GT$$GT$17hec1135607398c6c8E:
Lfunc_begin184:
	.loc	11 490 0
	.cfi_startproc
	pushq	%rbp
	.cfi_def_cfa_offset 16
	.cfi_offset %rbp, -16
	movq	%rsp, %rbp
	.cfi_def_cfa_register %rbp
	pushq	%rax
	movq	%rdi, -8(%rbp)
Ltmp965:
	.loc	11 490 1 prologue_end
	addq	$8, %rsp
	popq	%rbp
	retq
Ltmp966:
Lfunc_end184:
	.cfi_endproc

	.p2align	4, 0x90
__ZN4core3ptr79drop_in_place$LT$core..option..Option$LT$url..host..Host$LT$$RF$str$GT$$GT$$GT$17h4bc88723fab92b48E:
Lfunc_begin185:
	.loc	11 490 0
	.cfi_startproc
	pushq	%rbp
	.cfi_def_cfa_offset 16
	.cfi_offset %rbp, -16
	movq	%rsp, %rbp
	.cfi_def_cfa_register %rbp
	pushq	%rax
	movq	%rdi, -8(%rbp)
Ltmp967:
	.loc	11 490 1 prologue_end
	addq	$8, %rsp
	popq	%rbp
	retq
Ltmp968:
Lfunc_end185:
	.cfi_endproc

	.globl	__ZN4core3ptr83drop_in_place$LT$core..result..Result$LT$url..Url$C$url..parser..ParseError$GT$$GT$17h2f64a29aa6c52b49E
	.p2align	4, 0x90
__ZN4core3ptr83drop_in_place$LT$core..result..Result$LT$url..Url$C$url..parser..ParseError$GT$$GT$17h2f64a29aa6c52b49E:
Lfunc_begin186:
	.loc	11 490 0
	.cfi_startproc
	pushq	%rbp
	.cfi_def_cfa_offset 16
	.cfi_offset %rbp, -16
	movq	%rsp, %rbp
	.cfi_def_cfa_register %rbp
	subq	$16, %rsp
	movq	%rdi, -16(%rbp)
	movq	%rdi, -8(%rbp)
Ltmp969:
	.loc	11 490 1 prologue_end
	xorl	%eax, %eax
	movl	$1, %ecx
	cmpl	$2, 24(%rdi)
	cmoveq	%rcx, %rax
	cmpq	$0, %rax
	jne	LBB186_2
	.loc	11 0 1 is_stmt 0
	movq	-16(%rbp), %rdi
	.loc	11 490 1
	callq	__ZN4core3ptr29drop_in_place$LT$url..Url$GT$17hd0a4d90be9b48a0bE
LBB186_2:
	addq	$16, %rsp
	popq	%rbp
	retq
Ltmp970:
Lfunc_end186:
	.cfi_endproc

	.globl	__ZN4core3ptr90drop_in_place$LT$core..result..Result$LT$url..host..Host$C$url..parser..ParseError$GT$$GT$17hf2e252484847c289E
	.p2align	4, 0x90
__ZN4core3ptr90drop_in_place$LT$core..result..Result$LT$url..host..Host$C$url..parser..ParseError$GT$$GT$17hf2e252484847c289E:
Lfunc_begin187:
	.loc	11 490 0 is_stmt 1
	.cfi_startproc
	pushq	%rbp
	.cfi_def_cfa_offset 16
	.cfi_offset %rbp, -16
	movq	%rsp, %rbp
	.cfi_def_cfa_register %rbp
	subq	$16, %rsp
	movq	%rdi, -16(%rbp)
	movq	%rdi, -8(%rbp)
Ltmp971:
	.loc	11 490 1 prologue_end
	xorl	%eax, %eax
	movl	$1, %ecx
	cmpb	$3, (%rdi)
	cmoveq	%rcx, %rax
	cmpq	$0, %rax
	jne	LBB187_2
	.loc	11 0 1 is_stmt 0
	movq	-16(%rbp), %rdi
	.loc	11 490 1
	callq	__ZN4core3ptr36drop_in_place$LT$url..host..Host$GT$17hf20754dad57fea29E
LBB187_2:
	addq	$16, %rsp
	popq	%rbp
	retq
Ltmp972:
Lfunc_end187:
	.cfi_endproc

	.globl	__ZN4core3ptr9const_ptr33_$LT$impl$u20$$BP$const$u20$T$GT$7sub_ptr17h90911035b4d7f004E
	.p2align	4, 0x90
__ZN4core3ptr9const_ptr33_$LT$impl$u20$$BP$const$u20$T$GT$7sub_ptr17h90911035b4d7f004E:
Lfunc_begin188:
	.loc	10 791 0 is_stmt 1
	.cfi_startproc
	pushq	%rbp
	.cfi_def_cfa_offset 16
	.cfi_offset %rbp, -16
	movq	%rsp, %rbp
	.cfi_def_cfa_register %rbp
	subq	$64, %rsp
	movq	%rdi, -56(%rbp)
	movq	%rsi, -48(%rbp)
	movq	%rdi, -32(%rbp)
	movq	%rsi, -24(%rbp)
Ltmp973:
	.loc	3 309 5 prologue_end
	movq	$16, -16(%rbp)
Ltmp974:
	.loc	10 806 17
	movb	$1, %al
	testb	$1, %al
	jne	LBB188_2
	movb	$0, -33(%rbp)
	jmp	LBB188_3
LBB188_2:
	movb	$1, -33(%rbp)
LBB188_3:
	.loc	10 806 9 is_stmt 0
	movb	-33(%rbp), %al
	xorb	$-1, %al
	testb	$1, %al
	jne	LBB188_5
	.loc	10 0 9
	movq	-48(%rbp), %rcx
	movq	-56(%rbp), %rax
	.loc	10 808 18 is_stmt 1
	subq	%rcx, %rax
	shrq	$4, %rax
	movq	%rax, -8(%rbp)
	movq	-8(%rbp), %rax
Ltmp975:
	.loc	10 809 6
	addq	$64, %rsp
	popq	%rbp
	retq
LBB188_5:
Ltmp976:
	.loc	10 806 9
	leaq	l___unnamed_34(%rip), %rdi
	leaq	l___unnamed_35(%rip), %rdx
	movl	$73, %esi
	callq	__ZN4core9panicking5panic17hc1bc45270cf64b03E
Ltmp977:
Lfunc_end188:
	.cfi_endproc

	.globl	__ZN4core3str21_$LT$impl$u20$str$GT$11starts_with17hf1028eb1789f11d8E
	.p2align	4, 0x90
__ZN4core3str21_$LT$impl$u20$str$GT$11starts_with17hf1028eb1789f11d8E:
Lfunc_begin189:
	.loc	38 1096 0
	.cfi_startproc
	pushq	%rbp
	.cfi_def_cfa_offset 16
	.cfi_offset %rbp, -16
	movq	%rsp, %rbp
	.cfi_def_cfa_register %rbp
	subq	$48, %rsp
	movq	%rcx, -48(%rbp)
	movq	%rdx, -40(%rbp)
	movq	%rsi, %rcx
	movq	-48(%rbp), %rsi
	movq	%rdi, %rdx
	movq	-40(%rbp), %rdi
	movq	%rdx, -32(%rbp)
	movq	%rcx, -24(%rbp)
	movq	%rdi, -16(%rbp)
	movq	%rsi, -8(%rbp)
Ltmp978:
	.loc	38 1097 9 prologue_end
	callq	__ZN55_$LT$$RF$str$u20$as$u20$core..str..pattern..Pattern$GT$12is_prefix_of17h098b87d7d2b7cd34E
	.loc	38 1098 6
	andb	$1, %al
	movzbl	%al, %eax
	addq	$48, %rsp
	popq	%rbp
	retq
Ltmp979:
Lfunc_end189:
	.cfi_endproc

	.globl	__ZN4core3str21_$LT$impl$u20$str$GT$12strip_prefix17h1a13b763407962cdE
	.p2align	4, 0x90
__ZN4core3str21_$LT$impl$u20$str$GT$12strip_prefix17h1a13b763407962cdE:
Lfunc_begin190:
	.loc	38 2140 0
	.cfi_startproc
	pushq	%rbp
	.cfi_def_cfa_offset 16
	.cfi_offset %rbp, -16
	movq	%rsp, %rbp
	.cfi_def_cfa_register %rbp
	subq	$32, %rsp
	movl	%edx, -28(%rbp)
	movq	%rsi, %rdx
	movq	%rdi, %rsi
	movl	-28(%rbp), %edi
	movq	%rsi, -24(%rbp)
	movq	%rdx, -16(%rbp)
	movl	%edi, -4(%rbp)
Ltmp980:
	.loc	38 2141 9 prologue_end
	callq	__ZN52_$LT$char$u20$as$u20$core..str..pattern..Pattern$GT$15strip_prefix_of17hbb18a96a452482e3E
	.loc	38 2142 6
	addq	$32, %rsp
	popq	%rbp
	retq
Ltmp981:
Lfunc_end190:
	.cfi_endproc

	.globl	__ZN4core3str21_$LT$impl$u20$str$GT$12trim_matches17h0135ce6c0e269056E
	.p2align	4, 0x90
__ZN4core3str21_$LT$impl$u20$str$GT$12trim_matches17h0135ce6c0e269056E:
Lfunc_begin191:
	.loc	38 2058 0
	.cfi_startproc
	.cfi_personality 155, _rust_eh_personality
	.cfi_lsda 16, Lexception18
	pushq	%rbp
	.cfi_def_cfa_offset 16
	.cfi_offset %rbp, -16
	movq	%rsp, %rbp
	.cfi_def_cfa_register %rbp
	subq	$240, %rsp
	movq	%rsi, %rdx
	movq	%rdi, %rsi
	movq	%rsi, -224(%rbp)
	movq	%rdx, -216(%rbp)
	movq	%rsi, -80(%rbp)
	movq	%rdx, -72(%rbp)
Ltmp989:
	.loc	38 2062 21 prologue_end
	movq	$0, -200(%rbp)
Ltmp990:
	.loc	38 2063 21
	movq	$0, -192(%rbp)
	leaq	-184(%rbp), %rdi
	movq	%rdi, -208(%rbp)
Ltmp991:
	.loc	38 2064 27
	callq	__ZN49_$LT$F$u20$as$u20$core..str..pattern..Pattern$GT$13into_searcher17ha82b910cf87974f5E
	movq	-208(%rbp), %rsi
Ltmp982:
	leaq	-144(%rbp), %rdi
Ltmp992:
	.loc	38 2065 31
	callq	__ZN99_$LT$core..str..pattern..CharPredicateSearcher$LT$F$GT$$u20$as$u20$core..str..pattern..Searcher$GT$11next_reject17h6af599d86707e3a1E
Ltmp983:
	jmp	LBB191_3
Ltmp993:
LBB191_1:
	.loc	38 2058 5
	movq	-56(%rbp), %rdi
	callq	__Unwind_Resume
LBB191_2:
Ltmp988:
	.loc	38 0 5 is_stmt 0
	movq	%rax, %rcx
	movl	%edx, %eax
	movq	%rcx, -56(%rbp)
	movl	%eax, -48(%rbp)
	jmp	LBB191_1
LBB191_3:
Ltmp994:
	.loc	38 2065 16 is_stmt 1
	cmpq	$1, -144(%rbp)
	jne	LBB191_5
	.loc	38 2065 22 is_stmt 0
	movq	-136(%rbp), %rcx
	movq	%rcx, -40(%rbp)
	.loc	38 2065 25
	movq	-128(%rbp), %rax
	movq	%rax, -32(%rbp)
	.loc	38 2066 13 is_stmt 1
	movq	%rcx, -200(%rbp)
	.loc	38 2067 13
	movq	%rax, -192(%rbp)
Ltmp995:
LBB191_5:
Ltmp984:
	.loc	38 0 13 is_stmt 0
	leaq	-120(%rbp), %rdi
	leaq	-184(%rbp), %rsi
Ltmp996:
	.loc	38 2070 31 is_stmt 1
	callq	__ZN106_$LT$core..str..pattern..CharPredicateSearcher$LT$F$GT$$u20$as$u20$core..str..pattern..ReverseSearcher$GT$16next_reject_back17hba899a58a9f5ead0E
Ltmp985:
	jmp	LBB191_6
LBB191_6:
	.loc	38 2070 16 is_stmt 0
	cmpq	$1, -120(%rbp)
	jne	LBB191_8
	.loc	38 2070 25
	movq	-104(%rbp), %rax
	movq	%rax, -24(%rbp)
	.loc	38 2071 13 is_stmt 1
	movq	%rax, -192(%rbp)
Ltmp997:
LBB191_8:
	.loc	38 0 13 is_stmt 0
	movq	-216(%rbp), %rcx
	movq	-224(%rbp), %rdx
	.loc	38 2074 18 is_stmt 1
	movq	%rdx, -16(%rbp)
	movq	%rcx, -8(%rbp)
	.loc	38 2074 37 is_stmt 0
	movq	-200(%rbp), %rsi
	.loc	38 2074 40
	movq	-192(%rbp), %rax
	.loc	38 2074 37
	movq	%rsi, -96(%rbp)
	movq	%rax, -88(%rbp)
Ltmp998:
	.loc	38 511 20 is_stmt 1
	movq	-96(%rbp), %rdi
	movq	-88(%rbp), %rsi
Ltmp986:
	callq	__ZN4core3str6traits108_$LT$impl$u20$core..slice..index..SliceIndex$LT$str$GT$$u20$for$u20$core..ops..range..Range$LT$usize$GT$$GT$13get_unchecked17h879fcc8b3f9dd538E
Ltmp987:
	movq	%rdx, -240(%rbp)
	movq	%rax, -232(%rbp)
	jmp	LBB191_9
Ltmp999:
LBB191_9:
	.loc	38 0 20 is_stmt 0
	movq	-240(%rbp), %rdx
	movq	-232(%rbp), %rax
	.loc	38 2075 6 is_stmt 1
	addq	$240, %rsp
	popq	%rbp
	retq
Ltmp1000:
Lfunc_end191:
	.cfi_endproc
	.section	__TEXT,__gcc_except_tab
	.p2align	2
GCC_except_table191:
Lexception18:
	.byte	255
	.byte	255
	.byte	1
	.uleb128 Lcst_end18-Lcst_begin18
Lcst_begin18:
	.uleb128 Lfunc_begin191-Lfunc_begin191
	.uleb128 Ltmp982-Lfunc_begin191
	.byte	0
	.byte	0
	.uleb128 Ltmp982-Lfunc_begin191
	.uleb128 Ltmp983-Ltmp982
	.uleb128 Ltmp988-Lfunc_begin191
	.byte	0
	.uleb128 Ltmp983-Lfunc_begin191
	.uleb128 Ltmp984-Ltmp983
	.byte	0
	.byte	0
	.uleb128 Ltmp984-Lfunc_begin191
	.uleb128 Ltmp987-Ltmp984
	.uleb128 Ltmp988-Lfunc_begin191
	.byte	0
Lcst_end18:
	.p2align	2

	.section	__TEXT,__text,regular,pure_instructions
	.globl	__ZN4core3str21_$LT$impl$u20$str$GT$12trim_matches17h943ec2fa333356abE
	.p2align	4, 0x90
__ZN4core3str21_$LT$impl$u20$str$GT$12trim_matches17h943ec2fa333356abE:
Lfunc_begin192:
	.loc	38 2058 0
	.cfi_startproc
	.cfi_personality 155, _rust_eh_personality
	.cfi_lsda 16, Lexception19
	pushq	%rbp
	.cfi_def_cfa_offset 16
	.cfi_offset %rbp, -16
	movq	%rsp, %rbp
	.cfi_def_cfa_register %rbp
	subq	$240, %rsp
	movq	%rsi, %rdx
	movq	%rdi, %rsi
	movq	%rsi, -224(%rbp)
	movq	%rdx, -216(%rbp)
	movq	%rsi, -80(%rbp)
	movq	%rdx, -72(%rbp)
Ltmp1008:
	.loc	38 2062 21 prologue_end
	movq	$0, -200(%rbp)
Ltmp1009:
	.loc	38 2063 21
	movq	$0, -192(%rbp)
	leaq	-184(%rbp), %rdi
	movq	%rdi, -208(%rbp)
Ltmp1010:
	.loc	38 2064 27
	callq	__ZN49_$LT$F$u20$as$u20$core..str..pattern..Pattern$GT$13into_searcher17h3de0c92ffd3ecaf6E
	movq	-208(%rbp), %rsi
Ltmp1001:
	leaq	-144(%rbp), %rdi
Ltmp1011:
	.loc	38 2065 31
	callq	__ZN99_$LT$core..str..pattern..CharPredicateSearcher$LT$F$GT$$u20$as$u20$core..str..pattern..Searcher$GT$11next_reject17hbeaadef24f5ea997E
Ltmp1002:
	jmp	LBB192_3
Ltmp1012:
LBB192_1:
	.loc	38 2058 5
	movq	-56(%rbp), %rdi
	callq	__Unwind_Resume
LBB192_2:
Ltmp1007:
	.loc	38 0 5 is_stmt 0
	movq	%rax, %rcx
	movl	%edx, %eax
	movq	%rcx, -56(%rbp)
	movl	%eax, -48(%rbp)
	jmp	LBB192_1
LBB192_3:
Ltmp1013:
	.loc	38 2065 16 is_stmt 1
	cmpq	$1, -144(%rbp)
	jne	LBB192_5
	.loc	38 2065 22 is_stmt 0
	movq	-136(%rbp), %rcx
	movq	%rcx, -40(%rbp)
	.loc	38 2065 25
	movq	-128(%rbp), %rax
	movq	%rax, -32(%rbp)
	.loc	38 2066 13 is_stmt 1
	movq	%rcx, -200(%rbp)
	.loc	38 2067 13
	movq	%rax, -192(%rbp)
Ltmp1014:
LBB192_5:
Ltmp1003:
	.loc	38 0 13 is_stmt 0
	leaq	-120(%rbp), %rdi
	leaq	-184(%rbp), %rsi
Ltmp1015:
	.loc	38 2070 31 is_stmt 1
	callq	__ZN106_$LT$core..str..pattern..CharPredicateSearcher$LT$F$GT$$u20$as$u20$core..str..pattern..ReverseSearcher$GT$16next_reject_back17hb6113a776d3e0e53E
Ltmp1004:
	jmp	LBB192_6
LBB192_6:
	.loc	38 2070 16 is_stmt 0
	cmpq	$1, -120(%rbp)
	jne	LBB192_8
	.loc	38 2070 25
	movq	-104(%rbp), %rax
	movq	%rax, -24(%rbp)
	.loc	38 2071 13 is_stmt 1
	movq	%rax, -192(%rbp)
Ltmp1016:
LBB192_8:
	.loc	38 0 13 is_stmt 0
	movq	-216(%rbp), %rcx
	movq	-224(%rbp), %rdx
	.loc	38 2074 18 is_stmt 1
	movq	%rdx, -16(%rbp)
	movq	%rcx, -8(%rbp)
	.loc	38 2074 37 is_stmt 0
	movq	-200(%rbp), %rsi
	.loc	38 2074 40
	movq	-192(%rbp), %rax
	.loc	38 2074 37
	movq	%rsi, -96(%rbp)
	movq	%rax, -88(%rbp)
Ltmp1017:
	.loc	38 511 20 is_stmt 1
	movq	-96(%rbp), %rdi
	movq	-88(%rbp), %rsi
Ltmp1005:
	callq	__ZN4core3str6traits108_$LT$impl$u20$core..slice..index..SliceIndex$LT$str$GT$$u20$for$u20$core..ops..range..Range$LT$usize$GT$$GT$13get_unchecked17h879fcc8b3f9dd538E
Ltmp1006:
	movq	%rdx, -240(%rbp)
	movq	%rax, -232(%rbp)
	jmp	LBB192_9
Ltmp1018:
LBB192_9:
	.loc	38 0 20 is_stmt 0
	movq	-240(%rbp), %rdx
	movq	-232(%rbp), %rax
	.loc	38 2075 6 is_stmt 1
	addq	$240, %rsp
	popq	%rbp
	retq
Ltmp1019:
Lfunc_end192:
	.cfi_endproc
	.section	__TEXT,__gcc_except_tab
	.p2align	2
GCC_except_table192:
Lexception19:
	.byte	255
	.byte	255
	.byte	1
	.uleb128 Lcst_end19-Lcst_begin19
Lcst_begin19:
	.uleb128 Lfunc_begin192-Lfunc_begin192
	.uleb128 Ltmp1001-Lfunc_begin192
	.byte	0
	.byte	0
	.uleb128 Ltmp1001-Lfunc_begin192
	.uleb128 Ltmp1002-Ltmp1001
	.uleb128 Ltmp1007-Lfunc_begin192
	.byte	0
	.uleb128 Ltmp1002-Lfunc_begin192
	.uleb128 Ltmp1003-Ltmp1002
	.byte	0
	.byte	0
	.uleb128 Ltmp1003-Lfunc_begin192
	.uleb128 Ltmp1006-Ltmp1003
	.uleb128 Ltmp1007-Lfunc_begin192
	.byte	0
Lcst_end19:
	.p2align	2

	.section	__TEXT,__text,regular,pure_instructions
	.p2align	4, 0x90
__ZN4core3str21_$LT$impl$u20$str$GT$16is_char_boundary17h94080001a4b2914dE:
Lfunc_begin193:
	.loc	38 211 0
	.cfi_startproc
	pushq	%rbp
	.cfi_def_cfa_offset 16
	.cfi_offset %rbp, -16
	movq	%rsp, %rbp
	.cfi_def_cfa_register %rbp
	subq	$176, %rsp
	movq	%rdi, -176(%rbp)
	movq	%rsi, -168(%rbp)
	movq	%rdx, -160(%rbp)
	movq	%rdi, -136(%rbp)
	movq	%rsi, -128(%rbp)
	movq	%rdx, -120(%rbp)
Ltmp1020:
	.loc	38 216 12 prologue_end
	cmpq	$0, %rdx
	jne	LBB193_2
	.loc	38 217 20
	movb	$1, -145(%rbp)
	.loc	38 234 6
	jmp	LBB193_6
LBB193_2:
	.loc	38 0 6 is_stmt 0
	movq	-160(%rbp), %rdi
	movq	-168(%rbp), %rax
	movq	-176(%rbp), %rcx
	.loc	38 220 15 is_stmt 1
	movq	%rcx, -112(%rbp)
	movq	%rax, -104(%rbp)
Ltmp1021:
	.loc	38 327 18
	movq	%rcx, -96(%rbp)
	movq	%rax, -88(%rbp)
	movq	-96(%rbp), %rsi
	movq	-88(%rbp), %rdx
Ltmp1022:
	.loc	38 220 15
	movq	%rsi, -80(%rbp)
	movq	%rdx, -72(%rbp)
	.loc	38 220 35 is_stmt 0
	movq	%rdi, -64(%rbp)
Ltmp1023:
	.file	47 "/rustc/2c8cc343237b8f7d5a3c3703e3a87f2eb2c54a74/library/core/src/slice" "mod.rs"
	.loc	47 343 9 is_stmt 1
	callq	__ZN75_$LT$usize$u20$as$u20$core..slice..index..SliceIndex$LT$$u5b$T$u5d$$GT$$GT$3get17hddf402f3d590b761E
	movq	%rax, -144(%rbp)
Ltmp1024:
	.loc	38 220 15
	movq	-144(%rbp), %rdx
	movl	$1, %eax
	xorl	%ecx, %ecx
	cmpq	$0, %rdx
	cmoveq	%rcx, %rax
	.loc	38 220 9 is_stmt 0
	cmpq	$0, %rax
	jne	LBB193_4
	.loc	38 0 9
	movq	-160(%rbp), %rax
	movq	-168(%rbp), %rcx
	movq	-176(%rbp), %rdx
	.loc	38 230 30 is_stmt 1
	movq	%rdx, -48(%rbp)
	movq	%rcx, -40(%rbp)
Ltmp1025:
	.loc	38 160 9
	movq	%rdx, -32(%rbp)
	movq	%rcx, -24(%rbp)
Ltmp1026:
	.loc	38 327 18
	movq	%rdx, -16(%rbp)
	movq	%rcx, -8(%rbp)
Ltmp1027:
	.loc	38 230 21
	cmpq	-8(%rbp), %rax
	sete	%al
	andb	$1, %al
	movb	%al, -145(%rbp)
	.loc	38 230 39 is_stmt 0
	jmp	LBB193_5
LBB193_4:
	.loc	38 232 19 is_stmt 1
	movq	-144(%rbp), %rax
	movb	(%rax), %al
	movb	%al, -50(%rbp)
Ltmp1028:
	.loc	38 232 25 is_stmt 0
	movb	%al, -49(%rbp)
Ltmp1029:
	.file	48 "/rustc/2c8cc343237b8f7d5a3c3703e3a87f2eb2c54a74/library/core/src/num" "mod.rs"
	.loc	48 885 9 is_stmt 1
	cmpb	$-64, %al
	setge	%al
	andb	$1, %al
	movb	%al, -145(%rbp)
Ltmp1030:
LBB193_5:
	.loc	38 234 6
	jmp	LBB193_6
LBB193_6:
	movb	-145(%rbp), %al
	andb	$1, %al
	movzbl	%al, %eax
	addq	$176, %rsp
	popq	%rbp
	retq
Ltmp1031:
Lfunc_end193:
	.cfi_endproc

	.globl	__ZN4core3str21_$LT$impl$u20$str$GT$18trim_start_matches17h26ef1108544fd0ecE
	.p2align	4, 0x90
__ZN4core3str21_$LT$impl$u20$str$GT$18trim_start_matches17h26ef1108544fd0ecE:
Lfunc_begin194:
	.loc	38 2107 0
	.cfi_startproc
	.cfi_personality 155, _rust_eh_personality
	.cfi_lsda 16, Lexception20
	pushq	%rbp
	.cfi_def_cfa_offset 16
	.cfi_offset %rbp, -16
	movq	%rsp, %rbp
	.cfi_def_cfa_register %rbp
	subq	$336, %rsp
	movq	%rdi, -296(%rbp)
	movq	%rsi, -288(%rbp)
	movl	%edx, -276(%rbp)
	movq	%rdi, -160(%rbp)
	movq	%rsi, -152(%rbp)
	movl	%edx, -140(%rbp)
Ltmp1040:
	.loc	38 2108 13 prologue_end
	movb	$1, -161(%rbp)
	.loc	38 2108 21 is_stmt 0
	movq	%rdi, -136(%rbp)
	movq	%rsi, -128(%rbp)
Ltmp1041:
	.loc	38 160 9 is_stmt 1
	movq	%rdi, -120(%rbp)
	movq	%rsi, -112(%rbp)
Ltmp1042:
	.loc	38 327 18
	movq	%rdi, -104(%rbp)
	movq	%rsi, -96(%rbp)
	movq	-96(%rbp), %rax
	movq	%rax, -272(%rbp)
Ltmp1043:
	.loc	38 0 18 is_stmt 0
	movq	-288(%rbp), %rcx
	movq	-296(%rbp), %rdx
	movl	-276(%rbp), %esi
	movq	-272(%rbp), %rax
	.loc	38 160 9 is_stmt 1
	movq	%rax, -264(%rbp)
Ltmp1044:
	.loc	38 2109 27
	movb	$0, -161(%rbp)
Ltmp1032:
	leaq	-256(%rbp), %rdi
	callq	__ZN52_$LT$char$u20$as$u20$core..str..pattern..Pattern$GT$13into_searcher17h9b6dcc951ae38998E
Ltmp1033:
	jmp	LBB194_4
Ltmp1045:
LBB194_2:
	.loc	38 2115 5
	testb	$1, -161(%rbp)
	jne	LBB194_14
	jmp	LBB194_13
LBB194_3:
Ltmp1034:
	.loc	38 0 5 is_stmt 0
	movq	%rax, %rcx
	movl	%edx, %eax
	movq	%rcx, -88(%rbp)
	movl	%eax, -80(%rbp)
	jmp	LBB194_2
LBB194_4:
Ltmp1035:
	leaq	-208(%rbp), %rdi
	leaq	-256(%rbp), %rsi
Ltmp1046:
	.loc	38 2110 31 is_stmt 1
	callq	__ZN4core3str7pattern8Searcher11next_reject17h9c6b55cafbeef40cE
Ltmp1036:
	jmp	LBB194_7
Ltmp1047:
LBB194_5:
	.loc	38 2115 5
	jmp	LBB194_2
LBB194_6:
Ltmp1039:
	.loc	38 0 5 is_stmt 0
	movq	%rax, %rcx
	movl	%edx, %eax
	movq	%rcx, -88(%rbp)
	movl	%eax, -80(%rbp)
	jmp	LBB194_5
LBB194_7:
Ltmp1048:
	.loc	38 2110 16 is_stmt 1
	cmpq	$1, -208(%rbp)
	jne	LBB194_9
	.loc	38 2110 22 is_stmt 0
	movq	-200(%rbp), %rax
	movq	%rax, -72(%rbp)
	.loc	38 2111 13 is_stmt 1
	movq	%rax, -264(%rbp)
Ltmp1049:
LBB194_9:
	.loc	38 0 13 is_stmt 0
	movq	-288(%rbp), %rax
	movq	-296(%rbp), %rcx
	.loc	38 2114 18 is_stmt 1
	movq	%rcx, -64(%rbp)
	movq	%rax, -56(%rbp)
	.loc	38 2114 37 is_stmt 0
	movq	-264(%rbp), %rdx
	movq	%rdx, -312(%rbp)
	.loc	38 2114 40
	movq	%rcx, -48(%rbp)
	movq	%rax, -40(%rbp)
Ltmp1050:
	.loc	38 160 9 is_stmt 1
	movq	%rcx, -32(%rbp)
	movq	%rax, -24(%rbp)
Ltmp1051:
	.loc	38 327 18
	movq	%rcx, -16(%rbp)
	movq	%rax, -8(%rbp)
	movq	-8(%rbp), %rax
	movq	%rax, -304(%rbp)
Ltmp1052:
	.loc	38 0 18 is_stmt 0
	movq	-288(%rbp), %rcx
	movq	-296(%rbp), %rdx
	movq	-304(%rbp), %rax
	movq	-312(%rbp), %rsi
	.loc	38 2114 37 is_stmt 1
	movq	%rsi, -184(%rbp)
	movq	%rax, -176(%rbp)
Ltmp1053:
	.loc	38 511 20
	movq	-184(%rbp), %rdi
	movq	-176(%rbp), %rsi
Ltmp1037:
	callq	__ZN4core3str6traits108_$LT$impl$u20$core..slice..index..SliceIndex$LT$str$GT$$u20$for$u20$core..ops..range..Range$LT$usize$GT$$GT$13get_unchecked17h879fcc8b3f9dd538E
Ltmp1038:
	movq	%rdx, -328(%rbp)
	movq	%rax, -320(%rbp)
	jmp	LBB194_11
Ltmp1054:
LBB194_11:
	.loc	38 0 20 is_stmt 0
	movq	-328(%rbp), %rdx
	movq	-320(%rbp), %rax
	.loc	38 2115 6 is_stmt 1
	addq	$336, %rsp
	popq	%rbp
	retq
LBB194_13:
	.loc	38 2107 5
	movq	-88(%rbp), %rdi
	callq	__Unwind_Resume
LBB194_14:
	.loc	38 2115 5
	jmp	LBB194_13
Ltmp1055:
Lfunc_end194:
	.cfi_endproc
	.section	__TEXT,__gcc_except_tab
	.p2align	2
GCC_except_table194:
Lexception20:
	.byte	255
	.byte	255
	.byte	1
	.uleb128 Lcst_end20-Lcst_begin20
Lcst_begin20:
	.uleb128 Ltmp1032-Lfunc_begin194
	.uleb128 Ltmp1033-Ltmp1032
	.uleb128 Ltmp1034-Lfunc_begin194
	.byte	0
	.uleb128 Ltmp1035-Lfunc_begin194
	.uleb128 Ltmp1038-Ltmp1035
	.uleb128 Ltmp1039-Lfunc_begin194
	.byte	0
	.uleb128 Ltmp1038-Lfunc_begin194
	.uleb128 Lfunc_end194-Ltmp1038
	.byte	0
	.byte	0
Lcst_end20:
	.p2align	2

	.section	__TEXT,__text,regular,pure_instructions
	.p2align	4, 0x90
__ZN4core3str21_$LT$impl$u20$str$GT$3len17hec6ed96c98197cb5E:
Lfunc_begin195:
	.loc	38 159 0
	.cfi_startproc
	pushq	%rbp
	.cfi_def_cfa_offset 16
	.cfi_offset %rbp, -16
	movq	%rsp, %rbp
	.cfi_def_cfa_register %rbp
	subq	$48, %rsp
	movq	%rdi, -48(%rbp)
	movq	%rsi, -40(%rbp)
Ltmp1056:
	.loc	38 160 9 prologue_end
	movq	%rdi, -32(%rbp)
	movq	%rsi, -24(%rbp)
Ltmp1057:
	.loc	38 327 18
	movq	%rdi, -16(%rbp)
	movq	%rsi, -8(%rbp)
	movq	-8(%rbp), %rax
Ltmp1058:
	.loc	38 161 6
	addq	$48, %rsp
	popq	%rbp
	retq
Ltmp1059:
Lfunc_end195:
	.cfi_endproc

	.globl	__ZN4core3str21_$LT$impl$u20$str$GT$4find17h7434498f614d95dcE
	.p2align	4, 0x90
__ZN4core3str21_$LT$impl$u20$str$GT$4find17h7434498f614d95dcE:
Lfunc_begin196:
	.loc	38 1173 0
	.cfi_startproc
	.cfi_personality 155, _rust_eh_personality
	.cfi_lsda 16, Lexception21
	pushq	%rbp
	.cfi_def_cfa_offset 16
	.cfi_offset %rbp, -16
	movq	%rsp, %rbp
	.cfi_def_cfa_register %rbp
	subq	$144, %rsp
	movl	%edx, -124(%rbp)
	movq	%rsi, %rcx
	movl	-124(%rbp), %esi
	movq	%rdi, %rdx
	movq	%rdx, -40(%rbp)
	movq	%rcx, -32(%rbp)
	movl	%esi, -20(%rbp)
	leaq	-88(%rbp), %rdi
	movq	%rdi, -120(%rbp)
Ltmp1065:
	.loc	38 1174 9 prologue_end
	callq	__ZN52_$LT$char$u20$as$u20$core..str..pattern..Pattern$GT$13into_searcher17h9b6dcc951ae38998E
	movq	-120(%rbp), %rsi
Ltmp1060:
	leaq	-112(%rbp), %rdi
	callq	__ZN81_$LT$core..str..pattern..CharSearcher$u20$as$u20$core..str..pattern..Searcher$GT$10next_match17he708ce3be9763839E
Ltmp1061:
	jmp	LBB196_3
LBB196_1:
	.loc	38 1173 5
	movq	-16(%rbp), %rdi
	callq	__Unwind_Resume
LBB196_2:
Ltmp1064:
	.loc	38 0 5 is_stmt 0
	movq	%rax, %rcx
	movl	%edx, %eax
	movq	%rcx, -16(%rbp)
	movl	%eax, -8(%rbp)
	jmp	LBB196_1
LBB196_3:
Ltmp1062:
	leaq	-112(%rbp), %rdi
	.loc	38 1174 9 is_stmt 1
	callq	__ZN4core6option15Option$LT$T$GT$3map17hd5b7e7c8f24ada79E
Ltmp1063:
	movq	%rdx, -144(%rbp)
	movq	%rax, -136(%rbp)
	jmp	LBB196_4
LBB196_4:
	.loc	38 0 9 is_stmt 0
	movq	-144(%rbp), %rdx
	movq	-136(%rbp), %rax
	.loc	38 1175 6 is_stmt 1
	addq	$144, %rsp
	popq	%rbp
	retq
Ltmp1066:
Lfunc_end196:
	.cfi_endproc
	.section	__TEXT,__gcc_except_tab
	.p2align	2
GCC_except_table196:
Lexception21:
	.byte	255
	.byte	255
	.byte	1
	.uleb128 Lcst_end21-Lcst_begin21
Lcst_begin21:
	.uleb128 Lfunc_begin196-Lfunc_begin196
	.uleb128 Ltmp1060-Lfunc_begin196
	.byte	0
	.byte	0
	.uleb128 Ltmp1060-Lfunc_begin196
	.uleb128 Ltmp1061-Ltmp1060
	.uleb128 Ltmp1064-Lfunc_begin196
	.byte	0
	.uleb128 Ltmp1061-Lfunc_begin196
	.uleb128 Ltmp1062-Ltmp1061
	.byte	0
	.byte	0
	.uleb128 Ltmp1062-Lfunc_begin196
	.uleb128 Ltmp1063-Ltmp1062
	.uleb128 Ltmp1064-Lfunc_begin196
	.byte	0
Lcst_end21:
	.p2align	2

	.section	__TEXT,__text,regular,pure_instructions
	.globl	__ZN4core3str21_$LT$impl$u20$str$GT$4find17ha29594bd23694285E
	.p2align	4, 0x90
__ZN4core3str21_$LT$impl$u20$str$GT$4find17ha29594bd23694285E:
Lfunc_begin197:
	.loc	38 1173 0
	.cfi_startproc
	.cfi_personality 155, _rust_eh_personality
	.cfi_lsda 16, Lexception22
	pushq	%rbp
	.cfi_def_cfa_offset 16
	.cfi_offset %rbp, -16
	movq	%rsp, %rbp
	.cfi_def_cfa_register %rbp
	subq	$128, %rsp
	movq	%rsi, %rdx
	movq	%rdi, %rsi
	movq	%rsi, -40(%rbp)
	movq	%rdx, -32(%rbp)
	leaq	-80(%rbp), %rdi
	movq	%rdi, -112(%rbp)
Ltmp1072:
	.loc	38 1174 9 prologue_end
	callq	__ZN49_$LT$F$u20$as$u20$core..str..pattern..Pattern$GT$13into_searcher17hfde526c1e91fb0b7E
	movq	-112(%rbp), %rsi
Ltmp1067:
	leaq	-104(%rbp), %rdi
	callq	__ZN99_$LT$core..str..pattern..CharPredicateSearcher$LT$F$GT$$u20$as$u20$core..str..pattern..Searcher$GT$10next_match17hcf0c0917d8ea57b0E
Ltmp1068:
	jmp	LBB197_3
LBB197_1:
	.loc	38 1173 5
	movq	-16(%rbp), %rdi
	callq	__Unwind_Resume
LBB197_2:
Ltmp1071:
	.loc	38 0 5 is_stmt 0
	movq	%rax, %rcx
	movl	%edx, %eax
	movq	%rcx, -16(%rbp)
	movl	%eax, -8(%rbp)
	jmp	LBB197_1
LBB197_3:
Ltmp1069:
	leaq	-104(%rbp), %rdi
	.loc	38 1174 9 is_stmt 1
	callq	__ZN4core6option15Option$LT$T$GT$3map17h0b9e46003413c7f6E
Ltmp1070:
	movq	%rdx, -128(%rbp)
	movq	%rax, -120(%rbp)
	jmp	LBB197_4
LBB197_4:
	.loc	38 0 9 is_stmt 0
	movq	-128(%rbp), %rdx
	movq	-120(%rbp), %rax
	.loc	38 1175 6 is_stmt 1
	addq	$128, %rsp
	popq	%rbp
	retq
Ltmp1073:
Lfunc_end197:
	.cfi_endproc
	.section	__TEXT,__gcc_except_tab
	.p2align	2
GCC_except_table197:
Lexception22:
	.byte	255
	.byte	255
	.byte	1
	.uleb128 Lcst_end22-Lcst_begin22
Lcst_begin22:
	.uleb128 Lfunc_begin197-Lfunc_begin197
	.uleb128 Ltmp1067-Lfunc_begin197
	.byte	0
	.byte	0
	.uleb128 Ltmp1067-Lfunc_begin197
	.uleb128 Ltmp1068-Ltmp1067
	.uleb128 Ltmp1071-Lfunc_begin197
	.byte	0
	.uleb128 Ltmp1068-Lfunc_begin197
	.uleb128 Ltmp1069-Ltmp1068
	.byte	0
	.byte	0
	.uleb128 Ltmp1069-Lfunc_begin197
	.uleb128 Ltmp1070-Ltmp1069
	.uleb128 Ltmp1071-Lfunc_begin197
	.byte	0
Lcst_end22:
	.p2align	2

	.section	__TEXT,__text,regular,pure_instructions
	.globl	__ZN4core3str21_$LT$impl$u20$str$GT$4find17hf9023240b63ed8b3E
	.p2align	4, 0x90
__ZN4core3str21_$LT$impl$u20$str$GT$4find17hf9023240b63ed8b3E:
Lfunc_begin198:
	.loc	38 1173 0
	.cfi_startproc
	.cfi_personality 155, _rust_eh_personality
	.cfi_lsda 16, Lexception23
	pushq	%rbp
	.cfi_def_cfa_offset 16
	.cfi_offset %rbp, -16
	movq	%rsp, %rbp
	.cfi_def_cfa_register %rbp
	subq	$128, %rsp
	movq	%rsi, %rdx
	movq	%rdi, %rsi
	movq	%rsi, -40(%rbp)
	movq	%rdx, -32(%rbp)
	leaq	-80(%rbp), %rdi
	movq	%rdi, -112(%rbp)
Ltmp1079:
	.loc	38 1174 9 prologue_end
	callq	__ZN49_$LT$F$u20$as$u20$core..str..pattern..Pattern$GT$13into_searcher17hac961f80f8209124E
	movq	-112(%rbp), %rsi
Ltmp1074:
	leaq	-104(%rbp), %rdi
	callq	__ZN99_$LT$core..str..pattern..CharPredicateSearcher$LT$F$GT$$u20$as$u20$core..str..pattern..Searcher$GT$10next_match17hd4d4b8d2314ffe7bE
Ltmp1075:
	jmp	LBB198_3
LBB198_1:
	.loc	38 1173 5
	movq	-16(%rbp), %rdi
	callq	__Unwind_Resume
LBB198_2:
Ltmp1078:
	.loc	38 0 5 is_stmt 0
	movq	%rax, %rcx
	movl	%edx, %eax
	movq	%rcx, -16(%rbp)
	movl	%eax, -8(%rbp)
	jmp	LBB198_1
LBB198_3:
Ltmp1076:
	leaq	-104(%rbp), %rdi
	.loc	38 1174 9 is_stmt 1
	callq	__ZN4core6option15Option$LT$T$GT$3map17h2976242d55b502d9E
Ltmp1077:
	movq	%rdx, -128(%rbp)
	movq	%rax, -120(%rbp)
	jmp	LBB198_4
LBB198_4:
	.loc	38 0 9 is_stmt 0
	movq	-128(%rbp), %rdx
	movq	-120(%rbp), %rax
	.loc	38 1175 6 is_stmt 1
	addq	$128, %rsp
	popq	%rbp
	retq
Ltmp1080:
Lfunc_end198:
	.cfi_endproc
	.section	__TEXT,__gcc_except_tab
	.p2align	2
GCC_except_table198:
Lexception23:
	.byte	255
	.byte	255
	.byte	1
	.uleb128 Lcst_end23-Lcst_begin23
Lcst_begin23:
	.uleb128 Lfunc_begin198-Lfunc_begin198
	.uleb128 Ltmp1074-Lfunc_begin198
	.byte	0
	.byte	0
	.uleb128 Ltmp1074-Lfunc_begin198
	.uleb128 Ltmp1075-Ltmp1074
	.uleb128 Ltmp1078-Lfunc_begin198
	.byte	0
	.uleb128 Ltmp1075-Lfunc_begin198
	.uleb128 Ltmp1076-Ltmp1075
	.byte	0
	.byte	0
	.uleb128 Ltmp1076-Lfunc_begin198
	.uleb128 Ltmp1077-Ltmp1076
	.uleb128 Ltmp1078-Lfunc_begin198
	.byte	0
Lcst_end23:
	.p2align	2

	.section	__TEXT,__text,regular,pure_instructions
	.globl	__ZN4core3str21_$LT$impl$u20$str$GT$4find28_$u7b$$u7b$closure$u7d$$u7d$17h1902dac81ec772a6E
	.p2align	4, 0x90
__ZN4core3str21_$LT$impl$u20$str$GT$4find28_$u7b$$u7b$closure$u7d$$u7d$17h1902dac81ec772a6E:
Lfunc_begin199:
	.loc	38 1174 0
	.cfi_startproc
	pushq	%rbp
	.cfi_def_cfa_offset 16
	.cfi_offset %rbp, -16
	movq	%rsp, %rbp
	.cfi_def_cfa_register %rbp
	subq	$32, %rsp
	movq	%rdi, %rax
	movq	%rax, -24(%rbp)
	movq	%rsi, -16(%rbp)
Ltmp1081:
	.loc	38 1174 52 prologue_end
	movq	%rax, -8(%rbp)
	.loc	38 1174 60 is_stmt 0
	addq	$32, %rsp
	popq	%rbp
	retq
Ltmp1082:
Lfunc_end199:
	.cfi_endproc

	.globl	__ZN4core3str21_$LT$impl$u20$str$GT$4find28_$u7b$$u7b$closure$u7d$$u7d$17h2a72acf363454a91E
	.p2align	4, 0x90
__ZN4core3str21_$LT$impl$u20$str$GT$4find28_$u7b$$u7b$closure$u7d$$u7d$17h2a72acf363454a91E:
Lfunc_begin200:
	.loc	38 1174 0 is_stmt 1
	.cfi_startproc
	pushq	%rbp
	.cfi_def_cfa_offset 16
	.cfi_offset %rbp, -16
	movq	%rsp, %rbp
	.cfi_def_cfa_register %rbp
	subq	$32, %rsp
	movq	%rdi, %rax
	movq	%rax, -24(%rbp)
	movq	%rsi, -16(%rbp)
Ltmp1083:
	.loc	38 1174 52 prologue_end
	movq	%rax, -8(%rbp)
	.loc	38 1174 60 is_stmt 0
	addq	$32, %rsp
	popq	%rbp
	retq
Ltmp1084:
Lfunc_end200:
	.cfi_endproc

	.globl	__ZN4core3str21_$LT$impl$u20$str$GT$4find28_$u7b$$u7b$closure$u7d$$u7d$17hb0d6027e3d1f3ca3E
	.p2align	4, 0x90
__ZN4core3str21_$LT$impl$u20$str$GT$4find28_$u7b$$u7b$closure$u7d$$u7d$17hb0d6027e3d1f3ca3E:
Lfunc_begin201:
	.loc	38 1174 0 is_stmt 1
	.cfi_startproc
	pushq	%rbp
	.cfi_def_cfa_offset 16
	.cfi_offset %rbp, -16
	movq	%rsp, %rbp
	.cfi_def_cfa_register %rbp
	subq	$32, %rsp
	movq	%rdi, %rax
	movq	%rax, -24(%rbp)
	movq	%rsi, -16(%rbp)
Ltmp1085:
	.loc	38 1174 52 prologue_end
	movq	%rax, -8(%rbp)
	.loc	38 1174 60 is_stmt 0
	addq	$32, %rsp
	popq	%rbp
	retq
Ltmp1086:
Lfunc_end201:
	.cfi_endproc

	.p2align	4, 0x90
__ZN4core3str21_$LT$impl$u20$str$GT$5chars17h3a28938311afa5cdE:
Lfunc_begin202:
	.loc	38 782 0 is_stmt 1
	.cfi_startproc
	pushq	%rbp
	.cfi_def_cfa_offset 16
	.cfi_offset %rbp, -16
	movq	%rsp, %rbp
	.cfi_def_cfa_register %rbp
	subq	$80, %rsp
	movq	%rdi, -64(%rbp)
	movq	%rsi, -56(%rbp)
Ltmp1087:
	.loc	38 783 23 prologue_end
	movq	%rdi, -48(%rbp)
	movq	%rsi, -40(%rbp)
Ltmp1088:
	.loc	38 327 18
	movq	%rdi, -32(%rbp)
	movq	%rsi, -24(%rbp)
	movq	-32(%rbp), %rdi
	movq	-24(%rbp), %rsi
Ltmp1089:
	.loc	38 783 23
	movq	%rdi, -16(%rbp)
	movq	%rsi, -8(%rbp)
Ltmp1090:
	.loc	47 742 9
	callq	__ZN4core5slice4iter13Iter$LT$T$GT$3new17h5edf71225e1a7efdE
Ltmp1091:
	.loc	38 783 9
	movq	%rax, -80(%rbp)
	movq	%rdx, -72(%rbp)
	.loc	38 784 6
	movq	-80(%rbp), %rax
	movq	-72(%rbp), %rdx
	addq	$80, %rsp
	popq	%rbp
	retq
Ltmp1092:
Lfunc_end202:
	.cfi_endproc

	.globl	__ZN4core3str21_$LT$impl$u20$str$GT$5parse17h16254ee76e236be9E
	.p2align	4, 0x90
__ZN4core3str21_$LT$impl$u20$str$GT$5parse17h16254ee76e236be9E:
Lfunc_begin203:
	.loc	38 2352 0
	.cfi_startproc
	pushq	%rbp
	.cfi_def_cfa_offset 16
	.cfi_offset %rbp, -16
	movq	%rsp, %rbp
	.cfi_def_cfa_register %rbp
	subq	$32, %rsp
	movq	%rdi, -24(%rbp)
	movq	%rsi, -16(%rbp)
Ltmp1093:
	.loc	38 2353 9 prologue_end
	callq	__ZN4core3num60_$LT$impl$u20$core..str..traits..FromStr$u20$for$u20$u16$GT$8from_str17h69b6f16831beded9E
	movl	%eax, -4(%rbp)
	movl	-4(%rbp), %eax
	movl	%eax, -32(%rbp)
	.loc	38 2354 6
	movl	-32(%rbp), %eax
	addq	$32, %rsp
	popq	%rbp
	retq
Ltmp1094:
Lfunc_end203:
	.cfi_endproc

	.globl	__ZN4core3str21_$LT$impl$u20$str$GT$6rsplit17h8e923759b452184bE
	.p2align	4, 0x90
__ZN4core3str21_$LT$impl$u20$str$GT$6rsplit17h8e923759b452184bE:
Lfunc_begin204:
	.loc	38 1436 0
	.cfi_startproc
	pushq	%rbp
	.cfi_def_cfa_offset 16
	.cfi_offset %rbp, -16
	movq	%rsp, %rbp
	.cfi_def_cfa_register %rbp
	subq	$192, %rsp
	movq	%rdi, -184(%rbp)
	movq	%rdi, -176(%rbp)
	movq	%rsi, -24(%rbp)
	movq	%rdx, -16(%rbp)
	movl	%ecx, -4(%rbp)
Ltmp1095:
	.loc	38 1440 16 prologue_end
	leaq	-96(%rbp), %rdi
	callq	__ZN4core3str21_$LT$impl$u20$str$GT$5split17h40f8e518691f7f58E
	leaq	-168(%rbp), %rdi
	leaq	-96(%rbp), %rsi
	movl	$72, %edx
	callq	_memcpy
	movq	-184(%rbp), %rdi
	.loc	38 1440 9 is_stmt 0
	leaq	-168(%rbp), %rsi
	movl	$72, %edx
	callq	_memcpy
	movq	-176(%rbp), %rax
	.loc	38 1441 6 is_stmt 1
	addq	$192, %rsp
	popq	%rbp
	retq
Ltmp1096:
Lfunc_end204:
	.cfi_endproc

	.p2align	4, 0x90
__ZN4core3str21_$LT$impl$u20$str$GT$8is_empty17h2c68b32a4f7223c0E:
Lfunc_begin205:
	.loc	38 180 0
	.cfi_startproc
	pushq	%rbp
	.cfi_def_cfa_offset 16
	.cfi_offset %rbp, -16
	movq	%rsp, %rbp
	.cfi_def_cfa_register %rbp
	subq	$64, %rsp
	movq	%rdi, -64(%rbp)
	movq	%rsi, -56(%rbp)
Ltmp1097:
	.loc	38 181 9 prologue_end
	movq	%rdi, -48(%rbp)
	movq	%rsi, -40(%rbp)
Ltmp1098:
	.loc	38 160 9
	movq	%rdi, -32(%rbp)
	movq	%rsi, -24(%rbp)
Ltmp1099:
	.loc	38 327 18
	movq	%rdi, -16(%rbp)
	movq	%rsi, -8(%rbp)
Ltmp1100:
	.loc	38 181 9
	cmpq	$0, -8(%rbp)
	sete	%al
	.loc	38 182 6
	andb	$1, %al
	movzbl	%al, %eax
	addq	$64, %rsp
	popq	%rbp
	retq
Ltmp1101:
Lfunc_end205:
	.cfi_endproc

	.p2align	4, 0x90
__ZN4core3str21_$LT$impl$u20$str$GT$8split_at17h31eb00c8f3c16bf6E:
Lfunc_begin206:
	.loc	38 672 0
	.cfi_startproc
	pushq	%rbp
	.cfi_def_cfa_offset 16
	.cfi_offset %rbp, -16
	movq	%rsp, %rbp
	.cfi_def_cfa_register %rbp
	subq	$192, %rsp
	movq	%rcx, -176(%rbp)
	movq	%rdx, %rax
	movq	-176(%rbp), %rdx
	movq	%rax, -168(%rbp)
	movq	%rsi, %rax
	movq	-168(%rbp), %rsi
	movq	%rax, -160(%rbp)
	movq	%rdi, %rax
	movq	-160(%rbp), %rdi
	movq	%rax, -152(%rbp)
	movq	%rax, -144(%rbp)
	movq	%rdi, -104(%rbp)
	movq	%rsi, -96(%rbp)
	movq	%rdx, -88(%rbp)
Ltmp1102:
	.loc	38 674 12 prologue_end
	callq	__ZN4core3str21_$LT$impl$u20$str$GT$16is_char_boundary17h94080001a4b2914dE
	testb	$1, %al
	jne	LBB206_2
	.loc	38 0 12 is_stmt 0
	movq	-176(%rbp), %rcx
	movq	-168(%rbp), %rsi
	movq	-160(%rbp), %rdi
	.loc	38 678 13 is_stmt 1
	leaq	l___unnamed_36(%rip), %r8
	xorl	%eax, %eax
	movl	%eax, %edx
	callq	__ZN4core3str16slice_error_fail17h13b85bf03fb2869bE
LBB206_2:
	.loc	38 0 13 is_stmt 0
	movq	-168(%rbp), %rcx
	movq	-160(%rbp), %rdx
	movq	-176(%rbp), %rax
	.loc	38 676 23 is_stmt 1
	movq	%rdx, -80(%rbp)
	movq	%rcx, -72(%rbp)
	.loc	38 676 42 is_stmt 0
	movq	$0, -136(%rbp)
	movq	%rax, -128(%rbp)
Ltmp1103:
	.loc	38 511 20 is_stmt 1
	movq	-136(%rbp), %rdi
	movq	-128(%rbp), %rsi
	callq	__ZN4core3str6traits108_$LT$impl$u20$core..slice..index..SliceIndex$LT$str$GT$$u20$for$u20$core..ops..range..Range$LT$usize$GT$$GT$13get_unchecked17h879fcc8b3f9dd538E
	movq	-176(%rbp), %rsi
	movq	-168(%rbp), %rcx
	movq	%rax, -192(%rbp)
	movq	%rdx, %rax
	movq	-160(%rbp), %rdx
	movq	%rax, -184(%rbp)
Ltmp1104:
	.loc	38 676 51
	movq	%rdx, -64(%rbp)
	movq	%rcx, -56(%rbp)
	.loc	38 676 75 is_stmt 0
	movq	%rdx, -48(%rbp)
	movq	%rcx, -40(%rbp)
Ltmp1105:
	.loc	38 160 9 is_stmt 1
	movq	%rdx, -32(%rbp)
	movq	%rcx, -24(%rbp)
Ltmp1106:
	.loc	38 327 18
	movq	%rdx, -16(%rbp)
	movq	%rcx, -8(%rbp)
	movq	-8(%rbp), %rax
Ltmp1107:
	.loc	38 676 70
	movq	%rsi, -120(%rbp)
	movq	%rax, -112(%rbp)
Ltmp1108:
	.loc	38 511 20
	movq	-120(%rbp), %rdi
	movq	-112(%rbp), %rsi
	callq	__ZN4core3str6traits108_$LT$impl$u20$core..slice..index..SliceIndex$LT$str$GT$$u20$for$u20$core..ops..range..Range$LT$usize$GT$$GT$13get_unchecked17h879fcc8b3f9dd538E
	movq	-192(%rbp), %r8
	movq	-184(%rbp), %rdi
	movq	-152(%rbp), %rcx
	movq	%rax, %rsi
	movq	-144(%rbp), %rax
Ltmp1109:
	.loc	38 676 22
	movq	%r8, (%rcx)
	movq	%rdi, 8(%rcx)
	movq	%rsi, 16(%rcx)
	movq	%rdx, 24(%rcx)
	.loc	38 680 6
	addq	$192, %rsp
	popq	%rbp
	retq
Ltmp1110:
Lfunc_end206:
	.cfi_endproc

	.globl	__ZN4core3str4iter22SplitInternal$LT$P$GT$9next_back17h3be9ca519bc43ce2E
	.p2align	4, 0x90
__ZN4core3str4iter22SplitInternal$LT$P$GT$9next_back17h3be9ca519bc43ce2E:
Lfunc_begin207:
	.loc	7 640 0
	.cfi_startproc
	pushq	%rbp
	.cfi_def_cfa_offset 16
	.cfi_offset %rbp, -16
	movq	%rsp, %rbp
	.cfi_def_cfa_register %rbp
	subq	$304, %rsp
	movq	%rdi, -272(%rbp)
	movq	%rdi, -176(%rbp)
Ltmp1111:
	.loc	7 644 12 prologue_end
	testb	$1, 65(%rdi)
	jne	LBB207_2
	.loc	7 0 12 is_stmt 0
	movq	-272(%rbp), %rax
	.loc	7 648 13 is_stmt 1
	movb	64(%rax), %al
	.loc	7 648 12 is_stmt 0
	xorb	$-1, %al
	testb	$1, %al
	jne	LBB207_5
	jmp	LBB207_4
LBB207_2:
	.loc	7 645 20 is_stmt 1
	movq	$0, -264(%rbp)
LBB207_3:
	.loc	7 674 6
	movq	-264(%rbp), %rax
	movq	-256(%rbp), %rdx
	addq	$304, %rsp
	popq	%rbp
	retq
LBB207_4:
	.loc	7 0 6 is_stmt 0
	movq	-272(%rbp), %rdi
	.loc	7 660 24 is_stmt 1
	callq	__ZN81_$LT$core..str..pattern..CharSearcher$u20$as$u20$core..str..pattern..Searcher$GT$8haystack17h3869e409c9c7d67bE
	movq	-272(%rbp), %rsi
	movq	%rax, -288(%rbp)
	movq	%rdx, -280(%rbp)
	movq	%rax, -80(%rbp)
	movq	%rdx, -72(%rbp)
Ltmp1112:
	.loc	7 661 15
	leaq	-232(%rbp), %rdi
	callq	__ZN88_$LT$core..str..pattern..CharSearcher$u20$as$u20$core..str..pattern..ReverseSearcher$GT$15next_match_back17hfc1821cf09113337E
	.loc	7 661 9 is_stmt 0
	cmpq	$0, -232(%rbp)
	je	LBB207_13
	jmp	LBB207_14
Ltmp1113:
LBB207_5:
	.loc	7 0 9
	movq	-272(%rbp), %rdi
	.loc	7 649 13 is_stmt 1
	movb	$1, 64(%rdi)
	.loc	7 650 19
	callq	__ZN4core3str4iter22SplitInternal$LT$P$GT$9next_back17h3be9ca519bc43ce2E
	movq	%rdx, -240(%rbp)
	movq	%rax, -248(%rbp)
	movq	-248(%rbp), %rdx
	movl	$1, %eax
	xorl	%ecx, %ecx
	cmpq	$0, %rdx
	cmoveq	%rcx, %rax
	.loc	7 650 13 is_stmt 0
	cmpq	$1, %rax
	jne	LBB207_7
	.loc	7 651 22 is_stmt 1
	leaq	-248(%rbp), %rax
	movq	%rax, -168(%rbp)
	.loc	7 651 31 is_stmt 0
	movq	-248(%rbp), %rcx
	movq	-240(%rbp), %rax
	movq	%rcx, -160(%rbp)
	movq	%rax, -152(%rbp)
Ltmp1114:
	.loc	38 181 9 is_stmt 1
	movq	%rcx, -144(%rbp)
	movq	%rax, -136(%rbp)
Ltmp1115:
	.loc	38 160 9
	movq	%rcx, -128(%rbp)
	movq	%rax, -120(%rbp)
Ltmp1116:
	.loc	38 327 18
	movq	%rcx, -112(%rbp)
	movq	%rax, -104(%rbp)
Ltmp1117:
	.loc	38 181 9
	cmpq	$0, -104(%rbp)
	sete	%al
Ltmp1118:
	.loc	7 651 30
	xorb	$-1, %al
	testb	$1, %al
	jne	LBB207_9
	jmp	LBB207_8
LBB207_7:
	.loc	7 0 30 is_stmt 0
	movq	-272(%rbp), %rax
	.loc	7 653 24 is_stmt 1
	testb	$1, 65(%rax)
	jne	LBB207_12
	jmp	LBB207_11
LBB207_8:
	.loc	7 651 30
	jmp	LBB207_7
LBB207_9:
	.loc	7 651 22 is_stmt 0
	movq	-248(%rbp), %rcx
	movq	-240(%rbp), %rax
	movq	%rcx, -96(%rbp)
	movq	%rax, -88(%rbp)
Ltmp1119:
	.loc	7 651 56
	movq	%rcx, -264(%rbp)
	movq	%rax, -256(%rbp)
Ltmp1120:
LBB207_10:
	.file	49 "/Users/natalie/.cargo/registry/src/github.com-1ecc6299db9ec823/url-2.3.1" "src/lib.rs"
	.loc	49 1 1 is_stmt 1
	jmp	LBB207_3
LBB207_11:
	.loc	7 648 9
	jmp	LBB207_4
LBB207_12:
	.loc	7 654 32
	movq	$0, -264(%rbp)
	.loc	49 1 1
	jmp	LBB207_10
LBB207_13:
	.loc	49 0 1 is_stmt 0
	movq	-280(%rbp), %rcx
	movq	-288(%rbp), %rdx
	movq	-272(%rbp), %rax
Ltmp1121:
	.loc	7 670 17 is_stmt 1
	movb	$1, 65(%rax)
	.loc	7 671 22
	movq	%rdx, -16(%rbp)
	movq	%rcx, -8(%rbp)
	.loc	7 671 45 is_stmt 0
	movq	48(%rax), %rsi
	.loc	7 671 57
	movq	56(%rax), %rax
	.loc	7 671 45
	movq	%rsi, -192(%rbp)
	movq	%rax, -184(%rbp)
Ltmp1122:
	.loc	38 511 20 is_stmt 1
	movq	-192(%rbp), %rdi
	movq	-184(%rbp), %rsi
	callq	__ZN4core3str6traits108_$LT$impl$u20$core..slice..index..SliceIndex$LT$str$GT$$u20$for$u20$core..ops..range..Range$LT$usize$GT$$GT$13get_unchecked17h879fcc8b3f9dd538E
Ltmp1123:
	.loc	7 671 17
	movq	%rax, -264(%rbp)
	movq	%rdx, -256(%rbp)
	.loc	7 672 13
	jmp	LBB207_15
LBB207_14:
	.loc	7 0 13 is_stmt 0
	movq	-272(%rbp), %rax
	movq	-280(%rbp), %rcx
	movq	-288(%rbp), %rdx
	.loc	7 663 19 is_stmt 1
	movq	-224(%rbp), %rsi
	movq	%rsi, -296(%rbp)
	movq	%rsi, -64(%rbp)
	.loc	7 663 22 is_stmt 0
	movq	-216(%rbp), %rsi
	movq	%rsi, -56(%rbp)
Ltmp1124:
	.loc	7 664 27 is_stmt 1
	movq	%rdx, -48(%rbp)
	movq	%rcx, -40(%rbp)
	.loc	7 664 53 is_stmt 0
	movq	56(%rax), %rax
	.loc	7 664 50
	movq	%rsi, -208(%rbp)
	movq	%rax, -200(%rbp)
Ltmp1125:
	.loc	38 511 20 is_stmt 1
	movq	-208(%rbp), %rdi
	movq	-200(%rbp), %rsi
	callq	__ZN4core3str6traits108_$LT$impl$u20$core..slice..index..SliceIndex$LT$str$GT$$u20$for$u20$core..ops..range..Range$LT$usize$GT$$GT$13get_unchecked17h879fcc8b3f9dd538E
	movq	-296(%rbp), %rsi
	movq	-272(%rbp), %rcx
	.loc	38 511 18 is_stmt 0
	movq	%rax, -32(%rbp)
	movq	%rdx, -24(%rbp)
Ltmp1126:
	.loc	7 665 17 is_stmt 1
	movq	%rsi, 56(%rcx)
	.loc	7 666 17
	movq	%rax, -264(%rbp)
	movq	%rdx, -256(%rbp)
Ltmp1127:
LBB207_15:
	.loc	7 674 6
	jmp	LBB207_3
Ltmp1128:
Lfunc_end207:
	.cfi_endproc

	.p2align	4, 0x90
__ZN4core3str4iter5Chars6as_str17hb0fdf4f253d577e9E:
Lfunc_begin208:
	.loc	7 112 0
	.cfi_startproc
	pushq	%rbp
	.cfi_def_cfa_offset 16
	.cfi_offset %rbp, -16
	movq	%rsp, %rbp
	.cfi_def_cfa_register %rbp
	subq	$48, %rsp
	movq	%rdi, -40(%rbp)
Ltmp1129:
	.loc	7 114 38 prologue_end
	callq	__ZN4core5slice4iter13Iter$LT$T$GT$8as_slice17hd0437264ef6f7084E
	movq	%rax, -32(%rbp)
	movq	%rdx, -24(%rbp)
Ltmp1130:
	.loc	23 173 14
	movq	%rax, -16(%rbp)
	movq	%rdx, -8(%rbp)
	movq	-16(%rbp), %rax
	movq	-8(%rbp), %rdx
Ltmp1131:
	.loc	7 115 6
	addq	$48, %rsp
	popq	%rbp
	retq
Ltmp1132:
Lfunc_end208:
	.cfi_endproc

	.p2align	4, 0x90
__ZN4core3str6traits108_$LT$impl$u20$core..slice..index..SliceIndex$LT$str$GT$$u20$for$u20$core..ops..range..Range$LT$usize$GT$$GT$13get_unchecked17h879fcc8b3f9dd538E:
Lfunc_begin209:
	.loc	24 197 0
	.cfi_startproc
	pushq	%rbp
	.cfi_def_cfa_offset 16
	.cfi_offset %rbp, -16
	movq	%rsp, %rbp
	.cfi_def_cfa_register %rbp
	subq	$192, %rsp
	movq	%rdi, -160(%rbp)
	movq	%rsi, -152(%rbp)
	movq	%rdx, -144(%rbp)
	movq	%rcx, -136(%rbp)
Ltmp1133:
	.loc	24 198 21 prologue_end
	movq	%rdx, -128(%rbp)
	movq	%rcx, -120(%rbp)
Ltmp1134:
	.loc	24 201 28
	movq	%rdx, -112(%rbp)
	movq	%rcx, -104(%rbp)
Ltmp1135:
	.loc	10 1650 9
	movq	%rdx, -96(%rbp)
Ltmp1136:
	.loc	24 201 47
	movq	%rdi, -88(%rbp)
Ltmp1137:
	.loc	10 932 18
	movq	%rdx, -80(%rbp)
	.loc	10 932 30 is_stmt 0
	movq	%rdi, -72(%rbp)
Ltmp1138:
	.loc	10 473 18 is_stmt 1
	addq	%rdi, %rdx
	movq	%rdx, -64(%rbp)
	movq	-64(%rbp), %rax
	movq	%rax, -56(%rbp)
Ltmp1139:
	.loc	24 202 19
	subq	%rdi, %rsi
	movq	%rsi, -48(%rbp)
Ltmp1140:
	.loc	24 203 35
	movq	%rax, -40(%rbp)
	.loc	24 203 40 is_stmt 0
	movq	%rsi, -32(%rbp)
Ltmp1141:
	.loc	11 734 20 is_stmt 1
	movq	%rax, -24(%rbp)
Ltmp1142:
	.loc	10 61 9
	movq	%rax, -16(%rbp)
Ltmp1143:
	.loc	11 734 33
	movq	%rsi, -8(%rbp)
Ltmp1144:
	.loc	13 118 36
	movq	%rax, -176(%rbp)
	movq	%rsi, -168(%rbp)
