	.section	__TEXT,__text,regular,pure_instructions
	.macosx_version_min 10, 7
	.globl	__ZN102_$LT$core..iter..adapters..map..Map$LT$I$C$F$GT$$u20$as$u20$core..iter..traits..iterator..Iterator$GT$4fold17h7569d7150510e430E
	.p2align	4, 0x90
__ZN102_$LT$core..iter..adapters..map..Map$LT$I$C$F$GT$$u20$as$u20$core..iter..traits..iterator..Iterator$GT$4fold17h7569d7150510e430E:
Lfunc_begin0:
	.file	1 "/rustc/2c8cc343237b8f7d5a3c3703e3a87f2eb2c54a74/library/core/src/iter/adapters" "map.rs"
	.loc	1 120 0
	.cfi_startproc
	.cfi_personality 155, _rust_eh_personality
	.cfi_lsda 16, Lexception0
	pushq	%rbp
	.cfi_def_cfa_offset 16
	.cfi_offset %rbp, -16
	movq	%rsp, %rbp
	.cfi_def_cfa_register %rbp
	subq	$160, %rsp
	movq	%rsi, %rax
	movq	%rdi, %rsi
Ltmp5:
	movq	%rax, -136(%rbp)
	movq	%rdx, -128(%rbp)
	movq	%rax, -40(%rbp)
	movq	%rdx, -32(%rbp)
Ltmp6:
	.loc	1 124 9 prologue_end
	movb	$1, -41(%rbp)
	movl	$9, %ecx
	leaq	-120(%rbp), %rdi
	rep;movsq (%rsi), %es:(%rdi)
Ltmp7:
	.loc	1 124 24 is_stmt 0
	movb	$1, -42(%rbp)
Ltmp0:
	.loc	1 124 30
	callq	__ZN4core4iter8adapters3map8map_fold17hdbaf7dde323b5966E
Ltmp1:
	jmp	LBB0_3
LBB0_1:
	.loc	1 124 49
	testb	$1, -42(%rbp)
	jne	LBB0_6
	jmp	LBB0_5
LBB0_2:
Ltmp4:
	.loc	1 0 49
	movq	%rax, %rcx
	movl	%edx, %eax
	movq	%rcx, -16(%rbp)
	movl	%eax, -8(%rbp)
	jmp	LBB0_1
LBB0_3:
	movq	-128(%rbp), %rdx
	movq	-136(%rbp), %rsi
	.loc	1 124 9
	movb	$0, -41(%rbp)
	movb	$0, -42(%rbp)
Ltmp2:
	leaq	-120(%rbp), %rdi
	callq	__ZN108_$LT$core..iter..adapters..filter..Filter$LT$I$C$P$GT$$u20$as$u20$core..iter..traits..iterator..Iterator$GT$4fold17h2b8e48129ba87a07E
Ltmp3:
	movq	%rdx, -152(%rbp)
	movq	%rax, -144(%rbp)
	jmp	LBB0_4
LBB0_4:
	.loc	1 0 9
	movq	-152(%rbp), %rdx
	movq	-144(%rbp), %rax
	.loc	1 125 6 is_stmt 1
	addq	$160, %rsp
	popq	%rbp
	retq
LBB0_5:
	.loc	1 124 49
	testb	$1, -41(%rbp)
	jne	LBB0_8
	jmp	LBB0_7
LBB0_6:
	jmp	LBB0_5
LBB0_7:
	.loc	1 120 5
	movq	-16(%rbp), %rdi
	callq	__Unwind_Resume
LBB0_8:
	.loc	1 124 49
	jmp	LBB0_7
Ltmp8:
Lfunc_end0:
	.cfi_endproc
	.section	__TEXT,__gcc_except_tab
	.p2align	2
GCC_except_table0:
Lexception0:
	.byte	255
	.byte	255
	.byte	1
	.uleb128 Lcst_end0-Lcst_begin0
Lcst_begin0:
	.uleb128 Ltmp0-Lfunc_begin0
	.uleb128 Ltmp3-Ltmp0
	.uleb128 Ltmp4-Lfunc_begin0
	.byte	0
	.uleb128 Ltmp3-Lfunc_begin0
	.uleb128 Lfunc_end0-Ltmp3
	.byte	0
	.byte	0
Lcst_end0:
	.p2align	2

	.section	__TEXT,__text,regular,pure_instructions
	.globl	__ZN102_$LT$core..iter..adapters..map..Map$LT$I$C$F$GT$$u20$as$u20$core..iter..traits..iterator..Iterator$GT$4fold17hf9240711492307a7E
	.p2align	4, 0x90
__ZN102_$LT$core..iter..adapters..map..Map$LT$I$C$F$GT$$u20$as$u20$core..iter..traits..iterator..Iterator$GT$4fold17hf9240711492307a7E:
Lfunc_begin1:
	.loc	1 120 0
	.cfi_startproc
	.cfi_personality 155, _rust_eh_personality
	.cfi_lsda 16, Lexception1
	pushq	%rbp
	.cfi_def_cfa_offset 16
	.cfi_offset %rbp, -16
	movq	%rsp, %rbp
	.cfi_def_cfa_register %rbp
	subq	$160, %rsp
	movq	%rsi, %rax
	movq	%rdi, %rsi
Ltmp14:
	movq	%rax, -136(%rbp)
	movq	%rdx, -128(%rbp)
	movq	%rax, -40(%rbp)
	movq	%rdx, -32(%rbp)
Ltmp15:
	.loc	1 124 9 prologue_end
	movb	$1, -41(%rbp)
	movl	$9, %ecx
	leaq	-120(%rbp), %rdi
	rep;movsq (%rsi), %es:(%rdi)
Ltmp16:
	.loc	1 124 24 is_stmt 0
	movb	$1, -42(%rbp)
Ltmp9:
	.loc	1 124 30
	callq	__ZN4core4iter8adapters3map8map_fold17h184a407d22d434e8E
Ltmp10:
	jmp	LBB1_3
LBB1_1:
	.loc	1 124 49
	testb	$1, -42(%rbp)
	jne	LBB1_6
	jmp	LBB1_5
LBB1_2:
Ltmp13:
	.loc	1 0 49
	movq	%rax, %rcx
	movl	%edx, %eax
	movq	%rcx, -16(%rbp)
	movl	%eax, -8(%rbp)
	jmp	LBB1_1
LBB1_3:
	movq	-128(%rbp), %rdx
	movq	-136(%rbp), %rsi
	.loc	1 124 9
	movb	$0, -41(%rbp)
	movb	$0, -42(%rbp)
Ltmp11:
	leaq	-120(%rbp), %rdi
	callq	__ZN4core4iter6traits8iterator8Iterator4fold17h18d18482028210dbE
Ltmp12:
	movq	%rdx, -152(%rbp)
	movq	%rax, -144(%rbp)
	jmp	LBB1_4
LBB1_4:
	.loc	1 0 9
	movq	-152(%rbp), %rdx
	movq	-144(%rbp), %rax
	.loc	1 125 6 is_stmt 1
	addq	$160, %rsp
	popq	%rbp
	retq
LBB1_5:
	.loc	1 124 49
	testb	$1, -41(%rbp)
	jne	LBB1_8
	jmp	LBB1_7
LBB1_6:
	jmp	LBB1_5
LBB1_7:
	.loc	1 120 5
	movq	-16(%rbp), %rdi
	callq	__Unwind_Resume
LBB1_8:
	.loc	1 124 49
	jmp	LBB1_7
Ltmp17:
Lfunc_end1:
	.cfi_endproc
	.section	__TEXT,__gcc_except_tab
	.p2align	2
GCC_except_table1:
Lexception1:
	.byte	255
	.byte	255
	.byte	1
	.uleb128 Lcst_end1-Lcst_begin1
Lcst_begin1:
	.uleb128 Ltmp9-Lfunc_begin1
	.uleb128 Ltmp12-Ltmp9
	.uleb128 Ltmp13-Lfunc_begin1
	.byte	0
	.uleb128 Ltmp12-Lfunc_begin1
	.uleb128 Lfunc_end1-Ltmp12
	.byte	0
	.byte	0
Lcst_end1:
	.p2align	2

	.section	__TEXT,__text,regular,pure_instructions
	.globl	__ZN102_$LT$core..iter..adapters..map..Map$LT$I$C$F$GT$$u20$as$u20$core..iter..traits..iterator..Iterator$GT$4next17h99af66614470bf0aE
	.p2align	4, 0x90
__ZN102_$LT$core..iter..adapters..map..Map$LT$I$C$F$GT$$u20$as$u20$core..iter..traits..iterator..Iterator$GT$4next17h99af66614470bf0aE:
Lfunc_begin2:
	.loc	1 102 0
	.cfi_startproc
	pushq	%rbp
	.cfi_def_cfa_offset 16
	.cfi_offset %rbp, -16
	movq	%rsp, %rbp
	.cfi_def_cfa_register %rbp
	subq	$32, %rsp
	movq	%rdi, -32(%rbp)
	movq	%rdi, -16(%rbp)
Ltmp18:
	.loc	1 103 9 prologue_end
	callq	__ZN90_$LT$core..str..iter..Split$LT$P$GT$$u20$as$u20$core..iter..traits..iterator..Iterator$GT$4next17h4e91d0559a753658E
	movq	%rax, %rdi
	movq	%rdx, %rsi
	movq	-32(%rbp), %rdx
	callq	__ZN4core6option15Option$LT$T$GT$3map17h30e464aef448ee95E
	movl	%eax, -4(%rbp)
	movl	-4(%rbp), %eax
	movl	%eax, -24(%rbp)
	.loc	1 104 6
	movl	-24(%rbp), %eax
	addq	$32, %rsp
	popq	%rbp
	retq
Ltmp19:
Lfunc_end2:
	.cfi_endproc

	.globl	__ZN102_$LT$core..iter..adapters..map..Map$LT$I$C$F$GT$$u20$as$u20$core..iter..traits..iterator..Iterator$GT$4next17hbdce6f30107d2a62E
	.p2align	4, 0x90
__ZN102_$LT$core..iter..adapters..map..Map$LT$I$C$F$GT$$u20$as$u20$core..iter..traits..iterator..Iterator$GT$4next17hbdce6f30107d2a62E:
Lfunc_begin3:
	.loc	1 102 0
	.cfi_startproc
	pushq	%rbp
	.cfi_def_cfa_offset 16
	.cfi_offset %rbp, -16
	movq	%rsp, %rbp
	.cfi_def_cfa_register %rbp
	subq	$32, %rsp
	movq	%rdi, -32(%rbp)
	movq	%rdi, -16(%rbp)
Ltmp20:
	.loc	1 103 9 prologue_end
	callq	__ZN90_$LT$core..str..iter..Split$LT$P$GT$$u20$as$u20$core..iter..traits..iterator..Iterator$GT$4next17h4e91d0559a753658E
	movq	%rax, %rdi
	movq	%rdx, %rsi
	movq	-32(%rbp), %rdx
	callq	__ZN4core6option15Option$LT$T$GT$3map17h577179e53c31be7aE
	movl	%eax, -4(%rbp)
	movl	-4(%rbp), %eax
	movl	%eax, -24(%rbp)
	.loc	1 104 6
	movl	-24(%rbp), %eax
	addq	$32, %rsp
	popq	%rbp
	retq
Ltmp21:
Lfunc_end3:
	.cfi_endproc

	.p2align	4, 0x90
__ZN102_$LT$core..str..iter..CharIndices$u20$as$u20$core..iter..traits..double_ended..DoubleEndedIterator$GT$9next_back17h479c60513968115fE:
Lfunc_begin4:
	.file	2 "/rustc/2c8cc343237b8f7d5a3c3703e3a87f2eb2c54a74/library/core/src/str" "iter.rs"
	.loc	2 171 0
	.cfi_startproc
	pushq	%rbp
	.cfi_def_cfa_offset 16
	.cfi_offset %rbp, -16
	movq	%rsp, %rbp
	.cfi_def_cfa_register %rbp
	subq	$48, %rsp
	movq	%rdi, -40(%rbp)
	movq	%rdi, -16(%rbp)
Ltmp22:
	.loc	2 172 9 prologue_end
	movq	%rdi, -8(%rbp)
Ltmp23:
	.loc	2 84 18
	callq	__ZN4core3str11validations23next_code_point_reverse17hd89b288730b77902E
	movl	%eax, %edi
	movl	%edx, %esi
	callq	__ZN4core6option15Option$LT$T$GT$3map17h44f74f39aad00676E
	movl	%eax, %edi
	movq	-40(%rbp), %rax
Ltmp24:
	.loc	2 172 35
	movq	%rax, %rcx
	addq	$16, %rcx
	movq	%rcx, -32(%rbp)
	movq	%rax, -24(%rbp)
	.loc	2 172 9 is_stmt 0
	movq	-32(%rbp), %rsi
	movq	-24(%rbp), %rdx
	callq	__ZN4core6option15Option$LT$T$GT$3map17h44baba844d13f0b5E
	.loc	2 176 6 is_stmt 1
	addq	$48, %rsp
	popq	%rbp
	retq
Ltmp25:
Lfunc_end4:
	.cfi_endproc

	.globl	__ZN102_$LT$core..str..iter..CharIndices$u20$as$u20$core..iter..traits..double_ended..DoubleEndedIterator$GT$9next_back28_$u7b$$u7b$closure$u7d$$u7d$17hb784b11b1714ea66E
	.p2align	4, 0x90
__ZN102_$LT$core..str..iter..CharIndices$u20$as$u20$core..iter..traits..double_ended..DoubleEndedIterator$GT$9next_back28_$u7b$$u7b$closure$u7d$$u7d$17hb784b11b1714ea66E:
Lfunc_begin5:
	.loc	2 172 0
	.cfi_startproc
	pushq	%rbp
	.cfi_def_cfa_offset 16
	.cfi_offset %rbp, -16
	movq	%rsp, %rbp
	.cfi_def_cfa_register %rbp
	subq	$96, %rsp
	movl	%edx, -84(%rbp)
	movq	%rdi, -72(%rbp)
	movq	%rsi, -64(%rbp)
	movl	%edx, -36(%rbp)
Ltmp26:
	.loc	2 173 25 prologue_end
	movq	-72(%rbp), %rcx
	.loc	2 173 45 is_stmt 0
	movq	-64(%rbp), %rax
	.loc	2 173 25
	movq	(%rcx), %rcx
	movq	%rcx, -80(%rbp)
	.loc	2 173 45
	movq	%rax, -32(%rbp)
Ltmp27:
	.file	3 "/rustc/2c8cc343237b8f7d5a3c3703e3a87f2eb2c54a74/library/core/src/slice/iter" "macros.rs"
	.loc	3 16 21 is_stmt 1
	movq	8(%rax), %rsi
	movq	%rsi, -24(%rbp)
Ltmp28:
	.loc	3 25 22
	movq	(%rax), %rdi
	.loc	3 25 40 is_stmt 0
	movq	%rsi, -16(%rbp)
	.loc	3 25 22
	callq	__ZN4core3ptr9const_ptr33_$LT$impl$u20$$BP$const$u20$T$GT$7sub_ptr17h14b46f381cfdda66E
	movl	-84(%rbp), %edx
	movq	%rax, %rcx
	movq	-80(%rbp), %rax
Ltmp29:
	.loc	2 173 25 is_stmt 1
	addq	%rcx, %rax
	movq	%rax, -8(%rbp)
Ltmp30:
	.loc	2 174 13
	movq	%rax, -56(%rbp)
	movl	%edx, -48(%rbp)
Ltmp31:
	.loc	2 175 10
	movq	-56(%rbp), %rax
	movl	-48(%rbp), %edx
	addq	$96, %rsp
	popq	%rbp
	retq
Ltmp32:
Lfunc_end5:
	.cfi_endproc

	.globl	__ZN104_$LT$core..ops..control_flow..ControlFlow$LT$B$C$C$GT$$u20$as$u20$core..ops..try_trait..FromResidual$GT$13from_residual17h0bc2a5a49b50a4b6E
	.p2align	4, 0x90
__ZN104_$LT$core..ops..control_flow..ControlFlow$LT$B$C$C$GT$$u20$as$u20$core..ops..try_trait..FromResidual$GT$13from_residual17h0bc2a5a49b50a4b6E:
Lfunc_begin6:
	.file	4 "/rustc/2c8cc343237b8f7d5a3c3703e3a87f2eb2c54a74/library/core/src/ops" "control_flow.rs"
	.loc	4 123 0
	.cfi_startproc
	pushq	%rbp
	.cfi_def_cfa_offset 16
	.cfi_offset %rbp, -16
	movq	%rsp, %rbp
	.cfi_def_cfa_register %rbp
	subq	$32, %rsp
	movq	%rdi, -32(%rbp)
Ltmp33:
	.loc	4 125 32 prologue_end
	movq	-32(%rbp), %rax
	movq	%rax, -8(%rbp)
Ltmp34:
	.loc	4 125 38 is_stmt 0
	movq	%rax, -16(%rbp)
	movq	$1, -24(%rbp)
Ltmp35:
	.loc	4 127 6 is_stmt 1
	movq	-24(%rbp), %rax
	movq	-16(%rbp), %rdx
	addq	$32, %rsp
	popq	%rbp
	retq
Ltmp36:
Lfunc_end6:
	.cfi_endproc

	.globl	__ZN104_$LT$core..ops..control_flow..ControlFlow$LT$B$C$C$GT$$u20$as$u20$core..ops..try_trait..FromResidual$GT$13from_residual17h15aaca5f493b3359E
	.p2align	4, 0x90
__ZN104_$LT$core..ops..control_flow..ControlFlow$LT$B$C$C$GT$$u20$as$u20$core..ops..try_trait..FromResidual$GT$13from_residual17h15aaca5f493b3359E:
Lfunc_begin7:
	.loc	4 123 0
	.cfi_startproc
	pushq	%rbp
	.cfi_def_cfa_offset 16
	.cfi_offset %rbp, -16
	movq	%rsp, %rbp
	.cfi_def_cfa_register %rbp
	subq	$48, %rsp
	movq	%rdi, -48(%rbp)
	movq	%rsi, -40(%rbp)
Ltmp37:
	.loc	4 125 32 prologue_end
	movq	-48(%rbp), %rcx
	movq	-40(%rbp), %rax
	movq	%rcx, -16(%rbp)
	movq	%rax, -8(%rbp)
Ltmp38:
	.loc	4 125 38 is_stmt 0
	movq	%rcx, -32(%rbp)
	movq	%rax, -24(%rbp)
Ltmp39:
	.loc	4 127 6 is_stmt 1
	movq	-32(%rbp), %rax
	movq	-24(%rbp), %rdx
	addq	$48, %rsp
	popq	%rbp
	retq
Ltmp40:
Lfunc_end7:
	.cfi_endproc

	.globl	__ZN104_$LT$core..ops..control_flow..ControlFlow$LT$B$C$C$GT$$u20$as$u20$core..ops..try_trait..FromResidual$GT$13from_residual17he5e0bf169120e369E
	.p2align	4, 0x90
__ZN104_$LT$core..ops..control_flow..ControlFlow$LT$B$C$C$GT$$u20$as$u20$core..ops..try_trait..FromResidual$GT$13from_residual17he5e0bf169120e369E:
Lfunc_begin8:
	.loc	4 123 0
	.cfi_startproc
	pushq	%rbp
	.cfi_def_cfa_offset 16
	.cfi_offset %rbp, -16
	movq	%rsp, %rbp
	.cfi_def_cfa_register %rbp
	subq	$24, %rsp
Ltmp41:
	.loc	4 125 38 prologue_end
	movb	$1, -17(%rbp)
Ltmp42:
	.loc	4 127 6
	movb	-17(%rbp), %al
	andb	$1, %al
	movzbl	%al, %eax
	addq	$24, %rsp
	popq	%rbp
	retq
Ltmp43:
Lfunc_end8:
	.cfi_endproc

	.globl	__ZN104_$LT$core..str..pattern..MultiCharEqSearcher$LT$C$GT$$u20$as$u20$core..str..pattern..ReverseSearcher$GT$9next_back17h06be0aad9ed7bda7E
	.p2align	4, 0x90
__ZN104_$LT$core..str..pattern..MultiCharEqSearcher$LT$C$GT$$u20$as$u20$core..str..pattern..ReverseSearcher$GT$9next_back17h06be0aad9ed7bda7E:
Lfunc_begin9:
	.file	5 "/rustc/2c8cc343237b8f7d5a3c3703e3a87f2eb2c54a74/library/core/src/str" "pattern.rs"
	.loc	5 678 0
	.cfi_startproc
	pushq	%rbp
	.cfi_def_cfa_offset 16
	.cfi_offset %rbp, -16
	movq	%rsp, %rbp
	.cfi_def_cfa_register %rbp
	subq	$192, %rsp
	movq	%rsi, %rax
	movq	%rax, -160(%rbp)
	movq	%rdi, -152(%rbp)
	movq	%rdi, -144(%rbp)
	movq	%rax, -104(%rbp)
Ltmp44:
	.loc	5 679 17 prologue_end
	movq	%rax, %rsi
	addq	$16, %rsi
	movq	%rsi, -136(%rbp)
	movq	%rsi, -96(%rbp)
Ltmp45:
	.loc	5 682 23
	movq	%rsi, -88(%rbp)
Ltmp46:
	.loc	3 16 21
	movq	24(%rax), %rsi
	movq	%rsi, -80(%rbp)
Ltmp47:
	.loc	3 25 22
	movq	16(%rax), %rdi
	.loc	3 25 40 is_stmt 0
	movq	%rsi, -72(%rbp)
	.loc	3 25 22
	callq	__ZN4core3ptr9const_ptr33_$LT$impl$u20$$BP$const$u20$T$GT$7sub_ptr17h14b46f381cfdda66E
	movq	-136(%rbp), %rdi
	movq	%rax, %rcx
	movq	%rcx, -128(%rbp)
	movq	%rax, -64(%rbp)
Ltmp48:
	.loc	5 683 31 is_stmt 1
	callq	__ZN102_$LT$core..str..iter..CharIndices$u20$as$u20$core..iter..traits..double_ended..DoubleEndedIterator$GT$9next_back17h479c60513968115fE
	movl	%edx, -112(%rbp)
	movq	%rax, -120(%rbp)
	.loc	5 683 16 is_stmt 0
	movl	$1, %eax
	xorl	%ecx, %ecx
	cmpl	$1114112, -112(%rbp)
	cmoveq	%rcx, %rax
	cmpq	$1, %rax
	jne	LBB9_2
	.loc	5 0 16
	movq	-136(%rbp), %rax
	.loc	5 683 22
	movq	-120(%rbp), %rcx
	movq	%rcx, -184(%rbp)
	movq	%rcx, -56(%rbp)
	.loc	5 683 25
	movl	-112(%rbp), %ecx
	movl	%ecx, -172(%rbp)
	movl	%ecx, -44(%rbp)
	.loc	5 684 23 is_stmt 1
	movq	%rax, -40(%rbp)
Ltmp49:
	.loc	3 16 21
	movq	8(%rax), %rsi
	movq	%rsi, -32(%rbp)
Ltmp50:
	.loc	3 25 22
	movq	(%rax), %rdi
	.loc	3 25 40 is_stmt 0
	movq	%rsi, -24(%rbp)
	.loc	3 25 22
	callq	__ZN4core3ptr9const_ptr33_$LT$impl$u20$$BP$const$u20$T$GT$7sub_ptr17h14b46f381cfdda66E
	movq	-160(%rbp), %rdi
	movl	-172(%rbp), %esi
	movq	%rax, %rcx
	movq	-128(%rbp), %rax
	movq	%rcx, -16(%rbp)
Ltmp51:
	.loc	5 685 28 is_stmt 1
	subq	%rcx, %rax
	movq	%rax, -168(%rbp)
	movq	%rax, -8(%rbp)
Ltmp52:
	.loc	5 686 16
	callq	__ZN53_$LT$F$u20$as$u20$core..str..pattern..MultiCharEq$GT$7matches17h73146b4fc9ac9ae3E
	testb	$1, %al
	jne	LBB9_5
	jmp	LBB9_4
Ltmp53:
LBB9_2:
	.loc	5 0 16 is_stmt 0
	movq	-152(%rbp), %rax
	.loc	5 692 9 is_stmt 1
	movq	$2, (%rax)
Ltmp54:
LBB9_3:
	.loc	5 0 9 is_stmt 0
	movq	-144(%rbp), %rax
	.loc	5 693 6 is_stmt 1
	addq	$192, %rsp
	popq	%rbp
	retq
LBB9_4:
	.loc	5 0 6 is_stmt 0
	movq	-152(%rbp), %rax
	movq	-184(%rbp), %rdx
	movq	-168(%rbp), %rsi
Ltmp55:
	.loc	5 689 46 is_stmt 1
	movq	%rdx, %rcx
	addq	%rsi, %rcx
	.loc	5 689 24 is_stmt 0
	movq	%rdx, 8(%rax)
	movq	%rcx, 16(%rax)
	movq	$1, (%rax)
	.loc	5 689 17
	jmp	LBB9_6
LBB9_5:
	.loc	5 0 17
	movq	-152(%rbp), %rax
	movq	-184(%rbp), %rdx
	movq	-168(%rbp), %rsi
	.loc	5 687 45 is_stmt 1
	movq	%rdx, %rcx
	addq	%rsi, %rcx
	.loc	5 687 24 is_stmt 0
	movq	%rdx, 8(%rax)
	movq	%rcx, 16(%rax)
	movq	$0, (%rax)
Ltmp56:
LBB9_6:
	.loc	5 693 6 is_stmt 1
	jmp	LBB9_3
Ltmp57:
Lfunc_end9:
	.cfi_endproc

	.globl	__ZN104_$LT$core..str..pattern..MultiCharEqSearcher$LT$C$GT$$u20$as$u20$core..str..pattern..ReverseSearcher$GT$9next_back17hb74f3bc2932ab819E
	.p2align	4, 0x90
__ZN104_$LT$core..str..pattern..MultiCharEqSearcher$LT$C$GT$$u20$as$u20$core..str..pattern..ReverseSearcher$GT$9next_back17hb74f3bc2932ab819E:
Lfunc_begin10:
	.loc	5 678 0
	.cfi_startproc
	pushq	%rbp
	.cfi_def_cfa_offset 16
	.cfi_offset %rbp, -16
	movq	%rsp, %rbp
	.cfi_def_cfa_register %rbp
	subq	$192, %rsp
	movq	%rsi, %rax
	movq	%rax, -160(%rbp)
	movq	%rdi, -152(%rbp)
	movq	%rdi, -144(%rbp)
	movq	%rax, -104(%rbp)
Ltmp58:
	.loc	5 679 17 prologue_end
	movq	%rax, %rsi
	addq	$16, %rsi
	movq	%rsi, -136(%rbp)
	movq	%rsi, -96(%rbp)
Ltmp59:
	.loc	5 682 23
	movq	%rsi, -88(%rbp)
Ltmp60:
	.loc	3 16 21
	movq	24(%rax), %rsi
	movq	%rsi, -80(%rbp)
Ltmp61:
	.loc	3 25 22
	movq	16(%rax), %rdi
	.loc	3 25 40 is_stmt 0
	movq	%rsi, -72(%rbp)
	.loc	3 25 22
	callq	__ZN4core3ptr9const_ptr33_$LT$impl$u20$$BP$const$u20$T$GT$7sub_ptr17h14b46f381cfdda66E
	movq	-136(%rbp), %rdi
	movq	%rax, %rcx
	movq	%rcx, -128(%rbp)
	movq	%rax, -64(%rbp)
Ltmp62:
	.loc	5 683 31 is_stmt 1
	callq	__ZN102_$LT$core..str..iter..CharIndices$u20$as$u20$core..iter..traits..double_ended..DoubleEndedIterator$GT$9next_back17h479c60513968115fE
	movl	%edx, -112(%rbp)
	movq	%rax, -120(%rbp)
	.loc	5 683 16 is_stmt 0
	movl	$1, %eax
	xorl	%ecx, %ecx
	cmpl	$1114112, -112(%rbp)
	cmoveq	%rcx, %rax
	cmpq	$1, %rax
	jne	LBB10_2
	.loc	5 0 16
	movq	-136(%rbp), %rax
	.loc	5 683 22
	movq	-120(%rbp), %rcx
	movq	%rcx, -184(%rbp)
	movq	%rcx, -56(%rbp)
	.loc	5 683 25
	movl	-112(%rbp), %ecx
	movl	%ecx, -172(%rbp)
	movl	%ecx, -44(%rbp)
	.loc	5 684 23 is_stmt 1
	movq	%rax, -40(%rbp)
Ltmp63:
	.loc	3 16 21
	movq	8(%rax), %rsi
	movq	%rsi, -32(%rbp)
Ltmp64:
	.loc	3 25 22
	movq	(%rax), %rdi
	.loc	3 25 40 is_stmt 0
	movq	%rsi, -24(%rbp)
	.loc	3 25 22
	callq	__ZN4core3ptr9const_ptr33_$LT$impl$u20$$BP$const$u20$T$GT$7sub_ptr17h14b46f381cfdda66E
	movq	-160(%rbp), %rdi
	movl	-172(%rbp), %esi
	movq	%rax, %rcx
	movq	-128(%rbp), %rax
	movq	%rcx, -16(%rbp)
Ltmp65:
	.loc	5 685 28 is_stmt 1
	subq	%rcx, %rax
	movq	%rax, -168(%rbp)
	movq	%rax, -8(%rbp)
Ltmp66:
	.loc	5 686 16
	callq	__ZN53_$LT$F$u20$as$u20$core..str..pattern..MultiCharEq$GT$7matches17h0d6a007be6ab2e6aE
	testb	$1, %al
	jne	LBB10_5
	jmp	LBB10_4
Ltmp67:
LBB10_2:
	.loc	5 0 16 is_stmt 0
	movq	-152(%rbp), %rax
	.loc	5 692 9 is_stmt 1
	movq	$2, (%rax)
Ltmp68:
LBB10_3:
	.loc	5 0 9 is_stmt 0
	movq	-144(%rbp), %rax
	.loc	5 693 6 is_stmt 1
	addq	$192, %rsp
	popq	%rbp
	retq
LBB10_4:
	.loc	5 0 6 is_stmt 0
	movq	-152(%rbp), %rax
	movq	-184(%rbp), %rdx
	movq	-168(%rbp), %rsi
Ltmp69:
	.loc	5 689 46 is_stmt 1
	movq	%rdx, %rcx
	addq	%rsi, %rcx
	.loc	5 689 24 is_stmt 0
	movq	%rdx, 8(%rax)
	movq	%rcx, 16(%rax)
	movq	$1, (%rax)
	.loc	5 689 17
	jmp	LBB10_6
LBB10_5:
	.loc	5 0 17
	movq	-152(%rbp), %rax
	movq	-184(%rbp), %rdx
	movq	-168(%rbp), %rsi
	.loc	5 687 45 is_stmt 1
	movq	%rdx, %rcx
	addq	%rsi, %rcx
	.loc	5 687 24 is_stmt 0
	movq	%rdx, 8(%rax)
	movq	%rcx, 16(%rax)
	movq	$0, (%rax)
Ltmp70:
LBB10_6:
	.loc	5 693 6 is_stmt 1
	jmp	LBB10_3
Ltmp71:
Lfunc_end10:
	.cfi_endproc

	.globl	__ZN106_$LT$core..ops..range..Range$LT$usize$GT$$u20$as$u20$core..slice..index..SliceIndex$LT$$u5b$T$u5d$$GT$$GT$13get_unchecked17he6dcc39de3d91521E
	.p2align	4, 0x90
__ZN106_$LT$core..ops..range..Range$LT$usize$GT$$u20$as$u20$core..slice..index..SliceIndex$LT$$u5b$T$u5d$$GT$$GT$13get_unchecked17he6dcc39de3d91521E:
Lfunc_begin11:
	.file	6 "/rustc/2c8cc343237b8f7d5a3c3703e3a87f2eb2c54a74/library/core/src/slice" "index.rs"
	.loc	6 373 0
	.cfi_startproc
	pushq	%rbp
	.cfi_def_cfa_offset 16
	.cfi_offset %rbp, -16
	movq	%rsp, %rbp
	.cfi_def_cfa_register %rbp
	subq	$160, %rsp
	movq	%rdi, -128(%rbp)
	movq	%rsi, -120(%rbp)
	movq	%rdx, -112(%rbp)
	movq	%rcx, -104(%rbp)
Ltmp72:
	.loc	6 386 39 prologue_end
	movq	%rdx, -96(%rbp)
	movq	%rcx, -88(%rbp)
Ltmp73:
	.file	7 "/rustc/2c8cc343237b8f7d5a3c3703e3a87f2eb2c54a74/library/core/src/ptr" "const_ptr.rs"
	.loc	7 1650 9
	movq	%rdx, -80(%rbp)
Ltmp74:
	.loc	6 386 58
	movq	%rdi, -72(%rbp)
Ltmp75:
	.loc	7 932 18
	movq	%rdx, -64(%rbp)
	.loc	7 932 30 is_stmt 0
	movq	%rdi, -56(%rbp)
Ltmp76:
	.loc	7 473 18 is_stmt 1
	addq	%rdi, %rdx
	movq	%rdx, -48(%rbp)
	movq	-48(%rbp), %rax
	movq	%rax, -40(%rbp)
Ltmp77:
	.loc	6 386 71
	subq	%rdi, %rsi
	movq	%rsi, -32(%rbp)
Ltmp78:
	.file	8 "/rustc/2c8cc343237b8f7d5a3c3703e3a87f2eb2c54a74/library/core/src/ptr" "mod.rs"
	.loc	8 734 20
	movq	%rax, -24(%rbp)
Ltmp79:
	.loc	7 61 9
	movq	%rax, -16(%rbp)
Ltmp80:
	.loc	8 734 33
	movq	%rsi, -8(%rbp)
Ltmp81:
	.file	9 "/rustc/2c8cc343237b8f7d5a3c3703e3a87f2eb2c54a74/library/core/src/ptr" "metadata.rs"
	.loc	9 118 36
	movq	%rax, -144(%rbp)
	movq	%rsi, -136(%rbp)
	.loc	9 118 14 is_stmt 0
	movq	-144(%rbp), %rcx
	movq	-136(%rbp), %rax
	movq	%rcx, -160(%rbp)
	movq	%rax, -152(%rbp)
	movq	-160(%rbp), %rax
	movq	-152(%rbp), %rdx
Ltmp82:
	.loc	6 388 6 is_stmt 1
	addq	$160, %rsp
	popq	%rbp
	retq
Ltmp83:
Lfunc_end11:
	.cfi_endproc

	.globl	__ZN106_$LT$core..ops..range..Range$LT$usize$GT$$u20$as$u20$core..slice..index..SliceIndex$LT$$u5b$T$u5d$$GT$$GT$17get_unchecked_mut17h2f73e2434d6c2cddE
	.p2align	4, 0x90
__ZN106_$LT$core..ops..range..Range$LT$usize$GT$$u20$as$u20$core..slice..index..SliceIndex$LT$$u5b$T$u5d$$GT$$GT$17get_unchecked_mut17h2f73e2434d6c2cddE:
Lfunc_begin12:
	.loc	6 391 0
	.cfi_startproc
	pushq	%rbp
	.cfi_def_cfa_offset 16
	.cfi_offset %rbp, -16
	movq	%rsp, %rbp
	.cfi_def_cfa_register %rbp
	subq	$160, %rsp
	movq	%rdi, -128(%rbp)
	movq	%rsi, -120(%rbp)
	movq	%rdx, -112(%rbp)
	movq	%rcx, -104(%rbp)
Ltmp84:
	.loc	6 400 43 prologue_end
	movq	%rdx, -96(%rbp)
	movq	%rcx, -88(%rbp)
Ltmp85:
	.file	10 "/rustc/2c8cc343237b8f7d5a3c3703e3a87f2eb2c54a74/library/core/src/ptr" "mut_ptr.rs"
	.loc	10 2037 9
	movq	%rdx, -80(%rbp)
Ltmp86:
	.loc	6 400 66
	movq	%rdi, -72(%rbp)
Ltmp87:
	.loc	10 1034 18
	movq	%rdx, -64(%rbp)
	.loc	10 1034 30 is_stmt 0
	movq	%rdi, -56(%rbp)
Ltmp88:
	.loc	10 487 18 is_stmt 1
	addq	%rdi, %rdx
	movq	%rdx, -48(%rbp)
	movq	-48(%rbp), %rax
	movq	%rax, -40(%rbp)
Ltmp89:
	.loc	6 400 79
	subq	%rdi, %rsi
	movq	%rsi, -32(%rbp)
Ltmp90:
	.loc	8 766 24
	movq	%rax, -24(%rbp)
Ltmp91:
	.loc	10 60 9
	movq	%rax, -16(%rbp)
Ltmp92:
	.loc	8 766 37
	movq	%rsi, -8(%rbp)
Ltmp93:
	.loc	9 135 36
	movq	%rax, -144(%rbp)
	movq	%rsi, -136(%rbp)
	.loc	9 135 14 is_stmt 0
	movq	-144(%rbp), %rcx
	movq	-136(%rbp), %rax
	movq	%rcx, -160(%rbp)
	movq	%rax, -152(%rbp)
	movq	-160(%rbp), %rax
	movq	-152(%rbp), %rdx
Ltmp94:
	.loc	6 402 6 is_stmt 1
	addq	$160, %rsp
	popq	%rbp
	retq
Ltmp95:
Lfunc_end12:
	.cfi_endproc

	.globl	__ZN106_$LT$core..ops..range..Range$LT$usize$GT$$u20$as$u20$core..slice..index..SliceIndex$LT$$u5b$T$u5d$$GT$$GT$3get17hb5b127ef75fc13b9E
	.p2align	4, 0x90
__ZN106_$LT$core..ops..range..Range$LT$usize$GT$$u20$as$u20$core..slice..index..SliceIndex$LT$$u5b$T$u5d$$GT$$GT$3get17hb5b127ef75fc13b9E:
Lfunc_begin13:
	.loc	6 353 0
	.cfi_startproc
	pushq	%rbp
	.cfi_def_cfa_offset 16
	.cfi_offset %rbp, -16
	movq	%rsp, %rbp
	.cfi_def_cfa_register %rbp
	subq	$96, %rsp
	movq	%rdi, -88(%rbp)
	movq	%rsi, -80(%rbp)
	movq	%rdx, -72(%rbp)
	movq	%rcx, -64(%rbp)
	movq	%rdi, -32(%rbp)
	movq	%rsi, -24(%rbp)
	movq	%rdx, -16(%rbp)
	movq	%rcx, -8(%rbp)
Ltmp96:
	.loc	6 354 12 prologue_end
	cmpq	%rsi, %rdi
	ja	LBB13_2
	.loc	6 0 12 is_stmt 0
	movq	-80(%rbp), %rax
	movq	-64(%rbp), %rcx
	.loc	6 354 37
	cmpq	%rcx, %rax
	seta	%al
	.loc	6 354 12
	andb	$1, %al
	movb	%al, -33(%rbp)
	jmp	LBB13_3
LBB13_2:
	movb	$1, -33(%rbp)
LBB13_3:
	testb	$1, -33(%rbp)
	jne	LBB13_5
	.loc	6 0 12
	movq	-64(%rbp), %rcx
	movq	-72(%rbp), %rdx
	movq	-80(%rbp), %rsi
	movq	-88(%rbp), %rdi
	.loc	6 358 29 is_stmt 1
	callq	__ZN106_$LT$core..ops..range..Range$LT$usize$GT$$u20$as$u20$core..slice..index..SliceIndex$LT$$u5b$T$u5d$$GT$$GT$13get_unchecked17he6dcc39de3d91521E
	.loc	6 358 22 is_stmt 0
	movq	%rax, -56(%rbp)
	movq	%rdx, -48(%rbp)
	.loc	6 354 9 is_stmt 1
	jmp	LBB13_6
LBB13_5:
	.loc	6 355 13
	movq	$0, -56(%rbp)
LBB13_6:
	.loc	6 360 6
	movq	-56(%rbp), %rax
	movq	-48(%rbp), %rdx
	addq	$96, %rsp
	popq	%rbp
	retq
Ltmp97:
Lfunc_end13:
	.cfi_endproc

	.globl	__ZN106_$LT$core..ops..range..Range$LT$usize$GT$$u20$as$u20$core..slice..index..SliceIndex$LT$$u5b$T$u5d$$GT$$GT$5index17hda9e3594f557c973E
	.p2align	4, 0x90
__ZN106_$LT$core..ops..range..Range$LT$usize$GT$$u20$as$u20$core..slice..index..SliceIndex$LT$$u5b$T$u5d$$GT$$GT$5index17hda9e3594f557c973E:
Lfunc_begin14:
	.loc	6 405 0
	.cfi_startproc
	pushq	%rbp
	.cfi_def_cfa_offset 16
	.cfi_offset %rbp, -16
	movq	%rsp, %rbp
	.cfi_def_cfa_register %rbp
	subq	$80, %rsp
	movq	%rdi, -72(%rbp)
	movq	%rsi, -64(%rbp)
	movq	%rdx, -56(%rbp)
	movq	%rcx, -48(%rbp)
	movq	%r8, -40(%rbp)
	movq	%rdi, -32(%rbp)
	movq	%rsi, -24(%rbp)
	movq	%rdx, -16(%rbp)
	movq	%rcx, -8(%rbp)
Ltmp98:
	.loc	6 406 12 prologue_end
	cmpq	%rsi, %rdi
	ja	LBB14_2
	.loc	6 0 12 is_stmt 0
	movq	-64(%rbp), %rax
	movq	-48(%rbp), %rcx
	.loc	6 408 19 is_stmt 1
	cmpq	%rcx, %rax
	ja	LBB14_4
	jmp	LBB14_3
LBB14_2:
	.loc	6 0 19 is_stmt 0
	movq	-40(%rbp), %rdx
	movq	-64(%rbp), %rsi
	movq	-72(%rbp), %rdi
	.loc	6 407 13 is_stmt 1
	callq	__ZN4core5slice5index22slice_index_order_fail17h0d8f800a07d5f26eE
LBB14_3:
	.loc	6 0 13 is_stmt 0
	movq	-48(%rbp), %rcx
	movq	-56(%rbp), %rdx
	movq	-64(%rbp), %rsi
	movq	-72(%rbp), %rdi
	.loc	6 412 20 is_stmt 1
	callq	__ZN106_$LT$core..ops..range..Range$LT$usize$GT$$u20$as$u20$core..slice..index..SliceIndex$LT$$u5b$T$u5d$$GT$$GT$13get_unchecked17he6dcc39de3d91521E
	.loc	6 413 6
	addq	$80, %rsp
	popq	%rbp
	retq
LBB14_4:
	.loc	6 0 6 is_stmt 0
	movq	-40(%rbp), %rdx
	movq	-48(%rbp), %rsi
	movq	-64(%rbp), %rdi
	.loc	6 409 13 is_stmt 1
	callq	__ZN4core5slice5index24slice_end_index_len_fail17hc921cb2f1513645aE
Ltmp99:
Lfunc_end14:
	.cfi_endproc

	.globl	__ZN106_$LT$core..ops..range..Range$LT$usize$GT$$u20$as$u20$core..slice..index..SliceIndex$LT$$u5b$T$u5d$$GT$$GT$9index_mut17h7ee80b2e6bf8b9bcE
	.p2align	4, 0x90
__ZN106_$LT$core..ops..range..Range$LT$usize$GT$$u20$as$u20$core..slice..index..SliceIndex$LT$$u5b$T$u5d$$GT$$GT$9index_mut17h7ee80b2e6bf8b9bcE:
Lfunc_begin15:
	.loc	6 416 0
	.cfi_startproc
	pushq	%rbp
	.cfi_def_cfa_offset 16
	.cfi_offset %rbp, -16
	movq	%rsp, %rbp
	.cfi_def_cfa_register %rbp
	subq	$80, %rsp
	movq	%rdi, -72(%rbp)
	movq	%rsi, -64(%rbp)
	movq	%rdx, -56(%rbp)
	movq	%rcx, -48(%rbp)
	movq	%r8, -40(%rbp)
	movq	%rdi, -32(%rbp)
	movq	%rsi, -24(%rbp)
	movq	%rdx, -16(%rbp)
	movq	%rcx, -8(%rbp)
Ltmp100:
	.loc	6 417 12 prologue_end
	cmpq	%rsi, %rdi
	ja	LBB15_2
	.loc	6 0 12 is_stmt 0
	movq	-64(%rbp), %rax
	movq	-48(%rbp), %rcx
	.loc	6 419 19 is_stmt 1
	cmpq	%rcx, %rax
	ja	LBB15_4
	jmp	LBB15_3
LBB15_2:
	.loc	6 0 19 is_stmt 0
	movq	-40(%rbp), %rdx
	movq	-64(%rbp), %rsi
	movq	-72(%rbp), %rdi
	.loc	6 418 13 is_stmt 1
	callq	__ZN4core5slice5index22slice_index_order_fail17h0d8f800a07d5f26eE
LBB15_3:
	.loc	6 0 13 is_stmt 0
	movq	-48(%rbp), %rcx
	movq	-56(%rbp), %rdx
	movq	-64(%rbp), %rsi
	movq	-72(%rbp), %rdi
	.loc	6 423 24 is_stmt 1
	callq	__ZN106_$LT$core..ops..range..Range$LT$usize$GT$$u20$as$u20$core..slice..index..SliceIndex$LT$$u5b$T$u5d$$GT$$GT$17get_unchecked_mut17h2f73e2434d6c2cddE
	.loc	6 424 6
	addq	$80, %rsp
	popq	%rbp
	retq
LBB15_4:
	.loc	6 0 6 is_stmt 0
	movq	-40(%rbp), %rdx
	movq	-48(%rbp), %rsi
	movq	-64(%rbp), %rdi
	.loc	6 420 13 is_stmt 1
	callq	__ZN4core5slice5index24slice_end_index_len_fail17hc921cb2f1513645aE
Ltmp101:
Lfunc_end15:
	.cfi_endproc

	.globl	__ZN106_$LT$core..slice..iter..Iter$LT$T$GT$$u20$as$u20$core..iter..traits..double_ended..DoubleEndedIterator$GT$9next_back17h26eeb197a857f9d1E
	.p2align	4, 0x90
__ZN106_$LT$core..slice..iter..Iter$LT$T$GT$$u20$as$u20$core..iter..traits..double_ended..DoubleEndedIterator$GT$9next_back17h26eeb197a857f9d1E:
Lfunc_begin16:
	.loc	3 339 0
	.cfi_startproc
	pushq	%rbp
	.cfi_def_cfa_offset 16
	.cfi_offset %rbp, -16
	movq	%rsp, %rbp
	.cfi_def_cfa_register %rbp
	subq	$264, %rsp
	movq	%rdi, -264(%rbp)
	movq	%rdi, -208(%rbp)
Ltmp102:
	.loc	3 347 29 prologue_end
	movq	8(%rdi), %rax
	movq	%rax, -192(%rbp)
Ltmp103:
	.file	11 "/rustc/2c8cc343237b8f7d5a3c3703e3a87f2eb2c54a74/library/core/src/ptr" "non_null.rs"
	.loc	11 326 9
	movq	%rax, -184(%rbp)
Ltmp104:
	.loc	10 52 36
	movq	%rax, -240(%rbp)
	.loc	10 52 18 is_stmt 0
	movq	-240(%rbp), %rax
	movq	%rax, -176(%rbp)
Ltmp105:
	.loc	10 38 13 is_stmt 1
	movq	%rax, -168(%rbp)
Ltmp106:
	.loc	10 215 33
	movq	%rax, -160(%rbp)
	.loc	10 215 18 is_stmt 0
	movq	%rax, -152(%rbp)
Ltmp107:
	.loc	3 348 24 is_stmt 1
	movb	$1, %al
	testb	$1, %al
	jne	LBB16_2
LBB16_1:
	.loc	3 0 24 is_stmt 0
	movq	-264(%rbp), %rcx
	.loc	3 351 24 is_stmt 1
	movq	8(%rcx), %rax
	movq	%rax, -104(%rbp)
	cmpq	(%rcx), %rax
	je	LBB16_4
	jmp	LBB16_3
LBB16_2:
	.loc	3 0 24 is_stmt 0
	movq	-264(%rbp), %rax
	.loc	3 349 33 is_stmt 1
	movq	(%rax), %rax
	movq	%rax, -144(%rbp)
Ltmp108:
	.loc	7 53 36
	movq	%rax, -232(%rbp)
	.loc	7 53 18 is_stmt 0
	movq	-232(%rbp), %rax
	movq	%rax, -136(%rbp)
Ltmp109:
	.loc	7 39 13 is_stmt 1
	movq	%rax, -128(%rbp)
Ltmp110:
	.loc	7 209 33
	movq	%rax, -120(%rbp)
	.loc	7 209 18 is_stmt 0
	movq	%rax, -112(%rbp)
Ltmp111:
	.loc	3 348 21 is_stmt 1
	jmp	LBB16_1
LBB16_3:
	.loc	3 0 21 is_stmt 0
	movq	-264(%rbp), %rax
	.loc	3 354 30 is_stmt 1
	movq	%rax, -96(%rbp)
Ltmp112:
	.loc	3 93 20
	xorl	%eax, %eax
	testb	$1, %al
	jne	LBB16_7
	jmp	LBB16_6
Ltmp113:
LBB16_4:
	.loc	3 352 25
	movq	$0, -256(%rbp)
LBB16_5:
	.loc	3 357 14
	movq	-256(%rbp), %rax
	addq	$264, %rsp
	popq	%rbp
	retq
LBB16_6:
	.loc	3 0 14 is_stmt 0
	movq	-264(%rbp), %rax
Ltmp114:
	.loc	3 100 41 is_stmt 1
	movq	(%rax), %rcx
	movq	%rcx, -24(%rbp)
Ltmp115:
	.loc	7 1017 18
	movq	%rcx, -16(%rbp)
Ltmp116:
	.loc	7 473 18
	addq	$-1, %rcx
	movq	%rcx, -8(%rbp)
	movq	-8(%rbp), %rcx
Ltmp117:
	.loc	3 100 21
	movq	%rcx, (%rax)
	.loc	3 101 21
	movq	(%rax), %rax
	movq	%rax, -248(%rbp)
	.loc	3 93 17
	jmp	LBB16_8
LBB16_7:
	.loc	3 0 17 is_stmt 0
	movq	-264(%rbp), %rax
	.loc	3 57 29 is_stmt 1
	movq	(%rax), %rcx
	movq	%rcx, -88(%rbp)
Ltmp118:
	.loc	7 1198 9
	movq	%rcx, -80(%rbp)
Ltmp119:
	.loc	7 61 9
	movq	%rcx, -72(%rbp)
Ltmp120:
	.loc	7 1180 9
	movq	%rcx, -64(%rbp)
Ltmp121:
	.loc	7 555 18
	addq	$-1, %rcx
	movq	%rcx, -56(%rbp)
	movq	-56(%rbp), %rcx
	movq	%rcx, -48(%rbp)
Ltmp122:
	.loc	7 100 29
	movq	%rcx, -40(%rbp)
Ltmp123:
	.loc	9 118 36
	movq	%rcx, -216(%rbp)
	.loc	9 118 14 is_stmt 0
	movq	-216(%rbp), %rcx
	movq	%rcx, -224(%rbp)
	movq	-224(%rbp), %rcx
Ltmp124:
	.loc	3 57 17 is_stmt 1
	movq	%rcx, (%rax)
	.loc	3 95 21
	movq	8(%rax), %rax
	movq	%rax, -32(%rbp)
	movq	%rax, -248(%rbp)
Ltmp125:
LBB16_8:
	.loc	3 354 30
	movq	-248(%rbp), %rax
	.loc	3 354 25 is_stmt 0
	movq	%rax, -256(%rbp)
	.loc	3 351 21 is_stmt 1
	jmp	LBB16_5
Ltmp126:
Lfunc_end16:
	.cfi_endproc

	.globl	__ZN106_$LT$core..str..pattern..CharPredicateSearcher$LT$F$GT$$u20$as$u20$core..str..pattern..ReverseSearcher$GT$16next_reject_back17h001ee8dc66756349E
	.p2align	4, 0x90
__ZN106_$LT$core..str..pattern..CharPredicateSearcher$LT$F$GT$$u20$as$u20$core..str..pattern..ReverseSearcher$GT$16next_reject_back17h001ee8dc66756349E:
Lfunc_begin17:
	.loc	5 771 0
	.cfi_startproc
	pushq	%rbp
	.cfi_def_cfa_offset 16
	.cfi_offset %rbp, -16
	movq	%rsp, %rbp
	.cfi_def_cfa_register %rbp
	subq	$16, %rsp
	movq	%rdi, %rax
	movq	%rax, -16(%rbp)
	movq	%rsi, -8(%rbp)
Ltmp127:
	.loc	5 772 13 prologue_end
	callq	__ZN4core3str7pattern15ReverseSearcher16next_reject_back17h5b87036eab4ab1f3E
	movq	-16(%rbp), %rax
	.loc	5 773 10
	addq	$16, %rsp
	popq	%rbp
	retq
Ltmp128:
Lfunc_end17:
	.cfi_endproc

	.globl	__ZN106_$LT$core..str..pattern..CharPredicateSearcher$LT$F$GT$$u20$as$u20$core..str..pattern..ReverseSearcher$GT$16next_reject_back17hbbe74381b72404d8E
	.p2align	4, 0x90
__ZN106_$LT$core..str..pattern..CharPredicateSearcher$LT$F$GT$$u20$as$u20$core..str..pattern..ReverseSearcher$GT$16next_reject_back17hbbe74381b72404d8E:
Lfunc_begin18:
	.loc	5 771 0
	.cfi_startproc
	pushq	%rbp
	.cfi_def_cfa_offset 16
	.cfi_offset %rbp, -16
	movq	%rsp, %rbp
	.cfi_def_cfa_register %rbp
	subq	$16, %rsp
	movq	%rdi, %rax
	movq	%rax, -16(%rbp)
	movq	%rsi, -8(%rbp)
Ltmp129:
	.loc	5 772 13 prologue_end
	callq	__ZN4core3str7pattern15ReverseSearcher16next_reject_back17h4d8fbc9b11c09acaE
	movq	-16(%rbp), %rax
	.loc	5 773 10
	addq	$16, %rsp
	popq	%rbp
	retq
Ltmp130:
Lfunc_end18:
	.cfi_endproc

	.globl	__ZN108_$LT$core..iter..adapters..filter..Filter$LT$I$C$P$GT$$u20$as$u20$core..iter..traits..iterator..Iterator$GT$4fold17h2b8e48129ba87a07E
	.p2align	4, 0x90
__ZN108_$LT$core..iter..adapters..filter..Filter$LT$I$C$P$GT$$u20$as$u20$core..iter..traits..iterator..Iterator$GT$4fold17h2b8e48129ba87a07E:
Lfunc_begin19:
	.file	12 "/rustc/2c8cc343237b8f7d5a3c3703e3a87f2eb2c54a74/library/core/src/iter/adapters" "filter.rs"
	.loc	12 97 0
	.cfi_startproc
	.cfi_personality 155, _rust_eh_personality
	.cfi_lsda 16, Lexception2
	pushq	%rbp
	.cfi_def_cfa_offset 16
	.cfi_offset %rbp, -16
	movq	%rsp, %rbp
	.cfi_def_cfa_register %rbp
	subq	$160, %rsp
	movq	%rsi, %rax
	movq	%rdi, %rsi
Ltmp136:
	movq	%rax, -136(%rbp)
	movq	%rdx, -128(%rbp)
	movq	%rax, -40(%rbp)
	movq	%rdx, -32(%rbp)
Ltmp137:
	.loc	12 101 9 prologue_end
	movb	$1, -41(%rbp)
	movl	$9, %ecx
	leaq	-120(%rbp), %rdi
	rep;movsq (%rsi), %es:(%rdi)
Ltmp138:
	.loc	12 101 24 is_stmt 0
	movb	$1, -42(%rbp)
Ltmp131:
	.loc	12 101 30
	callq	__ZN4core4iter8adapters6filter11filter_fold17hed84ed188e2e0312E
Ltmp132:
	jmp	LBB19_3
LBB19_1:
	.loc	12 101 63
	testb	$1, -42(%rbp)
	jne	LBB19_6
	jmp	LBB19_5
LBB19_2:
Ltmp135:
	.loc	12 0 63
	movq	%rax, %rcx
	movl	%edx, %eax
	movq	%rcx, -16(%rbp)
	movl	%eax, -8(%rbp)
	jmp	LBB19_1
LBB19_3:
	movq	-128(%rbp), %rdx
	movq	-136(%rbp), %rsi
	.loc	12 101 9
	movb	$0, -41(%rbp)
	movb	$0, -42(%rbp)
Ltmp133:
	leaq	-120(%rbp), %rdi
	callq	__ZN102_$LT$core..iter..adapters..map..Map$LT$I$C$F$GT$$u20$as$u20$core..iter..traits..iterator..Iterator$GT$4fold17hf9240711492307a7E
Ltmp134:
	movq	%rdx, -152(%rbp)
	movq	%rax, -144(%rbp)
	jmp	LBB19_4
LBB19_4:
	.loc	12 0 9
	movq	-152(%rbp), %rdx
	movq	-144(%rbp), %rax
	.loc	12 102 6 is_stmt 1
	addq	$160, %rsp
	popq	%rbp
	retq
LBB19_5:
	.loc	12 101 63
	testb	$1, -41(%rbp)
	jne	LBB19_8
	jmp	LBB19_7
LBB19_6:
	jmp	LBB19_5
LBB19_7:
	.loc	12 97 5
	movq	-16(%rbp), %rdi
	callq	__Unwind_Resume
LBB19_8:
	.loc	12 101 63
	jmp	LBB19_7
Ltmp139:
Lfunc_end19:
	.cfi_endproc
	.section	__TEXT,__gcc_except_tab
	.p2align	2
GCC_except_table19:
Lexception2:
	.byte	255
	.byte	255
	.byte	1
	.uleb128 Lcst_end2-Lcst_begin2
Lcst_begin2:
	.uleb128 Ltmp131-Lfunc_begin19
	.uleb128 Ltmp134-Ltmp131
	.uleb128 Ltmp135-Lfunc_begin19
	.byte	0
	.uleb128 Ltmp134-Lfunc_begin19
	.uleb128 Lfunc_end19-Ltmp134
	.byte	0
	.byte	0
Lcst_end2:
	.p2align	2

	.section	__TEXT,__text,regular,pure_instructions
	.globl	__ZN108_$LT$core..iter..adapters..filter..Filter$LT$I$C$P$GT$$u20$as$u20$core..iter..traits..iterator..Iterator$GT$4next17h509a55a32a27586bE
	.p2align	4, 0x90
__ZN108_$LT$core..iter..adapters..filter..Filter$LT$I$C$P$GT$$u20$as$u20$core..iter..traits..iterator..Iterator$GT$4next17h509a55a32a27586bE:
Lfunc_begin20:
	.loc	12 55 0
	.cfi_startproc
	pushq	%rbp
	.cfi_def_cfa_offset 16
	.cfi_offset %rbp, -16
	movq	%rsp, %rbp
	.cfi_def_cfa_register %rbp
	subq	$16, %rsp
	movq	%rdi, %rsi
	movq	%rsi, -8(%rbp)
Ltmp140:
	.loc	12 56 9 prologue_end
	movq	%rsi, %rdi
	callq	__ZN4core4iter6traits8iterator8Iterator4find17h072b6f9d038940b2E
	.loc	12 57 6
	addq	$16, %rsp
	popq	%rbp
	retq
Ltmp141:
Lfunc_end20:
	.cfi_endproc

	.globl	__ZN110_$LT$core..iter..adapters..enumerate..Enumerate$LT$I$GT$$u20$as$u20$core..iter..traits..iterator..Iterator$GT$4next17h7c78b1450bf61beaE
	.p2align	4, 0x90
__ZN110_$LT$core..iter..adapters..enumerate..Enumerate$LT$I$GT$$u20$as$u20$core..iter..traits..iterator..Iterator$GT$4next17h7c78b1450bf61beaE:
Lfunc_begin21:
	.file	13 "/rustc/2c8cc343237b8f7d5a3c3703e3a87f2eb2c54a74/library/core/src/iter/adapters" "enumerate.rs"
	.loc	13 45 0
	.cfi_startproc
	.cfi_personality 155, _rust_eh_personality
	.cfi_lsda 16, Lexception3
	pushq	%rbp
	.cfi_def_cfa_offset 16
	.cfi_offset %rbp, -16
	movq	%rsp, %rbp
	.cfi_def_cfa_register %rbp
	subq	$160, %rsp
	movq	%rsi, -144(%rbp)
	movq	%rdi, %rax
	movq	-144(%rbp), %rdi
	movq	%rax, -136(%rbp)
	movq	%rax, -128(%rbp)
	movq	%rdi, -48(%rbp)
Ltmp145:
	.loc	13 46 17 prologue_end
	addq	$8, %rdi
	callq	__ZN102_$LT$core..iter..adapters..map..Map$LT$I$C$F$GT$$u20$as$u20$core..iter..traits..iterator..Iterator$GT$4next17h99af66614470bf0aE
	movl	%eax, -28(%rbp)
	movl	-28(%rbp), %eax
	movl	%eax, -104(%rbp)
Ltmp146:
	.file	14 "/rustc/2c8cc343237b8f7d5a3c3703e3a87f2eb2c54a74/library/core/src" "option.rs"
	.loc	14 2407 15
	movl	$1, %eax
	xorl	%ecx, %ecx
	cmpb	$2, -104(%rbp)
	cmoveq	%rcx, %rax
	.loc	14 2407 9 is_stmt 0
	cmpq	$0, %rax
	jne	LBB21_2
	.loc	14 2409 21 is_stmt 1
	movb	$2, -112(%rbp)
	.loc	14 2409 44 is_stmt 0
	jmp	LBB21_3
LBB21_2:
	.loc	14 2408 18 is_stmt 1
	movl	-104(%rbp), %eax
	movl	%eax, -64(%rbp)
Ltmp147:
	.loc	14 2408 46 is_stmt 0
	movl	-64(%rbp), %eax
	movl	%eax, -56(%rbp)
	.loc	14 2408 24
	movl	-56(%rbp), %eax
	movl	%eax, -112(%rbp)
Ltmp148:
LBB21_3:
	.loc	13 46 17 is_stmt 1
	xorl	%eax, %eax
	movl	$1, %ecx
	cmpb	$2, -112(%rbp)
	cmoveq	%rcx, %rax
	cmpq	$0, %rax
	jne	LBB21_5
	.loc	13 0 17 is_stmt 0
	movq	-144(%rbp), %rax
	.loc	13 46 17
	movl	-112(%rbp), %ecx
	movl	%ecx, -96(%rbp)
Ltmp149:
	.loc	13 46 17
	movl	-96(%rbp), %ecx
	movl	%ecx, -120(%rbp)
Ltmp150:
	.loc	13 47 17 is_stmt 1
	movq	(%rax), %rcx
	movq	%rcx, -160(%rbp)
	movq	%rcx, -24(%rbp)
Ltmp151:
	.loc	13 48 9
	movq	(%rax), %rax
	addq	$1, %rax
	movq	%rax, -152(%rbp)
	setb	%al
	testb	$1, %al
	jne	LBB21_8
	jmp	LBB21_7
Ltmp152:
LBB21_5:
	.loc	13 0 9 is_stmt 0
	movq	-136(%rbp), %rax
Ltmp153:
	.loc	14 2420 21 is_stmt 1
	movb	$2, 8(%rax)
Ltmp154:
LBB21_6:
	.loc	14 0 21 is_stmt 0
	movq	-128(%rbp), %rax
	.loc	13 50 6 is_stmt 1
	addq	$160, %rsp
	popq	%rbp
	retq
LBB21_7:
	.loc	13 0 6 is_stmt 0
	movq	-136(%rbp), %rax
	movq	-160(%rbp), %rcx
	movq	-144(%rbp), %rdx
	movq	-152(%rbp), %rsi
Ltmp155:
	.loc	13 48 9 is_stmt 1
	movq	%rsi, (%rdx)
	.loc	13 49 18
	movl	-120(%rbp), %edx
	movl	%edx, -72(%rbp)
	.loc	13 49 14 is_stmt 0
	movq	%rcx, -88(%rbp)
	movl	-72(%rbp), %ecx
	movl	%ecx, -80(%rbp)
	.loc	13 49 9
	movq	-88(%rbp), %rcx
	movq	%rcx, (%rax)
	movq	-80(%rbp), %rcx
	movq	%rcx, 8(%rax)
Ltmp156:
	.loc	13 50 6 is_stmt 1
	jmp	LBB21_6
LBB21_8:
Ltmp142:
Ltmp157:
	.loc	13 48 9
	leaq	_str.0(%rip), %rdi
	leaq	l___unnamed_4(%rip), %rdx
	movl	$28, %esi
	callq	__ZN4core9panicking5panic17hc1bc45270cf64b03E
Ltmp143:
	jmp	LBB21_11
Ltmp158:
LBB21_9:
	.loc	13 45 5
	movq	-16(%rbp), %rdi
	callq	__Unwind_Resume
Ltmp159:
LBB21_10:
Ltmp144:
	.loc	13 0 5 is_stmt 0
	movq	%rax, %rcx
	movl	%edx, %eax
	movq	%rcx, -16(%rbp)
	movl	%eax, -8(%rbp)
	jmp	LBB21_9
LBB21_11:
	ud2
Lfunc_end21:
	.cfi_endproc
	.section	__TEXT,__gcc_except_tab
	.p2align	2
GCC_except_table21:
Lexception3:
	.byte	255
	.byte	255
	.byte	1
	.uleb128 Lcst_end3-Lcst_begin3
Lcst_begin3:
	.uleb128 Lfunc_begin21-Lfunc_begin21
	.uleb128 Ltmp142-Lfunc_begin21
	.byte	0
	.byte	0
	.uleb128 Ltmp142-Lfunc_begin21
	.uleb128 Ltmp143-Ltmp142
	.uleb128 Ltmp144-Lfunc_begin21
	.byte	0
	.uleb128 Ltmp143-Lfunc_begin21
	.uleb128 Lfunc_end21-Ltmp143
	.byte	0
	.byte	0
Lcst_end3:
	.p2align	2

	.section	__TEXT,__text,regular,pure_instructions
	.globl	__ZN110_$LT$core..iter..adapters..enumerate..Enumerate$LT$I$GT$$u20$as$u20$core..iter..traits..iterator..Iterator$GT$4next17h833fbc235e248332E
	.p2align	4, 0x90
__ZN110_$LT$core..iter..adapters..enumerate..Enumerate$LT$I$GT$$u20$as$u20$core..iter..traits..iterator..Iterator$GT$4next17h833fbc235e248332E:
Lfunc_begin22:
	.loc	13 45 0 is_stmt 1
	.cfi_startproc
	.cfi_personality 155, _rust_eh_personality
	.cfi_lsda 16, Lexception4
	pushq	%rbp
	.cfi_def_cfa_offset 16
	.cfi_offset %rbp, -16
	movq	%rsp, %rbp
	.cfi_def_cfa_register %rbp
	subq	$160, %rsp
	movq	%rsi, -144(%rbp)
	movq	%rdi, %rax
	movq	-144(%rbp), %rdi
	movq	%rax, -136(%rbp)
	movq	%rax, -128(%rbp)
	movq	%rdi, -48(%rbp)
Ltmp163:
	.loc	13 46 17 prologue_end
	addq	$8, %rdi
	callq	__ZN102_$LT$core..iter..adapters..map..Map$LT$I$C$F$GT$$u20$as$u20$core..iter..traits..iterator..Iterator$GT$4next17hbdce6f30107d2a62E
	movl	%eax, -28(%rbp)
	movl	-28(%rbp), %eax
	movl	%eax, -104(%rbp)
Ltmp164:
	.loc	14 2407 15
	movl	$1, %eax
	xorl	%ecx, %ecx
	cmpb	$2, -104(%rbp)
	cmoveq	%rcx, %rax
	.loc	14 2407 9 is_stmt 0
	cmpq	$0, %rax
	jne	LBB22_2
	.loc	14 2409 21 is_stmt 1
	movb	$2, -112(%rbp)
	.loc	14 2409 44 is_stmt 0
	jmp	LBB22_3
LBB22_2:
	.loc	14 2408 18 is_stmt 1
	movl	-104(%rbp), %eax
	movl	%eax, -64(%rbp)
Ltmp165:
	.loc	14 2408 46 is_stmt 0
	movl	-64(%rbp), %eax
	movl	%eax, -56(%rbp)
	.loc	14 2408 24
	movl	-56(%rbp), %eax
	movl	%eax, -112(%rbp)
Ltmp166:
LBB22_3:
	.loc	13 46 17 is_stmt 1
	xorl	%eax, %eax
	movl	$1, %ecx
	cmpb	$2, -112(%rbp)
	cmoveq	%rcx, %rax
	cmpq	$0, %rax
	jne	LBB22_5
	.loc	13 0 17 is_stmt 0
	movq	-144(%rbp), %rax
	.loc	13 46 17
	movl	-112(%rbp), %ecx
	movl	%ecx, -96(%rbp)
Ltmp167:
	.loc	13 46 17
	movl	-96(%rbp), %ecx
	movl	%ecx, -120(%rbp)
Ltmp168:
	.loc	13 47 17 is_stmt 1
	movq	(%rax), %rcx
	movq	%rcx, -160(%rbp)
	movq	%rcx, -24(%rbp)
Ltmp169:
	.loc	13 48 9
	movq	(%rax), %rax
	addq	$1, %rax
	movq	%rax, -152(%rbp)
	setb	%al
	testb	$1, %al
	jne	LBB22_8
	jmp	LBB22_7
Ltmp170:
LBB22_5:
	.loc	13 0 9 is_stmt 0
	movq	-136(%rbp), %rax
Ltmp171:
	.loc	14 2420 21 is_stmt 1
	movb	$2, 8(%rax)
Ltmp172:
LBB22_6:
	.loc	14 0 21 is_stmt 0
	movq	-128(%rbp), %rax
	.loc	13 50 6 is_stmt 1
	addq	$160, %rsp
	popq	%rbp
	retq
LBB22_7:
	.loc	13 0 6 is_stmt 0
	movq	-136(%rbp), %rax
	movq	-160(%rbp), %rcx
	movq	-144(%rbp), %rdx
	movq	-152(%rbp), %rsi
Ltmp173:
	.loc	13 48 9 is_stmt 1
	movq	%rsi, (%rdx)
	.loc	13 49 18
	movl	-120(%rbp), %edx
	movl	%edx, -72(%rbp)
	.loc	13 49 14 is_stmt 0
	movq	%rcx, -88(%rbp)
	movl	-72(%rbp), %ecx
	movl	%ecx, -80(%rbp)
	.loc	13 49 9
	movq	-88(%rbp), %rcx
	movq	%rcx, (%rax)
	movq	-80(%rbp), %rcx
	movq	%rcx, 8(%rax)
Ltmp174:
	.loc	13 50 6 is_stmt 1
	jmp	LBB22_6
LBB22_8:
Ltmp160:
Ltmp175:
	.loc	13 48 9
	leaq	_str.0(%rip), %rdi
	leaq	l___unnamed_4(%rip), %rdx
	movl	$28, %esi
	callq	__ZN4core9panicking5panic17hc1bc45270cf64b03E
Ltmp161:
	jmp	LBB22_11
Ltmp176:
LBB22_9:
	.loc	13 45 5
	movq	-16(%rbp), %rdi
	callq	__Unwind_Resume
Ltmp177:
LBB22_10:
Ltmp162:
	.loc	13 0 5 is_stmt 0
	movq	%rax, %rcx
	movl	%edx, %eax
	movq	%rcx, -16(%rbp)
	movl	%eax, -8(%rbp)
	jmp	LBB22_9
LBB22_11:
	ud2
Lfunc_end22:
	.cfi_endproc
	.section	__TEXT,__gcc_except_tab
	.p2align	2
GCC_except_table22:
Lexception4:
	.byte	255
	.byte	255
	.byte	1
	.uleb128 Lcst_end4-Lcst_begin4
Lcst_begin4:
	.uleb128 Lfunc_begin22-Lfunc_begin22
	.uleb128 Ltmp160-Lfunc_begin22
	.byte	0
	.byte	0
	.uleb128 Ltmp160-Lfunc_begin22
	.uleb128 Ltmp161-Ltmp160
	.uleb128 Ltmp162-Lfunc_begin22
	.byte	0
	.uleb128 Ltmp161-Lfunc_begin22
	.uleb128 Lfunc_end22-Ltmp161
	.byte	0
	.byte	0
Lcst_end4:
	.p2align	2

	.section	__TEXT,__text,regular,pure_instructions
	.globl	__ZN110_$LT$core..ops..range..RangeFrom$LT$usize$GT$$u20$as$u20$core..slice..index..SliceIndex$LT$$u5b$T$u5d$$GT$$GT$5index17hc32fc32df878c33dE
	.p2align	4, 0x90
__ZN110_$LT$core..ops..range..RangeFrom$LT$usize$GT$$u20$as$u20$core..slice..index..SliceIndex$LT$$u5b$T$u5d$$GT$$GT$5index17hc32fc32df878c33dE:
Lfunc_begin23:
	.loc	6 493 0 is_stmt 1
	.cfi_startproc
	pushq	%rbp
	.cfi_def_cfa_offset 16
	.cfi_offset %rbp, -16
	movq	%rsp, %rbp
	.cfi_def_cfa_register %rbp
	subq	$144, %rsp
	movq	%rdi, -144(%rbp)
	movq	%rsi, -136(%rbp)
	movq	%rdx, -128(%rbp)
	movq	%rcx, -120(%rbp)
	movq	%rdi, -80(%rbp)
	movq	%rsi, -72(%rbp)
	movq	%rdx, -64(%rbp)
Ltmp178:
	.loc	6 494 12 prologue_end
	cmpq	%rdx, %rdi
	ja	LBB23_2
	.loc	6 0 12 is_stmt 0
	movq	-128(%rbp), %rcx
	movq	-136(%rbp), %rdx
	movq	-144(%rbp), %rsi
	.loc	6 498 20 is_stmt 1
	movq	%rsi, -56(%rbp)
	.loc	6 498 39 is_stmt 0
	movq	%rdx, -48(%rbp)
	movq	%rcx, -40(%rbp)
Ltmp179:
	.loc	6 483 31 is_stmt 1
	movq	%rdx, -32(%rbp)
	movq	%rcx, -24(%rbp)
Ltmp180:
	.loc	7 1630 18
	movq	%rdx, -16(%rbp)
	movq	%rcx, -8(%rbp)
Ltmp181:
	.loc	9 98 14
	movq	%rdx, -96(%rbp)
	movq	%rcx, -88(%rbp)
	movq	-88(%rbp), %rax
Ltmp182:
	.loc	6 483 18
	movq	%rsi, -112(%rbp)
	movq	%rax, -104(%rbp)
	movq	-112(%rbp), %rdi
	movq	-104(%rbp), %rsi
	callq	__ZN106_$LT$core..ops..range..Range$LT$usize$GT$$u20$as$u20$core..slice..index..SliceIndex$LT$$u5b$T$u5d$$GT$$GT$13get_unchecked17he6dcc39de3d91521E
Ltmp183:
	.loc	6 499 6
	addq	$144, %rsp
	popq	%rbp
	retq
LBB23_2:
	.loc	6 0 6 is_stmt 0
	movq	-120(%rbp), %rdx
	movq	-128(%rbp), %rsi
	movq	-144(%rbp), %rdi
	.loc	6 495 13 is_stmt 1
	callq	__ZN4core5slice5index26slice_start_index_len_fail17h9d301bb51ec3e351E
Ltmp184:
Lfunc_end23:
	.cfi_endproc

	.globl	__ZN111_$LT$core..iter..adapters..zip..Zip$LT$A$C$B$GT$$u20$as$u20$core..iter..adapters..zip..ZipImpl$LT$A$C$B$GT$$GT$3new17h2dd57350c95b2fccE
	.p2align	4, 0x90
__ZN111_$LT$core..iter..adapters..zip..Zip$LT$A$C$B$GT$$u20$as$u20$core..iter..adapters..zip..ZipImpl$LT$A$C$B$GT$$GT$3new17h2dd57350c95b2fccE:
Lfunc_begin24:
	.file	15 "/rustc/2c8cc343237b8f7d5a3c3703e3a87f2eb2c54a74/library/core/src/iter/adapters" "zip.rs"
	.loc	15 262 0
	.cfi_startproc
	.cfi_personality 155, _rust_eh_personality
	.cfi_lsda 16, Lexception5
	pushq	%rbp
	.cfi_def_cfa_offset 16
	.cfi_offset %rbp, -16
	movq	%rsp, %rbp
	.cfi_def_cfa_register %rbp
	subq	$144, %rsp
	movq	%rdi, -120(%rbp)
	movq	%rdi, -112(%rbp)
	movq	%rsi, -96(%rbp)
	movq	%rdx, -88(%rbp)
	movq	%rcx, -80(%rbp)
	movq	%r8, -72(%rbp)
Ltmp185:
	leaq	-96(%rbp), %rdi
Ltmp192:
	.loc	15 263 21 prologue_end
	callq	__ZN4core4iter8adapters3zip27TrustedRandomAccessNoCoerce4size17hca79534402c391e9E
Ltmp186:
	movq	%rax, -104(%rbp)
	jmp	LBB24_3
LBB24_1:
	.loc	15 262 5
	movq	-64(%rbp), %rdi
	callq	__Unwind_Resume
LBB24_2:
Ltmp191:
	.loc	15 0 5 is_stmt 0
	movq	%rax, %rcx
	movl	%edx, %eax
	movq	%rcx, -64(%rbp)
	movl	%eax, -56(%rbp)
	jmp	LBB24_1
LBB24_3:
	movq	-104(%rbp), %rax
	.loc	15 263 21 is_stmt 1
	movq	%rax, -48(%rbp)
Ltmp193:
	.loc	15 264 28
	movq	%rax, -40(%rbp)
Ltmp187:
	leaq	-80(%rbp), %rdi
	.loc	15 264 35 is_stmt 0
	callq	__ZN4core4iter8adapters3zip27TrustedRandomAccessNoCoerce4size17hca79534402c391e9E
Ltmp188:
	movq	%rax, -128(%rbp)
	jmp	LBB24_4
LBB24_4:
	.loc	15 0 35
	movq	-128(%rbp), %rsi
	movq	-104(%rbp), %rdi
	.loc	15 264 35
	movq	%rsi, -32(%rbp)
Ltmp194:
	.file	16 "/rustc/2c8cc343237b8f7d5a3c3703e3a87f2eb2c54a74/library/core/src" "cmp.rs"
	.loc	16 1185 5 is_stmt 1
	movq	%rdi, -24(%rbp)
	.loc	16 1185 12 is_stmt 0
	movq	%rsi, -16(%rbp)
Ltmp189:
Ltmp195:
	.loc	16 833 13 is_stmt 1
	callq	__ZN4core3cmp6min_by17h8ca2bd448bb4dd66E
Ltmp190:
	movq	%rax, -136(%rbp)
	jmp	LBB24_5
LBB24_5:
	.loc	16 0 13 is_stmt 0
	movq	-112(%rbp), %rax
	movq	-120(%rbp), %rcx
	movq	-104(%rbp), %rdx
	movq	-136(%rbp), %rsi
	.loc	16 833 13
	movq	%rsi, -8(%rbp)
Ltmp196:
	.loc	15 265 15 is_stmt 1
	movq	-96(%rbp), %r10
	movq	-88(%rbp), %r9
	.loc	15 265 18 is_stmt 0
	movq	-80(%rbp), %r8
	movq	-72(%rbp), %rdi
	.loc	15 265 9
	movq	%r10, (%rcx)
	movq	%r9, 8(%rcx)
	movq	%r8, 16(%rcx)
	movq	%rdi, 24(%rcx)
	movq	$0, 32(%rcx)
	movq	%rsi, 40(%rcx)
	movq	%rdx, 48(%rcx)
Ltmp197:
	.loc	15 266 6 is_stmt 1
	addq	$144, %rsp
	popq	%rbp
	retq
Ltmp198:
Lfunc_end24:
	.cfi_endproc
	.section	__TEXT,__gcc_except_tab
	.p2align	2
GCC_except_table24:
Lexception5:
	.byte	255
	.byte	255
	.byte	1
	.uleb128 Lcst_end5-Lcst_begin5
Lcst_begin5:
	.uleb128 Ltmp185-Lfunc_begin24
	.uleb128 Ltmp186-Ltmp185
	.uleb128 Ltmp191-Lfunc_begin24
	.byte	0
	.uleb128 Ltmp186-Lfunc_begin24
	.uleb128 Ltmp187-Ltmp186
	.byte	0
	.byte	0
	.uleb128 Ltmp187-Lfunc_begin24
	.uleb128 Ltmp190-Ltmp187
	.uleb128 Ltmp191-Lfunc_begin24
	.byte	0
Lcst_end5:
	.p2align	2

	.section	__TEXT,__text,regular,pure_instructions
	.globl	__ZN111_$LT$core..iter..adapters..zip..Zip$LT$A$C$B$GT$$u20$as$u20$core..iter..adapters..zip..ZipImpl$LT$A$C$B$GT$$GT$4next17h32cb0de8e0a6587eE
	.p2align	4, 0x90
__ZN111_$LT$core..iter..adapters..zip..Zip$LT$A$C$B$GT$$u20$as$u20$core..iter..adapters..zip..ZipImpl$LT$A$C$B$GT$$GT$4next17h32cb0de8e0a6587eE:
Lfunc_begin25:
	.loc	15 269 0
	.cfi_startproc
	.cfi_personality 155, _rust_eh_personality
	.cfi_lsda 16, Lexception6
	pushq	%rbp
	.cfi_def_cfa_offset 16
	.cfi_offset %rbp, -16
	movq	%rsp, %rbp
	.cfi_def_cfa_register %rbp
	subq	$112, %rsp
	movq	%rdi, -88(%rbp)
	movq	%rdi, -40(%rbp)
Ltmp202:
	.loc	15 270 12 prologue_end
	movq	32(%rdi), %rax
	cmpq	40(%rdi), %rax
	jb	LBB25_2
	.loc	15 279 19
	xorl	%eax, %eax
	testb	$1, %al
	jne	LBB25_8
	jmp	LBB25_7
LBB25_2:
	.loc	15 0 19 is_stmt 0
	movq	-88(%rbp), %rdi
	.loc	15 271 21 is_stmt 1
	movq	32(%rdi), %rsi
	movq	%rsi, -112(%rbp)
	movq	%rsi, -32(%rbp)
Ltmp203:
	.loc	15 274 13
	movq	32(%rdi), %rax
	incq	%rax
	movq	%rax, 32(%rdi)
	.loc	15 277 23
	callq	__ZN91_$LT$core..slice..iter..Iter$LT$T$GT$$u20$as$u20$core..iter..traits..iterator..Iterator$GT$24__iterator_get_unchecked17hbc16385da0e41d46E
	movq	-88(%rbp), %rdi
	movq	-112(%rbp), %rsi
	movq	%rax, -104(%rbp)
	.loc	15 277 59 is_stmt 0
	addq	$16, %rdi
Ltmp199:
	callq	__ZN91_$LT$core..slice..iter..Iter$LT$T$GT$$u20$as$u20$core..iter..traits..iterator..Iterator$GT$24__iterator_get_unchecked17hbc16385da0e41d46E
Ltmp200:
	movq	%rax, -96(%rbp)
	jmp	LBB25_5
Ltmp204:
LBB25_3:
	.loc	15 269 5 is_stmt 1
	movq	-24(%rbp), %rdi
	callq	__Unwind_Resume
LBB25_4:
Ltmp201:
	.loc	15 0 5 is_stmt 0
	movq	%rax, %rcx
	movl	%edx, %eax
	movq	%rcx, -24(%rbp)
	movl	%eax, -16(%rbp)
	jmp	LBB25_3
LBB25_5:
	movq	-96(%rbp), %rax
	movq	-104(%rbp), %rcx
Ltmp205:
	.loc	15 277 22 is_stmt 1
	movq	%rcx, -64(%rbp)
	movq	%rax, -56(%rbp)
	.loc	15 277 17 is_stmt 0
	movq	-64(%rbp), %rcx
	movq	-56(%rbp), %rax
	movq	%rcx, -80(%rbp)
	movq	%rax, -72(%rbp)
Ltmp206:
LBB25_6:
	.loc	15 293 6 is_stmt 1
	movq	-80(%rbp), %rax
	movq	-72(%rbp), %rdx
	addq	$112, %rsp
	popq	%rbp
	retq
LBB25_7:
	.loc	15 279 19
	movb	$0, -41(%rbp)
	jmp	LBB25_9
LBB25_8:
	.loc	15 0 19 is_stmt 0
	movq	-88(%rbp), %rcx
	.loc	15 279 46
	movq	32(%rcx), %rax
	cmpq	48(%rcx), %rax
	setb	%al
	.loc	15 279 19
	andb	$1, %al
	movb	%al, -41(%rbp)
LBB25_9:
	testb	$1, -41(%rbp)
	jne	LBB25_11
	.loc	15 291 13 is_stmt 1
	movq	$0, -80(%rbp)
	.loc	15 279 16
	jmp	LBB25_12
LBB25_11:
	.loc	15 0 16 is_stmt 0
	movq	-88(%rbp), %rdi
	.loc	15 280 21 is_stmt 1
	movq	32(%rdi), %rsi
	movq	%rsi, -8(%rbp)
Ltmp207:
	.loc	15 282 13
	movq	32(%rdi), %rax
	addq	$1, %rax
	movq	%rax, 32(%rdi)
	.loc	15 283 13
	movq	40(%rdi), %rax
	addq	$1, %rax
	movq	%rax, 40(%rdi)
	.loc	15 287 17
	callq	__ZN91_$LT$core..slice..iter..Iter$LT$T$GT$$u20$as$u20$core..iter..traits..iterator..Iterator$GT$24__iterator_get_unchecked17hbc16385da0e41d46E
	.loc	15 289 13
	movq	$0, -80(%rbp)
Ltmp208:
LBB25_12:
	.loc	15 270 9
	jmp	LBB25_6
Ltmp209:
Lfunc_end25:
	.cfi_endproc
	.section	__TEXT,__gcc_except_tab
	.p2align	2
GCC_except_table25:
Lexception6:
	.byte	255
	.byte	255
	.byte	1
	.uleb128 Lcst_end6-Lcst_begin6
Lcst_begin6:
	.uleb128 Lfunc_begin25-Lfunc_begin25
	.uleb128 Ltmp199-Lfunc_begin25
	.byte	0
	.byte	0
	.uleb128 Ltmp199-Lfunc_begin25
	.uleb128 Ltmp200-Ltmp199
	.uleb128 Ltmp201-Lfunc_begin25
	.byte	0
	.uleb128 Ltmp200-Lfunc_begin25
	.uleb128 Lfunc_end25-Ltmp200
	.byte	0
	.byte	0
Lcst_end6:
	.p2align	2

	.section	__TEXT,__text,regular,pure_instructions
	.globl	__ZN114_$LT$core..core_simd..masks..Mask$LT$T$C$16_usize$GT$$u20$as$u20$core..core_simd..masks..to_bitmask..ToBitMask$GT$10to_bitmask17h0865bffd910ca252E
	.p2align	4, 0x90
__ZN114_$LT$core..core_simd..masks..Mask$LT$T$C$16_usize$GT$$u20$as$u20$core..core_simd..masks..to_bitmask..ToBitMask$GT$10to_bitmask17h0865bffd910ca252E:
Lfunc_begin26:
	.file	17 "/rustc/2c8cc343237b8f7d5a3c3703e3a87f2eb2c54a74/library/core/src/../../portable-simd/crates/core_simd/src/masks" "to_bitmask.rs"
	.loc	17 51 0
	.cfi_startproc
	pushq	%rbp
	.cfi_def_cfa_offset 16
	.cfi_offset %rbp, -16
	movq	%rsp, %rbp
	.cfi_def_cfa_register %rbp
	subq	$32, %rsp
Ltmp210:
	.loc	17 52 17 prologue_end
	movaps	(%rdi), %xmm0
	movaps	%xmm0, -32(%rbp)
Ltmp211:
	.file	18 "/rustc/2c8cc343237b8f7d5a3c3703e3a87f2eb2c54a74/library/core/src/../../portable-simd/crates/core_simd/src/masks" "full_masks.rs"
	.loc	18 213 35
	pmovmskb	%xmm0, %eax
	movw	%ax, -2(%rbp)
	movw	-2(%rbp), %ax
Ltmp212:
	.loc	17 53 14
	addq	$32, %rsp
	popq	%rbp
	retq
Ltmp213:
Lfunc_end26:
	.cfi_endproc

	.globl	__ZN116_$LT$core..core_simd..vector..Simd$LT$T$C$_$GT$$u20$as$u20$core..convert..From$LT$$u5b$T$u3b$$u20$LANES$u5d$$GT$$GT$4from17h7a55a776ff893458E
	.p2align	4, 0x90
__ZN116_$LT$core..core_simd..vector..Simd$LT$T$C$_$GT$$u20$as$u20$core..convert..From$LT$$u5b$T$u3b$$u20$LANES$u5d$$GT$$GT$4from17h7a55a776ff893458E:
Lfunc_begin27:
	.file	19 "/rustc/2c8cc343237b8f7d5a3c3703e3a87f2eb2c54a74/library/core/src/../../portable-simd/crates/core_simd/src" "vector.rs"
	.loc	19 627 0
	.cfi_startproc
	pushq	%rbp
	.cfi_def_cfa_offset 16
	.cfi_offset %rbp, -16
	movq	%rsp, %rbp
	.cfi_def_cfa_register %rbp
	subq	$3, %rsp
	movb	%sil, %cl
	movq	%rdi, %rax
	movb	%cl, -2(%rbp)
	movb	-2(%rbp), %cl
	movb	%cl, -3(%rbp)
Ltmp214:
	.loc	19 628 14 prologue_end
	movb	-3(%rbp), %cl
	movb	%cl, -1(%rbp)
	.loc	19 628 9 is_stmt 0
	movb	-1(%rbp), %cl
	movb	%cl, (%rdi)
	.loc	19 629 6 is_stmt 1
	addq	$3, %rsp
	popq	%rbp
	retq
Ltmp215:
Lfunc_end27:
	.cfi_endproc

	.globl	__ZN119_$LT$alloc..collections..btree..map..BTreeMap$LT$K$C$V$C$A$GT$$u20$as$u20$core..iter..traits..collect..IntoIterator$GT$9into_iter17h6a199209dcbdc5dfE
	.p2align	4, 0x90
__ZN119_$LT$alloc..collections..btree..map..BTreeMap$LT$K$C$V$C$A$GT$$u20$as$u20$core..iter..traits..collect..IntoIterator$GT$9into_iter17h6a199209dcbdc5dfE:
Lfunc_begin28:
	.file	20 "/rustc/2c8cc343237b8f7d5a3c3703e3a87f2eb2c54a74/library/alloc/src/collections/btree" "map.rs"
	.loc	20 1615 0
	.cfi_startproc
	pushq	%rbp
	.cfi_def_cfa_offset 16
	.cfi_offset %rbp, -16
	movq	%rsp, %rbp
	.cfi_def_cfa_register %rbp
	subq	$480, %rsp
	movq	%rdi, -464(%rbp)
	movq	%rdi, -456(%rbp)
Ltmp216:
	.loc	20 1616 40 prologue_end
	movq	16(%rsi), %rax
	movq	%rax, -408(%rbp)
	movq	(%rsi), %rax
	movq	8(%rsi), %rcx
	movq	%rcx, -416(%rbp)
	movq	%rax, -424(%rbp)
Ltmp217:
	.file	21 "/rustc/2c8cc343237b8f7d5a3c3703e3a87f2eb2c54a74/library/core/src/mem" "manually_drop.rs"
	.loc	21 71 24
	movq	-408(%rbp), %rax
	movq	%rax, -176(%rbp)
	movq	-424(%rbp), %rax
	movq	-416(%rbp), %rcx
	movq	%rcx, -184(%rbp)
	movq	%rax, -192(%rbp)
	.loc	21 71 9 is_stmt 0
	movq	-176(%rbp), %rax
	movq	%rax, -432(%rbp)
	movq	-192(%rbp), %rax
	movq	-184(%rbp), %rcx
	movq	%rcx, -440(%rbp)
	movq	%rax, -448(%rbp)
	leaq	-448(%rbp), %rdi
Ltmp218:
	.loc	20 1617 29 is_stmt 1
	movq	%rdi, -104(%rbp)
	movq	%rdi, -96(%rbp)
Ltmp219:
	.loc	14 1623 28
	movq	$0, -160(%rbp)
	.loc	14 1623 9 is_stmt 0
	movq	-168(%rbp), %rsi
Ltmp220:
	movq	-160(%rbp), %rdx
	callq	__ZN4core3mem7replace17hc69d40eea562d6f6E
	movq	%rdx, -392(%rbp)
	movq	%rax, -400(%rbp)
Ltmp221:
	.loc	20 1617 16 is_stmt 1
	movq	-392(%rbp), %rdx
	movl	$1, %eax
	xorl	%ecx, %ecx
	cmpq	$0, %rdx
	cmoveq	%rcx, %rax
	cmpq	$1, %rax
	jne	LBB28_2
Ltmp222:
	.loc	20 1617 21 is_stmt 0
	movq	-400(%rbp), %rdi
	movq	-392(%rbp), %rsi
	movq	%rdi, -56(%rbp)
	movq	%rsi, -48(%rbp)
	.loc	20 1618 30 is_stmt 1
	callq	__ZN5alloc11collections5btree4node76NodeRef$LT$alloc..collections..btree..node..marker..Owned$C$K$C$V$C$Type$GT$10into_dying17h149c1d2e4ced9194E
	movq	%rax, %rsi
	leaq	-384(%rbp), %rdi
	callq	__ZN5alloc11collections5btree8navigate178_$LT$impl$u20$alloc..collections..btree..node..NodeRef$LT$alloc..collections..btree..node..marker..Dying$C$K$C$V$C$alloc..collections..btree..node..marker..LeafOrInternal$GT$$GT$10full_range17hb8af05d2e64313c7E
Ltmp223:
	.loc	20 1621 24
	leaq	-320(%rbp), %rdi
	leaq	-384(%rbp), %rsi
	movl	$64, %edx
	callq	_memcpy
	movq	-464(%rbp), %rdi
	.loc	20 1622 25
	leaq	-448(%rbp), %rax
	movq	%rax, -40(%rbp)
	movq	-432(%rbp), %rax
	movq	%rax, -472(%rbp)
	.loc	20 1623 57
	leaq	-448(%rbp), %rax
	movq	%rax, -32(%rbp)
	.loc	20 1623 52 is_stmt 0
	leaq	-448(%rbp), %rax
	movq	%rax, -24(%rbp)
Ltmp224:
	.loc	21 113 28 is_stmt 1
	leaq	-448(%rbp), %rax
	movq	%rax, -16(%rbp)
Ltmp225:
	.loc	8 1157 34
	leaq	-152(%rbp), %rax
	movq	%rax, -8(%rbp)
Ltmp226:
	.loc	20 1620 13
	leaq	-320(%rbp), %rsi
	movl	$64, %edx
	callq	_memcpy
	movq	-472(%rbp), %rcx
	movq	-464(%rbp), %rax
	movq	%rcx, 64(%rax)
Ltmp227:
	.loc	20 1617 9
	jmp	LBB28_3
Ltmp228:
LBB28_2:
	.loc	20 1627 24
	leaq	-256(%rbp), %rdi
	callq	__ZN5alloc11collections5btree8navigate39LazyLeafRange$LT$BorrowType$C$K$C$V$GT$4none17h6260f9a426f8cebcE
	movq	-464(%rbp), %rdi
	.loc	20 1629 57
	leaq	-448(%rbp), %rax
	movq	%rax, -88(%rbp)
	.loc	20 1629 52 is_stmt 0
	leaq	-448(%rbp), %rax
	movq	%rax, -80(%rbp)
Ltmp229:
	.loc	21 113 28 is_stmt 1
	leaq	-448(%rbp), %rax
	movq	%rax, -72(%rbp)
Ltmp230:
	.loc	8 1157 34
	leaq	-144(%rbp), %rax
	movq	%rax, -64(%rbp)
Ltmp231:
	.loc	20 1626 13
	leaq	-256(%rbp), %rsi
	movl	$64, %edx
	callq	_memcpy
	movq	-464(%rbp), %rax
	movq	$0, 64(%rax)
Ltmp232:
LBB28_3:
	.loc	20 0 13 is_stmt 0
	movq	-456(%rbp), %rax
	.loc	20 1632 6 is_stmt 1
	addq	$480, %rsp
	popq	%rbp
	retq
Ltmp233:
Lfunc_end28:
	.cfi_endproc

	.globl	__ZN119_$LT$core..ptr..non_null..NonNull$LT$T$GT$$u20$as$u20$core..convert..From$LT$core..ptr..unique..Unique$LT$T$GT$$GT$$GT$4from17h7ab7b03157b852a0E
	.p2align	4, 0x90
__ZN119_$LT$core..ptr..non_null..NonNull$LT$T$GT$$u20$as$u20$core..convert..From$LT$core..ptr..unique..Unique$LT$T$GT$$GT$$GT$4from17h7ab7b03157b852a0E:
Lfunc_begin29:
	.loc	11 765 0
	.cfi_startproc
	pushq	%rbp
	.cfi_def_cfa_offset 16
	.cfi_offset %rbp, -16
	movq	%rsp, %rbp
	.cfi_def_cfa_register %rbp
	subq	$40, %rsp
	movq	%rdi, -32(%rbp)
Ltmp234:
	.loc	11 768 41 prologue_end
	movq	%rdi, -24(%rbp)
Ltmp235:
	.file	22 "/rustc/2c8cc343237b8f7d5a3c3703e3a87f2eb2c54a74/library/core/src/ptr" "unique.rs"
	.loc	22 104 9
	movq	%rdi, -16(%rbp)
Ltmp236:
	.loc	11 326 9
	movq	%rdi, -8(%rbp)
Ltmp237:
	.loc	11 201 13
	movq	%rdi, -40(%rbp)
Ltmp238:
	.loc	11 769 6
	movq	-40(%rbp), %rax
	addq	$40, %rsp
	popq	%rbp
	retq
Ltmp239:
Lfunc_end29:
	.cfi_endproc

	.globl	__ZN174_$LT$$LT$alloc..collections..btree..map..IntoIter$LT$K$C$V$C$A$GT$$u20$as$u20$core..ops..drop..Drop$GT$..drop..DropGuard$LT$K$C$V$C$A$GT$$u20$as$u20$core..ops..drop..Drop$GT$4drop17h0b68d037b759a90fE
	.p2align	4, 0x90
__ZN174_$LT$$LT$alloc..collections..btree..map..IntoIter$LT$K$C$V$C$A$GT$$u20$as$u20$core..ops..drop..Drop$GT$..drop..DropGuard$LT$K$C$V$C$A$GT$$u20$as$u20$core..ops..drop..Drop$GT$4drop17h0b68d037b759a90fE:
Lfunc_begin30:
	.loc	20 1641 0
	.cfi_startproc
	pushq	%rbp
	.cfi_def_cfa_offset 16
	.cfi_offset %rbp, -16
	movq	%rsp, %rbp
	.cfi_def_cfa_register %rbp
	subq	$96, %rsp
	movq	%rdi, -88(%rbp)
	movq	%rdi, -8(%rbp)
LBB30_1:
	movq	-88(%rbp), %rax
Ltmp240:
	.loc	20 1644 38 prologue_end
	movq	(%rax), %rsi
	leaq	-80(%rbp), %rdi
	callq	__ZN5alloc11collections5btree3map25IntoIter$LT$K$C$V$C$A$GT$10dying_next17h07977e9b451f7be1E
	.loc	20 1644 27 is_stmt 0
	movq	-72(%rbp), %rdx
	movl	$1, %eax
	xorl	%ecx, %ecx
	cmpq	$0, %rdx
	cmoveq	%rcx, %rax
	cmpq	$1, %rax
	jne	LBB30_3
	.loc	20 1644 32
	movq	-80(%rbp), %rax
	movq	%rax, -56(%rbp)
	movq	-72(%rbp), %rax
	movq	%rax, -48(%rbp)
	movq	-64(%rbp), %rax
	movq	%rax, -40(%rbp)
	.loc	20 1646 30 is_stmt 1
	movq	-56(%rbp), %rax
	movq	%rax, -32(%rbp)
	movq	-48(%rbp), %rax
	movq	%rax, -24(%rbp)
	movq	-40(%rbp), %rax
	movq	%rax, -16(%rbp)
	leaq	-32(%rbp), %rdi
	callq	__ZN5alloc11collections5btree4node173Handle$LT$alloc..collections..btree..node..NodeRef$LT$alloc..collections..btree..node..marker..Dying$C$K$C$V$C$NodeType$GT$$C$alloc..collections..btree..node..marker..KV$GT$12drop_key_val17h06616a86e7cf5b19E
Ltmp241:
	.loc	20 1644 17
	jmp	LBB30_1
LBB30_3:
	.loc	20 1648 14
	addq	$96, %rsp
	popq	%rbp
	retq
Ltmp242:
Lfunc_end30:
	.cfi_endproc

	.globl	__ZN3std2io5error14repr_bitpacked11decode_repr17h610522d04f21bc33E
	.p2align	4, 0x90
__ZN3std2io5error14repr_bitpacked11decode_repr17h610522d04f21bc33E:
Lfunc_begin31:
	.file	23 "/rustc/2c8cc343237b8f7d5a3c3703e3a87f2eb2c54a74/library/std/src/io/error" "repr_bitpacked.rs"
	.loc	23 246 0
	.cfi_startproc
	.cfi_personality 155, _rust_eh_personality
	.cfi_lsda 16, Lexception7
	pushq	%rbp
	.cfi_def_cfa_offset 16
	.cfi_offset %rbp, -16
	movq	%rsp, %rbp
	.cfi_def_cfa_register %rbp
	subq	$320, %rsp
	movq	%rsi, -272(%rbp)
	movq	%rdi, -264(%rbp)
	movq	%rdi, -256(%rbp)
	movq	%rsi, -184(%rbp)
Ltmp252:
	.loc	23 250 9 prologue_end
	movb	$1, -201(%rbp)
	.loc	23 250 16 is_stmt 0
	movq	%rsi, -160(%rbp)
Ltmp253:
	.loc	11 326 9 is_stmt 1
	movq	%rsi, -152(%rbp)
Ltmp254:
	.loc	10 215 33
	movq	%rsi, -144(%rbp)
	.loc	10 215 18 is_stmt 0
	movq	%rsi, -248(%rbp)
Ltmp255:
	.loc	23 251 11 is_stmt 1
	movq	-248(%rbp), %rax
	andl	$3, %eax
	movq	%rax, -280(%rbp)
	.loc	23 251 5 is_stmt 0
	subq	$3, %rax
	ja	LBB31_2
	.loc	23 0 5
	movq	-280(%rbp), %rax
	leaq	LJTI31_0(%rip), %rcx
	movslq	(%rcx,%rax,4), %rax
	addq	%rcx, %rax
	jmpq	*%rax
LBB31_2:
Ltmp249:
	.loc	23 280 13 is_stmt 1
	leaq	l___unnamed_5(%rip), %rdi
	leaq	l___unnamed_6(%rip), %rdx
	movl	$40, %esi
	callq	__ZN4core9panicking5panic17hc1bc45270cf64b03E
Ltmp250:
	jmp	LBB31_9
LBB31_3:
	.loc	23 0 13 is_stmt 0
	movq	-264(%rbp), %rax
	.loc	23 253 26 is_stmt 1
	movq	-248(%rbp), %rcx
	.loc	23 253 24 is_stmt 0
	sarq	$32, %rcx
	movl	%ecx, -4(%rbp)
Ltmp256:
	.loc	23 254 13 is_stmt 1
	movl	%ecx, 4(%rax)
	movb	$0, (%rax)
Ltmp257:
	.loc	23 255 9
	jmp	LBB31_12
LBB31_4:
	.loc	23 257 30
	movl	-244(%rbp), %edi
	.loc	23 257 29 is_stmt 0
	movl	%edi, -12(%rbp)
Ltmp245:
Ltmp258:
	.loc	23 258 24 is_stmt 1
	callq	__ZN3std2io5error14repr_bitpacked14kind_from_prim17hd953b29c905675a7E
Ltmp246:
	movb	%al, -281(%rbp)
	jmp	LBB31_13
Ltmp259:
LBB31_5:
	.loc	23 0 24 is_stmt 0
	movq	-264(%rbp), %rax
	movq	-272(%rbp), %rcx
	.loc	23 270 58 is_stmt 1
	movq	%rcx, -40(%rbp)
Ltmp260:
	.loc	11 450 41
	movq	%rcx, -32(%rbp)
	movq	%rcx, -24(%rbp)
Ltmp261:
	.loc	11 201 13
	movq	%rcx, -224(%rbp)
Ltmp262:
	.loc	11 326 9
	movq	-224(%rbp), %rcx
Ltmp263:
	.loc	23 270 31
	movq	%rcx, 8(%rax)
	movb	$2, (%rax)
	.loc	23 270 94 is_stmt 0
	jmp	LBB31_12
LBB31_6:
	.loc	23 0 94
	movq	-272(%rbp), %rax
	.loc	23 275 26 is_stmt 1
	movq	%rax, -120(%rbp)
Ltmp264:
	.loc	11 326 9
	movq	%rax, -112(%rbp)
Ltmp265:
	.loc	10 1300 9
	movq	%rax, -104(%rbp)
Ltmp266:
	.loc	10 60 9
	movq	%rax, -96(%rbp)
Ltmp267:
	.loc	10 1282 9
	movq	%rax, -88(%rbp)
Ltmp268:
	.loc	10 568 18
	addq	$-1, %rax
	movq	%rax, -80(%rbp)
	movq	-80(%rbp), %rax
	movq	%rax, -296(%rbp)
	jmp	LBB31_10
Ltmp269:
LBB31_7:
	.loc	23 283 1
	testb	$1, -201(%rbp)
	jne	LBB31_19
	jmp	LBB31_18
LBB31_8:
Ltmp251:
	.loc	23 0 1 is_stmt 0
	movq	%rax, %rcx
	movl	%edx, %eax
	movq	%rcx, -136(%rbp)
	movl	%eax, -128(%rbp)
	jmp	LBB31_7
LBB31_9:
	ud2
LBB31_10:
	movq	-296(%rbp), %rax
Ltmp270:
	.loc	10 568 18 is_stmt 1
	movq	%rax, -72(%rbp)
Ltmp271:
	.loc	10 99 33
	movq	%rax, -64(%rbp)
Ltmp272:
	.loc	9 135 36
	movq	%rax, -192(%rbp)
	.loc	9 135 14 is_stmt 0
	movq	-192(%rbp), %rax
	movq	%rax, -200(%rbp)
	movq	-200(%rbp), %rax
	movq	%rax, -56(%rbp)
Ltmp273:
	.loc	10 60 9 is_stmt 1
	movq	%rax, -48(%rbp)
Ltmp274:
	.loc	23 276 31
	movb	$0, -201(%rbp)
	movq	%rax, -216(%rbp)
	movq	-216(%rbp), %rdi
Ltmp243:
	callq	__ZN78_$LT$std..io..error..repr_bitpacked..Repr$u20$as$u20$core..ops..drop..Drop$GT$4drop28_$u7b$$u7b$closure$u7d$$u7d$17h95f88f4e53b6babeE
Ltmp244:
	movq	%rax, -304(%rbp)
	jmp	LBB31_11
LBB31_11:
	.loc	23 0 31 is_stmt 0
	movq	-264(%rbp), %rax
	movq	-304(%rbp), %rcx
	.loc	23 276 13
	movq	%rcx, 8(%rax)
	movb	$3, (%rax)
Ltmp275:
LBB31_12:
	.loc	23 283 1 is_stmt 1
	testb	$1, -201(%rbp)
	jne	LBB31_21
	jmp	LBB31_20
LBB31_13:
	.loc	23 0 1 is_stmt 0
	movb	-281(%rbp), %al
Ltmp276:
	.loc	23 258 24 is_stmt 1
	movb	%al, -233(%rbp)
	.loc	23 258 65 is_stmt 0
	leaq	-248(%rbp), %rax
	movq	%rax, -232(%rbp)
Ltmp277:
	.loc	14 871 15 is_stmt 1
	movl	$1, %eax
	xorl	%ecx, %ecx
	cmpb	$41, -233(%rbp)
	cmoveq	%rcx, %rax
	.loc	14 871 9 is_stmt 0
	cmpq	$0, %rax
	jne	LBB31_15
	.loc	14 873 21 is_stmt 1
	movq	-232(%rbp), %rdi
Ltmp247:
	callq	__ZN3std2io5error14repr_bitpacked11decode_repr28_$u7b$$u7b$closure$u7d$$u7d$17h5eba7221353bba30E
Ltmp248:
	movb	%al, -305(%rbp)
	jmp	LBB31_17
LBB31_15:
	.loc	14 872 18
	movb	-233(%rbp), %al
	movb	%al, -5(%rbp)
Ltmp278:
	.loc	14 872 24 is_stmt 0
	movb	%al, -234(%rbp)
Ltmp279:
LBB31_16:
	.loc	14 0 24
	movq	-264(%rbp), %rax
Ltmp280:
	.loc	23 268 31 is_stmt 1
	movb	-234(%rbp), %cl
	.loc	23 268 13 is_stmt 0
	movb	%cl, 1(%rax)
	movb	$1, (%rax)
Ltmp281:
	.loc	23 269 9 is_stmt 1
	jmp	LBB31_12
LBB31_17:
	.loc	23 0 9 is_stmt 0
	movb	-305(%rbp), %al
Ltmp282:
	.loc	14 873 21 is_stmt 1
	movb	%al, -234(%rbp)
	.loc	14 873 23 is_stmt 0
	jmp	LBB31_16
Ltmp283:
LBB31_18:
	.loc	23 246 1 is_stmt 1
	movq	-136(%rbp), %rdi
	callq	__Unwind_Resume
LBB31_19:
	.loc	23 283 1
	jmp	LBB31_18
LBB31_20:
	.loc	23 0 1 is_stmt 0
	movq	-256(%rbp), %rax
	.loc	23 283 2
	addq	$320, %rsp
	popq	%rbp
	retq
LBB31_21:
	.loc	23 283 1
	jmp	LBB31_20
Ltmp284:
Lfunc_end31:
	.cfi_endproc
	.p2align	2, 0x90
	.data_region jt32
.set L31_0_set_5, LBB31_5-LJTI31_0
.set L31_0_set_6, LBB31_6-LJTI31_0
.set L31_0_set_3, LBB31_3-LJTI31_0
.set L31_0_set_4, LBB31_4-LJTI31_0
LJTI31_0:
	.long	L31_0_set_5
	.long	L31_0_set_6
	.long	L31_0_set_3
	.long	L31_0_set_4
	.end_data_region
	.section	__TEXT,__gcc_except_tab
	.p2align	2
GCC_except_table31:
Lexception7:
	.byte	255
	.byte	255
	.byte	1
	.uleb128 Lcst_end7-Lcst_begin7
Lcst_begin7:
	.uleb128 Ltmp249-Lfunc_begin31
	.uleb128 Ltmp248-Ltmp249
	.uleb128 Ltmp251-Lfunc_begin31
	.byte	0
	.uleb128 Ltmp248-Lfunc_begin31
	.uleb128 Lfunc_end31-Ltmp248
	.byte	0
	.byte	0
Lcst_end7:
	.p2align	2

	.section	__TEXT,__text,regular,pure_instructions
	.globl	__ZN3std2io5error14repr_bitpacked11decode_repr28_$u7b$$u7b$closure$u7d$$u7d$17h5eba7221353bba30E
	.p2align	4, 0x90
__ZN3std2io5error14repr_bitpacked11decode_repr28_$u7b$$u7b$closure$u7d$$u7d$17h5eba7221353bba30E:
Lfunc_begin32:
	.loc	23 258 0 is_stmt 1
	.cfi_startproc
	pushq	%rbp
	.cfi_def_cfa_offset 16
	.cfi_offset %rbp, -16
	movq	%rsp, %rbp
	.cfi_def_cfa_register %rbp
	subq	$16, %rsp
	movq	%rdi, -16(%rbp)
Ltmp285:
	.loc	23 266 17 prologue_end
	callq	__ZN4core4hint21unreachable_unchecked17hb244c7b2be845e76E
Ltmp286:
Lfunc_end32:
	.cfi_endproc

	.p2align	4, 0x90
__ZN3std2io5error14repr_bitpacked14kind_from_prim17hd953b29c905675a7E:
Lfunc_begin33:
	.loc	23 289 0
	.cfi_startproc
	pushq	%rbp
	.cfi_def_cfa_offset 16
	.cfi_offset %rbp, -16
	movq	%rsp, %rbp
	.cfi_def_cfa_register %rbp
	subq	$336, %rsp
	movl	%edi, -336(%rbp)
Ltmp287:
	.loc	23 302 5 prologue_end
	leaq	-336(%rbp), %rax
	movq	%rax, -328(%rbp)
	cmpl	$0, -336(%rbp)
	je	LBB33_2
	leaq	-336(%rbp), %rax
	movq	%rax, -320(%rbp)
	cmpl	$1, -336(%rbp)
	je	LBB33_5
	jmp	LBB33_4
LBB33_2:
Ltmp288:
	.loc	23 302 5 is_stmt 0
	movb	$0, -329(%rbp)
Ltmp289:
LBB33_3:
	.loc	23 345 2 is_stmt 1
	movb	-329(%rbp), %al
	addq	$336, %rsp
	popq	%rbp
	retq
LBB33_4:
	.loc	23 302 5
	leaq	-336(%rbp), %rax
	movq	%rax, -312(%rbp)
	cmpl	$2, -336(%rbp)
	je	LBB33_7
	jmp	LBB33_6
LBB33_5:
Ltmp290:
	.loc	23 302 5 is_stmt 0
	movb	$1, -329(%rbp)
Ltmp291:
	.loc	23 302 5
	jmp	LBB33_3
LBB33_6:
	leaq	-336(%rbp), %rax
	movq	%rax, -304(%rbp)
	cmpl	$3, -336(%rbp)
	je	LBB33_9
	jmp	LBB33_8
LBB33_7:
Ltmp292:
	.loc	23 302 5
	movb	$2, -329(%rbp)
Ltmp293:
	.loc	23 302 5
	jmp	LBB33_3
LBB33_8:
	leaq	-336(%rbp), %rax
	movq	%rax, -296(%rbp)
	cmpl	$4, -336(%rbp)
	je	LBB33_11
	jmp	LBB33_10
LBB33_9:
Ltmp294:
	.loc	23 302 5
	movb	$3, -329(%rbp)
Ltmp295:
	.loc	23 302 5
	jmp	LBB33_3
LBB33_10:
	leaq	-336(%rbp), %rax
	movq	%rax, -288(%rbp)
	cmpl	$5, -336(%rbp)
	je	LBB33_13
	jmp	LBB33_12
LBB33_11:
Ltmp296:
	.loc	23 302 5
	movb	$4, -329(%rbp)
Ltmp297:
	.loc	23 302 5
	jmp	LBB33_3
LBB33_12:
	leaq	-336(%rbp), %rax
	movq	%rax, -280(%rbp)
	cmpl	$6, -336(%rbp)
	je	LBB33_15
	jmp	LBB33_14
LBB33_13:
Ltmp298:
	.loc	23 302 5
	movb	$5, -329(%rbp)
Ltmp299:
	.loc	23 302 5
	jmp	LBB33_3
LBB33_14:
	leaq	-336(%rbp), %rax
	movq	%rax, -272(%rbp)
	cmpl	$7, -336(%rbp)
	je	LBB33_17
	jmp	LBB33_16
LBB33_15:
Ltmp300:
	.loc	23 302 5
	movb	$6, -329(%rbp)
Ltmp301:
	.loc	23 302 5
	jmp	LBB33_3
LBB33_16:
	leaq	-336(%rbp), %rax
	movq	%rax, -264(%rbp)
	cmpl	$8, -336(%rbp)
	je	LBB33_19
	jmp	LBB33_18
LBB33_17:
Ltmp302:
	.loc	23 302 5
	movb	$7, -329(%rbp)
Ltmp303:
	.loc	23 302 5
	jmp	LBB33_3
LBB33_18:
	leaq	-336(%rbp), %rax
	movq	%rax, -256(%rbp)
	cmpl	$9, -336(%rbp)
	je	LBB33_21
	jmp	LBB33_20
LBB33_19:
Ltmp304:
	.loc	23 302 5
	movb	$8, -329(%rbp)
Ltmp305:
	.loc	23 302 5
	jmp	LBB33_3
LBB33_20:
	leaq	-336(%rbp), %rax
	movq	%rax, -248(%rbp)
	cmpl	$10, -336(%rbp)
	je	LBB33_23
	jmp	LBB33_22
LBB33_21:
Ltmp306:
	.loc	23 302 5
	movb	$9, -329(%rbp)
Ltmp307:
	.loc	23 302 5
	jmp	LBB33_3
LBB33_22:
	leaq	-336(%rbp), %rax
	movq	%rax, -240(%rbp)
	cmpl	$11, -336(%rbp)
	je	LBB33_25
	jmp	LBB33_24
LBB33_23:
Ltmp308:
	.loc	23 302 5
	movb	$10, -329(%rbp)
Ltmp309:
	.loc	23 302 5
	jmp	LBB33_3
LBB33_24:
	leaq	-336(%rbp), %rax
	movq	%rax, -232(%rbp)
	cmpl	$12, -336(%rbp)
	je	LBB33_27
	jmp	LBB33_26
LBB33_25:
Ltmp310:
	.loc	23 302 5
	movb	$11, -329(%rbp)
Ltmp311:
	.loc	23 302 5
	jmp	LBB33_3
LBB33_26:
	leaq	-336(%rbp), %rax
	movq	%rax, -224(%rbp)
	cmpl	$13, -336(%rbp)
	je	LBB33_29
	jmp	LBB33_28
LBB33_27:
Ltmp312:
	.loc	23 302 5
	movb	$12, -329(%rbp)
Ltmp313:
	.loc	23 302 5
	jmp	LBB33_3
LBB33_28:
	leaq	-336(%rbp), %rax
	movq	%rax, -216(%rbp)
	cmpl	$14, -336(%rbp)
	je	LBB33_31
	jmp	LBB33_30
LBB33_29:
Ltmp314:
	.loc	23 302 5
	movb	$13, -329(%rbp)
Ltmp315:
	.loc	23 302 5
	jmp	LBB33_3
LBB33_30:
	leaq	-336(%rbp), %rax
	movq	%rax, -208(%rbp)
	cmpl	$15, -336(%rbp)
	je	LBB33_33
	jmp	LBB33_32
LBB33_31:
Ltmp316:
	.loc	23 302 5
	movb	$14, -329(%rbp)
Ltmp317:
	.loc	23 302 5
	jmp	LBB33_3
LBB33_32:
	leaq	-336(%rbp), %rax
	movq	%rax, -200(%rbp)
	cmpl	$16, -336(%rbp)
	je	LBB33_35
	jmp	LBB33_34
LBB33_33:
Ltmp318:
	.loc	23 302 5
	movb	$15, -329(%rbp)
Ltmp319:
	.loc	23 302 5
	jmp	LBB33_3
LBB33_34:
	leaq	-336(%rbp), %rax
	movq	%rax, -192(%rbp)
	cmpl	$17, -336(%rbp)
	je	LBB33_37
	jmp	LBB33_36
LBB33_35:
Ltmp320:
	.loc	23 302 5
	movb	$16, -329(%rbp)
Ltmp321:
	.loc	23 302 5
	jmp	LBB33_3
LBB33_36:
	leaq	-336(%rbp), %rax
	movq	%rax, -184(%rbp)
	cmpl	$18, -336(%rbp)
	je	LBB33_39
	jmp	LBB33_38
LBB33_37:
Ltmp322:
	.loc	23 302 5
	movb	$17, -329(%rbp)
Ltmp323:
	.loc	23 302 5
	jmp	LBB33_3
LBB33_38:
	leaq	-336(%rbp), %rax
	movq	%rax, -176(%rbp)
	cmpl	$19, -336(%rbp)
	je	LBB33_41
	jmp	LBB33_40
LBB33_39:
Ltmp324:
	.loc	23 302 5
	movb	$18, -329(%rbp)
Ltmp325:
	.loc	23 302 5
	jmp	LBB33_3
LBB33_40:
	leaq	-336(%rbp), %rax
	movq	%rax, -168(%rbp)
	cmpl	$20, -336(%rbp)
	je	LBB33_43
	jmp	LBB33_42
LBB33_41:
Ltmp326:
	.loc	23 302 5
	movb	$19, -329(%rbp)
Ltmp327:
	.loc	23 302 5
	jmp	LBB33_3
LBB33_42:
	leaq	-336(%rbp), %rax
	movq	%rax, -160(%rbp)
	cmpl	$21, -336(%rbp)
	je	LBB33_45
	jmp	LBB33_44
LBB33_43:
Ltmp328:
	.loc	23 302 5
	movb	$20, -329(%rbp)
Ltmp329:
	.loc	23 302 5
	jmp	LBB33_3
LBB33_44:
	leaq	-336(%rbp), %rax
	movq	%rax, -152(%rbp)
	cmpl	$22, -336(%rbp)
	je	LBB33_47
	jmp	LBB33_46
LBB33_45:
Ltmp330:
	.loc	23 302 5
	movb	$21, -329(%rbp)
Ltmp331:
	.loc	23 302 5
	jmp	LBB33_3
LBB33_46:
	leaq	-336(%rbp), %rax
	movq	%rax, -144(%rbp)
	cmpl	$23, -336(%rbp)
	je	LBB33_49
	jmp	LBB33_48
LBB33_47:
Ltmp332:
	.loc	23 302 5
	movb	$22, -329(%rbp)
Ltmp333:
	.loc	23 302 5
	jmp	LBB33_3
LBB33_48:
	leaq	-336(%rbp), %rax
	movq	%rax, -136(%rbp)
	cmpl	$24, -336(%rbp)
	je	LBB33_51
	jmp	LBB33_50
LBB33_49:
Ltmp334:
	.loc	23 302 5
	movb	$23, -329(%rbp)
Ltmp335:
	.loc	23 302 5
	jmp	LBB33_3
LBB33_50:
	leaq	-336(%rbp), %rax
	movq	%rax, -128(%rbp)
	cmpl	$25, -336(%rbp)
	je	LBB33_53
	jmp	LBB33_52
LBB33_51:
Ltmp336:
	.loc	23 302 5
	movb	$24, -329(%rbp)
Ltmp337:
	.loc	23 302 5
	jmp	LBB33_3
LBB33_52:
	leaq	-336(%rbp), %rax
	movq	%rax, -120(%rbp)
	cmpl	$26, -336(%rbp)
	je	LBB33_55
	jmp	LBB33_54
LBB33_53:
Ltmp338:
	.loc	23 302 5
	movb	$25, -329(%rbp)
Ltmp339:
	.loc	23 302 5
	jmp	LBB33_3
LBB33_54:
	leaq	-336(%rbp), %rax
	movq	%rax, -112(%rbp)
	cmpl	$27, -336(%rbp)
	je	LBB33_57
	jmp	LBB33_56
LBB33_55:
Ltmp340:
	.loc	23 302 5
	movb	$26, -329(%rbp)
Ltmp341:
	.loc	23 302 5
	jmp	LBB33_3
LBB33_56:
	leaq	-336(%rbp), %rax
	movq	%rax, -104(%rbp)
	cmpl	$28, -336(%rbp)
	je	LBB33_59
	jmp	LBB33_58
LBB33_57:
Ltmp342:
	.loc	23 302 5
	movb	$27, -329(%rbp)
Ltmp343:
	.loc	23 302 5
	jmp	LBB33_3
LBB33_58:
	leaq	-336(%rbp), %rax
	movq	%rax, -96(%rbp)
	cmpl	$29, -336(%rbp)
	je	LBB33_61
	jmp	LBB33_60
LBB33_59:
Ltmp344:
	.loc	23 302 5
	movb	$28, -329(%rbp)
Ltmp345:
	.loc	23 302 5
	jmp	LBB33_3
LBB33_60:
	leaq	-336(%rbp), %rax
	movq	%rax, -88(%rbp)
	cmpl	$30, -336(%rbp)
	je	LBB33_63
	jmp	LBB33_62
LBB33_61:
Ltmp346:
	.loc	23 302 5
	movb	$29, -329(%rbp)
Ltmp347:
	.loc	23 302 5
	jmp	LBB33_3
LBB33_62:
	leaq	-336(%rbp), %rax
	movq	%rax, -80(%rbp)
	cmpl	$31, -336(%rbp)
	je	LBB33_65
	jmp	LBB33_64
LBB33_63:
Ltmp348:
	.loc	23 302 5
	movb	$30, -329(%rbp)
Ltmp349:
	.loc	23 302 5
	jmp	LBB33_3
LBB33_64:
	leaq	-336(%rbp), %rax
	movq	%rax, -72(%rbp)
	cmpl	$32, -336(%rbp)
	je	LBB33_67
	jmp	LBB33_66
LBB33_65:
Ltmp350:
	.loc	23 302 5
	movb	$31, -329(%rbp)
Ltmp351:
	.loc	23 302 5
	jmp	LBB33_3
LBB33_66:
	leaq	-336(%rbp), %rax
	movq	%rax, -64(%rbp)
	cmpl	$33, -336(%rbp)
	je	LBB33_69
	jmp	LBB33_68
LBB33_67:
Ltmp352:
	.loc	23 302 5
	movb	$32, -329(%rbp)
Ltmp353:
	.loc	23 302 5
	jmp	LBB33_3
LBB33_68:
	leaq	-336(%rbp), %rax
	movq	%rax, -56(%rbp)
	cmpl	$34, -336(%rbp)
	je	LBB33_71
	jmp	LBB33_70
LBB33_69:
Ltmp354:
	.loc	23 302 5
	movb	$33, -329(%rbp)
Ltmp355:
	.loc	23 302 5
	jmp	LBB33_3
LBB33_70:
	leaq	-336(%rbp), %rax
	movq	%rax, -48(%rbp)
	cmpl	$35, -336(%rbp)
	je	LBB33_73
	jmp	LBB33_72
LBB33_71:
Ltmp356:
	.loc	23 302 5
	movb	$34, -329(%rbp)
Ltmp357:
	.loc	23 302 5
	jmp	LBB33_3
LBB33_72:
	leaq	-336(%rbp), %rax
	movq	%rax, -40(%rbp)
	cmpl	$39, -336(%rbp)
	je	LBB33_75
	jmp	LBB33_74
LBB33_73:
Ltmp358:
	.loc	23 302 5
	movb	$35, -329(%rbp)
Ltmp359:
	.loc	23 302 5
	jmp	LBB33_3
LBB33_74:
	leaq	-336(%rbp), %rax
	movq	%rax, -32(%rbp)
	cmpl	$37, -336(%rbp)
	je	LBB33_77
	jmp	LBB33_76
LBB33_75:
Ltmp360:
	.loc	23 302 5
	movb	$39, -329(%rbp)
Ltmp361:
	.loc	23 302 5
	jmp	LBB33_3
LBB33_76:
	leaq	-336(%rbp), %rax
	movq	%rax, -24(%rbp)
	cmpl	$36, -336(%rbp)
	je	LBB33_79
	jmp	LBB33_78
LBB33_77:
Ltmp362:
	.loc	23 302 5
	movb	$37, -329(%rbp)
Ltmp363:
	.loc	23 302 5
	jmp	LBB33_3
LBB33_78:
	leaq	-336(%rbp), %rax
	movq	%rax, -16(%rbp)
	cmpl	$38, -336(%rbp)
	je	LBB33_81
	jmp	LBB33_80
LBB33_79:
Ltmp364:
	.loc	23 302 5
	movb	$36, -329(%rbp)
Ltmp365:
	.loc	23 302 5
	jmp	LBB33_3
LBB33_80:
	leaq	-336(%rbp), %rax
	movq	%rax, -8(%rbp)
	cmpl	$40, -336(%rbp)
	je	LBB33_83
	jmp	LBB33_82
LBB33_81:
Ltmp366:
	.loc	23 302 5
	movb	$38, -329(%rbp)
Ltmp367:
	.loc	23 302 5
	jmp	LBB33_3
LBB33_82:
	movb	$41, -329(%rbp)
	jmp	LBB33_3
LBB33_83:
Ltmp368:
	.loc	23 302 5
	movb	$40, -329(%rbp)
Ltmp369:
	.loc	23 302 5
	jmp	LBB33_3
Ltmp370:
Lfunc_end33:
	.cfi_endproc

	.globl	__ZN3std3env3var17h293037bd1e0ac5a2E
	.p2align	4, 0x90
__ZN3std3env3var17h293037bd1e0ac5a2E:
Lfunc_begin34:
	.file	24 "/rustc/2c8cc343237b8f7d5a3c3703e3a87f2eb2c54a74/library/std/src" "env.rs"
	.loc	24 227 0 is_stmt 1
	.cfi_startproc
	.cfi_personality 155, _rust_eh_personality
	.cfi_lsda 16, Lexception8
	pushq	%rbp
	.cfi_def_cfa_offset 16
	.cfi_offset %rbp, -16
	movq	%rsp, %rbp
	.cfi_def_cfa_register %rbp
	subq	$64, %rsp
	movq	%rdi, -64(%rbp)
	movq	%rdi, -56(%rbp)
	movq	%rsi, -32(%rbp)
	movq	%rdx, -24(%rbp)
Ltmp371:
	leaq	-32(%rbp), %rdi
Ltmp376:
	.loc	24 228 10 prologue_end
	callq	__ZN55_$LT$$RF$T$u20$as$u20$core..convert..AsRef$LT$U$GT$$GT$6as_ref17hd946b95282309efcE
Ltmp372:
	movq	%rdx, -48(%rbp)
	movq	%rax, -40(%rbp)
	jmp	LBB34_3
LBB34_1:
	.loc	24 227 1
	movq	-16(%rbp), %rdi
	callq	__Unwind_Resume
LBB34_2:
Ltmp375:
	.loc	24 0 1 is_stmt 0
	movq	%rax, %rcx
	movl	%edx, %eax
	movq	%rcx, -16(%rbp)
	movl	%eax, -8(%rbp)
	jmp	LBB34_1
LBB34_3:
Ltmp373:
	movq	-48(%rbp), %rdx
	movq	-40(%rbp), %rsi
	movq	-64(%rbp), %rdi
	.loc	24 228 5 is_stmt 1
	callq	__ZN3std3env4_var17h3981769605209d03E
Ltmp374:
	jmp	LBB34_4
LBB34_4:
	.loc	24 0 5 is_stmt 0
	movq	-56(%rbp), %rax
	.loc	24 229 2 is_stmt 1
	addq	$64, %rsp
	popq	%rbp
	retq
Ltmp377:
Lfunc_end34:
	.cfi_endproc
	.section	__TEXT,__gcc_except_tab
	.p2align	2
GCC_except_table34:
Lexception8:
	.byte	255
	.byte	255
	.byte	1
	.uleb128 Lcst_end8-Lcst_begin8
Lcst_begin8:
	.uleb128 Ltmp371-Lfunc_begin34
	.uleb128 Ltmp372-Ltmp371
	.uleb128 Ltmp375-Lfunc_begin34
	.byte	0
	.uleb128 Ltmp372-Lfunc_begin34
	.uleb128 Ltmp373-Ltmp372
	.byte	0
	.byte	0
	.uleb128 Ltmp373-Lfunc_begin34
	.uleb128 Ltmp374-Ltmp373
	.uleb128 Ltmp375-Lfunc_begin34
	.byte	0
Lcst_end8:
	.p2align	2

	.section	__TEXT,__text,regular,pure_instructions
	.globl	__ZN3std3env6var_os17h16084cec0b00d237E
	.p2align	4, 0x90
__ZN3std3env6var_os17h16084cec0b00d237E:
Lfunc_begin35:
	.loc	24 268 0
	.cfi_startproc
	.cfi_personality 155, _rust_eh_personality
	.cfi_lsda 16, Lexception9
	pushq	%rbp
	.cfi_def_cfa_offset 16
	.cfi_offset %rbp, -16
	movq	%rsp, %rbp
	.cfi_def_cfa_register %rbp
	subq	$64, %rsp
	movq	%rdi, -64(%rbp)
	movq	%rdi, -56(%rbp)
	movq	%rsi, -32(%rbp)
	movq	%rdx, -24(%rbp)
Ltmp378:
	leaq	-32(%rbp), %rdi
Ltmp383:
	.loc	24 269 13 prologue_end
	callq	__ZN55_$LT$$RF$T$u20$as$u20$core..convert..AsRef$LT$U$GT$$GT$6as_ref17hd946b95282309efcE
Ltmp379:
	movq	%rdx, -48(%rbp)
	movq	%rax, -40(%rbp)
	jmp	LBB35_3
LBB35_1:
	.loc	24 268 1
	movq	-16(%rbp), %rdi
	callq	__Unwind_Resume
LBB35_2:
Ltmp382:
	.loc	24 0 1 is_stmt 0
	movq	%rax, %rcx
	movl	%edx, %eax
	movq	%rcx, -16(%rbp)
	movl	%eax, -8(%rbp)
	jmp	LBB35_1
LBB35_3:
Ltmp380:
	movq	-48(%rbp), %rdx
	movq	-40(%rbp), %rsi
	movq	-64(%rbp), %rdi
	.loc	24 269 5 is_stmt 1
	callq	__ZN3std3env7_var_os17h71e71f6d7accb7a3E
Ltmp381:
	jmp	LBB35_4
LBB35_4:
	.loc	24 0 5 is_stmt 0
	movq	-56(%rbp), %rax
	.loc	24 270 2 is_stmt 1
	addq	$64, %rsp
	popq	%rbp
	retq
Ltmp384:
Lfunc_end35:
	.cfi_endproc
	.section	__TEXT,__gcc_except_tab
	.p2align	2
GCC_except_table35:
Lexception9:
	.byte	255
	.byte	255
	.byte	1
	.uleb128 Lcst_end9-Lcst_begin9
Lcst_begin9:
	.uleb128 Ltmp378-Lfunc_begin35
	.uleb128 Ltmp379-Ltmp378
	.uleb128 Ltmp382-Lfunc_begin35
	.byte	0
	.uleb128 Ltmp379-Lfunc_begin35
	.uleb128 Ltmp380-Ltmp379
	.byte	0
	.byte	0
	.uleb128 Ltmp380-Lfunc_begin35
	.uleb128 Ltmp381-Ltmp380
	.uleb128 Ltmp382-Lfunc_begin35
	.byte	0
Lcst_end9:
	.p2align	2

	.section	__TEXT,__text,regular,pure_instructions
	.p2align	4, 0x90
__ZN3std3ffi6os_str103_$LT$impl$u20$core..convert..AsRef$LT$std..ffi..os_str..OsStr$GT$$u20$for$u20$alloc..string..String$GT$6as_ref17hbd416f82aaabe851E:
Lfunc_begin36:
	.file	25 "/rustc/2c8cc343237b8f7d5a3c3703e3a87f2eb2c54a74/library/std/src/ffi" "os_str.rs"
	.loc	25 1329 0
	.cfi_startproc
	pushq	%rbp
	.cfi_def_cfa_offset 16
	.cfi_offset %rbp, -16
	movq	%rsp, %rbp
	.cfi_def_cfa_register %rbp
	subq	$160, %rsp
	movq	%rdi, -160(%rbp)
Ltmp385:
	.loc	25 1330 12 prologue_end
	movq	%rdi, -152(%rbp)
Ltmp386:
	.file	26 "/rustc/2c8cc343237b8f7d5a3c3703e3a87f2eb2c54a74/library/alloc/src" "string.rs"
	.loc	26 2460 43
	callq	__ZN72_$LT$alloc..vec..Vec$LT$T$C$A$GT$$u20$as$u20$core..ops..deref..Deref$GT$5deref17ha449fe6a60ead7adE
	movq	%rax, -144(%rbp)
	movq	%rdx, -136(%rbp)
Ltmp387:
	.file	27 "/rustc/2c8cc343237b8f7d5a3c3703e3a87f2eb2c54a74/library/core/src/str" "converts.rs"
	.loc	27 173 14
	movq	%rax, -128(%rbp)
	movq	%rdx, -120(%rbp)
	movq	-128(%rbp), %rcx
	movq	-120(%rbp), %rax
Ltmp388:
	.loc	25 1330 9
	movq	%rcx, -112(%rbp)
	movq	%rax, -104(%rbp)
Ltmp389:
	.loc	25 1322 43
	movq	%rcx, -96(%rbp)
	movq	%rax, -88(%rbp)
Ltmp390:
	.file	28 "/rustc/2c8cc343237b8f7d5a3c3703e3a87f2eb2c54a74/library/std/src/sys/unix" "os_str.rs"
	.loc	28 201 30
	movq	%rcx, -80(%rbp)
	movq	%rax, -72(%rbp)
Ltmp391:
	.file	29 "/rustc/2c8cc343237b8f7d5a3c3703e3a87f2eb2c54a74/library/core/src/str" "mod.rs"
	.loc	29 327 18
	movq	%rcx, -64(%rbp)
	movq	%rax, -56(%rbp)
	movq	-64(%rbp), %rcx
	movq	-56(%rbp), %rax
Ltmp392:
	.loc	28 201 30
	movq	%rcx, -48(%rbp)
	movq	%rax, -40(%rbp)
Ltmp393:
	.loc	28 196 18
	movq	%rcx, -32(%rbp)
	movq	%rax, -24(%rbp)
	movq	-32(%rbp), %rax
	movq	-24(%rbp), %rdx
Ltmp394:
	.loc	25 1322 27
	movq	%rax, -16(%rbp)
	movq	%rdx, -8(%rbp)
Ltmp395:
	.loc	25 1331 6
	addq	$160, %rsp
	popq	%rbp
	retq
Ltmp396:
Lfunc_end36:
	.cfi_endproc

	.p2align	4, 0x90
__ZN3std3ffi6os_str5OsStr15to_string_lossy17h99e7d88f22e03f73E:
Lfunc_begin37:
	.loc	25 756 0
	.cfi_startproc
	pushq	%rbp
	.cfi_def_cfa_offset 16
	.cfi_offset %rbp, -16
	movq	%rsp, %rbp
	.cfi_def_cfa_register %rbp
	subq	$32, %rsp
	movq	%rdi, %rax
	movq	%rax, -24(%rbp)
	movq	%rsi, -16(%rbp)
	movq	%rdx, -8(%rbp)
Ltmp397:
	.loc	25 757 9 prologue_end
	callq	__ZN3std3sys4unix6os_str5Slice15to_string_lossy17hce095e5679c73c7eE
	movq	-24(%rbp), %rax
	.loc	25 758 6
	addq	$32, %rsp
	popq	%rbp
	retq
Ltmp398:
Lfunc_end37:
	.cfi_endproc

	.p2align	4, 0x90
__ZN3std3ffi6os_str85_$LT$impl$u20$core..convert..AsRef$LT$std..ffi..os_str..OsStr$GT$$u20$for$u20$str$GT$6as_ref17hdf8d2af78e2c3481E:
Lfunc_begin38:
	.loc	25 1321 0
	.cfi_startproc
	pushq	%rbp
	.cfi_def_cfa_offset 16
	.cfi_offset %rbp, -16
	movq	%rsp, %rbp
	.cfi_def_cfa_register %rbp
	subq	$112, %rsp
	movq	%rdi, -112(%rbp)
	movq	%rsi, -104(%rbp)
Ltmp399:
	.loc	25 1322 43 prologue_end
	movq	%rdi, -96(%rbp)
	movq	%rsi, -88(%rbp)
Ltmp400:
	.loc	28 201 30
	movq	%rdi, -80(%rbp)
	movq	%rsi, -72(%rbp)
Ltmp401:
	.loc	29 327 18
	movq	%rdi, -64(%rbp)
	movq	%rsi, -56(%rbp)
	movq	-64(%rbp), %rcx
	movq	-56(%rbp), %rax
Ltmp402:
	.loc	28 201 30
	movq	%rcx, -48(%rbp)
	movq	%rax, -40(%rbp)
Ltmp403:
	.loc	28 196 18
	movq	%rcx, -32(%rbp)
	movq	%rax, -24(%rbp)
	movq	-32(%rbp), %rax
	movq	-24(%rbp), %rdx
Ltmp404:
	.loc	25 1322 27
	movq	%rax, -16(%rbp)
	movq	%rdx, -8(%rbp)
	.loc	25 1323 6
	addq	$112, %rsp
	popq	%rbp
	retq
Ltmp405:
Lfunc_end38:
	.cfi_endproc

	.globl	__ZN3std7process7Command3arg17h5c9422cf582e5c3eE
	.p2align	4, 0x90
__ZN3std7process7Command3arg17h5c9422cf582e5c3eE:
Lfunc_begin39:
	.file	30 "/rustc/2c8cc343237b8f7d5a3c3703e3a87f2eb2c54a74/library/std/src" "process.rs"
	.loc	30 607 0
	.cfi_startproc
	.cfi_personality 155, _rust_eh_personality
	.cfi_lsda 16, Lexception10
	pushq	%rbp
	.cfi_def_cfa_offset 16
	.cfi_offset %rbp, -16
	movq	%rsp, %rbp
	.cfi_def_cfa_register %rbp
	subq	$64, %rsp
	movq	%rdi, -64(%rbp)
	movq	%rsi, -40(%rbp)
	movq	%rdx, -32(%rbp)
	movq	%rdi, -24(%rbp)
Ltmp406:
	leaq	-40(%rbp), %rdi
Ltmp411:
	.loc	30 608 24 prologue_end
	callq	__ZN55_$LT$$RF$T$u20$as$u20$core..convert..AsRef$LT$U$GT$$GT$6as_ref17hd946b95282309efcE
Ltmp407:
	movq	%rdx, -56(%rbp)
	movq	%rax, -48(%rbp)
	jmp	LBB39_3
LBB39_1:
	.loc	30 607 5
	movq	-16(%rbp), %rdi
	callq	__Unwind_Resume
LBB39_2:
Ltmp410:
	.loc	30 0 5 is_stmt 0
	movq	%rax, %rcx
	movl	%edx, %eax
	movq	%rcx, -16(%rbp)
	movl	%eax, -8(%rbp)
	jmp	LBB39_1
LBB39_3:
Ltmp408:
	movq	-56(%rbp), %rdx
	movq	-48(%rbp), %rsi
	movq	-64(%rbp), %rdi
	.loc	30 608 9 is_stmt 1
	callq	__ZN3std3sys4unix7process14process_common7Command3arg17hdfe06f44e19d0682E
Ltmp409:
	jmp	LBB39_4
LBB39_4:
	.loc	30 0 9 is_stmt 0
	movq	-64(%rbp), %rax
	.loc	30 610 6 is_stmt 1
	addq	$64, %rsp
	popq	%rbp
	retq
Ltmp412:
Lfunc_end39:
	.cfi_endproc
	.section	__TEXT,__gcc_except_tab
	.p2align	2
GCC_except_table39:
Lexception10:
	.byte	255
	.byte	255
	.byte	1
	.uleb128 Lcst_end10-Lcst_begin10
Lcst_begin10:
	.uleb128 Ltmp406-Lfunc_begin39
	.uleb128 Ltmp407-Ltmp406
	.uleb128 Ltmp410-Lfunc_begin39
	.byte	0
	.uleb128 Ltmp407-Lfunc_begin39
	.uleb128 Ltmp408-Ltmp407
	.byte	0
	.byte	0
	.uleb128 Ltmp408-Lfunc_begin39
	.uleb128 Ltmp409-Ltmp408
	.uleb128 Ltmp410-Lfunc_begin39
	.byte	0
Lcst_end10:
	.p2align	2

	.section	__TEXT,__text,regular,pure_instructions
	.globl	__ZN3std7process7Command3new17h59e742c5f27cdfe0E
	.p2align	4, 0x90
__ZN3std7process7Command3new17h59e742c5f27cdfe0E:
Lfunc_begin40:
	.loc	30 561 0
	.cfi_startproc
	.cfi_personality 155, _rust_eh_personality
	.cfi_lsda 16, Lexception11
	pushq	%rbp
	.cfi_def_cfa_offset 16
	.cfi_offset %rbp, -16
	movq	%rsp, %rbp
	.cfi_def_cfa_register %rbp
	subq	$272, %rsp
	movq	%rsi, -264(%rbp)
Ltmp421:
	movq	%rdi, %rax
	movq	-264(%rbp), %rdi
	movq	%rax, -256(%rbp)
	movq	%rax, -248(%rbp)
Ltmp413:
Ltmp422:
	.loc	30 562 44 prologue_end
	callq	__ZN3std3ffi6os_str103_$LT$impl$u20$core..convert..AsRef$LT$std..ffi..os_str..OsStr$GT$$u20$for$u20$alloc..string..String$GT$6as_ref17hbd416f82aaabe851E
Ltmp414:
	movq	%rdx, -240(%rbp)
	movq	%rax, -232(%rbp)
	jmp	LBB40_3
Ltmp423:
LBB40_1:
Ltmp418:
	.loc	30 0 44 is_stmt 0
	movq	-264(%rbp), %rdi
	.loc	30 563 5 is_stmt 1
	callq	__ZN4core3ptr42drop_in_place$LT$alloc..string..String$GT$17h884379d4d73bd137E
Ltmp419:
	jmp	LBB40_6
Ltmp424:
LBB40_2:
Ltmp417:
	.loc	30 0 5 is_stmt 0
	movq	%rax, %rcx
	movl	%edx, %eax
	movq	%rcx, -16(%rbp)
	movl	%eax, -8(%rbp)
	jmp	LBB40_1
Ltmp425:
LBB40_3:
Ltmp415:
	movq	-240(%rbp), %rdx
	movq	-232(%rbp), %rsi
	leaq	-224(%rbp), %rdi
	.loc	30 562 26 is_stmt 1
	callq	__ZN3std3sys4unix7process14process_common7Command3new17hbc75e5b02e009ba8E
Ltmp416:
	jmp	LBB40_4
Ltmp426:
LBB40_4:
	.loc	30 0 26 is_stmt 0
	movq	-256(%rbp), %rdi
	.loc	30 562 9
	leaq	-224(%rbp), %rsi
	movl	$208, %edx
	callq	_memcpy
	movq	-264(%rbp), %rdi
	.loc	30 563 5 is_stmt 1
	callq	__ZN4core3ptr42drop_in_place$LT$alloc..string..String$GT$17h884379d4d73bd137E
	movq	-248(%rbp), %rax
	.loc	30 563 6 is_stmt 0
	addq	$272, %rsp
	popq	%rbp
	retq
Ltmp427:
LBB40_5:
Ltmp420:
	.loc	30 561 5 is_stmt 1
	callq	__ZN4core9panicking19panic_cannot_unwind17h1fbca7e1d7f56ae1E
Ltmp428:
LBB40_6:
	movq	-16(%rbp), %rdi
	callq	__Unwind_Resume
Ltmp429:
Lfunc_end40:
	.cfi_endproc
	.section	__TEXT,__gcc_except_tab
	.p2align	2
GCC_except_table40:
Lexception11:
	.byte	255
	.byte	255
	.byte	1
	.uleb128 Lcst_end11-Lcst_begin11
Lcst_begin11:
	.uleb128 Ltmp413-Lfunc_begin40
	.uleb128 Ltmp414-Ltmp413
	.uleb128 Ltmp417-Lfunc_begin40
	.byte	0
	.uleb128 Ltmp418-Lfunc_begin40
	.uleb128 Ltmp419-Ltmp418
	.uleb128 Ltmp420-Lfunc_begin40
	.byte	0
	.uleb128 Ltmp415-Lfunc_begin40
	.uleb128 Ltmp416-Ltmp415
	.uleb128 Ltmp417-Lfunc_begin40
	.byte	0
	.uleb128 Ltmp416-Lfunc_begin40
	.uleb128 Lfunc_end40-Ltmp416
	.byte	0
	.byte	0
Lcst_end11:
	.p2align	2

	.section	__TEXT,__text,regular,pure_instructions
	.globl	__ZN42_$LT$$RF$T$u20$as$u20$core..fmt..Debug$GT$3fmt17h1644818c3f389ac2E
	.p2align	4, 0x90
__ZN42_$LT$$RF$T$u20$as$u20$core..fmt..Debug$GT$3fmt17h1644818c3f389ac2E:
Lfunc_begin41:
	.file	31 "/rustc/2c8cc343237b8f7d5a3c3703e3a87f2eb2c54a74/library/core/src/fmt" "mod.rs"
	.loc	31 2377 0
	.cfi_startproc
	pushq	%rbp
	.cfi_def_cfa_offset 16
	.cfi_offset %rbp, -16
	movq	%rsp, %rbp
	.cfi_def_cfa_register %rbp
	subq	$16, %rsp
	movq	%rdi, -16(%rbp)
	movq	%rsi, -8(%rbp)
Ltmp430:
	.loc	31 2377 71 prologue_end
	movq	(%rdi), %rdi
	.loc	31 2377 62 is_stmt 0
	callq	__ZN4core3fmt3num50_$LT$impl$u20$core..fmt..Debug$u20$for$u20$u16$GT$3fmt17h45826596def35b20E
	.loc	31 2377 84
	andb	$1, %al
	movzbl	%al, %eax
	addq	$16, %rsp
	popq	%rbp
	retq
Ltmp431:
Lfunc_end41:
	.cfi_endproc

	.globl	__ZN42_$LT$$RF$T$u20$as$u20$core..fmt..Debug$GT$3fmt17h4b715e85eb704c56E
	.p2align	4, 0x90
__ZN42_$LT$$RF$T$u20$as$u20$core..fmt..Debug$GT$3fmt17h4b715e85eb704c56E:
Lfunc_begin42:
	.loc	31 2377 0 is_stmt 1
	.cfi_startproc
	pushq	%rbp
	.cfi_def_cfa_offset 16
	.cfi_offset %rbp, -16
	movq	%rsp, %rbp
	.cfi_def_cfa_register %rbp
	subq	$16, %rsp
	movq	%rdi, -16(%rbp)
	movq	%rsi, -8(%rbp)
Ltmp432:
	.loc	31 2377 71 prologue_end
	movq	(%rdi), %rdi
	.loc	31 2377 62 is_stmt 0
	callq	__ZN65_$LT$version_check..channel..Kind$u20$as$u20$core..fmt..Debug$GT$3fmt17h4a2358c26b758afcE
	.loc	31 2377 84
	andb	$1, %al
	movzbl	%al, %eax
	addq	$16, %rsp
	popq	%rbp
	retq
Ltmp433:
Lfunc_end42:
	.cfi_endproc

	.globl	__ZN42_$LT$$RF$T$u20$as$u20$core..fmt..Debug$GT$3fmt17hf311692753095c19E
	.p2align	4, 0x90
__ZN42_$LT$$RF$T$u20$as$u20$core..fmt..Debug$GT$3fmt17hf311692753095c19E:
Lfunc_begin43:
	.loc	31 2377 0 is_stmt 1
	.cfi_startproc
	pushq	%rbp
	.cfi_def_cfa_offset 16
	.cfi_offset %rbp, -16
	movq	%rsp, %rbp
	.cfi_def_cfa_register %rbp
	subq	$16, %rsp
	movq	%rdi, -16(%rbp)
	movq	%rsi, -8(%rbp)
Ltmp434:
	.loc	31 2377 71 prologue_end
	movq	(%rdi), %rdi
	.loc	31 2377 62 is_stmt 0
	callq	__ZN4core3fmt3num50_$LT$impl$u20$core..fmt..Debug$u20$for$u20$u32$GT$3fmt17hdb90388aa809c369E
	.loc	31 2377 84
	andb	$1, %al
	movzbl	%al, %eax
	addq	$16, %rsp
	popq	%rbp
	retq
Ltmp435:
Lfunc_end43:
	.cfi_endproc

	.globl	__ZN44_$LT$$RF$T$u20$as$u20$core..fmt..Display$GT$3fmt17hc9fd7f1a5b049d87E
	.p2align	4, 0x90
__ZN44_$LT$$RF$T$u20$as$u20$core..fmt..Display$GT$3fmt17hc9fd7f1a5b049d87E:
Lfunc_begin44:
	.loc	31 2377 0 is_stmt 1
	.cfi_startproc
	pushq	%rbp
	.cfi_def_cfa_offset 16
	.cfi_offset %rbp, -16
	movq	%rsp, %rbp
	.cfi_def_cfa_register %rbp
	subq	$16, %rsp
	movq	%rsi, %rdx
	movq	%rdi, %rax
	movq	%rax, -16(%rbp)
	movq	%rdx, -8(%rbp)
Ltmp436:
	.loc	31 2377 71 prologue_end
	movq	(%rax), %rdi
	movq	8(%rax), %rsi
	.loc	31 2377 62 is_stmt 0
	callq	__ZN42_$LT$str$u20$as$u20$core..fmt..Display$GT$3fmt17hd1cabce055ea2fbdE
	.loc	31 2377 84
	andb	$1, %al
	movzbl	%al, %eax
	addq	$16, %rsp
	popq	%rbp
	retq
Ltmp437:
Lfunc_end44:
	.cfi_endproc

	.p2align	4, 0x90
__ZN47_$LT$str$u20$as$u20$alloc..string..ToString$GT$9to_string17h4d9fbba672dc7a58E:
Lfunc_begin45:
	.loc	26 2607 0 is_stmt 1
	.cfi_startproc
	pushq	%rbp
	.cfi_def_cfa_offset 16
	.cfi_offset %rbp, -16
	movq	%rsp, %rbp
	.cfi_def_cfa_register %rbp
	subq	$144, %rsp
	movq	%rdi, -144(%rbp)
	movq	%rdi, -136(%rbp)
	movq	%rsi, -80(%rbp)
	movq	%rdx, -72(%rbp)
Ltmp438:
	.loc	26 2608 22 prologue_end
	movq	%rsi, -64(%rbp)
	movq	%rdx, -56(%rbp)
Ltmp439:
	.loc	26 2662 9
	movq	%rsi, -48(%rbp)
	movq	%rdx, -40(%rbp)
Ltmp440:
	.file	32 "/rustc/2c8cc343237b8f7d5a3c3703e3a87f2eb2c54a74/library/alloc/src" "str.rs"
	.loc	32 209 46
	movq	%rsi, -32(%rbp)
	movq	%rdx, -24(%rbp)
Ltmp441:
	.loc	29 327 18
	movq	%rsi, -16(%rbp)
	movq	%rdx, -8(%rbp)
	movq	-16(%rbp), %rsi
	movq	-8(%rbp), %rdx
Ltmp442:
	.loc	32 209 46
	leaq	-128(%rbp), %rdi
	callq	__ZN5alloc5slice64_$LT$impl$u20$alloc..borrow..ToOwned$u20$for$u20$$u5b$T$u5d$$GT$8to_owned17h03394aef8a01ac82E
	movq	-144(%rbp), %rdi
	movq	-136(%rbp), %rax
Ltmp443:
	.loc	26 846 23
	movq	-128(%rbp), %rcx
	movq	%rcx, -104(%rbp)
	movq	-120(%rbp), %rcx
	movq	%rcx, -96(%rbp)
	movq	-112(%rbp), %rcx
	movq	%rcx, -88(%rbp)
	.loc	26 846 9 is_stmt 0
	movq	-104(%rbp), %rcx
	movq	%rcx, (%rdi)
	movq	-96(%rbp), %rcx
	movq	%rcx, 8(%rdi)
	movq	-88(%rbp), %rcx
	movq	%rcx, 16(%rdi)
Ltmp444:
	.loc	26 2609 6 is_stmt 1
	addq	$144, %rsp
	popq	%rbp
	retq
Ltmp445:
Lfunc_end45:
	.cfi_endproc

	.globl	__ZN49_$LT$F$u20$as$u20$core..str..pattern..Pattern$GT$13into_searcher17h60b114cbb6bebb61E
	.p2align	4, 0x90
__ZN49_$LT$F$u20$as$u20$core..str..pattern..Pattern$GT$13into_searcher17h60b114cbb6bebb61E:
Lfunc_begin46:
	.loc	5 705 0
	.cfi_startproc
	pushq	%rbp
	.cfi_def_cfa_offset 16
	.cfi_offset %rbp, -16
	movq	%rsp, %rbp
	.cfi_def_cfa_register %rbp
	subq	$96, %rsp
	movq	%rdi, -88(%rbp)
	movq	%rdi, -80(%rbp)
	movq	%rsi, -16(%rbp)
	movq	%rdx, -8(%rbp)
Ltmp446:
	.loc	5 706 21 prologue_end
	leaq	-72(%rbp), %rdi
	callq	__ZN95_$LT$core..str..pattern..MultiCharEqPattern$LT$C$GT$$u20$as$u20$core..str..pattern..Pattern$GT$13into_searcher17hd9ffab4e3793e2e7E
	movq	-88(%rbp), %rdi
	.loc	5 706 13 is_stmt 0
	leaq	-72(%rbp), %rsi
	movl	$40, %edx
	callq	_memcpy
	movq	-80(%rbp), %rax
	.loc	5 707 10 is_stmt 1
	addq	$96, %rsp
	popq	%rbp
	retq
Ltmp447:
Lfunc_end46:
	.cfi_endproc

	.globl	__ZN49_$LT$F$u20$as$u20$core..str..pattern..Pattern$GT$13into_searcher17h8bebae70cac86e87E
	.p2align	4, 0x90
__ZN49_$LT$F$u20$as$u20$core..str..pattern..Pattern$GT$13into_searcher17h8bebae70cac86e87E:
Lfunc_begin47:
	.loc	5 705 0
	.cfi_startproc
	pushq	%rbp
	.cfi_def_cfa_offset 16
	.cfi_offset %rbp, -16
	movq	%rsp, %rbp
	.cfi_def_cfa_register %rbp
	subq	$96, %rsp
	movq	%rdi, -88(%rbp)
	movq	%rdi, -80(%rbp)
	movq	%rsi, -16(%rbp)
	movq	%rdx, -8(%rbp)
Ltmp448:
	.loc	5 706 21 prologue_end
	leaq	-72(%rbp), %rdi
	callq	__ZN95_$LT$core..str..pattern..MultiCharEqPattern$LT$C$GT$$u20$as$u20$core..str..pattern..Pattern$GT$13into_searcher17hb7b2741ef4de02bfE
	movq	-88(%rbp), %rdi
	.loc	5 706 13 is_stmt 0
	leaq	-72(%rbp), %rsi
	movl	$40, %edx
	callq	_memcpy
	movq	-80(%rbp), %rax
	.loc	5 707 10 is_stmt 1
	addq	$96, %rsp
	popq	%rbp
	retq
Ltmp449:
Lfunc_end47:
	.cfi_endproc

	.globl	__ZN49_$LT$F$u20$as$u20$core..str..pattern..Pattern$GT$13into_searcher17h901eae8a4de30fabE
	.p2align	4, 0x90
__ZN49_$LT$F$u20$as$u20$core..str..pattern..Pattern$GT$13into_searcher17h901eae8a4de30fabE:
Lfunc_begin48:
	.loc	5 705 0
	.cfi_startproc
	pushq	%rbp
	.cfi_def_cfa_offset 16
	.cfi_offset %rbp, -16
	movq	%rsp, %rbp
	.cfi_def_cfa_register %rbp
	subq	$96, %rsp
	movq	%rdi, -88(%rbp)
	movq	%rdi, -80(%rbp)
	movq	%rsi, -16(%rbp)
	movq	%rdx, -8(%rbp)
Ltmp450:
	.loc	5 706 21 prologue_end
	leaq	-72(%rbp), %rdi
	callq	__ZN95_$LT$core..str..pattern..MultiCharEqPattern$LT$C$GT$$u20$as$u20$core..str..pattern..Pattern$GT$13into_searcher17h4cc5b898a30b7c72E
	movq	-88(%rbp), %rdi
	.loc	5 706 13 is_stmt 0
	leaq	-72(%rbp), %rsi
	movl	$40, %edx
	callq	_memcpy
	movq	-80(%rbp), %rax
	.loc	5 707 10 is_stmt 1
	addq	$96, %rsp
	popq	%rbp
	retq
Ltmp451:
Lfunc_end48:
	.cfi_endproc

	.p2align	4, 0x90
__ZN49_$LT$usize$u20$as$u20$core..iter..range..Step$GT$17forward_unchecked17h01d7ed8fda259c79E:
Lfunc_begin49:
	.file	33 "/rustc/2c8cc343237b8f7d5a3c3703e3a87f2eb2c54a74/library/core/src/iter" "range.rs"
	.loc	33 189 0
	.cfi_startproc
	pushq	%rbp
	.cfi_def_cfa_offset 16
	.cfi_offset %rbp, -16
	movq	%rsp, %rbp
	.cfi_def_cfa_register %rbp
	subq	$40, %rsp
	movq	%rdi, -40(%rbp)
	movq	%rsi, -32(%rbp)
Ltmp452:
	.loc	33 191 22 prologue_end
	movq	%rdi, -24(%rbp)
	.loc	33 191 42 is_stmt 0
	movq	%rsi, -16(%rbp)
Ltmp453:
	.file	34 "/rustc/2c8cc343237b8f7d5a3c3703e3a87f2eb2c54a74/library/core/src/num" "uint_macros.rs"
	.loc	34 470 22 is_stmt 1
	addq	%rsi, %rdi
	movq	%rdi, -8(%rbp)
	movq	-8(%rbp), %rax
Ltmp454:
	.loc	33 192 10
	addq	$40, %rsp
	popq	%rbp
	retq
Ltmp455:
Lfunc_end49:
	.cfi_endproc

	.p2align	4, 0x90
__ZN49_$LT$usize$u20$as$u20$core..iter..range..Step$GT$18backward_unchecked17ha64eea6ab925a1ffE:
Lfunc_begin50:
	.loc	33 195 0
	.cfi_startproc
	pushq	%rbp
	.cfi_def_cfa_offset 16
	.cfi_offset %rbp, -16
	movq	%rsp, %rbp
	.cfi_def_cfa_register %rbp
	subq	$40, %rsp
	movq	%rdi, -40(%rbp)
	movq	%rsi, -32(%rbp)
Ltmp456:
	.loc	33 197 22 prologue_end
	movq	%rdi, -24(%rbp)
	.loc	33 197 42 is_stmt 0
	movq	%rsi, -16(%rbp)
Ltmp457:
	.loc	34 539 22 is_stmt 1
	subq	%rsi, %rdi
	movq	%rdi, -8(%rbp)
	movq	-8(%rbp), %rax
Ltmp458:
	.loc	33 198 10
	addq	$40, %rsp
	popq	%rbp
	retq
Ltmp459:
Lfunc_end50:
	.cfi_endproc

	.globl	__ZN4core3cmp10PartialOrd2ge17h891512daad68a31cE
	.p2align	4, 0x90
__ZN4core3cmp10PartialOrd2ge17h891512daad68a31cE:
Lfunc_begin51:
	.loc	16 1152 0
	.cfi_startproc
	pushq	%rbp
	.cfi_def_cfa_offset 16
	.cfi_offset %rbp, -16
	movq	%rsp, %rbp
	.cfi_def_cfa_register %rbp
	subq	$32, %rsp
	movq	%rdi, -16(%rbp)
	movq	%rsi, -8(%rbp)
Ltmp460:
	.loc	16 1153 18 prologue_end
	callq	__ZN73_$LT$version_check..version..Version$u20$as$u20$core..cmp..PartialOrd$GT$11partial_cmp17h09a60d9364162c5aE
	movb	%al, -17(%rbp)
	movl	$1, %eax
	xorl	%ecx, %ecx
	cmpb	$2, -17(%rbp)
	cmoveq	%rcx, %rax
	.loc	16 1153 9 is_stmt 0
	cmpq	$1, %rax
	jne	LBB51_2
	.loc	16 1153 18
	movb	-17(%rbp), %al
	.loc	16 1153 9
	subb	$2, %al
	jb	LBB51_3
	jmp	LBB51_2
LBB51_2:
	movb	$0, -18(%rbp)
	jmp	LBB51_4
LBB51_3:
	movb	$1, -18(%rbp)
LBB51_4:
	.loc	16 1154 6 is_stmt 1
	movb	-18(%rbp), %al
	andb	$1, %al
	movzbl	%al, %eax
	addq	$32, %rsp
	popq	%rbp
	retq
Ltmp461:
Lfunc_end51:
	.cfi_endproc

	.globl	__ZN4core3cmp10PartialOrd2ge17hcf094fdb3c5a651fE
	.p2align	4, 0x90
__ZN4core3cmp10PartialOrd2ge17hcf094fdb3c5a651fE:
Lfunc_begin52:
	.loc	16 1152 0
	.cfi_startproc
	pushq	%rbp
	.cfi_def_cfa_offset 16
	.cfi_offset %rbp, -16
	movq	%rsp, %rbp
	.cfi_def_cfa_register %rbp
	subq	$32, %rsp
	movq	%rdi, -16(%rbp)
	movq	%rsi, -8(%rbp)
Ltmp462:
	.loc	16 1153 18 prologue_end
	callq	__ZN67_$LT$version_check..date..Date$u20$as$u20$core..cmp..PartialOrd$GT$11partial_cmp17h28f8b379bec4bf3dE
	movb	%al, -17(%rbp)
	movl	$1, %eax
	xorl	%ecx, %ecx
	cmpb	$2, -17(%rbp)
	cmoveq	%rcx, %rax
	.loc	16 1153 9 is_stmt 0
	cmpq	$1, %rax
	jne	LBB52_2
	.loc	16 1153 18
	movb	-17(%rbp), %al
	.loc	16 1153 9
	subb	$2, %al
	jb	LBB52_3
	jmp	LBB52_2
LBB52_2:
	movb	$0, -18(%rbp)
	jmp	LBB52_4
LBB52_3:
	movb	$1, -18(%rbp)
LBB52_4:
	.loc	16 1154 6 is_stmt 1
	movb	-18(%rbp), %al
	andb	$1, %al
	movzbl	%al, %eax
	addq	$32, %rsp
	popq	%rbp
	retq
Ltmp463:
Lfunc_end52:
	.cfi_endproc

	.globl	__ZN4core3cmp10PartialOrd2le17h3a3ab805bdb2dad4E
	.p2align	4, 0x90
__ZN4core3cmp10PartialOrd2le17h3a3ab805bdb2dad4E:
Lfunc_begin53:
	.loc	16 1115 0
	.cfi_startproc
	pushq	%rbp
	.cfi_def_cfa_offset 16
	.cfi_offset %rbp, -16
	movq	%rsp, %rbp
	.cfi_def_cfa_register %rbp
	subq	$32, %rsp
	movq	%rdi, -16(%rbp)
	movq	%rsi, -8(%rbp)
Ltmp464:
	.loc	16 1116 18 prologue_end
	callq	__ZN73_$LT$version_check..version..Version$u20$as$u20$core..cmp..PartialOrd$GT$11partial_cmp17h09a60d9364162c5aE
	movb	%al, -17(%rbp)
	movl	$1, %eax
	xorl	%ecx, %ecx
	cmpb	$2, -17(%rbp)
	cmoveq	%rcx, %rax
	.loc	16 1116 9 is_stmt 0
	cmpq	$1, %rax
	jne	LBB53_2
	.loc	16 1116 18
	movb	-17(%rbp), %al
	.loc	16 1116 9
	incb	%al
	subb	$2, %al
	jb	LBB53_3
	jmp	LBB53_2
LBB53_2:
	movb	$0, -18(%rbp)
	jmp	LBB53_4
LBB53_3:
	movb	$1, -18(%rbp)
LBB53_4:
	.loc	16 1117 6 is_stmt 1
	movb	-18(%rbp), %al
	andb	$1, %al
	movzbl	%al, %eax
	addq	$32, %rsp
	popq	%rbp
	retq
Ltmp465:
Lfunc_end53:
	.cfi_endproc

	.globl	__ZN4core3cmp10PartialOrd2le17hdb5ee5423b069caeE
	.p2align	4, 0x90
__ZN4core3cmp10PartialOrd2le17hdb5ee5423b069caeE:
Lfunc_begin54:
	.loc	16 1115 0
	.cfi_startproc
	pushq	%rbp
	.cfi_def_cfa_offset 16
	.cfi_offset %rbp, -16
	movq	%rsp, %rbp
	.cfi_def_cfa_register %rbp
	subq	$32, %rsp
	movq	%rdi, -16(%rbp)
	movq	%rsi, -8(%rbp)
Ltmp466:
	.loc	16 1116 18 prologue_end
	callq	__ZN67_$LT$version_check..date..Date$u20$as$u20$core..cmp..PartialOrd$GT$11partial_cmp17h28f8b379bec4bf3dE
	movb	%al, -17(%rbp)
	movl	$1, %eax
	xorl	%ecx, %ecx
	cmpb	$2, -17(%rbp)
	cmoveq	%rcx, %rax
	.loc	16 1116 9 is_stmt 0
	cmpq	$1, %rax
	jne	LBB54_2
	.loc	16 1116 18
	movb	-17(%rbp), %al
	.loc	16 1116 9
	incb	%al
	subb	$2, %al
	jb	LBB54_3
	jmp	LBB54_2
LBB54_2:
	movb	$0, -18(%rbp)
	jmp	LBB54_4
LBB54_3:
	movb	$1, -18(%rbp)
LBB54_4:
	.loc	16 1117 6 is_stmt 1
	movb	-18(%rbp), %al
	andb	$1, %al
	movzbl	%al, %eax
	addq	$32, %rsp
	popq	%rbp
	retq
Ltmp467:
Lfunc_end54:
	.cfi_endproc

	.p2align	4, 0x90
__ZN4core3cmp5impls50_$LT$impl$u20$core..cmp..Ord$u20$for$u20$usize$GT$3cmp17hfa1055f97c1cc2efE:
Lfunc_begin55:
	.loc	16 1454 0
	.cfi_startproc
	pushq	%rbp
	.cfi_def_cfa_offset 16
	.cfi_offset %rbp, -16
	movq	%rsp, %rbp
	.cfi_def_cfa_register %rbp
	subq	$40, %rsp
	movq	%rdi, -40(%rbp)
	movq	%rsi, -32(%rbp)
	movq	%rdi, -16(%rbp)
	movq	%rsi, -8(%rbp)
Ltmp468:
	.loc	16 1457 24 prologue_end
	movq	(%rdi), %rax
	cmpq	(%rsi), %rax
	jb	LBB55_2
	.loc	16 0 24 is_stmt 0
	movq	-32(%rbp), %rcx
	movq	-40(%rbp), %rax
	.loc	16 1458 29 is_stmt 1
	movq	(%rax), %rax
	cmpq	(%rcx), %rax
	je	LBB55_5
	jmp	LBB55_4
LBB55_2:
	.loc	16 1457 41
	movb	$-1, -17(%rbp)
LBB55_3:
	.loc	16 1460 18
	movb	-17(%rbp), %al
	addq	$40, %rsp
	popq	%rbp
	retq
LBB55_4:
	.loc	16 1459 28
	movb	$1, -17(%rbp)
	.loc	16 1458 26
	jmp	LBB55_6
LBB55_5:
	.loc	16 1458 47 is_stmt 0
	movb	$0, -17(%rbp)
LBB55_6:
	.loc	16 1457 21 is_stmt 1
	jmp	LBB55_3
Ltmp469:
Lfunc_end55:
	.cfi_endproc

	.p2align	4, 0x90
__ZN4core3cmp5impls55_$LT$impl$u20$core..cmp..PartialOrd$u20$for$u20$u32$GT$11partial_cmp17h731f84c22ac8839eE:
Lfunc_begin56:
	.loc	16 1437 0
	.cfi_startproc
	pushq	%rbp
	.cfi_def_cfa_offset 16
	.cfi_offset %rbp, -16
	movq	%rsp, %rbp
	.cfi_def_cfa_register %rbp
	subq	$56, %rsp
	movq	%rdi, -56(%rbp)
	movq	%rsi, -48(%rbp)
	movq	%rdi, -32(%rbp)
	movq	%rsi, -24(%rbp)
Ltmp470:
	.loc	16 1438 26 prologue_end
	movq	%rdi, -16(%rbp)
	.loc	16 1438 35 is_stmt 0
	movq	%rsi, -8(%rbp)
Ltmp471:
	.loc	16 1457 24 is_stmt 1
	movl	(%rdi), %eax
	cmpl	(%rsi), %eax
	jb	LBB56_2
	.loc	16 0 24 is_stmt 0
	movq	-48(%rbp), %rcx
	movq	-56(%rbp), %rax
	.loc	16 1458 29 is_stmt 1
	movl	(%rax), %eax
	cmpl	(%rcx), %eax
	je	LBB56_5
	jmp	LBB56_4
LBB56_2:
	.loc	16 1457 41
	movb	$-1, -33(%rbp)
Ltmp472:
LBB56_3:
	.loc	16 1438 21
	movb	-33(%rbp), %al
	movb	%al, -34(%rbp)
	.loc	16 1439 18
	movb	-34(%rbp), %al
	addq	$56, %rsp
	popq	%rbp
	retq
LBB56_4:
Ltmp473:
	.loc	16 1459 28
	movb	$1, -33(%rbp)
	.loc	16 1458 26
	jmp	LBB56_6
LBB56_5:
	.loc	16 1458 47 is_stmt 0
	movb	$0, -33(%rbp)
LBB56_6:
	.loc	16 1457 21 is_stmt 1
	jmp	LBB56_3
Ltmp474:
Lfunc_end56:
	.cfi_endproc

	.p2align	4, 0x90
__ZN4core3cmp5impls55_$LT$impl$u20$core..cmp..PartialOrd$u20$for$u20$u64$GT$11partial_cmp17hd765069d3460fca2E:
Lfunc_begin57:
	.loc	16 1437 0
	.cfi_startproc
	pushq	%rbp
	.cfi_def_cfa_offset 16
	.cfi_offset %rbp, -16
	movq	%rsp, %rbp
	.cfi_def_cfa_register %rbp
	subq	$56, %rsp
	movq	%rdi, -56(%rbp)
	movq	%rsi, -48(%rbp)
	movq	%rdi, -32(%rbp)
	movq	%rsi, -24(%rbp)
Ltmp475:
	.loc	16 1438 26 prologue_end
	movq	%rdi, -16(%rbp)
	.loc	16 1438 35 is_stmt 0
	movq	%rsi, -8(%rbp)
Ltmp476:
	.loc	16 1457 24 is_stmt 1
	movq	(%rdi), %rax
	cmpq	(%rsi), %rax
	jb	LBB57_2
	.loc	16 0 24 is_stmt 0
	movq	-48(%rbp), %rcx
	movq	-56(%rbp), %rax
	.loc	16 1458 29 is_stmt 1
	movq	(%rax), %rax
	cmpq	(%rcx), %rax
	je	LBB57_5
	jmp	LBB57_4
LBB57_2:
	.loc	16 1457 41
	movb	$-1, -33(%rbp)
Ltmp477:
LBB57_3:
	.loc	16 1438 21
	movb	-33(%rbp), %al
	movb	%al, -34(%rbp)
	.loc	16 1439 18
	movb	-34(%rbp), %al
	addq	$56, %rsp
	popq	%rbp
	retq
LBB57_4:
Ltmp478:
	.loc	16 1459 28
	movb	$1, -33(%rbp)
	.loc	16 1458 26
	jmp	LBB57_6
LBB57_5:
	.loc	16 1458 47 is_stmt 0
	movb	$0, -33(%rbp)
LBB57_6:
	.loc	16 1457 21 is_stmt 1
	jmp	LBB57_3
Ltmp479:
Lfunc_end57:
	.cfi_endproc

	.p2align	4, 0x90
__ZN4core3cmp5impls57_$LT$impl$u20$core..cmp..PartialOrd$u20$for$u20$usize$GT$2lt17he08cdae219bfb734E:
Lfunc_begin58:
	.loc	16 1441 0
	.cfi_startproc
	pushq	%rbp
	.cfi_def_cfa_offset 16
	.cfi_offset %rbp, -16
	movq	%rsp, %rbp
	.cfi_def_cfa_register %rbp
	subq	$16, %rsp
	movq	%rdi, -16(%rbp)
	movq	%rsi, -8(%rbp)
Ltmp480:
	.loc	16 1441 52 prologue_end
	movq	(%rdi), %rax
	cmpq	(%rsi), %rax
	setb	%al
	.loc	16 1441 72 is_stmt 0
	andb	$1, %al
	movzbl	%al, %eax
	addq	$16, %rsp
	popq	%rbp
	retq
Ltmp481:
Lfunc_end58:
	.cfi_endproc

	.p2align	4, 0x90
__ZN4core3cmp5impls59_$LT$impl$u20$core..cmp..PartialEq$u20$for$u20$$LP$$RP$$GT$2eq17h84ccca3415e2821fE:
Lfunc_begin59:
	.loc	16 1363 0 is_stmt 1
	.cfi_startproc
	pushq	%rbp
	.cfi_def_cfa_offset 16
	.cfi_offset %rbp, -16
	movq	%rsp, %rbp
	.cfi_def_cfa_register %rbp
	subq	$16, %rsp
	movq	%rdi, -16(%rbp)
	movq	%rsi, -8(%rbp)
Ltmp482:
	.loc	16 1365 10 prologue_end
	movb	$1, %al
	andb	$1, %al
	movzbl	%al, %eax
	addq	$16, %rsp
	popq	%rbp
	retq
Ltmp483:
Lfunc_end59:
	.cfi_endproc

	.globl	__ZN4core3cmp5impls69_$LT$impl$u20$core..cmp..PartialEq$LT$$RF$B$GT$$u20$for$u20$$RF$A$GT$2eq17h8243906f305de9bbE
	.p2align	4, 0x90
__ZN4core3cmp5impls69_$LT$impl$u20$core..cmp..PartialEq$LT$$RF$B$GT$$u20$for$u20$$RF$A$GT$2eq17h8243906f305de9bbE:
Lfunc_begin60:
	.loc	16 1530 0
	.cfi_startproc
	pushq	%rbp
	.cfi_def_cfa_offset 16
	.cfi_offset %rbp, -16
	movq	%rsp, %rbp
	.cfi_def_cfa_register %rbp
	subq	$16, %rsp
	movq	%rsi, %rax
	movq	%rdi, %rcx
	movq	%rcx, -16(%rbp)
	movq	%rax, -8(%rbp)
Ltmp484:
	.loc	16 1531 27 prologue_end
	movq	(%rcx), %rdi
	movq	8(%rcx), %rsi
	.loc	16 1531 34 is_stmt 0
	movq	(%rax), %rdx
	movq	8(%rax), %rcx
	.loc	16 1531 13
	callq	__ZN4core3str6traits54_$LT$impl$u20$core..cmp..PartialEq$u20$for$u20$str$GT$2eq17ha056ab3c04b08180E
	.loc	16 1532 10 is_stmt 1
	andb	$1, %al
	movzbl	%al, %eax
	addq	$16, %rsp
	popq	%rbp
	retq
Ltmp485:
Lfunc_end60:
	.cfi_endproc

	.globl	__ZN4core3cmp5impls69_$LT$impl$u20$core..cmp..PartialEq$LT$$RF$B$GT$$u20$for$u20$$RF$A$GT$2eq17hb9364af5127db6fdE
	.p2align	4, 0x90
__ZN4core3cmp5impls69_$LT$impl$u20$core..cmp..PartialEq$LT$$RF$B$GT$$u20$for$u20$$RF$A$GT$2eq17hb9364af5127db6fdE:
Lfunc_begin61:
	.loc	16 1530 0
	.cfi_startproc
	pushq	%rbp
	.cfi_def_cfa_offset 16
	.cfi_offset %rbp, -16
	movq	%rsp, %rbp
	.cfi_def_cfa_register %rbp
	subq	$16, %rsp
	movq	%rdi, -16(%rbp)
	movq	%rsi, -8(%rbp)
Ltmp486:
	.loc	16 1531 27 prologue_end
	movq	(%rdi), %rdi
	.loc	16 1531 34 is_stmt 0
	movq	(%rsi), %rsi
	.loc	16 1531 13
	callq	__ZN72_$LT$version_check..version..Version$u20$as$u20$core..cmp..PartialEq$GT$2eq17h50fab3691549e94eE
	.loc	16 1532 10 is_stmt 1
	andb	$1, %al
	movzbl	%al, %eax
	addq	$16, %rsp
	popq	%rbp
	retq
Ltmp487:
Lfunc_end61:
	.cfi_endproc

	.globl	__ZN4core3cmp5impls69_$LT$impl$u20$core..cmp..PartialEq$LT$$RF$B$GT$$u20$for$u20$$RF$A$GT$2eq17he14e275f93c1ee89E
	.p2align	4, 0x90
__ZN4core3cmp5impls69_$LT$impl$u20$core..cmp..PartialEq$LT$$RF$B$GT$$u20$for$u20$$RF$A$GT$2eq17he14e275f93c1ee89E:
Lfunc_begin62:
	.loc	16 1530 0
	.cfi_startproc
	pushq	%rbp
	.cfi_def_cfa_offset 16
	.cfi_offset %rbp, -16
	movq	%rsp, %rbp
	.cfi_def_cfa_register %rbp
	subq	$16, %rsp
	movq	%rdi, -16(%rbp)
	movq	%rsi, -8(%rbp)
Ltmp488:
	.loc	16 1531 27 prologue_end
	movq	(%rdi), %rdi
	.loc	16 1531 34 is_stmt 0
	movq	(%rsi), %rsi
	.loc	16 1531 13
	callq	__ZN66_$LT$version_check..date..Date$u20$as$u20$core..cmp..PartialEq$GT$2eq17h075428f4596139ddE
	.loc	16 1532 10 is_stmt 1
	andb	$1, %al
	movzbl	%al, %eax
	addq	$16, %rsp
	popq	%rbp
	retq
Ltmp489:
Lfunc_end62:
	.cfi_endproc

	.globl	__ZN4core3cmp5impls70_$LT$impl$u20$core..cmp..PartialOrd$LT$$RF$B$GT$$u20$for$u20$$RF$A$GT$2ge17h6931ddc85151ce96E
	.p2align	4, 0x90
__ZN4core3cmp5impls70_$LT$impl$u20$core..cmp..PartialOrd$LT$$RF$B$GT$$u20$for$u20$$RF$A$GT$2ge17h6931ddc85151ce96E:
Lfunc_begin63:
	.loc	16 1560 0
	.cfi_startproc
	pushq	%rbp
	.cfi_def_cfa_offset 16
	.cfi_offset %rbp, -16
	movq	%rsp, %rbp
	.cfi_def_cfa_register %rbp
	subq	$16, %rsp
	movq	%rdi, -16(%rbp)
	movq	%rsi, -8(%rbp)
Ltmp490:
	.loc	16 1561 28 prologue_end
	movq	(%rdi), %rdi
	.loc	16 1561 35 is_stmt 0
	movq	(%rsi), %rsi
	.loc	16 1561 13
	callq	__ZN4core3cmp10PartialOrd2ge17h891512daad68a31cE
	.loc	16 1562 10 is_stmt 1
	andb	$1, %al
	movzbl	%al, %eax
	addq	$16, %rsp
	popq	%rbp
	retq
Ltmp491:
Lfunc_end63:
	.cfi_endproc

	.globl	__ZN4core3cmp5impls70_$LT$impl$u20$core..cmp..PartialOrd$LT$$RF$B$GT$$u20$for$u20$$RF$A$GT$2ge17hd2d4a03786b0fe73E
	.p2align	4, 0x90
__ZN4core3cmp5impls70_$LT$impl$u20$core..cmp..PartialOrd$LT$$RF$B$GT$$u20$for$u20$$RF$A$GT$2ge17hd2d4a03786b0fe73E:
Lfunc_begin64:
	.loc	16 1560 0
	.cfi_startproc
	pushq	%rbp
	.cfi_def_cfa_offset 16
	.cfi_offset %rbp, -16
	movq	%rsp, %rbp
	.cfi_def_cfa_register %rbp
	subq	$16, %rsp
	movq	%rdi, -16(%rbp)
	movq	%rsi, -8(%rbp)
Ltmp492:
	.loc	16 1561 28 prologue_end
	movq	(%rdi), %rdi
	.loc	16 1561 35 is_stmt 0
	movq	(%rsi), %rsi
	.loc	16 1561 13
	callq	__ZN4core3cmp10PartialOrd2ge17hcf094fdb3c5a651fE
	.loc	16 1562 10 is_stmt 1
	andb	$1, %al
	movzbl	%al, %eax
	addq	$16, %rsp
	popq	%rbp
	retq
Ltmp493:
Lfunc_end64:
	.cfi_endproc

	.globl	__ZN4core3cmp5impls70_$LT$impl$u20$core..cmp..PartialOrd$LT$$RF$B$GT$$u20$for$u20$$RF$A$GT$2le17h112b9c279b286aafE
	.p2align	4, 0x90
__ZN4core3cmp5impls70_$LT$impl$u20$core..cmp..PartialOrd$LT$$RF$B$GT$$u20$for$u20$$RF$A$GT$2le17h112b9c279b286aafE:
Lfunc_begin65:
	.loc	16 1552 0
	.cfi_startproc
	pushq	%rbp
	.cfi_def_cfa_offset 16
	.cfi_offset %rbp, -16
	movq	%rsp, %rbp
	.cfi_def_cfa_register %rbp
	subq	$16, %rsp
	movq	%rdi, -16(%rbp)
	movq	%rsi, -8(%rbp)
Ltmp494:
	.loc	16 1553 28 prologue_end
	movq	(%rdi), %rdi
	.loc	16 1553 35 is_stmt 0
	movq	(%rsi), %rsi
	.loc	16 1553 13
	callq	__ZN4core3cmp10PartialOrd2le17hdb5ee5423b069caeE
	.loc	16 1554 10 is_stmt 1
	andb	$1, %al
	movzbl	%al, %eax
	addq	$16, %rsp
	popq	%rbp
	retq
Ltmp495:
Lfunc_end65:
	.cfi_endproc

	.globl	__ZN4core3cmp5impls70_$LT$impl$u20$core..cmp..PartialOrd$LT$$RF$B$GT$$u20$for$u20$$RF$A$GT$2le17h5db4f6377ae216d3E
	.p2align	4, 0x90
__ZN4core3cmp5impls70_$LT$impl$u20$core..cmp..PartialOrd$LT$$RF$B$GT$$u20$for$u20$$RF$A$GT$2le17h5db4f6377ae216d3E:
Lfunc_begin66:
	.loc	16 1552 0
	.cfi_startproc
	pushq	%rbp
	.cfi_def_cfa_offset 16
	.cfi_offset %rbp, -16
	movq	%rsp, %rbp
	.cfi_def_cfa_register %rbp
	subq	$16, %rsp
	movq	%rdi, -16(%rbp)
	movq	%rsi, -8(%rbp)
Ltmp496:
	.loc	16 1553 28 prologue_end
	movq	(%rdi), %rdi
	.loc	16 1553 35 is_stmt 0
	movq	(%rsi), %rsi
	.loc	16 1553 13
	callq	__ZN4core3cmp10PartialOrd2le17h3a3ab805bdb2dad4E
	.loc	16 1554 10 is_stmt 1
	andb	$1, %al
	movzbl	%al, %eax
	addq	$16, %rsp
	popq	%rbp
	retq
Ltmp497:
Lfunc_end66:
	.cfi_endproc

	.globl	__ZN4core3cmp6max_by17hb79841aa11fcca4dE
	.p2align	4, 0x90
__ZN4core3cmp6max_by17hb79841aa11fcca4dE:
Lfunc_begin67:
	.loc	16 1295 0
	.cfi_startproc
	.cfi_personality 155, _rust_eh_personality
	.cfi_lsda 16, Lexception12
	pushq	%rbp
	.cfi_def_cfa_offset 16
	.cfi_offset %rbp, -16
	movq	%rsp, %rbp
	.cfi_def_cfa_register %rbp
	subq	$96, %rsp
	movq	%rdi, -80(%rbp)
	movq	%rsi, -72(%rbp)
Ltmp501:
	.loc	16 1300 11 prologue_end
	movb	$1, -25(%rbp)
	movb	$1, -26(%rbp)
	leaq	-80(%rbp), %rax
	movq	%rax, -48(%rbp)
	leaq	-72(%rbp), %rax
	movq	%rax, -40(%rbp)
	movq	-48(%rbp), %rdi
	movq	-40(%rbp), %rsi
Ltmp498:
	callq	__ZN4core3ops8function6FnOnce9call_once17h05586af19215c781E
Ltmp499:
	movb	%al, -81(%rbp)
	jmp	LBB67_3
LBB67_1:
	.loc	16 1304 1
	jmp	LBB67_4
LBB67_2:
Ltmp500:
	.loc	16 0 1 is_stmt 0
	movq	%rax, %rcx
	movl	%edx, %eax
	movq	%rcx, -16(%rbp)
	movl	%eax, -8(%rbp)
	jmp	LBB67_1
LBB67_3:
	movb	-81(%rbp), %al
	.loc	16 1300 11 is_stmt 1
	movb	%al, -49(%rbp)
	movb	-49(%rbp), %al
	.loc	16 1300 5 is_stmt 0
	incb	%al
	subb	$2, %al
	jb	LBB67_6
	jmp	LBB67_15
LBB67_15:
	jmp	LBB67_7
LBB67_4:
	.loc	16 1304 1 is_stmt 1
	testb	$1, -25(%rbp)
	jne	LBB67_12
	jmp	LBB67_11
	.loc	16 1300 11
	ud2
LBB67_6:
	.loc	16 1301 45
	movb	$0, -26(%rbp)
	movq	-72(%rbp), %rax
	movq	%rax, -64(%rbp)
	jmp	LBB67_8
LBB67_7:
	.loc	16 1302 30
	movb	$0, -25(%rbp)
	movq	-80(%rbp), %rax
	movq	%rax, -64(%rbp)
LBB67_8:
	.loc	16 1304 1
	testb	$1, -26(%rbp)
	jne	LBB67_10
LBB67_9:
	testb	$1, -25(%rbp)
	jne	LBB67_14
	jmp	LBB67_13
LBB67_10:
	jmp	LBB67_9
LBB67_11:
	.loc	16 1295 1
	movq	-16(%rbp), %rdi
	callq	__Unwind_Resume
LBB67_12:
	.loc	16 1304 1
	jmp	LBB67_11
LBB67_13:
	.loc	16 1304 2 is_stmt 0
	movq	-64(%rbp), %rax
	addq	$96, %rsp
	popq	%rbp
	retq
LBB67_14:
	.loc	16 1304 1
	jmp	LBB67_13
Ltmp502:
Lfunc_end67:
	.cfi_endproc
	.section	__TEXT,__gcc_except_tab
	.p2align	2
GCC_except_table67:
Lexception12:
	.byte	255
	.byte	255
	.byte	1
	.uleb128 Lcst_end12-Lcst_begin12
Lcst_begin12:
	.uleb128 Ltmp498-Lfunc_begin67
	.uleb128 Ltmp499-Ltmp498
	.uleb128 Ltmp500-Lfunc_begin67
	.byte	0
	.uleb128 Ltmp499-Lfunc_begin67
	.uleb128 Lfunc_end67-Ltmp499
	.byte	0
	.byte	0
Lcst_end12:
	.p2align	2

	.section	__TEXT,__text,regular,pure_instructions
	.globl	__ZN4core3cmp6min_by17h8ca2bd448bb4dd66E
	.p2align	4, 0x90
__ZN4core3cmp6min_by17h8ca2bd448bb4dd66E:
Lfunc_begin68:
	.loc	16 1204 0 is_stmt 1
	.cfi_startproc
	.cfi_personality 155, _rust_eh_personality
	.cfi_lsda 16, Lexception13
	pushq	%rbp
	.cfi_def_cfa_offset 16
	.cfi_offset %rbp, -16
	movq	%rsp, %rbp
	.cfi_def_cfa_register %rbp
	subq	$96, %rsp
	movq	%rdi, -80(%rbp)
	movq	%rsi, -72(%rbp)
Ltmp506:
	.loc	16 1209 11 prologue_end
	movb	$1, -25(%rbp)
	movb	$1, -26(%rbp)
	leaq	-80(%rbp), %rax
	movq	%rax, -48(%rbp)
	leaq	-72(%rbp), %rax
	movq	%rax, -40(%rbp)
	movq	-48(%rbp), %rdi
	movq	-40(%rbp), %rsi
Ltmp503:
	callq	__ZN4core3ops8function6FnOnce9call_once17h05586af19215c781E
Ltmp504:
	movb	%al, -81(%rbp)
	jmp	LBB68_3
LBB68_1:
	.loc	16 1213 1
	jmp	LBB68_4
LBB68_2:
Ltmp505:
	.loc	16 0 1 is_stmt 0
	movq	%rax, %rcx
	movl	%edx, %eax
	movq	%rcx, -16(%rbp)
	movl	%eax, -8(%rbp)
	jmp	LBB68_1
LBB68_3:
	movb	-81(%rbp), %al
	.loc	16 1209 11 is_stmt 1
	movb	%al, -49(%rbp)
	movb	-49(%rbp), %al
	.loc	16 1209 5 is_stmt 0
	incb	%al
	subb	$2, %al
	jb	LBB68_6
	jmp	LBB68_15
LBB68_15:
	jmp	LBB68_7
LBB68_4:
	.loc	16 1213 1 is_stmt 1
	testb	$1, -25(%rbp)
	jne	LBB68_12
	jmp	LBB68_11
	.loc	16 1209 11
	ud2
LBB68_6:
	.loc	16 1210 45
	movb	$0, -25(%rbp)
	movq	-80(%rbp), %rax
	movq	%rax, -64(%rbp)
	jmp	LBB68_8
LBB68_7:
	.loc	16 1211 30
	movb	$0, -26(%rbp)
	movq	-72(%rbp), %rax
	movq	%rax, -64(%rbp)
LBB68_8:
	.loc	16 1213 1
	testb	$1, -26(%rbp)
	jne	LBB68_10
LBB68_9:
	testb	$1, -25(%rbp)
	jne	LBB68_14
	jmp	LBB68_13
LBB68_10:
	jmp	LBB68_9
LBB68_11:
	.loc	16 1204 1
	movq	-16(%rbp), %rdi
	callq	__Unwind_Resume
LBB68_12:
	.loc	16 1213 1
	jmp	LBB68_11
LBB68_13:
	.loc	16 1213 2 is_stmt 0
	movq	-64(%rbp), %rax
	addq	$96, %rsp
	popq	%rbp
	retq
LBB68_14:
	.loc	16 1213 1
	jmp	LBB68_13
Ltmp507:
Lfunc_end68:
	.cfi_endproc
	.section	__TEXT,__gcc_except_tab
	.p2align	2
GCC_except_table68:
Lexception13:
	.byte	255
	.byte	255
	.byte	1
	.uleb128 Lcst_end13-Lcst_begin13
Lcst_begin13:
	.uleb128 Ltmp503-Lfunc_begin68
	.uleb128 Ltmp504-Ltmp503
	.uleb128 Ltmp505-Lfunc_begin68
	.byte	0
	.uleb128 Ltmp504-Lfunc_begin68
	.uleb128 Lfunc_end68-Ltmp504
	.byte	0
	.byte	0
Lcst_end13:
	.p2align	2

	.section	__TEXT,__text,regular,pure_instructions
	.globl	__ZN4core3fmt10ArgumentV111new_display17h32914604ccd5e1cdE
	.p2align	4, 0x90
__ZN4core3fmt10ArgumentV111new_display17h32914604ccd5e1cdE:
Lfunc_begin69:
	.loc	31 327 0 is_stmt 1
	.cfi_startproc
	pushq	%rbp
	.cfi_def_cfa_offset 16
	.cfi_offset %rbp, -16
	movq	%rsp, %rbp
	.cfi_def_cfa_register %rbp
	subq	$56, %rsp
	movq	%rdi, -40(%rbp)
Ltmp508:
	.loc	31 328 23 prologue_end
	movq	%rdi, -32(%rbp)
	.loc	31 328 26 is_stmt 0
	leaq	__ZN44_$LT$$RF$T$u20$as$u20$core..fmt..Display$GT$3fmt17hc9fd7f1a5b049d87E(%rip), %rax
	movq	%rax, -24(%rbp)
Ltmp509:
	.loc	31 347 42 is_stmt 1
	movq	%rax, -16(%rbp)
	movq	-16(%rbp), %rax
	.loc	31 347 68 is_stmt 0
	movq	%rdi, -8(%rbp)
	movq	-8(%rbp), %rcx
	.loc	31 347 18
	movq	%rcx, -56(%rbp)
	movq	%rax, -48(%rbp)
Ltmp510:
	.loc	31 329 10 is_stmt 1
	movq	-56(%rbp), %rax
	movq	-48(%rbp), %rdx
	addq	$56, %rsp
	popq	%rbp
	retq
Ltmp511:
Lfunc_end69:
	.cfi_endproc

	.globl	__ZN4core3fmt10ArgumentV111new_display17h614e48b8287f57a9E
	.p2align	4, 0x90
__ZN4core3fmt10ArgumentV111new_display17h614e48b8287f57a9E:
Lfunc_begin70:
	.loc	31 327 0
	.cfi_startproc
	pushq	%rbp
	.cfi_def_cfa_offset 16
	.cfi_offset %rbp, -16
	movq	%rsp, %rbp
	.cfi_def_cfa_register %rbp
	subq	$56, %rsp
	movq	%rdi, -40(%rbp)
Ltmp512:
	.loc	31 328 23 prologue_end
	movq	%rdi, -32(%rbp)
	.loc	31 328 26 is_stmt 0
	movq	__ZN4core3fmt3num3imp51_$LT$impl$u20$core..fmt..Display$u20$for$u20$u8$GT$3fmt17he2a0798a745fb926E@GOTPCREL(%rip), %rax
	movq	%rax, -24(%rbp)
Ltmp513:
	.loc	31 347 42 is_stmt 1
	movq	%rax, -16(%rbp)
	movq	-16(%rbp), %rax
	.loc	31 347 68 is_stmt 0
	movq	%rdi, -8(%rbp)
	movq	-8(%rbp), %rcx
	.loc	31 347 18
	movq	%rcx, -56(%rbp)
	movq	%rax, -48(%rbp)
Ltmp514:
	.loc	31 329 10 is_stmt 1
	movq	-56(%rbp), %rax
	movq	-48(%rbp), %rdx
	addq	$56, %rsp
	popq	%rbp
	retq
Ltmp515:
Lfunc_end70:
	.cfi_endproc

	.globl	__ZN4core3fmt10ArgumentV111new_display17hb48105133202fe3bE
	.p2align	4, 0x90
__ZN4core3fmt10ArgumentV111new_display17hb48105133202fe3bE:
Lfunc_begin71:
	.loc	31 327 0
	.cfi_startproc
	pushq	%rbp
	.cfi_def_cfa_offset 16
	.cfi_offset %rbp, -16
	movq	%rsp, %rbp
	.cfi_def_cfa_register %rbp
	subq	$56, %rsp
	movq	%rdi, -40(%rbp)
Ltmp516:
	.loc	31 328 23 prologue_end
	movq	%rdi, -32(%rbp)
	.loc	31 328 26 is_stmt 0
	movq	__ZN4core3fmt3num3imp52_$LT$impl$u20$core..fmt..Display$u20$for$u20$u16$GT$3fmt17h7d8f7431eaeff3c6E@GOTPCREL(%rip), %rax
	movq	%rax, -24(%rbp)
Ltmp517:
	.loc	31 347 42 is_stmt 1
	movq	%rax, -16(%rbp)
	movq	-16(%rbp), %rax
	.loc	31 347 68 is_stmt 0
	movq	%rdi, -8(%rbp)
	movq	-8(%rbp), %rcx
	.loc	31 347 18
	movq	%rcx, -56(%rbp)
	movq	%rax, -48(%rbp)
Ltmp518:
	.loc	31 329 10 is_stmt 1
	movq	-56(%rbp), %rax
	movq	-48(%rbp), %rdx
	addq	$56, %rsp
	popq	%rbp
	retq
Ltmp519:
Lfunc_end71:
	.cfi_endproc

	.globl	__ZN4core3fmt10ArgumentV19new_debug17h7558bad6af7bfec5E
	.p2align	4, 0x90
__ZN4core3fmt10ArgumentV19new_debug17h7558bad6af7bfec5E:
Lfunc_begin72:
	.loc	31 327 0
	.cfi_startproc
	pushq	%rbp
	.cfi_def_cfa_offset 16
	.cfi_offset %rbp, -16
	movq	%rsp, %rbp
	.cfi_def_cfa_register %rbp
	subq	$56, %rsp
	movq	%rdi, -40(%rbp)
Ltmp520:
	.loc	31 328 23 prologue_end
	movq	%rdi, -32(%rbp)
	.loc	31 328 26 is_stmt 0
	leaq	__ZN4core3fmt3num50_$LT$impl$u20$core..fmt..Debug$u20$for$u20$u64$GT$3fmt17h1ed87d96d5b3a146E(%rip), %rax
	movq	%rax, -24(%rbp)
Ltmp521:
	.loc	31 347 42 is_stmt 1
	movq	%rax, -16(%rbp)
	movq	-16(%rbp), %rax
	.loc	31 347 68 is_stmt 0
	movq	%rdi, -8(%rbp)
	movq	-8(%rbp), %rcx
	.loc	31 347 18
	movq	%rcx, -56(%rbp)
	movq	%rax, -48(%rbp)
Ltmp522:
	.loc	31 329 10 is_stmt 1
	movq	-56(%rbp), %rax
	movq	-48(%rbp), %rdx
	addq	$56, %rsp
	popq	%rbp
	retq
Ltmp523:
Lfunc_end72:
	.cfi_endproc

	.globl	__ZN4core3fmt10ArgumentV19new_debug17h99bf0f0182f65aa6E
	.p2align	4, 0x90
__ZN4core3fmt10ArgumentV19new_debug17h99bf0f0182f65aa6E:
Lfunc_begin73:
	.loc	31 327 0
	.cfi_startproc
	pushq	%rbp
	.cfi_def_cfa_offset 16
	.cfi_offset %rbp, -16
	movq	%rsp, %rbp
	.cfi_def_cfa_register %rbp
	subq	$56, %rsp
	movq	%rdi, -40(%rbp)
Ltmp524:
	.loc	31 328 23 prologue_end
	movq	%rdi, -32(%rbp)
	.loc	31 328 26 is_stmt 0
	leaq	__ZN54_$LT$$LP$V$C$U$C$T$RP$$u20$as$u20$core..fmt..Debug$GT$3fmt17h496fcc82b4eeda19E(%rip), %rax
	movq	%rax, -24(%rbp)
Ltmp525:
	.loc	31 347 42 is_stmt 1
	movq	%rax, -16(%rbp)
	movq	-16(%rbp), %rax
	.loc	31 347 68 is_stmt 0
	movq	%rdi, -8(%rbp)
	movq	-8(%rbp), %rcx
	.loc	31 347 18
	movq	%rcx, -56(%rbp)
	movq	%rax, -48(%rbp)
Ltmp526:
	.loc	31 329 10 is_stmt 1
	movq	-56(%rbp), %rax
	movq	-48(%rbp), %rdx
	addq	$56, %rsp
	popq	%rbp
	retq
Ltmp527:
Lfunc_end73:
	.cfi_endproc

	.p2align	4, 0x90
__ZN4core3fmt3num50_$LT$impl$u20$core..fmt..Debug$u20$for$u20$u16$GT$3fmt17h45826596def35b20E:
Lfunc_begin74:
	.file	35 "/rustc/2c8cc343237b8f7d5a3c3703e3a87f2eb2c54a74/library/core/src/fmt" "num.rs"
	.loc	35 185 0
	.cfi_startproc
	pushq	%rbp
	.cfi_def_cfa_offset 16
	.cfi_offset %rbp, -16
	movq	%rsp, %rbp
	.cfi_def_cfa_register %rbp
	subq	$48, %rsp
	movq	%rsi, -48(%rbp)
	movq	%rdi, %rax
	movq	-48(%rbp), %rdi
	movq	%rax, -40(%rbp)
	movq	%rdi, -32(%rbp)
	movq	%rax, -16(%rbp)
	movq	%rdi, -8(%rbp)
Ltmp528:
	.loc	35 186 20 prologue_end
	callq	__ZN4core3fmt9Formatter15debug_lower_hex17h0921e6b9188d914eE
	testb	$1, %al
	jne	LBB74_2
	.loc	35 0 20 is_stmt 0
	movq	-32(%rbp), %rdi
	.loc	35 188 27 is_stmt 1
	callq	__ZN4core3fmt9Formatter15debug_upper_hex17h8ce487049a6cccf8E
	testb	$1, %al
	jne	LBB74_5
	jmp	LBB74_4
LBB74_2:
	.loc	35 0 27 is_stmt 0
	movq	-32(%rbp), %rsi
	movq	-40(%rbp), %rdi
	.loc	35 187 21 is_stmt 1
	callq	__ZN4core3fmt3num53_$LT$impl$u20$core..fmt..LowerHex$u20$for$u20$u16$GT$3fmt17he1af57f7bbe2599fE
	andb	$1, %al
	movb	%al, -17(%rbp)
LBB74_3:
	.loc	35 193 14
	movb	-17(%rbp), %al
	andb	$1, %al
	movzbl	%al, %eax
	addq	$48, %rsp
	popq	%rbp
	retq
LBB74_4:
	.loc	35 0 14 is_stmt 0
	movq	-32(%rbp), %rsi
	movq	-40(%rbp), %rdi
	.loc	35 191 21 is_stmt 1
	callq	__ZN4core3fmt3num3imp52_$LT$impl$u20$core..fmt..Display$u20$for$u20$u16$GT$3fmt17h7d8f7431eaeff3c6E
	andb	$1, %al
	movb	%al, -17(%rbp)
	.loc	35 188 24
	jmp	LBB74_6
LBB74_5:
	.loc	35 0 24 is_stmt 0
	movq	-32(%rbp), %rsi
	movq	-40(%rbp), %rdi
	.loc	35 189 21 is_stmt 1
	callq	__ZN4core3fmt3num53_$LT$impl$u20$core..fmt..UpperHex$u20$for$u20$u16$GT$3fmt17h2cf7e042780f1009E
	andb	$1, %al
	movb	%al, -17(%rbp)
LBB74_6:
	.loc	35 186 17
	jmp	LBB74_3
Ltmp529:
Lfunc_end74:
	.cfi_endproc

	.p2align	4, 0x90
__ZN4core3fmt3num50_$LT$impl$u20$core..fmt..Debug$u20$for$u20$u32$GT$3fmt17hdb90388aa809c369E:
Lfunc_begin75:
	.loc	35 185 0
	.cfi_startproc
	pushq	%rbp
	.cfi_def_cfa_offset 16
	.cfi_offset %rbp, -16
	movq	%rsp, %rbp
	.cfi_def_cfa_register %rbp
	subq	$48, %rsp
	movq	%rsi, -48(%rbp)
	movq	%rdi, %rax
	movq	-48(%rbp), %rdi
	movq	%rax, -40(%rbp)
	movq	%rdi, -32(%rbp)
	movq	%rax, -16(%rbp)
	movq	%rdi, -8(%rbp)
Ltmp530:
	.loc	35 186 20 prologue_end
	callq	__ZN4core3fmt9Formatter15debug_lower_hex17h0921e6b9188d914eE
	testb	$1, %al
	jne	LBB75_2
	.loc	35 0 20 is_stmt 0
	movq	-32(%rbp), %rdi
	.loc	35 188 27 is_stmt 1
	callq	__ZN4core3fmt9Formatter15debug_upper_hex17h8ce487049a6cccf8E
	testb	$1, %al
	jne	LBB75_5
	jmp	LBB75_4
LBB75_2:
	.loc	35 0 27 is_stmt 0
	movq	-32(%rbp), %rsi
	movq	-40(%rbp), %rdi
	.loc	35 187 21 is_stmt 1
	callq	__ZN4core3fmt3num53_$LT$impl$u20$core..fmt..LowerHex$u20$for$u20$u32$GT$3fmt17h794cf20b87700632E
	andb	$1, %al
	movb	%al, -17(%rbp)
LBB75_3:
	.loc	35 193 14
	movb	-17(%rbp), %al
	andb	$1, %al
	movzbl	%al, %eax
	addq	$48, %rsp
	popq	%rbp
	retq
LBB75_4:
	.loc	35 0 14 is_stmt 0
	movq	-32(%rbp), %rsi
	movq	-40(%rbp), %rdi
	.loc	35 191 21 is_stmt 1
	callq	__ZN4core3fmt3num3imp52_$LT$impl$u20$core..fmt..Display$u20$for$u20$u32$GT$3fmt17h081c917b2ee7d4e9E
	andb	$1, %al
	movb	%al, -17(%rbp)
	.loc	35 188 24
	jmp	LBB75_6
LBB75_5:
	.loc	35 0 24 is_stmt 0
	movq	-32(%rbp), %rsi
	movq	-40(%rbp), %rdi
	.loc	35 189 21 is_stmt 1
	callq	__ZN4core3fmt3num53_$LT$impl$u20$core..fmt..UpperHex$u20$for$u20$u32$GT$3fmt17ha96bbefe8f663d11E
	andb	$1, %al
	movb	%al, -17(%rbp)
LBB75_6:
	.loc	35 186 17
	jmp	LBB75_3
Ltmp531:
Lfunc_end75:
	.cfi_endproc

	.p2align	4, 0x90
__ZN4core3fmt3num50_$LT$impl$u20$core..fmt..Debug$u20$for$u20$u64$GT$3fmt17h1ed87d96d5b3a146E:
Lfunc_begin76:
	.loc	35 185 0
	.cfi_startproc
	pushq	%rbp
	.cfi_def_cfa_offset 16
	.cfi_offset %rbp, -16
	movq	%rsp, %rbp
	.cfi_def_cfa_register %rbp
	subq	$48, %rsp
	movq	%rsi, -48(%rbp)
	movq	%rdi, %rax
	movq	-48(%rbp), %rdi
	movq	%rax, -40(%rbp)
	movq	%rdi, -32(%rbp)
	movq	%rax, -16(%rbp)
	movq	%rdi, -8(%rbp)
Ltmp532:
	.loc	35 186 20 prologue_end
	callq	__ZN4core3fmt9Formatter15debug_lower_hex17h0921e6b9188d914eE
	testb	$1, %al
	jne	LBB76_2
	.loc	35 0 20 is_stmt 0
	movq	-32(%rbp), %rdi
	.loc	35 188 27 is_stmt 1
	callq	__ZN4core3fmt9Formatter15debug_upper_hex17h8ce487049a6cccf8E
	testb	$1, %al
	jne	LBB76_5
	jmp	LBB76_4
LBB76_2:
	.loc	35 0 27 is_stmt 0
	movq	-32(%rbp), %rsi
	movq	-40(%rbp), %rdi
	.loc	35 187 21 is_stmt 1
	callq	__ZN4core3fmt3num53_$LT$impl$u20$core..fmt..LowerHex$u20$for$u20$u64$GT$3fmt17h9f1a647630acba52E
	andb	$1, %al
	movb	%al, -17(%rbp)
LBB76_3:
	.loc	35 193 14
	movb	-17(%rbp), %al
	andb	$1, %al
	movzbl	%al, %eax
	addq	$48, %rsp
	popq	%rbp
	retq
LBB76_4:
	.loc	35 0 14 is_stmt 0
	movq	-32(%rbp), %rsi
	movq	-40(%rbp), %rdi
	.loc	35 191 21 is_stmt 1
	callq	__ZN4core3fmt3num3imp52_$LT$impl$u20$core..fmt..Display$u20$for$u20$u64$GT$3fmt17hc0b393b21668e9bfE
	andb	$1, %al
	movb	%al, -17(%rbp)
	.loc	35 188 24
	jmp	LBB76_6
LBB76_5:
	.loc	35 0 24 is_stmt 0
	movq	-32(%rbp), %rsi
	movq	-40(%rbp), %rdi
	.loc	35 189 21 is_stmt 1
	callq	__ZN4core3fmt3num53_$LT$impl$u20$core..fmt..UpperHex$u20$for$u20$u64$GT$3fmt17h9873482f6824a169E
	andb	$1, %al
	movb	%al, -17(%rbp)
LBB76_6:
	.loc	35 186 17
	jmp	LBB76_3
Ltmp533:
Lfunc_end76:
	.cfi_endproc

	.p2align	4, 0x90
__ZN4core3fmt9Arguments16new_v1_formatted17haf6ae48d0d7e8555E:
Lfunc_begin77:
	.loc	31 419 0
	.cfi_startproc
	pushq	%rbp
	.cfi_def_cfa_offset 16
	.cfi_offset %rbp, -16
	movq	%rsp, %rbp
	.cfi_def_cfa_register %rbp
	subq	$72, %rsp
	movq	%r9, %r10
	movq	%rdi, %rax
	movq	16(%rbp), %r9
	movq	%rsi, -56(%rbp)
	movq	%rdx, -48(%rbp)
	movq	%rcx, -40(%rbp)
	movq	%r8, -32(%rbp)
	movq	%r10, -24(%rbp)
	movq	%r9, -16(%rbp)
Ltmp534:
	.loc	31 425 34 prologue_end
	movq	%r10, -72(%rbp)
	movq	%r9, -64(%rbp)
	.loc	31 425 9 is_stmt 0
	movq	%rsi, 16(%rdi)
	movq	%rdx, 24(%rdi)
	movq	-72(%rbp), %rsi
	movq	-64(%rbp), %rdx
	movq	%rsi, (%rdi)
	movq	%rdx, 8(%rdi)
	movq	%rcx, 32(%rdi)
	movq	%r8, 40(%rdi)
	.loc	31 426 6 is_stmt 1
	addq	$72, %rsp
	popq	%rbp
	retq
Ltmp535:
Lfunc_end77:
	.cfi_endproc

	.p2align	4, 0x90
__ZN4core3fmt9Arguments6new_v117h48403f8d4188ff41E:
Lfunc_begin78:
	.loc	31 399 0
	.cfi_startproc
	pushq	%rbp
	.cfi_def_cfa_offset 16
	.cfi_offset %rbp, -16
	movq	%rsp, %rbp
	.cfi_def_cfa_register %rbp
	subq	$160, %rsp
	movq	%r8, -152(%rbp)
	movq	%rcx, -144(%rbp)
	movq	%rdx, -136(%rbp)
	movq	%rsi, -128(%rbp)
	movq	%rdi, -120(%rbp)
	movq	%rdi, -112(%rbp)
	movq	%rsi, -32(%rbp)
	movq	%rdx, -24(%rbp)
	movq	%rcx, -16(%rbp)
	movq	%r8, -8(%rbp)
Ltmp536:
	.loc	31 400 12 prologue_end
	cmpq	%r8, %rdx
	jb	LBB78_2
	.loc	31 0 12 is_stmt 0
	movq	-136(%rbp), %rax
	movq	-152(%rbp), %rcx
	.loc	31 400 56
	addq	$1, %rcx
	.loc	31 400 41
	cmpq	%rcx, %rax
	seta	%al
	.loc	31 400 12
	andb	$1, %al
	movb	%al, -97(%rbp)
	jmp	LBB78_3
LBB78_2:
	movb	$1, -97(%rbp)
LBB78_3:
	testb	$1, -97(%rbp)
	jne	LBB78_5
	.loc	31 0 12
	movq	-112(%rbp), %rax
	movq	-120(%rbp), %rcx
	movq	-152(%rbp), %rdx
	movq	-144(%rbp), %rsi
	movq	-136(%rbp), %rdi
	movq	-128(%rbp), %r8
	.loc	31 403 34 is_stmt 1
	movq	$0, -48(%rbp)
	.loc	31 403 9 is_stmt 0
	movq	%r8, 16(%rcx)
	movq	%rdi, 24(%rcx)
	movq	-48(%rbp), %r8
	movq	-40(%rbp), %rdi
	movq	%r8, (%rcx)
	movq	%rdi, 8(%rcx)
	movq	%rsi, 32(%rcx)
	movq	%rdx, 40(%rcx)
	.loc	31 404 6 is_stmt 1
	addq	$160, %rsp
	popq	%rbp
	retq
LBB78_5:
	.loc	31 401 13
	leaq	l___unnamed_7(%rip), %rsi
	leaq	l___unnamed_8(%rip), %rcx
	xorl	%eax, %eax
	movl	%eax, %r8d
	leaq	-96(%rbp), %rdi
	movq	%rdi, -160(%rbp)
	movl	$1, %edx
	callq	__ZN4core3fmt9Arguments6new_v117h48403f8d4188ff41E
	movq	-160(%rbp), %rdi
	leaq	l___unnamed_9(%rip), %rsi
	callq	__ZN4core9panicking9panic_fmt17h9b5d807e24bcaaedE
Ltmp537:
Lfunc_end78:
	.cfi_endproc

	.globl	__ZN4core3mem12maybe_uninit20MaybeUninit$LT$T$GT$16assume_init_drop17h22c9392f1e53532cE
	.p2align	4, 0x90
__ZN4core3mem12maybe_uninit20MaybeUninit$LT$T$GT$16assume_init_drop17h22c9392f1e53532cE:
Lfunc_begin79:
	.file	36 "/rustc/2c8cc343237b8f7d5a3c3703e3a87f2eb2c54a74/library/core/src/mem" "maybe_uninit.rs"
	.loc	36 724 0
	.cfi_startproc
	pushq	%rbp
	.cfi_def_cfa_offset 16
	.cfi_offset %rbp, -16
	movq	%rsp, %rbp
	.cfi_def_cfa_register %rbp
	subq	$16, %rsp
	movq	%rdi, -16(%rbp)
Ltmp538:
	.loc	36 728 37 prologue_end
	movq	%rdi, -8(%rbp)
	.loc	36 728 18 is_stmt 0
	callq	__ZN4core3ptr47drop_in_place$LT$std..ffi..os_str..OsString$GT$17hfde4b8fe2086029aE
	.loc	36 729 6 is_stmt 1
	addq	$16, %rsp
	popq	%rbp
	retq
Ltmp539:
Lfunc_end79:
	.cfi_endproc

	.globl	__ZN4core3mem12maybe_uninit20MaybeUninit$LT$T$GT$16assume_init_drop17hbaf1bdeb1ab423b4E
	.p2align	4, 0x90
__ZN4core3mem12maybe_uninit20MaybeUninit$LT$T$GT$16assume_init_drop17hbaf1bdeb1ab423b4E:
Lfunc_begin80:
	.loc	36 724 0
	.cfi_startproc
	pushq	%rbp
	.cfi_def_cfa_offset 16
	.cfi_offset %rbp, -16
	movq	%rsp, %rbp
	.cfi_def_cfa_register %rbp
	subq	$16, %rsp
	movq	%rdi, -16(%rbp)
Ltmp540:
	.loc	36 728 37 prologue_end
	movq	%rdi, -8(%rbp)
	.loc	36 728 18 is_stmt 0
	callq	__ZN4core3ptr75drop_in_place$LT$core..option..Option$LT$std..ffi..os_str..OsString$GT$$GT$17hb6dd5fea1da8e3b5E
	.loc	36 729 6 is_stmt 1
	addq	$16, %rsp
	popq	%rbp
	retq
Ltmp541:
Lfunc_end80:
	.cfi_endproc

	.globl	__ZN4core3mem7replace17h18f3d4e852375c41E
	.p2align	4, 0x90
__ZN4core3mem7replace17h18f3d4e852375c41E:
Lfunc_begin81:
	.file	37 "/rustc/2c8cc343237b8f7d5a3c3703e3a87f2eb2c54a74/library/core/src/mem" "mod.rs"
	.loc	37 905 0
	.cfi_startproc
	pushq	%rbp
	.cfi_def_cfa_offset 16
	.cfi_offset %rbp, -16
	movq	%rsp, %rbp
	.cfi_def_cfa_register %rbp
	subq	$208, %rsp
	movq	%rdx, -208(%rbp)
Ltmp542:
	movq	%rsi, -200(%rbp)
	movq	%rdi, -192(%rbp)
	movq	%rdi, -184(%rbp)
	movq	%rsi, -48(%rbp)
Ltmp543:
	.loc	37 910 32 prologue_end
	movq	%rsi, -40(%rbp)
Ltmp544:
	.loc	8 1157 34
	leaq	-144(%rbp), %rax
	movq	%rax, -32(%rbp)
	.loc	8 1157 9 is_stmt 0
	movq	(%rsi), %rax
	movq	%rax, -144(%rbp)
	movq	8(%rsi), %rax
	movq	%rax, -136(%rbp)
	movq	16(%rsi), %rax
	movq	%rax, -128(%rbp)
	movq	24(%rsi), %rax
	movq	%rax, -120(%rbp)
	.loc	8 1158 9 is_stmt 1
	movq	-144(%rbp), %rax
	movq	%rax, -112(%rbp)
	movq	-136(%rbp), %rax
	movq	%rax, -104(%rbp)
	movq	-128(%rbp), %rax
	movq	%rax, -96(%rbp)
	movq	-120(%rbp), %rax
	movq	%rax, -88(%rbp)
Ltmp545:
	.loc	8 0 9 is_stmt 0
	movq	-184(%rbp), %rax
	movq	-200(%rbp), %rcx
	movq	-208(%rbp), %rdx
	movq	-192(%rbp), %rsi
Ltmp546:
	.loc	36 627 38 is_stmt 1
	movq	-112(%rbp), %rdi
	movq	%rdi, -80(%rbp)
	movq	-104(%rbp), %rdi
	movq	%rdi, -72(%rbp)
	movq	-96(%rbp), %rdi
	movq	%rdi, -64(%rbp)
	movq	-88(%rbp), %rdi
	movq	%rdi, -56(%rbp)
Ltmp547:
	.loc	21 89 9
	movq	-80(%rbp), %rdi
	movq	%rdi, (%rsi)
	movq	-72(%rbp), %rdi
	movq	%rdi, 8(%rsi)
	movq	-64(%rbp), %rdi
	movq	%rdi, 16(%rsi)
	movq	-56(%rbp), %rdi
	movq	%rdi, 24(%rsi)
Ltmp548:
	.loc	37 911 20
	movq	%rcx, -8(%rbp)
	.loc	37 911 26 is_stmt 0
	movq	(%rdx), %rsi
	movq	%rsi, -176(%rbp)
	movq	8(%rdx), %rsi
	movq	%rsi, -168(%rbp)
	movq	16(%rdx), %rsi
	movq	%rsi, -160(%rbp)
	movq	24(%rdx), %rdx
	movq	%rdx, -152(%rbp)
Ltmp549:
	.loc	8 1354 9 is_stmt 1
	movq	-176(%rbp), %rdx
	movq	%rdx, (%rcx)
	movq	-168(%rbp), %rdx
	movq	%rdx, 8(%rcx)
	movq	-160(%rbp), %rdx
	movq	%rdx, 16(%rcx)
	movq	-152(%rbp), %rdx
	movq	%rdx, 24(%rcx)
Ltmp550:
	.loc	37 914 2
	addq	$208, %rsp
	popq	%rbp
	retq
Ltmp551:
Lfunc_end81:
	.cfi_endproc

	.globl	__ZN4core3mem7replace17hc69d40eea562d6f6E
	.p2align	4, 0x90
__ZN4core3mem7replace17hc69d40eea562d6f6E:
Lfunc_begin82:
	.loc	37 905 0
	.cfi_startproc
	pushq	%rbp
	.cfi_def_cfa_offset 16
	.cfi_offset %rbp, -16
	movq	%rsp, %rbp
	.cfi_def_cfa_register %rbp
	subq	$184, %rsp
	movq	%rdi, -184(%rbp)
	movq	%rsi, -176(%rbp)
	movq	%rdx, -168(%rbp)
	movq	%rdi, -112(%rbp)
	movq	%rsi, -104(%rbp)
	movq	%rdx, -96(%rbp)
Ltmp552:
	.loc	37 910 32 prologue_end
	movq	%rdi, -88(%rbp)
Ltmp553:
	.loc	8 1157 34
	leaq	-128(%rbp), %rax
	movq	%rax, -80(%rbp)
	.loc	8 1157 9 is_stmt 0
	movq	(%rdi), %rax
	movq	%rax, -128(%rbp)
	movq	8(%rdi), %rax
	movq	%rax, -120(%rbp)
	.loc	8 1158 9 is_stmt 1
	movq	-128(%rbp), %rcx
	movq	%rcx, -160(%rbp)
	movq	-120(%rbp), %rax
	movq	%rax, -152(%rbp)
	movq	%rcx, -72(%rbp)
	movq	%rax, -64(%rbp)
	.loc	8 0 9 is_stmt 0
	movq	-152(%rbp), %rdx
	movq	-160(%rbp), %rax
	movq	-184(%rbp), %rcx
	movq	-168(%rbp), %rsi
	movq	-176(%rbp), %rdi
Ltmp554:
	.loc	36 627 38 is_stmt 1
	movq	%rax, -40(%rbp)
	movq	%rdx, -32(%rbp)
Ltmp555:
	.loc	21 89 9
	movq	%rax, -24(%rbp)
	movq	%rdx, -16(%rbp)
Ltmp556:
	.loc	37 911 20
	movq	%rcx, -8(%rbp)
	.loc	37 911 26 is_stmt 0
	movq	%rdi, -144(%rbp)
	movq	%rsi, -136(%rbp)
Ltmp557:
	.loc	8 1354 9 is_stmt 1
	movq	-144(%rbp), %rsi
	movq	-136(%rbp), %rdi
	movq	%rdi, 8(%rcx)
	movq	%rsi, (%rcx)
Ltmp558:
	.loc	37 914 2
	addq	$184, %rsp
	popq	%rbp
	retq
Ltmp559:
Lfunc_end82:
	.cfi_endproc

	.globl	__ZN4core3mem7replace17he13a586a3c186034E
	.p2align	4, 0x90
__ZN4core3mem7replace17he13a586a3c186034E:
Lfunc_begin83:
	.loc	37 905 0
	.cfi_startproc
	pushq	%rbp
	.cfi_def_cfa_offset 16
	.cfi_offset %rbp, -16
	movq	%rsp, %rbp
	.cfi_def_cfa_register %rbp
	subq	$120, %rsp
	movq	%rdi, -120(%rbp)
	movq	%rsi, -112(%rbp)
	movq	%rdi, -80(%rbp)
	movq	%rsi, -72(%rbp)
Ltmp560:
	.loc	37 910 32 prologue_end
	movq	%rdi, -64(%rbp)
Ltmp561:
	.loc	8 1157 34
	leaq	-88(%rbp), %rax
	movq	%rax, -56(%rbp)
	.loc	8 1157 9 is_stmt 0
	movq	(%rdi), %rax
	movq	%rax, -88(%rbp)
	.loc	8 1158 9 is_stmt 1
	movq	-88(%rbp), %rax
	movq	%rax, -104(%rbp)
	movq	%rax, -48(%rbp)
	.loc	8 0 9 is_stmt 0
	movq	-104(%rbp), %rax
	movq	-120(%rbp), %rcx
	movq	-112(%rbp), %rdx
Ltmp562:
	.loc	36 627 38 is_stmt 1
	movq	%rax, -24(%rbp)
Ltmp563:
	.loc	21 89 9
	movq	%rax, -16(%rbp)
Ltmp564:
	.loc	37 911 20
	movq	%rcx, -8(%rbp)
	.loc	37 911 26 is_stmt 0
	movq	%rdx, -96(%rbp)
Ltmp565:
	.loc	8 1354 9 is_stmt 1
	movq	-96(%rbp), %rdx
	movq	%rdx, (%rcx)
Ltmp566:
	.loc	37 914 2
	addq	$120, %rsp
	popq	%rbp
	retq
Ltmp567:
Lfunc_end83:
	.cfi_endproc

	.globl	__ZN4core3ops12control_flow24ControlFlow$LT$B$C$C$GT$11break_value17hc237d80d6e3bf10fE
	.p2align	4, 0x90
__ZN4core3ops12control_flow24ControlFlow$LT$B$C$C$GT$11break_value17hc237d80d6e3bf10fE:
Lfunc_begin84:
	.loc	4 183 0
	.cfi_startproc
	pushq	%rbp
	.cfi_def_cfa_offset 16
	.cfi_offset %rbp, -16
	movq	%rsp, %rbp
	.cfi_def_cfa_register %rbp
	subq	$48, %rsp
	movq	%rdi, -48(%rbp)
	movq	%rsi, -40(%rbp)
Ltmp568:
	.loc	4 184 15 prologue_end
	movq	-48(%rbp), %rdx
	movl	$1, %eax
	xorl	%ecx, %ecx
	cmpq	$0, %rdx
	cmoveq	%rcx, %rax
	.loc	4 184 9 is_stmt 0
	cmpq	$0, %rax
	jne	LBB84_2
	.loc	4 185 42 is_stmt 1
	movq	$0, -32(%rbp)
	jmp	LBB84_3
LBB84_2:
	.loc	4 186 32
	movq	-48(%rbp), %rcx
	movq	-40(%rbp), %rax
	movq	%rcx, -16(%rbp)
	movq	%rax, -8(%rbp)
Ltmp569:
	.loc	4 186 38 is_stmt 0
	movq	%rcx, -32(%rbp)
	movq	%rax, -24(%rbp)
Ltmp570:
LBB84_3:
	.loc	4 188 5 is_stmt 1
	movq	-48(%rbp), %rdx
	movl	$1, %eax
	xorl	%ecx, %ecx
	cmpq	$0, %rdx
	cmoveq	%rcx, %rax
	cmpq	$1, %rax
	jne	LBB84_5
LBB84_4:
	.loc	4 188 6 is_stmt 0
	movq	-32(%rbp), %rax
	movq	-24(%rbp), %rdx
	addq	$48, %rsp
	popq	%rbp
	retq
LBB84_5:
	.loc	4 188 5
	jmp	LBB84_4
Ltmp571:
Lfunc_end84:
	.cfi_endproc

	.p2align	4, 0x90
__ZN4core3ops8function5FnMut8call_mut17h6149c33c6c2143fcE:
Lfunc_begin85:
	.file	38 "/rustc/2c8cc343237b8f7d5a3c3703e3a87f2eb2c54a74/library/core/src/ops" "function.rs"
	.loc	38 166 0 is_stmt 1
	.cfi_startproc
	pushq	%rbp
	.cfi_def_cfa_offset 16
	.cfi_offset %rbp, -16
	movq	%rsp, %rbp
	.cfi_def_cfa_register %rbp
	subq	$48, %rsp
	movq	%rsi, -40(%rbp)
	movq	%rdx, -32(%rbp)
	movq	%rcx, -24(%rbp)
	movq	%r8, -16(%rbp)
	movq	%rdi, -8(%rbp)
Ltmp572:
	.loc	38 166 5 prologue_end
	movq	-40(%rbp), %rdi
	movq	-32(%rbp), %rsi
	movq	-24(%rbp), %rdx
	movq	-16(%rbp), %rcx
	callq	__ZN4core4iter6traits8iterator8Iterator4last4some17hf3a7430ad9be6c0aE
	addq	$48, %rsp
	popq	%rbp
	retq
Ltmp573:
Lfunc_end85:
	.cfi_endproc

	.globl	__ZN4core3ops8function5impls79_$LT$impl$u20$core..ops..function..FnMut$LT$A$GT$$u20$for$u20$$RF$mut$u20$F$GT$8call_mut17hc5f347af0fad8fc2E
	.p2align	4, 0x90
__ZN4core3ops8function5impls79_$LT$impl$u20$core..ops..function..FnMut$LT$A$GT$$u20$for$u20$$RF$mut$u20$F$GT$8call_mut17hc5f347af0fad8fc2E:
Lfunc_begin86:
	.loc	38 297 0
	.cfi_startproc
	pushq	%rbp
	.cfi_def_cfa_offset 16
	.cfi_offset %rbp, -16
	movq	%rsp, %rbp
	.cfi_def_cfa_register %rbp
	subq	$16, %rsp
	movq	%rsi, -16(%rbp)
	movq	%rdi, -8(%rbp)
Ltmp574:
	.loc	38 298 13 prologue_end
	movq	(%rdi), %rdi
	.loc	38 298 30 is_stmt 0
	movq	-16(%rbp), %rsi
	.loc	38 298 13
	callq	__ZN13version_check35version_and_date_from_rustc_version28_$u7b$$u7b$closure$u7d$$u7d$17h4f157a370816db81E
	.loc	38 299 10 is_stmt 1
	andb	$1, %al
	movzbl	%al, %eax
	addq	$16, %rsp
	popq	%rbp
	retq
Ltmp575:
Lfunc_end86:
	.cfi_endproc

	.globl	__ZN4core3ops8function5impls80_$LT$impl$u20$core..ops..function..FnOnce$LT$A$GT$$u20$for$u20$$RF$mut$u20$F$GT$9call_once17h489a65e9d5749095E
	.p2align	4, 0x90
__ZN4core3ops8function5impls80_$LT$impl$u20$core..ops..function..FnOnce$LT$A$GT$$u20$for$u20$$RF$mut$u20$F$GT$9call_once17h489a65e9d5749095E:
Lfunc_begin87:
	.loc	38 309 0
	.cfi_startproc
	pushq	%rbp
	.cfi_def_cfa_offset 16
	.cfi_offset %rbp, -16
	movq	%rsp, %rbp
	.cfi_def_cfa_register %rbp
	subq	$48, %rsp
	movq	%rsi, -40(%rbp)
	movq	%rdx, -32(%rbp)
	movq	%rdi, -16(%rbp)
Ltmp576:
	.loc	38 310 30 prologue_end
	movq	-40(%rbp), %rsi
	movq	-32(%rbp), %rdx
	.loc	38 310 13 is_stmt 0
	callq	__ZN13version_check7version7Version5parse28_$u7b$$u7b$closure$u7d$$u7d$17h72d2254101859412E
	movl	%eax, -4(%rbp)
	movl	-4(%rbp), %eax
	movl	%eax, -24(%rbp)
	.loc	38 311 10 is_stmt 1
	movl	-24(%rbp), %eax
	addq	$48, %rsp
	popq	%rbp
	retq
Ltmp577:
Lfunc_end87:
	.cfi_endproc

	.globl	__ZN4core3ops8function5impls80_$LT$impl$u20$core..ops..function..FnOnce$LT$A$GT$$u20$for$u20$$RF$mut$u20$F$GT$9call_once17h89b65557950bf0b4E
	.p2align	4, 0x90
__ZN4core3ops8function5impls80_$LT$impl$u20$core..ops..function..FnOnce$LT$A$GT$$u20$for$u20$$RF$mut$u20$F$GT$9call_once17h89b65557950bf0b4E:
Lfunc_begin88:
	.loc	38 309 0
	.cfi_startproc
	pushq	%rbp
	.cfi_def_cfa_offset 16
	.cfi_offset %rbp, -16
	movq	%rsp, %rbp
	.cfi_def_cfa_register %rbp
	subq	$48, %rsp
	movq	%rsi, -40(%rbp)
	movq	%rdx, -32(%rbp)
	movq	%rdi, -16(%rbp)
Ltmp578:
	.loc	38 310 30 prologue_end
	movq	-40(%rbp), %rsi
	movq	-32(%rbp), %rdx
	.loc	38 310 13 is_stmt 0
	callq	__ZN13version_check4date4Date5parse28_$u7b$$u7b$closure$u7d$$u7d$17h1bced90555edcf0aE
	movl	%eax, -4(%rbp)
	movl	-4(%rbp), %eax
	movl	%eax, -24(%rbp)
	.loc	38 311 10 is_stmt 1
	movl	-24(%rbp), %eax
	addq	$48, %rsp
	popq	%rbp
	retq
Ltmp579:
Lfunc_end88:
	.cfi_endproc

	.globl	__ZN4core3ops8function5impls80_$LT$impl$u20$core..ops..function..FnOnce$LT$A$GT$$u20$for$u20$$RF$mut$u20$F$GT$9call_once17ha7390fe76f7293e9E
	.p2align	4, 0x90
__ZN4core3ops8function5impls80_$LT$impl$u20$core..ops..function..FnOnce$LT$A$GT$$u20$for$u20$$RF$mut$u20$F$GT$9call_once17ha7390fe76f7293e9E:
Lfunc_begin89:
	.loc	38 309 0
	.cfi_startproc
	pushq	%rbp
	.cfi_def_cfa_offset 16
	.cfi_offset %rbp, -16
	movq	%rsp, %rbp
	.cfi_def_cfa_register %rbp
	subq	$32, %rsp
	movq	%rsi, -24(%rbp)
	movq	%rdx, -16(%rbp)
	movq	%rdi, -8(%rbp)
Ltmp580:
	.loc	38 310 30 prologue_end
	movq	-24(%rbp), %rsi
	movq	-16(%rbp), %rdx
	.loc	38 310 13 is_stmt 0
	callq	__ZN95_$LT$core..str..LinesAnyMap$u20$as$u20$core..ops..function..FnMut$LT$$LP$$RF$str$C$$RP$$GT$$GT$8call_mut17hb9a81239de69f843E
	.loc	38 311 10 is_stmt 1
	addq	$32, %rsp
	popq	%rbp
	retq
Ltmp581:
Lfunc_end89:
	.cfi_endproc

	.p2align	4, 0x90
__ZN4core3ops8function6FnOnce9call_once17h05586af19215c781E:
Lfunc_begin90:
	.loc	38 250 0
	.cfi_startproc
	pushq	%rbp
	.cfi_def_cfa_offset 16
	.cfi_offset %rbp, -16
	movq	%rsp, %rbp
	.cfi_def_cfa_register %rbp
	subq	$32, %rsp
	movq	%rdi, -24(%rbp)
	movq	%rsi, -16(%rbp)
Ltmp582:
	.loc	38 250 5 prologue_end
	movq	-24(%rbp), %rdi
	movq	-16(%rbp), %rsi
	callq	__ZN4core3cmp5impls50_$LT$impl$u20$core..cmp..Ord$u20$for$u20$usize$GT$3cmp17hfa1055f97c1cc2efE
	addq	$32, %rsp
	popq	%rbp
	retq
Ltmp583:
Lfunc_end90:
	.cfi_endproc

	.globl	__ZN4core3ptr101drop_in_place$LT$std..io..error..ErrorData$LT$alloc..boxed..Box$LT$std..io..error..Custom$GT$$GT$$GT$17hb28828b7c0a60d2fE
	.p2align	4, 0x90
__ZN4core3ptr101drop_in_place$LT$std..io..error..ErrorData$LT$alloc..boxed..Box$LT$std..io..error..Custom$GT$$GT$$GT$17hb28828b7c0a60d2fE:
Lfunc_begin91:
	.loc	8 490 0
	.cfi_startproc
	pushq	%rbp
	.cfi_def_cfa_offset 16
	.cfi_offset %rbp, -16
	movq	%rsp, %rbp
	.cfi_def_cfa_register %rbp
	subq	$16, %rsp
	movq	%rdi, -16(%rbp)
	movq	%rdi, -8(%rbp)
Ltmp584:
	.loc	8 490 1 prologue_end
	movb	(%rdi), %al
	subb	$3, %al
	jb	LBB91_2
	jmp	LBB91_1
LBB91_1:
	.loc	8 0 1 is_stmt 0
	movq	-16(%rbp), %rdi
	.loc	8 490 1
	addq	$8, %rdi
	callq	__ZN4core3ptr68drop_in_place$LT$alloc..boxed..Box$LT$std..io..error..Custom$GT$$GT$17h4c72a5dfcc593033E
LBB91_2:
	addq	$16, %rsp
	popq	%rbp
	retq
Ltmp585:
Lfunc_end91:
	.cfi_endproc

	.globl	__ZN4core3ptr118drop_in_place$LT$alloc..boxed..Box$LT$dyn$u20$core..error..Error$u2b$core..marker..Send$u2b$core..marker..Sync$GT$$GT$17h2e74cf5ca2526834E
	.p2align	4, 0x90
__ZN4core3ptr118drop_in_place$LT$alloc..boxed..Box$LT$dyn$u20$core..error..Error$u2b$core..marker..Send$u2b$core..marker..Sync$GT$$GT$17h2e74cf5ca2526834E:
Lfunc_begin92:
	.loc	8 490 0 is_stmt 1
	.cfi_startproc
	.cfi_personality 155, _rust_eh_personality
	.cfi_lsda 16, Lexception14
	pushq	%rbp
	.cfi_def_cfa_offset 16
	.cfi_offset %rbp, -16
	movq	%rsp, %rbp
	.cfi_def_cfa_register %rbp
	subq	$32, %rsp
	movq	%rdi, %rax
	movq	%rax, -32(%rbp)
	movq	%rax, -24(%rbp)
Ltmp592:
	.loc	8 490 1 prologue_end
	movq	(%rax), %rdi
	movq	8(%rax), %rax
	movq	(%rax), %rax
Ltmp586:
	callq	*%rax
Ltmp587:
	jmp	LBB92_3
LBB92_1:
	.loc	8 0 1 is_stmt 0
	movq	-32(%rbp), %rax
	.loc	8 490 1
	movq	(%rax), %rdi
	movq	8(%rax), %rsi
Ltmp589:
	callq	__ZN5alloc5alloc8box_free17heef6e96de1acb23fE
Ltmp590:
	jmp	LBB92_5
LBB92_2:
Ltmp588:
	.loc	8 0 1
	movq	%rax, %rcx
	movl	%edx, %eax
	movq	%rcx, -16(%rbp)
	movl	%eax, -8(%rbp)
	jmp	LBB92_1
LBB92_3:
	movq	-32(%rbp), %rax
	.loc	8 490 1
	movq	(%rax), %rdi
	movq	8(%rax), %rsi
	callq	__ZN5alloc5alloc8box_free17heef6e96de1acb23fE
	addq	$32, %rsp
	popq	%rbp
	retq
LBB92_4:
Ltmp591:
	callq	__ZN4core9panicking19panic_cannot_unwind17h1fbca7e1d7f56ae1E
LBB92_5:
	movq	-16(%rbp), %rdi
	callq	__Unwind_Resume
Ltmp593:
Lfunc_end92:
	.cfi_endproc
	.section	__TEXT,__gcc_except_tab
	.p2align	2
GCC_except_table92:
Lexception14:
	.byte	255
	.byte	255
	.byte	1
	.uleb128 Lcst_end14-Lcst_begin14
Lcst_begin14:
	.uleb128 Ltmp586-Lfunc_begin92
	.uleb128 Ltmp587-Ltmp586
	.uleb128 Ltmp588-Lfunc_begin92
	.byte	0
	.uleb128 Ltmp589-Lfunc_begin92
	.uleb128 Ltmp590-Ltmp589
	.uleb128 Ltmp591-Lfunc_begin92
	.byte	0
	.uleb128 Ltmp590-Lfunc_begin92
	.uleb128 Lfunc_end92-Ltmp590
	.byte	0
	.byte	0
Lcst_end14:
	.p2align	2

	.section	__TEXT,__text,regular,pure_instructions
	.globl	__ZN4core3ptr130drop_in_place$LT$$LP$core..option..Option$LT$alloc..string..String$GT$$C$core..option..Option$LT$alloc..string..String$GT$$RP$$GT$17h277cd4e004822a54E
	.p2align	4, 0x90
__ZN4core3ptr130drop_in_place$LT$$LP$core..option..Option$LT$alloc..string..String$GT$$C$core..option..Option$LT$alloc..string..String$GT$$RP$$GT$17h277cd4e004822a54E:
Lfunc_begin93:
	.loc	8 490 0 is_stmt 1
	.cfi_startproc
	.cfi_personality 155, _rust_eh_personality
	.cfi_lsda 16, Lexception15
	pushq	%rbp
	.cfi_def_cfa_offset 16
	.cfi_offset %rbp, -16
	movq	%rsp, %rbp
	.cfi_def_cfa_register %rbp
	subq	$32, %rsp
	movq	%rdi, -32(%rbp)
	movq	%rdi, -24(%rbp)
Ltmp594:
Ltmp600:
	.loc	8 490 1 prologue_end
	callq	__ZN4core3ptr70drop_in_place$LT$core..option..Option$LT$alloc..string..String$GT$$GT$17h1d2bdbd6f3bdfb15E
Ltmp595:
	jmp	LBB93_3
LBB93_1:
	.loc	8 0 1 is_stmt 0
	movq	-32(%rbp), %rdi
	.loc	8 490 1
	addq	$24, %rdi
Ltmp597:
	callq	__ZN4core3ptr70drop_in_place$LT$core..option..Option$LT$alloc..string..String$GT$$GT$17h1d2bdbd6f3bdfb15E
Ltmp598:
	jmp	LBB93_5
LBB93_2:
Ltmp596:
	.loc	8 0 1
	movq	%rax, %rcx
	movl	%edx, %eax
	movq	%rcx, -16(%rbp)
	movl	%eax, -8(%rbp)
	jmp	LBB93_1
LBB93_3:
	movq	-32(%rbp), %rdi
	.loc	8 490 1
	addq	$24, %rdi
	callq	__ZN4core3ptr70drop_in_place$LT$core..option..Option$LT$alloc..string..String$GT$$GT$17h1d2bdbd6f3bdfb15E
	addq	$32, %rsp
	popq	%rbp
	retq
LBB93_4:
Ltmp599:
	callq	__ZN4core9panicking19panic_cannot_unwind17h1fbca7e1d7f56ae1E
LBB93_5:
	movq	-16(%rbp), %rdi
	callq	__Unwind_Resume
Ltmp601:
Lfunc_end93:
	.cfi_endproc
	.section	__TEXT,__gcc_except_tab
	.p2align	2
GCC_except_table93:
Lexception15:
	.byte	255
	.byte	255
	.byte	1
	.uleb128 Lcst_end15-Lcst_begin15
Lcst_begin15:
	.uleb128 Ltmp594-Lfunc_begin93
	.uleb128 Ltmp595-Ltmp594
	.uleb128 Ltmp596-Lfunc_begin93
	.byte	0
	.uleb128 Ltmp597-Lfunc_begin93
	.uleb128 Ltmp598-Ltmp597
	.uleb128 Ltmp599-Lfunc_begin93
	.byte	0
	.uleb128 Ltmp598-Lfunc_begin93
	.uleb128 Lfunc_end93-Ltmp598
	.byte	0
	.byte	0
Lcst_end15:
	.p2align	2

	.section	__TEXT,__text,regular,pure_instructions
	.globl	__ZN4core3ptr152drop_in_place$LT$alloc..collections..btree..map..BTreeMap$LT$std..ffi..os_str..OsString$C$core..option..Option$LT$std..ffi..os_str..OsString$GT$$GT$$GT$17h89eb49ebe9c7607bE
	.p2align	4, 0x90
__ZN4core3ptr152drop_in_place$LT$alloc..collections..btree..map..BTreeMap$LT$std..ffi..os_str..OsString$C$core..option..Option$LT$std..ffi..os_str..OsString$GT$$GT$$GT$17h89eb49ebe9c7607bE:
Lfunc_begin94:
	.loc	8 490 0 is_stmt 1
	.cfi_startproc
	pushq	%rbp
	.cfi_def_cfa_offset 16
	.cfi_offset %rbp, -16
	movq	%rsp, %rbp
	.cfi_def_cfa_register %rbp
	subq	$16, %rsp
	movq	%rdi, -8(%rbp)
Ltmp602:
	.loc	8 490 1 prologue_end
	callq	__ZN99_$LT$alloc..collections..btree..map..BTreeMap$LT$K$C$V$C$A$GT$$u20$as$u20$core..ops..drop..Drop$GT$4drop17h34852e775f3498a2E
	addq	$16, %rsp
	popq	%rbp
	retq
Ltmp603:
Lfunc_end94:
	.cfi_endproc

	.globl	__ZN4core3ptr152drop_in_place$LT$alloc..collections..btree..map..IntoIter$LT$std..ffi..os_str..OsString$C$core..option..Option$LT$std..ffi..os_str..OsString$GT$$GT$$GT$17h9b8eeb0836dc2478E
	.p2align	4, 0x90
__ZN4core3ptr152drop_in_place$LT$alloc..collections..btree..map..IntoIter$LT$std..ffi..os_str..OsString$C$core..option..Option$LT$std..ffi..os_str..OsString$GT$$GT$$GT$17h9b8eeb0836dc2478E:
Lfunc_begin95:
	.loc	8 490 0
	.cfi_startproc
	pushq	%rbp
	.cfi_def_cfa_offset 16
	.cfi_offset %rbp, -16
	movq	%rsp, %rbp
	.cfi_def_cfa_register %rbp
	subq	$16, %rsp
	movq	%rdi, -8(%rbp)
Ltmp604:
	.loc	8 490 1 prologue_end
	callq	__ZN99_$LT$alloc..collections..btree..map..IntoIter$LT$K$C$V$C$A$GT$$u20$as$u20$core..ops..drop..Drop$GT$4drop17h14a95f5fc689e46fE
	addq	$16, %rsp
	popq	%rbp
	retq
Ltmp605:
Lfunc_end95:
	.cfi_endproc

	.globl	__ZN4core3ptr158drop_in_place$LT$core..option..Option$LT$$LP$core..option..Option$LT$alloc..string..String$GT$$C$core..option..Option$LT$alloc..string..String$GT$$RP$$GT$$GT$17h6a34efa85649f2b1E
	.p2align	4, 0x90
__ZN4core3ptr158drop_in_place$LT$core..option..Option$LT$$LP$core..option..Option$LT$alloc..string..String$GT$$C$core..option..Option$LT$alloc..string..String$GT$$RP$$GT$$GT$17h6a34efa85649f2b1E:
Lfunc_begin96:
	.loc	8 490 0
	.cfi_startproc
	pushq	%rbp
	.cfi_def_cfa_offset 16
	.cfi_offset %rbp, -16
	movq	%rsp, %rbp
	.cfi_def_cfa_register %rbp
	subq	$16, %rsp
	movq	%rdi, -16(%rbp)
	movq	%rdi, -8(%rbp)
Ltmp606:
	.loc	8 490 1 prologue_end
	cmpq	$0, (%rdi)
	jne	LBB96_2
LBB96_1:
	addq	$16, %rsp
	popq	%rbp
	retq
LBB96_2:
	.loc	8 0 1 is_stmt 0
	movq	-16(%rbp), %rdi
	.loc	8 490 1
	addq	$8, %rdi
	callq	__ZN4core3ptr130drop_in_place$LT$$LP$core..option..Option$LT$alloc..string..String$GT$$C$core..option..Option$LT$alloc..string..String$GT$$RP$$GT$17h277cd4e004822a54E
	jmp	LBB96_1
Ltmp607:
Lfunc_end96:
	.cfi_endproc

	.globl	__ZN4core3ptr203drop_in_place$LT$dyn$u20$core..ops..function..FnMut$LT$$LP$$RP$$GT$$u2b$Output$u20$$u3d$$u20$core..result..Result$LT$$LP$$RP$$C$std..io..error..Error$GT$$u2b$core..marker..Send$u2b$core..marker..Sync$GT$17hb83fa21bb43ecfdbE
	.p2align	4, 0x90
__ZN4core3ptr203drop_in_place$LT$dyn$u20$core..ops..function..FnMut$LT$$LP$$RP$$GT$$u2b$Output$u20$$u3d$$u20$core..result..Result$LT$$LP$$RP$$C$std..io..error..Error$GT$$u2b$core..marker..Send$u2b$core..marker..Sync$GT$17hb83fa21bb43ecfdbE:
Lfunc_begin97:
	.loc	8 490 0 is_stmt 1
	.cfi_startproc
	pushq	%rbp
	.cfi_def_cfa_offset 16
	.cfi_offset %rbp, -16
	movq	%rsp, %rbp
	.cfi_def_cfa_register %rbp
	subq	$16, %rsp
	movq	%rdi, -16(%rbp)
	movq	%rsi, -8(%rbp)
Ltmp608:
	.loc	8 490 1 prologue_end
	callq	*(%rsi)
	addq	$16, %rsp
	popq	%rbp
	retq
Ltmp609:
Lfunc_end97:
	.cfi_endproc

	.globl	__ZN4core3ptr228drop_in_place$LT$alloc..boxed..Box$LT$dyn$u20$core..ops..function..FnMut$LT$$LP$$RP$$GT$$u2b$Output$u20$$u3d$$u20$core..result..Result$LT$$LP$$RP$$C$std..io..error..Error$GT$$u2b$core..marker..Send$u2b$core..marker..Sync$GT$$GT$17h31b932fc36f88a4cE
	.p2align	4, 0x90
__ZN4core3ptr228drop_in_place$LT$alloc..boxed..Box$LT$dyn$u20$core..ops..function..FnMut$LT$$LP$$RP$$GT$$u2b$Output$u20$$u3d$$u20$core..result..Result$LT$$LP$$RP$$C$std..io..error..Error$GT$$u2b$core..marker..Send$u2b$core..marker..Sync$GT$$GT$17h31b932fc36f88a4cE:
Lfunc_begin98:
	.loc	8 490 0
	.cfi_startproc
	.cfi_personality 155, _rust_eh_personality
	.cfi_lsda 16, Lexception16
	pushq	%rbp
	.cfi_def_cfa_offset 16
	.cfi_offset %rbp, -16
	movq	%rsp, %rbp
	.cfi_def_cfa_register %rbp
	subq	$32, %rsp
	movq	%rdi, %rax
	movq	%rax, -32(%rbp)
	movq	%rax, -24(%rbp)
Ltmp616:
	.loc	8 490 1 prologue_end
	movq	(%rax), %rdi
	movq	8(%rax), %rax
	movq	(%rax), %rax
Ltmp610:
	callq	*%rax
Ltmp611:
	jmp	LBB98_3
LBB98_1:
	.loc	8 0 1 is_stmt 0
	movq	-32(%rbp), %rax
	.loc	8 490 1
	movq	(%rax), %rdi
	movq	8(%rax), %rsi
Ltmp613:
	callq	__ZN5alloc5alloc8box_free17hf5bd53df7db8eb5fE
Ltmp614:
	jmp	LBB98_5
LBB98_2:
Ltmp612:
	.loc	8 0 1
	movq	%rax, %rcx
	movl	%edx, %eax
	movq	%rcx, -16(%rbp)
	movl	%eax, -8(%rbp)
	jmp	LBB98_1
LBB98_3:
	movq	-32(%rbp), %rax
	.loc	8 490 1
	movq	(%rax), %rdi
	movq	8(%rax), %rsi
	callq	__ZN5alloc5alloc8box_free17hf5bd53df7db8eb5fE
	addq	$32, %rsp
	popq	%rbp
	retq
LBB98_4:
Ltmp615:
	callq	__ZN4core9panicking19panic_cannot_unwind17h1fbca7e1d7f56ae1E
LBB98_5:
	movq	-16(%rbp), %rdi
	callq	__Unwind_Resume
Ltmp617:
Lfunc_end98:
	.cfi_endproc
	.section	__TEXT,__gcc_except_tab
	.p2align	2
GCC_except_table98:
Lexception16:
	.byte	255
	.byte	255
	.byte	1
	.uleb128 Lcst_end16-Lcst_begin16
Lcst_begin16:
	.uleb128 Ltmp610-Lfunc_begin98
	.uleb128 Ltmp611-Ltmp610
	.uleb128 Ltmp612-Lfunc_begin98
	.byte	0
	.uleb128 Ltmp613-Lfunc_begin98
	.uleb128 Ltmp614-Ltmp613
	.uleb128 Ltmp615-Lfunc_begin98
	.byte	0
	.uleb128 Ltmp614-Lfunc_begin98
	.uleb128 Lfunc_end98-Ltmp614
	.byte	0
	.byte	0
Lcst_end16:
	.p2align	2

	.section	__TEXT,__text,regular,pure_instructions
	.globl	__ZN4core3ptr238drop_in_place$LT$$u5b$alloc..boxed..Box$LT$dyn$u20$core..ops..function..FnMut$LT$$LP$$RP$$GT$$u2b$Output$u20$$u3d$$u20$core..result..Result$LT$$LP$$RP$$C$std..io..error..Error$GT$$u2b$core..marker..Send$u2b$core..marker..Sync$GT$$u5d$$GT$17h2c7ef776659d0550E
	.p2align	4, 0x90
__ZN4core3ptr238drop_in_place$LT$$u5b$alloc..boxed..Box$LT$dyn$u20$core..ops..function..FnMut$LT$$LP$$RP$$GT$$u2b$Output$u20$$u3d$$u20$core..result..Result$LT$$LP$$RP$$C$std..io..error..Error$GT$$u2b$core..marker..Send$u2b$core..marker..Sync$GT$$u5d$$GT$17h2c7ef776659d0550E:
Lfunc_begin99:
	.loc	8 490 0 is_stmt 1
	.cfi_startproc
	.cfi_personality 155, _rust_eh_personality
	.cfi_lsda 16, Lexception17
	pushq	%rbp
	.cfi_def_cfa_offset 16
	.cfi_offset %rbp, -16
	movq	%rsp, %rbp
	.cfi_def_cfa_register %rbp
	subq	$80, %rsp
	movq	%rdi, -64(%rbp)
	movq	%rsi, -56(%rbp)
	movq	%rdi, -32(%rbp)
	movq	%rsi, -24(%rbp)
Ltmp629:
	.loc	8 490 1 prologue_end
	xorl	%eax, %eax
	testb	$1, %al
	jne	LBB99_1
	jmp	LBB99_2
LBB99_1:
	movq	$0, -48(%rbp)
	jmp	LBB99_11
LBB99_2:
	.loc	8 0 1 is_stmt 0
	movq	-56(%rbp), %rax
	movq	-64(%rbp), %rcx
	.loc	8 490 1
	movq	%rcx, -40(%rbp)
	shlq	$4, %rax
	addq	-40(%rbp), %rax
	movq	%rax, -72(%rbp)
LBB99_3:
	.loc	8 0 1
	movq	-72(%rbp), %rax
	.loc	8 490 1
	cmpq	%rax, -40(%rbp)
	je	LBB99_5
	movq	-40(%rbp), %rdi
	movq	%rdi, %rax
	addq	$16, %rax
	movq	%rax, -40(%rbp)
Ltmp618:
	callq	__ZN4core3ptr228drop_in_place$LT$alloc..boxed..Box$LT$dyn$u20$core..ops..function..FnMut$LT$$LP$$RP$$GT$$u2b$Output$u20$$u3d$$u20$core..result..Result$LT$$LP$$RP$$C$std..io..error..Error$GT$$u2b$core..marker..Send$u2b$core..marker..Sync$GT$$GT$17h31b932fc36f88a4cE
Ltmp619:
	jmp	LBB99_3
LBB99_5:
	addq	$80, %rsp
	popq	%rbp
	retq
LBB99_6:
	.loc	8 0 1
	movq	-72(%rbp), %rax
	.loc	8 490 1
	cmpq	%rax, -40(%rbp)
	je	LBB99_9
	jmp	LBB99_8
LBB99_7:
Ltmp620:
	.loc	8 0 1
	movq	%rax, %rcx
	movl	%edx, %eax
	movq	%rcx, -16(%rbp)
	movl	%eax, -8(%rbp)
	jmp	LBB99_6
LBB99_8:
	.loc	8 490 1
	movq	-40(%rbp), %rdi
	movq	%rdi, %rax
	addq	$16, %rax
	movq	%rax, -40(%rbp)
Ltmp621:
	callq	__ZN4core3ptr228drop_in_place$LT$alloc..boxed..Box$LT$dyn$u20$core..ops..function..FnMut$LT$$LP$$RP$$GT$$u2b$Output$u20$$u3d$$u20$core..result..Result$LT$$LP$$RP$$C$std..io..error..Error$GT$$u2b$core..marker..Send$u2b$core..marker..Sync$GT$$GT$17h31b932fc36f88a4cE
Ltmp622:
	jmp	LBB99_6
LBB99_9:
	movq	-16(%rbp), %rdi
	callq	__Unwind_Resume
LBB99_10:
Ltmp628:
	callq	__ZN4core9panicking19panic_cannot_unwind17h1fbca7e1d7f56ae1E
LBB99_11:
	.loc	8 0 1
	movq	-56(%rbp), %rax
	.loc	8 490 1
	cmpq	%rax, -48(%rbp)
	je	LBB99_5
	.loc	8 0 1
	movq	-64(%rbp), %rdi
	.loc	8 490 1
	movq	-48(%rbp), %rax
	movq	%rax, %rcx
	shlq	$4, %rcx
	addq	%rcx, %rdi
	incq	%rax
	movq	%rax, -48(%rbp)
Ltmp623:
	callq	__ZN4core3ptr228drop_in_place$LT$alloc..boxed..Box$LT$dyn$u20$core..ops..function..FnMut$LT$$LP$$RP$$GT$$u2b$Output$u20$$u3d$$u20$core..result..Result$LT$$LP$$RP$$C$std..io..error..Error$GT$$u2b$core..marker..Send$u2b$core..marker..Sync$GT$$GT$17h31b932fc36f88a4cE
Ltmp624:
	jmp	LBB99_11
LBB99_13:
	.loc	8 0 1
	movq	-56(%rbp), %rax
	.loc	8 490 1
	cmpq	%rax, -48(%rbp)
	je	LBB99_9
	jmp	LBB99_15
LBB99_14:
Ltmp625:
	.loc	8 0 1
	movq	%rax, %rcx
	movl	%edx, %eax
	movq	%rcx, -16(%rbp)
	movl	%eax, -8(%rbp)
	jmp	LBB99_13
LBB99_15:
	movq	-64(%rbp), %rdi
	.loc	8 490 1
	movq	-48(%rbp), %rax
	movq	%rax, %rcx
	shlq	$4, %rcx
	addq	%rcx, %rdi
	incq	%rax
	movq	%rax, -48(%rbp)
Ltmp626:
	callq	__ZN4core3ptr228drop_in_place$LT$alloc..boxed..Box$LT$dyn$u20$core..ops..function..FnMut$LT$$LP$$RP$$GT$$u2b$Output$u20$$u3d$$u20$core..result..Result$LT$$LP$$RP$$C$std..io..error..Error$GT$$u2b$core..marker..Send$u2b$core..marker..Sync$GT$$GT$17h31b932fc36f88a4cE
Ltmp627:
	jmp	LBB99_13
Ltmp630:
Lfunc_end99:
	.cfi_endproc
	.section	__TEXT,__gcc_except_tab
	.p2align	2
GCC_except_table99:
Lexception17:
	.byte	255
	.byte	255
	.byte	1
	.uleb128 Lcst_end17-Lcst_begin17
Lcst_begin17:
	.uleb128 Ltmp618-Lfunc_begin99
	.uleb128 Ltmp619-Ltmp618
	.uleb128 Ltmp620-Lfunc_begin99
	.byte	0
	.uleb128 Ltmp621-Lfunc_begin99
	.uleb128 Ltmp622-Ltmp621
	.uleb128 Ltmp628-Lfunc_begin99
	.byte	0
	.uleb128 Ltmp622-Lfunc_begin99
	.uleb128 Ltmp623-Ltmp622
	.byte	0
	.byte	0
	.uleb128 Ltmp623-Lfunc_begin99
	.uleb128 Ltmp624-Ltmp623
	.uleb128 Ltmp625-Lfunc_begin99
	.byte	0
	.uleb128 Ltmp626-Lfunc_begin99
	.uleb128 Ltmp627-Ltmp626
	.uleb128 Ltmp628-Lfunc_begin99
	.byte	0
Lcst_end17:
	.p2align	2

	.section	__TEXT,__text,regular,pure_instructions
	.globl	__ZN4core3ptr250drop_in_place$LT$$LT$alloc..collections..btree..map..IntoIter$LT$K$C$V$C$A$GT$$u20$as$u20$core..ops..drop..Drop$GT$..drop..DropGuard$LT$std..ffi..os_str..OsString$C$core..option..Option$LT$std..ffi..os_str..OsString$GT$$C$alloc..alloc..Global$GT$$GT$17h4f1b3bab276f7ff5E
	.p2align	4, 0x90
__ZN4core3ptr250drop_in_place$LT$$LT$alloc..collections..btree..map..IntoIter$LT$K$C$V$C$A$GT$$u20$as$u20$core..ops..drop..Drop$GT$..drop..DropGuard$LT$std..ffi..os_str..OsString$C$core..option..Option$LT$std..ffi..os_str..OsString$GT$$C$alloc..alloc..Global$GT$$GT$17h4f1b3bab276f7ff5E:
Lfunc_begin100:
	.loc	8 490 0 is_stmt 1
	.cfi_startproc
	pushq	%rbp
	.cfi_def_cfa_offset 16
	.cfi_offset %rbp, -16
	movq	%rsp, %rbp
	.cfi_def_cfa_register %rbp
	subq	$16, %rsp
	movq	%rdi, -8(%rbp)
Ltmp631:
	.loc	8 490 1 prologue_end
	callq	__ZN174_$LT$$LT$alloc..collections..btree..map..IntoIter$LT$K$C$V$C$A$GT$$u20$as$u20$core..ops..drop..Drop$GT$..drop..DropGuard$LT$K$C$V$C$A$GT$$u20$as$u20$core..ops..drop..Drop$GT$4drop17h0b68d037b759a90fE
	addq	$16, %rsp
	popq	%rbp
	retq
Ltmp632:
Lfunc_end100:
	.cfi_endproc

	.globl	__ZN4core3ptr251drop_in_place$LT$alloc..vec..Vec$LT$alloc..boxed..Box$LT$dyn$u20$core..ops..function..FnMut$LT$$LP$$RP$$GT$$u2b$Output$u20$$u3d$$u20$core..result..Result$LT$$LP$$RP$$C$std..io..error..Error$GT$$u2b$core..marker..Send$u2b$core..marker..Sync$GT$$GT$$GT$17h8a501ec407f71b5cE
	.p2align	4, 0x90
__ZN4core3ptr251drop_in_place$LT$alloc..vec..Vec$LT$alloc..boxed..Box$LT$dyn$u20$core..ops..function..FnMut$LT$$LP$$RP$$GT$$u2b$Output$u20$$u3d$$u20$core..result..Result$LT$$LP$$RP$$C$std..io..error..Error$GT$$u2b$core..marker..Send$u2b$core..marker..Sync$GT$$GT$$GT$17h8a501ec407f71b5cE:
Lfunc_begin101:
	.loc	8 490 0
	.cfi_startproc
	.cfi_personality 155, _rust_eh_personality
	.cfi_lsda 16, Lexception18
	pushq	%rbp
	.cfi_def_cfa_offset 16
	.cfi_offset %rbp, -16
	movq	%rsp, %rbp
	.cfi_def_cfa_register %rbp
	subq	$32, %rsp
	movq	%rdi, -32(%rbp)
	movq	%rdi, -24(%rbp)
Ltmp633:
Ltmp639:
	.loc	8 490 1 prologue_end
	callq	__ZN70_$LT$alloc..vec..Vec$LT$T$C$A$GT$$u20$as$u20$core..ops..drop..Drop$GT$4drop17he7c615f3a2a2bea0E
Ltmp634:
	jmp	LBB101_3
LBB101_1:
Ltmp636:
	.loc	8 0 1 is_stmt 0
	movq	-32(%rbp), %rdi
	.loc	8 490 1
	callq	__ZN4core3ptr258drop_in_place$LT$alloc..raw_vec..RawVec$LT$alloc..boxed..Box$LT$dyn$u20$core..ops..function..FnMut$LT$$LP$$RP$$GT$$u2b$Output$u20$$u3d$$u20$core..result..Result$LT$$LP$$RP$$C$std..io..error..Error$GT$$u2b$core..marker..Send$u2b$core..marker..Sync$GT$$GT$$GT$17hb3b0ebebc790b3a0E
Ltmp637:
	jmp	LBB101_5
LBB101_2:
Ltmp635:
	.loc	8 0 1
	movq	%rax, %rcx
	movl	%edx, %eax
	movq	%rcx, -16(%rbp)
	movl	%eax, -8(%rbp)
	jmp	LBB101_1
LBB101_3:
	movq	-32(%rbp), %rdi
	.loc	8 490 1
	callq	__ZN4core3ptr258drop_in_place$LT$alloc..raw_vec..RawVec$LT$alloc..boxed..Box$LT$dyn$u20$core..ops..function..FnMut$LT$$LP$$RP$$GT$$u2b$Output$u20$$u3d$$u20$core..result..Result$LT$$LP$$RP$$C$std..io..error..Error$GT$$u2b$core..marker..Send$u2b$core..marker..Sync$GT$$GT$$GT$17hb3b0ebebc790b3a0E
	addq	$32, %rsp
	popq	%rbp
	retq
LBB101_4:
Ltmp638:
	callq	__ZN4core9panicking19panic_cannot_unwind17h1fbca7e1d7f56ae1E
LBB101_5:
	movq	-16(%rbp), %rdi
	callq	__Unwind_Resume
Ltmp640:
Lfunc_end101:
	.cfi_endproc
	.section	__TEXT,__gcc_except_tab
	.p2align	2
GCC_except_table101:
Lexception18:
	.byte	255
	.byte	255
	.byte	1
	.uleb128 Lcst_end18-Lcst_begin18
Lcst_begin18:
	.uleb128 Ltmp633-Lfunc_begin101
	.uleb128 Ltmp634-Ltmp633
	.uleb128 Ltmp635-Lfunc_begin101
	.byte	0
	.uleb128 Ltmp636-Lfunc_begin101
	.uleb128 Ltmp637-Ltmp636
	.uleb128 Ltmp638-Lfunc_begin101
	.byte	0
	.uleb128 Ltmp637-Lfunc_begin101
	.uleb128 Lfunc_end101-Ltmp637
	.byte	0
	.byte	0
Lcst_end18:
	.p2align	2

	.section	__TEXT,__text,regular,pure_instructions
	.globl	__ZN4core3ptr258drop_in_place$LT$alloc..raw_vec..RawVec$LT$alloc..boxed..Box$LT$dyn$u20$core..ops..function..FnMut$LT$$LP$$RP$$GT$$u2b$Output$u20$$u3d$$u20$core..result..Result$LT$$LP$$RP$$C$std..io..error..Error$GT$$u2b$core..marker..Send$u2b$core..marker..Sync$GT$$GT$$GT$17hb3b0ebebc790b3a0E
	.p2align	4, 0x90
__ZN4core3ptr258drop_in_place$LT$alloc..raw_vec..RawVec$LT$alloc..boxed..Box$LT$dyn$u20$core..ops..function..FnMut$LT$$LP$$RP$$GT$$u2b$Output$u20$$u3d$$u20$core..result..Result$LT$$LP$$RP$$C$std..io..error..Error$GT$$u2b$core..marker..Send$u2b$core..marker..Sync$GT$$GT$$GT$17hb3b0ebebc790b3a0E:
Lfunc_begin102:
	.loc	8 490 0 is_stmt 1
	.cfi_startproc
	pushq	%rbp
	.cfi_def_cfa_offset 16
	.cfi_offset %rbp, -16
	movq	%rsp, %rbp
	.cfi_def_cfa_register %rbp
	subq	$16, %rsp
	movq	%rdi, -8(%rbp)
Ltmp641:
	.loc	8 490 1 prologue_end
	callq	__ZN77_$LT$alloc..raw_vec..RawVec$LT$T$C$A$GT$$u20$as$u20$core..ops..drop..Drop$GT$4drop17hca57d2796e9dc137E
	addq	$16, %rsp
	popq	%rbp
	retq
Ltmp642:
Lfunc_end102:
	.cfi_endproc

	.p2align	4, 0x90
__ZN4core3ptr28drop_in_place$LT$$RF$u16$GT$17he4af7caa330f1ce0E:
Lfunc_begin103:
	.loc	8 490 0
	.cfi_startproc
	pushq	%rbp
	.cfi_def_cfa_offset 16
	.cfi_offset %rbp, -16
	movq	%rsp, %rbp
	.cfi_def_cfa_register %rbp
	pushq	%rax
	movq	%rdi, -8(%rbp)
Ltmp643:
	.loc	8 490 1 prologue_end
	addq	$8, %rsp
	popq	%rbp
	retq
Ltmp644:
Lfunc_end103:
	.cfi_endproc

	.p2align	4, 0x90
__ZN4core3ptr28drop_in_place$LT$$RF$u32$GT$17h51e3e6e9861a40a6E:
Lfunc_begin104:
	.loc	8 490 0
	.cfi_startproc
	pushq	%rbp
	.cfi_def_cfa_offset 16
	.cfi_offset %rbp, -16
	movq	%rsp, %rbp
	.cfi_def_cfa_register %rbp
	pushq	%rax
	movq	%rdi, -8(%rbp)
Ltmp645:
	.loc	8 490 1 prologue_end
	addq	$8, %rsp
	popq	%rbp
	retq
Ltmp646:
Lfunc_end104:
	.cfi_endproc

	.globl	__ZN4core3ptr39drop_in_place$LT$std..env..VarError$GT$17h0a9d680a3f07992cE
	.p2align	4, 0x90
__ZN4core3ptr39drop_in_place$LT$std..env..VarError$GT$17h0a9d680a3f07992cE:
Lfunc_begin105:
	.loc	8 490 0
	.cfi_startproc
	pushq	%rbp
	.cfi_def_cfa_offset 16
	.cfi_offset %rbp, -16
	movq	%rsp, %rbp
	.cfi_def_cfa_register %rbp
	subq	$16, %rsp
	movq	%rdi, -16(%rbp)
	movq	%rdi, -8(%rbp)
Ltmp647:
	.loc	8 490 1 prologue_end
	movq	8(%rdi), %rdx
	movl	$1, %eax
	xorl	%ecx, %ecx
	cmpq	$0, %rdx
	cmoveq	%rcx, %rax
	cmpq	$0, %rax
	jne	LBB105_2
LBB105_1:
	addq	$16, %rsp
	popq	%rbp
	retq
LBB105_2:
	.loc	8 0 1 is_stmt 0
	movq	-16(%rbp), %rdi
	.loc	8 490 1
	callq	__ZN4core3ptr47drop_in_place$LT$std..ffi..os_str..OsString$GT$17hfde4b8fe2086029aE
	jmp	LBB105_1
Ltmp648:
Lfunc_end105:
	.cfi_endproc

	.globl	__ZN4core3ptr42drop_in_place$LT$alloc..string..String$GT$17h884379d4d73bd137E
	.p2align	4, 0x90
__ZN4core3ptr42drop_in_place$LT$alloc..string..String$GT$17h884379d4d73bd137E:
Lfunc_begin106:
	.loc	8 490 0 is_stmt 1
	.cfi_startproc
	pushq	%rbp
	.cfi_def_cfa_offset 16
	.cfi_offset %rbp, -16
	movq	%rsp, %rbp
	.cfi_def_cfa_register %rbp
	subq	$16, %rsp
	movq	%rdi, -8(%rbp)
Ltmp649:
	.loc	8 490 1 prologue_end
	callq	__ZN4core3ptr46drop_in_place$LT$alloc..vec..Vec$LT$u8$GT$$GT$17h62ab4d2a547b8a53E
	addq	$16, %rsp
	popq	%rbp
	retq
Ltmp650:
Lfunc_end106:
	.cfi_endproc

	.globl	__ZN4core3ptr42drop_in_place$LT$std..io..error..Error$GT$17h369724f1128f6f23E
	.p2align	4, 0x90
__ZN4core3ptr42drop_in_place$LT$std..io..error..Error$GT$17h369724f1128f6f23E:
Lfunc_begin107:
	.loc	8 490 0
	.cfi_startproc
	pushq	%rbp
	.cfi_def_cfa_offset 16
	.cfi_offset %rbp, -16
	movq	%rsp, %rbp
	.cfi_def_cfa_register %rbp
	subq	$16, %rsp
	movq	%rdi, -8(%rbp)
Ltmp651:
	.loc	8 490 1 prologue_end
	callq	__ZN4core3ptr57drop_in_place$LT$std..io..error..repr_bitpacked..Repr$GT$17h7c2dd321619d03a3E
	addq	$16, %rsp
	popq	%rbp
	retq
Ltmp652:
Lfunc_end107:
	.cfi_endproc

	.globl	__ZN4core3ptr42drop_in_place$LT$std..process..Command$GT$17h49a2ea772ea28c09E
	.p2align	4, 0x90
__ZN4core3ptr42drop_in_place$LT$std..process..Command$GT$17h49a2ea772ea28c09E:
Lfunc_begin108:
	.loc	8 490 0
	.cfi_startproc
	pushq	%rbp
	.cfi_def_cfa_offset 16
	.cfi_offset %rbp, -16
	movq	%rsp, %rbp
	.cfi_def_cfa_register %rbp
	subq	$16, %rsp
	movq	%rdi, -8(%rbp)
Ltmp653:
	.loc	8 490 1 prologue_end
	callq	__ZN4core3ptr69drop_in_place$LT$std..sys..unix..process..process_common..Command$GT$17h766b11c34e74c2a2E
	addq	$16, %rsp
	popq	%rbp
	retq
Ltmp654:
Lfunc_end108:
	.cfi_endproc

	.globl	__ZN4core3ptr43drop_in_place$LT$std..io..error..Custom$GT$17h8432eda62d19eb65E
	.p2align	4, 0x90
__ZN4core3ptr43drop_in_place$LT$std..io..error..Custom$GT$17h8432eda62d19eb65E:
Lfunc_begin109:
	.loc	8 490 0
	.cfi_startproc
	pushq	%rbp
	.cfi_def_cfa_offset 16
	.cfi_offset %rbp, -16
	movq	%rsp, %rbp
	.cfi_def_cfa_register %rbp
	subq	$16, %rsp
	movq	%rdi, -8(%rbp)
Ltmp655:
	.loc	8 490 1 prologue_end
	callq	__ZN4core3ptr118drop_in_place$LT$alloc..boxed..Box$LT$dyn$u20$core..error..Error$u2b$core..marker..Send$u2b$core..marker..Sync$GT$$GT$17h2e74cf5ca2526834E
	addq	$16, %rsp
	popq	%rbp
	retq
Ltmp656:
Lfunc_end109:
	.cfi_endproc

	.globl	__ZN4core3ptr46drop_in_place$LT$alloc..vec..Vec$LT$u8$GT$$GT$17h62ab4d2a547b8a53E
	.p2align	4, 0x90
__ZN4core3ptr46drop_in_place$LT$alloc..vec..Vec$LT$u8$GT$$GT$17h62ab4d2a547b8a53E:
Lfunc_begin110:
	.loc	8 490 0
	.cfi_startproc
	.cfi_personality 155, _rust_eh_personality
	.cfi_lsda 16, Lexception19
	pushq	%rbp
	.cfi_def_cfa_offset 16
	.cfi_offset %rbp, -16
	movq	%rsp, %rbp
	.cfi_def_cfa_register %rbp
	subq	$32, %rsp
	movq	%rdi, -32(%rbp)
	movq	%rdi, -24(%rbp)
Ltmp657:
Ltmp663:
	.loc	8 490 1 prologue_end
	callq	__ZN70_$LT$alloc..vec..Vec$LT$T$C$A$GT$$u20$as$u20$core..ops..drop..Drop$GT$4drop17h7186458fff202d8cE
Ltmp658:
	jmp	LBB110_3
LBB110_1:
Ltmp660:
	.loc	8 0 1 is_stmt 0
	movq	-32(%rbp), %rdi
	.loc	8 490 1
	callq	__ZN4core3ptr53drop_in_place$LT$alloc..raw_vec..RawVec$LT$u8$GT$$GT$17h0f2f3abab9bc563eE
Ltmp661:
	jmp	LBB110_5
LBB110_2:
Ltmp659:
	.loc	8 0 1
	movq	%rax, %rcx
	movl	%edx, %eax
	movq	%rcx, -16(%rbp)
	movl	%eax, -8(%rbp)
	jmp	LBB110_1
LBB110_3:
	movq	-32(%rbp), %rdi
	.loc	8 490 1
	callq	__ZN4core3ptr53drop_in_place$LT$alloc..raw_vec..RawVec$LT$u8$GT$$GT$17h0f2f3abab9bc563eE
	addq	$32, %rsp
	popq	%rbp
	retq
LBB110_4:
Ltmp662:
	callq	__ZN4core9panicking19panic_cannot_unwind17h1fbca7e1d7f56ae1E
LBB110_5:
	movq	-16(%rbp), %rdi
	callq	__Unwind_Resume
Ltmp664:
Lfunc_end110:
	.cfi_endproc
	.section	__TEXT,__gcc_except_tab
	.p2align	2
GCC_except_table110:
Lexception19:
	.byte	255
	.byte	255
	.byte	1
	.uleb128 Lcst_end19-Lcst_begin19
Lcst_begin19:
	.uleb128 Ltmp657-Lfunc_begin110
	.uleb128 Ltmp658-Ltmp657
	.uleb128 Ltmp659-Lfunc_begin110
	.byte	0
	.uleb128 Ltmp660-Lfunc_begin110
	.uleb128 Ltmp661-Ltmp660
	.uleb128 Ltmp662-Lfunc_begin110
	.byte	0
	.uleb128 Ltmp661-Lfunc_begin110
	.uleb128 Lfunc_end110-Ltmp661
	.byte	0
	.byte	0
Lcst_end19:
	.p2align	2

	.section	__TEXT,__text,regular,pure_instructions
	.globl	__ZN4core3ptr47drop_in_place$LT$alloc..ffi..c_str..CString$GT$17h3d265a70f88f8566E
	.p2align	4, 0x90
__ZN4core3ptr47drop_in_place$LT$alloc..ffi..c_str..CString$GT$17h3d265a70f88f8566E:
Lfunc_begin111:
	.loc	8 490 0 is_stmt 1
	.cfi_startproc
	.cfi_personality 155, _rust_eh_personality
	.cfi_lsda 16, Lexception20
	pushq	%rbp
	.cfi_def_cfa_offset 16
	.cfi_offset %rbp, -16
	movq	%rsp, %rbp
	.cfi_def_cfa_register %rbp
	subq	$32, %rsp
	movq	%rdi, -32(%rbp)
	movq	%rdi, -24(%rbp)
Ltmp665:
Ltmp671:
	.loc	8 490 1 prologue_end
	callq	__ZN68_$LT$alloc..ffi..c_str..CString$u20$as$u20$core..ops..drop..Drop$GT$4drop17h76b4efa827bea282E
Ltmp666:
	jmp	LBB111_3
LBB111_1:
Ltmp668:
	.loc	8 0 1 is_stmt 0
	movq	-32(%rbp), %rdi
	.loc	8 490 1
	callq	__ZN4core3ptr58drop_in_place$LT$alloc..boxed..Box$LT$$u5b$u8$u5d$$GT$$GT$17hc2db24f83696bea0E
Ltmp669:
	jmp	LBB111_5
LBB111_2:
Ltmp667:
	.loc	8 0 1
	movq	%rax, %rcx
	movl	%edx, %eax
	movq	%rcx, -16(%rbp)
	movl	%eax, -8(%rbp)
	jmp	LBB111_1
LBB111_3:
	movq	-32(%rbp), %rdi
	.loc	8 490 1
	callq	__ZN4core3ptr58drop_in_place$LT$alloc..boxed..Box$LT$$u5b$u8$u5d$$GT$$GT$17hc2db24f83696bea0E
	addq	$32, %rsp
	popq	%rbp
	retq
LBB111_4:
Ltmp670:
	callq	__ZN4core9panicking19panic_cannot_unwind17h1fbca7e1d7f56ae1E
LBB111_5:
	movq	-16(%rbp), %rdi
	callq	__Unwind_Resume
Ltmp672:
Lfunc_end111:
	.cfi_endproc
	.section	__TEXT,__gcc_except_tab
	.p2align	2
GCC_except_table111:
Lexception20:
	.byte	255
	.byte	255
	.byte	1
	.uleb128 Lcst_end20-Lcst_begin20
Lcst_begin20:
	.uleb128 Ltmp665-Lfunc_begin111
	.uleb128 Ltmp666-Ltmp665
	.uleb128 Ltmp667-Lfunc_begin111
	.byte	0
	.uleb128 Ltmp668-Lfunc_begin111
	.uleb128 Ltmp669-Ltmp668
	.uleb128 Ltmp670-Lfunc_begin111
	.byte	0
	.uleb128 Ltmp669-Lfunc_begin111
	.uleb128 Lfunc_end111-Ltmp669
	.byte	0
	.byte	0
Lcst_end20:
	.p2align	2

	.section	__TEXT,__text,regular,pure_instructions
	.globl	__ZN4core3ptr47drop_in_place$LT$std..ffi..os_str..OsString$GT$17hfde4b8fe2086029aE
	.p2align	4, 0x90
__ZN4core3ptr47drop_in_place$LT$std..ffi..os_str..OsString$GT$17hfde4b8fe2086029aE:
Lfunc_begin112:
	.loc	8 490 0 is_stmt 1
	.cfi_startproc
	pushq	%rbp
	.cfi_def_cfa_offset 16
	.cfi_offset %rbp, -16
	movq	%rsp, %rbp
	.cfi_def_cfa_register %rbp
	subq	$16, %rsp
	movq	%rdi, -8(%rbp)
Ltmp673:
	.loc	8 490 1 prologue_end
	callq	__ZN4core3ptr48drop_in_place$LT$std..sys..unix..os_str..Buf$GT$17hd982170b944bd004E
	addq	$16, %rsp
	popq	%rbp
	retq
Ltmp674:
Lfunc_end112:
	.cfi_endproc

	.globl	__ZN4core3ptr48drop_in_place$LT$std..os..fd..owned..OwnedFd$GT$17h378c0a83c554c070E
	.p2align	4, 0x90
__ZN4core3ptr48drop_in_place$LT$std..os..fd..owned..OwnedFd$GT$17h378c0a83c554c070E:
Lfunc_begin113:
	.loc	8 490 0
	.cfi_startproc
	pushq	%rbp
	.cfi_def_cfa_offset 16
	.cfi_offset %rbp, -16
	movq	%rsp, %rbp
	.cfi_def_cfa_register %rbp
	subq	$16, %rsp
	movq	%rdi, -8(%rbp)
Ltmp675:
	.loc	8 490 1 prologue_end
	callq	__ZN69_$LT$std..os..fd..owned..OwnedFd$u20$as$u20$core..ops..drop..Drop$GT$4drop17h76f49996d6e90e76E
	addq	$16, %rsp
	popq	%rbp
	retq
Ltmp676:
Lfunc_end113:
	.cfi_endproc

	.globl	__ZN4core3ptr48drop_in_place$LT$std..sys..unix..os_str..Buf$GT$17hd982170b944bd004E
	.p2align	4, 0x90
__ZN4core3ptr48drop_in_place$LT$std..sys..unix..os_str..Buf$GT$17hd982170b944bd004E:
Lfunc_begin114:
	.loc	8 490 0
	.cfi_startproc
	pushq	%rbp
	.cfi_def_cfa_offset 16
	.cfi_offset %rbp, -16
	movq	%rsp, %rbp
	.cfi_def_cfa_register %rbp
	subq	$16, %rsp
	movq	%rdi, -8(%rbp)
Ltmp677:
	.loc	8 490 1 prologue_end
	callq	__ZN4core3ptr46drop_in_place$LT$alloc..vec..Vec$LT$u8$GT$$GT$17h62ab4d2a547b8a53E
	addq	$16, %rsp
	popq	%rbp
	retq
Ltmp678:
Lfunc_end114:
	.cfi_endproc

	.globl	__ZN4core3ptr49drop_in_place$LT$alloc..string..FromUtf8Error$GT$17h650a97600364d821E
	.p2align	4, 0x90
__ZN4core3ptr49drop_in_place$LT$alloc..string..FromUtf8Error$GT$17h650a97600364d821E:
Lfunc_begin115:
	.loc	8 490 0
	.cfi_startproc
	pushq	%rbp
	.cfi_def_cfa_offset 16
	.cfi_offset %rbp, -16
	movq	%rsp, %rbp
	.cfi_def_cfa_register %rbp
	subq	$16, %rsp
	movq	%rdi, -8(%rbp)
Ltmp679:
	.loc	8 490 1 prologue_end
	addq	$16, %rdi
	callq	__ZN4core3ptr46drop_in_place$LT$alloc..vec..Vec$LT$u8$GT$$GT$17h62ab4d2a547b8a53E
	addq	$16, %rsp
	popq	%rbp
	retq
Ltmp680:
Lfunc_end115:
	.cfi_endproc

	.globl	__ZN4core3ptr49drop_in_place$LT$std..sys..unix..fd..FileDesc$GT$17h122bfc8b3721a7e4E
	.p2align	4, 0x90
__ZN4core3ptr49drop_in_place$LT$std..sys..unix..fd..FileDesc$GT$17h122bfc8b3721a7e4E:
Lfunc_begin116:
	.loc	8 490 0
	.cfi_startproc
	pushq	%rbp
	.cfi_def_cfa_offset 16
	.cfi_offset %rbp, -16
	movq	%rsp, %rbp
	.cfi_def_cfa_register %rbp
	subq	$16, %rsp
	movq	%rdi, -8(%rbp)
Ltmp681:
	.loc	8 490 1 prologue_end
	callq	__ZN4core3ptr48drop_in_place$LT$std..os..fd..owned..OwnedFd$GT$17h378c0a83c554c070E
	addq	$16, %rsp
	popq	%rbp
	retq
Ltmp682:
Lfunc_end116:
	.cfi_endproc

	.globl	__ZN4core3ptr50drop_in_place$LT$alloc..borrow..Cow$LT$str$GT$$GT$17h5ed29d19dfe1ed88E
	.p2align	4, 0x90
__ZN4core3ptr50drop_in_place$LT$alloc..borrow..Cow$LT$str$GT$$GT$17h5ed29d19dfe1ed88E:
Lfunc_begin117:
	.loc	8 490 0
	.cfi_startproc
	pushq	%rbp
	.cfi_def_cfa_offset 16
	.cfi_offset %rbp, -16
	movq	%rsp, %rbp
	.cfi_def_cfa_register %rbp
	subq	$16, %rsp
	movq	%rdi, -16(%rbp)
	movq	%rdi, -8(%rbp)
Ltmp683:
	.loc	8 490 1 prologue_end
	cmpq	$0, (%rdi)
	jne	LBB117_2
LBB117_1:
	addq	$16, %rsp
	popq	%rbp
	retq
LBB117_2:
	.loc	8 0 1 is_stmt 0
	movq	-16(%rbp), %rdi
	.loc	8 490 1
	addq	$8, %rdi
	callq	__ZN4core3ptr42drop_in_place$LT$alloc..string..String$GT$17h884379d4d73bd137E
	jmp	LBB117_1
Ltmp684:
Lfunc_end117:
	.cfi_endproc

	.p2align	4, 0x90
__ZN4core3ptr53drop_in_place$LT$$RF$version_check..channel..Kind$GT$17h225ec03b2e68c8ddE:
Lfunc_begin118:
	.loc	8 490 0 is_stmt 1
	.cfi_startproc
	pushq	%rbp
	.cfi_def_cfa_offset 16
	.cfi_offset %rbp, -16
	movq	%rsp, %rbp
	.cfi_def_cfa_register %rbp
	pushq	%rax
	movq	%rdi, -8(%rbp)
Ltmp685:
	.loc	8 490 1 prologue_end
	addq	$8, %rsp
	popq	%rbp
	retq
Ltmp686:
Lfunc_end118:
	.cfi_endproc

	.globl	__ZN4core3ptr53drop_in_place$LT$alloc..raw_vec..RawVec$LT$u8$GT$$GT$17h0f2f3abab9bc563eE
	.p2align	4, 0x90
__ZN4core3ptr53drop_in_place$LT$alloc..raw_vec..RawVec$LT$u8$GT$$GT$17h0f2f3abab9bc563eE:
Lfunc_begin119:
	.loc	8 490 0
	.cfi_startproc
	pushq	%rbp
	.cfi_def_cfa_offset 16
	.cfi_offset %rbp, -16
	movq	%rsp, %rbp
	.cfi_def_cfa_register %rbp
	subq	$16, %rsp
	movq	%rdi, -8(%rbp)
Ltmp687:
	.loc	8 490 1 prologue_end
	callq	__ZN77_$LT$alloc..raw_vec..RawVec$LT$T$C$A$GT$$u20$as$u20$core..ops..drop..Drop$GT$4drop17ha16260edece04ccdE
	addq	$16, %rsp
	popq	%rbp
	retq
Ltmp688:
Lfunc_end119:
	.cfi_endproc

	.globl	__ZN4core3ptr57drop_in_place$LT$$u5b$alloc..ffi..c_str..CString$u5d$$GT$17hdd77d0d94aaa328eE
	.p2align	4, 0x90
__ZN4core3ptr57drop_in_place$LT$$u5b$alloc..ffi..c_str..CString$u5d$$GT$17hdd77d0d94aaa328eE:
Lfunc_begin120:
	.loc	8 490 0
	.cfi_startproc
	.cfi_personality 155, _rust_eh_personality
	.cfi_lsda 16, Lexception21
	pushq	%rbp
	.cfi_def_cfa_offset 16
	.cfi_offset %rbp, -16
	movq	%rsp, %rbp
	.cfi_def_cfa_register %rbp
	subq	$80, %rsp
	movq	%rdi, -64(%rbp)
	movq	%rsi, -56(%rbp)
	movq	%rdi, -32(%rbp)
	movq	%rsi, -24(%rbp)
Ltmp700:
	.loc	8 490 1 prologue_end
	xorl	%eax, %eax
	testb	$1, %al
	jne	LBB120_1
	jmp	LBB120_2
LBB120_1:
	movq	$0, -48(%rbp)
	jmp	LBB120_11
LBB120_2:
	.loc	8 0 1 is_stmt 0
	movq	-56(%rbp), %rax
	movq	-64(%rbp), %rcx
	.loc	8 490 1
	movq	%rcx, -40(%rbp)
	shlq	$4, %rax
	addq	-40(%rbp), %rax
	movq	%rax, -72(%rbp)
LBB120_3:
	.loc	8 0 1
	movq	-72(%rbp), %rax
	.loc	8 490 1
	cmpq	%rax, -40(%rbp)
	je	LBB120_5
	movq	-40(%rbp), %rdi
	movq	%rdi, %rax
	addq	$16, %rax
	movq	%rax, -40(%rbp)
Ltmp689:
	callq	__ZN4core3ptr47drop_in_place$LT$alloc..ffi..c_str..CString$GT$17h3d265a70f88f8566E
Ltmp690:
	jmp	LBB120_3
LBB120_5:
	addq	$80, %rsp
	popq	%rbp
	retq
LBB120_6:
	.loc	8 0 1
	movq	-72(%rbp), %rax
	.loc	8 490 1
	cmpq	%rax, -40(%rbp)
	je	LBB120_9
	jmp	LBB120_8
LBB120_7:
Ltmp691:
	.loc	8 0 1
	movq	%rax, %rcx
	movl	%edx, %eax
	movq	%rcx, -16(%rbp)
	movl	%eax, -8(%rbp)
	jmp	LBB120_6
LBB120_8:
	.loc	8 490 1
	movq	-40(%rbp), %rdi
	movq	%rdi, %rax
	addq	$16, %rax
	movq	%rax, -40(%rbp)
Ltmp692:
	callq	__ZN4core3ptr47drop_in_place$LT$alloc..ffi..c_str..CString$GT$17h3d265a70f88f8566E
Ltmp693:
	jmp	LBB120_6
LBB120_9:
	movq	-16(%rbp), %rdi
	callq	__Unwind_Resume
LBB120_10:
Ltmp699:
	callq	__ZN4core9panicking19panic_cannot_unwind17h1fbca7e1d7f56ae1E
LBB120_11:
	.loc	8 0 1
	movq	-56(%rbp), %rax
	.loc	8 490 1
	cmpq	%rax, -48(%rbp)
	je	LBB120_5
	.loc	8 0 1
	movq	-64(%rbp), %rdi
	.loc	8 490 1
	movq	-48(%rbp), %rax
	movq	%rax, %rcx
	shlq	$4, %rcx
	addq	%rcx, %rdi
	incq	%rax
	movq	%rax, -48(%rbp)
Ltmp694:
	callq	__ZN4core3ptr47drop_in_place$LT$alloc..ffi..c_str..CString$GT$17h3d265a70f88f8566E
Ltmp695:
	jmp	LBB120_11
LBB120_13:
	.loc	8 0 1
	movq	-56(%rbp), %rax
	.loc	8 490 1
	cmpq	%rax, -48(%rbp)
	je	LBB120_9
	jmp	LBB120_15
LBB120_14:
Ltmp696:
	.loc	8 0 1
	movq	%rax, %rcx
	movl	%edx, %eax
	movq	%rcx, -16(%rbp)
	movl	%eax, -8(%rbp)
	jmp	LBB120_13
LBB120_15:
	movq	-64(%rbp), %rdi
	.loc	8 490 1
	movq	-48(%rbp), %rax
	movq	%rax, %rcx
	shlq	$4, %rcx
	addq	%rcx, %rdi
	incq	%rax
	movq	%rax, -48(%rbp)
Ltmp697:
	callq	__ZN4core3ptr47drop_in_place$LT$alloc..ffi..c_str..CString$GT$17h3d265a70f88f8566E
Ltmp698:
	jmp	LBB120_13
Ltmp701:
Lfunc_end120:
	.cfi_endproc
	.section	__TEXT,__gcc_except_tab
	.p2align	2
GCC_except_table120:
Lexception21:
	.byte	255
	.byte	255
	.byte	1
	.uleb128 Lcst_end21-Lcst_begin21
Lcst_begin21:
	.uleb128 Ltmp689-Lfunc_begin120
	.uleb128 Ltmp690-Ltmp689
	.uleb128 Ltmp691-Lfunc_begin120
	.byte	0
	.uleb128 Ltmp692-Lfunc_begin120
	.uleb128 Ltmp693-Ltmp692
	.uleb128 Ltmp699-Lfunc_begin120
	.byte	0
	.uleb128 Ltmp693-Lfunc_begin120
	.uleb128 Ltmp694-Ltmp693
	.byte	0
	.byte	0
	.uleb128 Ltmp694-Lfunc_begin120
	.uleb128 Ltmp695-Ltmp694
	.uleb128 Ltmp696-Lfunc_begin120
	.byte	0
	.uleb128 Ltmp697-Lfunc_begin120
	.uleb128 Ltmp698-Ltmp697
	.uleb128 Ltmp699-Lfunc_begin120
	.byte	0
Lcst_end21:
	.p2align	2

	.section	__TEXT,__text,regular,pure_instructions
	.globl	__ZN4core3ptr57drop_in_place$LT$std..io..error..repr_bitpacked..Repr$GT$17h7c2dd321619d03a3E
	.p2align	4, 0x90
__ZN4core3ptr57drop_in_place$LT$std..io..error..repr_bitpacked..Repr$GT$17h7c2dd321619d03a3E:
Lfunc_begin121:
	.loc	8 490 0 is_stmt 1
	.cfi_startproc
	pushq	%rbp
	.cfi_def_cfa_offset 16
	.cfi_offset %rbp, -16
	movq	%rsp, %rbp
	.cfi_def_cfa_register %rbp
	subq	$16, %rsp
	movq	%rdi, -8(%rbp)
Ltmp702:
	.loc	8 490 1 prologue_end
	callq	__ZN78_$LT$std..io..error..repr_bitpacked..Repr$u20$as$u20$core..ops..drop..Drop$GT$4drop17h971a4bbca701846fE
	addq	$16, %rsp
	popq	%rbp
	retq
Ltmp703:
Lfunc_end121:
	.cfi_endproc

	.globl	__ZN4core3ptr57drop_in_place$LT$std..sys_common..process..CommandEnv$GT$17h9c5c1df96b1f1986E
	.p2align	4, 0x90
__ZN4core3ptr57drop_in_place$LT$std..sys_common..process..CommandEnv$GT$17h9c5c1df96b1f1986E:
Lfunc_begin122:
	.loc	8 490 0
	.cfi_startproc
	pushq	%rbp
	.cfi_def_cfa_offset 16
	.cfi_offset %rbp, -16
	movq	%rsp, %rbp
	.cfi_def_cfa_register %rbp
	subq	$16, %rsp
	movq	%rdi, -8(%rbp)
Ltmp704:
	.loc	8 490 1 prologue_end
	callq	__ZN4core3ptr152drop_in_place$LT$alloc..collections..btree..map..BTreeMap$LT$std..ffi..os_str..OsString$C$core..option..Option$LT$std..ffi..os_str..OsString$GT$$GT$$GT$17h89eb49ebe9c7607bE
	addq	$16, %rsp
	popq	%rbp
	retq
Ltmp705:
Lfunc_end122:
	.cfi_endproc

	.globl	__ZN4core3ptr58drop_in_place$LT$alloc..boxed..Box$LT$$u5b$u8$u5d$$GT$$GT$17hc2db24f83696bea0E
	.p2align	4, 0x90
__ZN4core3ptr58drop_in_place$LT$alloc..boxed..Box$LT$$u5b$u8$u5d$$GT$$GT$17hc2db24f83696bea0E:
Lfunc_begin123:
	.loc	8 490 0
	.cfi_startproc
	pushq	%rbp
	.cfi_def_cfa_offset 16
	.cfi_offset %rbp, -16
	movq	%rsp, %rbp
	.cfi_def_cfa_register %rbp
	subq	$32, %rsp
	movq	%rdi, -32(%rbp)
	movq	%rdi, -24(%rbp)
	movq	-32(%rbp), %rax
Ltmp706:
	.loc	8 490 1 prologue_end
	movq	(%rax), %rdi
	movq	8(%rax), %rsi
	callq	__ZN5alloc5alloc8box_free17hf1bb63e2562dd5b4E
	addq	$32, %rsp
	popq	%rbp
	retq
Ltmp707:
Lfunc_end123:
	.cfi_endproc

	.globl	__ZN4core3ptr59drop_in_place$LT$alloc..boxed..Box$LT$$u5b$u32$u5d$$GT$$GT$17he7f16bedc1f20f74E
	.p2align	4, 0x90
__ZN4core3ptr59drop_in_place$LT$alloc..boxed..Box$LT$$u5b$u32$u5d$$GT$$GT$17he7f16bedc1f20f74E:
Lfunc_begin124:
	.loc	8 490 0
	.cfi_startproc
	pushq	%rbp
	.cfi_def_cfa_offset 16
	.cfi_offset %rbp, -16
	movq	%rsp, %rbp
	.cfi_def_cfa_register %rbp
	subq	$32, %rsp
	movq	%rdi, -32(%rbp)
	movq	%rdi, -24(%rbp)
	movq	-32(%rbp), %rax
Ltmp708:
	.loc	8 490 1 prologue_end
	movq	(%rax), %rdi
	movq	8(%rax), %rsi
	callq	__ZN5alloc5alloc8box_free17h8363d6cd1bd74523E
	addq	$32, %rsp
	popq	%rbp
	retq
Ltmp709:
Lfunc_end124:
	.cfi_endproc

	.globl	__ZN4core3ptr60drop_in_place$LT$alloc..vec..Vec$LT$$BP$const$u20$i8$GT$$GT$17h70d6fa0dbfc23261E
	.p2align	4, 0x90
__ZN4core3ptr60drop_in_place$LT$alloc..vec..Vec$LT$$BP$const$u20$i8$GT$$GT$17h70d6fa0dbfc23261E:
Lfunc_begin125:
	.loc	8 490 0
	.cfi_startproc
	.cfi_personality 155, _rust_eh_personality
	.cfi_lsda 16, Lexception22
	pushq	%rbp
	.cfi_def_cfa_offset 16
	.cfi_offset %rbp, -16
	movq	%rsp, %rbp
	.cfi_def_cfa_register %rbp
	subq	$32, %rsp
	movq	%rdi, -32(%rbp)
	movq	%rdi, -24(%rbp)
Ltmp710:
Ltmp716:
	.loc	8 490 1 prologue_end
	callq	__ZN70_$LT$alloc..vec..Vec$LT$T$C$A$GT$$u20$as$u20$core..ops..drop..Drop$GT$4drop17h878509aec8180ecdE
Ltmp711:
	jmp	LBB125_3
LBB125_1:
Ltmp713:
	.loc	8 0 1 is_stmt 0
	movq	-32(%rbp), %rdi
	.loc	8 490 1
	callq	__ZN4core3ptr67drop_in_place$LT$alloc..raw_vec..RawVec$LT$$BP$const$u20$i8$GT$$GT$17hd15b059ca0cc352fE
Ltmp714:
	jmp	LBB125_5
LBB125_2:
Ltmp712:
	.loc	8 0 1
	movq	%rax, %rcx
	movl	%edx, %eax
	movq	%rcx, -16(%rbp)
	movl	%eax, -8(%rbp)
	jmp	LBB125_1
LBB125_3:
	movq	-32(%rbp), %rdi
	.loc	8 490 1
	callq	__ZN4core3ptr67drop_in_place$LT$alloc..raw_vec..RawVec$LT$$BP$const$u20$i8$GT$$GT$17hd15b059ca0cc352fE
	addq	$32, %rsp
	popq	%rbp
	retq
LBB125_4:
Ltmp715:
	callq	__ZN4core9panicking19panic_cannot_unwind17h1fbca7e1d7f56ae1E
LBB125_5:
	movq	-16(%rbp), %rdi
	callq	__Unwind_Resume
Ltmp717:
Lfunc_end125:
	.cfi_endproc
	.section	__TEXT,__gcc_except_tab
	.p2align	2
GCC_except_table125:
Lexception22:
	.byte	255
	.byte	255
	.byte	1
	.uleb128 Lcst_end22-Lcst_begin22
Lcst_begin22:
	.uleb128 Ltmp710-Lfunc_begin125
	.uleb128 Ltmp711-Ltmp710
	.uleb128 Ltmp712-Lfunc_begin125
	.byte	0
	.uleb128 Ltmp713-Lfunc_begin125
	.uleb128 Ltmp714-Ltmp713
	.uleb128 Ltmp715-Lfunc_begin125
	.byte	0
	.uleb128 Ltmp714-Lfunc_begin125
	.uleb128 Lfunc_end125-Ltmp714
	.byte	0
	.byte	0
Lcst_end22:
	.p2align	2

	.section	__TEXT,__text,regular,pure_instructions
	.globl	__ZN4core3ptr66drop_in_place$LT$std..sys..unix..process..process_common..Argv$GT$17h45534f1d0c04af14E
	.p2align	4, 0x90
__ZN4core3ptr66drop_in_place$LT$std..sys..unix..process..process_common..Argv$GT$17h45534f1d0c04af14E:
Lfunc_begin126:
	.loc	8 490 0 is_stmt 1
	.cfi_startproc
	pushq	%rbp
	.cfi_def_cfa_offset 16
	.cfi_offset %rbp, -16
	movq	%rsp, %rbp
	.cfi_def_cfa_register %rbp
	subq	$16, %rsp
	movq	%rdi, -8(%rbp)
Ltmp718:
	.loc	8 490 1 prologue_end
	callq	__ZN4core3ptr60drop_in_place$LT$alloc..vec..Vec$LT$$BP$const$u20$i8$GT$$GT$17h70d6fa0dbfc23261E
	addq	$16, %rsp
	popq	%rbp
	retq
Ltmp719:
Lfunc_end126:
	.cfi_endproc

	.globl	__ZN4core3ptr67drop_in_place$LT$alloc..raw_vec..RawVec$LT$$BP$const$u20$i8$GT$$GT$17hd15b059ca0cc352fE
	.p2align	4, 0x90
__ZN4core3ptr67drop_in_place$LT$alloc..raw_vec..RawVec$LT$$BP$const$u20$i8$GT$$GT$17hd15b059ca0cc352fE:
Lfunc_begin127:
	.loc	8 490 0
	.cfi_startproc
	pushq	%rbp
	.cfi_def_cfa_offset 16
	.cfi_offset %rbp, -16
	movq	%rsp, %rbp
	.cfi_def_cfa_register %rbp
	subq	$16, %rsp
	movq	%rdi, -8(%rbp)
Ltmp720:
	.loc	8 490 1 prologue_end
	callq	__ZN77_$LT$alloc..raw_vec..RawVec$LT$T$C$A$GT$$u20$as$u20$core..ops..drop..Drop$GT$4drop17h6aff8b36acc4df92E
	addq	$16, %rsp
	popq	%rbp
	retq
Ltmp721:
Lfunc_end127:
	.cfi_endproc

	.globl	__ZN4core3ptr67drop_in_place$LT$std..sys..unix..process..process_common..Stdio$GT$17ha158fa4b818b6287E
	.p2align	4, 0x90
__ZN4core3ptr67drop_in_place$LT$std..sys..unix..process..process_common..Stdio$GT$17ha158fa4b818b6287E:
Lfunc_begin128:
	.loc	8 490 0
	.cfi_startproc
	pushq	%rbp
	.cfi_def_cfa_offset 16
	.cfi_offset %rbp, -16
	movq	%rsp, %rbp
	.cfi_def_cfa_register %rbp
	subq	$16, %rsp
	movq	%rdi, -16(%rbp)
	movq	%rdi, -8(%rbp)
Ltmp722:
	.loc	8 490 1 prologue_end
	movl	(%rdi), %eax
	subl	$3, %eax
	jb	LBB128_2
	jmp	LBB128_1
LBB128_1:
	.loc	8 0 1 is_stmt 0
	movq	-16(%rbp), %rdi
	.loc	8 490 1
	addq	$4, %rdi
	callq	__ZN4core3ptr49drop_in_place$LT$std..sys..unix..fd..FileDesc$GT$17h122bfc8b3721a7e4E
LBB128_2:
	addq	$16, %rsp
	popq	%rbp
	retq
Ltmp723:
Lfunc_end128:
	.cfi_endproc

	.globl	__ZN4core3ptr68drop_in_place$LT$alloc..boxed..Box$LT$std..io..error..Custom$GT$$GT$17h4c72a5dfcc593033E
	.p2align	4, 0x90
__ZN4core3ptr68drop_in_place$LT$alloc..boxed..Box$LT$std..io..error..Custom$GT$$GT$17h4c72a5dfcc593033E:
Lfunc_begin129:
	.loc	8 490 0 is_stmt 1
	.cfi_startproc
	.cfi_personality 155, _rust_eh_personality
	.cfi_lsda 16, Lexception23
	pushq	%rbp
	.cfi_def_cfa_offset 16
	.cfi_offset %rbp, -16
	movq	%rsp, %rbp
	.cfi_def_cfa_register %rbp
	subq	$32, %rsp
	movq	%rdi, -32(%rbp)
	movq	%rdi, -24(%rbp)
Ltmp730:
	.loc	8 490 1 prologue_end
	movq	(%rdi), %rdi
Ltmp724:
	callq	__ZN4core3ptr43drop_in_place$LT$std..io..error..Custom$GT$17h8432eda62d19eb65E
Ltmp725:
	jmp	LBB129_3
LBB129_1:
	.loc	8 0 1 is_stmt 0
	movq	-32(%rbp), %rax
	.loc	8 490 1
	movq	(%rax), %rdi
Ltmp727:
	callq	__ZN5alloc5alloc8box_free17h3a7a3754493c2e67E
Ltmp728:
	jmp	LBB129_5
LBB129_2:
Ltmp726:
	.loc	8 0 1
	movq	%rax, %rcx
	movl	%edx, %eax
	movq	%rcx, -16(%rbp)
	movl	%eax, -8(%rbp)
	jmp	LBB129_1
LBB129_3:
	movq	-32(%rbp), %rax
	.loc	8 490 1
	movq	(%rax), %rdi
	callq	__ZN5alloc5alloc8box_free17h3a7a3754493c2e67E
	addq	$32, %rsp
	popq	%rbp
	retq
LBB129_4:
Ltmp729:
	callq	__ZN4core9panicking19panic_cannot_unwind17h1fbca7e1d7f56ae1E
LBB129_5:
	movq	-16(%rbp), %rdi
	callq	__Unwind_Resume
Ltmp731:
Lfunc_end129:
	.cfi_endproc
	.section	__TEXT,__gcc_except_tab
	.p2align	2
GCC_except_table129:
Lexception23:
	.byte	255
	.byte	255
	.byte	1
	.uleb128 Lcst_end23-Lcst_begin23
Lcst_begin23:
	.uleb128 Ltmp724-Lfunc_begin129
	.uleb128 Ltmp725-Ltmp724
	.uleb128 Ltmp726-Lfunc_begin129
	.byte	0
	.uleb128 Ltmp727-Lfunc_begin129
	.uleb128 Ltmp728-Ltmp727
	.uleb128 Ltmp729-Lfunc_begin129
	.byte	0
	.uleb128 Ltmp728-Lfunc_begin129
	.uleb128 Lfunc_end129-Ltmp728
	.byte	0
	.byte	0
Lcst_end23:
	.p2align	2

	.section	__TEXT,__text,regular,pure_instructions
	.globl	__ZN4core3ptr69drop_in_place$LT$std..sys..unix..process..process_common..Command$GT$17h766b11c34e74c2a2E
	.p2align	4, 0x90
__ZN4core3ptr69drop_in_place$LT$std..sys..unix..process..process_common..Command$GT$17h766b11c34e74c2a2E:
Lfunc_begin130:
	.loc	8 490 0 is_stmt 1
	.cfi_startproc
	.cfi_personality 155, _rust_eh_personality
	.cfi_lsda 16, Lexception24
	pushq	%rbp
	.cfi_def_cfa_offset 16
	.cfi_offset %rbp, -16
	movq	%rsp, %rbp
	.cfi_def_cfa_register %rbp
	subq	$32, %rsp
	movq	%rdi, -32(%rbp)
	movq	%rdi, -24(%rbp)
Ltmp778:
	.loc	8 490 1 prologue_end
	addq	$64, %rdi
Ltmp732:
	callq	__ZN4core3ptr47drop_in_place$LT$alloc..ffi..c_str..CString$GT$17h3d265a70f88f8566E
Ltmp733:
	jmp	LBB130_3
LBB130_1:
	.loc	8 0 1 is_stmt 0
	movq	-32(%rbp), %rdi
	.loc	8 490 1
	addq	$80, %rdi
Ltmp735:
	callq	__ZN4core3ptr70drop_in_place$LT$alloc..vec..Vec$LT$alloc..ffi..c_str..CString$GT$$GT$17hb0ffcdfdd373f37cE
Ltmp736:
	jmp	LBB130_5
LBB130_2:
Ltmp734:
	.loc	8 0 1
	movq	%rax, %rcx
	movl	%edx, %eax
	movq	%rcx, -16(%rbp)
	movl	%eax, -8(%rbp)
	jmp	LBB130_1
LBB130_3:
	movq	-32(%rbp), %rdi
	.loc	8 490 1
	addq	$80, %rdi
Ltmp737:
	callq	__ZN4core3ptr70drop_in_place$LT$alloc..vec..Vec$LT$alloc..ffi..c_str..CString$GT$$GT$17hb0ffcdfdd373f37cE
Ltmp738:
	jmp	LBB130_7
LBB130_4:
Ltmp777:
	callq	__ZN4core9panicking19panic_cannot_unwind17h1fbca7e1d7f56ae1E
LBB130_5:
	.loc	8 0 1
	movq	-32(%rbp), %rdi
	.loc	8 490 1
	addq	$104, %rdi
Ltmp740:
	callq	__ZN4core3ptr66drop_in_place$LT$std..sys..unix..process..process_common..Argv$GT$17h45534f1d0c04af14E
Ltmp741:
	jmp	LBB130_8
LBB130_6:
Ltmp739:
	.loc	8 0 1
	movq	%rax, %rcx
	movl	%edx, %eax
	movq	%rcx, -16(%rbp)
	movl	%eax, -8(%rbp)
	jmp	LBB130_5
LBB130_7:
	movq	-32(%rbp), %rdi
	.loc	8 490 1
	addq	$104, %rdi
Ltmp742:
	callq	__ZN4core3ptr66drop_in_place$LT$std..sys..unix..process..process_common..Argv$GT$17h45534f1d0c04af14E
Ltmp743:
	jmp	LBB130_10
LBB130_8:
Ltmp745:
	.loc	8 0 1
	movq	-32(%rbp), %rdi
	.loc	8 490 1
	callq	__ZN4core3ptr57drop_in_place$LT$std..sys_common..process..CommandEnv$GT$17h9c5c1df96b1f1986E
Ltmp746:
	jmp	LBB130_11
LBB130_9:
Ltmp744:
	.loc	8 0 1
	movq	%rax, %rcx
	movl	%edx, %eax
	movq	%rcx, -16(%rbp)
	movl	%eax, -8(%rbp)
	jmp	LBB130_8
LBB130_10:
Ltmp747:
	movq	-32(%rbp), %rdi
	.loc	8 490 1
	callq	__ZN4core3ptr57drop_in_place$LT$std..sys_common..process..CommandEnv$GT$17h9c5c1df96b1f1986E
Ltmp748:
	jmp	LBB130_13
LBB130_11:
	.loc	8 0 1
	movq	-32(%rbp), %rdi
	.loc	8 490 1
	addq	$32, %rdi
Ltmp750:
	callq	__ZN4core3ptr75drop_in_place$LT$core..option..Option$LT$alloc..ffi..c_str..CString$GT$$GT$17h4fbc8dbfa86510cbE
Ltmp751:
	jmp	LBB130_14
LBB130_12:
Ltmp749:
	.loc	8 0 1
	movq	%rax, %rcx
	movl	%edx, %eax
	movq	%rcx, -16(%rbp)
	movl	%eax, -8(%rbp)
	jmp	LBB130_11
LBB130_13:
	movq	-32(%rbp), %rdi
	.loc	8 490 1
	addq	$32, %rdi
Ltmp752:
	callq	__ZN4core3ptr75drop_in_place$LT$core..option..Option$LT$alloc..ffi..c_str..CString$GT$$GT$17h4fbc8dbfa86510cbE
Ltmp753:
	jmp	LBB130_16
LBB130_14:
	.loc	8 0 1
	movq	-32(%rbp), %rdi
	.loc	8 490 1
	subq	$-128, %rdi
Ltmp755:
	callq	__ZN4core3ptr251drop_in_place$LT$alloc..vec..Vec$LT$alloc..boxed..Box$LT$dyn$u20$core..ops..function..FnMut$LT$$LP$$RP$$GT$$u2b$Output$u20$$u3d$$u20$core..result..Result$LT$$LP$$RP$$C$std..io..error..Error$GT$$u2b$core..marker..Send$u2b$core..marker..Sync$GT$$GT$$GT$17h8a501ec407f71b5cE
Ltmp756:
	jmp	LBB130_17
LBB130_15:
Ltmp754:
	.loc	8 0 1
	movq	%rax, %rcx
	movl	%edx, %eax
	movq	%rcx, -16(%rbp)
	movl	%eax, -8(%rbp)
	jmp	LBB130_14
LBB130_16:
	movq	-32(%rbp), %rdi
	.loc	8 490 1
	subq	$-128, %rdi
Ltmp757:
	callq	__ZN4core3ptr251drop_in_place$LT$alloc..vec..Vec$LT$alloc..boxed..Box$LT$dyn$u20$core..ops..function..FnMut$LT$$LP$$RP$$GT$$u2b$Output$u20$$u3d$$u20$core..result..Result$LT$$LP$$RP$$C$std..io..error..Error$GT$$u2b$core..marker..Send$u2b$core..marker..Sync$GT$$GT$$GT$17h8a501ec407f71b5cE
Ltmp758:
	jmp	LBB130_19
LBB130_17:
	.loc	8 0 1
	movq	-32(%rbp), %rdi
	.loc	8 490 1
	addq	$48, %rdi
Ltmp760:
	callq	__ZN4core3ptr87drop_in_place$LT$core..option..Option$LT$alloc..boxed..Box$LT$$u5b$u32$u5d$$GT$$GT$$GT$17h23314679dd6ad314E
Ltmp761:
	jmp	LBB130_20
LBB130_18:
Ltmp759:
	.loc	8 0 1
	movq	%rax, %rcx
	movl	%edx, %eax
	movq	%rcx, -16(%rbp)
	movl	%eax, -8(%rbp)
	jmp	LBB130_17
LBB130_19:
	movq	-32(%rbp), %rdi
	.loc	8 490 1
	addq	$48, %rdi
Ltmp762:
	callq	__ZN4core3ptr87drop_in_place$LT$core..option..Option$LT$alloc..boxed..Box$LT$$u5b$u32$u5d$$GT$$GT$$GT$17h23314679dd6ad314E
Ltmp763:
	jmp	LBB130_22
LBB130_20:
	.loc	8 0 1
	movq	-32(%rbp), %rdi
	.loc	8 490 1
	addq	$152, %rdi
Ltmp765:
	callq	__ZN4core3ptr95drop_in_place$LT$core..option..Option$LT$std..sys..unix..process..process_common..Stdio$GT$$GT$17h7ced2cc9b3a6c7caE
Ltmp766:
	jmp	LBB130_23
LBB130_21:
Ltmp764:
	.loc	8 0 1
	movq	%rax, %rcx
	movl	%edx, %eax
	movq	%rcx, -16(%rbp)
	movl	%eax, -8(%rbp)
	jmp	LBB130_20
LBB130_22:
	movq	-32(%rbp), %rdi
	.loc	8 490 1
	addq	$152, %rdi
Ltmp767:
	callq	__ZN4core3ptr95drop_in_place$LT$core..option..Option$LT$std..sys..unix..process..process_common..Stdio$GT$$GT$17h7ced2cc9b3a6c7caE
Ltmp768:
	jmp	LBB130_25
LBB130_23:
	.loc	8 0 1
	movq	-32(%rbp), %rdi
	.loc	8 490 1
	addq	$160, %rdi
Ltmp770:
	callq	__ZN4core3ptr95drop_in_place$LT$core..option..Option$LT$std..sys..unix..process..process_common..Stdio$GT$$GT$17h7ced2cc9b3a6c7caE
Ltmp771:
	jmp	LBB130_26
LBB130_24:
Ltmp769:
	.loc	8 0 1
	movq	%rax, %rcx
	movl	%edx, %eax
	movq	%rcx, -16(%rbp)
	movl	%eax, -8(%rbp)
	jmp	LBB130_23
LBB130_25:
	movq	-32(%rbp), %rdi
	.loc	8 490 1
	addq	$160, %rdi
Ltmp772:
	callq	__ZN4core3ptr95drop_in_place$LT$core..option..Option$LT$std..sys..unix..process..process_common..Stdio$GT$$GT$17h7ced2cc9b3a6c7caE
Ltmp773:
	jmp	LBB130_28
LBB130_26:
	.loc	8 0 1
	movq	-32(%rbp), %rdi
	.loc	8 490 1
	addq	$168, %rdi
Ltmp775:
	callq	__ZN4core3ptr95drop_in_place$LT$core..option..Option$LT$std..sys..unix..process..process_common..Stdio$GT$$GT$17h7ced2cc9b3a6c7caE
Ltmp776:
	jmp	LBB130_29
LBB130_27:
Ltmp774:
	.loc	8 0 1
	movq	%rax, %rcx
	movl	%edx, %eax
	movq	%rcx, -16(%rbp)
	movl	%eax, -8(%rbp)
	jmp	LBB130_26
LBB130_28:
	movq	-32(%rbp), %rdi
	.loc	8 490 1
	addq	$168, %rdi
	callq	__ZN4core3ptr95drop_in_place$LT$core..option..Option$LT$std..sys..unix..process..process_common..Stdio$GT$$GT$17h7ced2cc9b3a6c7caE
	addq	$32, %rsp
	popq	%rbp
	retq
LBB130_29:
	movq	-16(%rbp), %rdi
	callq	__Unwind_Resume
Ltmp779:
Lfunc_end130:
	.cfi_endproc
	.section	__TEXT,__gcc_except_tab
	.p2align	2
GCC_except_table130:
Lexception24:
	.byte	255
	.byte	255
	.byte	1
	.uleb128 Lcst_end24-Lcst_begin24
Lcst_begin24:
	.uleb128 Ltmp732-Lfunc_begin130
	.uleb128 Ltmp733-Ltmp732
	.uleb128 Ltmp734-Lfunc_begin130
	.byte	0
	.uleb128 Ltmp735-Lfunc_begin130
	.uleb128 Ltmp736-Ltmp735
	.uleb128 Ltmp777-Lfunc_begin130
	.byte	0
	.uleb128 Ltmp737-Lfunc_begin130
	.uleb128 Ltmp738-Ltmp737
	.uleb128 Ltmp739-Lfunc_begin130
	.byte	0
	.uleb128 Ltmp740-Lfunc_begin130
	.uleb128 Ltmp741-Ltmp740
	.uleb128 Ltmp777-Lfunc_begin130
	.byte	0
	.uleb128 Ltmp742-Lfunc_begin130
	.uleb128 Ltmp743-Ltmp742
	.uleb128 Ltmp744-Lfunc_begin130
	.byte	0
	.uleb128 Ltmp745-Lfunc_begin130
	.uleb128 Ltmp746-Ltmp745
	.uleb128 Ltmp777-Lfunc_begin130
	.byte	0
	.uleb128 Ltmp747-Lfunc_begin130
	.uleb128 Ltmp748-Ltmp747
	.uleb128 Ltmp749-Lfunc_begin130
	.byte	0
	.uleb128 Ltmp750-Lfunc_begin130
	.uleb128 Ltmp751-Ltmp750
	.uleb128 Ltmp777-Lfunc_begin130
	.byte	0
	.uleb128 Ltmp752-Lfunc_begin130
	.uleb128 Ltmp753-Ltmp752
	.uleb128 Ltmp754-Lfunc_begin130
	.byte	0
	.uleb128 Ltmp755-Lfunc_begin130
	.uleb128 Ltmp756-Ltmp755
	.uleb128 Ltmp777-Lfunc_begin130
	.byte	0
	.uleb128 Ltmp757-Lfunc_begin130
	.uleb128 Ltmp758-Ltmp757
	.uleb128 Ltmp759-Lfunc_begin130
	.byte	0
	.uleb128 Ltmp760-Lfunc_begin130
	.uleb128 Ltmp761-Ltmp760
	.uleb128 Ltmp777-Lfunc_begin130
	.byte	0
	.uleb128 Ltmp762-Lfunc_begin130
	.uleb128 Ltmp763-Ltmp762
	.uleb128 Ltmp764-Lfunc_begin130
	.byte	0
	.uleb128 Ltmp765-Lfunc_begin130
	.uleb128 Ltmp766-Ltmp765
	.uleb128 Ltmp777-Lfunc_begin130
	.byte	0
	.uleb128 Ltmp767-Lfunc_begin130
	.uleb128 Ltmp768-Ltmp767
	.uleb128 Ltmp769-Lfunc_begin130
	.byte	0
	.uleb128 Ltmp770-Lfunc_begin130
	.uleb128 Ltmp771-Ltmp770
	.uleb128 Ltmp777-Lfunc_begin130
	.byte	0
	.uleb128 Ltmp772-Lfunc_begin130
	.uleb128 Ltmp773-Ltmp772
	.uleb128 Ltmp774-Lfunc_begin130
	.byte	0
	.uleb128 Ltmp775-Lfunc_begin130
	.uleb128 Ltmp776-Ltmp775
	.uleb128 Ltmp777-Lfunc_begin130
	.byte	0
	.uleb128 Ltmp776-Lfunc_begin130
	.uleb128 Lfunc_end130-Ltmp776
	.byte	0
	.byte	0
Lcst_end24:
	.p2align	2

	.section	__TEXT,__text,regular,pure_instructions
	.globl	__ZN4core3ptr70drop_in_place$LT$alloc..vec..Vec$LT$alloc..ffi..c_str..CString$GT$$GT$17hb0ffcdfdd373f37cE
	.p2align	4, 0x90
__ZN4core3ptr70drop_in_place$LT$alloc..vec..Vec$LT$alloc..ffi..c_str..CString$GT$$GT$17hb0ffcdfdd373f37cE:
Lfunc_begin131:
	.loc	8 490 0 is_stmt 1
	.cfi_startproc
	.cfi_personality 155, _rust_eh_personality
	.cfi_lsda 16, Lexception25
	pushq	%rbp
	.cfi_def_cfa_offset 16
	.cfi_offset %rbp, -16
	movq	%rsp, %rbp
	.cfi_def_cfa_register %rbp
	subq	$32, %rsp
	movq	%rdi, -32(%rbp)
	movq	%rdi, -24(%rbp)
Ltmp780:
Ltmp786:
	.loc	8 490 1 prologue_end
	callq	__ZN70_$LT$alloc..vec..Vec$LT$T$C$A$GT$$u20$as$u20$core..ops..drop..Drop$GT$4drop17hef04b60fd0616919E
Ltmp781:
	jmp	LBB131_3
LBB131_1:
Ltmp783:
	.loc	8 0 1 is_stmt 0
	movq	-32(%rbp), %rdi
	.loc	8 490 1
	callq	__ZN4core3ptr77drop_in_place$LT$alloc..raw_vec..RawVec$LT$alloc..ffi..c_str..CString$GT$$GT$17heac35deeaece0153E
Ltmp784:
	jmp	LBB131_5
LBB131_2:
Ltmp782:
	.loc	8 0 1
	movq	%rax, %rcx
	movl	%edx, %eax
	movq	%rcx, -16(%rbp)
	movl	%eax, -8(%rbp)
	jmp	LBB131_1
LBB131_3:
	movq	-32(%rbp), %rdi
	.loc	8 490 1
	callq	__ZN4core3ptr77drop_in_place$LT$alloc..raw_vec..RawVec$LT$alloc..ffi..c_str..CString$GT$$GT$17heac35deeaece0153E
	addq	$32, %rsp
	popq	%rbp
	retq
LBB131_4:
Ltmp785:
	callq	__ZN4core9panicking19panic_cannot_unwind17h1fbca7e1d7f56ae1E
LBB131_5:
	movq	-16(%rbp), %rdi
	callq	__Unwind_Resume
Ltmp787:
Lfunc_end131:
	.cfi_endproc
	.section	__TEXT,__gcc_except_tab
	.p2align	2
GCC_except_table131:
Lexception25:
	.byte	255
	.byte	255
	.byte	1
	.uleb128 Lcst_end25-Lcst_begin25
Lcst_begin25:
	.uleb128 Ltmp780-Lfunc_begin131
	.uleb128 Ltmp781-Ltmp780
	.uleb128 Ltmp782-Lfunc_begin131
	.byte	0
	.uleb128 Ltmp783-Lfunc_begin131
	.uleb128 Ltmp784-Ltmp783
	.uleb128 Ltmp785-Lfunc_begin131
	.byte	0
	.uleb128 Ltmp784-Lfunc_begin131
	.uleb128 Lfunc_end131-Ltmp784
	.byte	0
	.byte	0
Lcst_end25:
	.p2align	2

	.section	__TEXT,__text,regular,pure_instructions
	.globl	__ZN4core3ptr70drop_in_place$LT$core..option..Option$LT$alloc..string..String$GT$$GT$17h1d2bdbd6f3bdfb15E
	.p2align	4, 0x90
__ZN4core3ptr70drop_in_place$LT$core..option..Option$LT$alloc..string..String$GT$$GT$17h1d2bdbd6f3bdfb15E:
Lfunc_begin132:
	.loc	8 490 0 is_stmt 1
	.cfi_startproc
	pushq	%rbp
	.cfi_def_cfa_offset 16
	.cfi_offset %rbp, -16
	movq	%rsp, %rbp
	.cfi_def_cfa_register %rbp
	subq	$16, %rsp
	movq	%rdi, -16(%rbp)
	movq	%rdi, -8(%rbp)
Ltmp788:
	.loc	8 490 1 prologue_end
	movq	8(%rdi), %rdx
	movl	$1, %eax
	xorl	%ecx, %ecx
	cmpq	$0, %rdx
	cmoveq	%rcx, %rax
	cmpq	$0, %rax
	jne	LBB132_2
LBB132_1:
	addq	$16, %rsp
	popq	%rbp
	retq
LBB132_2:
	.loc	8 0 1 is_stmt 0
	movq	-16(%rbp), %rdi
	.loc	8 490 1
	callq	__ZN4core3ptr42drop_in_place$LT$alloc..string..String$GT$17h884379d4d73bd137E
	jmp	LBB132_1
Ltmp789:
Lfunc_end132:
	.cfi_endproc

	.globl	__ZN4core3ptr72drop_in_place$LT$alloc..collections..btree..mem..replace..PanicGuard$GT$17h176ca4df68a43089E
	.p2align	4, 0x90
__ZN4core3ptr72drop_in_place$LT$alloc..collections..btree..mem..replace..PanicGuard$GT$17h176ca4df68a43089E:
Lfunc_begin133:
	.loc	8 490 0 is_stmt 1
	.cfi_startproc
	pushq	%rbp
	.cfi_def_cfa_offset 16
	.cfi_offset %rbp, -16
	movq	%rsp, %rbp
	.cfi_def_cfa_register %rbp
	subq	$16, %rsp
	movq	%rdi, -8(%rbp)
Ltmp790:
	.loc	8 490 1 prologue_end
	callq	__ZN93_$LT$alloc..collections..btree..mem..replace..PanicGuard$u20$as$u20$core..ops..drop..Drop$GT$4drop17hd8f71405b84037e0E
	addq	$16, %rsp
	popq	%rbp
	retq
Ltmp791:
Lfunc_end133:
	.cfi_endproc

	.globl	__ZN4core3ptr75drop_in_place$LT$core..option..Option$LT$alloc..ffi..c_str..CString$GT$$GT$17h4fbc8dbfa86510cbE
	.p2align	4, 0x90
__ZN4core3ptr75drop_in_place$LT$core..option..Option$LT$alloc..ffi..c_str..CString$GT$$GT$17h4fbc8dbfa86510cbE:
Lfunc_begin134:
	.loc	8 490 0
	.cfi_startproc
	pushq	%rbp
	.cfi_def_cfa_offset 16
	.cfi_offset %rbp, -16
	movq	%rsp, %rbp
	.cfi_def_cfa_register %rbp
	subq	$16, %rsp
	movq	%rdi, -16(%rbp)
	movq	%rdi, -8(%rbp)
Ltmp792:
	.loc	8 490 1 prologue_end
	movq	(%rdi), %rdx
	movl	$1, %eax
	xorl	%ecx, %ecx
	cmpq	$0, %rdx
	cmoveq	%rcx, %rax
	cmpq	$0, %rax
	jne	LBB134_2
LBB134_1:
	addq	$16, %rsp
	popq	%rbp
	retq
LBB134_2:
	.loc	8 0 1 is_stmt 0
	movq	-16(%rbp), %rdi
	.loc	8 490 1
	callq	__ZN4core3ptr47drop_in_place$LT$alloc..ffi..c_str..CString$GT$17h3d265a70f88f8566E
	jmp	LBB134_1
Ltmp793:
Lfunc_end134:
	.cfi_endproc

	.globl	__ZN4core3ptr75drop_in_place$LT$core..option..Option$LT$std..ffi..os_str..OsString$GT$$GT$17hb6dd5fea1da8e3b5E
	.p2align	4, 0x90
__ZN4core3ptr75drop_in_place$LT$core..option..Option$LT$std..ffi..os_str..OsString$GT$$GT$17hb6dd5fea1da8e3b5E:
Lfunc_begin135:
	.loc	8 490 0 is_stmt 1
	.cfi_startproc
	pushq	%rbp
	.cfi_def_cfa_offset 16
	.cfi_offset %rbp, -16
	movq	%rsp, %rbp
	.cfi_def_cfa_register %rbp
	subq	$16, %rsp
	movq	%rdi, -16(%rbp)
	movq	%rdi, -8(%rbp)
Ltmp794:
	.loc	8 490 1 prologue_end
	movq	8(%rdi), %rdx
	movl	$1, %eax
	xorl	%ecx, %ecx
	cmpq	$0, %rdx
	cmoveq	%rcx, %rax
	cmpq	$0, %rax
	jne	LBB135_2
LBB135_1:
	addq	$16, %rsp
	popq	%rbp
	retq
LBB135_2:
	.loc	8 0 1 is_stmt 0
	movq	-16(%rbp), %rdi
	.loc	8 490 1
	callq	__ZN4core3ptr47drop_in_place$LT$std..ffi..os_str..OsString$GT$17hfde4b8fe2086029aE
	jmp	LBB135_1
Ltmp795:
Lfunc_end135:
	.cfi_endproc

	.globl	__ZN4core3ptr77drop_in_place$LT$alloc..raw_vec..RawVec$LT$alloc..ffi..c_str..CString$GT$$GT$17heac35deeaece0153E
	.p2align	4, 0x90
__ZN4core3ptr77drop_in_place$LT$alloc..raw_vec..RawVec$LT$alloc..ffi..c_str..CString$GT$$GT$17heac35deeaece0153E:
Lfunc_begin136:
	.loc	8 490 0 is_stmt 1
	.cfi_startproc
	pushq	%rbp
	.cfi_def_cfa_offset 16
	.cfi_offset %rbp, -16
	movq	%rsp, %rbp
	.cfi_def_cfa_register %rbp
	subq	$16, %rsp
	movq	%rdi, -8(%rbp)
Ltmp796:
	.loc	8 490 1 prologue_end
	callq	__ZN77_$LT$alloc..raw_vec..RawVec$LT$T$C$A$GT$$u20$as$u20$core..ops..drop..Drop$GT$4drop17hf704811d2f2a1014E
	addq	$16, %rsp
	popq	%rbp
	retq
Ltmp797:
Lfunc_end136:
	.cfi_endproc

	.globl	__ZN4core3ptr87drop_in_place$LT$core..option..Option$LT$alloc..boxed..Box$LT$$u5b$u32$u5d$$GT$$GT$$GT$17h23314679dd6ad314E
	.p2align	4, 0x90
__ZN4core3ptr87drop_in_place$LT$core..option..Option$LT$alloc..boxed..Box$LT$$u5b$u32$u5d$$GT$$GT$$GT$17h23314679dd6ad314E:
Lfunc_begin137:
	.loc	8 490 0
	.cfi_startproc
	pushq	%rbp
	.cfi_def_cfa_offset 16
	.cfi_offset %rbp, -16
	movq	%rsp, %rbp
	.cfi_def_cfa_register %rbp
	subq	$16, %rsp
	movq	%rdi, -16(%rbp)
	movq	%rdi, -8(%rbp)
Ltmp798:
	.loc	8 490 1 prologue_end
	movq	(%rdi), %rdx
	movl	$1, %eax
	xorl	%ecx, %ecx
	cmpq	$0, %rdx
	cmoveq	%rcx, %rax
	cmpq	$0, %rax
	jne	LBB137_2
LBB137_1:
	addq	$16, %rsp
	popq	%rbp
	retq
LBB137_2:
	.loc	8 0 1 is_stmt 0
	movq	-16(%rbp), %rdi
	.loc	8 490 1
	callq	__ZN4core3ptr59drop_in_place$LT$alloc..boxed..Box$LT$$u5b$u32$u5d$$GT$$GT$17he7f16bedc1f20f74E
	jmp	LBB137_1
Ltmp799:
Lfunc_end137:
	.cfi_endproc

	.globl	__ZN4core3ptr8non_null16NonNull$LT$T$GT$3new17h402a36822dfe7435E
	.p2align	4, 0x90
__ZN4core3ptr8non_null16NonNull$LT$T$GT$3new17h402a36822dfe7435E:
Lfunc_begin138:
	.loc	11 222 0 is_stmt 1
	.cfi_startproc
	pushq	%rbp
	.cfi_def_cfa_offset 16
	.cfi_offset %rbp, -16
	movq	%rsp, %rbp
	.cfi_def_cfa_register %rbp
	subq	$88, %rsp
	movq	%rdi, -88(%rbp)
	movq	%rdi, -56(%rbp)
Ltmp800:
	.loc	11 223 13 prologue_end
	movq	%rdi, -48(%rbp)
Ltmp801:
	.loc	10 52 36
	movq	%rdi, -64(%rbp)
	.loc	10 52 18 is_stmt 0
	movq	-64(%rbp), %rax
	movq	%rax, -40(%rbp)
Ltmp802:
	.loc	10 38 13 is_stmt 1
	movq	%rax, -32(%rbp)
Ltmp803:
	.loc	10 215 33
	movq	%rax, -24(%rbp)
	.loc	10 215 18 is_stmt 0
	movq	%rax, -16(%rbp)
Ltmp804:
	.loc	10 38 13 is_stmt 1
	cmpq	$0, -16(%rbp)
	sete	%al
Ltmp805:
	.loc	11 223 12
	xorb	$-1, %al
	testb	$1, %al
	jne	LBB138_2
	.loc	11 227 13
	movq	$0, -80(%rbp)
	.loc	11 223 9
	jmp	LBB138_3
LBB138_2:
	.loc	11 0 9 is_stmt 0
	movq	-88(%rbp), %rax
	.loc	11 225 47 is_stmt 1
	movq	%rax, -8(%rbp)
Ltmp806:
	.loc	11 201 13
	movq	%rax, -72(%rbp)
Ltmp807:
	.loc	11 225 13
	movq	-72(%rbp), %rax
	movq	%rax, -80(%rbp)
LBB138_3:
	.loc	11 229 6
	movq	-80(%rbp), %rax
	addq	$88, %rsp
	popq	%rbp
	retq
Ltmp808:
Lfunc_end138:
	.cfi_endproc

	.globl	__ZN4core3ptr8non_null26NonNull$LT$$u5b$T$u5d$$GT$20slice_from_raw_parts17hea166bd28f9c3a4aE
	.p2align	4, 0x90
__ZN4core3ptr8non_null26NonNull$LT$$u5b$T$u5d$$GT$20slice_from_raw_parts17hea166bd28f9c3a4aE:
Lfunc_begin139:
	.loc	11 482 0
	.cfi_startproc
	pushq	%rbp
	.cfi_def_cfa_offset 16
	.cfi_offset %rbp, -16
	movq	%rsp, %rbp
	.cfi_def_cfa_register %rbp
	subq	$128, %rsp
	movq	%rdi, -80(%rbp)
	movq	%rsi, -72(%rbp)
Ltmp809:
	.loc	11 484 70 prologue_end
	movq	%rdi, -64(%rbp)
Ltmp810:
	.loc	11 326 9
	movq	%rdi, -56(%rbp)
Ltmp811:
	.loc	11 484 85
	movq	%rsi, -48(%rbp)
Ltmp812:
	.loc	8 766 24
	movq	%rdi, -40(%rbp)
Ltmp813:
	.loc	10 60 9
	movq	%rdi, -32(%rbp)
Ltmp814:
	.loc	8 766 37
	movq	%rsi, -24(%rbp)
Ltmp815:
	.loc	9 135 36
	movq	%rdi, -96(%rbp)
	movq	%rsi, -88(%rbp)
	.loc	9 135 14 is_stmt 0
	movq	-96(%rbp), %rcx
	movq	-88(%rbp), %rax
	movq	%rcx, -112(%rbp)
	movq	%rax, -104(%rbp)
	movq	-112(%rbp), %rcx
	movq	-104(%rbp), %rax
	movq	%rcx, -16(%rbp)
	movq	%rax, -8(%rbp)
Ltmp816:
	.loc	11 201 13 is_stmt 1
	movq	%rcx, -128(%rbp)
	movq	%rax, -120(%rbp)
Ltmp817:
	.loc	11 485 6
	movq	-128(%rbp), %rax
	movq	-120(%rbp), %rdx
	addq	$128, %rsp
	popq	%rbp
	retq
Ltmp818:
Lfunc_end139:
	.cfi_endproc

	.globl	__ZN4core3ptr93drop_in_place$LT$dyn$u20$core..error..Error$u2b$core..marker..Send$u2b$core..marker..Sync$GT$17h3655ee8063685269E
	.p2align	4, 0x90
__ZN4core3ptr93drop_in_place$LT$dyn$u20$core..error..Error$u2b$core..marker..Send$u2b$core..marker..Sync$GT$17h3655ee8063685269E:
Lfunc_begin140:
	.loc	8 490 0
	.cfi_startproc
	pushq	%rbp
	.cfi_def_cfa_offset 16
	.cfi_offset %rbp, -16
	movq	%rsp, %rbp
	.cfi_def_cfa_register %rbp
	subq	$16, %rsp
	movq	%rdi, -16(%rbp)
	movq	%rsi, -8(%rbp)
Ltmp819:
	.loc	8 490 1 prologue_end
	callq	*(%rsi)
	addq	$16, %rsp
	popq	%rbp
	retq
Ltmp820:
Lfunc_end140:
	.cfi_endproc

	.globl	__ZN4core3ptr95drop_in_place$LT$core..option..Option$LT$std..sys..unix..process..process_common..Stdio$GT$$GT$17h7ced2cc9b3a6c7caE
	.p2align	4, 0x90
__ZN4core3ptr95drop_in_place$LT$core..option..Option$LT$std..sys..unix..process..process_common..Stdio$GT$$GT$17h7ced2cc9b3a6c7caE:
Lfunc_begin141:
	.loc	8 490 0
	.cfi_startproc
	pushq	%rbp
	.cfi_def_cfa_offset 16
	.cfi_offset %rbp, -16
	movq	%rsp, %rbp
	.cfi_def_cfa_register %rbp
	subq	$16, %rsp
	movq	%rdi, -16(%rbp)
	movq	%rdi, -8(%rbp)
Ltmp821:
	.loc	8 490 1 prologue_end
	movl	$1, %eax
	xorl	%ecx, %ecx
	cmpl	$4, (%rdi)
	cmoveq	%rcx, %rax
	cmpq	$0, %rax
	jne	LBB141_2
LBB141_1:
	addq	$16, %rsp
	popq	%rbp
	retq
LBB141_2:
	.loc	8 0 1 is_stmt 0
	movq	-16(%rbp), %rdi
	.loc	8 490 1
	callq	__ZN4core3ptr67drop_in_place$LT$std..sys..unix..process..process_common..Stdio$GT$17ha158fa4b818b6287E
	jmp	LBB141_1
Ltmp822:
Lfunc_end141:
	.cfi_endproc

	.globl	__ZN4core3ptr9const_ptr33_$LT$impl$u20$$BP$const$u20$T$GT$7sub_ptr17h14b46f381cfdda66E
	.p2align	4, 0x90
__ZN4core3ptr9const_ptr33_$LT$impl$u20$$BP$const$u20$T$GT$7sub_ptr17h14b46f381cfdda66E:
Lfunc_begin142:
	.loc	7 791 0 is_stmt 1
	.cfi_startproc
	pushq	%rbp
	.cfi_def_cfa_offset 16
	.cfi_offset %rbp, -16
	movq	%rsp, %rbp
	.cfi_def_cfa_register %rbp
	subq	$64, %rsp
	movq	%rdi, -56(%rbp)
	movq	%rsi, -48(%rbp)
	movq	%rdi, -32(%rbp)
	movq	%rsi, -24(%rbp)
Ltmp823:
	.loc	37 309 5 prologue_end
	movq	$1, -16(%rbp)
Ltmp824:
	.loc	7 806 17
	movb	$1, %al
	testb	$1, %al
	jne	LBB142_2
	movb	$0, -33(%rbp)
	jmp	LBB142_3
LBB142_2:
	movb	$1, -33(%rbp)
LBB142_3:
	.loc	7 806 9 is_stmt 0
	movb	-33(%rbp), %al
	xorb	$-1, %al
	testb	$1, %al
	jne	LBB142_5
	.loc	7 0 9
	movq	-48(%rbp), %rcx
	movq	-56(%rbp), %rax
	.loc	7 808 18 is_stmt 1
	subq	%rcx, %rax
	shrq	$0, %rax
	movq	%rax, -8(%rbp)
	movq	-8(%rbp), %rax
Ltmp825:
	.loc	7 809 6
	addq	$64, %rsp
	popq	%rbp
	retq
LBB142_5:
Ltmp826:
	.loc	7 806 9
	leaq	l___unnamed_10(%rip), %rdi
	leaq	l___unnamed_11(%rip), %rdx
	movl	$73, %esi
	callq	__ZN4core9panicking5panic17hc1bc45270cf64b03E
Ltmp827:
Lfunc_end142:
	.cfi_endproc

	.globl	__ZN4core3str11validations15next_code_point17hd0e120bce8f16bf1E
	.p2align	4, 0x90
__ZN4core3str11validations15next_code_point17hd0e120bce8f16bf1E:
Lfunc_begin143:
	.file	39 "/rustc/2c8cc343237b8f7d5a3c3703e3a87f2eb2c54a74/library/core/src/str" "validations.rs"
	.loc	39 36 0
	.cfi_startproc
	pushq	%rbp
	.cfi_def_cfa_offset 16
	.cfi_offset %rbp, -16
	movq	%rsp, %rbp
	.cfi_def_cfa_register %rbp
	subq	$144, %rsp
	movq	%rdi, -128(%rbp)
	movq	%rdi, -88(%rbp)
Ltmp828:
	.loc	39 38 14 prologue_end
	callq	__ZN91_$LT$core..slice..iter..Iter$LT$T$GT$$u20$as$u20$core..iter..traits..iterator..Iterator$GT$4next17hd59728b86f381172E
	movq	%rax, -104(%rbp)
Ltmp829:
	.loc	14 2407 15
	movq	-104(%rbp), %rdx
	movl	$1, %eax
	xorl	%ecx, %ecx
	cmpq	$0, %rdx
	cmoveq	%rcx, %rax
	.loc	14 2407 9 is_stmt 0
	cmpq	$0, %rax
	jne	LBB143_2
	.loc	14 2409 21 is_stmt 1
	movq	$0, -112(%rbp)
	.loc	14 2409 44 is_stmt 0
	jmp	LBB143_3
LBB143_2:
	.loc	14 2408 18 is_stmt 1
	movq	-104(%rbp), %rax
	movq	%rax, -64(%rbp)
Ltmp830:
	.loc	14 2408 24 is_stmt 0
	movq	%rax, -112(%rbp)
Ltmp831:
LBB143_3:
	.loc	39 38 14 is_stmt 1
	movq	-112(%rbp), %rdx
	xorl	%eax, %eax
	movl	$1, %ecx
	cmpq	$0, %rdx
	cmoveq	%rcx, %rax
	cmpq	$0, %rax
	jne	LBB143_5
	movq	-112(%rbp), %rax
	movq	%rax, -56(%rbp)
	.loc	39 38 13 is_stmt 0
	movb	(%rax), %al
	movb	%al, -129(%rbp)
	movb	%al, -42(%rbp)
Ltmp832:
	.loc	39 39 8 is_stmt 1
	cmpb	$-128, %al
	jb	LBB143_8
	jmp	LBB143_7
Ltmp833:
LBB143_5:
	.loc	14 2420 21
	movl	$0, -120(%rbp)
Ltmp834:
LBB143_6:
	.loc	39 70 2
	jmp	LBB143_9
LBB143_7:
	.loc	39 0 2 is_stmt 0
	movb	-129(%rbp), %al
	movq	-128(%rbp), %rdi
Ltmp835:
	.loc	39 46 32 is_stmt 1
	movb	%al, -41(%rbp)
Ltmp836:
	.loc	39 12 5
	andb	$31, %al
	movzbl	%al, %eax
	movl	%eax, -136(%rbp)
	movl	%eax, -40(%rbp)
Ltmp837:
	.loc	39 49 23
	callq	__ZN91_$LT$core..slice..iter..Iter$LT$T$GT$$u20$as$u20$core..iter..traits..iterator..Iterator$GT$4next17hd59728b86f381172E
	movq	%rax, %rdi
	leaq	l___unnamed_12(%rip), %rsi
	callq	__ZN4core6option15Option$LT$T$GT$16unwrap_unchecked17ha94feaee7ee85b01E
	movl	-136(%rbp), %ecx
	movq	%rax, %rdx
	movb	-129(%rbp), %al
	.loc	39 49 22 is_stmt 0
	movb	(%rdx), %dl
	movb	%dl, -130(%rbp)
	movb	%dl, -33(%rbp)
Ltmp838:
	.loc	39 50 37 is_stmt 1
	movl	%ecx, -32(%rbp)
	.loc	39 50 43 is_stmt 0
	movb	%dl, -26(%rbp)
Ltmp839:
	.loc	39 18 5 is_stmt 1
	shll	$6, %ecx
	.loc	39 18 17 is_stmt 0
	andb	$63, %dl
	movzbl	%dl, %edx
	.loc	39 18 5
	orl	%edx, %ecx
	movl	%ecx, -92(%rbp)
Ltmp840:
	.loc	39 51 8 is_stmt 1
	cmpb	$-32, %al
	jae	LBB143_11
	jmp	LBB143_10
Ltmp841:
LBB143_8:
	.loc	39 0 8 is_stmt 0
	movb	-129(%rbp), %al
	.loc	39 40 21 is_stmt 1
	movzbl	%al, %eax
	.loc	39 40 16 is_stmt 0
	movl	%eax, -116(%rbp)
	movl	$1, -120(%rbp)
	.file	40 "/Users/natalie/.cargo/registry/src/github.com-1ecc6299db9ec823/version_check-0.9.4" "src/lib.rs"
	.loc	40 1 1 is_stmt 1
	jmp	LBB143_6
Ltmp842:
LBB143_9:
	.loc	39 70 2
	movl	-120(%rbp), %eax
	movl	-116(%rbp), %edx
	addq	$144, %rsp
	popq	%rbp
	retq
LBB143_10:
Ltmp843:
	.loc	39 69 10
	movl	-92(%rbp), %eax
	.loc	39 69 5 is_stmt 0
	movl	%eax, -116(%rbp)
	movl	$1, -120(%rbp)
Ltmp844:
	.loc	39 70 2 is_stmt 1
	jmp	LBB143_9
LBB143_11:
	.loc	39 0 2 is_stmt 0
	movq	-128(%rbp), %rdi
Ltmp845:
	.loc	39 56 27 is_stmt 1
	callq	__ZN91_$LT$core..slice..iter..Iter$LT$T$GT$$u20$as$u20$core..iter..traits..iterator..Iterator$GT$4next17hd59728b86f381172E
	movq	%rax, %rdi
	leaq	l___unnamed_13(%rip), %rsi
	callq	__ZN4core6option15Option$LT$T$GT$16unwrap_unchecked17ha94feaee7ee85b01E
	movb	-130(%rbp), %dl
	movl	-136(%rbp), %ecx
	movq	%rax, %rsi
	movb	-129(%rbp), %al
	.loc	39 56 26 is_stmt 0
	movb	(%rsi), %sil
	movb	%sil, -25(%rbp)
Ltmp846:
	.loc	39 57 38 is_stmt 1
	andb	$63, %dl
	movzbl	%dl, %edx
	movl	%edx, -24(%rbp)
	.loc	39 57 62 is_stmt 0
	movb	%sil, -17(%rbp)
Ltmp847:
	.loc	39 18 5 is_stmt 1
	shll	$6, %edx
	.loc	39 18 17 is_stmt 0
	andb	$63, %sil
	movzbl	%sil, %esi
	.loc	39 18 5
	orl	%esi, %edx
	movl	%edx, -140(%rbp)
	movl	%edx, -16(%rbp)
Ltmp848:
	.loc	39 58 14 is_stmt 1
	shll	$12, %ecx
	.loc	39 58 9 is_stmt 0
	orl	%edx, %ecx
	movl	%ecx, -92(%rbp)
	.loc	39 59 12 is_stmt 1
	cmpb	$-16, %al
	jae	LBB143_13
Ltmp849:
LBB143_12:
	.loc	39 51 5
	jmp	LBB143_10
LBB143_13:
	.loc	39 0 5 is_stmt 0
	movq	-128(%rbp), %rdi
Ltmp850:
	.loc	39 64 31 is_stmt 1
	callq	__ZN91_$LT$core..slice..iter..Iter$LT$T$GT$$u20$as$u20$core..iter..traits..iterator..Iterator$GT$4next17hd59728b86f381172E
	movq	%rax, %rdi
	leaq	l___unnamed_14(%rip), %rsi
	callq	__ZN4core6option15Option$LT$T$GT$16unwrap_unchecked17ha94feaee7ee85b01E
	movl	-140(%rbp), %ecx
	movq	%rax, %rdx
	movl	-136(%rbp), %eax
	.loc	39 64 30 is_stmt 0
	movb	(%rdx), %dl
	movb	%dl, -9(%rbp)
Ltmp851:
	.loc	39 65 18 is_stmt 1
	andl	$7, %eax
	shll	$18, %eax
	.loc	39 65 56 is_stmt 0
	movl	%ecx, -8(%rbp)
	.loc	39 65 61
	movb	%dl, -1(%rbp)
Ltmp852:
	.loc	39 18 5 is_stmt 1
	shll	$6, %ecx
	.loc	39 18 17 is_stmt 0
	andb	$63, %dl
	movzbl	%dl, %edx
	.loc	39 18 5
	orl	%edx, %ecx
Ltmp853:
	.loc	39 65 13 is_stmt 1
	orl	%ecx, %eax
	movl	%eax, -92(%rbp)
Ltmp854:
	.loc	39 59 9
	jmp	LBB143_12
Ltmp855:
Lfunc_end143:
	.cfi_endproc

	.globl	__ZN4core3str11validations23next_code_point_reverse17hd89b288730b77902E
	.p2align	4, 0x90
__ZN4core3str11validations23next_code_point_reverse17hd89b288730b77902E:
Lfunc_begin144:
	.loc	39 79 0
	.cfi_startproc
	pushq	%rbp
	.cfi_def_cfa_offset 16
	.cfi_offset %rbp, -16
	movq	%rsp, %rbp
	.cfi_def_cfa_register %rbp
	subq	$144, %rsp
	movq	%rdi, -128(%rbp)
	movq	%rdi, -88(%rbp)
Ltmp856:
	.loc	39 84 20 prologue_end
	callq	__ZN106_$LT$core..slice..iter..Iter$LT$T$GT$$u20$as$u20$core..iter..traits..double_ended..DoubleEndedIterator$GT$9next_back17h26eeb197a857f9d1E
	movq	%rax, -104(%rbp)
Ltmp857:
	.loc	14 2407 15
	movq	-104(%rbp), %rdx
	movl	$1, %eax
	xorl	%ecx, %ecx
	cmpq	$0, %rdx
	cmoveq	%rcx, %rax
	.loc	14 2407 9 is_stmt 0
	cmpq	$0, %rax
	jne	LBB144_2
	.loc	14 2409 21 is_stmt 1
	movq	$0, -112(%rbp)
	.loc	14 2409 44 is_stmt 0
	jmp	LBB144_3
LBB144_2:
	.loc	14 2408 18 is_stmt 1
	movq	-104(%rbp), %rax
	movq	%rax, -64(%rbp)
Ltmp858:
	.loc	14 2408 24 is_stmt 0
	movq	%rax, -112(%rbp)
Ltmp859:
LBB144_3:
	.loc	39 84 20 is_stmt 1
	movq	-112(%rbp), %rdx
	xorl	%eax, %eax
	movl	$1, %ecx
	cmpq	$0, %rdx
	cmoveq	%rcx, %rax
	cmpq	$0, %rax
	jne	LBB144_5
	movq	-112(%rbp), %rax
	movq	%rax, -136(%rbp)
	movq	%rax, -56(%rbp)
	.loc	39 85 9
	movq	%rax, -48(%rbp)
	.loc	39 85 22 is_stmt 0
	cmpb	$-128, (%rax)
	jb	LBB144_8
	jmp	LBB144_7
LBB144_5:
Ltmp860:
	.loc	14 2420 21 is_stmt 1
	movl	$0, -120(%rbp)
Ltmp861:
LBB144_6:
	.loc	39 113 2
	jmp	LBB144_9
LBB144_7:
	.loc	39 0 2 is_stmt 0
	movq	-128(%rbp), %rdi
	movq	-136(%rbp), %rax
	.loc	39 86 9 is_stmt 1
	movb	(%rax), %al
	movb	%al, -138(%rbp)
	movb	%al, -34(%rbp)
Ltmp862:
	.loc	39 86 22 is_stmt 0
	movb	%al, -33(%rbp)
Ltmp863:
	.loc	39 94 23 is_stmt 1
	callq	__ZN106_$LT$core..slice..iter..Iter$LT$T$GT$$u20$as$u20$core..iter..traits..double_ended..DoubleEndedIterator$GT$9next_back17h26eeb197a857f9d1E
	movq	%rax, %rdi
	leaq	l___unnamed_15(%rip), %rsi
	callq	__ZN4core6option15Option$LT$T$GT$16unwrap_unchecked17ha94feaee7ee85b01E
	.loc	39 94 22 is_stmt 0
	movb	(%rax), %al
	movb	%al, -137(%rbp)
	movb	%al, -32(%rbp)
Ltmp864:
	.loc	39 95 26 is_stmt 1
	movb	%al, -31(%rbp)
Ltmp865:
	.loc	39 12 5
	movb	%al, %cl
	andb	$31, %cl
	movzbl	%cl, %ecx
Ltmp866:
	.loc	39 95 5
	movl	%ecx, -92(%rbp)
	.loc	39 96 26
	movb	%al, -30(%rbp)
Ltmp867:
	.loc	39 25 5
	cmpb	$-64, %al
Ltmp868:
	.loc	39 96 8
	jl	LBB144_11
	jmp	LBB144_10
Ltmp869:
LBB144_8:
	.loc	39 0 8 is_stmt 0
	movq	-136(%rbp), %rax
	.loc	39 85 9 is_stmt 1
	movb	(%rax), %al
	movb	%al, -35(%rbp)
Ltmp870:
	.loc	39 85 53 is_stmt 0
	movzbl	%al, %eax
	.loc	39 85 48
	movl	%eax, -116(%rbp)
	movl	$1, -120(%rbp)
Ltmp871:
	.loc	40 1 1 is_stmt 1
	jmp	LBB144_6
LBB144_9:
	.loc	39 113 2
	movl	-120(%rbp), %eax
	movl	-116(%rbp), %edx
	addq	$144, %rsp
	popq	%rbp
	retq
LBB144_10:
	.loc	39 0 2 is_stmt 0
	movb	-138(%rbp), %cl
Ltmp872:
	.loc	39 110 29 is_stmt 1
	movl	-92(%rbp), %eax
	movl	%eax, -8(%rbp)
	.loc	39 110 33 is_stmt 0
	movb	%cl, -1(%rbp)
Ltmp873:
	.loc	39 18 5 is_stmt 1
	shll	$6, %eax
	.loc	39 18 17 is_stmt 0
	andb	$63, %cl
	movzbl	%cl, %ecx
	.loc	39 18 5
	orl	%ecx, %eax
Ltmp874:
	.loc	39 110 5 is_stmt 1
	movl	%eax, -92(%rbp)
	.loc	39 112 10
	movl	-92(%rbp), %eax
	.loc	39 112 5 is_stmt 0
	movl	%eax, -116(%rbp)
	movl	$1, -120(%rbp)
Ltmp875:
	.loc	39 113 2 is_stmt 1
	jmp	LBB144_9
LBB144_11:
	.loc	39 0 2 is_stmt 0
	movq	-128(%rbp), %rdi
Ltmp876:
	.loc	39 99 27 is_stmt 1
	callq	__ZN106_$LT$core..slice..iter..Iter$LT$T$GT$$u20$as$u20$core..iter..traits..double_ended..DoubleEndedIterator$GT$9next_back17h26eeb197a857f9d1E
	movq	%rax, %rdi
	leaq	l___unnamed_16(%rip), %rsi
	callq	__ZN4core6option15Option$LT$T$GT$16unwrap_unchecked17ha94feaee7ee85b01E
	.loc	39 99 26 is_stmt 0
	movb	(%rax), %al
	movb	%al, -139(%rbp)
	movb	%al, -29(%rbp)
Ltmp877:
	.loc	39 100 30 is_stmt 1
	movb	%al, -28(%rbp)
Ltmp878:
	.loc	39 12 5
	movb	%al, %cl
	andb	$15, %cl
	movzbl	%cl, %ecx
Ltmp879:
	.loc	39 100 9
	movl	%ecx, -92(%rbp)
	.loc	39 101 30
	movb	%al, -27(%rbp)
Ltmp880:
	.loc	39 25 5
	cmpb	$-64, %al
Ltmp881:
	.loc	39 101 12
	jl	LBB144_13
LBB144_12:
	.loc	39 0 12 is_stmt 0
	movb	-137(%rbp), %cl
	.loc	39 108 33 is_stmt 1
	movl	-92(%rbp), %eax
	movl	%eax, -16(%rbp)
	.loc	39 108 37 is_stmt 0
	movb	%cl, -9(%rbp)
Ltmp882:
	.loc	39 18 5 is_stmt 1
	shll	$6, %eax
	.loc	39 18 17 is_stmt 0
	andb	$63, %cl
	movzbl	%cl, %ecx
	.loc	39 18 5
	orl	%ecx, %eax
Ltmp883:
	.loc	39 108 9 is_stmt 1
	movl	%eax, -92(%rbp)
Ltmp884:
	.loc	39 96 5
	jmp	LBB144_10
LBB144_13:
	.loc	39 0 5 is_stmt 0
	movq	-128(%rbp), %rdi
Ltmp885:
	.loc	39 104 31 is_stmt 1
	callq	__ZN106_$LT$core..slice..iter..Iter$LT$T$GT$$u20$as$u20$core..iter..traits..double_ended..DoubleEndedIterator$GT$9next_back17h26eeb197a857f9d1E
	movq	%rax, %rdi
	leaq	l___unnamed_17(%rip), %rsi
	callq	__ZN4core6option15Option$LT$T$GT$16unwrap_unchecked17ha94feaee7ee85b01E
	movb	-139(%rbp), %cl
	.loc	39 104 30 is_stmt 0
	movb	(%rax), %al
	movb	%al, -26(%rbp)
Ltmp886:
	.loc	39 105 34 is_stmt 1
	movb	%al, -25(%rbp)
Ltmp887:
	.loc	39 12 5
	andb	$7, %al
	movzbl	%al, %eax
Ltmp888:
	.loc	39 105 13
	movl	%eax, -92(%rbp)
	.loc	39 106 37
	movl	-92(%rbp), %eax
	movl	%eax, -24(%rbp)
	.loc	39 106 41 is_stmt 0
	movb	%cl, -17(%rbp)
Ltmp889:
	.loc	39 18 5 is_stmt 1
	shll	$6, %eax
	.loc	39 18 17 is_stmt 0
	andb	$63, %cl
	movzbl	%cl, %ecx
	.loc	39 18 5
	orl	%ecx, %eax
Ltmp890:
	.loc	39 106 13 is_stmt 1
	movl	%eax, -92(%rbp)
Ltmp891:
	.loc	39 101 9
	jmp	LBB144_12
Ltmp892:
Lfunc_end144:
	.cfi_endproc

	.p2align	4, 0x90
__ZN4core3str21_$LT$impl$u20$str$GT$10trim_right17hff75faaef808a54aE:
Lfunc_begin145:
	.loc	29 2025 0
	.cfi_startproc
	pushq	%rbp
	.cfi_def_cfa_offset 16
	.cfi_offset %rbp, -16
	movq	%rsp, %rbp
	.cfi_def_cfa_register %rbp
	subq	$32, %rsp
	movq	%rdi, -32(%rbp)
	movq	%rsi, -24(%rbp)
Ltmp893:
	.loc	29 2026 9 prologue_end
	movq	%rdi, -16(%rbp)
	movq	%rsi, -8(%rbp)
Ltmp894:
	.loc	29 1946 9
	callq	__ZN4core3str21_$LT$impl$u20$str$GT$16trim_end_matches17h629f4df41665cbf2E
Ltmp895:
	.loc	29 2027 6
	addq	$32, %rsp
	popq	%rbp
	retq
Ltmp896:
Lfunc_end145:
	.cfi_endproc

	.globl	__ZN4core3str21_$LT$impl$u20$str$GT$10trim_start28_$u7b$$u7b$closure$u7d$$u7d$17h62ecc6a4823d3e24E
	.p2align	4, 0x90
__ZN4core3str21_$LT$impl$u20$str$GT$10trim_start28_$u7b$$u7b$closure$u7d$$u7d$17h62ecc6a4823d3e24E:
Lfunc_begin146:
	.loc	29 1907 0
	.cfi_startproc
	pushq	%rbp
	.cfi_def_cfa_offset 16
	.cfi_offset %rbp, -16
	movq	%rsp, %rbp
	.cfi_def_cfa_register %rbp
	subq	$32, %rsp
	movl	%esi, -20(%rbp)
	movq	%rdi, %rax
	movl	-20(%rbp), %edi
	movq	%rax, -16(%rbp)
	movl	%edi, -4(%rbp)
Ltmp897:
	.loc	29 1907 43 prologue_end
	callq	__ZN4core4char7methods22_$LT$impl$u20$char$GT$13is_whitespace17hf49d0de4109a0016E
	.loc	29 1907 60 is_stmt 0
	andb	$1, %al
	movzbl	%al, %eax
	addq	$32, %rsp
	popq	%rbp
	retq
Ltmp898:
Lfunc_end146:
	.cfi_endproc

	.globl	__ZN4core3str21_$LT$impl$u20$str$GT$11starts_with17ha4cbbdec1191b5d0E
	.p2align	4, 0x90
__ZN4core3str21_$LT$impl$u20$str$GT$11starts_with17ha4cbbdec1191b5d0E:
Lfunc_begin147:
	.loc	29 1096 0 is_stmt 1
	.cfi_startproc
	pushq	%rbp
	.cfi_def_cfa_offset 16
	.cfi_offset %rbp, -16
	movq	%rsp, %rbp
	.cfi_def_cfa_register %rbp
	subq	$48, %rsp
	movq	%rcx, -48(%rbp)
	movq	%rdx, -40(%rbp)
	movq	%rsi, %rcx
	movq	-48(%rbp), %rsi
	movq	%rdi, %rdx
	movq	-40(%rbp), %rdi
	movq	%rdx, -32(%rbp)
	movq	%rcx, -24(%rbp)
	movq	%rdi, -16(%rbp)
	movq	%rsi, -8(%rbp)
Ltmp899:
	.loc	29 1097 9 prologue_end
	callq	__ZN55_$LT$$RF$str$u20$as$u20$core..str..pattern..Pattern$GT$12is_prefix_of17hda2fb29812aea4b5E
	.loc	29 1098 6
	andb	$1, %al
	movzbl	%al, %eax
	addq	$48, %rsp
	popq	%rbp
	retq
Ltmp900:
Lfunc_end147:
	.cfi_endproc

	.globl	__ZN4core3str21_$LT$impl$u20$str$GT$12trim_matches17h572e328e4b673c93E
	.p2align	4, 0x90
__ZN4core3str21_$LT$impl$u20$str$GT$12trim_matches17h572e328e4b673c93E:
Lfunc_begin148:
	.loc	29 2058 0
	.cfi_startproc
	.cfi_personality 155, _rust_eh_personality
	.cfi_lsda 16, Lexception26
	pushq	%rbp
	.cfi_def_cfa_offset 16
	.cfi_offset %rbp, -16
	movq	%rsp, %rbp
	.cfi_def_cfa_register %rbp
	subq	$240, %rsp
	movq	%rsi, %rdx
	movq	%rdi, %rsi
	movq	%rsi, -224(%rbp)
	movq	%rdx, -216(%rbp)
	movq	%rsi, -80(%rbp)
	movq	%rdx, -72(%rbp)
Ltmp908:
	.loc	29 2062 21 prologue_end
	movq	$0, -200(%rbp)
Ltmp909:
	.loc	29 2063 21
	movq	$0, -192(%rbp)
	leaq	-184(%rbp), %rdi
	movq	%rdi, -208(%rbp)
Ltmp910:
	.loc	29 2064 27
	callq	__ZN49_$LT$F$u20$as$u20$core..str..pattern..Pattern$GT$13into_searcher17h8bebae70cac86e87E
	movq	-208(%rbp), %rsi
Ltmp901:
	leaq	-144(%rbp), %rdi
Ltmp911:
	.loc	29 2065 31
	callq	__ZN99_$LT$core..str..pattern..CharPredicateSearcher$LT$F$GT$$u20$as$u20$core..str..pattern..Searcher$GT$11next_reject17h2963c83872905d36E
Ltmp902:
	jmp	LBB148_3
Ltmp912:
LBB148_1:
	.loc	29 2058 5
	movq	-56(%rbp), %rdi
	callq	__Unwind_Resume
LBB148_2:
Ltmp907:
	.loc	29 0 5 is_stmt 0
	movq	%rax, %rcx
	movl	%edx, %eax
	movq	%rcx, -56(%rbp)
	movl	%eax, -48(%rbp)
	jmp	LBB148_1
LBB148_3:
Ltmp913:
	.loc	29 2065 16 is_stmt 1
	cmpq	$1, -144(%rbp)
	jne	LBB148_5
	.loc	29 2065 22 is_stmt 0
	movq	-136(%rbp), %rcx
	movq	%rcx, -40(%rbp)
	.loc	29 2065 25
	movq	-128(%rbp), %rax
	movq	%rax, -32(%rbp)
	.loc	29 2066 13 is_stmt 1
	movq	%rcx, -200(%rbp)
	.loc	29 2067 13
	movq	%rax, -192(%rbp)
Ltmp914:
LBB148_5:
Ltmp903:
	.loc	29 0 13 is_stmt 0
	leaq	-120(%rbp), %rdi
	leaq	-184(%rbp), %rsi
Ltmp915:
	.loc	29 2070 31 is_stmt 1
	callq	__ZN106_$LT$core..str..pattern..CharPredicateSearcher$LT$F$GT$$u20$as$u20$core..str..pattern..ReverseSearcher$GT$16next_reject_back17h001ee8dc66756349E
Ltmp904:
	jmp	LBB148_6
LBB148_6:
	.loc	29 2070 16 is_stmt 0
	cmpq	$1, -120(%rbp)
	jne	LBB148_8
	.loc	29 2070 25
	movq	-104(%rbp), %rax
	movq	%rax, -24(%rbp)
	.loc	29 2071 13 is_stmt 1
	movq	%rax, -192(%rbp)
Ltmp916:
LBB148_8:
	.loc	29 0 13 is_stmt 0
	movq	-216(%rbp), %rcx
	movq	-224(%rbp), %rdx
	.loc	29 2074 18 is_stmt 1
	movq	%rdx, -16(%rbp)
	movq	%rcx, -8(%rbp)
	.loc	29 2074 37 is_stmt 0
	movq	-200(%rbp), %rsi
	.loc	29 2074 40
	movq	-192(%rbp), %rax
	.loc	29 2074 37
	movq	%rsi, -96(%rbp)
	movq	%rax, -88(%rbp)
Ltmp917:
	.loc	29 511 20 is_stmt 1
	movq	-96(%rbp), %rdi
	movq	-88(%rbp), %rsi
Ltmp905:
	callq	__ZN4core3str6traits108_$LT$impl$u20$core..slice..index..SliceIndex$LT$str$GT$$u20$for$u20$core..ops..range..Range$LT$usize$GT$$GT$13get_unchecked17hc92fa46ff10a7fdfE
Ltmp906:
	movq	%rdx, -240(%rbp)
	movq	%rax, -232(%rbp)
	jmp	LBB148_9
Ltmp918:
LBB148_9:
	.loc	29 0 20 is_stmt 0
	movq	-240(%rbp), %rdx
	movq	-232(%rbp), %rax
	.loc	29 2075 6 is_stmt 1
	addq	$240, %rsp
	popq	%rbp
	retq
Ltmp919:
Lfunc_end148:
	.cfi_endproc
	.section	__TEXT,__gcc_except_tab
	.p2align	2
GCC_except_table148:
Lexception26:
	.byte	255
	.byte	255
	.byte	1
	.uleb128 Lcst_end26-Lcst_begin26
Lcst_begin26:
	.uleb128 Lfunc_begin148-Lfunc_begin148
	.uleb128 Ltmp901-Lfunc_begin148
	.byte	0
	.byte	0
	.uleb128 Ltmp901-Lfunc_begin148
	.uleb128 Ltmp902-Ltmp901
	.uleb128 Ltmp907-Lfunc_begin148
	.byte	0
	.uleb128 Ltmp902-Lfunc_begin148
	.uleb128 Ltmp903-Ltmp902
	.byte	0
	.byte	0
	.uleb128 Ltmp903-Lfunc_begin148
	.uleb128 Ltmp906-Ltmp903
	.uleb128 Ltmp907-Lfunc_begin148
	.byte	0
Lcst_end26:
	.p2align	2

	.section	__TEXT,__text,regular,pure_instructions
	.p2align	4, 0x90
__ZN4core3str21_$LT$impl$u20$str$GT$16is_char_boundary17hbdf65a91837f3ba1E:
Lfunc_begin149:
	.loc	29 211 0
	.cfi_startproc
	pushq	%rbp
	.cfi_def_cfa_offset 16
	.cfi_offset %rbp, -16
	movq	%rsp, %rbp
	.cfi_def_cfa_register %rbp
	subq	$176, %rsp
	movq	%rdi, -176(%rbp)
	movq	%rsi, -168(%rbp)
	movq	%rdx, -160(%rbp)
	movq	%rdi, -136(%rbp)
	movq	%rsi, -128(%rbp)
	movq	%rdx, -120(%rbp)
Ltmp920:
	.loc	29 216 12 prologue_end
	cmpq	$0, %rdx
	jne	LBB149_2
	.loc	29 217 20
	movb	$1, -145(%rbp)
	.loc	29 234 6
	jmp	LBB149_6
LBB149_2:
	.loc	29 0 6 is_stmt 0
	movq	-160(%rbp), %rdi
	movq	-168(%rbp), %rax
	movq	-176(%rbp), %rcx
	.loc	29 220 15 is_stmt 1
	movq	%rcx, -112(%rbp)
	movq	%rax, -104(%rbp)
Ltmp921:
	.loc	29 327 18
	movq	%rcx, -96(%rbp)
	movq	%rax, -88(%rbp)
	movq	-96(%rbp), %rsi
	movq	-88(%rbp), %rdx
Ltmp922:
	.loc	29 220 15
	movq	%rsi, -80(%rbp)
	movq	%rdx, -72(%rbp)
	.loc	29 220 35 is_stmt 0
	movq	%rdi, -64(%rbp)
Ltmp923:
	.file	41 "/rustc/2c8cc343237b8f7d5a3c3703e3a87f2eb2c54a74/library/core/src/slice" "mod.rs"
	.loc	41 343 9 is_stmt 1
	callq	__ZN75_$LT$usize$u20$as$u20$core..slice..index..SliceIndex$LT$$u5b$T$u5d$$GT$$GT$3get17hf8e2c72b86c54927E
	movq	%rax, -144(%rbp)
Ltmp924:
	.loc	29 220 15
	movq	-144(%rbp), %rdx
	movl	$1, %eax
	xorl	%ecx, %ecx
	cmpq	$0, %rdx
	cmoveq	%rcx, %rax
	.loc	29 220 9 is_stmt 0
	cmpq	$0, %rax
	jne	LBB149_4
	.loc	29 0 9
	movq	-160(%rbp), %rax
	movq	-168(%rbp), %rcx
	movq	-176(%rbp), %rdx
	.loc	29 230 30 is_stmt 1
	movq	%rdx, -48(%rbp)
	movq	%rcx, -40(%rbp)
Ltmp925:
	.loc	29 160 9
	movq	%rdx, -32(%rbp)
	movq	%rcx, -24(%rbp)
Ltmp926:
	.loc	29 327 18
	movq	%rdx, -16(%rbp)
	movq	%rcx, -8(%rbp)
Ltmp927:
	.loc	29 230 21
	cmpq	-8(%rbp), %rax
	sete	%al
	andb	$1, %al
	movb	%al, -145(%rbp)
	.loc	29 230 39 is_stmt 0
	jmp	LBB149_5
LBB149_4:
	.loc	29 232 19 is_stmt 1
	movq	-144(%rbp), %rax
	movb	(%rax), %al
	movb	%al, -50(%rbp)
Ltmp928:
	.loc	29 232 25 is_stmt 0
	movb	%al, -49(%rbp)
Ltmp929:
	.file	42 "/rustc/2c8cc343237b8f7d5a3c3703e3a87f2eb2c54a74/library/core/src/num" "mod.rs"
	.loc	42 885 9 is_stmt 1
	cmpb	$-64, %al
	setge	%al
	andb	$1, %al
	movb	%al, -145(%rbp)
Ltmp930:
LBB149_5:
	.loc	29 234 6
	jmp	LBB149_6
LBB149_6:
	movb	-145(%rbp), %al
	andb	$1, %al
	movzbl	%al, %eax
	addq	$176, %rsp
	popq	%rbp
	retq
Ltmp931:
Lfunc_end149:
	.cfi_endproc

	.globl	__ZN4core3str21_$LT$impl$u20$str$GT$16trim_end_matches17h629f4df41665cbf2E
	.p2align	4, 0x90
__ZN4core3str21_$LT$impl$u20$str$GT$16trim_end_matches17h629f4df41665cbf2E:
Lfunc_begin150:
	.loc	29 2211 0
	.cfi_startproc
	.cfi_personality 155, _rust_eh_personality
	.cfi_lsda 16, Lexception27
	pushq	%rbp
	.cfi_def_cfa_offset 16
	.cfi_offset %rbp, -16
	movq	%rsp, %rbp
	.cfi_def_cfa_register %rbp
	subq	$192, %rsp
	movq	%rsi, %rdx
	movq	%rdi, %rsi
	movq	%rsi, -176(%rbp)
	movq	%rdx, -168(%rbp)
	movq	%rsi, -64(%rbp)
	movq	%rdx, -56(%rbp)
Ltmp937:
	.loc	29 2215 21 prologue_end
	movq	$0, -152(%rbp)
	leaq	-144(%rbp), %rdi
	movq	%rdi, -160(%rbp)
Ltmp938:
	.loc	29 2216 27
	callq	__ZN49_$LT$F$u20$as$u20$core..str..pattern..Pattern$GT$13into_searcher17h60b114cbb6bebb61E
	movq	-160(%rbp), %rsi
Ltmp932:
	leaq	-104(%rbp), %rdi
Ltmp939:
	.loc	29 2217 31
	callq	__ZN106_$LT$core..str..pattern..CharPredicateSearcher$LT$F$GT$$u20$as$u20$core..str..pattern..ReverseSearcher$GT$16next_reject_back17hbbe74381b72404d8E
Ltmp933:
	jmp	LBB150_3
Ltmp940:
LBB150_1:
	.loc	29 2211 5
	movq	-40(%rbp), %rdi
	callq	__Unwind_Resume
LBB150_2:
Ltmp936:
	.loc	29 0 5 is_stmt 0
	movq	%rax, %rcx
	movl	%edx, %eax
	movq	%rcx, -40(%rbp)
	movl	%eax, -32(%rbp)
	jmp	LBB150_1
LBB150_3:
Ltmp941:
	.loc	29 2217 16 is_stmt 1
	cmpq	$1, -104(%rbp)
	jne	LBB150_5
	.loc	29 2217 25 is_stmt 0
	movq	-88(%rbp), %rax
	movq	%rax, -24(%rbp)
	.loc	29 2218 13 is_stmt 1
	movq	%rax, -152(%rbp)
Ltmp942:
LBB150_5:
	.loc	29 0 13 is_stmt 0
	movq	-168(%rbp), %rcx
	movq	-176(%rbp), %rdx
	.loc	29 2221 18 is_stmt 1
	movq	%rdx, -16(%rbp)
	movq	%rcx, -8(%rbp)
	.loc	29 2221 40 is_stmt 0
	movq	-152(%rbp), %rax
	.loc	29 2221 37
	movq	$0, -80(%rbp)
	movq	%rax, -72(%rbp)
Ltmp943:
	.loc	29 511 20 is_stmt 1
	movq	-80(%rbp), %rdi
	movq	-72(%rbp), %rsi
Ltmp934:
	callq	__ZN4core3str6traits108_$LT$impl$u20$core..slice..index..SliceIndex$LT$str$GT$$u20$for$u20$core..ops..range..Range$LT$usize$GT$$GT$13get_unchecked17hc92fa46ff10a7fdfE
Ltmp935:
	movq	%rdx, -192(%rbp)
	movq	%rax, -184(%rbp)
	jmp	LBB150_6
Ltmp944:
LBB150_6:
	.loc	29 0 20 is_stmt 0
	movq	-192(%rbp), %rdx
	movq	-184(%rbp), %rax
	.loc	29 2222 6 is_stmt 1
	addq	$192, %rsp
	popq	%rbp
	retq
Ltmp945:
Lfunc_end150:
	.cfi_endproc
	.section	__TEXT,__gcc_except_tab
	.p2align	2
GCC_except_table150:
Lexception27:
	.byte	255
	.byte	255
	.byte	1
	.uleb128 Lcst_end27-Lcst_begin27
Lcst_begin27:
	.uleb128 Lfunc_begin150-Lfunc_begin150
	.uleb128 Ltmp932-Lfunc_begin150
	.byte	0
	.byte	0
	.uleb128 Ltmp932-Lfunc_begin150
	.uleb128 Ltmp933-Ltmp932
	.uleb128 Ltmp936-Lfunc_begin150
	.byte	0
	.uleb128 Ltmp933-Lfunc_begin150
	.uleb128 Ltmp934-Ltmp933
	.byte	0
	.byte	0
	.uleb128 Ltmp934-Lfunc_begin150
	.uleb128 Ltmp935-Ltmp934
	.uleb128 Ltmp936-Lfunc_begin150
	.byte	0
Lcst_end27:
	.p2align	2

	.section	__TEXT,__text,regular,pure_instructions
	.globl	__ZN4core3str21_$LT$impl$u20$str$GT$16trim_end_matches17hee6fcbabeb29b521E
	.p2align	4, 0x90
__ZN4core3str21_$LT$impl$u20$str$GT$16trim_end_matches17hee6fcbabeb29b521E:
Lfunc_begin151:
	.loc	29 2211 0
	.cfi_startproc
	.cfi_personality 155, _rust_eh_personality
	.cfi_lsda 16, Lexception28
	pushq	%rbp
	.cfi_def_cfa_offset 16
	.cfi_offset %rbp, -16
	movq	%rsp, %rbp
	.cfi_def_cfa_register %rbp
	subq	$288, %rsp
	movq	%rcx, -264(%rbp)
	movq	%rdx, %rax
	movq	-264(%rbp), %rdx
	movq	%rax, -256(%rbp)
	movq	%rsi, %r8
	movq	-256(%rbp), %rsi
	movq	%rdi, %rcx
	movq	%rcx, -248(%rbp)
	movq	%r8, -240(%rbp)
	movq	%rcx, -72(%rbp)
	movq	%r8, -64(%rbp)
	movq	%rsi, -56(%rbp)
	movq	%rdx, -48(%rbp)
Ltmp951:
	.loc	29 2215 21 prologue_end
	movq	$0, -224(%rbp)
	leaq	-216(%rbp), %rdi
	movq	%rdi, -232(%rbp)
Ltmp952:
	.loc	29 2216 27
	callq	__ZN55_$LT$$RF$str$u20$as$u20$core..str..pattern..Pattern$GT$13into_searcher17hdbacd8feab93fba6E
	movq	-232(%rbp), %rsi
Ltmp946:
	leaq	-112(%rbp), %rdi
Ltmp953:
	.loc	29 2217 31
	callq	__ZN4core3str7pattern15ReverseSearcher16next_reject_back17hc74409e7aea1be41E
Ltmp947:
	jmp	LBB151_3
Ltmp954:
LBB151_1:
	.loc	29 2211 5
	movq	-40(%rbp), %rdi
	callq	__Unwind_Resume
LBB151_2:
Ltmp950:
	.loc	29 0 5 is_stmt 0
	movq	%rax, %rcx
	movl	%edx, %eax
	movq	%rcx, -40(%rbp)
	movl	%eax, -32(%rbp)
	jmp	LBB151_1
LBB151_3:
Ltmp955:
	.loc	29 2217 16 is_stmt 1
	cmpq	$1, -112(%rbp)
	jne	LBB151_5
	.loc	29 2217 25 is_stmt 0
	movq	-96(%rbp), %rax
	movq	%rax, -24(%rbp)
	.loc	29 2218 13 is_stmt 1
	movq	%rax, -224(%rbp)
Ltmp956:
LBB151_5:
	.loc	29 0 13 is_stmt 0
	movq	-240(%rbp), %rcx
	movq	-248(%rbp), %rdx
	.loc	29 2221 18 is_stmt 1
	movq	%rdx, -16(%rbp)
	movq	%rcx, -8(%rbp)
	.loc	29 2221 40 is_stmt 0
	movq	-224(%rbp), %rax
	.loc	29 2221 37
	movq	$0, -88(%rbp)
	movq	%rax, -80(%rbp)
Ltmp957:
	.loc	29 511 20 is_stmt 1
	movq	-88(%rbp), %rdi
	movq	-80(%rbp), %rsi
Ltmp948:
	callq	__ZN4core3str6traits108_$LT$impl$u20$core..slice..index..SliceIndex$LT$str$GT$$u20$for$u20$core..ops..range..Range$LT$usize$GT$$GT$13get_unchecked17hc92fa46ff10a7fdfE
Ltmp949:
	movq	%rdx, -280(%rbp)
	movq	%rax, -272(%rbp)
	jmp	LBB151_6
Ltmp958:
LBB151_6:
	.loc	29 0 20 is_stmt 0
	movq	-280(%rbp), %rdx
	movq	-272(%rbp), %rax
	.loc	29 2222 6 is_stmt 1
	addq	$288, %rsp
	popq	%rbp
	retq
Ltmp959:
Lfunc_end151:
	.cfi_endproc
	.section	__TEXT,__gcc_except_tab
	.p2align	2
GCC_except_table151:
Lexception28:
	.byte	255
	.byte	255
	.byte	1
	.uleb128 Lcst_end28-Lcst_begin28
Lcst_begin28:
	.uleb128 Lfunc_begin151-Lfunc_begin151
	.uleb128 Ltmp946-Lfunc_begin151
	.byte	0
	.byte	0
	.uleb128 Ltmp946-Lfunc_begin151
	.uleb128 Ltmp947-Ltmp946
	.uleb128 Ltmp950-Lfunc_begin151
	.byte	0
	.uleb128 Ltmp947-Lfunc_begin151
	.uleb128 Ltmp948-Ltmp947
	.byte	0
	.byte	0
	.uleb128 Ltmp948-Lfunc_begin151
	.uleb128 Ltmp949-Ltmp948
	.uleb128 Ltmp950-Lfunc_begin151
	.byte	0
Lcst_end28:
	.p2align	2

	.section	__TEXT,__text,regular,pure_instructions
	.globl	__ZN4core3str21_$LT$impl$u20$str$GT$17trim_left_matches17h6c482b490db27036E
	.p2align	4, 0x90
__ZN4core3str21_$LT$impl$u20$str$GT$17trim_left_matches17h6c482b490db27036E:
Lfunc_begin152:
	.loc	29 2257 0
	.cfi_startproc
	pushq	%rbp
	.cfi_def_cfa_offset 16
	.cfi_offset %rbp, -16
	movq	%rsp, %rbp
	.cfi_def_cfa_register %rbp
	subq	$32, %rsp
	movq	%rdi, -24(%rbp)
	movq	%rsi, -16(%rbp)
	movl	%edx, -4(%rbp)
Ltmp960:
	.loc	29 2258 9 prologue_end
	callq	__ZN4core3str21_$LT$impl$u20$str$GT$18trim_start_matches17hd02bfb5209f5b484E
	.loc	29 2259 6
	addq	$32, %rsp
	popq	%rbp
	retq
Ltmp961:
Lfunc_end152:
	.cfi_endproc

	.globl	__ZN4core3str21_$LT$impl$u20$str$GT$17trim_left_matches17h9405bf83f457a85aE
	.p2align	4, 0x90
__ZN4core3str21_$LT$impl$u20$str$GT$17trim_left_matches17h9405bf83f457a85aE:
Lfunc_begin153:
	.loc	29 2257 0
	.cfi_startproc
	pushq	%rbp
	.cfi_def_cfa_offset 16
	.cfi_offset %rbp, -16
	movq	%rsp, %rbp
	.cfi_def_cfa_register %rbp
	subq	$32, %rsp
	movq	%rdi, -32(%rbp)
	movq	%rsi, -24(%rbp)
	movq	%rdx, -16(%rbp)
	movq	%rcx, -8(%rbp)
Ltmp962:
	.loc	29 2258 9 prologue_end
	callq	__ZN4core3str21_$LT$impl$u20$str$GT$18trim_start_matches17h1ae032e9f16ecaecE
	.loc	29 2259 6
	addq	$32, %rsp
	popq	%rbp
	retq
Ltmp963:
Lfunc_end153:
	.cfi_endproc

	.globl	__ZN4core3str21_$LT$impl$u20$str$GT$18trim_right_matches17h605ce0e9ded29aa0E
	.p2align	4, 0x90
__ZN4core3str21_$LT$impl$u20$str$GT$18trim_right_matches17h605ce0e9ded29aa0E:
Lfunc_begin154:
	.loc	29 2300 0
	.cfi_startproc
	pushq	%rbp
	.cfi_def_cfa_offset 16
	.cfi_offset %rbp, -16
	movq	%rsp, %rbp
	.cfi_def_cfa_register %rbp
	subq	$32, %rsp
	movq	%rdi, -32(%rbp)
	movq	%rsi, -24(%rbp)
	movq	%rdx, -16(%rbp)
	movq	%rcx, -8(%rbp)
Ltmp964:
	.loc	29 2304 9 prologue_end
	callq	__ZN4core3str21_$LT$impl$u20$str$GT$16trim_end_matches17hee6fcbabeb29b521E
	.loc	29 2305 6
	addq	$32, %rsp
	popq	%rbp
	retq
Ltmp965:
Lfunc_end154:
	.cfi_endproc

	.globl	__ZN4core3str21_$LT$impl$u20$str$GT$18trim_start_matches17h1ae032e9f16ecaecE
	.p2align	4, 0x90
__ZN4core3str21_$LT$impl$u20$str$GT$18trim_start_matches17h1ae032e9f16ecaecE:
Lfunc_begin155:
	.loc	29 2107 0
	.cfi_startproc
	.cfi_personality 155, _rust_eh_personality
	.cfi_lsda 16, Lexception29
	pushq	%rbp
	.cfi_def_cfa_offset 16
	.cfi_offset %rbp, -16
	movq	%rsp, %rbp
	.cfi_def_cfa_register %rbp
	subq	$400, %rsp
	movq	%rdi, -368(%rbp)
	movq	%rsi, -360(%rbp)
	movq	%rdx, -352(%rbp)
	movq	%rcx, -344(%rbp)
	movq	%rdi, -168(%rbp)
	movq	%rsi, -160(%rbp)
	movq	%rdx, -152(%rbp)
	movq	%rcx, -144(%rbp)
Ltmp974:
	.loc	29 2108 13 prologue_end
	movb	$1, -169(%rbp)
	.loc	29 2108 21 is_stmt 0
	movq	%rdi, -136(%rbp)
	movq	%rsi, -128(%rbp)
Ltmp975:
	.loc	29 160 9 is_stmt 1
	movq	%rdi, -120(%rbp)
	movq	%rsi, -112(%rbp)
Ltmp976:
	.loc	29 327 18
	movq	%rdi, -104(%rbp)
	movq	%rsi, -96(%rbp)
	movq	-96(%rbp), %rax
	movq	%rax, -336(%rbp)
Ltmp977:
	.loc	29 0 18 is_stmt 0
	movq	-360(%rbp), %r8
	movq	-368(%rbp), %rcx
	movq	-344(%rbp), %rdx
	movq	-352(%rbp), %rsi
	movq	-336(%rbp), %rax
	.loc	29 160 9 is_stmt 1
	movq	%rax, -328(%rbp)
Ltmp978:
	.loc	29 2109 27
	movb	$0, -169(%rbp)
Ltmp966:
	leaq	-320(%rbp), %rdi
	callq	__ZN55_$LT$$RF$str$u20$as$u20$core..str..pattern..Pattern$GT$13into_searcher17hdbacd8feab93fba6E
Ltmp967:
	jmp	LBB155_4
Ltmp979:
LBB155_2:
	.loc	29 2115 5
	testb	$1, -169(%rbp)
	jne	LBB155_14
	jmp	LBB155_13
LBB155_3:
Ltmp968:
	.loc	29 0 5 is_stmt 0
	movq	%rax, %rcx
	movl	%edx, %eax
	movq	%rcx, -88(%rbp)
	movl	%eax, -80(%rbp)
	jmp	LBB155_2
LBB155_4:
Ltmp969:
	leaq	-216(%rbp), %rdi
	leaq	-320(%rbp), %rsi
Ltmp980:
	.loc	29 2110 31 is_stmt 1
	callq	__ZN4core3str7pattern8Searcher11next_reject17h10e05c72389ab6d3E
Ltmp970:
	jmp	LBB155_7
Ltmp981:
LBB155_5:
	.loc	29 2115 5
	jmp	LBB155_2
LBB155_6:
Ltmp973:
	.loc	29 0 5 is_stmt 0
	movq	%rax, %rcx
	movl	%edx, %eax
	movq	%rcx, -88(%rbp)
	movl	%eax, -80(%rbp)
	jmp	LBB155_5
LBB155_7:
Ltmp982:
	.loc	29 2110 16 is_stmt 1
	cmpq	$1, -216(%rbp)
	jne	LBB155_9
	.loc	29 2110 22 is_stmt 0
	movq	-208(%rbp), %rax
	movq	%rax, -72(%rbp)
	.loc	29 2111 13 is_stmt 1
	movq	%rax, -328(%rbp)
Ltmp983:
LBB155_9:
	.loc	29 0 13 is_stmt 0
	movq	-360(%rbp), %rax
	movq	-368(%rbp), %rcx
	.loc	29 2114 18 is_stmt 1
	movq	%rcx, -64(%rbp)
	movq	%rax, -56(%rbp)
	.loc	29 2114 37 is_stmt 0
	movq	-328(%rbp), %rdx
	movq	%rdx, -384(%rbp)
	.loc	29 2114 40
	movq	%rcx, -48(%rbp)
	movq	%rax, -40(%rbp)
Ltmp984:
	.loc	29 160 9 is_stmt 1
	movq	%rcx, -32(%rbp)
	movq	%rax, -24(%rbp)
Ltmp985:
	.loc	29 327 18
	movq	%rcx, -16(%rbp)
	movq	%rax, -8(%rbp)
	movq	-8(%rbp), %rax
	movq	%rax, -376(%rbp)
Ltmp986:
	.loc	29 0 18 is_stmt 0
	movq	-360(%rbp), %rcx
	movq	-368(%rbp), %rdx
	movq	-376(%rbp), %rax
	movq	-384(%rbp), %rsi
	.loc	29 2114 37 is_stmt 1
	movq	%rsi, -192(%rbp)
	movq	%rax, -184(%rbp)
Ltmp987:
	.loc	29 511 20
	movq	-192(%rbp), %rdi
	movq	-184(%rbp), %rsi
Ltmp971:
	callq	__ZN4core3str6traits108_$LT$impl$u20$core..slice..index..SliceIndex$LT$str$GT$$u20$for$u20$core..ops..range..Range$LT$usize$GT$$GT$13get_unchecked17hc92fa46ff10a7fdfE
Ltmp972:
	movq	%rdx, -400(%rbp)
	movq	%rax, -392(%rbp)
	jmp	LBB155_11
Ltmp988:
LBB155_11:
	.loc	29 0 20 is_stmt 0
	movq	-400(%rbp), %rdx
	movq	-392(%rbp), %rax
	.loc	29 2115 6 is_stmt 1
	addq	$400, %rsp
	popq	%rbp
	retq
LBB155_13:
	.loc	29 2107 5
	movq	-88(%rbp), %rdi
	callq	__Unwind_Resume
LBB155_14:
	.loc	29 2115 5
	jmp	LBB155_13
Ltmp989:
Lfunc_end155:
	.cfi_endproc
	.section	__TEXT,__gcc_except_tab
	.p2align	2
GCC_except_table155:
Lexception29:
	.byte	255
	.byte	255
	.byte	1
	.uleb128 Lcst_end29-Lcst_begin29
Lcst_begin29:
	.uleb128 Ltmp966-Lfunc_begin155
	.uleb128 Ltmp967-Ltmp966
	.uleb128 Ltmp968-Lfunc_begin155
	.byte	0
	.uleb128 Ltmp969-Lfunc_begin155
	.uleb128 Ltmp972-Ltmp969
	.uleb128 Ltmp973-Lfunc_begin155
	.byte	0
	.uleb128 Ltmp972-Lfunc_begin155
	.uleb128 Lfunc_end155-Ltmp972
	.byte	0
	.byte	0
Lcst_end29:
	.p2align	2

	.section	__TEXT,__text,regular,pure_instructions
	.globl	__ZN4core3str21_$LT$impl$u20$str$GT$18trim_start_matches17h6084ea897085d631E
	.p2align	4, 0x90
__ZN4core3str21_$LT$impl$u20$str$GT$18trim_start_matches17h6084ea897085d631E:
Lfunc_begin156:
	.loc	29 2107 0
	.cfi_startproc
	.cfi_personality 155, _rust_eh_personality
	.cfi_lsda 16, Lexception30
	pushq	%rbp
	.cfi_def_cfa_offset 16
	.cfi_offset %rbp, -16
	movq	%rsp, %rbp
	.cfi_def_cfa_register %rbp
	subq	$320, %rsp
	movq	%rdi, -280(%rbp)
	movq	%rsi, -272(%rbp)
	movq	%rdi, -160(%rbp)
	movq	%rsi, -152(%rbp)
Ltmp998:
	.loc	29 2108 13 prologue_end
	movb	$1, -161(%rbp)
	.loc	29 2108 21 is_stmt 0
	movq	%rdi, -136(%rbp)
	movq	%rsi, -128(%rbp)
Ltmp999:
	.loc	29 160 9 is_stmt 1
	movq	%rdi, -120(%rbp)
	movq	%rsi, -112(%rbp)
Ltmp1000:
	.loc	29 327 18
	movq	%rdi, -104(%rbp)
	movq	%rsi, -96(%rbp)
	movq	-96(%rbp), %rax
	movq	%rax, -264(%rbp)
Ltmp1001:
	.loc	29 0 18 is_stmt 0
	movq	-272(%rbp), %rdx
	movq	-280(%rbp), %rsi
	movq	-264(%rbp), %rax
	.loc	29 160 9 is_stmt 1
	movq	%rax, -256(%rbp)
Ltmp1002:
	.loc	29 2109 27
	movb	$0, -161(%rbp)
Ltmp990:
	leaq	-248(%rbp), %rdi
	callq	__ZN49_$LT$F$u20$as$u20$core..str..pattern..Pattern$GT$13into_searcher17h901eae8a4de30fabE
Ltmp991:
	jmp	LBB156_4
Ltmp1003:
LBB156_2:
	.loc	29 2115 5
	testb	$1, -161(%rbp)
	jne	LBB156_14
	jmp	LBB156_13
LBB156_3:
Ltmp992:
	.loc	29 0 5 is_stmt 0
	movq	%rax, %rcx
	movl	%edx, %eax
	movq	%rcx, -88(%rbp)
	movl	%eax, -80(%rbp)
	jmp	LBB156_2
LBB156_4:
Ltmp993:
	leaq	-208(%rbp), %rdi
	leaq	-248(%rbp), %rsi
Ltmp1004:
	.loc	29 2110 31 is_stmt 1
	callq	__ZN99_$LT$core..str..pattern..CharPredicateSearcher$LT$F$GT$$u20$as$u20$core..str..pattern..Searcher$GT$11next_reject17he3109c678a2155f6E
Ltmp994:
	jmp	LBB156_7
Ltmp1005:
LBB156_5:
	.loc	29 2115 5
	jmp	LBB156_2
LBB156_6:
Ltmp997:
	.loc	29 0 5 is_stmt 0
	movq	%rax, %rcx
	movl	%edx, %eax
	movq	%rcx, -88(%rbp)
	movl	%eax, -80(%rbp)
	jmp	LBB156_5
LBB156_7:
Ltmp1006:
	.loc	29 2110 16 is_stmt 1
	cmpq	$1, -208(%rbp)
	jne	LBB156_9
	.loc	29 2110 22 is_stmt 0
	movq	-200(%rbp), %rax
	movq	%rax, -72(%rbp)
	.loc	29 2111 13 is_stmt 1
	movq	%rax, -256(%rbp)
Ltmp1007:
LBB156_9:
	.loc	29 0 13 is_stmt 0
	movq	-272(%rbp), %rax
	movq	-280(%rbp), %rcx
	.loc	29 2114 18 is_stmt 1
	movq	%rcx, -64(%rbp)
	movq	%rax, -56(%rbp)
	.loc	29 2114 37 is_stmt 0
	movq	-256(%rbp), %rdx
	movq	%rdx, -296(%rbp)
	.loc	29 2114 40
	movq	%rcx, -48(%rbp)
	movq	%rax, -40(%rbp)
Ltmp1008:
	.loc	29 160 9 is_stmt 1
	movq	%rcx, -32(%rbp)
	movq	%rax, -24(%rbp)
Ltmp1009:
	.loc	29 327 18
	movq	%rcx, -16(%rbp)
	movq	%rax, -8(%rbp)
	movq	-8(%rbp), %rax
	movq	%rax, -288(%rbp)
Ltmp1010:
	.loc	29 0 18 is_stmt 0
	movq	-272(%rbp), %rcx
	movq	-280(%rbp), %rdx
	movq	-288(%rbp), %rax
	movq	-296(%rbp), %rsi
	.loc	29 2114 37 is_stmt 1
	movq	%rsi, -184(%rbp)
	movq	%rax, -176(%rbp)
Ltmp1011:
	.loc	29 511 20
	movq	-184(%rbp), %rdi
	movq	-176(%rbp), %rsi
Ltmp995:
	callq	__ZN4core3str6traits108_$LT$impl$u20$core..slice..index..SliceIndex$LT$str$GT$$u20$for$u20$core..ops..range..Range$LT$usize$GT$$GT$13get_unchecked17hc92fa46ff10a7fdfE
Ltmp996:
	movq	%rdx, -312(%rbp)
	movq	%rax, -304(%rbp)
	jmp	LBB156_11
Ltmp1012:
LBB156_11:
	.loc	29 0 20 is_stmt 0
	movq	-312(%rbp), %rdx
	movq	-304(%rbp), %rax
	.loc	29 2115 6 is_stmt 1
	addq	$320, %rsp
	popq	%rbp
	retq
LBB156_13:
	.loc	29 2107 5
	movq	-88(%rbp), %rdi
	callq	__Unwind_Resume
LBB156_14:
	.loc	29 2115 5
	jmp	LBB156_13
Ltmp1013:
Lfunc_end156:
	.cfi_endproc
	.section	__TEXT,__gcc_except_tab
	.p2align	2
GCC_except_table156:
Lexception30:
	.byte	255
	.byte	255
	.byte	1
	.uleb128 Lcst_end30-Lcst_begin30
Lcst_begin30:
	.uleb128 Ltmp990-Lfunc_begin156
	.uleb128 Ltmp991-Ltmp990
	.uleb128 Ltmp992-Lfunc_begin156
	.byte	0
	.uleb128 Ltmp993-Lfunc_begin156
	.uleb128 Ltmp996-Ltmp993
	.uleb128 Ltmp997-Lfunc_begin156
	.byte	0
	.uleb128 Ltmp996-Lfunc_begin156
	.uleb128 Lfunc_end156-Ltmp996
	.byte	0
	.byte	0
Lcst_end30:
	.p2align	2

	.section	__TEXT,__text,regular,pure_instructions
	.globl	__ZN4core3str21_$LT$impl$u20$str$GT$18trim_start_matches17hd02bfb5209f5b484E
	.p2align	4, 0x90
__ZN4core3str21_$LT$impl$u20$str$GT$18trim_start_matches17hd02bfb5209f5b484E:
Lfunc_begin157:
	.loc	29 2107 0
	.cfi_startproc
	.cfi_personality 155, _rust_eh_personality
	.cfi_lsda 16, Lexception31
	pushq	%rbp
	.cfi_def_cfa_offset 16
	.cfi_offset %rbp, -16
	movq	%rsp, %rbp
	.cfi_def_cfa_register %rbp
	subq	$336, %rsp
	movq	%rdi, -296(%rbp)
	movq	%rsi, -288(%rbp)
	movl	%edx, -276(%rbp)
	movq	%rdi, -160(%rbp)
	movq	%rsi, -152(%rbp)
	movl	%edx, -140(%rbp)
Ltmp1022:
	.loc	29 2108 13 prologue_end
	movb	$1, -161(%rbp)
	.loc	29 2108 21 is_stmt 0
	movq	%rdi, -136(%rbp)
	movq	%rsi, -128(%rbp)
Ltmp1023:
	.loc	29 160 9 is_stmt 1
	movq	%rdi, -120(%rbp)
	movq	%rsi, -112(%rbp)
Ltmp1024:
	.loc	29 327 18
	movq	%rdi, -104(%rbp)
	movq	%rsi, -96(%rbp)
	movq	-96(%rbp), %rax
	movq	%rax, -272(%rbp)
Ltmp1025:
	.loc	29 0 18 is_stmt 0
	movq	-288(%rbp), %rcx
	movq	-296(%rbp), %rdx
	movl	-276(%rbp), %esi
	movq	-272(%rbp), %rax
	.loc	29 160 9 is_stmt 1
	movq	%rax, -264(%rbp)
Ltmp1026:
	.loc	29 2109 27
	movb	$0, -161(%rbp)
Ltmp1014:
	leaq	-256(%rbp), %rdi
	callq	__ZN52_$LT$char$u20$as$u20$core..str..pattern..Pattern$GT$13into_searcher17hee4e5a1476f6530aE
Ltmp1015:
	jmp	LBB157_4
Ltmp1027:
LBB157_2:
	.loc	29 2115 5
	testb	$1, -161(%rbp)
	jne	LBB157_14
	jmp	LBB157_13
LBB157_3:
Ltmp1016:
	.loc	29 0 5 is_stmt 0
	movq	%rax, %rcx
	movl	%edx, %eax
	movq	%rcx, -88(%rbp)
	movl	%eax, -80(%rbp)
	jmp	LBB157_2
LBB157_4:
Ltmp1017:
	leaq	-208(%rbp), %rdi
	leaq	-256(%rbp), %rsi
Ltmp1028:
	.loc	29 2110 31 is_stmt 1
	callq	__ZN4core3str7pattern8Searcher11next_reject17h0d7397af3da34e46E
Ltmp1018:
	jmp	LBB157_7
Ltmp1029:
LBB157_5:
	.loc	29 2115 5
	jmp	LBB157_2
LBB157_6:
Ltmp1021:
	.loc	29 0 5 is_stmt 0
	movq	%rax, %rcx
	movl	%edx, %eax
	movq	%rcx, -88(%rbp)
	movl	%eax, -80(%rbp)
	jmp	LBB157_5
LBB157_7:
Ltmp1030:
	.loc	29 2110 16 is_stmt 1
	cmpq	$1, -208(%rbp)
	jne	LBB157_9
	.loc	29 2110 22 is_stmt 0
	movq	-200(%rbp), %rax
	movq	%rax, -72(%rbp)
	.loc	29 2111 13 is_stmt 1
	movq	%rax, -264(%rbp)
Ltmp1031:
LBB157_9:
	.loc	29 0 13 is_stmt 0
	movq	-288(%rbp), %rax
	movq	-296(%rbp), %rcx
	.loc	29 2114 18 is_stmt 1
	movq	%rcx, -64(%rbp)
	movq	%rax, -56(%rbp)
	.loc	29 2114 37 is_stmt 0
	movq	-264(%rbp), %rdx
	movq	%rdx, -312(%rbp)
	.loc	29 2114 40
	movq	%rcx, -48(%rbp)
	movq	%rax, -40(%rbp)
Ltmp1032:
	.loc	29 160 9 is_stmt 1
	movq	%rcx, -32(%rbp)
	movq	%rax, -24(%rbp)
Ltmp1033:
	.loc	29 327 18
	movq	%rcx, -16(%rbp)
	movq	%rax, -8(%rbp)
	movq	-8(%rbp), %rax
	movq	%rax, -304(%rbp)
Ltmp1034:
	.loc	29 0 18 is_stmt 0
	movq	-288(%rbp), %rcx
	movq	-296(%rbp), %rdx
	movq	-304(%rbp), %rax
	movq	-312(%rbp), %rsi
	.loc	29 2114 37 is_stmt 1
	movq	%rsi, -184(%rbp)
	movq	%rax, -176(%rbp)
Ltmp1035:
	.loc	29 511 20
	movq	-184(%rbp), %rdi
	movq	-176(%rbp), %rsi
Ltmp1019:
	callq	__ZN4core3str6traits108_$LT$impl$u20$core..slice..index..SliceIndex$LT$str$GT$$u20$for$u20$core..ops..range..Range$LT$usize$GT$$GT$13get_unchecked17hc92fa46ff10a7fdfE
Ltmp1020:
	movq	%rdx, -328(%rbp)
	movq	%rax, -320(%rbp)
	jmp	LBB157_11
Ltmp1036:
LBB157_11:
	.loc	29 0 20 is_stmt 0
	movq	-328(%rbp), %rdx
	movq	-320(%rbp), %rax
	.loc	29 2115 6 is_stmt 1
	addq	$336, %rsp
	popq	%rbp
	retq
LBB157_13:
	.loc	29 2107 5
	movq	-88(%rbp), %rdi
	callq	__Unwind_Resume
LBB157_14:
	.loc	29 2115 5
	jmp	LBB157_13
Ltmp1037:
Lfunc_end157:
	.cfi_endproc
	.section	__TEXT,__gcc_except_tab
	.p2align	2
GCC_except_table157:
Lexception31:
	.byte	255
	.byte	255
	.byte	1
	.uleb128 Lcst_end31-Lcst_begin31
Lcst_begin31:
	.uleb128 Ltmp1014-Lfunc_begin157
	.uleb128 Ltmp1015-Ltmp1014
	.uleb128 Ltmp1016-Lfunc_begin157
	.byte	0
	.uleb128 Ltmp1017-Lfunc_begin157
	.uleb128 Ltmp1020-Ltmp1017
	.uleb128 Ltmp1021-Lfunc_begin157
	.byte	0
	.uleb128 Ltmp1020-Lfunc_begin157
	.uleb128 Lfunc_end157-Ltmp1020
	.byte	0
	.byte	0
Lcst_end31:
	.p2align	2

	.section	__TEXT,__text,regular,pure_instructions
	.p2align	4, 0x90
__ZN4core3str21_$LT$impl$u20$str$GT$3len17h7a6b8390131a78abE:
Lfunc_begin158:
	.loc	29 159 0
	.cfi_startproc
	pushq	%rbp
	.cfi_def_cfa_offset 16
	.cfi_offset %rbp, -16
	movq	%rsp, %rbp
	.cfi_def_cfa_register %rbp
	subq	$48, %rsp
	movq	%rdi, -48(%rbp)
	movq	%rsi, -40(%rbp)
Ltmp1038:
	.loc	29 160 9 prologue_end
	movq	%rdi, -32(%rbp)
	movq	%rsi, -24(%rbp)
Ltmp1039:
	.loc	29 327 18
	movq	%rdi, -16(%rbp)
	movq	%rsi, -8(%rbp)
	movq	-8(%rbp), %rax
Ltmp1040:
	.loc	29 161 6
	addq	$48, %rsp
	popq	%rbp
	retq
Ltmp1041:
Lfunc_end158:
	.cfi_endproc

	.p2align	4, 0x90
__ZN4core3str21_$LT$impl$u20$str$GT$4trim17h0763e065272d493dE:
Lfunc_begin159:
	.loc	29 1867 0
	.cfi_startproc
	pushq	%rbp
	.cfi_def_cfa_offset 16
	.cfi_offset %rbp, -16
	movq	%rsp, %rbp
	.cfi_def_cfa_register %rbp
	subq	$16, %rsp
	movq	%rdi, -16(%rbp)
	movq	%rsi, -8(%rbp)
Ltmp1042:
	.loc	29 1868 9 prologue_end
	callq	__ZN4core3str21_$LT$impl$u20$str$GT$12trim_matches17h572e328e4b673c93E
	.loc	29 1869 6
	addq	$16, %rsp
	popq	%rbp
	retq
Ltmp1043:
Lfunc_end159:
	.cfi_endproc

	.globl	__ZN4core3str21_$LT$impl$u20$str$GT$4trim28_$u7b$$u7b$closure$u7d$$u7d$17hd68f3aee1ec471a6E
	.p2align	4, 0x90
__ZN4core3str21_$LT$impl$u20$str$GT$4trim28_$u7b$$u7b$closure$u7d$$u7d$17hd68f3aee1ec471a6E:
Lfunc_begin160:
	.loc	29 1868 0
	.cfi_startproc
	pushq	%rbp
	.cfi_def_cfa_offset 16
	.cfi_offset %rbp, -16
	movq	%rsp, %rbp
	.cfi_def_cfa_register %rbp
	subq	$32, %rsp
	movl	%esi, -20(%rbp)
	movq	%rdi, %rax
	movl	-20(%rbp), %edi
	movq	%rax, -16(%rbp)
	movl	%edi, -4(%rbp)
Ltmp1044:
	.loc	29 1868 37 prologue_end
	callq	__ZN4core4char7methods22_$LT$impl$u20$char$GT$13is_whitespace17hf49d0de4109a0016E
	.loc	29 1868 54 is_stmt 0
	andb	$1, %al
	movzbl	%al, %eax
	addq	$32, %rsp
	popq	%rbp
	retq
Ltmp1045:
Lfunc_end160:
	.cfi_endproc

	.p2align	4, 0x90
__ZN4core3str21_$LT$impl$u20$str$GT$5lines17hb60f8bd4479d07a5E:
Lfunc_begin161:
	.loc	29 1013 0 is_stmt 1
	.cfi_startproc
	pushq	%rbp
	.cfi_def_cfa_offset 16
	.cfi_offset %rbp, -16
	movq	%rsp, %rbp
	.cfi_def_cfa_register %rbp
	subq	$416, %rsp
	movq	%rdi, -416(%rbp)
	movq	%rdi, -408(%rbp)
	movq	%rsi, -40(%rbp)
	movq	%rdx, -32(%rbp)
Ltmp1046:
	.loc	29 1014 15 prologue_end
	movq	%rsi, -16(%rbp)
	movq	%rdx, -8(%rbp)
Ltmp1047:
	.loc	29 1488 72
	leaq	-184(%rbp), %rdi
	movl	$10, %ecx
	callq	__ZN4core3str21_$LT$impl$u20$str$GT$5split17hc46d4c1e54ed53baE
	.loc	29 1488 25 is_stmt 0
	movq	-136(%rbp), %rax
	movq	%rax, -208(%rbp)
	movq	-128(%rbp), %rax
	movq	%rax, -200(%rbp)
	leaq	-256(%rbp), %rdi
	leaq	-184(%rbp), %rsi
	movl	$48, %edx
	callq	_memcpy
	movb	$0, -192(%rbp)
	movb	-119(%rbp), %al
	andb	$1, %al
	movb	%al, -191(%rbp)
	.loc	29 1488 9
	leaq	-328(%rbp), %rdi
	leaq	-256(%rbp), %rsi
	movl	$72, %edx
	callq	_memcpy
Ltmp1048:
	.file	43 "/rustc/2c8cc343237b8f7d5a3c3703e3a87f2eb2c54a74/library/core/src/iter/traits" "iterator.rs"
	.loc	43 787 18 is_stmt 1
	leaq	-112(%rbp), %rdi
	leaq	-328(%rbp), %rsi
	movl	$72, %edx
	callq	_memcpy
	.loc	43 787 9 is_stmt 0
	leaq	-400(%rbp), %rdi
	leaq	-112(%rbp), %rsi
	callq	__ZN4core4iter8adapters3map16Map$LT$I$C$F$GT$3new17h500159a5888fbbfbE
	movq	-416(%rbp), %rdi
Ltmp1049:
	.loc	29 1014 9 is_stmt 1
	leaq	-400(%rbp), %rsi
	movl	$72, %edx
	callq	_memcpy
	movq	-408(%rbp), %rax
	.loc	29 1015 6
	addq	$416, %rsp
	popq	%rbp
	retq
Ltmp1050:
Lfunc_end161:
	.cfi_endproc

	.globl	__ZN4core3str21_$LT$impl$u20$str$GT$5parse17h12078109b8689032E
	.p2align	4, 0x90
__ZN4core3str21_$LT$impl$u20$str$GT$5parse17h12078109b8689032E:
Lfunc_begin162:
	.loc	29 2352 0
	.cfi_startproc
	pushq	%rbp
	.cfi_def_cfa_offset 16
	.cfi_offset %rbp, -16
	movq	%rsp, %rbp
	.cfi_def_cfa_register %rbp
	subq	$32, %rsp
	movq	%rdi, -24(%rbp)
	movq	%rsi, -16(%rbp)
Ltmp1051:
	.loc	29 2353 9 prologue_end
	callq	__ZN4core3num60_$LT$impl$u20$core..str..traits..FromStr$u20$for$u20$u16$GT$8from_str17h69b6f16831beded9E
	movl	%eax, -4(%rbp)
	movl	-4(%rbp), %eax
	movl	%eax, -32(%rbp)
	.loc	29 2354 6
	movl	-32(%rbp), %eax
	addq	$32, %rsp
	popq	%rbp
	retq
Ltmp1052:
Lfunc_end162:
	.cfi_endproc

	.globl	__ZN4core3str21_$LT$impl$u20$str$GT$5split17h4233417122805cc8E
	.p2align	4, 0x90
__ZN4core3str21_$LT$impl$u20$str$GT$5split17h4233417122805cc8E:
Lfunc_begin163:
	.loc	29 1341 0
	.cfi_startproc
	.cfi_personality 155, _rust_eh_personality
	.cfi_lsda 16, Lexception32
	pushq	%rbp
	.cfi_def_cfa_offset 16
	.cfi_offset %rbp, -16
	movq	%rsp, %rbp
	.cfi_def_cfa_register %rbp
	subq	$400, %rsp
	movq	%r8, -392(%rbp)
	movq	%rcx, -384(%rbp)
	movq	%rdx, -376(%rbp)
	movq	%rsi, -368(%rbp)
	movq	%rdi, -360(%rbp)
	movq	%rdi, -352(%rbp)
	movq	%rsi, -96(%rbp)
	movq	%rdx, -88(%rbp)
	movq	%rcx, -80(%rbp)
	movq	%r8, -72(%rbp)
Ltmp1056:
	.loc	29 1342 15 prologue_end
	movb	$1, -97(%rbp)
	.loc	29 1344 18
	movq	%rsi, -64(%rbp)
	movq	%rdx, -56(%rbp)
Ltmp1057:
	.loc	29 160 9
	movq	%rsi, -48(%rbp)
	movq	%rdx, -40(%rbp)
Ltmp1058:
	.loc	29 327 18
	movq	%rsi, -32(%rbp)
	movq	%rdx, -24(%rbp)
	movq	-24(%rbp), %rax
	movq	%rax, -344(%rbp)
Ltmp1059:
	.loc	29 0 18 is_stmt 0
	movq	-376(%rbp), %r8
	movq	-368(%rbp), %rcx
	movq	-392(%rbp), %rdx
	movq	-384(%rbp), %rsi
	.loc	29 1345 22 is_stmt 1
	movb	$0, -97(%rbp)
Ltmp1053:
	leaq	-208(%rbp), %rdi
	callq	__ZN55_$LT$$RF$str$u20$as$u20$core..str..pattern..Pattern$GT$13into_searcher17hdbacd8feab93fba6E
Ltmp1054:
	jmp	LBB163_4
LBB163_2:
	.loc	29 1349 5
	testb	$1, -97(%rbp)
	jne	LBB163_6
	jmp	LBB163_5
LBB163_3:
Ltmp1055:
	.loc	29 0 5 is_stmt 0
	movq	%rax, %rcx
	movl	%edx, %eax
	movq	%rcx, -16(%rbp)
	movl	%eax, -8(%rbp)
	jmp	LBB163_2
LBB163_4:
	movq	-344(%rbp), %rax
	.loc	29 1342 15 is_stmt 1
	movq	$0, -336(%rbp)
	movq	%rax, -328(%rbp)
	leaq	-336(%rbp), %rdi
	addq	$16, %rdi
	leaq	-208(%rbp), %rsi
	movl	$104, %edx
	callq	_memcpy
	movq	-360(%rbp), %rdi
	movb	$1, -216(%rbp)
	movb	$0, -215(%rbp)
	.loc	29 1342 9 is_stmt 0
	leaq	-336(%rbp), %rsi
	movl	$128, %edx
	callq	_memcpy
	movq	-352(%rbp), %rax
	.loc	29 1349 6 is_stmt 1
	addq	$400, %rsp
	popq	%rbp
	retq
LBB163_5:
	.loc	29 1341 5
	movq	-16(%rbp), %rdi
	callq	__Unwind_Resume
LBB163_6:
	.loc	29 1349 5
	jmp	LBB163_5
Ltmp1060:
Lfunc_end163:
	.cfi_endproc
	.section	__TEXT,__gcc_except_tab
	.p2align	2
GCC_except_table163:
Lexception32:
	.byte	255
	.byte	255
	.byte	1
	.uleb128 Lcst_end32-Lcst_begin32
Lcst_begin32:
	.uleb128 Ltmp1053-Lfunc_begin163
	.uleb128 Ltmp1054-Ltmp1053
	.uleb128 Ltmp1055-Lfunc_begin163
	.byte	0
	.uleb128 Ltmp1054-Lfunc_begin163
	.uleb128 Lfunc_end163-Ltmp1054
	.byte	0
	.byte	0
Lcst_end32:
	.p2align	2

	.section	__TEXT,__text,regular,pure_instructions
	.globl	__ZN4core3str21_$LT$impl$u20$str$GT$5split17hc46d4c1e54ed53baE
	.p2align	4, 0x90
__ZN4core3str21_$LT$impl$u20$str$GT$5split17hc46d4c1e54ed53baE:
Lfunc_begin164:
	.loc	29 1341 0
	.cfi_startproc
	.cfi_personality 155, _rust_eh_personality
	.cfi_lsda 16, Lexception33
	pushq	%rbp
	.cfi_def_cfa_offset 16
	.cfi_offset %rbp, -16
	movq	%rsp, %rbp
	.cfi_def_cfa_register %rbp
	subq	$272, %rsp
	movl	%ecx, -260(%rbp)
	movq	%rdx, -256(%rbp)
	movq	%rsi, -248(%rbp)
	movq	%rdi, -240(%rbp)
	movq	%rdi, -232(%rbp)
	movq	%rsi, -88(%rbp)
	movq	%rdx, -80(%rbp)
	movl	%ecx, -68(%rbp)
Ltmp1064:
	.loc	29 1342 15 prologue_end
	movb	$1, -89(%rbp)
	.loc	29 1344 18
	movq	%rsi, -64(%rbp)
	movq	%rdx, -56(%rbp)
Ltmp1065:
	.loc	29 160 9
	movq	%rsi, -48(%rbp)
	movq	%rdx, -40(%rbp)
Ltmp1066:
	.loc	29 327 18
	movq	%rsi, -32(%rbp)
	movq	%rdx, -24(%rbp)
	movq	-24(%rbp), %rax
	movq	%rax, -224(%rbp)
Ltmp1067:
	.loc	29 0 18 is_stmt 0
	movq	-256(%rbp), %rcx
	movq	-248(%rbp), %rdx
	movl	-260(%rbp), %esi
	.loc	29 1345 22 is_stmt 1
	movb	$0, -89(%rbp)
Ltmp1061:
	leaq	-144(%rbp), %rdi
	callq	__ZN52_$LT$char$u20$as$u20$core..str..pattern..Pattern$GT$13into_searcher17hee4e5a1476f6530aE
Ltmp1062:
	jmp	LBB164_4
LBB164_2:
	.loc	29 1349 5
	testb	$1, -89(%rbp)
	jne	LBB164_6
	jmp	LBB164_5
LBB164_3:
Ltmp1063:
	.loc	29 0 5 is_stmt 0
	movq	%rax, %rcx
	movl	%edx, %eax
	movq	%rcx, -16(%rbp)
	movl	%eax, -8(%rbp)
	jmp	LBB164_2
LBB164_4:
	movq	-224(%rbp), %rax
	.loc	29 1342 15 is_stmt 1
	movq	$0, -168(%rbp)
	movq	%rax, -160(%rbp)
	leaq	-216(%rbp), %rdi
	leaq	-144(%rbp), %rsi
	movl	$48, %edx
	callq	_memcpy
	movq	-240(%rbp), %rdi
	movb	$1, -152(%rbp)
	movb	$0, -151(%rbp)
	.loc	29 1342 9 is_stmt 0
	leaq	-216(%rbp), %rsi
	movl	$72, %edx
	callq	_memcpy
	movq	-232(%rbp), %rax
	.loc	29 1349 6 is_stmt 1
	addq	$272, %rsp
	popq	%rbp
	retq
LBB164_5:
	.loc	29 1341 5
	movq	-16(%rbp), %rdi
	callq	__Unwind_Resume
LBB164_6:
	.loc	29 1349 5
	jmp	LBB164_5
Ltmp1068:
Lfunc_end164:
	.cfi_endproc
	.section	__TEXT,__gcc_except_tab
	.p2align	2
GCC_except_table164:
Lexception33:
	.byte	255
	.byte	255
	.byte	1
	.uleb128 Lcst_end33-Lcst_begin33
Lcst_begin33:
	.uleb128 Ltmp1061-Lfunc_begin164
	.uleb128 Ltmp1062-Ltmp1061
	.uleb128 Ltmp1063-Lfunc_begin164
	.byte	0
	.uleb128 Ltmp1062-Lfunc_begin164
	.uleb128 Lfunc_end164-Ltmp1062
	.byte	0
	.byte	0
Lcst_end33:
	.p2align	2

	.section	__TEXT,__text,regular,pure_instructions
	.globl	__ZN4core3str21_$LT$impl$u20$str$GT$6splitn17h884385199fa77db9E
	.p2align	4, 0x90
__ZN4core3str21_$LT$impl$u20$str$GT$6splitn17h884385199fa77db9E:
Lfunc_begin165:
	.loc	29 1588 0
	.cfi_startproc
	pushq	%rbp
	.cfi_def_cfa_offset 16
	.cfi_offset %rbp, -16
	movq	%rsp, %rbp
	.cfi_def_cfa_register %rbp
	subq	$480, %rsp
	movq	%r9, -472(%rbp)
	movq	%r8, %rax
	movq	-472(%rbp), %r8
	movq	%rax, -464(%rbp)
	movq	%rcx, %rax
	movq	-464(%rbp), %rcx
	movq	%rax, -456(%rbp)
	movq	%rdi, -448(%rbp)
	movq	%rdi, -440(%rbp)
	movq	%rsi, -40(%rbp)
	movq	%rdx, -32(%rbp)
	movq	%rax, -24(%rbp)
	movq	%rcx, -16(%rbp)
	movq	%r8, -8(%rbp)
Ltmp1069:
	.loc	29 1589 39 prologue_end
	leaq	-168(%rbp), %rdi
	callq	__ZN4core3str21_$LT$impl$u20$str$GT$5split17h4233417122805cc8E
	leaq	-296(%rbp), %rdi
	leaq	-168(%rbp), %rsi
	movl	$128, %edx
	callq	_memcpy
	.loc	29 1589 16 is_stmt 0
	leaq	-432(%rbp), %rdi
	leaq	-296(%rbp), %rsi
	movl	$128, %edx
	callq	_memcpy
	movq	-456(%rbp), %rcx
	movq	-448(%rbp), %rdi
	movq	%rcx, -304(%rbp)
	.loc	29 1589 9
	leaq	-432(%rbp), %rsi
	movl	$136, %edx
	callq	_memcpy
	movq	-440(%rbp), %rax
	.loc	29 1590 6 is_stmt 1
	addq	$480, %rsp
	popq	%rbp
	retq
Ltmp1070:
Lfunc_end165:
	.cfi_endproc

	.globl	__ZN4core3str21_$LT$impl$u20$str$GT$8contains17hbd9e252957335dc8E
	.p2align	4, 0x90
__ZN4core3str21_$LT$impl$u20$str$GT$8contains17hbd9e252957335dc8E:
Lfunc_begin166:
	.loc	29 1070 0
	.cfi_startproc
	pushq	%rbp
	.cfi_def_cfa_offset 16
	.cfi_offset %rbp, -16
	movq	%rsp, %rbp
	.cfi_def_cfa_register %rbp
	subq	$48, %rsp
	movq	%rcx, -48(%rbp)
	movq	%rdx, -40(%rbp)
	movq	%rsi, %rcx
	movq	-48(%rbp), %rsi
	movq	%rdi, %rdx
	movq	-40(%rbp), %rdi
	movq	%rdx, -32(%rbp)
	movq	%rcx, -24(%rbp)
	movq	%rdi, -16(%rbp)
	movq	%rsi, -8(%rbp)
Ltmp1071:
	.loc	29 1071 9 prologue_end
	callq	__ZN55_$LT$$RF$str$u20$as$u20$core..str..pattern..Pattern$GT$15is_contained_in17hae31ec5b90a41c7eE
	.loc	29 1072 6
	andb	$1, %al
	movzbl	%al, %eax
	addq	$48, %rsp
	popq	%rbp
	retq
Ltmp1072:
Lfunc_end166:
	.cfi_endproc

	.globl	__ZN4core3str21_$LT$impl$u20$str$GT$8trim_end28_$u7b$$u7b$closure$u7d$$u7d$17h10d84d380034d547E
	.p2align	4, 0x90
__ZN4core3str21_$LT$impl$u20$str$GT$8trim_end28_$u7b$$u7b$closure$u7d$$u7d$17h10d84d380034d547E:
Lfunc_begin167:
	.loc	29 1946 0
	.cfi_startproc
	pushq	%rbp
	.cfi_def_cfa_offset 16
	.cfi_offset %rbp, -16
	movq	%rsp, %rbp
	.cfi_def_cfa_register %rbp
	subq	$32, %rsp
	movl	%esi, -20(%rbp)
	movq	%rdi, %rax
	movl	-20(%rbp), %edi
	movq	%rax, -16(%rbp)
	movl	%edi, -4(%rbp)
Ltmp1073:
	.loc	29 1946 41 prologue_end
	callq	__ZN4core4char7methods22_$LT$impl$u20$char$GT$13is_whitespace17hf49d0de4109a0016E
	.loc	29 1946 58 is_stmt 0
	andb	$1, %al
	movzbl	%al, %eax
	addq	$32, %rsp
	popq	%rbp
	retq
Ltmp1074:
Lfunc_end167:
	.cfi_endproc

	.globl	__ZN4core3str21_$LT$impl$u20$str$GT$9ends_with17h1c8249cfcb83d6c5E
	.p2align	4, 0x90
__ZN4core3str21_$LT$impl$u20$str$GT$9ends_with17h1c8249cfcb83d6c5E:
Lfunc_begin168:
	.loc	29 1122 0 is_stmt 1
	.cfi_startproc
	pushq	%rbp
	.cfi_def_cfa_offset 16
	.cfi_offset %rbp, -16
	movq	%rsp, %rbp
	.cfi_def_cfa_register %rbp
	subq	$48, %rsp
	movq	%rcx, -48(%rbp)
	movq	%rdx, -40(%rbp)
	movq	%rsi, %rcx
	movq	-48(%rbp), %rsi
	movq	%rdi, %rdx
	movq	-40(%rbp), %rdi
	movq	%rdx, -32(%rbp)
	movq	%rcx, -24(%rbp)
	movq	%rdi, -16(%rbp)
	movq	%rsi, -8(%rbp)
Ltmp1075:
	.loc	29 1126 9 prologue_end
