	.section	__TEXT,__text,regular,pure_instructions
	.macosx_version_min 10, 7
	.globl	__ZN119_$LT$alloc..collections..btree..map..BTreeMap$LT$K$C$V$C$A$GT$$u20$as$u20$core..iter..traits..collect..IntoIterator$GT$9into_iter17he2d6260e6c890df3E
	.p2align	4, 0x90
__ZN119_$LT$alloc..collections..btree..map..BTreeMap$LT$K$C$V$C$A$GT$$u20$as$u20$core..iter..traits..collect..IntoIterator$GT$9into_iter17he2d6260e6c890df3E:
Lfunc_begin0:
	.file	1 "/rustc/2c8cc343237b8f7d5a3c3703e3a87f2eb2c54a74/library/alloc/src/collections/btree" "map.rs"
	.loc	1 1615 0
	.cfi_startproc
	pushq	%rbp
	.cfi_def_cfa_offset 16
	.cfi_offset %rbp, -16
	movq	%rsp, %rbp
	.cfi_def_cfa_register %rbp
	subq	$480, %rsp
	movq	%rdi, -464(%rbp)
	movq	%rdi, -456(%rbp)
Ltmp0:
	.loc	1 1616 40 prologue_end
	movq	16(%rsi), %rax
	movq	%rax, -408(%rbp)
	movq	(%rsi), %rax
	movq	8(%rsi), %rcx
	movq	%rcx, -416(%rbp)
	movq	%rax, -424(%rbp)
Ltmp1:
	.file	2 "/rustc/2c8cc343237b8f7d5a3c3703e3a87f2eb2c54a74/library/core/src/mem" "manually_drop.rs"
	.loc	2 71 24
	movq	-408(%rbp), %rax
	movq	%rax, -176(%rbp)
	movq	-424(%rbp), %rax
	movq	-416(%rbp), %rcx
	movq	%rcx, -184(%rbp)
	movq	%rax, -192(%rbp)
	.loc	2 71 9 is_stmt 0
	movq	-176(%rbp), %rax
	movq	%rax, -432(%rbp)
	movq	-192(%rbp), %rax
	movq	-184(%rbp), %rcx
	movq	%rcx, -440(%rbp)
	movq	%rax, -448(%rbp)
	leaq	-448(%rbp), %rdi
Ltmp2:
	.loc	1 1617 29 is_stmt 1
	movq	%rdi, -104(%rbp)
	movq	%rdi, -96(%rbp)
Ltmp3:
	.file	3 "/rustc/2c8cc343237b8f7d5a3c3703e3a87f2eb2c54a74/library/core/src" "option.rs"
	.loc	3 1623 28
	movq	$0, -160(%rbp)
	.loc	3 1623 9 is_stmt 0
	movq	-168(%rbp), %rsi
Ltmp4:
	movq	-160(%rbp), %rdx
	callq	__ZN4core3mem7replace17h565e22faa4c0abe5E
	movq	%rdx, -392(%rbp)
	movq	%rax, -400(%rbp)
Ltmp5:
	.loc	1 1617 16 is_stmt 1
	movq	-392(%rbp), %rdx
	movl	$1, %eax
	xorl	%ecx, %ecx
	cmpq	$0, %rdx
	cmoveq	%rcx, %rax
	cmpq	$1, %rax
	jne	LBB0_2
Ltmp6:
	.loc	1 1617 21 is_stmt 0
	movq	-400(%rbp), %rdi
	movq	-392(%rbp), %rsi
	movq	%rdi, -56(%rbp)
	movq	%rsi, -48(%rbp)
	.loc	1 1618 30 is_stmt 1
	callq	__ZN5alloc11collections5btree4node76NodeRef$LT$alloc..collections..btree..node..marker..Owned$C$K$C$V$C$Type$GT$10into_dying17h6eb21c02f8671ac0E
	movq	%rax, %rsi
	leaq	-384(%rbp), %rdi
	callq	__ZN5alloc11collections5btree8navigate178_$LT$impl$u20$alloc..collections..btree..node..NodeRef$LT$alloc..collections..btree..node..marker..Dying$C$K$C$V$C$alloc..collections..btree..node..marker..LeafOrInternal$GT$$GT$10full_range17h189c3627cba019cfE
Ltmp7:
	.loc	1 1621 24
	leaq	-320(%rbp), %rdi
	leaq	-384(%rbp), %rsi
	movl	$64, %edx
	callq	_memcpy
	movq	-464(%rbp), %rdi
	.loc	1 1622 25
	leaq	-448(%rbp), %rax
	movq	%rax, -40(%rbp)
	movq	-432(%rbp), %rax
	movq	%rax, -472(%rbp)
	.loc	1 1623 57
	leaq	-448(%rbp), %rax
	movq	%rax, -32(%rbp)
	.loc	1 1623 52 is_stmt 0
	leaq	-448(%rbp), %rax
	movq	%rax, -24(%rbp)
Ltmp8:
	.loc	2 113 28 is_stmt 1
	leaq	-448(%rbp), %rax
	movq	%rax, -16(%rbp)
Ltmp9:
	.file	4 "/rustc/2c8cc343237b8f7d5a3c3703e3a87f2eb2c54a74/library/core/src/ptr" "mod.rs"
	.loc	4 1157 34
	leaq	-152(%rbp), %rax
	movq	%rax, -8(%rbp)
Ltmp10:
	.loc	1 1620 13
	leaq	-320(%rbp), %rsi
	movl	$64, %edx
	callq	_memcpy
	movq	-472(%rbp), %rcx
	movq	-464(%rbp), %rax
	movq	%rcx, 64(%rax)
Ltmp11:
	.loc	1 1617 9
	jmp	LBB0_3
Ltmp12:
LBB0_2:
	.loc	1 1627 24
	leaq	-256(%rbp), %rdi
	callq	__ZN5alloc11collections5btree8navigate39LazyLeafRange$LT$BorrowType$C$K$C$V$GT$4none17h4481cf291cd732b9E
	movq	-464(%rbp), %rdi
	.loc	1 1629 57
	leaq	-448(%rbp), %rax
	movq	%rax, -88(%rbp)
	.loc	1 1629 52 is_stmt 0
	leaq	-448(%rbp), %rax
	movq	%rax, -80(%rbp)
Ltmp13:
	.loc	2 113 28 is_stmt 1
	leaq	-448(%rbp), %rax
	movq	%rax, -72(%rbp)
Ltmp14:
	.loc	4 1157 34
	leaq	-144(%rbp), %rax
	movq	%rax, -64(%rbp)
Ltmp15:
	.loc	1 1626 13
	leaq	-256(%rbp), %rsi
	movl	$64, %edx
	callq	_memcpy
	movq	-464(%rbp), %rax
	movq	$0, 64(%rax)
Ltmp16:
LBB0_3:
	.loc	1 0 13 is_stmt 0
	movq	-456(%rbp), %rax
	.loc	1 1632 6 is_stmt 1
	addq	$480, %rsp
	popq	%rbp
	retq
Ltmp17:
Lfunc_end0:
	.cfi_endproc

	.p2align	4, 0x90
__ZN152_$LT$alloc..boxed..Box$LT$dyn$u20$core..error..Error$u2b$core..marker..Send$u2b$core..marker..Sync$GT$$u20$as$u20$core..convert..From$LT$$RF$str$GT$$GT$4from17h2b7c9724dadfbe6eE:
Lfunc_begin1:
	.file	5 "/rustc/2c8cc343237b8f7d5a3c3703e3a87f2eb2c54a74/library/alloc/src" "boxed.rs"
	.loc	5 2343 0
	.cfi_startproc
	pushq	%rbp
	.cfi_def_cfa_offset 16
	.cfi_offset %rbp, -16
	movq	%rsp, %rbp
	.cfi_def_cfa_register %rbp
	subq	$160, %rsp
	movq	%rdi, -80(%rbp)
	movq	%rsi, -72(%rbp)
Ltmp18:
	.loc	5 2344 33 prologue_end
	movq	%rdi, -64(%rbp)
	movq	%rsi, -56(%rbp)
Ltmp19:
	.file	6 "/rustc/2c8cc343237b8f7d5a3c3703e3a87f2eb2c54a74/library/alloc/src" "string.rs"
	.loc	6 2662 9
	movq	%rdi, -48(%rbp)
	movq	%rsi, -40(%rbp)
Ltmp20:
	.file	7 "/rustc/2c8cc343237b8f7d5a3c3703e3a87f2eb2c54a74/library/alloc/src" "str.rs"
	.loc	7 209 46
	movq	%rdi, -32(%rbp)
	movq	%rsi, -24(%rbp)
Ltmp21:
	.file	8 "/rustc/2c8cc343237b8f7d5a3c3703e3a87f2eb2c54a74/library/core/src/str" "mod.rs"
	.loc	8 327 18
	movq	%rdi, -16(%rbp)
	movq	%rsi, -8(%rbp)
	movq	-16(%rbp), %rsi
	movq	-8(%rbp), %rdx
	leaq	-128(%rbp), %rdi
Ltmp22:
	.loc	7 209 46
	callq	__ZN5alloc5slice64_$LT$impl$u20$alloc..borrow..ToOwned$u20$for$u20$$u5b$T$u5d$$GT$8to_owned17h607b302c8a77fb8aE
Ltmp23:
	.loc	6 846 23
	movq	-112(%rbp), %rax
	movq	%rax, -88(%rbp)
	movq	-128(%rbp), %rax
	movq	-120(%rbp), %rcx
	movq	%rcx, -96(%rbp)
	movq	%rax, -104(%rbp)
	.loc	6 846 9 is_stmt 0
	movq	-88(%rbp), %rax
	movq	%rax, -136(%rbp)
	movq	-104(%rbp), %rax
	movq	-96(%rbp), %rcx
	movq	%rcx, -144(%rbp)
	movq	%rax, -152(%rbp)
	leaq	-152(%rbp), %rdi
Ltmp24:
	.loc	5 2344 9 is_stmt 1
	callq	__ZN166_$LT$alloc..boxed..Box$LT$dyn$u20$core..error..Error$u2b$core..marker..Send$u2b$core..marker..Sync$GT$$u20$as$u20$core..convert..From$LT$alloc..string..String$GT$$GT$4from17h3242d98f6698ec83E
	.loc	5 2345 6
	addq	$160, %rsp
	popq	%rbp
	retq
Ltmp25:
Lfunc_end1:
	.cfi_endproc

	.p2align	4, 0x90
__ZN166_$LT$alloc..boxed..Box$LT$dyn$u20$core..error..Error$u2b$core..marker..Send$u2b$core..marker..Sync$GT$$u20$as$u20$core..convert..From$LT$alloc..string..String$GT$$GT$4from17h3242d98f6698ec83E:
Lfunc_begin2:
	.loc	5 2275 0
	.cfi_startproc
	.cfi_personality 155, _rust_eh_personality
	.cfi_lsda 16, Lexception0
	pushq	%rbp
	.cfi_def_cfa_offset 16
	.cfi_offset %rbp, -16
	movq	%rsp, %rbp
	.cfi_def_cfa_register %rbp
	subq	$80, %rsp
Ltmp32:
	.loc	5 2298 30 prologue_end
	movq	16(%rdi), %rax
	movq	%rax, -24(%rbp)
	movq	(%rdi), %rax
	movq	8(%rdi), %rcx
	movq	%rcx, -32(%rbp)
	movq	%rax, -40(%rbp)
	.loc	5 2298 18 is_stmt 0
	movq	-24(%rbp), %rax
	movq	%rax, -48(%rbp)
	movq	-40(%rbp), %rax
	movq	-32(%rbp), %rcx
	movq	%rcx, -56(%rbp)
	movq	%rax, -64(%rbp)
Ltmp26:
	movl	$24, %edi
Ltmp33:
	.loc	5 0 18
	movl	$8, %esi
Ltmp34:
	.loc	5 219 9 is_stmt 1
	callq	__ZN5alloc5alloc15exchange_malloc17h491c7f8558ff8adcE
Ltmp27:
	movq	%rax, -72(%rbp)
	jmp	LBB2_3
Ltmp35:
LBB2_1:
Ltmp29:
	.loc	5 0 9 is_stmt 0
	leaq	-64(%rbp), %rdi
	.loc	5 220 5 is_stmt 1
	callq	__ZN4core3ptr205drop_in_place$LT$$LT$alloc..boxed..Box$LT$dyn$u20$core..error..Error$u2b$core..marker..Send$u2b$core..marker..Sync$GT$$u20$as$u20$core..convert..From$LT$alloc..string..String$GT$$GT$..from..StringError$GT$17h0b2769b56161e80eE
Ltmp30:
	jmp	LBB2_5
Ltmp36:
LBB2_2:
Ltmp28:
	.loc	5 0 5 is_stmt 0
	movq	%rax, %rcx
	movl	%edx, %eax
	movq	%rcx, -16(%rbp)
	movl	%eax, -8(%rbp)
	jmp	LBB2_1
Ltmp37:
LBB2_3:
	movq	-72(%rbp), %rax
	.loc	5 219 18 is_stmt 1
	movq	-48(%rbp), %rcx
	movq	%rcx, 16(%rax)
	movq	-64(%rbp), %rcx
	movq	-56(%rbp), %rdx
	movq	%rdx, 8(%rax)
	movq	%rcx, (%rax)
Ltmp38:
	.loc	5 2299 6
	leaq	l___unnamed_1(%rip), %rdx
	addq	$80, %rsp
	popq	%rbp
	retq
Ltmp39:
LBB2_4:
Ltmp31:
	.loc	5 2275 5
	callq	__ZN4core9panicking19panic_cannot_unwind17h1fbca7e1d7f56ae1E
Ltmp40:
LBB2_5:
	movq	-16(%rbp), %rdi
	callq	__Unwind_Resume
Ltmp41:
Lfunc_end2:
	.cfi_endproc
	.section	__TEXT,__gcc_except_tab
	.p2align	2
GCC_except_table2:
Lexception0:
	.byte	255
	.byte	255
	.byte	1
	.uleb128 Lcst_end0-Lcst_begin0
Lcst_begin0:
	.uleb128 Ltmp26-Lfunc_begin2
	.uleb128 Ltmp27-Ltmp26
	.uleb128 Ltmp28-Lfunc_begin2
	.byte	0
	.uleb128 Ltmp29-Lfunc_begin2
	.uleb128 Ltmp30-Ltmp29
	.uleb128 Ltmp31-Lfunc_begin2
	.byte	0
	.uleb128 Ltmp30-Lfunc_begin2
	.uleb128 Lfunc_end2-Ltmp30
	.byte	0
	.byte	0
Lcst_end0:
	.p2align	2

	.section	__TEXT,__text,regular,pure_instructions
	.globl	__ZN174_$LT$$LT$alloc..collections..btree..map..IntoIter$LT$K$C$V$C$A$GT$$u20$as$u20$core..ops..drop..Drop$GT$..drop..DropGuard$LT$K$C$V$C$A$GT$$u20$as$u20$core..ops..drop..Drop$GT$4drop17h6bc24360a635e316E
	.p2align	4, 0x90
__ZN174_$LT$$LT$alloc..collections..btree..map..IntoIter$LT$K$C$V$C$A$GT$$u20$as$u20$core..ops..drop..Drop$GT$..drop..DropGuard$LT$K$C$V$C$A$GT$$u20$as$u20$core..ops..drop..Drop$GT$4drop17h6bc24360a635e316E:
Lfunc_begin3:
	.loc	1 1641 0
	.cfi_startproc
	pushq	%rbp
	.cfi_def_cfa_offset 16
	.cfi_offset %rbp, -16
	movq	%rsp, %rbp
	.cfi_def_cfa_register %rbp
	subq	$96, %rsp
	movq	%rdi, -88(%rbp)
	movq	%rdi, -8(%rbp)
LBB3_1:
	movq	-88(%rbp), %rax
Ltmp42:
	.loc	1 1644 38 prologue_end
	movq	(%rax), %rsi
	leaq	-80(%rbp), %rdi
	callq	__ZN5alloc11collections5btree3map25IntoIter$LT$K$C$V$C$A$GT$10dying_next17h0b036bb23e1a376cE
	.loc	1 1644 27 is_stmt 0
	movq	-72(%rbp), %rdx
	movl	$1, %eax
	xorl	%ecx, %ecx
	cmpq	$0, %rdx
	cmoveq	%rcx, %rax
	cmpq	$1, %rax
	jne	LBB3_3
	.loc	1 1644 32
	movq	-80(%rbp), %rax
	movq	%rax, -56(%rbp)
	movq	-72(%rbp), %rax
	movq	%rax, -48(%rbp)
	movq	-64(%rbp), %rax
	movq	%rax, -40(%rbp)
	.loc	1 1646 30 is_stmt 1
	movq	-56(%rbp), %rax
	movq	%rax, -32(%rbp)
	movq	-48(%rbp), %rax
	movq	%rax, -24(%rbp)
	movq	-40(%rbp), %rax
	movq	%rax, -16(%rbp)
	leaq	-32(%rbp), %rdi
	callq	__ZN5alloc11collections5btree4node173Handle$LT$alloc..collections..btree..node..NodeRef$LT$alloc..collections..btree..node..marker..Dying$C$K$C$V$C$NodeType$GT$$C$alloc..collections..btree..node..marker..KV$GT$12drop_key_val17hbc0b77a3ce2c7c1fE
Ltmp43:
	.loc	1 1644 17
	jmp	LBB3_1
LBB3_3:
	.loc	1 1648 14
	addq	$96, %rsp
	popq	%rbp
	retq
Ltmp44:
Lfunc_end3:
	.cfi_endproc

	.p2align	4, 0x90
__ZN3std2fs8Metadata17h9e8c1a14740bebedE:
Lfunc_begin4:
	.file	9 "/rustc/2c8cc343237b8f7d5a3c3703e3a87f2eb2c54a74/library/std/src" "fs.rs"
	.loc	9 110 0
	.cfi_startproc
	pushq	%rbp
	.cfi_def_cfa_offset 16
	.cfi_offset %rbp, -16
	movq	%rsp, %rbp
	.cfi_def_cfa_register %rbp
	subq	$16, %rsp
	movq	%rdi, %rax
	movq	%rax, -8(%rbp)
Ltmp45:
	.loc	9 110 1 prologue_end
	movl	$144, %edx
	callq	_memcpy
Ltmp46:
	.loc	9 0 1 is_stmt 0
	movq	-8(%rbp), %rax
	.loc	9 110 1
	addq	$16, %rsp
	popq	%rbp
	retq
Ltmp47:
Lfunc_end4:
	.cfi_endproc

	.globl	__ZN3std2fs8metadata17hbd93a6a8c37a6e8cE
	.p2align	4, 0x90
__ZN3std2fs8metadata17hbd93a6a8c37a6e8cE:
Lfunc_begin5:
	.loc	9 1828 0 is_stmt 1
	.cfi_startproc
	.cfi_personality 155, _rust_eh_personality
	.cfi_lsda 16, Lexception1
	pushq	%rbp
	.cfi_def_cfa_offset 16
	.cfi_offset %rbp, -16
	movq	%rsp, %rbp
	.cfi_def_cfa_register %rbp
	subq	$208, %rsp
	movq	%rsi, -208(%rbp)
Ltmp58:
	movq	%rdi, %rax
	movq	-208(%rbp), %rdi
	movq	%rax, -200(%rbp)
	movq	%rax, -192(%rbp)
Ltmp48:
Ltmp59:
	.loc	9 1829 18 prologue_end
	callq	__ZN3std4path95_$LT$impl$u20$core..convert..AsRef$LT$std..path..Path$GT$$u20$for$u20$alloc..string..String$GT$6as_ref17h4bb97cab4f69e551E
Ltmp49:
	movq	%rdx, -184(%rbp)
	movq	%rax, -176(%rbp)
	jmp	LBB5_3
Ltmp60:
LBB5_1:
Ltmp55:
	.loc	9 0 18 is_stmt 0
	movq	-208(%rbp), %rdi
	.loc	9 1830 1 is_stmt 1
	callq	__ZN4core3ptr42drop_in_place$LT$alloc..string..String$GT$17h4e7d11210995f00cE
Ltmp56:
	jmp	LBB5_7
Ltmp61:
LBB5_2:
Ltmp54:
	.loc	9 0 1 is_stmt 0
	movq	%rax, %rcx
	movl	%edx, %eax
	movq	%rcx, -16(%rbp)
	movl	%eax, -8(%rbp)
	jmp	LBB5_1
Ltmp62:
LBB5_3:
Ltmp50:
	movq	-184(%rbp), %rdx
	movq	-176(%rbp), %rsi
	leaq	-168(%rbp), %rdi
	.loc	9 1829 5 is_stmt 1
	callq	__ZN3std3sys4unix2fs4stat17h9d8d62844b0f1aa1E
Ltmp51:
	jmp	LBB5_4
Ltmp63:
LBB5_4:
Ltmp52:
	.loc	9 0 5 is_stmt 0
	movq	-200(%rbp), %rdi
	leaq	-168(%rbp), %rsi
	.loc	9 1829 5
	callq	__ZN4core6result19Result$LT$T$C$E$GT$3map17ha299182694eea992E
Ltmp53:
	jmp	LBB5_5
Ltmp64:
LBB5_5:
	.loc	9 0 5
	movq	-208(%rbp), %rdi
	.loc	9 1830 1 is_stmt 1
	callq	__ZN4core3ptr42drop_in_place$LT$alloc..string..String$GT$17h4e7d11210995f00cE
	movq	-192(%rbp), %rax
	.loc	9 1830 2 is_stmt 0
	addq	$208, %rsp
	popq	%rbp
	retq
Ltmp65:
LBB5_6:
Ltmp57:
	.loc	9 1828 1 is_stmt 1
	callq	__ZN4core9panicking19panic_cannot_unwind17h1fbca7e1d7f56ae1E
Ltmp66:
LBB5_7:
	movq	-16(%rbp), %rdi
	callq	__Unwind_Resume
Ltmp67:
Lfunc_end5:
	.cfi_endproc
	.section	__TEXT,__gcc_except_tab
	.p2align	2
GCC_except_table5:
Lexception1:
	.byte	255
	.byte	255
	.byte	1
	.uleb128 Lcst_end1-Lcst_begin1
Lcst_begin1:
	.uleb128 Ltmp48-Lfunc_begin5
	.uleb128 Ltmp49-Ltmp48
	.uleb128 Ltmp54-Lfunc_begin5
	.byte	0
	.uleb128 Ltmp55-Lfunc_begin5
	.uleb128 Ltmp56-Ltmp55
	.uleb128 Ltmp57-Lfunc_begin5
	.byte	0
	.uleb128 Ltmp50-Lfunc_begin5
	.uleb128 Ltmp53-Ltmp50
	.uleb128 Ltmp54-Lfunc_begin5
	.byte	0
	.uleb128 Ltmp53-Lfunc_begin5
	.uleb128 Lfunc_end5-Ltmp53
	.byte	0
	.byte	0
Lcst_end1:
	.p2align	2

	.section	__TEXT,__text,regular,pure_instructions
	.globl	__ZN3std2io5error14repr_bitpacked11decode_repr17h1f6201b00f221919E
	.p2align	4, 0x90
__ZN3std2io5error14repr_bitpacked11decode_repr17h1f6201b00f221919E:
Lfunc_begin6:
	.file	10 "/rustc/2c8cc343237b8f7d5a3c3703e3a87f2eb2c54a74/library/std/src/io/error" "repr_bitpacked.rs"
	.loc	10 246 0
	.cfi_startproc
	.cfi_personality 155, _rust_eh_personality
	.cfi_lsda 16, Lexception2
	pushq	%rbp
	.cfi_def_cfa_offset 16
	.cfi_offset %rbp, -16
	movq	%rsp, %rbp
	.cfi_def_cfa_register %rbp
	subq	$320, %rsp
	movq	%rsi, -272(%rbp)
	movq	%rdi, -264(%rbp)
	movq	%rdi, -256(%rbp)
	movq	%rsi, -184(%rbp)
Ltmp77:
	.loc	10 250 9 prologue_end
	movb	$1, -201(%rbp)
	.loc	10 250 16 is_stmt 0
	movq	%rsi, -160(%rbp)
Ltmp78:
	.file	11 "/rustc/2c8cc343237b8f7d5a3c3703e3a87f2eb2c54a74/library/core/src/ptr" "non_null.rs"
	.loc	11 326 9 is_stmt 1
	movq	%rsi, -152(%rbp)
Ltmp79:
	.file	12 "/rustc/2c8cc343237b8f7d5a3c3703e3a87f2eb2c54a74/library/core/src/ptr" "mut_ptr.rs"
	.loc	12 215 33
	movq	%rsi, -144(%rbp)
	.loc	12 215 18 is_stmt 0
	movq	%rsi, -248(%rbp)
Ltmp80:
	.loc	10 251 11 is_stmt 1
	movq	-248(%rbp), %rax
	andl	$3, %eax
	movq	%rax, -280(%rbp)
	.loc	10 251 5 is_stmt 0
	subq	$3, %rax
	ja	LBB6_2
	.loc	10 0 5
	movq	-280(%rbp), %rax
	leaq	LJTI6_0(%rip), %rcx
	movslq	(%rcx,%rax,4), %rax
	addq	%rcx, %rax
	jmpq	*%rax
LBB6_2:
Ltmp74:
	.loc	10 280 13 is_stmt 1
	leaq	l___unnamed_4(%rip), %rdi
	leaq	l___unnamed_5(%rip), %rdx
	movl	$40, %esi
	callq	__ZN4core9panicking5panic17hc1bc45270cf64b03E
Ltmp75:
	jmp	LBB6_9
LBB6_3:
	.loc	10 0 13 is_stmt 0
	movq	-264(%rbp), %rax
	.loc	10 253 26 is_stmt 1
	movq	-248(%rbp), %rcx
	.loc	10 253 24 is_stmt 0
	sarq	$32, %rcx
	movl	%ecx, -4(%rbp)
Ltmp81:
	.loc	10 254 13 is_stmt 1
	movl	%ecx, 4(%rax)
	movb	$0, (%rax)
Ltmp82:
	.loc	10 255 9
	jmp	LBB6_12
LBB6_4:
	.loc	10 257 30
	movl	-244(%rbp), %edi
	.loc	10 257 29 is_stmt 0
	movl	%edi, -12(%rbp)
Ltmp70:
Ltmp83:
	.loc	10 258 24 is_stmt 1
	callq	__ZN3std2io5error14repr_bitpacked14kind_from_prim17h927c16b814b6d1ecE
Ltmp71:
	movb	%al, -281(%rbp)
	jmp	LBB6_13
Ltmp84:
LBB6_5:
	.loc	10 0 24 is_stmt 0
	movq	-264(%rbp), %rax
	movq	-272(%rbp), %rcx
	.loc	10 270 58 is_stmt 1
	movq	%rcx, -40(%rbp)
Ltmp85:
	.loc	11 450 41
	movq	%rcx, -32(%rbp)
	movq	%rcx, -24(%rbp)
Ltmp86:
	.loc	11 201 13
	movq	%rcx, -224(%rbp)
Ltmp87:
	.loc	11 326 9
	movq	-224(%rbp), %rcx
Ltmp88:
	.loc	10 270 31
	movq	%rcx, 8(%rax)
	movb	$2, (%rax)
	.loc	10 270 94 is_stmt 0
	jmp	LBB6_12
LBB6_6:
	.loc	10 0 94
	movq	-272(%rbp), %rax
	.loc	10 275 26 is_stmt 1
	movq	%rax, -120(%rbp)
Ltmp89:
	.loc	11 326 9
	movq	%rax, -112(%rbp)
Ltmp90:
	.loc	12 1300 9
	movq	%rax, -104(%rbp)
Ltmp91:
	.loc	12 60 9
	movq	%rax, -96(%rbp)
Ltmp92:
	.loc	12 1282 9
	movq	%rax, -88(%rbp)
Ltmp93:
	.loc	12 568 18
	addq	$-1, %rax
	movq	%rax, -80(%rbp)
	movq	-80(%rbp), %rax
	movq	%rax, -296(%rbp)
	jmp	LBB6_10
Ltmp94:
LBB6_7:
	.loc	10 283 1
	testb	$1, -201(%rbp)
	jne	LBB6_19
	jmp	LBB6_18
LBB6_8:
Ltmp76:
	.loc	10 0 1 is_stmt 0
	movq	%rax, %rcx
	movl	%edx, %eax
	movq	%rcx, -136(%rbp)
	movl	%eax, -128(%rbp)
	jmp	LBB6_7
LBB6_9:
	ud2
LBB6_10:
	movq	-296(%rbp), %rax
Ltmp95:
	.loc	12 568 18 is_stmt 1
	movq	%rax, -72(%rbp)
Ltmp96:
	.loc	12 99 33
	movq	%rax, -64(%rbp)
Ltmp97:
	.file	13 "/rustc/2c8cc343237b8f7d5a3c3703e3a87f2eb2c54a74/library/core/src/ptr" "metadata.rs"
	.loc	13 135 36
	movq	%rax, -192(%rbp)
	.loc	13 135 14 is_stmt 0
	movq	-192(%rbp), %rax
	movq	%rax, -200(%rbp)
	movq	-200(%rbp), %rax
	movq	%rax, -56(%rbp)
Ltmp98:
	.loc	12 60 9 is_stmt 1
	movq	%rax, -48(%rbp)
Ltmp99:
	.loc	10 276 31
	movb	$0, -201(%rbp)
	movq	%rax, -216(%rbp)
	movq	-216(%rbp), %rdi
Ltmp68:
	callq	__ZN78_$LT$std..io..error..repr_bitpacked..Repr$u20$as$u20$core..ops..drop..Drop$GT$4drop28_$u7b$$u7b$closure$u7d$$u7d$17h993c678385ee72c0E
Ltmp69:
	movq	%rax, -304(%rbp)
	jmp	LBB6_11
LBB6_11:
	.loc	10 0 31 is_stmt 0
	movq	-264(%rbp), %rax
	movq	-304(%rbp), %rcx
	.loc	10 276 13
	movq	%rcx, 8(%rax)
	movb	$3, (%rax)
Ltmp100:
LBB6_12:
	.loc	10 283 1 is_stmt 1
	testb	$1, -201(%rbp)
	jne	LBB6_21
	jmp	LBB6_20
LBB6_13:
	.loc	10 0 1 is_stmt 0
	movb	-281(%rbp), %al
Ltmp101:
	.loc	10 258 24 is_stmt 1
	movb	%al, -233(%rbp)
	.loc	10 258 65 is_stmt 0
	leaq	-248(%rbp), %rax
	movq	%rax, -232(%rbp)
Ltmp102:
	.loc	3 871 15 is_stmt 1
	movl	$1, %eax
	xorl	%ecx, %ecx
	cmpb	$41, -233(%rbp)
	cmoveq	%rcx, %rax
	.loc	3 871 9 is_stmt 0
	cmpq	$0, %rax
	jne	LBB6_15
	.loc	3 873 21 is_stmt 1
	movq	-232(%rbp), %rdi
Ltmp72:
	callq	__ZN3std2io5error14repr_bitpacked11decode_repr28_$u7b$$u7b$closure$u7d$$u7d$17hbd31aa53d53f9689E
Ltmp73:
	movb	%al, -305(%rbp)
	jmp	LBB6_17
LBB6_15:
	.loc	3 872 18
	movb	-233(%rbp), %al
	movb	%al, -5(%rbp)
Ltmp103:
	.loc	3 872 24 is_stmt 0
	movb	%al, -234(%rbp)
Ltmp104:
LBB6_16:
	.loc	3 0 24
	movq	-264(%rbp), %rax
Ltmp105:
	.loc	10 268 31 is_stmt 1
	movb	-234(%rbp), %cl
	.loc	10 268 13 is_stmt 0
	movb	%cl, 1(%rax)
	movb	$1, (%rax)
Ltmp106:
	.loc	10 269 9 is_stmt 1
	jmp	LBB6_12
LBB6_17:
	.loc	10 0 9 is_stmt 0
	movb	-305(%rbp), %al
Ltmp107:
	.loc	3 873 21 is_stmt 1
	movb	%al, -234(%rbp)
	.loc	3 873 23 is_stmt 0
	jmp	LBB6_16
Ltmp108:
LBB6_18:
	.loc	10 246 1 is_stmt 1
	movq	-136(%rbp), %rdi
	callq	__Unwind_Resume
LBB6_19:
	.loc	10 283 1
	jmp	LBB6_18
LBB6_20:
	.loc	10 0 1 is_stmt 0
	movq	-256(%rbp), %rax
	.loc	10 283 2
	addq	$320, %rsp
	popq	%rbp
	retq
LBB6_21:
	.loc	10 283 1
	jmp	LBB6_20
Ltmp109:
Lfunc_end6:
	.cfi_endproc
	.p2align	2, 0x90
	.data_region jt32
.set L6_0_set_5, LBB6_5-LJTI6_0
.set L6_0_set_6, LBB6_6-LJTI6_0
.set L6_0_set_3, LBB6_3-LJTI6_0
.set L6_0_set_4, LBB6_4-LJTI6_0
LJTI6_0:
	.long	L6_0_set_5
	.long	L6_0_set_6
	.long	L6_0_set_3
	.long	L6_0_set_4
	.end_data_region
	.section	__TEXT,__gcc_except_tab
	.p2align	2
GCC_except_table6:
Lexception2:
	.byte	255
	.byte	255
	.byte	1
	.uleb128 Lcst_end2-Lcst_begin2
Lcst_begin2:
	.uleb128 Ltmp74-Lfunc_begin6
	.uleb128 Ltmp73-Ltmp74
	.uleb128 Ltmp76-Lfunc_begin6
	.byte	0
	.uleb128 Ltmp73-Lfunc_begin6
	.uleb128 Lfunc_end6-Ltmp73
	.byte	0
	.byte	0
Lcst_end2:
	.p2align	2

	.section	__TEXT,__text,regular,pure_instructions
	.globl	__ZN3std2io5error14repr_bitpacked11decode_repr28_$u7b$$u7b$closure$u7d$$u7d$17hbd31aa53d53f9689E
	.p2align	4, 0x90
__ZN3std2io5error14repr_bitpacked11decode_repr28_$u7b$$u7b$closure$u7d$$u7d$17hbd31aa53d53f9689E:
Lfunc_begin7:
	.loc	10 258 0 is_stmt 1
	.cfi_startproc
	pushq	%rbp
	.cfi_def_cfa_offset 16
	.cfi_offset %rbp, -16
	movq	%rsp, %rbp
	.cfi_def_cfa_register %rbp
	subq	$16, %rsp
	movq	%rdi, -16(%rbp)
Ltmp110:
	.loc	10 266 17 prologue_end
	callq	__ZN4core4hint21unreachable_unchecked17h1a2d8aacc766a386E
Ltmp111:
Lfunc_end7:
	.cfi_endproc

	.p2align	4, 0x90
__ZN3std2io5error14repr_bitpacked14kind_from_prim17h927c16b814b6d1ecE:
Lfunc_begin8:
	.loc	10 289 0
	.cfi_startproc
	pushq	%rbp
	.cfi_def_cfa_offset 16
	.cfi_offset %rbp, -16
	movq	%rsp, %rbp
	.cfi_def_cfa_register %rbp
	subq	$336, %rsp
	movl	%edi, -336(%rbp)
Ltmp112:
	.loc	10 302 5 prologue_end
	leaq	-336(%rbp), %rax
	movq	%rax, -328(%rbp)
	cmpl	$0, -336(%rbp)
	je	LBB8_2
	leaq	-336(%rbp), %rax
	movq	%rax, -320(%rbp)
	cmpl	$1, -336(%rbp)
	je	LBB8_5
	jmp	LBB8_4
LBB8_2:
Ltmp113:
	.loc	10 302 5 is_stmt 0
	movb	$0, -329(%rbp)
Ltmp114:
LBB8_3:
	.loc	10 345 2 is_stmt 1
	movb	-329(%rbp), %al
	addq	$336, %rsp
	popq	%rbp
	retq
LBB8_4:
	.loc	10 302 5
	leaq	-336(%rbp), %rax
	movq	%rax, -312(%rbp)
	cmpl	$2, -336(%rbp)
	je	LBB8_7
	jmp	LBB8_6
LBB8_5:
Ltmp115:
	.loc	10 302 5 is_stmt 0
	movb	$1, -329(%rbp)
Ltmp116:
	.loc	10 302 5
	jmp	LBB8_3
LBB8_6:
	leaq	-336(%rbp), %rax
	movq	%rax, -304(%rbp)
	cmpl	$3, -336(%rbp)
	je	LBB8_9
	jmp	LBB8_8
LBB8_7:
Ltmp117:
	.loc	10 302 5
	movb	$2, -329(%rbp)
Ltmp118:
	.loc	10 302 5
	jmp	LBB8_3
LBB8_8:
	leaq	-336(%rbp), %rax
	movq	%rax, -296(%rbp)
	cmpl	$4, -336(%rbp)
	je	LBB8_11
	jmp	LBB8_10
LBB8_9:
Ltmp119:
	.loc	10 302 5
	movb	$3, -329(%rbp)
Ltmp120:
	.loc	10 302 5
	jmp	LBB8_3
LBB8_10:
	leaq	-336(%rbp), %rax
	movq	%rax, -288(%rbp)
	cmpl	$5, -336(%rbp)
	je	LBB8_13
	jmp	LBB8_12
LBB8_11:
Ltmp121:
	.loc	10 302 5
	movb	$4, -329(%rbp)
Ltmp122:
	.loc	10 302 5
	jmp	LBB8_3
LBB8_12:
	leaq	-336(%rbp), %rax
	movq	%rax, -280(%rbp)
	cmpl	$6, -336(%rbp)
	je	LBB8_15
	jmp	LBB8_14
LBB8_13:
Ltmp123:
	.loc	10 302 5
	movb	$5, -329(%rbp)
Ltmp124:
	.loc	10 302 5
	jmp	LBB8_3
LBB8_14:
	leaq	-336(%rbp), %rax
	movq	%rax, -272(%rbp)
	cmpl	$7, -336(%rbp)
	je	LBB8_17
	jmp	LBB8_16
LBB8_15:
Ltmp125:
	.loc	10 302 5
	movb	$6, -329(%rbp)
Ltmp126:
	.loc	10 302 5
	jmp	LBB8_3
LBB8_16:
	leaq	-336(%rbp), %rax
	movq	%rax, -264(%rbp)
	cmpl	$8, -336(%rbp)
	je	LBB8_19
	jmp	LBB8_18
LBB8_17:
Ltmp127:
	.loc	10 302 5
	movb	$7, -329(%rbp)
Ltmp128:
	.loc	10 302 5
	jmp	LBB8_3
LBB8_18:
	leaq	-336(%rbp), %rax
	movq	%rax, -256(%rbp)
	cmpl	$9, -336(%rbp)
	je	LBB8_21
	jmp	LBB8_20
LBB8_19:
Ltmp129:
	.loc	10 302 5
	movb	$8, -329(%rbp)
Ltmp130:
	.loc	10 302 5
	jmp	LBB8_3
LBB8_20:
	leaq	-336(%rbp), %rax
	movq	%rax, -248(%rbp)
	cmpl	$10, -336(%rbp)
	je	LBB8_23
	jmp	LBB8_22
LBB8_21:
Ltmp131:
	.loc	10 302 5
	movb	$9, -329(%rbp)
Ltmp132:
	.loc	10 302 5
	jmp	LBB8_3
LBB8_22:
	leaq	-336(%rbp), %rax
	movq	%rax, -240(%rbp)
	cmpl	$11, -336(%rbp)
	je	LBB8_25
	jmp	LBB8_24
LBB8_23:
Ltmp133:
	.loc	10 302 5
	movb	$10, -329(%rbp)
Ltmp134:
	.loc	10 302 5
	jmp	LBB8_3
LBB8_24:
	leaq	-336(%rbp), %rax
	movq	%rax, -232(%rbp)
	cmpl	$12, -336(%rbp)
	je	LBB8_27
	jmp	LBB8_26
LBB8_25:
Ltmp135:
	.loc	10 302 5
	movb	$11, -329(%rbp)
Ltmp136:
	.loc	10 302 5
	jmp	LBB8_3
LBB8_26:
	leaq	-336(%rbp), %rax
	movq	%rax, -224(%rbp)
	cmpl	$13, -336(%rbp)
	je	LBB8_29
	jmp	LBB8_28
LBB8_27:
Ltmp137:
	.loc	10 302 5
	movb	$12, -329(%rbp)
Ltmp138:
	.loc	10 302 5
	jmp	LBB8_3
LBB8_28:
	leaq	-336(%rbp), %rax
	movq	%rax, -216(%rbp)
	cmpl	$14, -336(%rbp)
	je	LBB8_31
	jmp	LBB8_30
LBB8_29:
Ltmp139:
	.loc	10 302 5
	movb	$13, -329(%rbp)
Ltmp140:
	.loc	10 302 5
	jmp	LBB8_3
LBB8_30:
	leaq	-336(%rbp), %rax
	movq	%rax, -208(%rbp)
	cmpl	$15, -336(%rbp)
	je	LBB8_33
	jmp	LBB8_32
LBB8_31:
Ltmp141:
	.loc	10 302 5
	movb	$14, -329(%rbp)
Ltmp142:
	.loc	10 302 5
	jmp	LBB8_3
LBB8_32:
	leaq	-336(%rbp), %rax
	movq	%rax, -200(%rbp)
	cmpl	$16, -336(%rbp)
	je	LBB8_35
	jmp	LBB8_34
LBB8_33:
Ltmp143:
	.loc	10 302 5
	movb	$15, -329(%rbp)
Ltmp144:
	.loc	10 302 5
	jmp	LBB8_3
LBB8_34:
	leaq	-336(%rbp), %rax
	movq	%rax, -192(%rbp)
	cmpl	$17, -336(%rbp)
	je	LBB8_37
	jmp	LBB8_36
LBB8_35:
Ltmp145:
	.loc	10 302 5
	movb	$16, -329(%rbp)
Ltmp146:
	.loc	10 302 5
	jmp	LBB8_3
LBB8_36:
	leaq	-336(%rbp), %rax
	movq	%rax, -184(%rbp)
	cmpl	$18, -336(%rbp)
	je	LBB8_39
	jmp	LBB8_38
LBB8_37:
Ltmp147:
	.loc	10 302 5
	movb	$17, -329(%rbp)
Ltmp148:
	.loc	10 302 5
	jmp	LBB8_3
LBB8_38:
	leaq	-336(%rbp), %rax
	movq	%rax, -176(%rbp)
	cmpl	$19, -336(%rbp)
	je	LBB8_41
	jmp	LBB8_40
LBB8_39:
Ltmp149:
	.loc	10 302 5
	movb	$18, -329(%rbp)
Ltmp150:
	.loc	10 302 5
	jmp	LBB8_3
LBB8_40:
	leaq	-336(%rbp), %rax
	movq	%rax, -168(%rbp)
	cmpl	$20, -336(%rbp)
	je	LBB8_43
	jmp	LBB8_42
LBB8_41:
Ltmp151:
	.loc	10 302 5
	movb	$19, -329(%rbp)
Ltmp152:
	.loc	10 302 5
	jmp	LBB8_3
LBB8_42:
	leaq	-336(%rbp), %rax
	movq	%rax, -160(%rbp)
	cmpl	$21, -336(%rbp)
	je	LBB8_45
	jmp	LBB8_44
LBB8_43:
Ltmp153:
	.loc	10 302 5
	movb	$20, -329(%rbp)
Ltmp154:
	.loc	10 302 5
	jmp	LBB8_3
LBB8_44:
	leaq	-336(%rbp), %rax
	movq	%rax, -152(%rbp)
	cmpl	$22, -336(%rbp)
	je	LBB8_47
	jmp	LBB8_46
LBB8_45:
Ltmp155:
	.loc	10 302 5
	movb	$21, -329(%rbp)
Ltmp156:
	.loc	10 302 5
	jmp	LBB8_3
LBB8_46:
	leaq	-336(%rbp), %rax
	movq	%rax, -144(%rbp)
	cmpl	$23, -336(%rbp)
	je	LBB8_49
	jmp	LBB8_48
LBB8_47:
Ltmp157:
	.loc	10 302 5
	movb	$22, -329(%rbp)
Ltmp158:
	.loc	10 302 5
	jmp	LBB8_3
LBB8_48:
	leaq	-336(%rbp), %rax
	movq	%rax, -136(%rbp)
	cmpl	$24, -336(%rbp)
	je	LBB8_51
	jmp	LBB8_50
LBB8_49:
Ltmp159:
	.loc	10 302 5
	movb	$23, -329(%rbp)
Ltmp160:
	.loc	10 302 5
	jmp	LBB8_3
LBB8_50:
	leaq	-336(%rbp), %rax
	movq	%rax, -128(%rbp)
	cmpl	$25, -336(%rbp)
	je	LBB8_53
	jmp	LBB8_52
LBB8_51:
Ltmp161:
	.loc	10 302 5
	movb	$24, -329(%rbp)
Ltmp162:
	.loc	10 302 5
	jmp	LBB8_3
LBB8_52:
	leaq	-336(%rbp), %rax
	movq	%rax, -120(%rbp)
	cmpl	$26, -336(%rbp)
	je	LBB8_55
	jmp	LBB8_54
LBB8_53:
Ltmp163:
	.loc	10 302 5
	movb	$25, -329(%rbp)
Ltmp164:
	.loc	10 302 5
	jmp	LBB8_3
LBB8_54:
	leaq	-336(%rbp), %rax
	movq	%rax, -112(%rbp)
	cmpl	$27, -336(%rbp)
	je	LBB8_57
	jmp	LBB8_56
LBB8_55:
Ltmp165:
	.loc	10 302 5
	movb	$26, -329(%rbp)
Ltmp166:
	.loc	10 302 5
	jmp	LBB8_3
LBB8_56:
	leaq	-336(%rbp), %rax
	movq	%rax, -104(%rbp)
	cmpl	$28, -336(%rbp)
	je	LBB8_59
	jmp	LBB8_58
LBB8_57:
Ltmp167:
	.loc	10 302 5
	movb	$27, -329(%rbp)
Ltmp168:
	.loc	10 302 5
	jmp	LBB8_3
LBB8_58:
	leaq	-336(%rbp), %rax
	movq	%rax, -96(%rbp)
	cmpl	$29, -336(%rbp)
	je	LBB8_61
	jmp	LBB8_60
LBB8_59:
Ltmp169:
	.loc	10 302 5
	movb	$28, -329(%rbp)
Ltmp170:
	.loc	10 302 5
	jmp	LBB8_3
LBB8_60:
	leaq	-336(%rbp), %rax
	movq	%rax, -88(%rbp)
	cmpl	$30, -336(%rbp)
	je	LBB8_63
	jmp	LBB8_62
LBB8_61:
Ltmp171:
	.loc	10 302 5
	movb	$29, -329(%rbp)
Ltmp172:
	.loc	10 302 5
	jmp	LBB8_3
LBB8_62:
	leaq	-336(%rbp), %rax
	movq	%rax, -80(%rbp)
	cmpl	$31, -336(%rbp)
	je	LBB8_65
	jmp	LBB8_64
LBB8_63:
Ltmp173:
	.loc	10 302 5
	movb	$30, -329(%rbp)
Ltmp174:
	.loc	10 302 5
	jmp	LBB8_3
LBB8_64:
	leaq	-336(%rbp), %rax
	movq	%rax, -72(%rbp)
	cmpl	$32, -336(%rbp)
	je	LBB8_67
	jmp	LBB8_66
LBB8_65:
Ltmp175:
	.loc	10 302 5
	movb	$31, -329(%rbp)
Ltmp176:
	.loc	10 302 5
	jmp	LBB8_3
LBB8_66:
	leaq	-336(%rbp), %rax
	movq	%rax, -64(%rbp)
	cmpl	$33, -336(%rbp)
	je	LBB8_69
	jmp	LBB8_68
LBB8_67:
Ltmp177:
	.loc	10 302 5
	movb	$32, -329(%rbp)
Ltmp178:
	.loc	10 302 5
	jmp	LBB8_3
LBB8_68:
	leaq	-336(%rbp), %rax
	movq	%rax, -56(%rbp)
	cmpl	$34, -336(%rbp)
	je	LBB8_71
	jmp	LBB8_70
LBB8_69:
Ltmp179:
	.loc	10 302 5
	movb	$33, -329(%rbp)
Ltmp180:
	.loc	10 302 5
	jmp	LBB8_3
LBB8_70:
	leaq	-336(%rbp), %rax
	movq	%rax, -48(%rbp)
	cmpl	$35, -336(%rbp)
	je	LBB8_73
	jmp	LBB8_72
LBB8_71:
Ltmp181:
	.loc	10 302 5
	movb	$34, -329(%rbp)
Ltmp182:
	.loc	10 302 5
	jmp	LBB8_3
LBB8_72:
	leaq	-336(%rbp), %rax
	movq	%rax, -40(%rbp)
	cmpl	$39, -336(%rbp)
	je	LBB8_75
	jmp	LBB8_74
LBB8_73:
Ltmp183:
	.loc	10 302 5
	movb	$35, -329(%rbp)
Ltmp184:
	.loc	10 302 5
	jmp	LBB8_3
LBB8_74:
	leaq	-336(%rbp), %rax
	movq	%rax, -32(%rbp)
	cmpl	$37, -336(%rbp)
	je	LBB8_77
	jmp	LBB8_76
LBB8_75:
Ltmp185:
	.loc	10 302 5
	movb	$39, -329(%rbp)
Ltmp186:
	.loc	10 302 5
	jmp	LBB8_3
LBB8_76:
	leaq	-336(%rbp), %rax
	movq	%rax, -24(%rbp)
	cmpl	$36, -336(%rbp)
	je	LBB8_79
	jmp	LBB8_78
LBB8_77:
Ltmp187:
	.loc	10 302 5
	movb	$37, -329(%rbp)
Ltmp188:
	.loc	10 302 5
	jmp	LBB8_3
LBB8_78:
	leaq	-336(%rbp), %rax
	movq	%rax, -16(%rbp)
	cmpl	$38, -336(%rbp)
	je	LBB8_81
	jmp	LBB8_80
LBB8_79:
Ltmp189:
	.loc	10 302 5
	movb	$36, -329(%rbp)
Ltmp190:
	.loc	10 302 5
	jmp	LBB8_3
LBB8_80:
	leaq	-336(%rbp), %rax
	movq	%rax, -8(%rbp)
	cmpl	$40, -336(%rbp)
	je	LBB8_83
	jmp	LBB8_82
LBB8_81:
Ltmp191:
	.loc	10 302 5
	movb	$38, -329(%rbp)
Ltmp192:
	.loc	10 302 5
	jmp	LBB8_3
LBB8_82:
	movb	$41, -329(%rbp)
	jmp	LBB8_3
LBB8_83:
Ltmp193:
	.loc	10 302 5
	movb	$40, -329(%rbp)
Ltmp194:
	.loc	10 302 5
	jmp	LBB8_3
Ltmp195:
Lfunc_end8:
	.cfi_endproc

	.globl	__ZN3std2io5error5Error3new17h81900dea82795866E
	.p2align	4, 0x90
__ZN3std2io5error5Error3new17h81900dea82795866E:
Lfunc_begin9:
	.file	14 "/rustc/2c8cc343237b8f7d5a3c3703e3a87f2eb2c54a74/library/std/src/io" "error.rs"
	.loc	14 504 0 is_stmt 1
	.cfi_startproc
	pushq	%rbp
	.cfi_def_cfa_offset 16
	.cfi_offset %rbp, -16
	movq	%rsp, %rbp
	.cfi_def_cfa_register %rbp
	subq	$48, %rsp
	movq	%rdx, -40(%rbp)
	movq	%rsi, %rax
	movq	-40(%rbp), %rsi
	movq	%rax, -32(%rbp)
	movl	%edi, %eax
	movq	-32(%rbp), %rdi
	movb	%al, -18(%rbp)
	movb	%al, -17(%rbp)
	movq	%rdi, -16(%rbp)
	movq	%rsi, -8(%rbp)
Ltmp196:
	.loc	14 508 26 prologue_end
	callq	__ZN50_$LT$T$u20$as$u20$core..convert..Into$LT$U$GT$$GT$4into17hfa875a8beea66317E
	movq	%rax, %rsi
	movb	-18(%rbp), %al
	.loc	14 508 9 is_stmt 0
	movzbl	%al, %edi
	callq	__ZN3std2io5error5Error4_new17h9d67976371b8512fE
	.loc	14 509 6 is_stmt 1
	addq	$48, %rsp
	popq	%rbp
	retq
Ltmp197:
Lfunc_end9:
	.cfi_endproc

	.globl	__ZN3std2io5error5Error3new17he2930bd17b3a5283E
	.p2align	4, 0x90
__ZN3std2io5error5Error3new17he2930bd17b3a5283E:
Lfunc_begin10:
	.loc	14 504 0
	.cfi_startproc
	pushq	%rbp
	.cfi_def_cfa_offset 16
	.cfi_offset %rbp, -16
	movq	%rsp, %rbp
	.cfi_def_cfa_register %rbp
	subq	$48, %rsp
	movb	%dil, %al
	movb	%al, -33(%rbp)
	movb	%al, -1(%rbp)
Ltmp198:
	.loc	14 508 26 prologue_end
	movq	(%rsi), %rax
	movq	%rax, -32(%rbp)
	movq	8(%rsi), %rax
	movq	%rax, -24(%rbp)
	movq	16(%rsi), %rax
	movq	%rax, -16(%rbp)
	leaq	-32(%rbp), %rdi
	callq	__ZN50_$LT$T$u20$as$u20$core..convert..Into$LT$U$GT$$GT$4into17h46c485ef04cb3c3dE
Ltmp199:
	movq	%rax, %rsi
	movb	-33(%rbp), %al
	.loc	14 508 9 is_stmt 0
	movzbl	%al, %edi
	callq	__ZN3std2io5error5Error4_new17h9d67976371b8512fE
	.loc	14 509 6 is_stmt 1
	addq	$48, %rsp
	popq	%rbp
	retq
Ltmp200:
Lfunc_end10:
	.cfi_endproc

	.p2align	4, 0x90
__ZN3std3ffi6os_str103_$LT$impl$u20$core..convert..AsRef$LT$std..ffi..os_str..OsStr$GT$$u20$for$u20$alloc..string..String$GT$6as_ref17h81d6ad9692c6212cE:
Lfunc_begin11:
	.file	15 "/rustc/2c8cc343237b8f7d5a3c3703e3a87f2eb2c54a74/library/std/src/ffi" "os_str.rs"
	.loc	15 1329 0
	.cfi_startproc
	pushq	%rbp
	.cfi_def_cfa_offset 16
	.cfi_offset %rbp, -16
	movq	%rsp, %rbp
	.cfi_def_cfa_register %rbp
	subq	$160, %rsp
	movq	%rdi, -160(%rbp)
Ltmp201:
	.loc	15 1330 12 prologue_end
	movq	%rdi, -152(%rbp)
Ltmp202:
	.loc	6 2460 43
	callq	__ZN72_$LT$alloc..vec..Vec$LT$T$C$A$GT$$u20$as$u20$core..ops..deref..Deref$GT$5deref17h7a5c131a8ce8beeeE
	movq	%rax, -144(%rbp)
	movq	%rdx, -136(%rbp)
Ltmp203:
	.file	16 "/rustc/2c8cc343237b8f7d5a3c3703e3a87f2eb2c54a74/library/core/src/str" "converts.rs"
	.loc	16 173 14
	movq	%rax, -128(%rbp)
	movq	%rdx, -120(%rbp)
	movq	-128(%rbp), %rcx
	movq	-120(%rbp), %rax
Ltmp204:
	.loc	15 1330 9
	movq	%rcx, -112(%rbp)
	movq	%rax, -104(%rbp)
Ltmp205:
	.loc	15 1322 43
	movq	%rcx, -96(%rbp)
	movq	%rax, -88(%rbp)
Ltmp206:
	.file	17 "/rustc/2c8cc343237b8f7d5a3c3703e3a87f2eb2c54a74/library/std/src/sys/unix" "os_str.rs"
	.loc	17 201 30
	movq	%rcx, -80(%rbp)
	movq	%rax, -72(%rbp)
Ltmp207:
	.loc	8 327 18
	movq	%rcx, -64(%rbp)
	movq	%rax, -56(%rbp)
	movq	-64(%rbp), %rcx
	movq	-56(%rbp), %rax
Ltmp208:
	.loc	17 201 30
	movq	%rcx, -48(%rbp)
	movq	%rax, -40(%rbp)
Ltmp209:
	.loc	17 196 18
	movq	%rcx, -32(%rbp)
	movq	%rax, -24(%rbp)
	movq	-32(%rbp), %rax
	movq	-24(%rbp), %rdx
Ltmp210:
	.loc	15 1322 27
	movq	%rax, -16(%rbp)
	movq	%rdx, -8(%rbp)
Ltmp211:
	.loc	15 1331 6
	addq	$160, %rsp
	popq	%rbp
	retq
Ltmp212:
Lfunc_end11:
	.cfi_endproc

	.p2align	4, 0x90
__ZN3std3ffi6os_str85_$LT$impl$u20$core..convert..AsRef$LT$std..ffi..os_str..OsStr$GT$$u20$for$u20$str$GT$6as_ref17h5bbde57e726204f8E:
Lfunc_begin12:
	.loc	15 1321 0
	.cfi_startproc
	pushq	%rbp
	.cfi_def_cfa_offset 16
	.cfi_offset %rbp, -16
	movq	%rsp, %rbp
	.cfi_def_cfa_register %rbp
	subq	$112, %rsp
	movq	%rdi, -112(%rbp)
	movq	%rsi, -104(%rbp)
Ltmp213:
	.loc	15 1322 43 prologue_end
	movq	%rdi, -96(%rbp)
	movq	%rsi, -88(%rbp)
Ltmp214:
	.loc	17 201 30
	movq	%rdi, -80(%rbp)
	movq	%rsi, -72(%rbp)
Ltmp215:
	.loc	8 327 18
	movq	%rdi, -64(%rbp)
	movq	%rsi, -56(%rbp)
	movq	-64(%rbp), %rcx
	movq	-56(%rbp), %rax
Ltmp216:
	.loc	17 201 30
	movq	%rcx, -48(%rbp)
	movq	%rax, -40(%rbp)
Ltmp217:
	.loc	17 196 18
	movq	%rcx, -32(%rbp)
	movq	%rax, -24(%rbp)
	movq	-32(%rbp), %rax
	movq	-24(%rbp), %rdx
Ltmp218:
	.loc	15 1322 27
	movq	%rax, -16(%rbp)
	movq	%rdx, -8(%rbp)
	.loc	15 1323 6
	addq	$112, %rsp
	popq	%rbp
	retq
Ltmp219:
Lfunc_end12:
	.cfi_endproc

	.globl	__ZN3std4path4Path3new17h9c1832d705b7952cE
	.p2align	4, 0x90
__ZN3std4path4Path3new17h9c1832d705b7952cE:
Lfunc_begin13:
	.file	18 "/rustc/2c8cc343237b8f7d5a3c3703e3a87f2eb2c54a74/library/std/src" "path.rs"
	.loc	18 2037 0
	.cfi_startproc
	pushq	%rbp
	.cfi_def_cfa_offset 16
	.cfi_offset %rbp, -16
	movq	%rsp, %rbp
	.cfi_def_cfa_register %rbp
	subq	$16, %rsp
	movq	%rdi, -8(%rbp)
Ltmp220:
	.loc	18 2038 21 prologue_end
	callq	__ZN3std3ffi6os_str103_$LT$impl$u20$core..convert..AsRef$LT$std..ffi..os_str..OsStr$GT$$u20$for$u20$alloc..string..String$GT$6as_ref17h81d6ad9692c6212cE
	.loc	18 2039 6
	addq	$16, %rsp
	popq	%rbp
	retq
Ltmp221:
Lfunc_end13:
	.cfi_endproc

	.p2align	4, 0x90
__ZN3std4path95_$LT$impl$u20$core..convert..AsRef$LT$std..path..Path$GT$$u20$for$u20$alloc..string..String$GT$6as_ref17h4bb97cab4f69e551E:
Lfunc_begin14:
	.loc	18 3146 0
	.cfi_startproc
	pushq	%rbp
	.cfi_def_cfa_offset 16
	.cfi_offset %rbp, -16
	movq	%rsp, %rbp
	.cfi_def_cfa_register %rbp
	subq	$16, %rsp
	movq	%rdi, -8(%rbp)
Ltmp222:
	.loc	18 3147 9 prologue_end
	callq	__ZN3std4path4Path3new17h9c1832d705b7952cE
	.loc	18 3148 6
	addq	$16, %rsp
	popq	%rbp
	retq
Ltmp223:
Lfunc_end14:
	.cfi_endproc

	.globl	__ZN3std7process7Command3arg17h5ae47404851bb766E
	.p2align	4, 0x90
__ZN3std7process7Command3arg17h5ae47404851bb766E:
Lfunc_begin15:
	.file	19 "/rustc/2c8cc343237b8f7d5a3c3703e3a87f2eb2c54a74/library/std/src" "process.rs"
	.loc	19 607 0
	.cfi_startproc
	.cfi_personality 155, _rust_eh_personality
	.cfi_lsda 16, Lexception3
	pushq	%rbp
	.cfi_def_cfa_offset 16
	.cfi_offset %rbp, -16
	movq	%rsp, %rbp
	.cfi_def_cfa_register %rbp
	subq	$64, %rsp
	movq	%rdi, -64(%rbp)
	movq	%rsi, -40(%rbp)
	movq	%rdx, -32(%rbp)
	movq	%rdi, -24(%rbp)
Ltmp224:
	leaq	-40(%rbp), %rdi
Ltmp229:
	.loc	19 608 24 prologue_end
	callq	__ZN55_$LT$$RF$T$u20$as$u20$core..convert..AsRef$LT$U$GT$$GT$6as_ref17hbc48eef6ef4c6a91E
Ltmp225:
	movq	%rdx, -56(%rbp)
	movq	%rax, -48(%rbp)
	jmp	LBB15_3
LBB15_1:
	.loc	19 607 5
	movq	-16(%rbp), %rdi
	callq	__Unwind_Resume
LBB15_2:
Ltmp228:
	.loc	19 0 5 is_stmt 0
	movq	%rax, %rcx
	movl	%edx, %eax
	movq	%rcx, -16(%rbp)
	movl	%eax, -8(%rbp)
	jmp	LBB15_1
LBB15_3:
Ltmp226:
	movq	-56(%rbp), %rdx
	movq	-48(%rbp), %rsi
	movq	-64(%rbp), %rdi
	.loc	19 608 9 is_stmt 1
	callq	__ZN3std3sys4unix7process14process_common7Command3arg17hdfe06f44e19d0682E
Ltmp227:
	jmp	LBB15_4
LBB15_4:
	.loc	19 0 9 is_stmt 0
	movq	-64(%rbp), %rax
	.loc	19 610 6 is_stmt 1
	addq	$64, %rsp
	popq	%rbp
	retq
Ltmp230:
Lfunc_end15:
	.cfi_endproc
	.section	__TEXT,__gcc_except_tab
	.p2align	2
GCC_except_table15:
Lexception3:
	.byte	255
	.byte	255
	.byte	1
	.uleb128 Lcst_end3-Lcst_begin3
Lcst_begin3:
	.uleb128 Ltmp224-Lfunc_begin15
	.uleb128 Ltmp225-Ltmp224
	.uleb128 Ltmp228-Lfunc_begin15
	.byte	0
	.uleb128 Ltmp225-Lfunc_begin15
	.uleb128 Ltmp226-Ltmp225
	.byte	0
	.byte	0
	.uleb128 Ltmp226-Lfunc_begin15
	.uleb128 Ltmp227-Ltmp226
	.uleb128 Ltmp228-Lfunc_begin15
	.byte	0
Lcst_end3:
	.p2align	2

	.section	__TEXT,__text,regular,pure_instructions
	.globl	__ZN3std7process7Command3arg17h5f69c11b494790d0E
	.p2align	4, 0x90
__ZN3std7process7Command3arg17h5f69c11b494790d0E:
Lfunc_begin16:
	.loc	19 607 0
	.cfi_startproc
	.cfi_personality 155, _rust_eh_personality
	.cfi_lsda 16, Lexception4
	pushq	%rbp
	.cfi_def_cfa_offset 16
	.cfi_offset %rbp, -16
	movq	%rsp, %rbp
	.cfi_def_cfa_register %rbp
	subq	$64, %rsp
	movq	%rdi, -56(%rbp)
	movq	%rsi, -32(%rbp)
	movq	%rdi, -24(%rbp)
Ltmp231:
	leaq	-32(%rbp), %rdi
Ltmp236:
	.loc	19 608 24 prologue_end
	callq	__ZN55_$LT$$RF$T$u20$as$u20$core..convert..AsRef$LT$U$GT$$GT$6as_ref17h543e6c8fe75ac46dE
Ltmp232:
	movq	%rdx, -48(%rbp)
	movq	%rax, -40(%rbp)
	jmp	LBB16_3
LBB16_1:
	.loc	19 607 5
	movq	-16(%rbp), %rdi
	callq	__Unwind_Resume
LBB16_2:
Ltmp235:
	.loc	19 0 5 is_stmt 0
	movq	%rax, %rcx
	movl	%edx, %eax
	movq	%rcx, -16(%rbp)
	movl	%eax, -8(%rbp)
	jmp	LBB16_1
LBB16_3:
Ltmp233:
	movq	-48(%rbp), %rdx
	movq	-40(%rbp), %rsi
	movq	-56(%rbp), %rdi
	.loc	19 608 9 is_stmt 1
	callq	__ZN3std3sys4unix7process14process_common7Command3arg17hdfe06f44e19d0682E
Ltmp234:
	jmp	LBB16_4
LBB16_4:
	.loc	19 0 9 is_stmt 0
	movq	-56(%rbp), %rax
	.loc	19 610 6 is_stmt 1
	addq	$64, %rsp
	popq	%rbp
	retq
Ltmp237:
Lfunc_end16:
	.cfi_endproc
	.section	__TEXT,__gcc_except_tab
	.p2align	2
GCC_except_table16:
Lexception4:
	.byte	255
	.byte	255
	.byte	1
	.uleb128 Lcst_end4-Lcst_begin4
Lcst_begin4:
	.uleb128 Ltmp231-Lfunc_begin16
	.uleb128 Ltmp232-Ltmp231
	.uleb128 Ltmp235-Lfunc_begin16
	.byte	0
	.uleb128 Ltmp232-Lfunc_begin16
	.uleb128 Ltmp233-Ltmp232
	.byte	0
	.byte	0
	.uleb128 Ltmp233-Lfunc_begin16
	.uleb128 Ltmp234-Ltmp233
	.uleb128 Ltmp235-Lfunc_begin16
	.byte	0
Lcst_end4:
	.p2align	2

	.section	__TEXT,__text,regular,pure_instructions
	.globl	__ZN3std7process7Command3new17h7655af8f8007607aE
	.p2align	4, 0x90
__ZN3std7process7Command3new17h7655af8f8007607aE:
Lfunc_begin17:
	.loc	19 561 0
	.cfi_startproc
	.cfi_personality 155, _rust_eh_personality
	.cfi_lsda 16, Lexception5
	pushq	%rbp
	.cfi_def_cfa_offset 16
	.cfi_offset %rbp, -16
	movq	%rsp, %rbp
	.cfi_def_cfa_register %rbp
	subq	$272, %rsp
	movq	%rdi, -272(%rbp)
	movq	%rdi, -264(%rbp)
	movq	%rsi, -240(%rbp)
	movq	%rdx, -232(%rbp)
Ltmp238:
	leaq	-240(%rbp), %rdi
Ltmp243:
	.loc	19 562 44 prologue_end
	callq	__ZN55_$LT$$RF$T$u20$as$u20$core..convert..AsRef$LT$U$GT$$GT$6as_ref17hbc48eef6ef4c6a91E
Ltmp239:
	movq	%rdx, -256(%rbp)
	movq	%rax, -248(%rbp)
	jmp	LBB17_3
LBB17_1:
	.loc	19 561 5
	movq	-16(%rbp), %rdi
	callq	__Unwind_Resume
LBB17_2:
Ltmp242:
	.loc	19 0 5 is_stmt 0
	movq	%rax, %rcx
	movl	%edx, %eax
	movq	%rcx, -16(%rbp)
	movl	%eax, -8(%rbp)
	jmp	LBB17_1
LBB17_3:
Ltmp240:
	movq	-256(%rbp), %rdx
	movq	-248(%rbp), %rsi
	leaq	-224(%rbp), %rdi
	.loc	19 562 26 is_stmt 1
	callq	__ZN3std3sys4unix7process14process_common7Command3new17hbc75e5b02e009ba8E
Ltmp241:
	jmp	LBB17_4
LBB17_4:
	.loc	19 0 26 is_stmt 0
	movq	-272(%rbp), %rdi
	.loc	19 562 9
	leaq	-224(%rbp), %rsi
	movl	$208, %edx
	callq	_memcpy
	movq	-264(%rbp), %rax
	.loc	19 563 6 is_stmt 1
	addq	$272, %rsp
	popq	%rbp
	retq
Ltmp244:
Lfunc_end17:
	.cfi_endproc
	.section	__TEXT,__gcc_except_tab
	.p2align	2
GCC_except_table17:
Lexception5:
	.byte	255
	.byte	255
	.byte	1
	.uleb128 Lcst_end5-Lcst_begin5
Lcst_begin5:
	.uleb128 Ltmp238-Lfunc_begin17
	.uleb128 Ltmp239-Ltmp238
	.uleb128 Ltmp242-Lfunc_begin17
	.byte	0
	.uleb128 Ltmp239-Lfunc_begin17
	.uleb128 Ltmp240-Ltmp239
	.byte	0
	.byte	0
	.uleb128 Ltmp240-Lfunc_begin17
	.uleb128 Ltmp241-Ltmp240
	.uleb128 Ltmp242-Lfunc_begin17
	.byte	0
	.uleb128 Ltmp241-Lfunc_begin17
	.uleb128 Lfunc_end17-Ltmp241
	.byte	0
	.byte	0
Lcst_end5:
	.p2align	2

	.section	__TEXT,__text,regular,pure_instructions
	.globl	__ZN3std7process7Command5stdin17hc56afe144ab3eaf3E
	.p2align	4, 0x90
__ZN3std7process7Command5stdin17hc56afe144ab3eaf3E:
Lfunc_begin18:
	.loc	19 805 0
	.cfi_startproc
	pushq	%rbp
	.cfi_def_cfa_offset 16
	.cfi_offset %rbp, -16
	movq	%rsp, %rbp
	.cfi_def_cfa_register %rbp
	subq	$32, %rsp
	movl	%edx, -32(%rbp)
	movl	%esi, %eax
	movl	-32(%rbp), %esi
	movl	%eax, -28(%rbp)
	movq	%rdi, %rax
	movl	-28(%rbp), %edi
	movq	%rax, -24(%rbp)
	movq	%rax, -16(%rbp)
	movl	%edi, -8(%rbp)
	movl	%esi, -4(%rbp)
Ltmp245:
	.loc	19 806 26 prologue_end
	callq	__ZN50_$LT$T$u20$as$u20$core..convert..Into$LT$U$GT$$GT$4into17h9268dd120e312f76E
	movq	-24(%rbp), %rdi
	movl	%eax, %esi
	.loc	19 806 9 is_stmt 0
	callq	__ZN3std3sys4unix7process14process_common7Command5stdin17h2a3f911348c045b4E
	movq	-24(%rbp), %rax
	.loc	19 808 6 is_stmt 1
	addq	$32, %rsp
	popq	%rbp
	retq
Ltmp246:
Lfunc_end18:
	.cfi_endproc

	.globl	__ZN3std7process7Command6stderr17hae1f511ea7e29425E
	.p2align	4, 0x90
__ZN3std7process7Command6stderr17hae1f511ea7e29425E:
Lfunc_begin19:
	.loc	19 863 0
	.cfi_startproc
	pushq	%rbp
	.cfi_def_cfa_offset 16
	.cfi_offset %rbp, -16
	movq	%rsp, %rbp
	.cfi_def_cfa_register %rbp
	subq	$32, %rsp
	movl	%edx, -32(%rbp)
	movl	%esi, %eax
	movl	-32(%rbp), %esi
	movl	%eax, -28(%rbp)
	movq	%rdi, %rax
	movl	-28(%rbp), %edi
	movq	%rax, -24(%rbp)
	movq	%rax, -16(%rbp)
	movl	%edi, -8(%rbp)
	movl	%esi, -4(%rbp)
Ltmp247:
	.loc	19 864 27 prologue_end
	callq	__ZN50_$LT$T$u20$as$u20$core..convert..Into$LT$U$GT$$GT$4into17h9268dd120e312f76E
	movq	-24(%rbp), %rdi
	movl	%eax, %esi
	.loc	19 864 9 is_stmt 0
	callq	__ZN3std3sys4unix7process14process_common7Command6stderr17hd1d38402fa9f967aE
	movq	-24(%rbp), %rax
	.loc	19 866 6 is_stmt 1
	addq	$32, %rsp
	popq	%rbp
	retq
Ltmp248:
Lfunc_end19:
	.cfi_endproc

	.globl	__ZN3std7process7Command6stdout17h9f3239379f50a1c7E
	.p2align	4, 0x90
__ZN3std7process7Command6stdout17h9f3239379f50a1c7E:
Lfunc_begin20:
	.loc	19 834 0
	.cfi_startproc
	pushq	%rbp
	.cfi_def_cfa_offset 16
	.cfi_offset %rbp, -16
	movq	%rsp, %rbp
	.cfi_def_cfa_register %rbp
	subq	$32, %rsp
	movl	%edx, -32(%rbp)
	movl	%esi, %eax
	movl	-32(%rbp), %esi
	movl	%eax, -28(%rbp)
	movq	%rdi, %rax
	movl	-28(%rbp), %edi
	movq	%rax, -24(%rbp)
	movq	%rax, -16(%rbp)
	movl	%edi, -8(%rbp)
	movl	%esi, -4(%rbp)
Ltmp249:
	.loc	19 835 27 prologue_end
	callq	__ZN50_$LT$T$u20$as$u20$core..convert..Into$LT$U$GT$$GT$4into17h9268dd120e312f76E
	movq	-24(%rbp), %rdi
	movl	%eax, %esi
	.loc	19 835 9 is_stmt 0
	callq	__ZN3std3sys4unix7process14process_common7Command6stdout17h0914c93ae9eab2baE
	movq	-24(%rbp), %rax
	.loc	19 837 6 is_stmt 1
	addq	$32, %rsp
	popq	%rbp
	retq
Ltmp250:
Lfunc_end20:
	.cfi_endproc

	.p2align	4, 0x90
__ZN3url3Url5parse17hbb7057dd132c3823E:
Lfunc_begin21:
	.file	20 "/Users/natalie/.cargo/registry/src/github.com-1ecc6299db9ec823/url-2.3.1/src" "lib.rs"
	.loc	20 279 0
	.cfi_startproc
	pushq	%rbp
	.cfi_def_cfa_offset 16
	.cfi_offset %rbp, -16
	movq	%rsp, %rbp
	.cfi_def_cfa_register %rbp
	subq	$96, %rsp
	movq	%rdx, -72(%rbp)
	movq	%rsi, -80(%rbp)
	movq	%rdi, -88(%rbp)
	movq	%rdi, -64(%rbp)
	movq	%rsi, -16(%rbp)
	movq	%rdx, -8(%rbp)
Ltmp251:
	.loc	20 280 9 prologue_end
	leaq	-56(%rbp), %rdi
	callq	__ZN3url3Url7options17h1978e639b2d10630E
	movq	-88(%rbp), %rdi
	movq	-80(%rbp), %rdx
	movq	-72(%rbp), %rcx
	leaq	-56(%rbp), %rsi
	callq	__ZN3url12ParseOptions5parse17hd56e07d306509794E
	movq	-64(%rbp), %rax
	.loc	20 281 6
	addq	$96, %rsp
	popq	%rbp
	retq
Ltmp252:
Lfunc_end21:
	.cfi_endproc

	.p2align	4, 0x90
__ZN3url3Url6as_str17h62fef4cf134a7336E:
Lfunc_begin22:
	.loc	20 542 0
	.cfi_startproc
	pushq	%rbp
	.cfi_def_cfa_offset 16
	.cfi_offset %rbp, -16
	movq	%rsp, %rbp
	.cfi_def_cfa_register %rbp
	subq	$16, %rsp
	movq	%rdi, -8(%rbp)
Ltmp253:
	.loc	20 543 9 prologue_end
	callq	__ZN65_$LT$alloc..string..String$u20$as$u20$core..ops..deref..Deref$GT$5deref17h00166558acd5846eE
	.loc	20 544 6
	addq	$16, %rsp
	popq	%rbp
	retq
Ltmp254:
Lfunc_end22:
	.cfi_endproc

	.p2align	4, 0x90
__ZN41_$LT$bool$u20$as$u20$core..fmt..Debug$GT$3fmt17ha0f9f451d4c56cdaE:
Lfunc_begin23:
	.file	21 "/rustc/2c8cc343237b8f7d5a3c3703e3a87f2eb2c54a74/library/core/src/fmt" "mod.rs"
	.loc	21 2406 0
	.cfi_startproc
	pushq	%rbp
	.cfi_def_cfa_offset 16
	.cfi_offset %rbp, -16
	movq	%rsp, %rbp
	.cfi_def_cfa_register %rbp
	subq	$16, %rsp
	movq	%rdi, -16(%rbp)
	movq	%rsi, -8(%rbp)
Ltmp255:
	.loc	21 2407 9 prologue_end
	callq	__ZN43_$LT$bool$u20$as$u20$core..fmt..Display$GT$3fmt17hcd777b7f8f92eb67E
	.loc	21 2408 6
	andb	$1, %al
	movzbl	%al, %eax
	addq	$16, %rsp
	popq	%rbp
	retq
Ltmp256:
Lfunc_end23:
	.cfi_endproc

	.globl	__ZN42_$LT$$RF$T$u20$as$u20$core..fmt..Debug$GT$3fmt17hd85e4f4b6cd4f6d6E
	.p2align	4, 0x90
__ZN42_$LT$$RF$T$u20$as$u20$core..fmt..Debug$GT$3fmt17hd85e4f4b6cd4f6d6E:
Lfunc_begin24:
	.loc	21 2377 0
	.cfi_startproc
	pushq	%rbp
	.cfi_def_cfa_offset 16
	.cfi_offset %rbp, -16
	movq	%rsp, %rbp
	.cfi_def_cfa_register %rbp
	subq	$16, %rsp
	movq	%rdi, -16(%rbp)
	movq	%rsi, -8(%rbp)
Ltmp257:
	.loc	21 2377 71 prologue_end
	movq	(%rdi), %rdi
	.loc	21 2377 62 is_stmt 0
	callq	__ZN41_$LT$bool$u20$as$u20$core..fmt..Debug$GT$3fmt17ha0f9f451d4c56cdaE
	.loc	21 2377 84
	andb	$1, %al
	movzbl	%al, %eax
	addq	$16, %rsp
	popq	%rbp
	retq
Ltmp258:
Lfunc_end24:
	.cfi_endproc

	.globl	__ZN4core3any6TypeId2of17h45a08351bef10beeE
	.p2align	4, 0x90
__ZN4core3any6TypeId2of17h45a08351bef10beeE:
Lfunc_begin25:
	.file	22 "/rustc/2c8cc343237b8f7d5a3c3703e3a87f2eb2c54a74/library/core/src" "any.rs"
	.loc	22 691 0 is_stmt 1
	.cfi_startproc
	pushq	%rbp
	.cfi_def_cfa_offset 16
	.cfi_offset %rbp, -16
	movq	%rsp, %rbp
	.cfi_def_cfa_register %rbp
	subq	$16, %rsp
Ltmp259:
	.loc	22 692 21 prologue_end
	movabsq	$7347052152418787836, %rax
	movq	%rax, -8(%rbp)
	movq	-8(%rbp), %rax
	.loc	22 692 9 is_stmt 0
	movq	%rax, -16(%rbp)
	.loc	22 693 6 is_stmt 1
	movq	-16(%rbp), %rax
	addq	$16, %rsp
	popq	%rbp
	retq
Ltmp260:
Lfunc_end25:
	.cfi_endproc

	.globl	__ZN4core3fmt10ArgumentV111new_display17h0d5c8f454325baadE
	.p2align	4, 0x90
__ZN4core3fmt10ArgumentV111new_display17h0d5c8f454325baadE:
Lfunc_begin26:
	.loc	21 327 0
	.cfi_startproc
	pushq	%rbp
	.cfi_def_cfa_offset 16
	.cfi_offset %rbp, -16
	movq	%rsp, %rbp
	.cfi_def_cfa_register %rbp
	subq	$56, %rsp
	movq	%rdi, -40(%rbp)
Ltmp261:
	.loc	21 328 23 prologue_end
	movq	%rdi, -32(%rbp)
	.loc	21 328 26 is_stmt 0
	movq	__ZN43_$LT$bool$u20$as$u20$core..fmt..Display$GT$3fmt17hcd777b7f8f92eb67E@GOTPCREL(%rip), %rax
	movq	%rax, -24(%rbp)
Ltmp262:
	.loc	21 347 42 is_stmt 1
	movq	%rax, -16(%rbp)
	movq	-16(%rbp), %rax
	.loc	21 347 68 is_stmt 0
	movq	%rdi, -8(%rbp)
	movq	-8(%rbp), %rcx
	.loc	21 347 18
	movq	%rcx, -56(%rbp)
	movq	%rax, -48(%rbp)
Ltmp263:
	.loc	21 329 10 is_stmt 1
	movq	-56(%rbp), %rax
	movq	-48(%rbp), %rdx
	addq	$56, %rsp
	popq	%rbp
	retq
Ltmp264:
Lfunc_end26:
	.cfi_endproc

	.globl	__ZN4core3fmt10ArgumentV111new_display17h4d5a8999b36ed128E
	.p2align	4, 0x90
__ZN4core3fmt10ArgumentV111new_display17h4d5a8999b36ed128E:
Lfunc_begin27:
	.loc	21 327 0
	.cfi_startproc
	pushq	%rbp
	.cfi_def_cfa_offset 16
	.cfi_offset %rbp, -16
	movq	%rsp, %rbp
	.cfi_def_cfa_register %rbp
	subq	$56, %rsp
	movq	%rdi, -40(%rbp)
Ltmp265:
	.loc	21 328 23 prologue_end
	movq	%rdi, -32(%rbp)
	.loc	21 328 26 is_stmt 0
	leaq	__ZN60_$LT$alloc..string..String$u20$as$u20$core..fmt..Display$GT$3fmt17hf5c74e5b54c06f45E(%rip), %rax
	movq	%rax, -24(%rbp)
Ltmp266:
	.loc	21 347 42 is_stmt 1
	movq	%rax, -16(%rbp)
	movq	-16(%rbp), %rax
	.loc	21 347 68 is_stmt 0
	movq	%rdi, -8(%rbp)
	movq	-8(%rbp), %rcx
	.loc	21 347 18
	movq	%rcx, -56(%rbp)
	movq	%rax, -48(%rbp)
Ltmp267:
	.loc	21 329 10 is_stmt 1
	movq	-56(%rbp), %rax
	movq	-48(%rbp), %rdx
	addq	$56, %rsp
	popq	%rbp
	retq
Ltmp268:
Lfunc_end27:
	.cfi_endproc

	.globl	__ZN4core3fmt10ArgumentV111new_display17hfb89074afb8e41b0E
	.p2align	4, 0x90
__ZN4core3fmt10ArgumentV111new_display17hfb89074afb8e41b0E:
Lfunc_begin28:
	.loc	21 327 0
	.cfi_startproc
	pushq	%rbp
	.cfi_def_cfa_offset 16
	.cfi_offset %rbp, -16
	movq	%rsp, %rbp
	.cfi_def_cfa_register %rbp
	subq	$56, %rsp
	movq	%rdi, -40(%rbp)
Ltmp269:
	.loc	21 328 23 prologue_end
	movq	%rdi, -32(%rbp)
	.loc	21 328 26 is_stmt 0
	movq	__ZN4core3fmt3num3imp52_$LT$impl$u20$core..fmt..Display$u20$for$u20$i32$GT$3fmt17hd51e25ed68474bbaE@GOTPCREL(%rip), %rax
	movq	%rax, -24(%rbp)
Ltmp270:
	.loc	21 347 42 is_stmt 1
	movq	%rax, -16(%rbp)
	movq	-16(%rbp), %rax
	.loc	21 347 68 is_stmt 0
	movq	%rdi, -8(%rbp)
	movq	-8(%rbp), %rcx
	.loc	21 347 18
	movq	%rcx, -56(%rbp)
	movq	%rax, -48(%rbp)
Ltmp271:
	.loc	21 329 10 is_stmt 1
	movq	-56(%rbp), %rax
	movq	-48(%rbp), %rdx
	addq	$56, %rsp
	popq	%rbp
	retq
Ltmp272:
Lfunc_end28:
	.cfi_endproc

	.globl	__ZN4core3fmt10ArgumentV19new_debug17h1a7a28351753e314E
	.p2align	4, 0x90
__ZN4core3fmt10ArgumentV19new_debug17h1a7a28351753e314E:
Lfunc_begin29:
	.loc	21 327 0
	.cfi_startproc
	pushq	%rbp
	.cfi_def_cfa_offset 16
	.cfi_offset %rbp, -16
	movq	%rsp, %rbp
	.cfi_def_cfa_register %rbp
	subq	$56, %rsp
	movq	%rdi, -40(%rbp)
Ltmp273:
	.loc	21 328 23 prologue_end
	movq	%rdi, -32(%rbp)
	.loc	21 328 26 is_stmt 0
	leaq	__ZN50_$LT$$RF$mut$u20$T$u20$as$u20$core..fmt..Debug$GT$3fmt17h6bdd5784729f747fE(%rip), %rax
	movq	%rax, -24(%rbp)
Ltmp274:
	.loc	21 347 42 is_stmt 1
	movq	%rax, -16(%rbp)
	movq	-16(%rbp), %rax
	.loc	21 347 68 is_stmt 0
	movq	%rdi, -8(%rbp)
	movq	-8(%rbp), %rcx
	.loc	21 347 18
	movq	%rcx, -56(%rbp)
	movq	%rax, -48(%rbp)
Ltmp275:
	.loc	21 329 10 is_stmt 1
	movq	-56(%rbp), %rax
	movq	-48(%rbp), %rdx
	addq	$56, %rsp
	popq	%rbp
	retq
Ltmp276:
Lfunc_end29:
	.cfi_endproc

	.globl	__ZN4core3fmt10ArgumentV19new_debug17h2de3e219a110340eE
	.p2align	4, 0x90
__ZN4core3fmt10ArgumentV19new_debug17h2de3e219a110340eE:
Lfunc_begin30:
	.loc	21 327 0
	.cfi_startproc
	pushq	%rbp
	.cfi_def_cfa_offset 16
	.cfi_offset %rbp, -16
	movq	%rsp, %rbp
	.cfi_def_cfa_register %rbp
	subq	$56, %rsp
	movq	%rdi, -40(%rbp)
Ltmp277:
	.loc	21 328 23 prologue_end
	movq	%rdi, -32(%rbp)
	.loc	21 328 26 is_stmt 0
	leaq	__ZN56_$LT$webbrowser..Browser$u20$as$u20$core..fmt..Debug$GT$3fmt17h2c9c9aded2e35d27E(%rip), %rax
	movq	%rax, -24(%rbp)
Ltmp278:
	.loc	21 347 42 is_stmt 1
	movq	%rax, -16(%rbp)
	movq	-16(%rbp), %rax
	.loc	21 347 68 is_stmt 0
	movq	%rdi, -8(%rbp)
	movq	-8(%rbp), %rcx
	.loc	21 347 18
	movq	%rcx, -56(%rbp)
	movq	%rax, -48(%rbp)
Ltmp279:
	.loc	21 329 10 is_stmt 1
	movq	-56(%rbp), %rax
	movq	-48(%rbp), %rdx
	addq	$56, %rsp
	popq	%rbp
	retq
Ltmp280:
Lfunc_end30:
	.cfi_endproc

	.p2align	4, 0x90
__ZN4core3fmt9Arguments6as_str17hf2bb82f06f2f8425E:
Lfunc_begin31:
	.loc	21 521 0
	.cfi_startproc
	pushq	%rbp
	.cfi_def_cfa_offset 16
	.cfi_offset %rbp, -16
	movq	%rsp, %rbp
	.cfi_def_cfa_register %rbp
	subq	$64, %rsp
	movq	%rdi, -16(%rbp)
Ltmp281:
	.loc	21 522 16 prologue_end
	movq	16(%rdi), %rsi
	movq	24(%rdi), %rdx
	.loc	21 522 29 is_stmt 0
	movq	32(%rdi), %rcx
	movq	40(%rdi), %rax
	.loc	21 522 15
	movq	%rsi, -48(%rbp)
	movq	%rdx, -40(%rbp)
	movq	%rcx, -32(%rbp)
	movq	%rax, -24(%rbp)
	.loc	21 523 14 is_stmt 1
	cmpq	$0, -40(%rbp)
	je	LBB31_2
	.loc	21 524 14
	cmpq	$1, -40(%rbp)
	je	LBB31_6
	jmp	LBB31_3
LBB31_2:
	.loc	21 523 18
	cmpq	$0, -24(%rbp)
	je	LBB31_4
LBB31_3:
	.loc	21 525 18
	movq	$0, -64(%rbp)
	jmp	LBB31_5
LBB31_4:
	.loc	21 523 25
	leaq	l___unnamed_6(%rip), %rax
	movq	%rax, -64(%rbp)
	movq	$0, -56(%rbp)
LBB31_5:
	.loc	21 527 6
	movq	-64(%rbp), %rax
	movq	-56(%rbp), %rdx
	addq	$64, %rsp
	popq	%rbp
	retq
LBB31_6:
	.loc	21 524 19
	cmpq	$0, -24(%rbp)
	jne	LBB31_3
	.loc	21 524 15 is_stmt 0
	movq	-48(%rbp), %rax
	movq	%rax, -8(%rbp)
Ltmp282:
	.loc	21 524 31
	movq	(%rax), %rcx
	movq	8(%rax), %rax
	.loc	21 524 26
	movq	%rcx, -64(%rbp)
	movq	%rax, -56(%rbp)
Ltmp283:
	.loc	21 524 32
	jmp	LBB31_5
Ltmp284:
Lfunc_end31:
	.cfi_endproc

	.p2align	4, 0x90
__ZN4core3fmt9Arguments6new_v117h102b436d33f3e58aE:
Lfunc_begin32:
	.loc	21 399 0 is_stmt 1
	.cfi_startproc
	pushq	%rbp
	.cfi_def_cfa_offset 16
	.cfi_offset %rbp, -16
	movq	%rsp, %rbp
	.cfi_def_cfa_register %rbp
	subq	$160, %rsp
	movq	%r8, -152(%rbp)
	movq	%rcx, -144(%rbp)
	movq	%rdx, -136(%rbp)
	movq	%rsi, -128(%rbp)
	movq	%rdi, -120(%rbp)
	movq	%rdi, -112(%rbp)
	movq	%rsi, -32(%rbp)
	movq	%rdx, -24(%rbp)
	movq	%rcx, -16(%rbp)
	movq	%r8, -8(%rbp)
Ltmp285:
	.loc	21 400 12 prologue_end
	cmpq	%r8, %rdx
	jb	LBB32_2
	.loc	21 0 12 is_stmt 0
	movq	-136(%rbp), %rax
	movq	-152(%rbp), %rcx
	.loc	21 400 56
	addq	$1, %rcx
	.loc	21 400 41
	cmpq	%rcx, %rax
	seta	%al
	.loc	21 400 12
	andb	$1, %al
	movb	%al, -97(%rbp)
	jmp	LBB32_3
LBB32_2:
	movb	$1, -97(%rbp)
LBB32_3:
	testb	$1, -97(%rbp)
	jne	LBB32_5
	.loc	21 0 12
	movq	-112(%rbp), %rax
	movq	-120(%rbp), %rcx
	movq	-152(%rbp), %rdx
	movq	-144(%rbp), %rsi
	movq	-136(%rbp), %rdi
	movq	-128(%rbp), %r8
	.loc	21 403 34 is_stmt 1
	movq	$0, -48(%rbp)
	.loc	21 403 9 is_stmt 0
	movq	%r8, 16(%rcx)
	movq	%rdi, 24(%rcx)
	movq	-48(%rbp), %r8
	movq	-40(%rbp), %rdi
	movq	%r8, (%rcx)
	movq	%rdi, 8(%rcx)
	movq	%rsi, 32(%rcx)
	movq	%rdx, 40(%rcx)
	.loc	21 404 6 is_stmt 1
	addq	$160, %rsp
	popq	%rbp
	retq
LBB32_5:
	.loc	21 401 13
	leaq	l___unnamed_7(%rip), %rsi
	leaq	l___unnamed_6(%rip), %rcx
	xorl	%eax, %eax
	movl	%eax, %r8d
	leaq	-96(%rbp), %rdi
	movq	%rdi, -160(%rbp)
	movl	$1, %edx
	callq	__ZN4core3fmt9Arguments6new_v117h102b436d33f3e58aE
	movq	-160(%rbp), %rdi
	leaq	l___unnamed_8(%rip), %rsi
	callq	__ZN4core9panicking9panic_fmt17h9b5d807e24bcaaedE
Ltmp286:
Lfunc_end32:
	.cfi_endproc

	.globl	__ZN4core3mem12maybe_uninit20MaybeUninit$LT$T$GT$16assume_init_drop17h22712064a1951715E
	.p2align	4, 0x90
__ZN4core3mem12maybe_uninit20MaybeUninit$LT$T$GT$16assume_init_drop17h22712064a1951715E:
Lfunc_begin33:
	.file	23 "/rustc/2c8cc343237b8f7d5a3c3703e3a87f2eb2c54a74/library/core/src/mem" "maybe_uninit.rs"
	.loc	23 724 0
	.cfi_startproc
	pushq	%rbp
	.cfi_def_cfa_offset 16
	.cfi_offset %rbp, -16
	movq	%rsp, %rbp
	.cfi_def_cfa_register %rbp
	subq	$16, %rsp
	movq	%rdi, -16(%rbp)
Ltmp287:
	.loc	23 728 37 prologue_end
	movq	%rdi, -8(%rbp)
	.loc	23 728 18 is_stmt 0
	callq	__ZN4core3ptr47drop_in_place$LT$std..ffi..os_str..OsString$GT$17hf0dab148c3d7f5dcE
	.loc	23 729 6 is_stmt 1
	addq	$16, %rsp
	popq	%rbp
	retq
Ltmp288:
Lfunc_end33:
	.cfi_endproc

	.globl	__ZN4core3mem12maybe_uninit20MaybeUninit$LT$T$GT$16assume_init_drop17hbd4213a0627de8a5E
	.p2align	4, 0x90
__ZN4core3mem12maybe_uninit20MaybeUninit$LT$T$GT$16assume_init_drop17hbd4213a0627de8a5E:
Lfunc_begin34:
	.loc	23 724 0
	.cfi_startproc
	pushq	%rbp
	.cfi_def_cfa_offset 16
	.cfi_offset %rbp, -16
	movq	%rsp, %rbp
	.cfi_def_cfa_register %rbp
	subq	$16, %rsp
	movq	%rdi, -16(%rbp)
Ltmp289:
	.loc	23 728 37 prologue_end
	movq	%rdi, -8(%rbp)
	.loc	23 728 18 is_stmt 0
	callq	__ZN4core3ptr75drop_in_place$LT$core..option..Option$LT$std..ffi..os_str..OsString$GT$$GT$17hf539efada47db21fE
	.loc	23 729 6 is_stmt 1
	addq	$16, %rsp
	popq	%rbp
	retq
Ltmp290:
Lfunc_end34:
	.cfi_endproc

	.globl	__ZN4core3mem7replace17h040e1560422b26d9E
	.p2align	4, 0x90
__ZN4core3mem7replace17h040e1560422b26d9E:
Lfunc_begin35:
	.file	24 "/rustc/2c8cc343237b8f7d5a3c3703e3a87f2eb2c54a74/library/core/src/mem" "mod.rs"
	.loc	24 905 0
	.cfi_startproc
	pushq	%rbp
	.cfi_def_cfa_offset 16
	.cfi_offset %rbp, -16
	movq	%rsp, %rbp
	.cfi_def_cfa_register %rbp
	subq	$208, %rsp
	movq	%rdx, -208(%rbp)
Ltmp291:
	movq	%rsi, -200(%rbp)
	movq	%rdi, -192(%rbp)
	movq	%rdi, -184(%rbp)
	movq	%rsi, -48(%rbp)
Ltmp292:
	.loc	24 910 32 prologue_end
	movq	%rsi, -40(%rbp)
Ltmp293:
	.loc	4 1157 34
	leaq	-144(%rbp), %rax
	movq	%rax, -32(%rbp)
	.loc	4 1157 9 is_stmt 0
	movq	(%rsi), %rax
	movq	%rax, -144(%rbp)
	movq	8(%rsi), %rax
	movq	%rax, -136(%rbp)
	movq	16(%rsi), %rax
	movq	%rax, -128(%rbp)
	movq	24(%rsi), %rax
	movq	%rax, -120(%rbp)
	.loc	4 1158 9 is_stmt 1
	movq	-144(%rbp), %rax
	movq	%rax, -112(%rbp)
	movq	-136(%rbp), %rax
	movq	%rax, -104(%rbp)
	movq	-128(%rbp), %rax
	movq	%rax, -96(%rbp)
	movq	-120(%rbp), %rax
	movq	%rax, -88(%rbp)
Ltmp294:
	.loc	4 0 9 is_stmt 0
	movq	-184(%rbp), %rax
	movq	-200(%rbp), %rcx
	movq	-208(%rbp), %rdx
	movq	-192(%rbp), %rsi
Ltmp295:
	.loc	23 627 38 is_stmt 1
	movq	-112(%rbp), %rdi
	movq	%rdi, -80(%rbp)
	movq	-104(%rbp), %rdi
	movq	%rdi, -72(%rbp)
	movq	-96(%rbp), %rdi
	movq	%rdi, -64(%rbp)
	movq	-88(%rbp), %rdi
	movq	%rdi, -56(%rbp)
Ltmp296:
	.loc	2 89 9
	movq	-80(%rbp), %rdi
	movq	%rdi, (%rsi)
	movq	-72(%rbp), %rdi
	movq	%rdi, 8(%rsi)
	movq	-64(%rbp), %rdi
	movq	%rdi, 16(%rsi)
	movq	-56(%rbp), %rdi
	movq	%rdi, 24(%rsi)
Ltmp297:
	.loc	24 911 20
	movq	%rcx, -8(%rbp)
	.loc	24 911 26 is_stmt 0
	movq	(%rdx), %rsi
	movq	%rsi, -176(%rbp)
	movq	8(%rdx), %rsi
	movq	%rsi, -168(%rbp)
	movq	16(%rdx), %rsi
	movq	%rsi, -160(%rbp)
	movq	24(%rdx), %rdx
	movq	%rdx, -152(%rbp)
Ltmp298:
	.loc	4 1354 9 is_stmt 1
	movq	-176(%rbp), %rdx
	movq	%rdx, (%rcx)
	movq	-168(%rbp), %rdx
	movq	%rdx, 8(%rcx)
	movq	-160(%rbp), %rdx
	movq	%rdx, 16(%rcx)
	movq	-152(%rbp), %rdx
	movq	%rdx, 24(%rcx)
Ltmp299:
	.loc	24 914 2
	addq	$208, %rsp
	popq	%rbp
	retq
Ltmp300:
Lfunc_end35:
	.cfi_endproc

	.globl	__ZN4core3mem7replace17h565e22faa4c0abe5E
	.p2align	4, 0x90
__ZN4core3mem7replace17h565e22faa4c0abe5E:
Lfunc_begin36:
	.loc	24 905 0
	.cfi_startproc
	pushq	%rbp
	.cfi_def_cfa_offset 16
	.cfi_offset %rbp, -16
	movq	%rsp, %rbp
	.cfi_def_cfa_register %rbp
	subq	$184, %rsp
	movq	%rdi, -184(%rbp)
	movq	%rsi, -176(%rbp)
	movq	%rdx, -168(%rbp)
	movq	%rdi, -112(%rbp)
	movq	%rsi, -104(%rbp)
	movq	%rdx, -96(%rbp)
Ltmp301:
	.loc	24 910 32 prologue_end
	movq	%rdi, -88(%rbp)
Ltmp302:
	.loc	4 1157 34
	leaq	-128(%rbp), %rax
	movq	%rax, -80(%rbp)
	.loc	4 1157 9 is_stmt 0
	movq	(%rdi), %rax
	movq	%rax, -128(%rbp)
	movq	8(%rdi), %rax
	movq	%rax, -120(%rbp)
	.loc	4 1158 9 is_stmt 1
	movq	-128(%rbp), %rcx
	movq	%rcx, -160(%rbp)
	movq	-120(%rbp), %rax
	movq	%rax, -152(%rbp)
	movq	%rcx, -72(%rbp)
	movq	%rax, -64(%rbp)
	.loc	4 0 9 is_stmt 0
	movq	-152(%rbp), %rdx
	movq	-160(%rbp), %rax
	movq	-184(%rbp), %rcx
	movq	-168(%rbp), %rsi
	movq	-176(%rbp), %rdi
Ltmp303:
	.loc	23 627 38 is_stmt 1
	movq	%rax, -40(%rbp)
	movq	%rdx, -32(%rbp)
Ltmp304:
	.loc	2 89 9
	movq	%rax, -24(%rbp)
	movq	%rdx, -16(%rbp)
Ltmp305:
	.loc	24 911 20
	movq	%rcx, -8(%rbp)
	.loc	24 911 26 is_stmt 0
	movq	%rdi, -144(%rbp)
	movq	%rsi, -136(%rbp)
Ltmp306:
	.loc	4 1354 9 is_stmt 1
	movq	-144(%rbp), %rsi
	movq	-136(%rbp), %rdi
	movq	%rdi, 8(%rcx)
	movq	%rsi, (%rcx)
Ltmp307:
	.loc	24 914 2
	addq	$184, %rsp
	popq	%rbp
	retq
Ltmp308:
Lfunc_end36:
	.cfi_endproc

	.p2align	4, 0x90
__ZN4core3ops8function6FnOnce9call_once17hd015497a8b6da1eeE:
Lfunc_begin37:
	.file	25 "/rustc/2c8cc343237b8f7d5a3c3703e3a87f2eb2c54a74/library/core/src/ops" "function.rs"
	.loc	25 250 0
	.cfi_startproc
	pushq	%rbp
	.cfi_def_cfa_offset 16
	.cfi_offset %rbp, -16
	movq	%rsp, %rbp
	.cfi_def_cfa_register %rbp
	subq	$176, %rsp
	movq	%rdi, -168(%rbp)
	movq	%rdi, -160(%rbp)
	leaq	-152(%rbp), %rdi
	movl	$144, %edx
	callq	_memcpy
	movq	-168(%rbp), %rdi
Ltmp309:
	.loc	25 250 5 prologue_end
	leaq	-152(%rbp), %rsi
	callq	__ZN3std2fs8Metadata17h9e8c1a14740bebedE
	movq	-160(%rbp), %rax
	addq	$176, %rsp
	popq	%rbp
	retq
Ltmp310:
Lfunc_end37:
	.cfi_endproc

	.globl	__ZN4core3ptr101drop_in_place$LT$std..io..error..ErrorData$LT$alloc..boxed..Box$LT$std..io..error..Custom$GT$$GT$$GT$17h622ab38f52f74252E
	.p2align	4, 0x90
__ZN4core3ptr101drop_in_place$LT$std..io..error..ErrorData$LT$alloc..boxed..Box$LT$std..io..error..Custom$GT$$GT$$GT$17h622ab38f52f74252E:
Lfunc_begin38:
	.loc	4 490 0
	.cfi_startproc
	pushq	%rbp
	.cfi_def_cfa_offset 16
	.cfi_offset %rbp, -16
	movq	%rsp, %rbp
	.cfi_def_cfa_register %rbp
	subq	$16, %rsp
	movq	%rdi, -16(%rbp)
	movq	%rdi, -8(%rbp)
Ltmp311:
	.loc	4 490 1 prologue_end
	movb	(%rdi), %al
	subb	$3, %al
	jb	LBB38_2
	jmp	LBB38_1
LBB38_1:
	.loc	4 0 1 is_stmt 0
	movq	-16(%rbp), %rdi
	.loc	4 490 1
	addq	$8, %rdi
	callq	__ZN4core3ptr68drop_in_place$LT$alloc..boxed..Box$LT$std..io..error..Custom$GT$$GT$17h7e419bd40ee85279E
LBB38_2:
	addq	$16, %rsp
	popq	%rbp
	retq
Ltmp312:
Lfunc_end38:
	.cfi_endproc

	.globl	__ZN4core3ptr118drop_in_place$LT$alloc..boxed..Box$LT$dyn$u20$core..error..Error$u2b$core..marker..Send$u2b$core..marker..Sync$GT$$GT$17hee9ae138ef4f3cc6E
	.p2align	4, 0x90
__ZN4core3ptr118drop_in_place$LT$alloc..boxed..Box$LT$dyn$u20$core..error..Error$u2b$core..marker..Send$u2b$core..marker..Sync$GT$$GT$17hee9ae138ef4f3cc6E:
Lfunc_begin39:
	.loc	4 490 0 is_stmt 1
	.cfi_startproc
	.cfi_personality 155, _rust_eh_personality
	.cfi_lsda 16, Lexception6
	pushq	%rbp
	.cfi_def_cfa_offset 16
	.cfi_offset %rbp, -16
	movq	%rsp, %rbp
	.cfi_def_cfa_register %rbp
	subq	$32, %rsp
	movq	%rdi, %rax
	movq	%rax, -32(%rbp)
	movq	%rax, -24(%rbp)
Ltmp319:
	.loc	4 490 1 prologue_end
	movq	(%rax), %rdi
	movq	8(%rax), %rax
	movq	(%rax), %rax
Ltmp313:
	callq	*%rax
Ltmp314:
	jmp	LBB39_3
LBB39_1:
	.loc	4 0 1 is_stmt 0
	movq	-32(%rbp), %rax
	.loc	4 490 1
	movq	(%rax), %rdi
	movq	8(%rax), %rsi
Ltmp316:
	callq	__ZN5alloc5alloc8box_free17hd0d3114b9445a523E
Ltmp317:
	jmp	LBB39_5
LBB39_2:
Ltmp315:
	.loc	4 0 1
	movq	%rax, %rcx
	movl	%edx, %eax
	movq	%rcx, -16(%rbp)
	movl	%eax, -8(%rbp)
	jmp	LBB39_1
LBB39_3:
	movq	-32(%rbp), %rax
	.loc	4 490 1
	movq	(%rax), %rdi
	movq	8(%rax), %rsi
	callq	__ZN5alloc5alloc8box_free17hd0d3114b9445a523E
	addq	$32, %rsp
	popq	%rbp
	retq
LBB39_4:
Ltmp318:
	callq	__ZN4core9panicking19panic_cannot_unwind17h1fbca7e1d7f56ae1E
LBB39_5:
	movq	-16(%rbp), %rdi
	callq	__Unwind_Resume
Ltmp320:
Lfunc_end39:
	.cfi_endproc
	.section	__TEXT,__gcc_except_tab
	.p2align	2
GCC_except_table39:
Lexception6:
	.byte	255
	.byte	255
	.byte	1
	.uleb128 Lcst_end6-Lcst_begin6
Lcst_begin6:
	.uleb128 Ltmp313-Lfunc_begin39
	.uleb128 Ltmp314-Ltmp313
	.uleb128 Ltmp315-Lfunc_begin39
	.byte	0
	.uleb128 Ltmp316-Lfunc_begin39
	.uleb128 Ltmp317-Ltmp316
	.uleb128 Ltmp318-Lfunc_begin39
	.byte	0
	.uleb128 Ltmp317-Lfunc_begin39
	.uleb128 Lfunc_end39-Ltmp317
	.byte	0
	.byte	0
Lcst_end6:
	.p2align	2

	.section	__TEXT,__text,regular,pure_instructions
	.globl	__ZN4core3ptr152drop_in_place$LT$alloc..collections..btree..map..BTreeMap$LT$std..ffi..os_str..OsString$C$core..option..Option$LT$std..ffi..os_str..OsString$GT$$GT$$GT$17h8a95b1c2e50b564cE
	.p2align	4, 0x90
__ZN4core3ptr152drop_in_place$LT$alloc..collections..btree..map..BTreeMap$LT$std..ffi..os_str..OsString$C$core..option..Option$LT$std..ffi..os_str..OsString$GT$$GT$$GT$17h8a95b1c2e50b564cE:
Lfunc_begin40:
	.loc	4 490 0 is_stmt 1
	.cfi_startproc
	pushq	%rbp
	.cfi_def_cfa_offset 16
	.cfi_offset %rbp, -16
	movq	%rsp, %rbp
	.cfi_def_cfa_register %rbp
	subq	$16, %rsp
	movq	%rdi, -8(%rbp)
Ltmp321:
	.loc	4 490 1 prologue_end
	callq	__ZN99_$LT$alloc..collections..btree..map..BTreeMap$LT$K$C$V$C$A$GT$$u20$as$u20$core..ops..drop..Drop$GT$4drop17h6de969a362cd2220E
	addq	$16, %rsp
	popq	%rbp
	retq
Ltmp322:
Lfunc_end40:
	.cfi_endproc

	.globl	__ZN4core3ptr152drop_in_place$LT$alloc..collections..btree..map..IntoIter$LT$std..ffi..os_str..OsString$C$core..option..Option$LT$std..ffi..os_str..OsString$GT$$GT$$GT$17hdc741bbf850f91dbE
	.p2align	4, 0x90
__ZN4core3ptr152drop_in_place$LT$alloc..collections..btree..map..IntoIter$LT$std..ffi..os_str..OsString$C$core..option..Option$LT$std..ffi..os_str..OsString$GT$$GT$$GT$17hdc741bbf850f91dbE:
Lfunc_begin41:
	.loc	4 490 0
	.cfi_startproc
	pushq	%rbp
	.cfi_def_cfa_offset 16
	.cfi_offset %rbp, -16
	movq	%rsp, %rbp
	.cfi_def_cfa_register %rbp
	subq	$16, %rsp
	movq	%rdi, -8(%rbp)
Ltmp323:
	.loc	4 490 1 prologue_end
	callq	__ZN99_$LT$alloc..collections..btree..map..IntoIter$LT$K$C$V$C$A$GT$$u20$as$u20$core..ops..drop..Drop$GT$4drop17hb0bd4ec5e58b4bd0E
	addq	$16, %rsp
	popq	%rbp
	retq
Ltmp324:
Lfunc_end41:
	.cfi_endproc

	.globl	__ZN4core3ptr203drop_in_place$LT$dyn$u20$core..ops..function..FnMut$LT$$LP$$RP$$GT$$u2b$Output$u20$$u3d$$u20$core..result..Result$LT$$LP$$RP$$C$std..io..error..Error$GT$$u2b$core..marker..Send$u2b$core..marker..Sync$GT$17hcfcce2f0f9ddd80cE
	.p2align	4, 0x90
__ZN4core3ptr203drop_in_place$LT$dyn$u20$core..ops..function..FnMut$LT$$LP$$RP$$GT$$u2b$Output$u20$$u3d$$u20$core..result..Result$LT$$LP$$RP$$C$std..io..error..Error$GT$$u2b$core..marker..Send$u2b$core..marker..Sync$GT$17hcfcce2f0f9ddd80cE:
Lfunc_begin42:
	.loc	4 490 0
	.cfi_startproc
	pushq	%rbp
	.cfi_def_cfa_offset 16
	.cfi_offset %rbp, -16
	movq	%rsp, %rbp
	.cfi_def_cfa_register %rbp
	subq	$16, %rsp
	movq	%rdi, -16(%rbp)
	movq	%rsi, -8(%rbp)
Ltmp325:
	.loc	4 490 1 prologue_end
	callq	*(%rsi)
	addq	$16, %rsp
	popq	%rbp
	retq
Ltmp326:
Lfunc_end42:
	.cfi_endproc

	.globl	__ZN4core3ptr205drop_in_place$LT$$LT$alloc..boxed..Box$LT$dyn$u20$core..error..Error$u2b$core..marker..Send$u2b$core..marker..Sync$GT$$u20$as$u20$core..convert..From$LT$alloc..string..String$GT$$GT$..from..StringError$GT$17h0b2769b56161e80eE
	.p2align	4, 0x90
__ZN4core3ptr205drop_in_place$LT$$LT$alloc..boxed..Box$LT$dyn$u20$core..error..Error$u2b$core..marker..Send$u2b$core..marker..Sync$GT$$u20$as$u20$core..convert..From$LT$alloc..string..String$GT$$GT$..from..StringError$GT$17h0b2769b56161e80eE:
Lfunc_begin43:
	.loc	4 490 0
	.cfi_startproc
	pushq	%rbp
	.cfi_def_cfa_offset 16
	.cfi_offset %rbp, -16
	movq	%rsp, %rbp
	.cfi_def_cfa_register %rbp
	subq	$16, %rsp
	movq	%rdi, -8(%rbp)
Ltmp327:
	.loc	4 490 1 prologue_end
	callq	__ZN4core3ptr42drop_in_place$LT$alloc..string..String$GT$17h4e7d11210995f00cE
	addq	$16, %rsp
	popq	%rbp
	retq
Ltmp328:
Lfunc_end43:
	.cfi_endproc

	.globl	__ZN4core3ptr228drop_in_place$LT$alloc..boxed..Box$LT$dyn$u20$core..ops..function..FnMut$LT$$LP$$RP$$GT$$u2b$Output$u20$$u3d$$u20$core..result..Result$LT$$LP$$RP$$C$std..io..error..Error$GT$$u2b$core..marker..Send$u2b$core..marker..Sync$GT$$GT$17h693990b075ea3bfeE
	.p2align	4, 0x90
__ZN4core3ptr228drop_in_place$LT$alloc..boxed..Box$LT$dyn$u20$core..ops..function..FnMut$LT$$LP$$RP$$GT$$u2b$Output$u20$$u3d$$u20$core..result..Result$LT$$LP$$RP$$C$std..io..error..Error$GT$$u2b$core..marker..Send$u2b$core..marker..Sync$GT$$GT$17h693990b075ea3bfeE:
Lfunc_begin44:
	.loc	4 490 0
	.cfi_startproc
	.cfi_personality 155, _rust_eh_personality
	.cfi_lsda 16, Lexception7
	pushq	%rbp
	.cfi_def_cfa_offset 16
	.cfi_offset %rbp, -16
	movq	%rsp, %rbp
	.cfi_def_cfa_register %rbp
	subq	$32, %rsp
	movq	%rdi, %rax
	movq	%rax, -32(%rbp)
	movq	%rax, -24(%rbp)
Ltmp335:
	.loc	4 490 1 prologue_end
	movq	(%rax), %rdi
	movq	8(%rax), %rax
	movq	(%rax), %rax
Ltmp329:
	callq	*%rax
Ltmp330:
	jmp	LBB44_3
LBB44_1:
	.loc	4 0 1 is_stmt 0
	movq	-32(%rbp), %rax
	.loc	4 490 1
	movq	(%rax), %rdi
	movq	8(%rax), %rsi
Ltmp332:
	callq	__ZN5alloc5alloc8box_free17h438802cbbdac7199E
Ltmp333:
	jmp	LBB44_5
LBB44_2:
Ltmp331:
	.loc	4 0 1
	movq	%rax, %rcx
	movl	%edx, %eax
	movq	%rcx, -16(%rbp)
	movl	%eax, -8(%rbp)
	jmp	LBB44_1
LBB44_3:
	movq	-32(%rbp), %rax
	.loc	4 490 1
	movq	(%rax), %rdi
	movq	8(%rax), %rsi
	callq	__ZN5alloc5alloc8box_free17h438802cbbdac7199E
	addq	$32, %rsp
	popq	%rbp
	retq
LBB44_4:
Ltmp334:
	callq	__ZN4core9panicking19panic_cannot_unwind17h1fbca7e1d7f56ae1E
LBB44_5:
	movq	-16(%rbp), %rdi
	callq	__Unwind_Resume
Ltmp336:
Lfunc_end44:
	.cfi_endproc
	.section	__TEXT,__gcc_except_tab
	.p2align	2
GCC_except_table44:
Lexception7:
	.byte	255
	.byte	255
	.byte	1
	.uleb128 Lcst_end7-Lcst_begin7
Lcst_begin7:
	.uleb128 Ltmp329-Lfunc_begin44
	.uleb128 Ltmp330-Ltmp329
	.uleb128 Ltmp331-Lfunc_begin44
	.byte	0
	.uleb128 Ltmp332-Lfunc_begin44
	.uleb128 Ltmp333-Ltmp332
	.uleb128 Ltmp334-Lfunc_begin44
	.byte	0
	.uleb128 Ltmp333-Lfunc_begin44
	.uleb128 Lfunc_end44-Ltmp333
	.byte	0
	.byte	0
Lcst_end7:
	.p2align	2

	.section	__TEXT,__text,regular,pure_instructions
	.globl	__ZN4core3ptr238drop_in_place$LT$$u5b$alloc..boxed..Box$LT$dyn$u20$core..ops..function..FnMut$LT$$LP$$RP$$GT$$u2b$Output$u20$$u3d$$u20$core..result..Result$LT$$LP$$RP$$C$std..io..error..Error$GT$$u2b$core..marker..Send$u2b$core..marker..Sync$GT$$u5d$$GT$17h6f8a871ad96e9b85E
	.p2align	4, 0x90
__ZN4core3ptr238drop_in_place$LT$$u5b$alloc..boxed..Box$LT$dyn$u20$core..ops..function..FnMut$LT$$LP$$RP$$GT$$u2b$Output$u20$$u3d$$u20$core..result..Result$LT$$LP$$RP$$C$std..io..error..Error$GT$$u2b$core..marker..Send$u2b$core..marker..Sync$GT$$u5d$$GT$17h6f8a871ad96e9b85E:
Lfunc_begin45:
	.loc	4 490 0 is_stmt 1
	.cfi_startproc
	.cfi_personality 155, _rust_eh_personality
	.cfi_lsda 16, Lexception8
	pushq	%rbp
	.cfi_def_cfa_offset 16
	.cfi_offset %rbp, -16
	movq	%rsp, %rbp
	.cfi_def_cfa_register %rbp
	subq	$80, %rsp
	movq	%rdi, -64(%rbp)
	movq	%rsi, -56(%rbp)
	movq	%rdi, -32(%rbp)
	movq	%rsi, -24(%rbp)
Ltmp348:
	.loc	4 490 1 prologue_end
	xorl	%eax, %eax
	testb	$1, %al
	jne	LBB45_1
	jmp	LBB45_2
LBB45_1:
	movq	$0, -48(%rbp)
	jmp	LBB45_11
LBB45_2:
	.loc	4 0 1 is_stmt 0
	movq	-56(%rbp), %rax
	movq	-64(%rbp), %rcx
	.loc	4 490 1
	movq	%rcx, -40(%rbp)
	shlq	$4, %rax
	addq	-40(%rbp), %rax
	movq	%rax, -72(%rbp)
LBB45_3:
	.loc	4 0 1
	movq	-72(%rbp), %rax
	.loc	4 490 1
	cmpq	%rax, -40(%rbp)
	je	LBB45_5
	movq	-40(%rbp), %rdi
	movq	%rdi, %rax
	addq	$16, %rax
	movq	%rax, -40(%rbp)
Ltmp337:
	callq	__ZN4core3ptr228drop_in_place$LT$alloc..boxed..Box$LT$dyn$u20$core..ops..function..FnMut$LT$$LP$$RP$$GT$$u2b$Output$u20$$u3d$$u20$core..result..Result$LT$$LP$$RP$$C$std..io..error..Error$GT$$u2b$core..marker..Send$u2b$core..marker..Sync$GT$$GT$17h693990b075ea3bfeE
Ltmp338:
	jmp	LBB45_3
LBB45_5:
	addq	$80, %rsp
	popq	%rbp
	retq
LBB45_6:
	.loc	4 0 1
	movq	-72(%rbp), %rax
	.loc	4 490 1
	cmpq	%rax, -40(%rbp)
	je	LBB45_9
	jmp	LBB45_8
LBB45_7:
Ltmp339:
	.loc	4 0 1
	movq	%rax, %rcx
	movl	%edx, %eax
	movq	%rcx, -16(%rbp)
	movl	%eax, -8(%rbp)
	jmp	LBB45_6
LBB45_8:
	.loc	4 490 1
	movq	-40(%rbp), %rdi
	movq	%rdi, %rax
	addq	$16, %rax
	movq	%rax, -40(%rbp)
Ltmp340:
	callq	__ZN4core3ptr228drop_in_place$LT$alloc..boxed..Box$LT$dyn$u20$core..ops..function..FnMut$LT$$LP$$RP$$GT$$u2b$Output$u20$$u3d$$u20$core..result..Result$LT$$LP$$RP$$C$std..io..error..Error$GT$$u2b$core..marker..Send$u2b$core..marker..Sync$GT$$GT$17h693990b075ea3bfeE
Ltmp341:
	jmp	LBB45_6
LBB45_9:
	movq	-16(%rbp), %rdi
	callq	__Unwind_Resume
LBB45_10:
Ltmp347:
	callq	__ZN4core9panicking19panic_cannot_unwind17h1fbca7e1d7f56ae1E
LBB45_11:
	.loc	4 0 1
	movq	-56(%rbp), %rax
	.loc	4 490 1
	cmpq	%rax, -48(%rbp)
	je	LBB45_5
	.loc	4 0 1
	movq	-64(%rbp), %rdi
	.loc	4 490 1
	movq	-48(%rbp), %rax
	movq	%rax, %rcx
	shlq	$4, %rcx
	addq	%rcx, %rdi
	incq	%rax
	movq	%rax, -48(%rbp)
Ltmp342:
	callq	__ZN4core3ptr228drop_in_place$LT$alloc..boxed..Box$LT$dyn$u20$core..ops..function..FnMut$LT$$LP$$RP$$GT$$u2b$Output$u20$$u3d$$u20$core..result..Result$LT$$LP$$RP$$C$std..io..error..Error$GT$$u2b$core..marker..Send$u2b$core..marker..Sync$GT$$GT$17h693990b075ea3bfeE
Ltmp343:
	jmp	LBB45_11
LBB45_13:
	.loc	4 0 1
	movq	-56(%rbp), %rax
	.loc	4 490 1
	cmpq	%rax, -48(%rbp)
	je	LBB45_9
	jmp	LBB45_15
LBB45_14:
Ltmp344:
	.loc	4 0 1
	movq	%rax, %rcx
	movl	%edx, %eax
	movq	%rcx, -16(%rbp)
	movl	%eax, -8(%rbp)
	jmp	LBB45_13
LBB45_15:
	movq	-64(%rbp), %rdi
	.loc	4 490 1
	movq	-48(%rbp), %rax
	movq	%rax, %rcx
	shlq	$4, %rcx
	addq	%rcx, %rdi
	incq	%rax
	movq	%rax, -48(%rbp)
Ltmp345:
	callq	__ZN4core3ptr228drop_in_place$LT$alloc..boxed..Box$LT$dyn$u20$core..ops..function..FnMut$LT$$LP$$RP$$GT$$u2b$Output$u20$$u3d$$u20$core..result..Result$LT$$LP$$RP$$C$std..io..error..Error$GT$$u2b$core..marker..Send$u2b$core..marker..Sync$GT$$GT$17h693990b075ea3bfeE
Ltmp346:
	jmp	LBB45_13
Ltmp349:
Lfunc_end45:
	.cfi_endproc
	.section	__TEXT,__gcc_except_tab
	.p2align	2
GCC_except_table45:
Lexception8:
	.byte	255
	.byte	255
	.byte	1
	.uleb128 Lcst_end8-Lcst_begin8
Lcst_begin8:
	.uleb128 Ltmp337-Lfunc_begin45
	.uleb128 Ltmp338-Ltmp337
	.uleb128 Ltmp339-Lfunc_begin45
	.byte	0
	.uleb128 Ltmp340-Lfunc_begin45
	.uleb128 Ltmp341-Ltmp340
	.uleb128 Ltmp347-Lfunc_begin45
	.byte	0
	.uleb128 Ltmp341-Lfunc_begin45
	.uleb128 Ltmp342-Ltmp341
	.byte	0
	.byte	0
	.uleb128 Ltmp342-Lfunc_begin45
	.uleb128 Ltmp343-Ltmp342
	.uleb128 Ltmp344-Lfunc_begin45
	.byte	0
	.uleb128 Ltmp345-Lfunc_begin45
	.uleb128 Ltmp346-Ltmp345
	.uleb128 Ltmp347-Lfunc_begin45
	.byte	0
Lcst_end8:
	.p2align	2

	.section	__TEXT,__text,regular,pure_instructions
	.globl	__ZN4core3ptr250drop_in_place$LT$$LT$alloc..collections..btree..map..IntoIter$LT$K$C$V$C$A$GT$$u20$as$u20$core..ops..drop..Drop$GT$..drop..DropGuard$LT$std..ffi..os_str..OsString$C$core..option..Option$LT$std..ffi..os_str..OsString$GT$$C$alloc..alloc..Global$GT$$GT$17h6426c04fa1ed2f8dE
	.p2align	4, 0x90
__ZN4core3ptr250drop_in_place$LT$$LT$alloc..collections..btree..map..IntoIter$LT$K$C$V$C$A$GT$$u20$as$u20$core..ops..drop..Drop$GT$..drop..DropGuard$LT$std..ffi..os_str..OsString$C$core..option..Option$LT$std..ffi..os_str..OsString$GT$$C$alloc..alloc..Global$GT$$GT$17h6426c04fa1ed2f8dE:
Lfunc_begin46:
	.loc	4 490 0 is_stmt 1
	.cfi_startproc
	pushq	%rbp
	.cfi_def_cfa_offset 16
	.cfi_offset %rbp, -16
	movq	%rsp, %rbp
	.cfi_def_cfa_register %rbp
	subq	$16, %rsp
	movq	%rdi, -8(%rbp)
Ltmp350:
	.loc	4 490 1 prologue_end
	callq	__ZN174_$LT$$LT$alloc..collections..btree..map..IntoIter$LT$K$C$V$C$A$GT$$u20$as$u20$core..ops..drop..Drop$GT$..drop..DropGuard$LT$K$C$V$C$A$GT$$u20$as$u20$core..ops..drop..Drop$GT$4drop17h6bc24360a635e316E
	addq	$16, %rsp
	popq	%rbp
	retq
Ltmp351:
Lfunc_end46:
	.cfi_endproc

	.globl	__ZN4core3ptr251drop_in_place$LT$alloc..vec..Vec$LT$alloc..boxed..Box$LT$dyn$u20$core..ops..function..FnMut$LT$$LP$$RP$$GT$$u2b$Output$u20$$u3d$$u20$core..result..Result$LT$$LP$$RP$$C$std..io..error..Error$GT$$u2b$core..marker..Send$u2b$core..marker..Sync$GT$$GT$$GT$17h64f32309a2dbba4aE
	.p2align	4, 0x90
__ZN4core3ptr251drop_in_place$LT$alloc..vec..Vec$LT$alloc..boxed..Box$LT$dyn$u20$core..ops..function..FnMut$LT$$LP$$RP$$GT$$u2b$Output$u20$$u3d$$u20$core..result..Result$LT$$LP$$RP$$C$std..io..error..Error$GT$$u2b$core..marker..Send$u2b$core..marker..Sync$GT$$GT$$GT$17h64f32309a2dbba4aE:
Lfunc_begin47:
	.loc	4 490 0
	.cfi_startproc
	.cfi_personality 155, _rust_eh_personality
	.cfi_lsda 16, Lexception9
	pushq	%rbp
	.cfi_def_cfa_offset 16
	.cfi_offset %rbp, -16
	movq	%rsp, %rbp
	.cfi_def_cfa_register %rbp
	subq	$32, %rsp
	movq	%rdi, -32(%rbp)
	movq	%rdi, -24(%rbp)
Ltmp352:
Ltmp358:
	.loc	4 490 1 prologue_end
	callq	__ZN70_$LT$alloc..vec..Vec$LT$T$C$A$GT$$u20$as$u20$core..ops..drop..Drop$GT$4drop17h6dec9ad6891ec812E
Ltmp353:
	jmp	LBB47_3
LBB47_1:
Ltmp355:
	.loc	4 0 1 is_stmt 0
	movq	-32(%rbp), %rdi
	.loc	4 490 1
	callq	__ZN4core3ptr258drop_in_place$LT$alloc..raw_vec..RawVec$LT$alloc..boxed..Box$LT$dyn$u20$core..ops..function..FnMut$LT$$LP$$RP$$GT$$u2b$Output$u20$$u3d$$u20$core..result..Result$LT$$LP$$RP$$C$std..io..error..Error$GT$$u2b$core..marker..Send$u2b$core..marker..Sync$GT$$GT$$GT$17h8d2fdecbf60cf59aE
Ltmp356:
	jmp	LBB47_5
LBB47_2:
Ltmp354:
	.loc	4 0 1
	movq	%rax, %rcx
	movl	%edx, %eax
	movq	%rcx, -16(%rbp)
	movl	%eax, -8(%rbp)
	jmp	LBB47_1
LBB47_3:
	movq	-32(%rbp), %rdi
	.loc	4 490 1
	callq	__ZN4core3ptr258drop_in_place$LT$alloc..raw_vec..RawVec$LT$alloc..boxed..Box$LT$dyn$u20$core..ops..function..FnMut$LT$$LP$$RP$$GT$$u2b$Output$u20$$u3d$$u20$core..result..Result$LT$$LP$$RP$$C$std..io..error..Error$GT$$u2b$core..marker..Send$u2b$core..marker..Sync$GT$$GT$$GT$17h8d2fdecbf60cf59aE
	addq	$32, %rsp
	popq	%rbp
	retq
LBB47_4:
Ltmp357:
	callq	__ZN4core9panicking19panic_cannot_unwind17h1fbca7e1d7f56ae1E
LBB47_5:
	movq	-16(%rbp), %rdi
	callq	__Unwind_Resume
Ltmp359:
Lfunc_end47:
	.cfi_endproc
	.section	__TEXT,__gcc_except_tab
	.p2align	2
GCC_except_table47:
Lexception9:
	.byte	255
	.byte	255
	.byte	1
	.uleb128 Lcst_end9-Lcst_begin9
Lcst_begin9:
	.uleb128 Ltmp352-Lfunc_begin47
	.uleb128 Ltmp353-Ltmp352
	.uleb128 Ltmp354-Lfunc_begin47
	.byte	0
	.uleb128 Ltmp355-Lfunc_begin47
	.uleb128 Ltmp356-Ltmp355
	.uleb128 Ltmp357-Lfunc_begin47
	.byte	0
	.uleb128 Ltmp356-Lfunc_begin47
	.uleb128 Lfunc_end47-Ltmp356
	.byte	0
	.byte	0
Lcst_end9:
	.p2align	2

	.section	__TEXT,__text,regular,pure_instructions
	.globl	__ZN4core3ptr258drop_in_place$LT$alloc..raw_vec..RawVec$LT$alloc..boxed..Box$LT$dyn$u20$core..ops..function..FnMut$LT$$LP$$RP$$GT$$u2b$Output$u20$$u3d$$u20$core..result..Result$LT$$LP$$RP$$C$std..io..error..Error$GT$$u2b$core..marker..Send$u2b$core..marker..Sync$GT$$GT$$GT$17h8d2fdecbf60cf59aE
	.p2align	4, 0x90
__ZN4core3ptr258drop_in_place$LT$alloc..raw_vec..RawVec$LT$alloc..boxed..Box$LT$dyn$u20$core..ops..function..FnMut$LT$$LP$$RP$$GT$$u2b$Output$u20$$u3d$$u20$core..result..Result$LT$$LP$$RP$$C$std..io..error..Error$GT$$u2b$core..marker..Send$u2b$core..marker..Sync$GT$$GT$$GT$17h8d2fdecbf60cf59aE:
Lfunc_begin48:
	.loc	4 490 0 is_stmt 1
	.cfi_startproc
	pushq	%rbp
	.cfi_def_cfa_offset 16
	.cfi_offset %rbp, -16
	movq	%rsp, %rbp
	.cfi_def_cfa_register %rbp
	subq	$16, %rsp
	movq	%rdi, -8(%rbp)
Ltmp360:
	.loc	4 490 1 prologue_end
	callq	__ZN77_$LT$alloc..raw_vec..RawVec$LT$T$C$A$GT$$u20$as$u20$core..ops..drop..Drop$GT$4drop17h8d6aef4e5d629585E
	addq	$16, %rsp
	popq	%rbp
	retq
Ltmp361:
Lfunc_end48:
	.cfi_endproc

	.p2align	4, 0x90
__ZN4core3ptr29drop_in_place$LT$$RF$bool$GT$17hc1ed835911159ac6E:
Lfunc_begin49:
	.loc	4 490 0
	.cfi_startproc
	pushq	%rbp
	.cfi_def_cfa_offset 16
	.cfi_offset %rbp, -16
	movq	%rsp, %rbp
	.cfi_def_cfa_register %rbp
	pushq	%rax
	movq	%rdi, -8(%rbp)
Ltmp362:
	.loc	4 490 1 prologue_end
	addq	$8, %rsp
	popq	%rbp
	retq
Ltmp363:
Lfunc_end49:
	.cfi_endproc

	.globl	__ZN4core3ptr42drop_in_place$LT$std..io..error..Error$GT$17h861215b47865cabdE
	.p2align	4, 0x90
__ZN4core3ptr42drop_in_place$LT$std..io..error..Error$GT$17h861215b47865cabdE:
Lfunc_begin50:
	.loc	4 490 0
	.cfi_startproc
	pushq	%rbp
	.cfi_def_cfa_offset 16
	.cfi_offset %rbp, -16
	movq	%rsp, %rbp
	.cfi_def_cfa_register %rbp
	subq	$16, %rsp
	movq	%rdi, -8(%rbp)
Ltmp364:
	.loc	4 490 1 prologue_end
	callq	__ZN4core3ptr57drop_in_place$LT$std..io..error..repr_bitpacked..Repr$GT$17h8ed9f103842ec3caE
	addq	$16, %rsp
	popq	%rbp
	retq
Ltmp365:
Lfunc_end50:
	.cfi_endproc

	.globl	__ZN4core3ptr42drop_in_place$LT$std..process..Command$GT$17h355eef245273e52fE
	.p2align	4, 0x90
__ZN4core3ptr42drop_in_place$LT$std..process..Command$GT$17h355eef245273e52fE:
Lfunc_begin51:
	.loc	4 490 0
	.cfi_startproc
	pushq	%rbp
	.cfi_def_cfa_offset 16
	.cfi_offset %rbp, -16
	movq	%rsp, %rbp
	.cfi_def_cfa_register %rbp
	subq	$16, %rsp
	movq	%rdi, -8(%rbp)
Ltmp366:
	.loc	4 490 1 prologue_end
	callq	__ZN4core3ptr69drop_in_place$LT$std..sys..unix..process..process_common..Command$GT$17hc3df08bfa12da25aE
	addq	$16, %rsp
	popq	%rbp
	retq
Ltmp367:
Lfunc_end51:
	.cfi_endproc

	.globl	__ZN4core3ptr43drop_in_place$LT$std..io..error..Custom$GT$17h6140853d6eacdf53E
	.p2align	4, 0x90
__ZN4core3ptr43drop_in_place$LT$std..io..error..Custom$GT$17h6140853d6eacdf53E:
Lfunc_begin52:
	.loc	4 490 0
	.cfi_startproc
	pushq	%rbp
	.cfi_def_cfa_offset 16
	.cfi_offset %rbp, -16
	movq	%rsp, %rbp
	.cfi_def_cfa_register %rbp
	subq	$16, %rsp
	movq	%rdi, -8(%rbp)
Ltmp368:
	.loc	4 490 1 prologue_end
	callq	__ZN4core3ptr118drop_in_place$LT$alloc..boxed..Box$LT$dyn$u20$core..error..Error$u2b$core..marker..Send$u2b$core..marker..Sync$GT$$GT$17hee9ae138ef4f3cc6E
	addq	$16, %rsp
	popq	%rbp
	retq
Ltmp369:
Lfunc_end52:
	.cfi_endproc

	.p2align	4, 0x90
__ZN4core3ptr46drop_in_place$LT$$RF$alloc..string..String$GT$17h9194dfdd339a410eE:
Lfunc_begin53:
	.loc	4 490 0
	.cfi_startproc
	pushq	%rbp
	.cfi_def_cfa_offset 16
	.cfi_offset %rbp, -16
	movq	%rsp, %rbp
	.cfi_def_cfa_register %rbp
	pushq	%rax
	movq	%rdi, -8(%rbp)
Ltmp370:
	.loc	4 490 1 prologue_end
	addq	$8, %rsp
	popq	%rbp
	retq
Ltmp371:
Lfunc_end53:
	.cfi_endproc

	.globl	__ZN4core3ptr47drop_in_place$LT$alloc..ffi..c_str..CString$GT$17hfdb0b48feb5cb111E
	.p2align	4, 0x90
__ZN4core3ptr47drop_in_place$LT$alloc..ffi..c_str..CString$GT$17hfdb0b48feb5cb111E:
Lfunc_begin54:
	.loc	4 490 0
	.cfi_startproc
	.cfi_personality 155, _rust_eh_personality
	.cfi_lsda 16, Lexception10
	pushq	%rbp
	.cfi_def_cfa_offset 16
	.cfi_offset %rbp, -16
	movq	%rsp, %rbp
	.cfi_def_cfa_register %rbp
	subq	$32, %rsp
	movq	%rdi, -32(%rbp)
	movq	%rdi, -24(%rbp)
Ltmp372:
Ltmp378:
	.loc	4 490 1 prologue_end
	callq	__ZN68_$LT$alloc..ffi..c_str..CString$u20$as$u20$core..ops..drop..Drop$GT$4drop17h01630f352838c2a7E
Ltmp373:
	jmp	LBB54_3
LBB54_1:
Ltmp375:
	.loc	4 0 1 is_stmt 0
	movq	-32(%rbp), %rdi
	.loc	4 490 1
	callq	__ZN4core3ptr58drop_in_place$LT$alloc..boxed..Box$LT$$u5b$u8$u5d$$GT$$GT$17h6f4ea8a20024b4d5E
Ltmp376:
	jmp	LBB54_5
LBB54_2:
Ltmp374:
	.loc	4 0 1
	movq	%rax, %rcx
	movl	%edx, %eax
	movq	%rcx, -16(%rbp)
	movl	%eax, -8(%rbp)
	jmp	LBB54_1
LBB54_3:
	movq	-32(%rbp), %rdi
	.loc	4 490 1
	callq	__ZN4core3ptr58drop_in_place$LT$alloc..boxed..Box$LT$$u5b$u8$u5d$$GT$$GT$17h6f4ea8a20024b4d5E
	addq	$32, %rsp
	popq	%rbp
	retq
LBB54_4:
Ltmp377:
	callq	__ZN4core9panicking19panic_cannot_unwind17h1fbca7e1d7f56ae1E
LBB54_5:
	movq	-16(%rbp), %rdi
	callq	__Unwind_Resume
Ltmp379:
Lfunc_end54:
	.cfi_endproc
	.section	__TEXT,__gcc_except_tab
	.p2align	2
GCC_except_table54:
Lexception10:
	.byte	255
	.byte	255
	.byte	1
	.uleb128 Lcst_end10-Lcst_begin10
Lcst_begin10:
	.uleb128 Ltmp372-Lfunc_begin54
	.uleb128 Ltmp373-Ltmp372
	.uleb128 Ltmp374-Lfunc_begin54
	.byte	0
	.uleb128 Ltmp375-Lfunc_begin54
	.uleb128 Ltmp376-Ltmp375
	.uleb128 Ltmp377-Lfunc_begin54
	.byte	0
	.uleb128 Ltmp376-Lfunc_begin54
	.uleb128 Lfunc_end54-Ltmp376
	.byte	0
	.byte	0
Lcst_end10:
	.p2align	2

	.section	__TEXT,__text,regular,pure_instructions
	.globl	__ZN4core3ptr47drop_in_place$LT$webbrowser..BrowserOptions$GT$17h59195ff354586caeE
	.p2align	4, 0x90
__ZN4core3ptr47drop_in_place$LT$webbrowser..BrowserOptions$GT$17h59195ff354586caeE:
Lfunc_begin55:
	.loc	4 490 0 is_stmt 1
	.cfi_startproc
	pushq	%rbp
	.cfi_def_cfa_offset 16
	.cfi_offset %rbp, -16
	movq	%rsp, %rbp
	.cfi_def_cfa_register %rbp
	subq	$16, %rsp
	movq	%rdi, -8(%rbp)
Ltmp380:
	.loc	4 490 1 prologue_end
	callq	__ZN4core3ptr42drop_in_place$LT$alloc..string..String$GT$17h4e7d11210995f00cE
	addq	$16, %rsp
	popq	%rbp
	retq
Ltmp381:
Lfunc_end55:
	.cfi_endproc

	.globl	__ZN4core3ptr48drop_in_place$LT$std..os..fd..owned..OwnedFd$GT$17hd7872259bf8d1287E
	.p2align	4, 0x90
__ZN4core3ptr48drop_in_place$LT$std..os..fd..owned..OwnedFd$GT$17hd7872259bf8d1287E:
Lfunc_begin56:
	.loc	4 490 0
	.cfi_startproc
	pushq	%rbp
	.cfi_def_cfa_offset 16
	.cfi_offset %rbp, -16
	movq	%rsp, %rbp
	.cfi_def_cfa_register %rbp
	subq	$16, %rsp
	movq	%rdi, -8(%rbp)
Ltmp382:
	.loc	4 490 1 prologue_end
	callq	__ZN69_$LT$std..os..fd..owned..OwnedFd$u20$as$u20$core..ops..drop..Drop$GT$4drop17h5ee8167d3dd5e3fbE
	addq	$16, %rsp
	popq	%rbp
	retq
Ltmp383:
Lfunc_end56:
	.cfi_endproc

	.globl	__ZN4core3ptr49drop_in_place$LT$std..sys..unix..fd..FileDesc$GT$17h60755336a9660986E
	.p2align	4, 0x90
__ZN4core3ptr49drop_in_place$LT$std..sys..unix..fd..FileDesc$GT$17h60755336a9660986E:
Lfunc_begin57:
	.loc	4 490 0
	.cfi_startproc
	pushq	%rbp
	.cfi_def_cfa_offset 16
	.cfi_offset %rbp, -16
	movq	%rsp, %rbp
	.cfi_def_cfa_register %rbp
	subq	$16, %rsp
	movq	%rdi, -8(%rbp)
Ltmp384:
	.loc	4 490 1 prologue_end
	callq	__ZN4core3ptr48drop_in_place$LT$std..os..fd..owned..OwnedFd$GT$17hd7872259bf8d1287E
	addq	$16, %rsp
	popq	%rbp
	retq
Ltmp385:
Lfunc_end57:
	.cfi_endproc

	.globl	__ZN4core3ptr57drop_in_place$LT$$u5b$alloc..ffi..c_str..CString$u5d$$GT$17h8b65fa8b4262b8beE
	.p2align	4, 0x90
__ZN4core3ptr57drop_in_place$LT$$u5b$alloc..ffi..c_str..CString$u5d$$GT$17h8b65fa8b4262b8beE:
Lfunc_begin58:
	.loc	4 490 0
	.cfi_startproc
	.cfi_personality 155, _rust_eh_personality
	.cfi_lsda 16, Lexception11
	pushq	%rbp
	.cfi_def_cfa_offset 16
	.cfi_offset %rbp, -16
	movq	%rsp, %rbp
	.cfi_def_cfa_register %rbp
	subq	$80, %rsp
	movq	%rdi, -64(%rbp)
	movq	%rsi, -56(%rbp)
	movq	%rdi, -32(%rbp)
	movq	%rsi, -24(%rbp)
Ltmp397:
	.loc	4 490 1 prologue_end
	xorl	%eax, %eax
	testb	$1, %al
	jne	LBB58_1
	jmp	LBB58_2
LBB58_1:
	movq	$0, -48(%rbp)
	jmp	LBB58_11
LBB58_2:
	.loc	4 0 1 is_stmt 0
	movq	-56(%rbp), %rax
	movq	-64(%rbp), %rcx
	.loc	4 490 1
	movq	%rcx, -40(%rbp)
	shlq	$4, %rax
	addq	-40(%rbp), %rax
	movq	%rax, -72(%rbp)
LBB58_3:
	.loc	4 0 1
	movq	-72(%rbp), %rax
	.loc	4 490 1
	cmpq	%rax, -40(%rbp)
	je	LBB58_5
	movq	-40(%rbp), %rdi
	movq	%rdi, %rax
	addq	$16, %rax
	movq	%rax, -40(%rbp)
Ltmp386:
	callq	__ZN4core3ptr47drop_in_place$LT$alloc..ffi..c_str..CString$GT$17hfdb0b48feb5cb111E
Ltmp387:
	jmp	LBB58_3
LBB58_5:
	addq	$80, %rsp
	popq	%rbp
	retq
LBB58_6:
	.loc	4 0 1
	movq	-72(%rbp), %rax
	.loc	4 490 1
	cmpq	%rax, -40(%rbp)
	je	LBB58_9
	jmp	LBB58_8
LBB58_7:
Ltmp388:
	.loc	4 0 1
	movq	%rax, %rcx
	movl	%edx, %eax
	movq	%rcx, -16(%rbp)
	movl	%eax, -8(%rbp)
	jmp	LBB58_6
LBB58_8:
	.loc	4 490 1
	movq	-40(%rbp), %rdi
	movq	%rdi, %rax
	addq	$16, %rax
	movq	%rax, -40(%rbp)
Ltmp389:
	callq	__ZN4core3ptr47drop_in_place$LT$alloc..ffi..c_str..CString$GT$17hfdb0b48feb5cb111E
Ltmp390:
	jmp	LBB58_6
LBB58_9:
	movq	-16(%rbp), %rdi
	callq	__Unwind_Resume
LBB58_10:
Ltmp396:
	callq	__ZN4core9panicking19panic_cannot_unwind17h1fbca7e1d7f56ae1E
LBB58_11:
	.loc	4 0 1
	movq	-56(%rbp), %rax
	.loc	4 490 1
	cmpq	%rax, -48(%rbp)
	je	LBB58_5
	.loc	4 0 1
	movq	-64(%rbp), %rdi
	.loc	4 490 1
	movq	-48(%rbp), %rax
	movq	%rax, %rcx
	shlq	$4, %rcx
	addq	%rcx, %rdi
	incq	%rax
	movq	%rax, -48(%rbp)
Ltmp391:
	callq	__ZN4core3ptr47drop_in_place$LT$alloc..ffi..c_str..CString$GT$17hfdb0b48feb5cb111E
Ltmp392:
	jmp	LBB58_11
LBB58_13:
	.loc	4 0 1
	movq	-56(%rbp), %rax
	.loc	4 490 1
	cmpq	%rax, -48(%rbp)
	je	LBB58_9
	jmp	LBB58_15
LBB58_14:
Ltmp393:
	.loc	4 0 1
	movq	%rax, %rcx
	movl	%edx, %eax
	movq	%rcx, -16(%rbp)
	movl	%eax, -8(%rbp)
	jmp	LBB58_13
LBB58_15:
	movq	-64(%rbp), %rdi
	.loc	4 490 1
	movq	-48(%rbp), %rax
	movq	%rax, %rcx
	shlq	$4, %rcx
	addq	%rcx, %rdi
	incq	%rax
	movq	%rax, -48(%rbp)
Ltmp394:
	callq	__ZN4core3ptr47drop_in_place$LT$alloc..ffi..c_str..CString$GT$17hfdb0b48feb5cb111E
Ltmp395:
	jmp	LBB58_13
Ltmp398:
Lfunc_end58:
	.cfi_endproc
	.section	__TEXT,__gcc_except_tab
	.p2align	2
GCC_except_table58:
Lexception11:
	.byte	255
	.byte	255
	.byte	1
	.uleb128 Lcst_end11-Lcst_begin11
Lcst_begin11:
	.uleb128 Ltmp386-Lfunc_begin58
	.uleb128 Ltmp387-Ltmp386
	.uleb128 Ltmp388-Lfunc_begin58
	.byte	0
	.uleb128 Ltmp389-Lfunc_begin58
	.uleb128 Ltmp390-Ltmp389
	.uleb128 Ltmp396-Lfunc_begin58
	.byte	0
	.uleb128 Ltmp390-Lfunc_begin58
	.uleb128 Ltmp391-Ltmp390
	.byte	0
	.byte	0
	.uleb128 Ltmp391-Lfunc_begin58
	.uleb128 Ltmp392-Ltmp391
	.uleb128 Ltmp393-Lfunc_begin58
	.byte	0
	.uleb128 Ltmp394-Lfunc_begin58
	.uleb128 Ltmp395-Ltmp394
	.uleb128 Ltmp396-Lfunc_begin58
	.byte	0
Lcst_end11:
	.p2align	2

	.section	__TEXT,__text,regular,pure_instructions
	.globl	__ZN4core3ptr57drop_in_place$LT$std..io..error..repr_bitpacked..Repr$GT$17h8ed9f103842ec3caE
	.p2align	4, 0x90
__ZN4core3ptr57drop_in_place$LT$std..io..error..repr_bitpacked..Repr$GT$17h8ed9f103842ec3caE:
Lfunc_begin59:
	.loc	4 490 0 is_stmt 1
	.cfi_startproc
	pushq	%rbp
	.cfi_def_cfa_offset 16
	.cfi_offset %rbp, -16
	movq	%rsp, %rbp
	.cfi_def_cfa_register %rbp
	subq	$16, %rsp
	movq	%rdi, -8(%rbp)
Ltmp399:
	.loc	4 490 1 prologue_end
	callq	__ZN78_$LT$std..io..error..repr_bitpacked..Repr$u20$as$u20$core..ops..drop..Drop$GT$4drop17hf58e9b52678b8f28E
	addq	$16, %rsp
	popq	%rbp
	retq
Ltmp400:
Lfunc_end59:
	.cfi_endproc

	.globl	__ZN4core3ptr57drop_in_place$LT$std..sys_common..process..CommandEnv$GT$17h36d63f10f557afc4E
	.p2align	4, 0x90
__ZN4core3ptr57drop_in_place$LT$std..sys_common..process..CommandEnv$GT$17h36d63f10f557afc4E:
Lfunc_begin60:
	.loc	4 490 0
	.cfi_startproc
	pushq	%rbp
	.cfi_def_cfa_offset 16
	.cfi_offset %rbp, -16
	movq	%rsp, %rbp
	.cfi_def_cfa_register %rbp
	subq	$16, %rsp
	movq	%rdi, -8(%rbp)
Ltmp401:
	.loc	4 490 1 prologue_end
	callq	__ZN4core3ptr152drop_in_place$LT$alloc..collections..btree..map..BTreeMap$LT$std..ffi..os_str..OsString$C$core..option..Option$LT$std..ffi..os_str..OsString$GT$$GT$$GT$17h8a95b1c2e50b564cE
	addq	$16, %rsp
	popq	%rbp
	retq
Ltmp402:
Lfunc_end60:
	.cfi_endproc

	.globl	__ZN4core3ptr58drop_in_place$LT$alloc..boxed..Box$LT$$u5b$u8$u5d$$GT$$GT$17h6f4ea8a20024b4d5E
	.p2align	4, 0x90
__ZN4core3ptr58drop_in_place$LT$alloc..boxed..Box$LT$$u5b$u8$u5d$$GT$$GT$17h6f4ea8a20024b4d5E:
Lfunc_begin61:
	.loc	4 490 0
	.cfi_startproc
	pushq	%rbp
	.cfi_def_cfa_offset 16
	.cfi_offset %rbp, -16
	movq	%rsp, %rbp
	.cfi_def_cfa_register %rbp
	subq	$32, %rsp
	movq	%rdi, -32(%rbp)
	movq	%rdi, -24(%rbp)
	movq	-32(%rbp), %rax
Ltmp403:
	.loc	4 490 1 prologue_end
	movq	(%rax), %rdi
	movq	8(%rax), %rsi
	callq	__ZN5alloc5alloc8box_free17h4761b7c9236640ceE
	addq	$32, %rsp
	popq	%rbp
	retq
Ltmp404:
Lfunc_end61:
	.cfi_endproc

	.globl	__ZN4core3ptr59drop_in_place$LT$alloc..boxed..Box$LT$$u5b$u32$u5d$$GT$$GT$17hbcc7e19b7ceba5b4E
	.p2align	4, 0x90
__ZN4core3ptr59drop_in_place$LT$alloc..boxed..Box$LT$$u5b$u32$u5d$$GT$$GT$17hbcc7e19b7ceba5b4E:
Lfunc_begin62:
	.loc	4 490 0
	.cfi_startproc
	pushq	%rbp
	.cfi_def_cfa_offset 16
	.cfi_offset %rbp, -16
	movq	%rsp, %rbp
	.cfi_def_cfa_register %rbp
	subq	$32, %rsp
	movq	%rdi, -32(%rbp)
	movq	%rdi, -24(%rbp)
	movq	-32(%rbp), %rax
Ltmp405:
	.loc	4 490 1 prologue_end
	movq	(%rax), %rdi
	movq	8(%rax), %rsi
	callq	__ZN5alloc5alloc8box_free17h439939b994b592d7E
	addq	$32, %rsp
	popq	%rbp
	retq
Ltmp406:
Lfunc_end62:
	.cfi_endproc

	.globl	__ZN4core3ptr60drop_in_place$LT$alloc..vec..Vec$LT$$BP$const$u20$i8$GT$$GT$17hc7f2894962ff0414E
	.p2align	4, 0x90
__ZN4core3ptr60drop_in_place$LT$alloc..vec..Vec$LT$$BP$const$u20$i8$GT$$GT$17hc7f2894962ff0414E:
Lfunc_begin63:
	.loc	4 490 0
	.cfi_startproc
	.cfi_personality 155, _rust_eh_personality
	.cfi_lsda 16, Lexception12
	pushq	%rbp
	.cfi_def_cfa_offset 16
	.cfi_offset %rbp, -16
	movq	%rsp, %rbp
	.cfi_def_cfa_register %rbp
	subq	$32, %rsp
	movq	%rdi, -32(%rbp)
	movq	%rdi, -24(%rbp)
Ltmp407:
Ltmp413:
	.loc	4 490 1 prologue_end
	callq	__ZN70_$LT$alloc..vec..Vec$LT$T$C$A$GT$$u20$as$u20$core..ops..drop..Drop$GT$4drop17ha750bd037bf7dea0E
Ltmp408:
	jmp	LBB63_3
LBB63_1:
Ltmp410:
	.loc	4 0 1 is_stmt 0
	movq	-32(%rbp), %rdi
	.loc	4 490 1
	callq	__ZN4core3ptr67drop_in_place$LT$alloc..raw_vec..RawVec$LT$$BP$const$u20$i8$GT$$GT$17h9bc8b185ee750613E
Ltmp411:
	jmp	LBB63_5
LBB63_2:
Ltmp409:
	.loc	4 0 1
	movq	%rax, %rcx
	movl	%edx, %eax
	movq	%rcx, -16(%rbp)
	movl	%eax, -8(%rbp)
	jmp	LBB63_1
LBB63_3:
	movq	-32(%rbp), %rdi
	.loc	4 490 1
	callq	__ZN4core3ptr67drop_in_place$LT$alloc..raw_vec..RawVec$LT$$BP$const$u20$i8$GT$$GT$17h9bc8b185ee750613E
	addq	$32, %rsp
	popq	%rbp
	retq
LBB63_4:
Ltmp412:
	callq	__ZN4core9panicking19panic_cannot_unwind17h1fbca7e1d7f56ae1E
LBB63_5:
	movq	-16(%rbp), %rdi
	callq	__Unwind_Resume
Ltmp414:
Lfunc_end63:
	.cfi_endproc
	.section	__TEXT,__gcc_except_tab
	.p2align	2
GCC_except_table63:
Lexception12:
	.byte	255
	.byte	255
	.byte	1
	.uleb128 Lcst_end12-Lcst_begin12
Lcst_begin12:
	.uleb128 Ltmp407-Lfunc_begin63
	.uleb128 Ltmp408-Ltmp407
	.uleb128 Ltmp409-Lfunc_begin63
	.byte	0
	.uleb128 Ltmp410-Lfunc_begin63
	.uleb128 Ltmp411-Ltmp410
	.uleb128 Ltmp412-Lfunc_begin63
	.byte	0
	.uleb128 Ltmp411-Lfunc_begin63
	.uleb128 Lfunc_end63-Ltmp411
	.byte	0
	.byte	0
Lcst_end12:
	.p2align	2

	.section	__TEXT,__text,regular,pure_instructions
	.globl	__ZN4core3ptr66drop_in_place$LT$std..sys..unix..process..process_common..Argv$GT$17h3ba4467769916c67E
	.p2align	4, 0x90
__ZN4core3ptr66drop_in_place$LT$std..sys..unix..process..process_common..Argv$GT$17h3ba4467769916c67E:
Lfunc_begin64:
	.loc	4 490 0 is_stmt 1
	.cfi_startproc
	pushq	%rbp
	.cfi_def_cfa_offset 16
	.cfi_offset %rbp, -16
	movq	%rsp, %rbp
	.cfi_def_cfa_register %rbp
	subq	$16, %rsp
	movq	%rdi, -8(%rbp)
Ltmp415:
	.loc	4 490 1 prologue_end
	callq	__ZN4core3ptr60drop_in_place$LT$alloc..vec..Vec$LT$$BP$const$u20$i8$GT$$GT$17hc7f2894962ff0414E
	addq	$16, %rsp
	popq	%rbp
	retq
Ltmp416:
Lfunc_end64:
	.cfi_endproc

	.globl	__ZN4core3ptr67drop_in_place$LT$alloc..raw_vec..RawVec$LT$$BP$const$u20$i8$GT$$GT$17h9bc8b185ee750613E
	.p2align	4, 0x90
__ZN4core3ptr67drop_in_place$LT$alloc..raw_vec..RawVec$LT$$BP$const$u20$i8$GT$$GT$17h9bc8b185ee750613E:
Lfunc_begin65:
	.loc	4 490 0
	.cfi_startproc
	pushq	%rbp
	.cfi_def_cfa_offset 16
	.cfi_offset %rbp, -16
	movq	%rsp, %rbp
	.cfi_def_cfa_register %rbp
	subq	$16, %rsp
	movq	%rdi, -8(%rbp)
Ltmp417:
	.loc	4 490 1 prologue_end
	callq	__ZN77_$LT$alloc..raw_vec..RawVec$LT$T$C$A$GT$$u20$as$u20$core..ops..drop..Drop$GT$4drop17haf4497751bdf0adbE
	addq	$16, %rsp
	popq	%rbp
	retq
Ltmp418:
Lfunc_end65:
	.cfi_endproc

	.globl	__ZN4core3ptr67drop_in_place$LT$std..sys..unix..process..process_common..Stdio$GT$17hf60961da852d970fE
	.p2align	4, 0x90
__ZN4core3ptr67drop_in_place$LT$std..sys..unix..process..process_common..Stdio$GT$17hf60961da852d970fE:
Lfunc_begin66:
	.loc	4 490 0
	.cfi_startproc
	pushq	%rbp
	.cfi_def_cfa_offset 16
	.cfi_offset %rbp, -16
	movq	%rsp, %rbp
	.cfi_def_cfa_register %rbp
	subq	$16, %rsp
	movq	%rdi, -16(%rbp)
	movq	%rdi, -8(%rbp)
Ltmp419:
	.loc	4 490 1 prologue_end
	movl	(%rdi), %eax
	subl	$3, %eax
	jb	LBB66_2
	jmp	LBB66_1
LBB66_1:
	.loc	4 0 1 is_stmt 0
	movq	-16(%rbp), %rdi
	.loc	4 490 1
	addq	$4, %rdi
	callq	__ZN4core3ptr49drop_in_place$LT$std..sys..unix..fd..FileDesc$GT$17h60755336a9660986E
LBB66_2:
	addq	$16, %rsp
	popq	%rbp
	retq
Ltmp420:
Lfunc_end66:
	.cfi_endproc

	.globl	__ZN4core3ptr68drop_in_place$LT$alloc..boxed..Box$LT$std..io..error..Custom$GT$$GT$17h7e419bd40ee85279E
	.p2align	4, 0x90
__ZN4core3ptr68drop_in_place$LT$alloc..boxed..Box$LT$std..io..error..Custom$GT$$GT$17h7e419bd40ee85279E:
Lfunc_begin67:
	.loc	4 490 0 is_stmt 1
	.cfi_startproc
	.cfi_personality 155, _rust_eh_personality
	.cfi_lsda 16, Lexception13
	pushq	%rbp
	.cfi_def_cfa_offset 16
	.cfi_offset %rbp, -16
	movq	%rsp, %rbp
	.cfi_def_cfa_register %rbp
	subq	$32, %rsp
	movq	%rdi, -32(%rbp)
	movq	%rdi, -24(%rbp)
Ltmp427:
	.loc	4 490 1 prologue_end
	movq	(%rdi), %rdi
Ltmp421:
	callq	__ZN4core3ptr43drop_in_place$LT$std..io..error..Custom$GT$17h6140853d6eacdf53E
Ltmp422:
	jmp	LBB67_3
LBB67_1:
	.loc	4 0 1 is_stmt 0
	movq	-32(%rbp), %rax
	.loc	4 490 1
	movq	(%rax), %rdi
Ltmp424:
	callq	__ZN5alloc5alloc8box_free17h228d13d5ff77f681E
Ltmp425:
	jmp	LBB67_5
LBB67_2:
Ltmp423:
	.loc	4 0 1
	movq	%rax, %rcx
	movl	%edx, %eax
	movq	%rcx, -16(%rbp)
	movl	%eax, -8(%rbp)
	jmp	LBB67_1
LBB67_3:
	movq	-32(%rbp), %rax
	.loc	4 490 1
	movq	(%rax), %rdi
	callq	__ZN5alloc5alloc8box_free17h228d13d5ff77f681E
	addq	$32, %rsp
	popq	%rbp
	retq
LBB67_4:
Ltmp426:
	callq	__ZN4core9panicking19panic_cannot_unwind17h1fbca7e1d7f56ae1E
LBB67_5:
	movq	-16(%rbp), %rdi
	callq	__Unwind_Resume
Ltmp428:
Lfunc_end67:
	.cfi_endproc
	.section	__TEXT,__gcc_except_tab
	.p2align	2
GCC_except_table67:
Lexception13:
	.byte	255
	.byte	255
	.byte	1
	.uleb128 Lcst_end13-Lcst_begin13
Lcst_begin13:
	.uleb128 Ltmp421-Lfunc_begin67
	.uleb128 Ltmp422-Ltmp421
	.uleb128 Ltmp423-Lfunc_begin67
	.byte	0
	.uleb128 Ltmp424-Lfunc_begin67
	.uleb128 Ltmp425-Ltmp424
	.uleb128 Ltmp426-Lfunc_begin67
	.byte	0
	.uleb128 Ltmp425-Lfunc_begin67
	.uleb128 Lfunc_end67-Ltmp425
	.byte	0
	.byte	0
Lcst_end13:
	.p2align	2

	.section	__TEXT,__text,regular,pure_instructions
	.globl	__ZN4core3ptr69drop_in_place$LT$std..sys..unix..process..process_common..Command$GT$17hc3df08bfa12da25aE
	.p2align	4, 0x90
__ZN4core3ptr69drop_in_place$LT$std..sys..unix..process..process_common..Command$GT$17hc3df08bfa12da25aE:
Lfunc_begin68:
	.loc	4 490 0 is_stmt 1
	.cfi_startproc
	.cfi_personality 155, _rust_eh_personality
	.cfi_lsda 16, Lexception14
	pushq	%rbp
	.cfi_def_cfa_offset 16
	.cfi_offset %rbp, -16
	movq	%rsp, %rbp
	.cfi_def_cfa_register %rbp
	subq	$32, %rsp
	movq	%rdi, -32(%rbp)
	movq	%rdi, -24(%rbp)
Ltmp475:
	.loc	4 490 1 prologue_end
	addq	$64, %rdi
Ltmp429:
	callq	__ZN4core3ptr47drop_in_place$LT$alloc..ffi..c_str..CString$GT$17hfdb0b48feb5cb111E
Ltmp430:
	jmp	LBB68_3
LBB68_1:
	.loc	4 0 1 is_stmt 0
	movq	-32(%rbp), %rdi
	.loc	4 490 1
	addq	$80, %rdi
Ltmp432:
	callq	__ZN4core3ptr70drop_in_place$LT$alloc..vec..Vec$LT$alloc..ffi..c_str..CString$GT$$GT$17h13dbeabf9b87ebb4E
Ltmp433:
	jmp	LBB68_5
LBB68_2:
Ltmp431:
	.loc	4 0 1
	movq	%rax, %rcx
	movl	%edx, %eax
	movq	%rcx, -16(%rbp)
	movl	%eax, -8(%rbp)
	jmp	LBB68_1
LBB68_3:
	movq	-32(%rbp), %rdi
	.loc	4 490 1
	addq	$80, %rdi
Ltmp434:
	callq	__ZN4core3ptr70drop_in_place$LT$alloc..vec..Vec$LT$alloc..ffi..c_str..CString$GT$$GT$17h13dbeabf9b87ebb4E
Ltmp435:
	jmp	LBB68_7
LBB68_4:
Ltmp474:
	callq	__ZN4core9panicking19panic_cannot_unwind17h1fbca7e1d7f56ae1E
LBB68_5:
	.loc	4 0 1
	movq	-32(%rbp), %rdi
	.loc	4 490 1
	addq	$104, %rdi
Ltmp437:
	callq	__ZN4core3ptr66drop_in_place$LT$std..sys..unix..process..process_common..Argv$GT$17h3ba4467769916c67E
Ltmp438:
	jmp	LBB68_8
LBB68_6:
Ltmp436:
	.loc	4 0 1
	movq	%rax, %rcx
	movl	%edx, %eax
	movq	%rcx, -16(%rbp)
	movl	%eax, -8(%rbp)
	jmp	LBB68_5
LBB68_7:
	movq	-32(%rbp), %rdi
	.loc	4 490 1
	addq	$104, %rdi
Ltmp439:
	callq	__ZN4core3ptr66drop_in_place$LT$std..sys..unix..process..process_common..Argv$GT$17h3ba4467769916c67E
Ltmp440:
	jmp	LBB68_10
LBB68_8:
Ltmp442:
	.loc	4 0 1
	movq	-32(%rbp), %rdi
	.loc	4 490 1
	callq	__ZN4core3ptr57drop_in_place$LT$std..sys_common..process..CommandEnv$GT$17h36d63f10f557afc4E
Ltmp443:
	jmp	LBB68_11
LBB68_9:
Ltmp441:
	.loc	4 0 1
	movq	%rax, %rcx
	movl	%edx, %eax
	movq	%rcx, -16(%rbp)
	movl	%eax, -8(%rbp)
	jmp	LBB68_8
LBB68_10:
Ltmp444:
	movq	-32(%rbp), %rdi
	.loc	4 490 1
	callq	__ZN4core3ptr57drop_in_place$LT$std..sys_common..process..CommandEnv$GT$17h36d63f10f557afc4E
Ltmp445:
	jmp	LBB68_13
LBB68_11:
	.loc	4 0 1
	movq	-32(%rbp), %rdi
	.loc	4 490 1
	addq	$32, %rdi
Ltmp447:
	callq	__ZN4core3ptr75drop_in_place$LT$core..option..Option$LT$alloc..ffi..c_str..CString$GT$$GT$17hc8388a64b33c0c15E
Ltmp448:
	jmp	LBB68_14
LBB68_12:
Ltmp446:
	.loc	4 0 1
	movq	%rax, %rcx
	movl	%edx, %eax
	movq	%rcx, -16(%rbp)
	movl	%eax, -8(%rbp)
	jmp	LBB68_11
LBB68_13:
	movq	-32(%rbp), %rdi
	.loc	4 490 1
	addq	$32, %rdi
Ltmp449:
	callq	__ZN4core3ptr75drop_in_place$LT$core..option..Option$LT$alloc..ffi..c_str..CString$GT$$GT$17hc8388a64b33c0c15E
Ltmp450:
	jmp	LBB68_16
LBB68_14:
	.loc	4 0 1
	movq	-32(%rbp), %rdi
	.loc	4 490 1
	subq	$-128, %rdi
Ltmp452:
	callq	__ZN4core3ptr251drop_in_place$LT$alloc..vec..Vec$LT$alloc..boxed..Box$LT$dyn$u20$core..ops..function..FnMut$LT$$LP$$RP$$GT$$u2b$Output$u20$$u3d$$u20$core..result..Result$LT$$LP$$RP$$C$std..io..error..Error$GT$$u2b$core..marker..Send$u2b$core..marker..Sync$GT$$GT$$GT$17h64f32309a2dbba4aE
Ltmp453:
	jmp	LBB68_17
LBB68_15:
Ltmp451:
	.loc	4 0 1
	movq	%rax, %rcx
	movl	%edx, %eax
	movq	%rcx, -16(%rbp)
	movl	%eax, -8(%rbp)
	jmp	LBB68_14
LBB68_16:
	movq	-32(%rbp), %rdi
	.loc	4 490 1
	subq	$-128, %rdi
Ltmp454:
	callq	__ZN4core3ptr251drop_in_place$LT$alloc..vec..Vec$LT$alloc..boxed..Box$LT$dyn$u20$core..ops..function..FnMut$LT$$LP$$RP$$GT$$u2b$Output$u20$$u3d$$u20$core..result..Result$LT$$LP$$RP$$C$std..io..error..Error$GT$$u2b$core..marker..Send$u2b$core..marker..Sync$GT$$GT$$GT$17h64f32309a2dbba4aE
Ltmp455:
	jmp	LBB68_19
LBB68_17:
	.loc	4 0 1
	movq	-32(%rbp), %rdi
	.loc	4 490 1
	addq	$48, %rdi
Ltmp457:
	callq	__ZN4core3ptr87drop_in_place$LT$core..option..Option$LT$alloc..boxed..Box$LT$$u5b$u32$u5d$$GT$$GT$$GT$17h6d0a4725406be7ffE
Ltmp458:
	jmp	LBB68_20
LBB68_18:
Ltmp456:
	.loc	4 0 1
	movq	%rax, %rcx
	movl	%edx, %eax
	movq	%rcx, -16(%rbp)
	movl	%eax, -8(%rbp)
	jmp	LBB68_17
LBB68_19:
	movq	-32(%rbp), %rdi
	.loc	4 490 1
	addq	$48, %rdi
Ltmp459:
	callq	__ZN4core3ptr87drop_in_place$LT$core..option..Option$LT$alloc..boxed..Box$LT$$u5b$u32$u5d$$GT$$GT$$GT$17h6d0a4725406be7ffE
Ltmp460:
	jmp	LBB68_22
LBB68_20:
	.loc	4 0 1
	movq	-32(%rbp), %rdi
	.loc	4 490 1
	addq	$152, %rdi
Ltmp462:
	callq	__ZN4core3ptr95drop_in_place$LT$core..option..Option$LT$std..sys..unix..process..process_common..Stdio$GT$$GT$17ha3bf594b3ad5a5d4E
Ltmp463:
	jmp	LBB68_23
LBB68_21:
Ltmp461:
	.loc	4 0 1
	movq	%rax, %rcx
	movl	%edx, %eax
	movq	%rcx, -16(%rbp)
	movl	%eax, -8(%rbp)
	jmp	LBB68_20
LBB68_22:
	movq	-32(%rbp), %rdi
	.loc	4 490 1
	addq	$152, %rdi
Ltmp464:
	callq	__ZN4core3ptr95drop_in_place$LT$core..option..Option$LT$std..sys..unix..process..process_common..Stdio$GT$$GT$17ha3bf594b3ad5a5d4E
Ltmp465:
	jmp	LBB68_25
LBB68_23:
	.loc	4 0 1
	movq	-32(%rbp), %rdi
	.loc	4 490 1
	addq	$160, %rdi
Ltmp467:
	callq	__ZN4core3ptr95drop_in_place$LT$core..option..Option$LT$std..sys..unix..process..process_common..Stdio$GT$$GT$17ha3bf594b3ad5a5d4E
Ltmp468:
	jmp	LBB68_26
LBB68_24:
Ltmp466:
	.loc	4 0 1
	movq	%rax, %rcx
	movl	%edx, %eax
	movq	%rcx, -16(%rbp)
	movl	%eax, -8(%rbp)
	jmp	LBB68_23
LBB68_25:
	movq	-32(%rbp), %rdi
	.loc	4 490 1
	addq	$160, %rdi
Ltmp469:
	callq	__ZN4core3ptr95drop_in_place$LT$core..option..Option$LT$std..sys..unix..process..process_common..Stdio$GT$$GT$17ha3bf594b3ad5a5d4E
Ltmp470:
	jmp	LBB68_28
LBB68_26:
	.loc	4 0 1
	movq	-32(%rbp), %rdi
	.loc	4 490 1
	addq	$168, %rdi
Ltmp472:
	callq	__ZN4core3ptr95drop_in_place$LT$core..option..Option$LT$std..sys..unix..process..process_common..Stdio$GT$$GT$17ha3bf594b3ad5a5d4E
Ltmp473:
	jmp	LBB68_29
LBB68_27:
Ltmp471:
	.loc	4 0 1
	movq	%rax, %rcx
	movl	%edx, %eax
	movq	%rcx, -16(%rbp)
	movl	%eax, -8(%rbp)
	jmp	LBB68_26
LBB68_28:
	movq	-32(%rbp), %rdi
	.loc	4 490 1
	addq	$168, %rdi
	callq	__ZN4core3ptr95drop_in_place$LT$core..option..Option$LT$std..sys..unix..process..process_common..Stdio$GT$$GT$17ha3bf594b3ad5a5d4E
	addq	$32, %rsp
	popq	%rbp
	retq
LBB68_29:
	movq	-16(%rbp), %rdi
	callq	__Unwind_Resume
Ltmp476:
Lfunc_end68:
	.cfi_endproc
	.section	__TEXT,__gcc_except_tab
	.p2align	2
GCC_except_table68:
Lexception14:
	.byte	255
	.byte	255
	.byte	1
	.uleb128 Lcst_end14-Lcst_begin14
Lcst_begin14:
	.uleb128 Ltmp429-Lfunc_begin68
	.uleb128 Ltmp430-Ltmp429
	.uleb128 Ltmp431-Lfunc_begin68
	.byte	0
	.uleb128 Ltmp432-Lfunc_begin68
	.uleb128 Ltmp433-Ltmp432
	.uleb128 Ltmp474-Lfunc_begin68
	.byte	0
	.uleb128 Ltmp434-Lfunc_begin68
	.uleb128 Ltmp435-Ltmp434
	.uleb128 Ltmp436-Lfunc_begin68
	.byte	0
	.uleb128 Ltmp437-Lfunc_begin68
	.uleb128 Ltmp438-Ltmp437
	.uleb128 Ltmp474-Lfunc_begin68
	.byte	0
	.uleb128 Ltmp439-Lfunc_begin68
	.uleb128 Ltmp440-Ltmp439
	.uleb128 Ltmp441-Lfunc_begin68
	.byte	0
	.uleb128 Ltmp442-Lfunc_begin68
	.uleb128 Ltmp443-Ltmp442
	.uleb128 Ltmp474-Lfunc_begin68
	.byte	0
	.uleb128 Ltmp444-Lfunc_begin68
	.uleb128 Ltmp445-Ltmp444
	.uleb128 Ltmp446-Lfunc_begin68
	.byte	0
	.uleb128 Ltmp447-Lfunc_begin68
	.uleb128 Ltmp448-Ltmp447
	.uleb128 Ltmp474-Lfunc_begin68
	.byte	0
	.uleb128 Ltmp449-Lfunc_begin68
	.uleb128 Ltmp450-Ltmp449
	.uleb128 Ltmp451-Lfunc_begin68
	.byte	0
	.uleb128 Ltmp452-Lfunc_begin68
	.uleb128 Ltmp453-Ltmp452
	.uleb128 Ltmp474-Lfunc_begin68
	.byte	0
	.uleb128 Ltmp454-Lfunc_begin68
	.uleb128 Ltmp455-Ltmp454
	.uleb128 Ltmp456-Lfunc_begin68
	.byte	0
	.uleb128 Ltmp457-Lfunc_begin68
	.uleb128 Ltmp458-Ltmp457
	.uleb128 Ltmp474-Lfunc_begin68
	.byte	0
	.uleb128 Ltmp459-Lfunc_begin68
	.uleb128 Ltmp460-Ltmp459
	.uleb128 Ltmp461-Lfunc_begin68
	.byte	0
	.uleb128 Ltmp462-Lfunc_begin68
	.uleb128 Ltmp463-Ltmp462
	.uleb128 Ltmp474-Lfunc_begin68
	.byte	0
	.uleb128 Ltmp464-Lfunc_begin68
	.uleb128 Ltmp465-Ltmp464
	.uleb128 Ltmp466-Lfunc_begin68
	.byte	0
	.uleb128 Ltmp467-Lfunc_begin68
	.uleb128 Ltmp468-Ltmp467
	.uleb128 Ltmp474-Lfunc_begin68
	.byte	0
	.uleb128 Ltmp469-Lfunc_begin68
	.uleb128 Ltmp470-Ltmp469
	.uleb128 Ltmp471-Lfunc_begin68
	.byte	0
	.uleb128 Ltmp472-Lfunc_begin68
	.uleb128 Ltmp473-Ltmp472
	.uleb128 Ltmp474-Lfunc_begin68
	.byte	0
	.uleb128 Ltmp473-Lfunc_begin68
	.uleb128 Lfunc_end68-Ltmp473
	.byte	0
	.byte	0
Lcst_end14:
	.p2align	2

	.section	__TEXT,__text,regular,pure_instructions
	.globl	__ZN4core3ptr70drop_in_place$LT$alloc..vec..Vec$LT$alloc..ffi..c_str..CString$GT$$GT$17h13dbeabf9b87ebb4E
	.p2align	4, 0x90
__ZN4core3ptr70drop_in_place$LT$alloc..vec..Vec$LT$alloc..ffi..c_str..CString$GT$$GT$17h13dbeabf9b87ebb4E:
Lfunc_begin69:
	.loc	4 490 0 is_stmt 1
	.cfi_startproc
	.cfi_personality 155, _rust_eh_personality
	.cfi_lsda 16, Lexception15
	pushq	%rbp
	.cfi_def_cfa_offset 16
	.cfi_offset %rbp, -16
	movq	%rsp, %rbp
	.cfi_def_cfa_register %rbp
	subq	$32, %rsp
	movq	%rdi, -32(%rbp)
	movq	%rdi, -24(%rbp)
Ltmp477:
Ltmp483:
	.loc	4 490 1 prologue_end
	callq	__ZN70_$LT$alloc..vec..Vec$LT$T$C$A$GT$$u20$as$u20$core..ops..drop..Drop$GT$4drop17h80929e78dffbecb6E
Ltmp478:
	jmp	LBB69_3
LBB69_1:
Ltmp480:
	.loc	4 0 1 is_stmt 0
	movq	-32(%rbp), %rdi
	.loc	4 490 1
	callq	__ZN4core3ptr77drop_in_place$LT$alloc..raw_vec..RawVec$LT$alloc..ffi..c_str..CString$GT$$GT$17h31c657485dae4e6bE
Ltmp481:
	jmp	LBB69_5
LBB69_2:
Ltmp479:
	.loc	4 0 1
	movq	%rax, %rcx
	movl	%edx, %eax
	movq	%rcx, -16(%rbp)
	movl	%eax, -8(%rbp)
	jmp	LBB69_1
LBB69_3:
	movq	-32(%rbp), %rdi
	.loc	4 490 1
	callq	__ZN4core3ptr77drop_in_place$LT$alloc..raw_vec..RawVec$LT$alloc..ffi..c_str..CString$GT$$GT$17h31c657485dae4e6bE
	addq	$32, %rsp
	popq	%rbp
	retq
LBB69_4:
Ltmp482:
	callq	__ZN4core9panicking19panic_cannot_unwind17h1fbca7e1d7f56ae1E
LBB69_5:
	movq	-16(%rbp), %rdi
	callq	__Unwind_Resume
Ltmp484:
Lfunc_end69:
	.cfi_endproc
	.section	__TEXT,__gcc_except_tab
	.p2align	2
GCC_except_table69:
Lexception15:
	.byte	255
	.byte	255
	.byte	1
	.uleb128 Lcst_end15-Lcst_begin15
Lcst_begin15:
	.uleb128 Ltmp477-Lfunc_begin69
	.uleb128 Ltmp478-Ltmp477
	.uleb128 Ltmp479-Lfunc_begin69
	.byte	0
	.uleb128 Ltmp480-Lfunc_begin69
	.uleb128 Ltmp481-Ltmp480
	.uleb128 Ltmp482-Lfunc_begin69
	.byte	0
	.uleb128 Ltmp481-Lfunc_begin69
	.uleb128 Lfunc_end69-Ltmp481
	.byte	0
	.byte	0
Lcst_end15:
	.p2align	2

	.section	__TEXT,__text,regular,pure_instructions
	.globl	__ZN4core3ptr72drop_in_place$LT$alloc..collections..btree..mem..replace..PanicGuard$GT$17h8ed8b38ddb0793aaE
	.p2align	4, 0x90
__ZN4core3ptr72drop_in_place$LT$alloc..collections..btree..mem..replace..PanicGuard$GT$17h8ed8b38ddb0793aaE:
Lfunc_begin70:
	.loc	4 490 0 is_stmt 1
	.cfi_startproc
	pushq	%rbp
	.cfi_def_cfa_offset 16
	.cfi_offset %rbp, -16
	movq	%rsp, %rbp
	.cfi_def_cfa_register %rbp
	subq	$16, %rsp
	movq	%rdi, -8(%rbp)
Ltmp485:
	.loc	4 490 1 prologue_end
	callq	__ZN93_$LT$alloc..collections..btree..mem..replace..PanicGuard$u20$as$u20$core..ops..drop..Drop$GT$4drop17hd8f71405b84037e0E
	addq	$16, %rsp
	popq	%rbp
	retq
Ltmp486:
Lfunc_end70:
	.cfi_endproc

	.globl	__ZN4core3ptr75drop_in_place$LT$core..option..Option$LT$alloc..ffi..c_str..CString$GT$$GT$17hc8388a64b33c0c15E
	.p2align	4, 0x90
__ZN4core3ptr75drop_in_place$LT$core..option..Option$LT$alloc..ffi..c_str..CString$GT$$GT$17hc8388a64b33c0c15E:
Lfunc_begin71:
	.loc	4 490 0
	.cfi_startproc
	pushq	%rbp
	.cfi_def_cfa_offset 16
	.cfi_offset %rbp, -16
	movq	%rsp, %rbp
	.cfi_def_cfa_register %rbp
	subq	$16, %rsp
	movq	%rdi, -16(%rbp)
	movq	%rdi, -8(%rbp)
Ltmp487:
	.loc	4 490 1 prologue_end
	movq	(%rdi), %rdx
	movl	$1, %eax
	xorl	%ecx, %ecx
	cmpq	$0, %rdx
	cmoveq	%rcx, %rax
	cmpq	$0, %rax
	jne	LBB71_2
LBB71_1:
	addq	$16, %rsp
	popq	%rbp
	retq
LBB71_2:
	.loc	4 0 1 is_stmt 0
	movq	-16(%rbp), %rdi
	.loc	4 490 1
	callq	__ZN4core3ptr47drop_in_place$LT$alloc..ffi..c_str..CString$GT$17hfdb0b48feb5cb111E
	jmp	LBB71_1
Ltmp488:
Lfunc_end71:
	.cfi_endproc

	.globl	__ZN4core3ptr75drop_in_place$LT$core..option..Option$LT$std..ffi..os_str..OsString$GT$$GT$17hf539efada47db21fE
	.p2align	4, 0x90
__ZN4core3ptr75drop_in_place$LT$core..option..Option$LT$std..ffi..os_str..OsString$GT$$GT$17hf539efada47db21fE:
Lfunc_begin72:
	.loc	4 490 0 is_stmt 1
	.cfi_startproc
	pushq	%rbp
	.cfi_def_cfa_offset 16
	.cfi_offset %rbp, -16
	movq	%rsp, %rbp
	.cfi_def_cfa_register %rbp
	subq	$16, %rsp
	movq	%rdi, -16(%rbp)
	movq	%rdi, -8(%rbp)
Ltmp489:
	.loc	4 490 1 prologue_end
	movq	8(%rdi), %rdx
	movl	$1, %eax
	xorl	%ecx, %ecx
	cmpq	$0, %rdx
	cmoveq	%rcx, %rax
	cmpq	$0, %rax
	jne	LBB72_2
LBB72_1:
	addq	$16, %rsp
	popq	%rbp
	retq
LBB72_2:
	.loc	4 0 1 is_stmt 0
	movq	-16(%rbp), %rdi
	.loc	4 490 1
	callq	__ZN4core3ptr47drop_in_place$LT$std..ffi..os_str..OsString$GT$17hf0dab148c3d7f5dcE
	jmp	LBB72_1
Ltmp490:
Lfunc_end72:
	.cfi_endproc

	.globl	__ZN4core3ptr77drop_in_place$LT$alloc..raw_vec..RawVec$LT$alloc..ffi..c_str..CString$GT$$GT$17h31c657485dae4e6bE
	.p2align	4, 0x90
__ZN4core3ptr77drop_in_place$LT$alloc..raw_vec..RawVec$LT$alloc..ffi..c_str..CString$GT$$GT$17h31c657485dae4e6bE:
Lfunc_begin73:
	.loc	4 490 0 is_stmt 1
	.cfi_startproc
	pushq	%rbp
	.cfi_def_cfa_offset 16
	.cfi_offset %rbp, -16
	movq	%rsp, %rbp
	.cfi_def_cfa_register %rbp
	subq	$16, %rsp
	movq	%rdi, -8(%rbp)
Ltmp491:
	.loc	4 490 1 prologue_end
	callq	__ZN77_$LT$alloc..raw_vec..RawVec$LT$T$C$A$GT$$u20$as$u20$core..ops..drop..Drop$GT$4drop17h4fe27d0b728493ceE
	addq	$16, %rsp
	popq	%rbp
	retq
Ltmp492:
Lfunc_end73:
	.cfi_endproc

	.globl	__ZN4core3ptr81drop_in_place$LT$core..result..Result$LT$$LP$$RP$$C$std..io..error..Error$GT$$GT$17hfd0d2a58f6ca41dbE
	.p2align	4, 0x90
__ZN4core3ptr81drop_in_place$LT$core..result..Result$LT$$LP$$RP$$C$std..io..error..Error$GT$$GT$17hfd0d2a58f6ca41dbE:
Lfunc_begin74:
	.loc	4 490 0
	.cfi_startproc
	pushq	%rbp
	.cfi_def_cfa_offset 16
	.cfi_offset %rbp, -16
	movq	%rsp, %rbp
	.cfi_def_cfa_register %rbp
	subq	$16, %rsp
	movq	%rdi, -16(%rbp)
	movq	%rdi, -8(%rbp)
Ltmp493:
	.loc	4 490 1 prologue_end
	movq	(%rdi), %rdx
	movl	$1, %eax
	xorl	%ecx, %ecx
	cmpq	$0, %rdx
	cmoveq	%rcx, %rax
	cmpq	$0, %rax
	jne	LBB74_2
LBB74_1:
	addq	$16, %rsp
	popq	%rbp
	retq
LBB74_2:
	.loc	4 0 1 is_stmt 0
	movq	-16(%rbp), %rdi
	.loc	4 490 1
	callq	__ZN4core3ptr42drop_in_place$LT$std..io..error..Error$GT$17h861215b47865cabdE
	jmp	LBB74_1
Ltmp494:
Lfunc_end74:
	.cfi_endproc

	.globl	__ZN4core3ptr87drop_in_place$LT$core..option..Option$LT$alloc..boxed..Box$LT$$u5b$u32$u5d$$GT$$GT$$GT$17h6d0a4725406be7ffE
	.p2align	4, 0x90
__ZN4core3ptr87drop_in_place$LT$core..option..Option$LT$alloc..boxed..Box$LT$$u5b$u32$u5d$$GT$$GT$$GT$17h6d0a4725406be7ffE:
Lfunc_begin75:
	.loc	4 490 0 is_stmt 1
	.cfi_startproc
	pushq	%rbp
	.cfi_def_cfa_offset 16
	.cfi_offset %rbp, -16
	movq	%rsp, %rbp
	.cfi_def_cfa_register %rbp
	subq	$16, %rsp
	movq	%rdi, -16(%rbp)
	movq	%rdi, -8(%rbp)
Ltmp495:
	.loc	4 490 1 prologue_end
	movq	(%rdi), %rdx
	movl	$1, %eax
	xorl	%ecx, %ecx
	cmpq	$0, %rdx
	cmoveq	%rcx, %rax
	cmpq	$0, %rax
	jne	LBB75_2
LBB75_1:
	addq	$16, %rsp
	popq	%rbp
	retq
LBB75_2:
	.loc	4 0 1 is_stmt 0
	movq	-16(%rbp), %rdi
	.loc	4 490 1
	callq	__ZN4core3ptr59drop_in_place$LT$alloc..boxed..Box$LT$$u5b$u32$u5d$$GT$$GT$17hbcc7e19b7ceba5b4E
	jmp	LBB75_1
Ltmp496:
Lfunc_end75:
	.cfi_endproc

	.globl	__ZN4core3ptr93drop_in_place$LT$dyn$u20$core..error..Error$u2b$core..marker..Send$u2b$core..marker..Sync$GT$17hedbcd60de95e9e6aE
	.p2align	4, 0x90
__ZN4core3ptr93drop_in_place$LT$dyn$u20$core..error..Error$u2b$core..marker..Send$u2b$core..marker..Sync$GT$17hedbcd60de95e9e6aE:
Lfunc_begin76:
	.loc	4 490 0 is_stmt 1
	.cfi_startproc
	pushq	%rbp
	.cfi_def_cfa_offset 16
	.cfi_offset %rbp, -16
	movq	%rsp, %rbp
	.cfi_def_cfa_register %rbp
	subq	$16, %rsp
	movq	%rdi, -16(%rbp)
	movq	%rsi, -8(%rbp)
Ltmp497:
	.loc	4 490 1 prologue_end
	callq	*(%rsi)
	addq	$16, %rsp
	popq	%rbp
	retq
Ltmp498:
Lfunc_end76:
	.cfi_endproc

	.globl	__ZN4core3ptr95drop_in_place$LT$core..option..Option$LT$std..sys..unix..process..process_common..Stdio$GT$$GT$17ha3bf594b3ad5a5d4E
	.p2align	4, 0x90
__ZN4core3ptr95drop_in_place$LT$core..option..Option$LT$std..sys..unix..process..process_common..Stdio$GT$$GT$17ha3bf594b3ad5a5d4E:
Lfunc_begin77:
	.loc	4 490 0
	.cfi_startproc
	pushq	%rbp
	.cfi_def_cfa_offset 16
	.cfi_offset %rbp, -16
	movq	%rsp, %rbp
	.cfi_def_cfa_register %rbp
	subq	$16, %rsp
	movq	%rdi, -16(%rbp)
	movq	%rdi, -8(%rbp)
Ltmp499:
	.loc	4 490 1 prologue_end
	movl	$1, %eax
	xorl	%ecx, %ecx
	cmpl	$4, (%rdi)
	cmoveq	%rcx, %rax
	cmpq	$0, %rax
	jne	LBB77_2
LBB77_1:
	addq	$16, %rsp
	popq	%rbp
	retq
LBB77_2:
	.loc	4 0 1 is_stmt 0
	movq	-16(%rbp), %rdi
	.loc	4 490 1
	callq	__ZN4core3ptr67drop_in_place$LT$std..sys..unix..process..process_common..Stdio$GT$17hf60961da852d970fE
	jmp	LBB77_1
Ltmp500:
Lfunc_end77:
	.cfi_endproc

	.p2align	4, 0x90
__ZN4core3str6traits54_$LT$impl$u20$core..cmp..PartialEq$u20$for$u20$str$GT$2eq17hb55fcabbb7830b36E:
Lfunc_begin78:
	.file	26 "/rustc/2c8cc343237b8f7d5a3c3703e3a87f2eb2c54a74/library/core/src/str" "traits.rs"
	.loc	26 28 0 is_stmt 1
	.cfi_startproc
	pushq	%rbp
	.cfi_def_cfa_offset 16
	.cfi_offset %rbp, -16
	movq	%rsp, %rbp
	.cfi_def_cfa_register %rbp
	subq	$112, %rsp
	movq	%rdi, -80(%rbp)
	movq	%rsi, -72(%rbp)
	movq	%rdx, -64(%rbp)
	movq	%rcx, -56(%rbp)
Ltmp501:
	.loc	26 29 9 prologue_end
	movq	%rdi, -48(%rbp)
	movq	%rsi, -40(%rbp)
Ltmp502:
	.loc	8 327 18
	movq	%rdi, -112(%rbp)
	movq	%rsi, -104(%rbp)
Ltmp503:
	.loc	26 29 9
	leaq	-112(%rbp), %rax
	movq	%rax, -32(%rbp)
	.loc	26 29 28 is_stmt 0
	movq	%rdx, -24(%rbp)
	movq	%rcx, -16(%rbp)
Ltmp504:
	.loc	8 327 18 is_stmt 1
	movq	%rdx, -96(%rbp)
	movq	%rcx, -88(%rbp)
Ltmp505:
	.loc	26 29 28
	leaq	-96(%rbp), %rax
	movq	%rax, -8(%rbp)
Ltmp506:
	.file	27 "/rustc/2c8cc343237b8f7d5a3c3703e3a87f2eb2c54a74/library/core/src" "cmp.rs"
	.loc	27 1531 27
	movq	-112(%rbp), %rdi
	movq	-104(%rbp), %rsi
	.loc	27 1531 34 is_stmt 0
	movq	-96(%rbp), %rdx
	movq	-88(%rbp), %rcx
	.loc	27 1531 13
	callq	__ZN4core5slice3cmp81_$LT$impl$u20$core..cmp..PartialEq$LT$$u5b$B$u5d$$GT$$u20$for$u20$$u5b$A$u5d$$GT$2eq17hbfd2391bcbf3a7ceE
Ltmp507:
	.loc	26 30 6 is_stmt 1
	andb	$1, %al
	movzbl	%al, %eax
	addq	$112, %rsp
	popq	%rbp
	retq
Ltmp508:
Lfunc_end78:
	.cfi_endproc

	.p2align	4, 0x90
__ZN4core4hint21unreachable_unchecked17h1a2d8aacc766a386E:
Lfunc_begin79:
	.file	28 "/rustc/2c8cc343237b8f7d5a3c3703e3a87f2eb2c54a74/library/core/src" "hint.rs"
	.loc	28 100 0
	.cfi_startproc
	pushq	%rbp
	.cfi_def_cfa_offset 16
	.cfi_offset %rbp, -16
	movq	%rsp, %rbp
	.cfi_def_cfa_register %rbp
Ltmp509:
	.loc	28 104 9 prologue_end
	ud2
Ltmp510:
Lfunc_end79:
	.cfi_endproc

	.globl	__ZN4core5alloc6layout10size_align17h7cdff35e61f25579E
	.p2align	4, 0x90
__ZN4core5alloc6layout10size_align17h7cdff35e61f25579E:
Lfunc_begin80:
	.file	29 "/rustc/2c8cc343237b8f7d5a3c3703e3a87f2eb2c54a74/library/core/src/alloc" "layout.rs"
	.loc	29 19 0
	.cfi_startproc
	pushq	%rbp
	.cfi_def_cfa_offset 16
	.cfi_offset %rbp, -16
	movq	%rsp, %rbp
	.cfi_def_cfa_register %rbp
	subq	$16, %rsp
Ltmp511:
	.loc	29 20 5 prologue_end
	movq	$640, -16(%rbp)
	movq	$8, -8(%rbp)
	.loc	29 21 2
	movq	-16(%rbp), %rax
	movq	-8(%rbp), %rdx
	addq	$16, %rsp
	popq	%rbp
	retq
Ltmp512:
Lfunc_end80:
	.cfi_endproc

	.globl	__ZN4core5alloc6layout10size_align17h8cbabed1676a5619E
	.p2align	4, 0x90
__ZN4core5alloc6layout10size_align17h8cbabed1676a5619E:
Lfunc_begin81:
	.loc	29 19 0
	.cfi_startproc
	pushq	%rbp
	.cfi_def_cfa_offset 16
	.cfi_offset %rbp, -16
	movq	%rsp, %rbp
	.cfi_def_cfa_register %rbp
	subq	$16, %rsp
Ltmp513:
	.loc	29 20 5 prologue_end
	movq	$544, -16(%rbp)
	movq	$8, -8(%rbp)
	.loc	29 21 2
	movq	-16(%rbp), %rax
	movq	-8(%rbp), %rdx
	addq	$16, %rsp
	popq	%rbp
	retq
Ltmp514:
Lfunc_end81:
	.cfi_endproc

	.p2align	4, 0x90
__ZN4core5alloc6layout6Layout5array5inner17h6d155fadc4d592c8E:
Lfunc_begin82:
	.loc	29 441 0
	.cfi_startproc
	pushq	%rbp
	.cfi_def_cfa_offset 16
	.cfi_offset %rbp, -16
	movq	%rsp, %rbp
	.cfi_def_cfa_register %rbp
	subq	$176, %rsp
	movq	%rdi, -168(%rbp)
	movq	%rsi, -160(%rbp)
	movq	%rdx, -152(%rbp)
	movq	%rdi, -88(%rbp)
	movq	%rsi, -80(%rbp)
	movq	%rdx, -72(%rbp)
Ltmp515:
	.loc	29 452 16 prologue_end
	cmpq	$0, %rdi
	jne	LBB82_2
	movb	$0, -121(%rbp)
	jmp	LBB82_5
LBB82_2:
	.loc	29 0 16 is_stmt 0
	movq	-168(%rbp), %rax
	movq	-160(%rbp), %rcx
	.loc	29 452 68
	movq	%rcx, -64(%rbp)
Ltmp516:
	.loc	29 93 32 is_stmt 1
	movq	%rcx, -56(%rbp)
Ltmp517:
	.file	30 "/rustc/2c8cc343237b8f7d5a3c3703e3a87f2eb2c54a74/library/core/src/ptr" "alignment.rs"
	.loc	30 97 9
	movq	%rcx, -104(%rbp)
	movq	-104(%rbp), %rdx
Ltmp518:
	.loc	29 93 31
	subq	$1, %rdx
	.loc	29 93 9 is_stmt 0
	movabsq	$9223372036854775807, %rcx
	subq	%rdx, %rcx
	movq	%rcx, -176(%rbp)
Ltmp519:
	.loc	29 452 41 is_stmt 1
	cmpq	$0, %rax
	sete	%al
	testb	$1, %al
	jne	LBB82_4
	.loc	29 0 41 is_stmt 0
	movq	-168(%rbp), %rcx
	movq	-176(%rbp), %rax
	.loc	29 452 41
	xorl	%edx, %edx
	divq	%rcx
	movq	%rax, %rcx
	movq	-152(%rbp), %rax
	.loc	29 452 37
	cmpq	%rcx, %rax
	seta	%al
	.loc	29 452 16
	andb	$1, %al
	movb	%al, -121(%rbp)
	jmp	LBB82_5
LBB82_4:
	.loc	29 452 41
	leaq	_str.0(%rip), %rdi
	leaq	l___unnamed_9(%rip), %rdx
	movl	$25, %esi
	callq	__ZN4core9panicking5panic17hc1bc45270cf64b03E
LBB82_5:
	.loc	29 452 16
	testb	$1, -121(%rbp)
	jne	LBB82_7
	.loc	29 0 16
	movq	-160(%rbp), %rax
	movq	-152(%rbp), %rdx
	movq	-168(%rbp), %rcx
	.loc	29 456 30 is_stmt 1
	imulq	%rdx, %rcx
	movq	%rcx, -48(%rbp)
Ltmp520:
	.loc	29 461 59
	movq	%rcx, -40(%rbp)
	.loc	29 461 71 is_stmt 0
	movq	%rax, -32(%rbp)
Ltmp521:
	.loc	30 97 9 is_stmt 1
	movq	%rax, -96(%rbp)
	movq	-96(%rbp), %rax
	movq	%rax, -24(%rbp)
Ltmp522:
	.loc	29 120 65
	movq	%rax, -16(%rbp)
Ltmp523:
	.loc	30 89 18
	movq	%rax, -8(%rbp)
	movq	-8(%rbp), %rax
Ltmp524:
	.loc	29 120 18
	movq	%rcx, -120(%rbp)
	movq	%rax, -112(%rbp)
Ltmp525:
	.loc	29 461 22
	movq	-120(%rbp), %rcx
	movq	-112(%rbp), %rax
	movq	%rcx, -144(%rbp)
	movq	%rax, -136(%rbp)
Ltmp526:
	.loc	29 462 10
	jmp	LBB82_8
LBB82_7:
	.loc	29 453 24
	movq	$0, -136(%rbp)
LBB82_8:
	.loc	29 462 10
	movq	-144(%rbp), %rax
	movq	-136(%rbp), %rdx
	addq	$176, %rsp
	popq	%rbp
	retq
Ltmp527:
Lfunc_end82:
	.cfi_endproc

	.globl	__ZN4core5error5Error5cause17hb8da911390feb8bdE
	.p2align	4, 0x90
__ZN4core5error5Error5cause17hb8da911390feb8bdE:
Lfunc_begin83:
	.file	31 "/rustc/2c8cc343237b8f7d5a3c3703e3a87f2eb2c54a74/library/core/src" "error.rs"
	.loc	31 119 0
	.cfi_startproc
	pushq	%rbp
	.cfi_def_cfa_offset 16
	.cfi_offset %rbp, -16
	movq	%rsp, %rbp
	.cfi_def_cfa_register %rbp
	subq	$16, %rsp
	movq	%rdi, -8(%rbp)
Ltmp528:
	.loc	31 120 9 prologue_end
	callq	__ZN4core5error5Error6source17h9a3135b2180a715cE
	.loc	31 121 6
	addq	$16, %rsp
	popq	%rbp
	retq
Ltmp529:
Lfunc_end83:
	.cfi_endproc

	.globl	__ZN4core5error5Error6source17h9a3135b2180a715cE
	.p2align	4, 0x90
__ZN4core5error5Error6source17h9a3135b2180a715cE:
Lfunc_begin84:
	.loc	31 83 0
	.cfi_startproc
	pushq	%rbp
	.cfi_def_cfa_offset 16
	.cfi_offset %rbp, -16
	movq	%rsp, %rbp
	.cfi_def_cfa_register %rbp
	subq	$24, %rsp
	movq	%rdi, -8(%rbp)
Ltmp530:
	.loc	31 84 9 prologue_end
	movq	$0, -24(%rbp)
	.loc	31 85 6
	movq	-24(%rbp), %rax
	movq	-16(%rbp), %rdx
	addq	$24, %rsp
	popq	%rbp
	retq
Ltmp531:
Lfunc_end84:
	.cfi_endproc

	.globl	__ZN4core5error5Error7provide17h014157252a366ecaE
	.p2align	4, 0x90
__ZN4core5error5Error7provide17h014157252a366ecaE:
Lfunc_begin85:
	.loc	31 193 0
	.cfi_startproc
	pushq	%rbp
	.cfi_def_cfa_offset 16
	.cfi_offset %rbp, -16
	movq	%rsp, %rbp
	.cfi_def_cfa_register %rbp
	subq	$24, %rsp
	movq	%rdi, -24(%rbp)
	movq	%rsi, -16(%rbp)
	movq	%rdx, -8(%rbp)
Ltmp532:
	.loc	31 193 57 prologue_end
	addq	$24, %rsp
	popq	%rbp
	retq
Ltmp533:
Lfunc_end85:
	.cfi_endproc

	.globl	__ZN4core5error5Error7type_id17h02442673efb007e5E
	.p2align	4, 0x90
__ZN4core5error5Error7type_id17h02442673efb007e5E:
Lfunc_begin86:
	.loc	31 94 0
	.cfi_startproc
	pushq	%rbp
	.cfi_def_cfa_offset 16
	.cfi_offset %rbp, -16
	movq	%rsp, %rbp
	.cfi_def_cfa_register %rbp
	subq	$16, %rsp
	movq	%rdi, -16(%rbp)
Ltmp534:
	.loc	31 98 9 prologue_end
	callq	__ZN4core3any6TypeId2of17h45a08351bef10beeE
	.loc	31 99 6
	addq	$16, %rsp
	popq	%rbp
	retq
Ltmp535:
Lfunc_end86:
	.cfi_endproc

	.globl	__ZN4core6option15Option$LT$T$GT$3map17h59bd70d1de0da35bE
	.p2align	4, 0x90
__ZN4core6option15Option$LT$T$GT$3map17h59bd70d1de0da35bE:
Lfunc_begin87:
	.loc	3 964 0
	.cfi_startproc
	pushq	%rbp
	.cfi_def_cfa_offset 16
	.cfi_offset %rbp, -16
	movq	%rsp, %rbp
	.cfi_def_cfa_register %rbp
	subq	$112, %rsp
	movq	%rcx, -104(%rbp)
	movq	%rdx, -96(%rbp)
	movq	%rdi, -88(%rbp)
	movq	%rdi, -80(%rbp)
	movq	%rsi, -72(%rbp)
	movq	%rdx, -24(%rbp)
	movq	%rcx, -16(%rbp)
Ltmp536:
	.loc	3 969 15 prologue_end
	movb	$1, -25(%rbp)
	movq	-72(%rbp), %rdx
	movl	$1, %eax
	xorl	%ecx, %ecx
	cmpq	$0, %rdx
	cmoveq	%rcx, %rax
	.loc	3 969 9 is_stmt 0
	cmpq	$0, %rax
	jne	LBB87_2
	.loc	3 0 9
	movq	-88(%rbp), %rax
	.loc	3 971 21 is_stmt 1
	movq	$0, 8(%rax)
	jmp	LBB87_3
LBB87_2:
	.loc	3 0 21 is_stmt 0
	movq	-104(%rbp), %rdx
	movq	-96(%rbp), %rsi
	.loc	3 970 18 is_stmt 1
	movq	-72(%rbp), %rax
	movq	%rax, -8(%rbp)
Ltmp537:
	.loc	3 970 29 is_stmt 0
	movb	$0, -25(%rbp)
	movq	%rax, -40(%rbp)
	movq	-40(%rbp), %rcx
	leaq	-64(%rbp), %rdi
	callq	__ZN5alloc11collections5btree4node40NodeRef$LT$BorrowType$C$K$C$V$C$Type$GT$6ascend28_$u7b$$u7b$closure$u7d$$u7d$17h568aff305173c139E
	movq	-88(%rbp), %rax
	.loc	3 970 24
	movq	-64(%rbp), %rcx
	movq	%rcx, (%rax)
	movq	-56(%rbp), %rcx
	movq	%rcx, 8(%rax)
	movq	-48(%rbp), %rcx
	movq	%rcx, 16(%rax)
Ltmp538:
LBB87_3:
	.loc	3 973 5 is_stmt 1
	testb	$1, -25(%rbp)
	jne	LBB87_5
LBB87_4:
	.loc	3 0 5 is_stmt 0
	movq	-80(%rbp), %rax
	.loc	3 973 6
	addq	$112, %rsp
	popq	%rbp
	retq
LBB87_5:
	.loc	3 973 5
	jmp	LBB87_4
Ltmp539:
Lfunc_end87:
	.cfi_endproc

	.globl	__ZN4core6option15Option$LT$T$GT$7is_none17ha7476850fdd8f245E
	.p2align	4, 0x90
__ZN4core6option15Option$LT$T$GT$7is_none17ha7476850fdd8f245E:
Lfunc_begin88:
	.loc	3 643 0 is_stmt 1
	.cfi_startproc
	pushq	%rbp
	.cfi_def_cfa_offset 16
	.cfi_offset %rbp, -16
	movq	%rsp, %rbp
	.cfi_def_cfa_register %rbp
	subq	$24, %rsp
	movq	%rdi, -16(%rbp)
Ltmp540:
	.loc	3 644 10 prologue_end
	movq	%rdi, -8(%rbp)
Ltmp541:
	.loc	3 598 18
	movq	(%rdi), %rdx
	movl	$1, %eax
	xorl	%ecx, %ecx
	cmpq	$0, %rdx
	cmoveq	%rcx, %rax
	.file	32 "/rustc/2c8cc343237b8f7d5a3c3703e3a87f2eb2c54a74/library/core/src/macros" "mod.rs"
	.loc	32 344 9
	cmpq	$1, %rax
	jne	LBB88_2
	.loc	32 345 48
	movb	$1, -17(%rbp)
	jmp	LBB88_3
LBB88_2:
	.loc	32 346 18
	movb	$0, -17(%rbp)
Ltmp542:
LBB88_3:
	.loc	3 644 9
	movb	-17(%rbp), %al
	xorb	$-1, %al
	.loc	3 645 6
	andb	$1, %al
	movzbl	%al, %eax
	addq	$24, %rsp
	popq	%rbp
	retq
Ltmp543:
Lfunc_end88:
	.cfi_endproc

	.globl	__ZN4core6result19Result$LT$T$C$E$GT$3map17h45042dae6e87f96bE
	.p2align	4, 0x90
__ZN4core6result19Result$LT$T$C$E$GT$3map17h45042dae6e87f96bE:
Lfunc_begin89:
	.file	33 "/rustc/2c8cc343237b8f7d5a3c3703e3a87f2eb2c54a74/library/core/src" "result.rs"
	.loc	33 772 0
	.cfi_startproc
	pushq	%rbp
	.cfi_def_cfa_offset 16
	.cfi_offset %rbp, -16
	movq	%rsp, %rbp
	.cfi_def_cfa_register %rbp
	subq	$480, %rsp
	movq	%rsi, -480(%rbp)
Ltmp544:
	movq	%rdi, -472(%rbp)
	movq	%rdi, -464(%rbp)
Ltmp545:
	.loc	33 773 15 prologue_end
	movb	$1, -17(%rbp)
	.loc	33 773 9 is_stmt 0
	cmpq	$0, (%rsi)
Ltmp546:
	jne	LBB89_2
Ltmp547:
	.loc	33 0 9
	movq	-480(%rbp), %rsi
	.loc	33 774 16 is_stmt 1
	addq	$8, %rsi
	leaq	-456(%rbp), %rdi
	movl	$144, %edx
	callq	_memcpy
Ltmp548:
	.loc	33 774 25 is_stmt 0
	movb	$0, -17(%rbp)
	.loc	33 774 28
	leaq	-168(%rbp), %rdi
	leaq	-456(%rbp), %rsi
	movl	$144, %edx
	callq	_memcpy
	.loc	33 774 25
	leaq	-312(%rbp), %rdi
	leaq	-168(%rbp), %rsi
	movl	$144, %edx
	callq	_memcpy
	leaq	-312(%rbp), %rdi
	callq	__ZN10webbrowser2os21open_browser_internal28_$u7b$$u7b$closure$u7d$$u7d$17h141d65ad092df248E
	movb	%al, %cl
	movq	-472(%rbp), %rax
	.loc	33 774 22
	andb	$1, %cl
	movb	%cl, 1(%rax)
	movb	$0, (%rax)
Ltmp549:
	.loc	33 774 30
	jmp	LBB89_3
Ltmp550:
LBB89_2:
	.loc	33 0 30
	movq	-472(%rbp), %rax
	movq	-480(%rbp), %rcx
	.loc	33 775 17 is_stmt 1
	movq	8(%rcx), %rcx
	movq	%rcx, -8(%rbp)
Ltmp551:
	.loc	33 775 23 is_stmt 0
	movq	%rcx, 8(%rax)
	movb	$1, (%rax)
Ltmp552:
LBB89_3:
	.loc	33 777 5 is_stmt 1
	testb	$1, -17(%rbp)
	jne	LBB89_5
Ltmp553:
LBB89_4:
	.loc	33 0 5 is_stmt 0
	movq	-464(%rbp), %rax
	.loc	33 777 6
	addq	$480, %rsp
	popq	%rbp
	retq
Ltmp554:
LBB89_5:
	.loc	33 777 5
	jmp	LBB89_4
Ltmp555:
Lfunc_end89:
	.cfi_endproc

	.globl	__ZN4core6result19Result$LT$T$C$E$GT$3map17ha299182694eea992E
	.p2align	4, 0x90
__ZN4core6result19Result$LT$T$C$E$GT$3map17ha299182694eea992E:
Lfunc_begin90:
	.loc	33 772 0 is_stmt 1
	.cfi_startproc
	pushq	%rbp
	.cfi_def_cfa_offset 16
	.cfi_offset %rbp, -16
	movq	%rsp, %rbp
	.cfi_def_cfa_register %rbp
	subq	$624, %rsp
	movq	%rsi, -624(%rbp)
Ltmp556:
	movq	%rdi, -616(%rbp)
	movq	%rdi, -608(%rbp)
Ltmp557:
	.loc	33 773 15 prologue_end
	movb	$1, -17(%rbp)
	.loc	33 773 9 is_stmt 0
	cmpq	$0, (%rsi)
Ltmp558:
	jne	LBB90_2
Ltmp559:
	.loc	33 0 9
	movq	-624(%rbp), %rsi
	.loc	33 774 16 is_stmt 1
	addq	$8, %rsi
	leaq	-600(%rbp), %rdi
	movl	$144, %edx
	callq	_memcpy
Ltmp560:
	.loc	33 774 25 is_stmt 0
	movb	$0, -17(%rbp)
	.loc	33 774 28
	leaq	-168(%rbp), %rdi
	leaq	-600(%rbp), %rsi
	movl	$144, %edx
	callq	_memcpy
	.loc	33 774 25
	leaq	-312(%rbp), %rdi
	leaq	-168(%rbp), %rsi
	movl	$144, %edx
	callq	_memcpy
	leaq	-456(%rbp), %rdi
	leaq	-312(%rbp), %rsi
	callq	__ZN4core3ops8function6FnOnce9call_once17hd015497a8b6da1eeE
	movq	-616(%rbp), %rdi
	.loc	33 774 22
	addq	$8, %rdi
	leaq	-456(%rbp), %rsi
	movl	$144, %edx
	callq	_memcpy
	movq	-616(%rbp), %rax
	movq	$0, (%rax)
Ltmp561:
	.loc	33 774 30
	jmp	LBB90_3
Ltmp562:
LBB90_2:
	.loc	33 0 30
	movq	-616(%rbp), %rax
	movq	-624(%rbp), %rcx
	.loc	33 775 17 is_stmt 1
	movq	8(%rcx), %rcx
	movq	%rcx, -8(%rbp)
Ltmp563:
	.loc	33 775 23 is_stmt 0
	movq	%rcx, 8(%rax)
	movq	$1, (%rax)
Ltmp564:
LBB90_3:
	.loc	33 777 5 is_stmt 1
	testb	$1, -17(%rbp)
	jne	LBB90_5
Ltmp565:
LBB90_4:
	.loc	33 0 5 is_stmt 0
	movq	-608(%rbp), %rax
	.loc	33 777 6
	addq	$624, %rsp
	popq	%rbp
	retq
Ltmp566:
LBB90_5:
	.loc	33 777 5
	jmp	LBB90_4
Ltmp567:
Lfunc_end90:
	.cfi_endproc

	.globl	__ZN4core6result19Result$LT$T$C$E$GT$5is_ok17h477cb851456bd6fbE
	.p2align	4, 0x90
__ZN4core6result19Result$LT$T$C$E$GT$5is_ok17h477cb851456bd6fbE:
Lfunc_begin91:
	.loc	33 541 0 is_stmt 1
	.cfi_startproc
	pushq	%rbp
	.cfi_def_cfa_offset 16
	.cfi_offset %rbp, -16
	movq	%rsp, %rbp
	.cfi_def_cfa_register %rbp
	subq	$16, %rsp
	movq	%rdi, -8(%rbp)
Ltmp568:
	.loc	33 542 18 prologue_end
	movq	(%rdi), %rdx
	movl	$1, %eax
	xorl	%ecx, %ecx
	cmpq	$0, %rdx
	cmoveq	%rcx, %rax
	.loc	33 542 9 is_stmt 0
	cmpq	$0, %rax
	jne	LBB91_2
	movb	$1, -9(%rbp)
	jmp	LBB91_3
LBB91_2:
	movb	$0, -9(%rbp)
LBB91_3:
	.loc	33 543 6 is_stmt 1
	movb	-9(%rbp), %al
	andb	$1, %al
	movzbl	%al, %eax
	addq	$16, %rsp
	popq	%rbp
	retq
Ltmp569:
Lfunc_end91:
	.cfi_endproc

	.globl	__ZN4core6result19Result$LT$T$C$E$GT$9unwrap_or17h32a1575378b9116eE
	.p2align	4, 0x90
__ZN4core6result19Result$LT$T$C$E$GT$9unwrap_or17h32a1575378b9116eE:
Lfunc_begin92:
	.loc	33 1472 0
	.cfi_startproc
	pushq	%rbp
	.cfi_def_cfa_offset 16
	.cfi_offset %rbp, -16
	movq	%rsp, %rbp
	.cfi_def_cfa_register %rbp
	subq	$32, %rsp
	movq	%rdi, -32(%rbp)
Ltmp570:
	movb	%sil, %al
	movb	%al, -18(%rbp)
Ltmp571:
	andb	$1, %al
	movb	%al, -2(%rbp)
Ltmp572:
	.loc	33 1477 15 prologue_end
	movb	$1, -3(%rbp)
	movb	(%rdi), %al
	andb	$1, %al
	movzbl	%al, %eax
	.loc	33 1477 9 is_stmt 0
	cmpq	$0, %rax
Ltmp573:
	jne	LBB92_2
Ltmp574:
	.loc	33 0 9
	movq	-32(%rbp), %rax
	.loc	33 1478 16 is_stmt 1
	movb	1(%rax), %al
	movb	%al, %cl
	andb	$1, %cl
	movb	%cl, -1(%rbp)
Ltmp575:
	.loc	33 1478 22 is_stmt 0
	andb	$1, %al
	movb	%al, -17(%rbp)
Ltmp576:
	.loc	33 1478 22
	jmp	LBB92_3
Ltmp577:
LBB92_2:
	.loc	33 0 22
	movb	-18(%rbp), %al
	movq	-32(%rbp), %rcx
	.loc	33 1481 17 is_stmt 1
	movq	8(%rcx), %rcx
	movq	%rcx, -16(%rbp)
Ltmp578:
	.loc	33 1481 23 is_stmt 0
	movb	$0, -3(%rbp)
	andb	$1, %al
	movb	%al, -17(%rbp)
Ltmp579:
	.loc	33 1481 29
	leaq	-16(%rbp), %rdi
	callq	__ZN4core3ptr42drop_in_place$LT$std..io..error..Error$GT$17h861215b47865cabdE
Ltmp580:
LBB92_3:
	.loc	33 1483 5 is_stmt 1
	testb	$1, -3(%rbp)
	jne	LBB92_5
Ltmp581:
LBB92_4:
	.loc	33 1483 6 is_stmt 0
	movb	-17(%rbp), %al
	andb	$1, %al
	movzbl	%al, %eax
	addq	$32, %rsp
	popq	%rbp
	retq
Ltmp582:
LBB92_5:
	.loc	33 1483 5
	jmp	LBB92_4
Ltmp583:
Lfunc_end92:
	.cfi_endproc

	.globl	__ZN50_$LT$$RF$mut$u20$T$u20$as$u20$core..fmt..Debug$GT$3fmt17h6bdd5784729f747fE
	.p2align	4, 0x90
__ZN50_$LT$$RF$mut$u20$T$u20$as$u20$core..fmt..Debug$GT$3fmt17h6bdd5784729f747fE:
Lfunc_begin93:
	.loc	21 2381 0 is_stmt 1
	.cfi_startproc
	pushq	%rbp
	.cfi_def_cfa_offset 16
	.cfi_offset %rbp, -16
	movq	%rsp, %rbp
	.cfi_def_cfa_register %rbp
	subq	$16, %rsp
	movq	%rdi, -16(%rbp)
	movq	%rsi, -8(%rbp)
Ltmp584:
	.loc	21 2381 71 prologue_end
	movq	(%rdi), %rdi
	.loc	21 2381 62 is_stmt 0
	callq	__ZN58_$LT$std..process..Command$u20$as$u20$core..fmt..Debug$GT$3fmt17h39afebd60e57ac6eE
	.loc	21 2381 84
	andb	$1, %al
	movzbl	%al, %eax
	addq	$16, %rsp
	popq	%rbp
	retq
Ltmp585:
Lfunc_end93:
	.cfi_endproc

	.globl	__ZN50_$LT$T$u20$as$u20$core..convert..Into$LT$U$GT$$GT$4into17h46c485ef04cb3c3dE
	.p2align	4, 0x90
__ZN50_$LT$T$u20$as$u20$core..convert..Into$LT$U$GT$$GT$4into17h46c485ef04cb3c3dE:
Lfunc_begin94:
	.file	34 "/rustc/2c8cc343237b8f7d5a3c3703e3a87f2eb2c54a74/library/core/src/convert" "mod.rs"
	.loc	34 725 0 is_stmt 1
	.cfi_startproc
	pushq	%rbp
	.cfi_def_cfa_offset 16
	.cfi_offset %rbp, -16
	movq	%rsp, %rbp
	.cfi_def_cfa_register %rbp
	subq	$32, %rsp
Ltmp586:
	.loc	34 726 17 prologue_end
	movq	16(%rdi), %rax
	movq	%rax, -8(%rbp)
	movq	(%rdi), %rax
	movq	8(%rdi), %rcx
	movq	%rcx, -16(%rbp)
	movq	%rax, -24(%rbp)
	leaq	-24(%rbp), %rdi
Ltmp587:
	.loc	34 726 9 is_stmt 0
	callq	__ZN166_$LT$alloc..boxed..Box$LT$dyn$u20$core..error..Error$u2b$core..marker..Send$u2b$core..marker..Sync$GT$$u20$as$u20$core..convert..From$LT$alloc..string..String$GT$$GT$4from17h3242d98f6698ec83E
	.loc	34 727 6 is_stmt 1
	addq	$32, %rsp
	popq	%rbp
	retq
Ltmp588:
Lfunc_end94:
	.cfi_endproc

	.globl	__ZN50_$LT$T$u20$as$u20$core..convert..Into$LT$U$GT$$GT$4into17h9268dd120e312f76E
	.p2align	4, 0x90
__ZN50_$LT$T$u20$as$u20$core..convert..Into$LT$U$GT$$GT$4into17h9268dd120e312f76E:
Lfunc_begin95:
	.loc	34 725 0
	.cfi_startproc
	pushq	%rbp
	.cfi_def_cfa_offset 16
	.cfi_offset %rbp, -16
	movq	%rsp, %rbp
	.cfi_def_cfa_register %rbp
	subq	$16, %rsp
	movl	%esi, %edx
	movl	%edi, %eax
	movl	%eax, -16(%rbp)
	movl	%edx, -12(%rbp)
	movl	%eax, -8(%rbp)
	movl	%edx, -4(%rbp)
Ltmp589:
	.loc	34 727 6 prologue_end
	addq	$16, %rsp
	popq	%rbp
	retq
Ltmp590:
Lfunc_end95:
	.cfi_endproc

	.globl	__ZN50_$LT$T$u20$as$u20$core..convert..Into$LT$U$GT$$GT$4into17ha5d17f4f4d6cdd87E
	.p2align	4, 0x90
__ZN50_$LT$T$u20$as$u20$core..convert..Into$LT$U$GT$$GT$4into17ha5d17f4f4d6cdd87E:
Lfunc_begin96:
	.loc	34 725 0
	.cfi_startproc
	pushq	%rbp
	.cfi_def_cfa_offset 16
	.cfi_offset %rbp, -16
	movq	%rsp, %rbp
	.cfi_def_cfa_register %rbp
	subq	$32, %rsp
	movq	%rdi, %rax
	movq	%rax, -24(%rbp)
	movq	%rsi, -16(%rbp)
	movq	%rdx, -8(%rbp)
Ltmp591:
	.loc	34 726 9 prologue_end
	callq	__ZN76_$LT$alloc..string..String$u20$as$u20$core..convert..From$LT$$RF$str$GT$$GT$4from17hd6c52d18dc39ad9dE
	movq	-24(%rbp), %rax
	.loc	34 727 6
	addq	$32, %rsp
	popq	%rbp
	retq
Ltmp592:
Lfunc_end96:
	.cfi_endproc

	.globl	__ZN50_$LT$T$u20$as$u20$core..convert..Into$LT$U$GT$$GT$4into17hfa875a8beea66317E
	.p2align	4, 0x90
__ZN50_$LT$T$u20$as$u20$core..convert..Into$LT$U$GT$$GT$4into17hfa875a8beea66317E:
Lfunc_begin97:
	.loc	34 725 0
	.cfi_startproc
	pushq	%rbp
	.cfi_def_cfa_offset 16
	.cfi_offset %rbp, -16
	movq	%rsp, %rbp
	.cfi_def_cfa_register %rbp
	subq	$16, %rsp
	movq	%rdi, -16(%rbp)
	movq	%rsi, -8(%rbp)
Ltmp593:
	.loc	34 726 9 prologue_end
	callq	__ZN152_$LT$alloc..boxed..Box$LT$dyn$u20$core..error..Error$u2b$core..marker..Send$u2b$core..marker..Sync$GT$$u20$as$u20$core..convert..From$LT$$RF$str$GT$$GT$4from17h2b7c9724dadfbe6eE
	.loc	34 727 6
	addq	$16, %rsp
	popq	%rbp
	retq
Ltmp594:
Lfunc_end97:
	.cfi_endproc

	.globl	__ZN55_$LT$$RF$T$u20$as$u20$core..convert..AsRef$LT$U$GT$$GT$6as_ref17h543e6c8fe75ac46dE
	.p2align	4, 0x90
__ZN55_$LT$$RF$T$u20$as$u20$core..convert..AsRef$LT$U$GT$$GT$6as_ref17h543e6c8fe75ac46dE:
Lfunc_begin98:
	.loc	34 667 0
	.cfi_startproc
	pushq	%rbp
	.cfi_def_cfa_offset 16
	.cfi_offset %rbp, -16
	movq	%rsp, %rbp
	.cfi_def_cfa_register %rbp
	subq	$16, %rsp
	movq	%rdi, -8(%rbp)
Ltmp595:
	.loc	34 668 33 prologue_end
	movq	(%rdi), %rdi
	.loc	34 668 9 is_stmt 0
	callq	__ZN3std3ffi6os_str103_$LT$impl$u20$core..convert..AsRef$LT$std..ffi..os_str..OsStr$GT$$u20$for$u20$alloc..string..String$GT$6as_ref17h81d6ad9692c6212cE
	.loc	34 669 6 is_stmt 1
	addq	$16, %rsp
	popq	%rbp
	retq
Ltmp596:
Lfunc_end98:
	.cfi_endproc

	.globl	__ZN55_$LT$$RF$T$u20$as$u20$core..convert..AsRef$LT$U$GT$$GT$6as_ref17hbc48eef6ef4c6a91E
	.p2align	4, 0x90
__ZN55_$LT$$RF$T$u20$as$u20$core..convert..AsRef$LT$U$GT$$GT$6as_ref17hbc48eef6ef4c6a91E:
Lfunc_begin99:
	.loc	34 667 0
	.cfi_startproc
	pushq	%rbp
	.cfi_def_cfa_offset 16
	.cfi_offset %rbp, -16
	movq	%rsp, %rbp
	.cfi_def_cfa_register %rbp
	subq	$16, %rsp
	movq	%rdi, %rax
	movq	%rax, -8(%rbp)
Ltmp597:
	.loc	34 668 33 prologue_end
	movq	(%rax), %rdi
	movq	8(%rax), %rsi
	.loc	34 668 9 is_stmt 0
	callq	__ZN3std3ffi6os_str85_$LT$impl$u20$core..convert..AsRef$LT$std..ffi..os_str..OsStr$GT$$u20$for$u20$str$GT$6as_ref17h5bbde57e726204f8E
	.loc	34 669 6 is_stmt 1
	addq	$16, %rsp
	popq	%rbp
	retq
Ltmp598:
Lfunc_end99:
	.cfi_endproc

	.p2align	4, 0x90
__ZN59_$LT$alloc..alloc..Global$u20$as$u20$core..clone..Clone$GT$5clone17h19910aade683670eE:
Lfunc_begin100:
	.file	35 "/rustc/2c8cc343237b8f7d5a3c3703e3a87f2eb2c54a74/library/alloc/src" "alloc.rs"
	.loc	35 53 0
	.cfi_startproc
	pushq	%rbp
	.cfi_def_cfa_offset 16
	.cfi_offset %rbp, -16
	movq	%rsp, %rbp
	.cfi_def_cfa_register %rbp
	pushq	%rax
	movq	%rdi, -8(%rbp)
Ltmp599:
	.loc	35 53 21 prologue_end
	addq	$8, %rsp
	popq	%rbp
	retq
Ltmp600:
Lfunc_end100:
	.cfi_endproc

	.globl	__ZN5alloc11collections5btree3map25IntoIter$LT$K$C$V$C$A$GT$10dying_next17h0b036bb23e1a376cE
	.p2align	4, 0x90
__ZN5alloc11collections5btree3map25IntoIter$LT$K$C$V$C$A$GT$10dying_next17h0b036bb23e1a376cE:
Lfunc_begin101:
	.loc	1 1663 0
	.cfi_startproc
	pushq	%rbp
	.cfi_def_cfa_offset 16
	.cfi_offset %rbp, -16
	movq	%rsp, %rbp
	.cfi_def_cfa_register %rbp
	subq	$64, %rsp
	movq	%rsi, -56(%rbp)
	movq	%rdi, -48(%rbp)
	movq	%rdi, -40(%rbp)
	movq	%rsi, -8(%rbp)
Ltmp601:
	.loc	1 1666 12 prologue_end
	cmpq	$0, 64(%rsi)
	jne	LBB101_2
	.loc	1 0 12 is_stmt 0
	movq	-56(%rbp), %rdi
	.loc	1 1667 41 is_stmt 1
	callq	__ZN59_$LT$alloc..alloc..Global$u20$as$u20$core..clone..Clone$GT$5clone17h19910aade683670eE
	movq	-56(%rbp), %rdi
	.loc	1 1667 13 is_stmt 0
	callq	__ZN5alloc11collections5btree8navigate75LazyLeafRange$LT$alloc..collections..btree..node..marker..Dying$C$K$C$V$GT$16deallocating_end17h7996bb71571da741E
	movq	-48(%rbp), %rax
	.loc	1 1668 13 is_stmt 1
	movq	$0, 8(%rax)
	.loc	1 1666 9
	jmp	LBB101_3
LBB101_2:
	.loc	1 0 9 is_stmt 0
	movq	-56(%rbp), %rdi
	.loc	1 1670 13 is_stmt 1
	movq	64(%rdi), %rax
	subq	$1, %rax
	movq	%rax, 64(%rdi)
	.loc	1 1671 66
	callq	__ZN59_$LT$alloc..alloc..Global$u20$as$u20$core..clone..Clone$GT$5clone17h19910aade683670eE
	movq	-56(%rbp), %rsi
	.loc	1 1671 27 is_stmt 0
	leaq	-32(%rbp), %rdi
	callq	__ZN5alloc11collections5btree8navigate75LazyLeafRange$LT$alloc..collections..btree..node..marker..Dying$C$K$C$V$GT$27deallocating_next_unchecked17h034049ae49a0b52bE
	movq	-48(%rbp), %rax
	.loc	1 1671 13
	movq	-32(%rbp), %rcx
	movq	%rcx, (%rax)
	movq	-24(%rbp), %rcx
	movq	%rcx, 8(%rax)
	movq	-16(%rbp), %rcx
	movq	%rcx, 16(%rax)
LBB101_3:
	.loc	1 0 13
	movq	-40(%rbp), %rax
	.loc	1 1673 6 is_stmt 1
	addq	$64, %rsp
	popq	%rbp
	retq
Ltmp602:
Lfunc_end101:
	.cfi_endproc

	.globl	__ZN5alloc11collections5btree3mem7replace17h5968c4d597824273E
	.p2align	4, 0x90
__ZN5alloc11collections5btree3mem7replace17h5968c4d597824273E:
Lfunc_begin102:
	.file	36 "/rustc/2c8cc343237b8f7d5a3c3703e3a87f2eb2c54a74/library/alloc/src/collections/btree" "mem.rs"
	.loc	36 20 0
	.cfi_startproc
	.cfi_personality 155, _rust_eh_personality
	.cfi_lsda 16, Lexception16
	pushq	%rbp
	.cfi_def_cfa_offset 16
	.cfi_offset %rbp, -16
	movq	%rsp, %rbp
	.cfi_def_cfa_register %rbp
	subq	$352, %rsp
	movq	%rsi, -352(%rbp)
	movq	%rdi, -344(%rbp)
	movq	%rdi, -336(%rbp)
	movq	%rsi, -72(%rbp)
Ltmp609:
	.loc	36 27 9 prologue_end
	movb	$1, -145(%rbp)
Ltmp610:
	.loc	36 28 36
	movq	%rsi, -40(%rbp)
Ltmp611:
	.loc	4 1157 34
	leaq	-144(%rbp), %rax
	movq	%rax, -32(%rbp)
	.loc	4 1157 9 is_stmt 0
	movq	(%rsi), %rax
	movq	%rax, -144(%rbp)
	movq	8(%rsi), %rax
	movq	%rax, -136(%rbp)
	movq	16(%rsi), %rax
	movq	%rax, -128(%rbp)
	.loc	4 1158 9 is_stmt 1
	movq	-144(%rbp), %rax
	movq	%rax, -120(%rbp)
	movq	-136(%rbp), %rax
	movq	%rax, -112(%rbp)
	movq	-128(%rbp), %rax
	movq	%rax, -104(%rbp)
Ltmp612:
	.loc	23 627 38
	movq	-104(%rbp), %rax
	movq	%rax, -80(%rbp)
	movq	-120(%rbp), %rax
	movq	-112(%rbp), %rcx
	movq	%rcx, -88(%rbp)
	movq	%rax, -96(%rbp)
Ltmp613:
	.loc	2 89 9
	movq	-80(%rbp), %rax
	movq	%rax, -304(%rbp)
	movq	-96(%rbp), %rax
	movq	-88(%rbp), %rcx
	movq	%rcx, -312(%rbp)
	movq	%rax, -320(%rbp)
Ltmp614:
	.loc	36 29 28
	movb	$0, -145(%rbp)
	.loc	36 29 35 is_stmt 0
	movq	-304(%rbp), %rax
	movq	%rax, -184(%rbp)
	movq	-320(%rbp), %rax
	movq	-312(%rbp), %rcx
	movq	%rcx, -192(%rbp)
	movq	%rax, -200(%rbp)
	.loc	36 29 28
	movq	-184(%rbp), %rax
	movq	%rax, -208(%rbp)
	movq	-200(%rbp), %rax
	movq	-192(%rbp), %rcx
	movq	%rcx, -216(%rbp)
	movq	%rax, -224(%rbp)
Ltmp603:
	leaq	-272(%rbp), %rdi
	leaq	-224(%rbp), %rsi
	callq	__ZN5alloc11collections5btree8navigate263_$LT$impl$u20$alloc..collections..btree..node..Handle$LT$alloc..collections..btree..node..NodeRef$LT$alloc..collections..btree..node..marker..Dying$C$K$C$V$C$alloc..collections..btree..node..marker..Leaf$GT$$C$alloc..collections..btree..node..marker..Edge$GT$$GT$27deallocating_next_unchecked28_$u7b$$u7b$closure$u7d$$u7d$17h321a763353ba8005E
Ltmp604:
	jmp	LBB102_4
Ltmp615:
LBB102_2:
	.loc	36 35 1 is_stmt 1
	movb	$1, %al
	testb	$1, %al
	jne	LBB102_6
	jmp	LBB102_5
LBB102_3:
Ltmp605:
	.loc	36 0 1 is_stmt 0
	movq	%rax, %rcx
	movl	%edx, %eax
	movq	%rcx, -24(%rbp)
	movl	%eax, -16(%rbp)
	jmp	LBB102_2
LBB102_4:
	movq	-336(%rbp), %rax
	movq	-352(%rbp), %rcx
	movq	-344(%rbp), %rdx
Ltmp616:
	.loc	36 29 10 is_stmt 1
	movq	-272(%rbp), %rsi
	movq	%rsi, -296(%rbp)
	movq	-264(%rbp), %rsi
	movq	%rsi, -288(%rbp)
	movq	-256(%rbp), %rsi
	movq	%rsi, -280(%rbp)
	.loc	36 29 21 is_stmt 0
	movq	-248(%rbp), %rsi
	movq	%rsi, (%rdx)
	movq	-240(%rbp), %rsi
	movq	%rsi, 8(%rdx)
	movq	-232(%rbp), %rsi
	movq	%rsi, 16(%rdx)
Ltmp617:
	.loc	36 31 20 is_stmt 1
	movq	%rcx, -8(%rbp)
	.loc	36 31 23 is_stmt 0
	movq	-296(%rbp), %rdx
	movq	%rdx, -176(%rbp)
	movq	-288(%rbp), %rdx
	movq	%rdx, -168(%rbp)
	movq	-280(%rbp), %rdx
	movq	%rdx, -160(%rbp)
Ltmp618:
	.loc	4 1354 9 is_stmt 1
	movq	-176(%rbp), %rdx
	movq	%rdx, (%rcx)
	movq	-168(%rbp), %rdx
	movq	%rdx, 8(%rcx)
	movq	-160(%rbp), %rdx
	movq	%rdx, 16(%rcx)
Ltmp619:
	.loc	36 35 2
	addq	$352, %rsp
	popq	%rbp
	retq
LBB102_5:
	.loc	36 35 1 is_stmt 0
	testb	$1, -145(%rbp)
	jne	LBB102_9
	jmp	LBB102_8
LBB102_6:
Ltmp606:
	.loc	36 0 1
	leaq	-328(%rbp), %rdi
	.loc	36 35 1
	callq	__ZN4core3ptr72drop_in_place$LT$alloc..collections..btree..mem..replace..PanicGuard$GT$17h8ed8b38ddb0793aaE
Ltmp607:
	jmp	LBB102_5
LBB102_7:
Ltmp608:
	.loc	36 20 1 is_stmt 1
	callq	__ZN4core9panicking19panic_cannot_unwind17h1fbca7e1d7f56ae1E
LBB102_8:
	movq	-24(%rbp), %rdi
	callq	__Unwind_Resume
LBB102_9:
	.loc	36 35 1
	jmp	LBB102_8
Ltmp620:
Lfunc_end102:
	.cfi_endproc
	.section	__TEXT,__gcc_except_tab
	.p2align	2
GCC_except_table102:
Lexception16:
	.byte	255
	.byte	255
	.byte	1
	.uleb128 Lcst_end16-Lcst_begin16
Lcst_begin16:
	.uleb128 Ltmp603-Lfunc_begin102
	.uleb128 Ltmp604-Ltmp603
	.uleb128 Ltmp605-Lfunc_begin102
	.byte	0
	.uleb128 Ltmp606-Lfunc_begin102
	.uleb128 Ltmp607-Ltmp606
	.uleb128 Ltmp608-Lfunc_begin102
	.byte	0
	.uleb128 Ltmp607-Lfunc_begin102
	.uleb128 Lfunc_end102-Ltmp607
	.byte	0
	.byte	0
Lcst_end16:
	.p2align	2

	.section	__TEXT,__text,regular,pure_instructions
	.globl	__ZN5alloc11collections5btree4node127NodeRef$LT$alloc..collections..btree..node..marker..Dying$C$K$C$V$C$alloc..collections..btree..node..marker..LeafOrInternal$GT$21deallocate_and_ascend17hf3feda6f84809b89E
	.p2align	4, 0x90
__ZN5alloc11collections5btree4node127NodeRef$LT$alloc..collections..btree..node..marker..Dying$C$K$C$V$C$alloc..collections..btree..node..marker..LeafOrInternal$GT$21deallocate_and_ascend17hf3feda6f84809b89E:
Lfunc_begin103:
	.file	37 "/rustc/2c8cc343237b8f7d5a3c3703e3a87f2eb2c54a74/library/alloc/src/collections/btree" "node.rs"
	.loc	37 396 0
	.cfi_startproc
	.cfi_personality 155, _rust_eh_personality
	.cfi_lsda 16, Lexception17
	pushq	%rbp
	.cfi_def_cfa_offset 16
	.cfi_offset %rbp, -16
	movq	%rsp, %rbp
	.cfi_def_cfa_register %rbp
	subq	$368, %rsp
	movq	%rdx, -312(%rbp)
	movq	%rsi, -304(%rbp)
	movq	%rdi, -296(%rbp)
	movq	%rdi, -288(%rbp)
	movq	%rsi, -168(%rbp)
	movq	%rdx, -160(%rbp)
Ltmp630:
	.loc	37 400 22 prologue_end
	movq	%rsi, -152(%rbp)
Ltmp631:
	.loc	37 401 20
	movq	%rdx, -144(%rbp)
Ltmp621:
	leaq	-272(%rbp), %rdi
Ltmp632:
	.loc	37 402 19
	callq	__ZN5alloc11collections5btree4node40NodeRef$LT$BorrowType$C$K$C$V$C$Type$GT$6ascend17hb44ce64992f7d5b0E
Ltmp622:
	jmp	LBB103_3
Ltmp633:
LBB103_1:
	.loc	37 396 5
	movq	-136(%rbp), %rdi
	callq	__Unwind_Resume
LBB103_2:
Ltmp629:
	.loc	37 0 5 is_stmt 0
	movq	%rax, %rcx
	movl	%edx, %eax
	movq	%rcx, -136(%rbp)
	movl	%eax, -128(%rbp)
	jmp	LBB103_1
LBB103_3:
Ltmp634:
	.loc	33 646 9 is_stmt 1
	cmpq	$0, -272(%rbp)
	jne	LBB103_5
	.loc	33 0 9 is_stmt 0
	movq	-296(%rbp), %rax
	.loc	33 647 16 is_stmt 1
	movq	-264(%rbp), %rcx
	movq	%rcx, -216(%rbp)
	movq	-256(%rbp), %rcx
	movq	%rcx, -208(%rbp)
	movq	-248(%rbp), %rcx
	movq	%rcx, -200(%rbp)
Ltmp635:
	.loc	33 647 27 is_stmt 0
	movq	-216(%rbp), %rcx
	movq	%rcx, -192(%rbp)
	movq	-208(%rbp), %rcx
	movq	%rcx, -184(%rbp)
	movq	-200(%rbp), %rcx
	movq	%rcx, -176(%rbp)
	.loc	33 647 22
	movq	-192(%rbp), %rcx
	movq	%rcx, (%rax)
	movq	-184(%rbp), %rcx
	movq	%rcx, 8(%rax)
	movq	-176(%rbp), %rcx
	movq	%rcx, 16(%rax)
Ltmp636:
	.loc	33 647 28
	jmp	LBB103_6
LBB103_5:
	.loc	33 0 28
	movq	-296(%rbp), %rax
Ltmp637:
	.loc	33 650 23 is_stmt 1
	movq	$0, 8(%rax)
Ltmp638:
LBB103_6:
	.loc	33 0 23 is_stmt 0
	movq	-304(%rbp), %rax
	movq	-312(%rbp), %rcx
Ltmp639:
	.loc	37 405 17 is_stmt 1
	movq	%rcx, -120(%rbp)
Ltmp640:
	.loc	11 450 41
	movq	%rcx, -112(%rbp)
	movq	%rcx, -104(%rbp)
Ltmp641:
	.loc	11 201 13
	movq	%rcx, -240(%rbp)
Ltmp642:
	.loc	37 406 20
	cmpq	$0, %rax
	ja	LBB103_8
Ltmp623:
Ltmp643:
	.loc	29 149 29
	callq	__ZN4core5alloc6layout10size_align17h8cbabed1676a5619E
Ltmp624:
	movq	%rdx, -328(%rbp)
	movq	%rax, -320(%rbp)
	jmp	LBB103_12
Ltmp644:
LBB103_8:
Ltmp625:
	.loc	29 149 29 is_stmt 0
	callq	__ZN4core5alloc6layout10size_align17h7cdff35e61f25579E
Ltmp626:
	movq	%rdx, -344(%rbp)
	movq	%rax, -336(%rbp)
	jmp	LBB103_9
LBB103_9:
	.loc	29 0 29
	movq	-344(%rbp), %rax
	movq	-336(%rbp), %rcx
	.loc	29 149 14
	movq	%rcx, -96(%rbp)
	.loc	29 149 20
	movq	%rax, -88(%rbp)
Ltmp645:
	.loc	29 153 52 is_stmt 1
	movq	%rcx, -80(%rbp)
	.loc	29 153 58 is_stmt 0
	movq	%rax, -72(%rbp)
Ltmp646:
	.loc	29 120 65 is_stmt 1
	movq	%rax, -64(%rbp)
Ltmp647:
	.loc	30 89 18
	movq	%rax, -56(%rbp)
	movq	-56(%rbp), %rax
	movq	%rax, -352(%rbp)
Ltmp648:
	.loc	30 0 18 is_stmt 0
	movq	-352(%rbp), %rax
	movq	-336(%rbp), %rcx
	.loc	29 120 18 is_stmt 1
	movq	%rcx, -232(%rbp)
	movq	%rax, -224(%rbp)
Ltmp649:
LBB103_11:
	.loc	37 404 13
	movq	-240(%rbp), %rsi
	movq	-232(%rbp), %rdx
	movq	-224(%rbp), %rcx
Ltmp627:
	leaq	-280(%rbp), %rdi
	callq	__ZN63_$LT$alloc..alloc..Global$u20$as$u20$core..alloc..Allocator$GT$10deallocate17h916a6f792621e6aeE
Ltmp628:
	jmp	LBB103_14
LBB103_12:
	.loc	37 0 13 is_stmt 0
	movq	-328(%rbp), %rax
	movq	-320(%rbp), %rcx
Ltmp650:
	.loc	29 149 14 is_stmt 1
	movq	%rcx, -48(%rbp)
	.loc	29 149 20 is_stmt 0
	movq	%rax, -40(%rbp)
Ltmp651:
	.loc	29 153 52 is_stmt 1
	movq	%rcx, -32(%rbp)
	.loc	29 153 58 is_stmt 0
	movq	%rax, -24(%rbp)
Ltmp652:
	.loc	29 120 65 is_stmt 1
	movq	%rax, -16(%rbp)
Ltmp653:
	.loc	30 89 18
	movq	%rax, -8(%rbp)
	movq	-8(%rbp), %rax
	movq	%rax, -360(%rbp)
Ltmp654:
	.loc	30 0 18 is_stmt 0
	movq	-360(%rbp), %rax
	movq	-320(%rbp), %rcx
	.loc	29 120 18 is_stmt 1
	movq	%rcx, -232(%rbp)
	movq	%rax, -224(%rbp)
Ltmp655:
	.loc	29 154 6
	jmp	LBB103_11
LBB103_14:
	.loc	29 0 6 is_stmt 0
	movq	-288(%rbp), %rax
	.loc	37 414 6 is_stmt 1
	addq	$368, %rsp
	popq	%rbp
	retq
Ltmp656:
Lfunc_end103:
	.cfi_endproc
	.section	__TEXT,__gcc_except_tab
	.p2align	2
GCC_except_table103:
Lexception17:
	.byte	255
	.byte	255
	.byte	1
	.uleb128 Lcst_end17-Lcst_begin17
Lcst_begin17:
	.uleb128 Ltmp621-Lfunc_begin103
	.uleb128 Ltmp622-Ltmp621
	.uleb128 Ltmp629-Lfunc_begin103
	.byte	0
	.uleb128 Ltmp622-Lfunc_begin103
	.uleb128 Ltmp623-Ltmp622
	.byte	0
	.byte	0
	.uleb128 Ltmp623-Lfunc_begin103
	.uleb128 Ltmp628-Ltmp623
	.uleb128 Ltmp629-Lfunc_begin103
	.byte	0
Lcst_end17:
	.p2align	2

	.section	__TEXT,__text,regular,pure_instructions
	.globl	__ZN5alloc11collections5btree4node137Handle$LT$alloc..collections..btree..node..NodeRef$LT$BorrowType$C$K$C$V$C$NodeType$GT$$C$alloc..collections..btree..node..marker..KV$GT$10right_edge17hab6e380afc7db3daE
	.p2align	4, 0x90
__ZN5alloc11collections5btree4node137Handle$LT$alloc..collections..btree..node..NodeRef$LT$BorrowType$C$K$C$V$C$NodeType$GT$$C$alloc..collections..btree..node..marker..KV$GT$10right_edge17hab6e380afc7db3daE:
Lfunc_begin104:
	.loc	37 765 0
	.cfi_startproc
	pushq	%rbp
	.cfi_def_cfa_offset 16
	.cfi_offset %rbp, -16
	movq	%rsp, %rbp
	.cfi_def_cfa_register %rbp
	subq	$16, %rsp
	movq	%rsi, %rax
	movq	%rdi, %rcx
	movq	%rcx, -8(%rbp)
Ltmp657:
	.loc	37 766 35 prologue_end
	movq	(%rax), %rsi
	movq	8(%rax), %rdx
	.loc	37 766 46 is_stmt 0
	movq	16(%rax), %rcx
	addq	$1, %rcx
	.loc	37 766 18
	callq	__ZN5alloc11collections5btree4node139Handle$LT$alloc..collections..btree..node..NodeRef$LT$BorrowType$C$K$C$V$C$NodeType$GT$$C$alloc..collections..btree..node..marker..Edge$GT$8new_edge17h03b944c61d226be6E
Ltmp658:
	.loc	37 0 18
	movq	-8(%rbp), %rax
	.loc	37 767 6 is_stmt 1
	addq	$16, %rsp
	popq	%rbp
	retq
Ltmp659:
Lfunc_end104:
	.cfi_endproc

	.globl	__ZN5alloc11collections5btree4node137Handle$LT$alloc..collections..btree..node..NodeRef$LT$BorrowType$C$K$C$V$C$NodeType$GT$$C$alloc..collections..btree..node..marker..KV$GT$10right_edge17hd84e634cf30ef055E
	.p2align	4, 0x90
__ZN5alloc11collections5btree4node137Handle$LT$alloc..collections..btree..node..NodeRef$LT$BorrowType$C$K$C$V$C$NodeType$GT$$C$alloc..collections..btree..node..marker..KV$GT$10right_edge17hd84e634cf30ef055E:
Lfunc_begin105:
	.loc	37 765 0
	.cfi_startproc
	pushq	%rbp
	.cfi_def_cfa_offset 16
	.cfi_offset %rbp, -16
	movq	%rsp, %rbp
	.cfi_def_cfa_register %rbp
	subq	$16, %rsp
	movq	%rsi, %rax
	movq	%rdi, %rcx
	movq	%rcx, -8(%rbp)
Ltmp660:
	.loc	37 766 35 prologue_end
	movq	(%rax), %rsi
	movq	8(%rax), %rdx
	.loc	37 766 46 is_stmt 0
	movq	16(%rax), %rcx
	addq	$1, %rcx
	.loc	37 766 18
	callq	__ZN5alloc11collections5btree4node139Handle$LT$alloc..collections..btree..node..NodeRef$LT$BorrowType$C$K$C$V$C$NodeType$GT$$C$alloc..collections..btree..node..marker..Edge$GT$8new_edge17h5638a4e5cfe81df2E
Ltmp661:
	.loc	37 0 18
	movq	-8(%rbp), %rax
	.loc	37 767 6 is_stmt 1
	addq	$16, %rsp
	popq	%rbp
	retq
Ltmp662:
Lfunc_end105:
	.cfi_endproc

	.globl	__ZN5alloc11collections5btree4node137Handle$LT$alloc..collections..btree..node..NodeRef$LT$BorrowType$C$K$C$V$C$NodeType$GT$$C$alloc..collections..btree..node..marker..KV$GT$6new_kv17hb6e88b644eb85d39E
	.p2align	4, 0x90
__ZN5alloc11collections5btree4node137Handle$LT$alloc..collections..btree..node..NodeRef$LT$BorrowType$C$K$C$V$C$NodeType$GT$$C$alloc..collections..btree..node..marker..KV$GT$6new_kv17hb6e88b644eb85d39E:
Lfunc_begin106:
	.loc	37 755 0
	.cfi_startproc
	pushq	%rbp
	.cfi_def_cfa_offset 16
	.cfi_offset %rbp, -16
	movq	%rsp, %rbp
	.cfi_def_cfa_register %rbp
	subq	$24, %rsp
	movq	%rdi, %rax
	movq	%rsi, -24(%rbp)
	movq	%rdx, -16(%rbp)
	movq	%rcx, -8(%rbp)
Ltmp663:
	.loc	37 758 9 prologue_end
	movq	%rsi, (%rdi)
	movq	%rdx, 8(%rdi)
	movq	%rcx, 16(%rdi)
	.loc	37 759 6
	addq	$24, %rsp
	popq	%rbp
	retq
Ltmp664:
Lfunc_end106:
	.cfi_endproc

	.globl	__ZN5alloc11collections5btree4node139Handle$LT$alloc..collections..btree..node..NodeRef$LT$BorrowType$C$K$C$V$C$NodeType$GT$$C$alloc..collections..btree..node..marker..Edge$GT$8new_edge17h03b944c61d226be6E
	.p2align	4, 0x90
__ZN5alloc11collections5btree4node139Handle$LT$alloc..collections..btree..node..NodeRef$LT$BorrowType$C$K$C$V$C$NodeType$GT$$C$alloc..collections..btree..node..marker..Edge$GT$8new_edge17h03b944c61d226be6E:
Lfunc_begin107:
	.loc	37 806 0
	.cfi_startproc
	pushq	%rbp
	.cfi_def_cfa_offset 16
	.cfi_offset %rbp, -16
	movq	%rsp, %rbp
	.cfi_def_cfa_register %rbp
	subq	$24, %rsp
	movq	%rdi, %rax
	movq	%rsi, -24(%rbp)
	movq	%rdx, -16(%rbp)
	movq	%rcx, -8(%rbp)
Ltmp665:
	.loc	37 809 9 prologue_end
	movq	%rsi, (%rdi)
	movq	%rdx, 8(%rdi)
	movq	%rcx, 16(%rdi)
	.loc	37 810 6
	addq	$24, %rsp
	popq	%rbp
	retq
Ltmp666:
Lfunc_end107:
	.cfi_endproc

	.globl	__ZN5alloc11collections5btree4node139Handle$LT$alloc..collections..btree..node..NodeRef$LT$BorrowType$C$K$C$V$C$NodeType$GT$$C$alloc..collections..btree..node..marker..Edge$GT$8new_edge17h5638a4e5cfe81df2E
	.p2align	4, 0x90
__ZN5alloc11collections5btree4node139Handle$LT$alloc..collections..btree..node..NodeRef$LT$BorrowType$C$K$C$V$C$NodeType$GT$$C$alloc..collections..btree..node..marker..Edge$GT$8new_edge17h5638a4e5cfe81df2E:
Lfunc_begin108:
	.loc	37 806 0
	.cfi_startproc
	pushq	%rbp
	.cfi_def_cfa_offset 16
	.cfi_offset %rbp, -16
	movq	%rsp, %rbp
	.cfi_def_cfa_register %rbp
	subq	$24, %rsp
	movq	%rdi, %rax
	movq	%rsi, -24(%rbp)
	movq	%rdx, -16(%rbp)
	movq	%rcx, -8(%rbp)
Ltmp667:
	.loc	37 809 9 prologue_end
	movq	%rsi, (%rdi)
	movq	%rdx, 8(%rdi)
	movq	%rcx, 16(%rdi)
	.loc	37 810 6
	addq	$24, %rsp
	popq	%rbp
	retq
Ltmp668:
Lfunc_end108:
	.cfi_endproc

	.globl	__ZN5alloc11collections5btree4node139Handle$LT$alloc..collections..btree..node..NodeRef$LT$BorrowType$C$K$C$V$C$NodeType$GT$$C$alloc..collections..btree..node..marker..Edge$GT$8new_edge17hb9db1df160c37464E
	.p2align	4, 0x90
__ZN5alloc11collections5btree4node139Handle$LT$alloc..collections..btree..node..NodeRef$LT$BorrowType$C$K$C$V$C$NodeType$GT$$C$alloc..collections..btree..node..marker..Edge$GT$8new_edge17hb9db1df160c37464E:
Lfunc_begin109:
	.loc	37 806 0
	.cfi_startproc
	pushq	%rbp
	.cfi_def_cfa_offset 16
	.cfi_offset %rbp, -16
	movq	%rsp, %rbp
	.cfi_def_cfa_register %rbp
	subq	$24, %rsp
	movq	%rdi, %rax
	movq	%rsi, -24(%rbp)
	movq	%rdx, -16(%rbp)
	movq	%rcx, -8(%rbp)
Ltmp669:
	.loc	37 809 9 prologue_end
	movq	%rsi, (%rdi)
	movq	%rdx, 8(%rdi)
	movq	%rcx, 16(%rdi)
	.loc	37 810 6
	addq	$24, %rsp
	popq	%rbp
	retq
Ltmp670:
Lfunc_end109:
	.cfi_endproc

	.globl	__ZN5alloc11collections5btree4node139Handle$LT$alloc..collections..btree..node..NodeRef$LT$BorrowType$C$K$C$V$C$NodeType$GT$$C$alloc..collections..btree..node..marker..Edge$GT$8right_kv17h76faa28d9f2c6bb6E
	.p2align	4, 0x90
__ZN5alloc11collections5btree4node139Handle$LT$alloc..collections..btree..node..NodeRef$LT$BorrowType$C$K$C$V$C$NodeType$GT$$C$alloc..collections..btree..node..marker..Edge$GT$8right_kv17h76faa28d9f2c6bb6E:
Lfunc_begin110:
	.loc	37 820 0
	.cfi_startproc
	pushq	%rbp
	.cfi_def_cfa_offset 16
	.cfi_offset %rbp, -16
	movq	%rsp, %rbp
	.cfi_def_cfa_register %rbp
	subq	$80, %rsp
	movq	%rsi, -80(%rbp)
Ltmp671:
	movq	%rdi, %rax
	movq	-80(%rbp), %rdi
	movq	%rax, -72(%rbp)
	movq	%rax, -64(%rbp)
Ltmp672:
	.loc	37 821 12 prologue_end
	movq	16(%rdi), %rax
	movq	%rax, -56(%rbp)
	.loc	37 821 23 is_stmt 0
	callq	__ZN5alloc11collections5btree4node40NodeRef$LT$BorrowType$C$K$C$V$C$Type$GT$3len17h6b697a4eccaaf943E
Ltmp673:
	movq	%rax, %rcx
	movq	-56(%rbp), %rax
	.loc	37 821 12
	cmpq	%rcx, %rax
Ltmp674:
	jb	LBB110_2
Ltmp675:
	.loc	37 0 12
	movq	-72(%rbp), %rax
	movq	-80(%rbp), %rcx
	.loc	37 824 17 is_stmt 1
	movq	(%rcx), %rdx
	movq	%rdx, -24(%rbp)
	movq	8(%rcx), %rdx
	movq	%rdx, -16(%rbp)
	movq	16(%rcx), %rcx
	movq	%rcx, -8(%rbp)
	.loc	37 824 13 is_stmt 0
	movq	-24(%rbp), %rcx
	movq	%rcx, 8(%rax)
	movq	-16(%rbp), %rcx
	movq	%rcx, 16(%rax)
	movq	-8(%rbp), %rcx
	movq	%rcx, 24(%rax)
	movq	$1, (%rax)
	.loc	37 821 9 is_stmt 1
	jmp	LBB110_3
Ltmp676:
LBB110_2:
	.loc	37 0 9 is_stmt 0
	movq	-80(%rbp), %rax
	.loc	37 822 40 is_stmt 1
	movq	(%rax), %rsi
	movq	8(%rax), %rdx
	.loc	37 822 51 is_stmt 0
	movq	16(%rax), %rcx
	.loc	37 822 25
	leaq	-48(%rbp), %rdi
	callq	__ZN5alloc11collections5btree4node137Handle$LT$alloc..collections..btree..node..NodeRef$LT$BorrowType$C$K$C$V$C$NodeType$GT$$C$alloc..collections..btree..node..marker..KV$GT$6new_kv17hb6e88b644eb85d39E
	movq	-72(%rbp), %rax
	.loc	37 822 13
	movq	-48(%rbp), %rcx
	movq	%rcx, 8(%rax)
	movq	-40(%rbp), %rcx
	movq	%rcx, 16(%rax)
	movq	-32(%rbp), %rcx
	movq	%rcx, 24(%rax)
	movq	$0, (%rax)
Ltmp677:
LBB110_3:
	.loc	37 0 13
	movq	-64(%rbp), %rax
	.loc	37 826 6 is_stmt 1
	addq	$80, %rsp
	popq	%rbp
	retq
Ltmp678:
Lfunc_end110:
	.cfi_endproc

	.globl	__ZN5alloc11collections5btree4node145Handle$LT$alloc..collections..btree..node..NodeRef$LT$BorrowType$C$K$C$V$C$alloc..collections..btree..node..marker..LeafOrInternal$GT$$C$Type$GT$5force17h4ff54e1c7414013cE
	.p2align	4, 0x90
__ZN5alloc11collections5btree4node145Handle$LT$alloc..collections..btree..node..NodeRef$LT$BorrowType$C$K$C$V$C$alloc..collections..btree..node..marker..LeafOrInternal$GT$$C$Type$GT$5force17h4ff54e1c7414013cE:
Lfunc_begin111:
	.loc	37 1561 0
	.cfi_startproc
	pushq	%rbp
	.cfi_def_cfa_offset 16
	.cfi_offset %rbp, -16
	movq	%rsp, %rbp
	.cfi_def_cfa_register %rbp
	subq	$128, %rsp
	movq	%rsi, %rax
	movq	%rax, -128(%rbp)
Ltmp679:
	movq	%rdi, -120(%rbp)
	movq	%rdi, -112(%rbp)
Ltmp680:
	.loc	37 1567 15 prologue_end
	movq	(%rax), %rsi
	movq	8(%rax), %rdx
	leaq	-104(%rbp), %rdi
	callq	__ZN5alloc11collections5btree4node91NodeRef$LT$BorrowType$C$K$C$V$C$alloc..collections..btree..node..marker..LeafOrInternal$GT$5force17he9ecb7aa72a32d04E
Ltmp681:
	.loc	37 1567 9 is_stmt 0
	cmpq	$0, -104(%rbp)
Ltmp682:
	jne	LBB111_2
Ltmp683:
	.loc	37 0 9
	movq	-120(%rbp), %rax
	movq	-128(%rbp), %rcx
	.loc	37 1568 31 is_stmt 1
	movq	-96(%rbp), %rsi
	movq	-88(%rbp), %rdx
	movq	%rsi, -16(%rbp)
	movq	%rdx, -8(%rbp)
Ltmp684:
	.loc	37 1569 55
	movq	16(%rcx), %rcx
	.loc	37 1569 35 is_stmt 0
	movq	%rsi, -80(%rbp)
	movq	%rdx, -72(%rbp)
	movq	%rcx, -64(%rbp)
	.loc	37 1569 17
	movq	-80(%rbp), %rcx
	movq	%rcx, 8(%rax)
	movq	-72(%rbp), %rcx
	movq	%rcx, 16(%rax)
	movq	-64(%rbp), %rcx
	movq	%rcx, 24(%rax)
	movq	$0, (%rax)
Ltmp685:
	.loc	37 1570 13 is_stmt 1
	jmp	LBB111_3
Ltmp686:
LBB111_2:
	.loc	37 0 13 is_stmt 0
	movq	-120(%rbp), %rax
	movq	-128(%rbp), %rcx
	.loc	37 1571 35 is_stmt 1
	movq	-96(%rbp), %rsi
	movq	-88(%rbp), %rdx
	movq	%rsi, -32(%rbp)
	movq	%rdx, -24(%rbp)
Ltmp687:
	.loc	37 1572 59
	movq	16(%rcx), %rcx
	.loc	37 1572 39 is_stmt 0
	movq	%rsi, -56(%rbp)
	movq	%rdx, -48(%rbp)
	movq	%rcx, -40(%rbp)
	.loc	37 1572 17
	movq	-56(%rbp), %rcx
	movq	%rcx, 8(%rax)
	movq	-48(%rbp), %rcx
	movq	%rcx, 16(%rax)
	movq	-40(%rbp), %rcx
	movq	%rcx, 24(%rax)
	movq	$1, (%rax)
Ltmp688:
LBB111_3:
	.loc	37 0 17
	movq	-112(%rbp), %rax
	.loc	37 1575 6 is_stmt 1
	addq	$128, %rsp
	popq	%rbp
	retq
Ltmp689:
Lfunc_end111:
	.cfi_endproc

	.globl	__ZN5alloc11collections5btree4node173Handle$LT$alloc..collections..btree..node..NodeRef$LT$alloc..collections..btree..node..marker..Dying$C$K$C$V$C$NodeType$GT$$C$alloc..collections..btree..node..marker..KV$GT$12drop_key_val17hbc0b77a3ce2c7c1fE
	.p2align	4, 0x90
__ZN5alloc11collections5btree4node173Handle$LT$alloc..collections..btree..node..NodeRef$LT$alloc..collections..btree..node..marker..Dying$C$K$C$V$C$NodeType$GT$$C$alloc..collections..btree..node..marker..KV$GT$12drop_key_val17hbc0b77a3ce2c7c1fE:
Lfunc_begin112:
	.loc	37 1092 0
	.cfi_startproc
	pushq	%rbp
	.cfi_def_cfa_offset 16
	.cfi_offset %rbp, -16
	movq	%rsp, %rbp
	.cfi_def_cfa_register %rbp
	subq	$240, %rsp
	movq	%rdi, -224(%rbp)
Ltmp690:
	.loc	37 1094 20 prologue_end
	callq	__ZN5alloc11collections5btree4node76NodeRef$LT$alloc..collections..btree..node..marker..Dying$C$K$C$V$C$Type$GT$13as_leaf_dying17h01d62f52020b3a3fE
	movq	-224(%rbp), %rdi
	movq	%rax, -232(%rbp)
	movq	%rax, -216(%rbp)
Ltmp691:
	.loc	37 1096 13
	addq	$8, %rax
	movq	%rax, -208(%rbp)
	movq	$11, -200(%rbp)
	.loc	37 1096 41 is_stmt 0
	movq	16(%rdi), %rcx
	movq	%rcx, -192(%rbp)
Ltmp692:
	.file	38 "/rustc/2c8cc343237b8f7d5a3c3703e3a87f2eb2c54a74/library/core/src/slice" "mod.rs"
	.loc	38 443 24 is_stmt 1
	movq	%rcx, -184(%rbp)
	.loc	38 443 48 is_stmt 0
	movq	%rax, -176(%rbp)
	movq	$11, -168(%rbp)
Ltmp693:
	.file	39 "/rustc/2c8cc343237b8f7d5a3c3703e3a87f2eb2c54a74/library/core/src/slice" "index.rs"
	.loc	39 253 13 is_stmt 1
	movq	%rax, -160(%rbp)
	movq	$11, -152(%rbp)
Ltmp694:
	.loc	12 2037 9
	movq	%rax, -144(%rbp)
Ltmp695:
	.loc	39 253 36
	movq	%rcx, -136(%rbp)
Ltmp696:
	.loc	12 1034 18
	movq	%rax, -128(%rbp)
	.loc	12 1034 30 is_stmt 0
	movq	%rcx, -120(%rbp)
Ltmp697:
	.loc	12 487 18 is_stmt 1
	imulq	$24, %rcx, %rcx
	addq	%rcx, %rax
	movq	%rax, -112(%rbp)
	movq	-112(%rbp), %rdi
Ltmp698:
	.loc	37 1096 13
	callq	__ZN4core3mem12maybe_uninit20MaybeUninit$LT$T$GT$16assume_init_drop17h22712064a1951715E
	movq	-232(%rbp), %rax
	movq	-224(%rbp), %rdi
	.loc	37 1097 13
	addq	$272, %rax
	movq	%rax, -104(%rbp)
	movq	$11, -96(%rbp)
	.loc	37 1097 41 is_stmt 0
	movq	16(%rdi), %rcx
	movq	%rcx, -88(%rbp)
Ltmp699:
	.loc	38 443 24 is_stmt 1
	movq	%rcx, -80(%rbp)
	.loc	38 443 48 is_stmt 0
	movq	%rax, -72(%rbp)
	movq	$11, -64(%rbp)
Ltmp700:
	.loc	39 253 13 is_stmt 1
	movq	%rax, -56(%rbp)
	movq	$11, -48(%rbp)
Ltmp701:
	.loc	12 2037 9
	movq	%rax, -40(%rbp)
Ltmp702:
	.loc	39 253 36
	movq	%rcx, -32(%rbp)
Ltmp703:
	.loc	12 1034 18
	movq	%rax, -24(%rbp)
	.loc	12 1034 30 is_stmt 0
	movq	%rcx, -16(%rbp)
Ltmp704:
	.loc	12 487 18 is_stmt 1
	imulq	$24, %rcx, %rcx
	addq	%rcx, %rax
	movq	%rax, -8(%rbp)
	movq	-8(%rbp), %rdi
Ltmp705:
	.loc	37 1097 13
	callq	__ZN4core3mem12maybe_uninit20MaybeUninit$LT$T$GT$16assume_init_drop17hbd4213a0627de8a5E
Ltmp706:
	.loc	37 1099 6
	addq	$240, %rsp
	popq	%rbp
	retq
Ltmp707:
Lfunc_end112:
	.cfi_endproc

	.globl	__ZN5alloc11collections5btree4node176Handle$LT$alloc..collections..btree..node..NodeRef$LT$BorrowType$C$K$C$V$C$alloc..collections..btree..node..marker..Leaf$GT$$C$alloc..collections..btree..node..marker..Edge$GT$16forget_node_type17h9414e4aa8048b998E
	.p2align	4, 0x90
__ZN5alloc11collections5btree4node176Handle$LT$alloc..collections..btree..node..NodeRef$LT$BorrowType$C$K$C$V$C$alloc..collections..btree..node..marker..Leaf$GT$$C$alloc..collections..btree..node..marker..Edge$GT$16forget_node_type17h9414e4aa8048b998E:
Lfunc_begin113:
	.loc	37 1536 0
	.cfi_startproc
	pushq	%rbp
	.cfi_def_cfa_offset 16
	.cfi_offset %rbp, -16
	movq	%rsp, %rbp
	.cfi_def_cfa_register %rbp
	subq	$32, %rsp
	movq	%rsi, -16(%rbp)
	movq	%rdi, -24(%rbp)
	movq	%rdi, -8(%rbp)
Ltmp708:
	.loc	37 1539 35 prologue_end
	movq	(%rsi), %rdi
	movq	8(%rsi), %rsi
	callq	__ZN5alloc11collections5btree4node81NodeRef$LT$BorrowType$C$K$C$V$C$alloc..collections..btree..node..marker..Leaf$GT$11forget_type17h7543754ed96ffd67E
	movq	-24(%rbp), %rdi
	movq	%rax, %rsi
	movq	-16(%rbp), %rax
	.loc	37 1539 60 is_stmt 0
	movq	16(%rax), %rcx
	.loc	37 1539 18
	callq	__ZN5alloc11collections5btree4node139Handle$LT$alloc..collections..btree..node..NodeRef$LT$BorrowType$C$K$C$V$C$NodeType$GT$$C$alloc..collections..btree..node..marker..Edge$GT$8new_edge17hb9db1df160c37464E
	movq	-8(%rbp), %rax
	.loc	37 1540 6 is_stmt 1
	addq	$32, %rsp
	popq	%rbp
	retq
Ltmp709:
Lfunc_end113:
	.cfi_endproc

	.globl	__ZN5alloc11collections5btree4node180Handle$LT$alloc..collections..btree..node..NodeRef$LT$BorrowType$C$K$C$V$C$alloc..collections..btree..node..marker..Internal$GT$$C$alloc..collections..btree..node..marker..Edge$GT$16forget_node_type17ha1ec5cf0357b3af6E
	.p2align	4, 0x90
__ZN5alloc11collections5btree4node180Handle$LT$alloc..collections..btree..node..NodeRef$LT$BorrowType$C$K$C$V$C$alloc..collections..btree..node..marker..Internal$GT$$C$alloc..collections..btree..node..marker..Edge$GT$16forget_node_type17ha1ec5cf0357b3af6E:
Lfunc_begin114:
	.loc	37 1544 0
	.cfi_startproc
	pushq	%rbp
	.cfi_def_cfa_offset 16
	.cfi_offset %rbp, -16
	movq	%rsp, %rbp
	.cfi_def_cfa_register %rbp
	subq	$32, %rsp
	movq	%rsi, -16(%rbp)
	movq	%rdi, -24(%rbp)
	movq	%rdi, -8(%rbp)
Ltmp710:
	.loc	37 1547 35 prologue_end
	movq	(%rsi), %rdi
	movq	8(%rsi), %rsi
	callq	__ZN5alloc11collections5btree4node85NodeRef$LT$BorrowType$C$K$C$V$C$alloc..collections..btree..node..marker..Internal$GT$11forget_type17hfc959f2a7453a054E
	movq	-24(%rbp), %rdi
	movq	%rax, %rsi
	movq	-16(%rbp), %rax
	.loc	37 1547 60 is_stmt 0
	movq	16(%rax), %rcx
	.loc	37 1547 18
	callq	__ZN5alloc11collections5btree4node139Handle$LT$alloc..collections..btree..node..NodeRef$LT$BorrowType$C$K$C$V$C$NodeType$GT$$C$alloc..collections..btree..node..marker..Edge$GT$8new_edge17hb9db1df160c37464E
	movq	-8(%rbp), %rax
	.loc	37 1548 6 is_stmt 1
	addq	$32, %rsp
	popq	%rbp
	retq
Ltmp711:
Lfunc_end114:
	.cfi_endproc

	.globl	__ZN5alloc11collections5btree4node180Handle$LT$alloc..collections..btree..node..NodeRef$LT$BorrowType$C$K$C$V$C$alloc..collections..btree..node..marker..Internal$GT$$C$alloc..collections..btree..node..marker..Edge$GT$7descend17hd03c028d6158d45cE
	.p2align	4, 0x90
__ZN5alloc11collections5btree4node180Handle$LT$alloc..collections..btree..node..NodeRef$LT$BorrowType$C$K$C$V$C$alloc..collections..btree..node..marker..Internal$GT$$C$alloc..collections..btree..node..marker..Edge$GT$7descend17hd03c028d6158d45cE:
Lfunc_begin115:
	.loc	37 1008 0
	.cfi_startproc
	pushq	%rbp
	.cfi_def_cfa_offset 16
	.cfi_offset %rbp, -16
	movq	%rsp, %rbp
	.cfi_def_cfa_register %rbp
	subq	$208, %rsp
	movq	%rdi, -208(%rbp)
Ltmp712:
	.loc	37 1020 26 prologue_end
	callq	__ZN5alloc11collections5btree4node85NodeRef$LT$BorrowType$C$K$C$V$C$alloc..collections..btree..node..marker..Internal$GT$15as_internal_ptr17hbbc1904b5617579fE
	movq	-208(%rbp), %rdi
	movq	%rax, -176(%rbp)
Ltmp713:
	.loc	37 1021 29
	movq	%rax, %rdx
	addq	$544, %rdx
	movq	%rdx, -168(%rbp)
	movq	$12, -160(%rbp)
	.loc	37 1021 63 is_stmt 0
	movq	16(%rdi), %rcx
	movq	%rcx, -152(%rbp)
Ltmp714:
	.loc	38 405 20 is_stmt 1
	movq	%rcx, -144(%rbp)
	.loc	38 405 40 is_stmt 0
	movq	%rdx, -136(%rbp)
	movq	$12, -128(%rbp)
Ltmp715:
	.loc	39 240 13 is_stmt 1
	movq	%rdx, -120(%rbp)
	movq	$12, -112(%rbp)
Ltmp716:
	.file	40 "/rustc/2c8cc343237b8f7d5a3c3703e3a87f2eb2c54a74/library/core/src/ptr" "const_ptr.rs"
	.loc	40 1650 9
	movq	%rdx, -104(%rbp)
Ltmp717:
	.loc	39 240 32
	movq	%rcx, -96(%rbp)
Ltmp718:
	.loc	40 932 18
	movq	%rdx, -88(%rbp)
	.loc	40 932 30 is_stmt 0
	movq	%rcx, -80(%rbp)
Ltmp719:
	.loc	40 473 18 is_stmt 1
	leaq	544(%rax,%rcx,8), %rax
	movq	%rax, -72(%rbp)
	movq	-72(%rbp), %rax
Ltmp720:
	.loc	37 1021 29
	movq	%rax, -64(%rbp)
Ltmp721:
	.loc	23 697 13
	movq	%rax, -56(%rbp)
Ltmp722:
	.loc	23 530 9
	movq	%rax, -48(%rbp)
Ltmp723:
	.loc	40 1216 23
	movq	%rax, -40(%rbp)
	leaq	-184(%rbp), %rcx
Ltmp724:
	.loc	4 1157 34
	movq	%rcx, -32(%rbp)
	.loc	4 1157 9 is_stmt 0
	movq	(%rax), %rax
	movq	%rax, -184(%rbp)
	.loc	4 1158 9 is_stmt 1
	movq	-184(%rbp), %rax
	movq	%rax, -24(%rbp)
Ltmp725:
	.loc	23 627 38
	movq	%rax, -16(%rbp)
Ltmp726:
	.loc	2 89 9
	movq	%rax, -8(%rbp)
Ltmp727:
	.loc	37 1022 33
	movq	(%rdi), %rcx
	decq	%rcx
	.loc	37 1022 9 is_stmt 0
	movq	%rcx, -200(%rbp)
	movq	%rax, -192(%rbp)
Ltmp728:
	.loc	37 1023 6 is_stmt 1
	movq	-200(%rbp), %rax
	movq	-192(%rbp), %rdx
	addq	$208, %rsp
	popq	%rbp
	retq
Ltmp729:
Lfunc_end115:
	.cfi_endproc

	.globl	__ZN5alloc11collections5btree4node25Handle$LT$Node$C$Type$GT$9into_node17hba20bf817d549b28E
	.p2align	4, 0x90
__ZN5alloc11collections5btree4node25Handle$LT$Node$C$Type$GT$9into_node17hba20bf817d549b28E:
Lfunc_begin116:
	.loc	37 742 0
	.cfi_startproc
	pushq	%rbp
	.cfi_def_cfa_offset 16
	.cfi_offset %rbp, -16
	movq	%rsp, %rbp
	.cfi_def_cfa_register %rbp
Ltmp730:
	.loc	37 743 9 prologue_end
	movq	(%rdi), %rax
	movq	8(%rdi), %rdx
	.loc	37 744 6
	popq	%rbp
	retq
Ltmp731:
Lfunc_end116:
	.cfi_endproc

	.globl	__ZN5alloc11collections5btree4node40NodeRef$LT$BorrowType$C$K$C$V$C$Type$GT$10first_edge17h4f0e6f16691d656dE
	.p2align	4, 0x90
__ZN5alloc11collections5btree4node40NodeRef$LT$BorrowType$C$K$C$V$C$Type$GT$10first_edge17h4f0e6f16691d656dE:
Lfunc_begin117:
	.loc	37 338 0
	.cfi_startproc
	pushq	%rbp
	.cfi_def_cfa_offset 16
	.cfi_offset %rbp, -16
	movq	%rsp, %rbp
	.cfi_def_cfa_register %rbp
	subq	$32, %rsp
	movq	%rdi, %rax
	movq	%rax, -24(%rbp)
	movq	%rsi, -16(%rbp)
	movq	%rdx, -8(%rbp)
Ltmp732:
	.loc	37 339 18 prologue_end
	xorl	%eax, %eax
	movl	%eax, %ecx
	callq	__ZN5alloc11collections5btree4node139Handle$LT$alloc..collections..btree..node..NodeRef$LT$BorrowType$C$K$C$V$C$NodeType$GT$$C$alloc..collections..btree..node..marker..Edge$GT$8new_edge17h03b944c61d226be6E
	movq	-24(%rbp), %rax
	.loc	37 340 6
	addq	$32, %rsp
	popq	%rbp
	retq
Ltmp733:
Lfunc_end117:
	.cfi_endproc

	.globl	__ZN5alloc11collections5btree4node40NodeRef$LT$BorrowType$C$K$C$V$C$Type$GT$10first_edge17hdbf7decae7c01848E
	.p2align	4, 0x90
__ZN5alloc11collections5btree4node40NodeRef$LT$BorrowType$C$K$C$V$C$Type$GT$10first_edge17hdbf7decae7c01848E:
Lfunc_begin118:
	.loc	37 338 0
	.cfi_startproc
	pushq	%rbp
	.cfi_def_cfa_offset 16
	.cfi_offset %rbp, -16
	movq	%rsp, %rbp
	.cfi_def_cfa_register %rbp
	subq	$32, %rsp
	movq	%rdi, %rax
	movq	%rax, -24(%rbp)
	movq	%rsi, -16(%rbp)
	movq	%rdx, -8(%rbp)
Ltmp734:
	.loc	37 339 18 prologue_end
	xorl	%eax, %eax
	movl	%eax, %ecx
	callq	__ZN5alloc11collections5btree4node139Handle$LT$alloc..collections..btree..node..NodeRef$LT$BorrowType$C$K$C$V$C$NodeType$GT$$C$alloc..collections..btree..node..marker..Edge$GT$8new_edge17h5638a4e5cfe81df2E
	movq	-24(%rbp), %rax
	.loc	37 340 6
	addq	$32, %rsp
	popq	%rbp
	retq
Ltmp735:
Lfunc_end118:
	.cfi_endproc

	.globl	__ZN5alloc11collections5btree4node40NodeRef$LT$BorrowType$C$K$C$V$C$Type$GT$11as_leaf_ptr17hcd90353717c01e1dE
	.p2align	4, 0x90
__ZN5alloc11collections5btree4node40NodeRef$LT$BorrowType$C$K$C$V$C$Type$GT$11as_leaf_ptr17hcd90353717c01e1dE:
Lfunc_begin119:
	.loc	37 300 0
	.cfi_startproc
	pushq	%rbp
	.cfi_def_cfa_offset 16
	.cfi_offset %rbp, -16
	movq	%rsp, %rbp
	.cfi_def_cfa_register %rbp
	subq	$16, %rsp
	movq	%rdi, -16(%rbp)
Ltmp736:
	.loc	37 304 9 prologue_end
	movq	8(%rdi), %rax
	movq	%rax, -8(%rbp)
	.loc	37 305 6
	addq	$16, %rsp
	popq	%rbp
	retq
Ltmp737:
Lfunc_end119:
	.cfi_endproc

	.globl	__ZN5alloc11collections5btree4node40NodeRef$LT$BorrowType$C$K$C$V$C$Type$GT$3len17h6b697a4eccaaf943E
	.p2align	4, 0x90
__ZN5alloc11collections5btree4node40NodeRef$LT$BorrowType$C$K$C$V$C$Type$GT$3len17h6b697a4eccaaf943E:
Lfunc_begin120:
	.loc	37 277 0
	.cfi_startproc
	pushq	%rbp
	.cfi_def_cfa_offset 16
	.cfi_offset %rbp, -16
	movq	%rsp, %rbp
	.cfi_def_cfa_register %rbp
	subq	$16, %rsp
	movq	%rdi, -16(%rbp)
Ltmp738:
	.loc	37 280 32 prologue_end
	callq	__ZN5alloc11collections5btree4node40NodeRef$LT$BorrowType$C$K$C$V$C$Type$GT$11as_leaf_ptr17hcd90353717c01e1dE
	.loc	37 280 30 is_stmt 0
	movw	538(%rax), %ax
	movw	%ax, -2(%rbp)
Ltmp739:
	.file	41 "/rustc/2c8cc343237b8f7d5a3c3703e3a87f2eb2c54a74/library/core/src/convert" "num.rs"
	.loc	41 54 17 is_stmt 1
	movzwl	%ax, %eax
Ltmp740:
	.loc	37 281 6
	addq	$16, %rsp
	popq	%rbp
	retq
Ltmp741:
Lfunc_end120:
	.cfi_endproc

	.globl	__ZN5alloc11collections5btree4node40NodeRef$LT$BorrowType$C$K$C$V$C$Type$GT$6ascend17hb44ce64992f7d5b0E
	.p2align	4, 0x90
__ZN5alloc11collections5btree4node40NodeRef$LT$BorrowType$C$K$C$V$C$Type$GT$6ascend17hb44ce64992f7d5b0E:
Lfunc_begin121:
	.loc	37 318 0
	.cfi_startproc
	pushq	%rbp
	.cfi_def_cfa_offset 16
	.cfi_offset %rbp, -16
	movq	%rsp, %rbp
	.cfi_def_cfa_register %rbp
	subq	$192, %rsp
	movq	%rdi, -176(%rbp)
	movq	%rdi, -168(%rbp)
	movq	%rsi, -160(%rbp)
	movq	%rdx, -152(%rbp)
Ltmp742:
	.loc	37 327 34 prologue_end
	leaq	-160(%rbp), %rdi
	callq	__ZN5alloc11collections5btree4node40NodeRef$LT$BorrowType$C$K$C$V$C$Type$GT$11as_leaf_ptr17hcd90353717c01e1dE
	movq	%rax, -144(%rbp)
Ltmp743:
	.loc	37 328 18
	movq	-144(%rbp), %rax
	movq	(%rax), %rax
	movq	%rax, -104(%rbp)
	.loc	37 328 9 is_stmt 0
	leaq	-104(%rbp), %rax
	movq	%rax, -32(%rbp)
Ltmp744:
	.loc	3 675 15 is_stmt 1
	movq	-104(%rbp), %rdx
	movl	$1, %eax
	xorl	%ecx, %ecx
	cmpq	$0, %rdx
	cmoveq	%rcx, %rax
	.loc	3 675 9 is_stmt 0
	cmpq	$0, %rax
	jne	LBB121_2
	.loc	3 677 21 is_stmt 1
	movq	$0, -112(%rbp)
	jmp	LBB121_3
LBB121_2:
	.loc	3 676 18
	leaq	-104(%rbp), %rax
	movq	%rax, -24(%rbp)
Ltmp745:
	.loc	3 676 28 is_stmt 0
	leaq	-104(%rbp), %rax
	movq	%rax, -112(%rbp)
Ltmp746:
LBB121_3:
	.loc	37 330 18 is_stmt 1
	leaq	-160(%rbp), %rax
	movq	%rax, -96(%rbp)
	leaq	-144(%rbp), %rax
	movq	%rax, -88(%rbp)
	.loc	37 328 9
	movq	-112(%rbp), %rsi
	movq	-96(%rbp), %rdx
	movq	-88(%rbp), %rcx
	leaq	-136(%rbp), %rdi
	callq	__ZN4core6option15Option$LT$T$GT$3map17h59bd70d1de0da35bE
	.loc	37 335 20
	movq	-160(%rbp), %rcx
	movq	%rcx, -192(%rbp)
	movq	-152(%rbp), %rax
	movq	%rax, -184(%rbp)
	movq	%rcx, -16(%rbp)
	movq	%rax, -8(%rbp)
Ltmp747:
	.loc	3 1096 15
	movq	-128(%rbp), %rdx
	movl	$1, %eax
	xorl	%ecx, %ecx
	cmpq	$0, %rdx
	cmoveq	%rcx, %rax
	.loc	3 1096 9 is_stmt 0
	cmpq	$0, %rax
	jne	LBB121_5
	.loc	3 0 9
	movq	-176(%rbp), %rax
	movq	-184(%rbp), %rcx
	movq	-192(%rbp), %rdx
	.loc	3 1098 21 is_stmt 1
	movq	%rdx, 8(%rax)
	movq	%rcx, 16(%rax)
	movq	$1, (%rax)
	.loc	3 1098 28 is_stmt 0
	jmp	LBB121_6
LBB121_5:
	.loc	3 0 28
	movq	-176(%rbp), %rax
	.loc	3 1097 18 is_stmt 1
	movq	-136(%rbp), %rcx
	movq	%rcx, -80(%rbp)
	movq	-128(%rbp), %rcx
	movq	%rcx, -72(%rbp)
	movq	-120(%rbp), %rcx
	movq	%rcx, -64(%rbp)
Ltmp748:
	.loc	3 1097 27 is_stmt 0
	movq	-80(%rbp), %rcx
	movq	%rcx, -56(%rbp)
	movq	-72(%rbp), %rcx
	movq	%rcx, -48(%rbp)
	movq	-64(%rbp), %rcx
	movq	%rcx, -40(%rbp)
	.loc	3 1097 24
	movq	-56(%rbp), %rcx
	movq	%rcx, 8(%rax)
	movq	-48(%rbp), %rcx
	movq	%rcx, 16(%rax)
	movq	-40(%rbp), %rcx
	movq	%rcx, 24(%rax)
	movq	$0, (%rax)
Ltmp749:
LBB121_6:
	.loc	3 0 24
	movq	-168(%rbp), %rax
	.loc	37 336 6 is_stmt 1
	addq	$192, %rsp
	popq	%rbp
	retq
Ltmp750:
Lfunc_end121:
	.cfi_endproc

	.globl	__ZN5alloc11collections5btree4node40NodeRef$LT$BorrowType$C$K$C$V$C$Type$GT$6ascend28_$u7b$$u7b$closure$u7d$$u7d$17h568aff305173c139E
	.p2align	4, 0x90
__ZN5alloc11collections5btree4node40NodeRef$LT$BorrowType$C$K$C$V$C$Type$GT$6ascend28_$u7b$$u7b$closure$u7d$$u7d$17h568aff305173c139E:
Lfunc_begin122:
	.loc	37 330 0
	.cfi_startproc
	pushq	%rbp
	.cfi_def_cfa_offset 16
	.cfi_offset %rbp, -16
	movq	%rsp, %rbp
	.cfi_def_cfa_register %rbp
	subq	$48, %rsp
	movq	%rdi, -48(%rbp)
	movq	%rdi, -40(%rbp)
	movq	%rsi, -32(%rbp)
	movq	%rdx, -24(%rbp)
	movq	%rcx, -16(%rbp)
Ltmp751:
	.loc	37 331 46 prologue_end
	movq	(%rcx), %rdi
	.loc	37 331 55 is_stmt 0
	movq	-32(%rbp), %rax
	movq	(%rax), %rsi
	addq	$1, %rsi
	.loc	37 331 23
	callq	__ZN5alloc11collections5btree4node85NodeRef$LT$BorrowType$C$K$C$V$C$alloc..collections..btree..node..marker..Internal$GT$13from_internal17hf437a97e836aaae5E
	movq	-48(%rbp), %rdi
	movq	%rax, %rsi
	movq	-40(%rbp), %rax
	.loc	37 332 43 is_stmt 1
	movq	-24(%rbp), %rcx
	movq	(%rcx), %rcx
	movw	536(%rcx), %cx
	movw	%cx, -6(%rbp)
Ltmp752:
	.loc	23 627 38
	movw	%cx, -4(%rbp)
Ltmp753:
	.loc	2 89 9
	movw	%cx, -2(%rbp)
Ltmp754:
	.loc	41 54 17
	movzwl	%cx, %ecx
Ltmp755:
	.loc	37 330 27
	movq	%rsi, (%rdi)
	movq	%rdx, 8(%rdi)
	movq	%rcx, 16(%rdi)
	.loc	37 334 14
	addq	$48, %rsp
	popq	%rbp
	retq
Ltmp756:
Lfunc_end122:
	.cfi_endproc

	.globl	__ZN5alloc11collections5btree4node76NodeRef$LT$alloc..collections..btree..node..marker..Dying$C$K$C$V$C$Type$GT$13as_leaf_dying17h01d62f52020b3a3fE
	.p2align	4, 0x90
__ZN5alloc11collections5btree4node76NodeRef$LT$alloc..collections..btree..node..marker..Dying$C$K$C$V$C$Type$GT$13as_leaf_dying17h01d62f52020b3a3fE:
Lfunc_begin123:
	.loc	37 449 0
	.cfi_startproc
	pushq	%rbp
	.cfi_def_cfa_offset 16
	.cfi_offset %rbp, -16
	movq	%rsp, %rbp
	.cfi_def_cfa_register %rbp
	subq	$16, %rsp
	movq	%rdi, -16(%rbp)
Ltmp757:
	.loc	37 450 19 prologue_end
	callq	__ZN5alloc11collections5btree4node40NodeRef$LT$BorrowType$C$K$C$V$C$Type$GT$11as_leaf_ptr17hcd90353717c01e1dE
	movq	%rax, -8(%rbp)
	.loc	37 453 6
	addq	$16, %rsp
	popq	%rbp
	retq
Ltmp758:
Lfunc_end123:
	.cfi_endproc

	.globl	__ZN5alloc11collections5btree4node76NodeRef$LT$alloc..collections..btree..node..marker..Owned$C$K$C$V$C$Type$GT$10into_dying17h6eb21c02f8671ac0E
	.p2align	4, 0x90
__ZN5alloc11collections5btree4node76NodeRef$LT$alloc..collections..btree..node..marker..Owned$C$K$C$V$C$Type$GT$10into_dying17h6eb21c02f8671ac0E:
Lfunc_begin124:
	.loc	37 626 0
	.cfi_startproc
	pushq	%rbp
	.cfi_def_cfa_offset 16
	.cfi_offset %rbp, -16
	movq	%rsp, %rbp
	.cfi_def_cfa_register %rbp
	subq	$32, %rsp
	movq	%rdi, -16(%rbp)
	movq	%rsi, -8(%rbp)
Ltmp759:
	.loc	37 627 9 prologue_end
	movq	%rdi, -32(%rbp)
	movq	%rsi, -24(%rbp)
	.loc	37 628 6
	movq	-32(%rbp), %rax
	movq	-24(%rbp), %rdx
	addq	$32, %rsp
	popq	%rbp
	retq
Ltmp760:
Lfunc_end124:
	.cfi_endproc

	.globl	__ZN5alloc11collections5btree4node81NodeRef$LT$BorrowType$C$K$C$V$C$alloc..collections..btree..node..marker..Leaf$GT$11forget_type17h7543754ed96ffd67E
	.p2align	4, 0x90
__ZN5alloc11collections5btree4node81NodeRef$LT$BorrowType$C$K$C$V$C$alloc..collections..btree..node..marker..Leaf$GT$11forget_type17h7543754ed96ffd67E:
Lfunc_begin125:
	.loc	37 667 0
	.cfi_startproc
	pushq	%rbp
	.cfi_def_cfa_offset 16
	.cfi_offset %rbp, -16
	movq	%rsp, %rbp
	.cfi_def_cfa_register %rbp
	subq	$32, %rsp
	movq	%rdi, -16(%rbp)
	movq	%rsi, -8(%rbp)
Ltmp761:
	.loc	37 668 9 prologue_end
	movq	%rdi, -32(%rbp)
	movq	%rsi, -24(%rbp)
	.loc	37 669 6
	movq	-32(%rbp), %rax
	movq	-24(%rbp), %rdx
	addq	$32, %rsp
	popq	%rbp
	retq
Ltmp762:
Lfunc_end125:
	.cfi_endproc

	.globl	__ZN5alloc11collections5btree4node85NodeRef$LT$BorrowType$C$K$C$V$C$alloc..collections..btree..node..marker..Internal$GT$11forget_type17hfc959f2a7453a054E
	.p2align	4, 0x90
__ZN5alloc11collections5btree4node85NodeRef$LT$BorrowType$C$K$C$V$C$alloc..collections..btree..node..marker..Internal$GT$11forget_type17hfc959f2a7453a054E:
Lfunc_begin126:
	.loc	37 674 0
	.cfi_startproc
	pushq	%rbp
	.cfi_def_cfa_offset 16
	.cfi_offset %rbp, -16
	movq	%rsp, %rbp
	.cfi_def_cfa_register %rbp
	subq	$32, %rsp
	movq	%rdi, -16(%rbp)
	movq	%rsi, -8(%rbp)
Ltmp763:
	.loc	37 675 9 prologue_end
	movq	%rdi, -32(%rbp)
	movq	%rsi, -24(%rbp)
	.loc	37 676 6
	movq	-32(%rbp), %rax
	movq	-24(%rbp), %rdx
	addq	$32, %rsp
	popq	%rbp
	retq
Ltmp764:
Lfunc_end126:
	.cfi_endproc

	.globl	__ZN5alloc11collections5btree4node85NodeRef$LT$BorrowType$C$K$C$V$C$alloc..collections..btree..node..marker..Internal$GT$13from_internal17hf437a97e836aaae5E
	.p2align	4, 0x90
__ZN5alloc11collections5btree4node85NodeRef$LT$BorrowType$C$K$C$V$C$alloc..collections..btree..node..marker..Internal$GT$13from_internal17hf437a97e836aaae5E:
Lfunc_begin127:
	.loc	37 248 0
	.cfi_startproc
	pushq	%rbp
	.cfi_def_cfa_offset 16
	.cfi_offset %rbp, -16
	movq	%rsp, %rbp
	.cfi_def_cfa_register %rbp
	subq	$64, %rsp
	movq	%rdi, -40(%rbp)
	movq	%rsi, -32(%rbp)
Ltmp765:
	.loc	37 250 33 prologue_end
	movq	%rdi, -24(%rbp)
Ltmp766:
	.loc	11 450 41
	movq	%rdi, -16(%rbp)
	movq	%rdi, -8(%rbp)
Ltmp767:
	.loc	11 201 13
	movq	%rdi, -48(%rbp)
Ltmp768:
	.loc	37 250 9
	movq	%rsi, -64(%rbp)
	movq	-48(%rbp), %rax
	movq	%rax, -56(%rbp)
	.loc	37 251 6
	movq	-64(%rbp), %rax
	movq	-56(%rbp), %rdx
	addq	$64, %rsp
	popq	%rbp
	retq
Ltmp769:
Lfunc_end127:
	.cfi_endproc

	.globl	__ZN5alloc11collections5btree4node85NodeRef$LT$BorrowType$C$K$C$V$C$alloc..collections..btree..node..marker..Internal$GT$15as_internal_ptr17hbbc1904b5617579fE
	.p2align	4, 0x90
__ZN5alloc11collections5btree4node85NodeRef$LT$BorrowType$C$K$C$V$C$alloc..collections..btree..node..marker..Internal$GT$15as_internal_ptr17hbbc1904b5617579fE:
Lfunc_begin128:
	.loc	37 258 0
	.cfi_startproc
	pushq	%rbp
	.cfi_def_cfa_offset 16
	.cfi_offset %rbp, -16
	movq	%rsp, %rbp
	.cfi_def_cfa_register %rbp
	subq	$16, %rsp
	movq	%rdi, -16(%rbp)
Ltmp770:
	.loc	37 260 9 prologue_end
	movq	8(%rdi), %rax
	movq	%rax, -8(%rbp)
	.loc	37 261 6
	addq	$16, %rsp
	popq	%rbp
	retq
Ltmp771:
Lfunc_end128:
	.cfi_endproc

	.globl	__ZN5alloc11collections5btree4node91NodeRef$LT$BorrowType$C$K$C$V$C$alloc..collections..btree..node..marker..LeafOrInternal$GT$5force17he9ecb7aa72a32d04E
	.p2align	4, 0x90
__ZN5alloc11collections5btree4node91NodeRef$LT$BorrowType$C$K$C$V$C$alloc..collections..btree..node..marker..LeafOrInternal$GT$5force17he9ecb7aa72a32d04E:
Lfunc_begin129:
	.loc	37 681 0
	.cfi_startproc
	pushq	%rbp
	.cfi_def_cfa_offset 16
	.cfi_offset %rbp, -16
	movq	%rsp, %rbp
	.cfi_def_cfa_register %rbp
	subq	$80, %rsp
	movq	%rdx, -80(%rbp)
	movq	%rsi, -72(%rbp)
	movq	%rdi, -64(%rbp)
	movq	%rdi, -56(%rbp)
	movq	%rsi, -16(%rbp)
	movq	%rdx, -8(%rbp)
Ltmp772:
	.loc	37 687 12 prologue_end
	cmpq	$0, %rsi
	jne	LBB129_2
	.loc	37 0 12 is_stmt 0
	movq	-64(%rbp), %rax
	movq	-80(%rbp), %rcx
	movq	-72(%rbp), %rdx
	.loc	37 688 31 is_stmt 1
	movq	%rdx, -48(%rbp)
	movq	%rcx, -40(%rbp)
	.loc	37 688 13 is_stmt 0
	movq	-48(%rbp), %rdx
	movq	-40(%rbp), %rcx
	movq	%rdx, 8(%rax)
	movq	%rcx, 16(%rax)
	movq	$0, (%rax)
	.loc	37 687 9 is_stmt 1
	jmp	LBB129_3
LBB129_2:
	.loc	37 0 9 is_stmt 0
	movq	-64(%rbp), %rax
	movq	-80(%rbp), %rcx
	movq	-72(%rbp), %rdx
	.loc	37 694 35 is_stmt 1
	movq	%rdx, -32(%rbp)
	movq	%rcx, -24(%rbp)
	.loc	37 694 13 is_stmt 0
	movq	-32(%rbp), %rdx
	movq	-24(%rbp), %rcx
	movq	%rdx, 8(%rax)
	movq	%rcx, 16(%rax)
	movq	$1, (%rax)
LBB129_3:
	.loc	37 0 13
	movq	-56(%rbp), %rax
	.loc	37 700 6 is_stmt 1
	addq	$80, %rsp
	popq	%rbp
	retq
Ltmp773:
Lfunc_end129:
	.cfi_endproc

	.globl	__ZN5alloc11collections5btree8navigate10full_range17h86f43a76b0279445E
	.p2align	4, 0x90
__ZN5alloc11collections5btree8navigate10full_range17h86f43a76b0279445E:
Lfunc_begin130:
	.file	42 "/rustc/2c8cc343237b8f7d5a3c3703e3a87f2eb2c54a74/library/alloc/src/collections/btree" "navigate.rs"
	.loc	42 289 0
	.cfi_startproc
	pushq	%rbp
	.cfi_def_cfa_offset 16
	.cfi_offset %rbp, -16
	movq	%rsp, %rbp
	.cfi_def_cfa_register %rbp
	subq	$160, %rsp
	movq	%rdi, %rax
	movq	%rsi, -32(%rbp)
	movq	%rdx, -24(%rbp)
	movq	%rcx, -16(%rbp)
	movq	%r8, -8(%rbp)
Ltmp774:
	.loc	42 294 21 prologue_end
	movq	%rsi, -120(%rbp)
	movq	%rdx, -112(%rbp)
	movq	$0, -128(%rbp)
	.loc	42 294 16 is_stmt 0
	movq	-128(%rbp), %rdx
	movq	%rdx, -160(%rbp)
	movq	-120(%rbp), %rdx
	movq	%rdx, -152(%rbp)
	movq	-112(%rbp), %rdx
	movq	%rdx, -144(%rbp)
	movq	-104(%rbp), %rdx
	movq	%rdx, -136(%rbp)
	.loc	42 295 20 is_stmt 1
	movq	%rcx, -56(%rbp)
	movq	%r8, -48(%rbp)
	movq	$0, -64(%rbp)
	.loc	42 295 15 is_stmt 0
	movq	-64(%rbp), %rcx
	movq	%rcx, -96(%rbp)
	movq	-56(%rbp), %rcx
	movq	%rcx, -88(%rbp)
	movq	-48(%rbp), %rcx
	movq	%rcx, -80(%rbp)
	movq	-40(%rbp), %rcx
	movq	%rcx, -72(%rbp)
	.loc	42 293 5 is_stmt 1
	movq	-160(%rbp), %rcx
	movq	%rcx, (%rdi)
	movq	-152(%rbp), %rcx
	movq	%rcx, 8(%rdi)
	movq	-144(%rbp), %rcx
	movq	%rcx, 16(%rdi)
	movq	-136(%rbp), %rcx
	movq	%rcx, 24(%rdi)
	movq	-96(%rbp), %rcx
	movq	%rcx, 32(%rdi)
	movq	-88(%rbp), %rcx
	movq	%rcx, 40(%rdi)
	movq	-80(%rbp), %rcx
	movq	%rcx, 48(%rdi)
	movq	-72(%rbp), %rcx
	movq	%rcx, 56(%rdi)
	.loc	42 297 2
	addq	$160, %rsp
	popq	%rbp
	retq
Ltmp775:
Lfunc_end130:
	.cfi_endproc

	.globl	__ZN5alloc11collections5btree8navigate142_$LT$impl$u20$alloc..collections..btree..node..NodeRef$LT$BorrowType$C$K$C$V$C$alloc..collections..btree..node..marker..LeafOrInternal$GT$$GT$15first_leaf_edge17h732da7df35412592E
	.p2align	4, 0x90
__ZN5alloc11collections5btree8navigate142_$LT$impl$u20$alloc..collections..btree..node..NodeRef$LT$BorrowType$C$K$C$V$C$alloc..collections..btree..node..marker..LeafOrInternal$GT$$GT$15first_leaf_edge17h732da7df35412592E:
Lfunc_begin131:
	.loc	42 618 0
	.cfi_startproc
	pushq	%rbp
	.cfi_def_cfa_offset 16
	.cfi_offset %rbp, -16
	movq	%rsp, %rbp
	.cfi_def_cfa_register %rbp
	subq	$128, %rsp
	movq	%rdi, -128(%rbp)
	movq	%rdi, -120(%rbp)
	movq	%rsi, -48(%rbp)
	movq	%rdx, -40(%rbp)
Ltmp776:
	.loc	42 619 24 prologue_end
	movq	%rsi, -112(%rbp)
	movq	%rdx, -104(%rbp)
LBB131_1:
Ltmp777:
	.loc	42 621 19
	movq	-112(%rbp), %rsi
	movq	-104(%rbp), %rdx
	leaq	-96(%rbp), %rdi
	callq	__ZN5alloc11collections5btree4node91NodeRef$LT$BorrowType$C$K$C$V$C$alloc..collections..btree..node..marker..LeafOrInternal$GT$5force17he9ecb7aa72a32d04E
	.loc	42 621 13 is_stmt 0
	cmpq	$0, -96(%rbp)
	jne	LBB131_3
	.loc	42 0 13
	movq	-128(%rbp), %rdi
	.loc	42 622 22 is_stmt 1
	movq	-88(%rbp), %rsi
	movq	-80(%rbp), %rdx
	movq	%rsi, -16(%rbp)
	movq	%rdx, -8(%rbp)
Ltmp778:
	.loc	42 622 38 is_stmt 0
	callq	__ZN5alloc11collections5btree4node40NodeRef$LT$BorrowType$C$K$C$V$C$Type$GT$10first_edge17h4f0e6f16691d656dE
	movq	-120(%rbp), %rax
Ltmp779:
	.loc	42 626 6 is_stmt 1
	addq	$128, %rsp
	popq	%rbp
	retq
LBB131_3:
Ltmp780:
	.loc	42 623 26
	movq	-88(%rbp), %rsi
	movq	-80(%rbp), %rdx
	movq	%rsi, -32(%rbp)
	movq	%rdx, -24(%rbp)
Ltmp781:
	.loc	42 623 46 is_stmt 0
	leaq	-72(%rbp), %rdi
	callq	__ZN5alloc11collections5btree4node40NodeRef$LT$BorrowType$C$K$C$V$C$Type$GT$10first_edge17hdbf7decae7c01848E
	leaq	-72(%rbp), %rdi
	callq	__ZN5alloc11collections5btree4node180Handle$LT$alloc..collections..btree..node..NodeRef$LT$BorrowType$C$K$C$V$C$alloc..collections..btree..node..marker..Internal$GT$$C$alloc..collections..btree..node..marker..Edge$GT$7descend17hd03c028d6158d45cE
	.loc	42 623 39
	movq	%rax, -112(%rbp)
	movq	%rdx, -104(%rbp)
Ltmp782:
	.loc	42 620 9 is_stmt 1
	jmp	LBB131_1
Ltmp783:
Lfunc_end131:
	.cfi_endproc

	.globl	__ZN5alloc11collections5btree8navigate178_$LT$impl$u20$alloc..collections..btree..node..NodeRef$LT$alloc..collections..btree..node..marker..Dying$C$K$C$V$C$alloc..collections..btree..node..marker..LeafOrInternal$GT$$GT$10full_range17h189c3627cba019cfE
	.p2align	4, 0x90
__ZN5alloc11collections5btree8navigate178_$LT$impl$u20$alloc..collections..btree..node..NodeRef$LT$alloc..collections..btree..node..marker..Dying$C$K$C$V$C$alloc..collections..btree..node..marker..LeafOrInternal$GT$$GT$10full_range17h189c3627cba019cfE:
Lfunc_begin132:
	.loc	42 354 0
	.cfi_startproc
	pushq	%rbp
	.cfi_def_cfa_offset 16
	.cfi_offset %rbp, -16
	movq	%rsp, %rbp
	.cfi_def_cfa_register %rbp
	subq	$112, %rsp
	movq	%rdi, %rax
	movq	%rax, -104(%rbp)
	movq	%rsi, -96(%rbp)
	movq	%rdx, -88(%rbp)
Ltmp784:
	.loc	42 357 40 prologue_end
	leaq	-96(%rbp), %rax
	movq	%rax, -64(%rbp)
Ltmp785:
	.loc	4 1157 34
	leaq	-80(%rbp), %rax
	movq	%rax, -56(%rbp)
	.loc	4 1157 9 is_stmt 0
	movq	-96(%rbp), %rax
	movq	%rax, -80(%rbp)
	movq	-88(%rbp), %rax
	movq	%rax, -72(%rbp)
	.loc	4 1158 9 is_stmt 1
	movq	-80(%rbp), %rcx
	movq	-72(%rbp), %r8
	movq	%rcx, -48(%rbp)
	movq	%r8, -40(%rbp)
Ltmp786:
	.loc	23 627 38
	movq	%rcx, -32(%rbp)
	movq	%r8, -24(%rbp)
Ltmp787:
	.loc	2 89 9
	movq	%rcx, -16(%rbp)
	movq	%r8, -8(%rbp)
Ltmp788:
	.loc	42 358 20
	movq	-96(%rbp), %rsi
	movq	-88(%rbp), %rdx
	.loc	42 358 9 is_stmt 0
	callq	__ZN5alloc11collections5btree8navigate10full_range17h86f43a76b0279445E
	movq	-104(%rbp), %rax
Ltmp789:
	.loc	42 359 6 is_stmt 1
	addq	$112, %rsp
	popq	%rbp
	retq
Ltmp790:
Lfunc_end132:
	.cfi_endproc

	.globl	__ZN5alloc11collections5btree8navigate235_$LT$impl$u20$alloc..collections..btree..node..Handle$LT$alloc..collections..btree..node..NodeRef$LT$BorrowType$C$K$C$V$C$alloc..collections..btree..node..marker..LeafOrInternal$GT$$C$alloc..collections..btree..node..marker..KV$GT$$GT$14next_leaf_edge17hc20390eb4c8c170dE
	.p2align	4, 0x90
__ZN5alloc11collections5btree8navigate235_$LT$impl$u20$alloc..collections..btree..node..Handle$LT$alloc..collections..btree..node..NodeRef$LT$BorrowType$C$K$C$V$C$alloc..collections..btree..node..marker..LeafOrInternal$GT$$C$alloc..collections..btree..node..marker..KV$GT$$GT$14next_leaf_edge17hc20390eb4c8c170dE:
Lfunc_begin133:
	.loc	42 699 0
	.cfi_startproc
	pushq	%rbp
	.cfi_def_cfa_offset 16
	.cfi_offset %rbp, -16
	movq	%rsp, %rbp
	.cfi_def_cfa_register %rbp
	subq	$224, %rsp
	movq	%rdi, -216(%rbp)
	movq	%rdi, -208(%rbp)
Ltmp791:
	.loc	42 700 15 prologue_end
	movq	(%rsi), %rax
	movq	%rax, -168(%rbp)
	movq	8(%rsi), %rax
	movq	%rax, -160(%rbp)
	movq	16(%rsi), %rax
	movq	%rax, -152(%rbp)
	leaq	-200(%rbp), %rdi
	leaq	-168(%rbp), %rsi
Ltmp792:
	callq	__ZN5alloc11collections5btree4node145Handle$LT$alloc..collections..btree..node..NodeRef$LT$BorrowType$C$K$C$V$C$alloc..collections..btree..node..marker..LeafOrInternal$GT$$C$Type$GT$5force17h4ff54e1c7414013cE
	.loc	42 700 9 is_stmt 0
	cmpq	$0, -200(%rbp)
	jne	LBB133_2
Ltmp793:
	.loc	42 0 9
	movq	-216(%rbp), %rdi
	.loc	42 701 18 is_stmt 1
	movq	-192(%rbp), %rax
	movq	%rax, -144(%rbp)
	movq	-184(%rbp), %rax
	movq	%rax, -136(%rbp)
	movq	-176(%rbp), %rax
	movq	%rax, -128(%rbp)
Ltmp794:
	.loc	42 701 30 is_stmt 0
	movq	-144(%rbp), %rax
	movq	%rax, -120(%rbp)
	movq	-136(%rbp), %rax
	movq	%rax, -112(%rbp)
	movq	-128(%rbp), %rax
	movq	%rax, -104(%rbp)
	leaq	-120(%rbp), %rsi
	callq	__ZN5alloc11collections5btree4node137Handle$LT$alloc..collections..btree..node..NodeRef$LT$BorrowType$C$K$C$V$C$NodeType$GT$$C$alloc..collections..btree..node..marker..KV$GT$10right_edge17hab6e380afc7db3daE
Ltmp795:
	.loc	42 701 49
	jmp	LBB133_3
Ltmp796:
LBB133_2:
	.loc	42 702 22 is_stmt 1
	movq	-192(%rbp), %rax
	movq	%rax, -96(%rbp)
	movq	-184(%rbp), %rax
	movq	%rax, -88(%rbp)
	movq	-176(%rbp), %rax
	movq	%rax, -80(%rbp)
Ltmp797:
	.loc	42 703 42
	movq	-96(%rbp), %rax
	movq	%rax, -48(%rbp)
	movq	-88(%rbp), %rax
	movq	%rax, -40(%rbp)
	movq	-80(%rbp), %rax
	movq	%rax, -32(%rbp)
	leaq	-72(%rbp), %rdi
	leaq	-48(%rbp), %rsi
	callq	__ZN5alloc11collections5btree4node137Handle$LT$alloc..collections..btree..node..NodeRef$LT$BorrowType$C$K$C$V$C$NodeType$GT$$C$alloc..collections..btree..node..marker..KV$GT$10right_edge17hd84e634cf30ef055E
Ltmp798:
	.loc	42 704 17
	movq	-72(%rbp), %rax
	movq	%rax, -24(%rbp)
	movq	-64(%rbp), %rax
	movq	%rax, -16(%rbp)
	movq	-56(%rbp), %rax
	movq	%rax, -8(%rbp)
	leaq	-24(%rbp), %rdi
	callq	__ZN5alloc11collections5btree4node180Handle$LT$alloc..collections..btree..node..NodeRef$LT$BorrowType$C$K$C$V$C$alloc..collections..btree..node..marker..Internal$GT$$C$alloc..collections..btree..node..marker..Edge$GT$7descend17hd03c028d6158d45cE
	movq	-216(%rbp), %rdi
	movq	%rax, %rsi
	callq	__ZN5alloc11collections5btree8navigate142_$LT$impl$u20$alloc..collections..btree..node..NodeRef$LT$BorrowType$C$K$C$V$C$alloc..collections..btree..node..marker..LeafOrInternal$GT$$GT$15first_leaf_edge17h732da7df35412592E
Ltmp799:
LBB133_3:
	.loc	42 0 17 is_stmt 0
	movq	-208(%rbp), %rax
	.loc	42 707 6 is_stmt 1
	addq	$224, %rsp
	popq	%rbp
	retq
Ltmp800:
Lfunc_end133:
	.cfi_endproc

	.globl	__ZN5alloc11collections5btree8navigate263_$LT$impl$u20$alloc..collections..btree..node..Handle$LT$alloc..collections..btree..node..NodeRef$LT$alloc..collections..btree..node..marker..Dying$C$K$C$V$C$alloc..collections..btree..node..marker..Leaf$GT$$C$alloc..collections..btree..node..marker..Edge$GT$$GT$16deallocating_end17h655c65ab5f9fa895E
	.p2align	4, 0x90
__ZN5alloc11collections5btree8navigate263_$LT$impl$u20$alloc..collections..btree..node..Handle$LT$alloc..collections..btree..node..NodeRef$LT$alloc..collections..btree..node..marker..Dying$C$K$C$V$C$alloc..collections..btree..node..marker..Leaf$GT$$C$alloc..collections..btree..node..marker..Edge$GT$$GT$16deallocating_end17h655c65ab5f9fa895E:
Lfunc_begin134:
	.loc	42 504 0
	.cfi_startproc
	.cfi_personality 155, _rust_eh_personality
	.cfi_lsda 16, Lexception18
	pushq	%rbp
	.cfi_def_cfa_offset 16
	.cfi_offset %rbp, -16
	movq	%rsp, %rbp
	.cfi_def_cfa_register %rbp
	subq	$224, %rsp
Ltmp812:
	.loc	42 505 24 prologue_end
	movq	16(%rdi), %rax
	movq	%rax, -144(%rbp)
	movq	(%rdi), %rax
	movq	8(%rdi), %rcx
	movq	%rcx, -152(%rbp)
	movq	%rax, -160(%rbp)
Ltmp801:
	leaq	-184(%rbp), %rdi
Ltmp813:
	.loc	42 0 24 is_stmt 0
	leaq	-160(%rbp), %rsi
	.loc	42 505 24
	callq	__ZN5alloc11collections5btree4node176Handle$LT$alloc..collections..btree..node..NodeRef$LT$BorrowType$C$K$C$V$C$alloc..collections..btree..node..marker..Leaf$GT$$C$alloc..collections..btree..node..marker..Edge$GT$16forget_node_type17h9414e4aa8048b998E
Ltmp802:
	jmp	LBB134_3
Ltmp814:
LBB134_1:
	.loc	42 504 5 is_stmt 1
	movq	-16(%rbp), %rdi
	callq	__Unwind_Resume
Ltmp815:
LBB134_2:
Ltmp811:
	.loc	42 0 5 is_stmt 0
	movq	%rax, %rcx
	movl	%edx, %eax
	movq	%rcx, -16(%rbp)
	movl	%eax, -8(%rbp)
	jmp	LBB134_1
Ltmp816:
LBB134_3:
	.loc	42 506 9 is_stmt 1
	jmp	LBB134_4
Ltmp817:
LBB134_4:
	.loc	42 507 22
	movq	-168(%rbp), %rax
	movq	%rax, -96(%rbp)
	movq	-184(%rbp), %rax
	movq	-176(%rbp), %rcx
	movq	%rcx, -104(%rbp)
	movq	%rax, -112(%rbp)
Ltmp803:
	leaq	-112(%rbp), %rdi
	callq	__ZN5alloc11collections5btree4node25Handle$LT$Node$C$Type$GT$9into_node17hba20bf817d549b28E
Ltmp804:
	movq	%rdx, -208(%rbp)
	movq	%rax, -200(%rbp)
	jmp	LBB134_5
Ltmp818:
LBB134_5:
	.loc	42 0 22 is_stmt 0
	movq	-208(%rbp), %rax
	movq	-200(%rbp), %rcx
	movq	%rcx, -224(%rbp)
	movq	%rax, -216(%rbp)
Ltmp805:
	leaq	-192(%rbp), %rdi
	.loc	42 507 61
	callq	__ZN59_$LT$alloc..alloc..Global$u20$as$u20$core..clone..Clone$GT$5clone17h19910aade683670eE
Ltmp806:
	jmp	LBB134_6
Ltmp819:
LBB134_6:
Ltmp807:
	.loc	42 0 61
	movq	-216(%rbp), %rdx
	movq	-224(%rbp), %rsi
	leaq	-136(%rbp), %rdi
	.loc	42 507 22
	callq	__ZN5alloc11collections5btree4node127NodeRef$LT$alloc..collections..btree..node..marker..Dying$C$K$C$V$C$alloc..collections..btree..node..marker..LeafOrInternal$GT$21deallocate_and_ascend17hf3feda6f84809b89E
Ltmp808:
	jmp	LBB134_7
Ltmp820:
LBB134_7:
	.loc	42 506 19 is_stmt 1
	movq	-128(%rbp), %rdx
	movl	$1, %eax
	xorl	%ecx, %ecx
	cmpq	$0, %rdx
	cmoveq	%rcx, %rax
	cmpq	$1, %rax
	jne	LBB134_9
Ltmp821:
	.loc	42 506 24 is_stmt 0
	movq	-120(%rbp), %rax
	movq	%rax, -72(%rbp)
	movq	-136(%rbp), %rax
	movq	-128(%rbp), %rcx
	movq	%rcx, -80(%rbp)
	movq	%rax, -88(%rbp)
	.loc	42 509 20 is_stmt 1
	movq	-72(%rbp), %rax
	movq	%rax, -24(%rbp)
	movq	-88(%rbp), %rax
	movq	-80(%rbp), %rcx
	movq	%rcx, -32(%rbp)
	movq	%rax, -40(%rbp)
Ltmp809:
	leaq	-64(%rbp), %rdi
	leaq	-40(%rbp), %rsi
	callq	__ZN5alloc11collections5btree4node180Handle$LT$alloc..collections..btree..node..NodeRef$LT$BorrowType$C$K$C$V$C$alloc..collections..btree..node..marker..Internal$GT$$C$alloc..collections..btree..node..marker..Edge$GT$16forget_node_type17ha1ec5cf0357b3af6E
Ltmp810:
	jmp	LBB134_10
Ltmp822:
LBB134_9:
	.loc	42 511 6
	addq	$224, %rsp
	popq	%rbp
	retq
Ltmp823:
LBB134_10:
	.loc	42 509 13
	movq	-64(%rbp), %rax
	movq	%rax, -184(%rbp)
	movq	-56(%rbp), %rax
	movq	%rax, -176(%rbp)
	movq	-48(%rbp), %rax
	movq	%rax, -168(%rbp)
Ltmp824:
	.loc	42 506 9
	jmp	LBB134_4
Ltmp825:
Lfunc_end134:
	.cfi_endproc
	.section	__TEXT,__gcc_except_tab
	.p2align	2
GCC_except_table134:
Lexception18:
	.byte	255
	.byte	255
	.byte	1
	.uleb128 Lcst_end18-Lcst_begin18
Lcst_begin18:
	.uleb128 Ltmp801-Lfunc_begin134
	.uleb128 Ltmp802-Ltmp801
	.uleb128 Ltmp811-Lfunc_begin134
	.byte	0
	.uleb128 Ltmp802-Lfunc_begin134
	.uleb128 Ltmp803-Ltmp802
	.byte	0
	.byte	0
	.uleb128 Ltmp803-Lfunc_begin134
	.uleb128 Ltmp810-Ltmp803
	.uleb128 Ltmp811-Lfunc_begin134
	.byte	0
Lcst_end18:
	.p2align	2

	.section	__TEXT,__text,regular,pure_instructions
	.globl	__ZN5alloc11collections5btree8navigate263_$LT$impl$u20$alloc..collections..btree..node..Handle$LT$alloc..collections..btree..node..NodeRef$LT$alloc..collections..btree..node..marker..Dying$C$K$C$V$C$alloc..collections..btree..node..marker..Leaf$GT$$C$alloc..collections..btree..node..marker..Edge$GT$$GT$17deallocating_next17hfe721421efa4cc05E
	.p2align	4, 0x90
__ZN5alloc11collections5btree8navigate263_$LT$impl$u20$alloc..collections..btree..node..Handle$LT$alloc..collections..btree..node..NodeRef$LT$alloc..collections..btree..node..marker..Dying$C$K$C$V$C$alloc..collections..btree..node..marker..Leaf$GT$$C$alloc..collections..btree..node..marker..Edge$GT$$GT$17deallocating_next17hfe721421efa4cc05E:
Lfunc_begin135:
	.loc	42 447 0
	.cfi_startproc
	.cfi_personality 155, _rust_eh_personality
	.cfi_lsda 16, Lexception19
	pushq	%rbp
	.cfi_def_cfa_offset 16
	.cfi_offset %rbp, -16
	movq	%rsp, %rbp
	.cfi_def_cfa_register %rbp
	subq	$560, %rsp
	movq	%rdi, -520(%rbp)
	movq	%rdi, -512(%rbp)
Ltmp841:
	.loc	42 452 24 prologue_end
	movq	16(%rsi), %rax
	movq	%rax, -456(%rbp)
	movq	(%rsi), %rax
	movq	8(%rsi), %rcx
	movq	%rcx, -464(%rbp)
	movq	%rax, -472(%rbp)
Ltmp826:
	leaq	-496(%rbp), %rdi
	leaq	-472(%rbp), %rsi
Ltmp842:
	callq	__ZN5alloc11collections5btree4node176Handle$LT$alloc..collections..btree..node..NodeRef$LT$BorrowType$C$K$C$V$C$alloc..collections..btree..node..marker..Leaf$GT$$C$alloc..collections..btree..node..marker..Edge$GT$16forget_node_type17h9414e4aa8048b998E
Ltmp827:
	jmp	LBB135_3
Ltmp843:
LBB135_1:
	.loc	42 447 5
	movq	-32(%rbp), %rdi
	callq	__Unwind_Resume
Ltmp844:
LBB135_2:
Ltmp840:
	.loc	42 0 5 is_stmt 0
	movq	%rax, %rcx
	movl	%edx, %eax
	movq	%rcx, -32(%rbp)
	movl	%eax, -24(%rbp)
	jmp	LBB135_1
Ltmp845:
LBB135_3:
	.loc	42 453 9 is_stmt 1
	jmp	LBB135_4
Ltmp846:
LBB135_4:
	.loc	42 454 26
	movq	-480(%rbp), %rax
	movq	%rax, -376(%rbp)
	movq	-496(%rbp), %rax
	movq	-488(%rbp), %rcx
	movq	%rcx, -384(%rbp)
	movq	%rax, -392(%rbp)
Ltmp828:
	leaq	-424(%rbp), %rdi
	leaq	-392(%rbp), %rsi
	callq	__ZN5alloc11collections5btree4node139Handle$LT$alloc..collections..btree..node..NodeRef$LT$BorrowType$C$K$C$V$C$NodeType$GT$$C$alloc..collections..btree..node..marker..Edge$GT$8right_kv17h76faa28d9f2c6bb6E
Ltmp829:
	jmp	LBB135_5
Ltmp847:
LBB135_5:
	.loc	42 454 20 is_stmt 0
	cmpq	$0, -424(%rbp)
	jne	LBB135_7
Ltmp848:
	.loc	42 455 20 is_stmt 1
	movq	-416(%rbp), %rax
	movq	%rax, -368(%rbp)
	movq	-408(%rbp), %rax
	movq	%rax, -360(%rbp)
	movq	-400(%rbp), %rax
	movq	%rax, -352(%rbp)
Ltmp849:
	.loc	42 455 59 is_stmt 0
	leaq	-368(%rbp), %rax
	movq	%rax, -16(%rbp)
Ltmp850:
	.loc	4 1157 34 is_stmt 1
	leaq	-104(%rbp), %rax
	movq	%rax, -8(%rbp)
	.loc	4 1157 9 is_stmt 0
	movq	-368(%rbp), %rax
	movq	%rax, -104(%rbp)
	movq	-360(%rbp), %rax
	movq	%rax, -96(%rbp)
	movq	-352(%rbp), %rax
	movq	%rax, -88(%rbp)
	.loc	4 1158 9 is_stmt 1
	movq	-104(%rbp), %rax
	movq	%rax, -80(%rbp)
	movq	-96(%rbp), %rax
	movq	%rax, -72(%rbp)
	movq	-88(%rbp), %rax
	movq	%rax, -64(%rbp)
Ltmp851:
	.loc	23 626 13
	jmp	LBB135_15
Ltmp852:
LBB135_7:
	.loc	42 456 21
	movq	-400(%rbp), %rax
	movq	%rax, -208(%rbp)
	movq	-416(%rbp), %rax
	movq	-408(%rbp), %rcx
	movq	%rcx, -216(%rbp)
	movq	%rax, -224(%rbp)
Ltmp853:
	.loc	42 457 36
	movq	-208(%rbp), %rax
	movq	%rax, -160(%rbp)
	movq	-224(%rbp), %rax
	movq	-216(%rbp), %rcx
	movq	%rcx, -168(%rbp)
	movq	%rax, -176(%rbp)
Ltmp830:
	leaq	-176(%rbp), %rdi
	callq	__ZN5alloc11collections5btree4node25Handle$LT$Node$C$Type$GT$9into_node17hba20bf817d549b28E
Ltmp831:
	movq	%rdx, -536(%rbp)
	movq	%rax, -528(%rbp)
	jmp	LBB135_8
Ltmp854:
LBB135_8:
	.loc	42 0 36 is_stmt 0
	movq	-536(%rbp), %rax
	movq	-528(%rbp), %rcx
	movq	%rcx, -552(%rbp)
	movq	%rax, -544(%rbp)
Ltmp832:
	leaq	-504(%rbp), %rdi
	.loc	42 457 80
	callq	__ZN59_$LT$alloc..alloc..Global$u20$as$u20$core..clone..Clone$GT$5clone17h19910aade683670eE
Ltmp833:
	jmp	LBB135_9
Ltmp855:
LBB135_9:
Ltmp834:
	.loc	42 0 80
	movq	-544(%rbp), %rdx
	movq	-552(%rbp), %rsi
	leaq	-200(%rbp), %rdi
	.loc	42 457 36
	callq	__ZN5alloc11collections5btree4node127NodeRef$LT$alloc..collections..btree..node..marker..Dying$C$K$C$V$C$alloc..collections..btree..node..marker..LeafOrInternal$GT$21deallocate_and_ascend17hf3feda6f84809b89E
Ltmp835:
	jmp	LBB135_10
Ltmp856:
LBB135_10:
	.loc	42 457 27
	movq	-192(%rbp), %rdx
	movl	$1, %eax
	xorl	%ecx, %ecx
	cmpq	$0, %rdx
	cmoveq	%rcx, %rax
	.loc	42 457 21
	cmpq	$0, %rax
	jne	LBB135_12
Ltmp857:
	.loc	42 0 21
	movq	-520(%rbp), %rax
	.loc	42 459 40 is_stmt 1
	movq	$0, 8(%rax)
Ltmp858:
	.file	43 "/Users/natalie/.cargo/registry/src/github.com-1ecc6299db9ec823/webbrowser-0.7.1" "src/lib.rs"
	.loc	43 1 1
	jmp	LBB135_14
Ltmp859:
LBB135_12:
	.loc	42 458 30
	movq	-184(%rbp), %rax
	movq	%rax, -136(%rbp)
	movq	-200(%rbp), %rax
	movq	-192(%rbp), %rcx
	movq	%rcx, -144(%rbp)
	movq	%rax, -152(%rbp)
Ltmp860:
	.loc	42 458 46 is_stmt 0
	movq	-136(%rbp), %rax
	movq	%rax, -112(%rbp)
	movq	-152(%rbp), %rax
	movq	-144(%rbp), %rcx
	movq	%rcx, -120(%rbp)
	movq	%rax, -128(%rbp)
Ltmp836:
	leaq	-448(%rbp), %rdi
	leaq	-128(%rbp), %rsi
	callq	__ZN5alloc11collections5btree4node180Handle$LT$alloc..collections..btree..node..NodeRef$LT$BorrowType$C$K$C$V$C$alloc..collections..btree..node..marker..Internal$GT$$C$alloc..collections..btree..node..marker..Edge$GT$16forget_node_type17ha1ec5cf0357b3af6E
Ltmp837:
	jmp	LBB135_13
Ltmp861:
LBB135_13:
	.loc	42 454 13 is_stmt 1
	movq	-448(%rbp), %rax
	movq	%rax, -496(%rbp)
	movq	-440(%rbp), %rax
	movq	%rax, -488(%rbp)
	movq	-432(%rbp), %rax
	movq	%rax, -480(%rbp)
	.loc	42 453 9
	jmp	LBB135_4
Ltmp862:
LBB135_14:
	.loc	42 0 9 is_stmt 0
	movq	-512(%rbp), %rax
	.loc	42 464 6 is_stmt 1
	addq	$560, %rsp
	popq	%rbp
	retq
Ltmp863:
LBB135_15:
	.loc	23 627 38
	movq	-64(%rbp), %rax
	movq	%rax, -40(%rbp)
	movq	-80(%rbp), %rax
	movq	-72(%rbp), %rcx
	movq	%rcx, -48(%rbp)
	movq	%rax, -56(%rbp)
Ltmp864:
	.loc	2 89 9
	movq	-40(%rbp), %rax
	movq	%rax, -256(%rbp)
	movq	-56(%rbp), %rax
	movq	-48(%rbp), %rcx
	movq	%rcx, -264(%rbp)
	movq	%rax, -272(%rbp)
Ltmp838:
	leaq	-296(%rbp), %rdi
	leaq	-272(%rbp), %rsi
Ltmp865:
	.loc	42 455 40
	callq	__ZN5alloc11collections5btree8navigate235_$LT$impl$u20$alloc..collections..btree..node..Handle$LT$alloc..collections..btree..node..NodeRef$LT$BorrowType$C$K$C$V$C$alloc..collections..btree..node..marker..LeafOrInternal$GT$$C$alloc..collections..btree..node..marker..KV$GT$$GT$14next_leaf_edge17hc20390eb4c8c170dE
Ltmp839:
	jmp	LBB135_16
Ltmp866:
LBB135_16:
	.loc	42 0 40 is_stmt 0
	movq	-520(%rbp), %rdi
	.loc	42 455 84
	movq	-368(%rbp), %rax
	movq	%rax, -248(%rbp)
	movq	-360(%rbp), %rax
	movq	%rax, -240(%rbp)
	movq	-352(%rbp), %rax
	movq	%rax, -232(%rbp)
	.loc	42 455 39
	movq	-296(%rbp), %rax
	movq	%rax, -344(%rbp)
	movq	-288(%rbp), %rax
	movq	%rax, -336(%rbp)
	movq	-280(%rbp), %rax
	movq	%rax, -328(%rbp)
	movq	-248(%rbp), %rax
	movq	%rax, -320(%rbp)
	movq	-240(%rbp), %rax
	movq	%rax, -312(%rbp)
	movq	-232(%rbp), %rax
	movq	%rax, -304(%rbp)
	.loc	42 455 34
	leaq	-344(%rbp), %rsi
	movl	$48, %edx
	callq	_memcpy
Ltmp867:
	.loc	43 1 1 is_stmt 1
	jmp	LBB135_14
Ltmp868:
Lfunc_end135:
	.cfi_endproc
	.section	__TEXT,__gcc_except_tab
	.p2align	2
GCC_except_table135:
Lexception19:
	.byte	255
	.byte	255
	.byte	1
	.uleb128 Lcst_end19-Lcst_begin19
Lcst_begin19:
	.uleb128 Ltmp826-Lfunc_begin135
	.uleb128 Ltmp827-Ltmp826
	.uleb128 Ltmp840-Lfunc_begin135
	.byte	0
	.uleb128 Ltmp827-Lfunc_begin135
	.uleb128 Ltmp828-Ltmp827
	.byte	0
	.byte	0
	.uleb128 Ltmp828-Lfunc_begin135
	.uleb128 Ltmp839-Ltmp828
	.uleb128 Ltmp840-Lfunc_begin135
	.byte	0
	.uleb128 Ltmp839-Lfunc_begin135
	.uleb128 Lfunc_end135-Ltmp839
	.byte	0
	.byte	0
Lcst_end19:
	.p2align	2

	.section	__TEXT,__text,regular,pure_instructions
	.globl	__ZN5alloc11collections5btree8navigate263_$LT$impl$u20$alloc..collections..btree..node..Handle$LT$alloc..collections..btree..node..NodeRef$LT$alloc..collections..btree..node..marker..Dying$C$K$C$V$C$alloc..collections..btree..node..marker..Leaf$GT$$C$alloc..collections..btree..node..marker..Edge$GT$$GT$27deallocating_next_unchecked17hf12db719246f83daE
	.p2align	4, 0x90
__ZN5alloc11collections5btree8navigate263_$LT$impl$u20$alloc..collections..btree..node..Handle$LT$alloc..collections..btree..node..NodeRef$LT$alloc..collections..btree..node..marker..Dying$C$K$C$V$C$alloc..collections..btree..node..marker..Leaf$GT$$C$alloc..collections..btree..node..marker..Edge$GT$$GT$27deallocating_next_unchecked17hf12db719246f83daE:
Lfunc_begin136:
	.loc	42 583 0
	.cfi_startproc
	pushq	%rbp
	.cfi_def_cfa_offset 16
	.cfi_offset %rbp, -16
	movq	%rsp, %rbp
	.cfi_def_cfa_register %rbp
	subq	$32, %rsp
	movq	%rdi, %rax
	movq	%rax, -32(%rbp)
	movq	%rsi, -16(%rbp)
Ltmp869:
	.loc	42 587 9 prologue_end
	callq	__ZN5alloc11collections5btree3mem7replace17h5968c4d597824273E
	movq	-32(%rbp), %rax
	.loc	42 590 6
	addq	$32, %rsp
	popq	%rbp
	retq
Ltmp870:
Lfunc_end136:
	.cfi_endproc

	.globl	__ZN5alloc11collections5btree8navigate263_$LT$impl$u20$alloc..collections..btree..node..Handle$LT$alloc..collections..btree..node..NodeRef$LT$alloc..collections..btree..node..marker..Dying$C$K$C$V$C$alloc..collections..btree..node..marker..Leaf$GT$$C$alloc..collections..btree..node..marker..Edge$GT$$GT$27deallocating_next_unchecked28_$u7b$$u7b$closure$u7d$$u7d$17h321a763353ba8005E
	.p2align	4, 0x90
__ZN5alloc11collections5btree8navigate263_$LT$impl$u20$alloc..collections..btree..node..Handle$LT$alloc..collections..btree..node..NodeRef$LT$alloc..collections..btree..node..marker..Dying$C$K$C$V$C$alloc..collections..btree..node..marker..Leaf$GT$$C$alloc..collections..btree..node..marker..Edge$GT$$GT$27deallocating_next_unchecked28_$u7b$$u7b$closure$u7d$$u7d$17h321a763353ba8005E:
Lfunc_begin137:
	.loc	42 587 0
	.cfi_startproc
	pushq	%rbp
	.cfi_def_cfa_offset 16
	.cfi_offset %rbp, -16
	movq	%rsp, %rbp
	.cfi_def_cfa_register %rbp
	subq	$96, %rsp
	movq	%rdi, -96(%rbp)
	movq	%rdi, -88(%rbp)
Ltmp871:
	.loc	42 588 13 prologue_end
	movq	(%rsi), %rax
	movq	%rax, -32(%rbp)
	movq	8(%rsi), %rax
	movq	%rax, -24(%rbp)
	movq	16(%rsi), %rax
	movq	%rax, -16(%rbp)
	leaq	-80(%rbp), %rdi
	leaq	-32(%rbp), %rsi
Ltmp872:
	callq	__ZN5alloc11collections5btree8navigate263_$LT$impl$u20$alloc..collections..btree..node..Handle$LT$alloc..collections..btree..node..NodeRef$LT$alloc..collections..btree..node..marker..Dying$C$K$C$V$C$alloc..collections..btree..node..marker..Leaf$GT$$C$alloc..collections..btree..node..marker..Edge$GT$$GT$17deallocating_next17hfe721421efa4cc05E
Ltmp873:
	.loc	3 821 15
	movq	-72(%rbp), %rdx
	movl	$1, %eax
	xorl	%ecx, %ecx
	cmpq	$0, %rdx
	cmoveq	%rcx, %rax
	.loc	3 821 9 is_stmt 0
	cmpq	$0, %rax
	jne	LBB137_2
Ltmp874:
	.loc	3 823 21 is_stmt 1
	leaq	l___unnamed_10(%rip), %rdi
	leaq	l___unnamed_11(%rip), %rdx
	movl	$43, %esi
	callq	__ZN4core9panicking5panic17hc1bc45270cf64b03E
Ltmp875:
LBB137_2:
	.loc	3 0 21 is_stmt 0
	movq	-96(%rbp), %rdi
	.loc	3 822 18 is_stmt 1
	leaq	-80(%rbp), %rsi
	movl	$48, %edx
	callq	_memcpy
	movq	-88(%rbp), %rax
Ltmp876:
	.loc	42 589 10
	addq	$96, %rsp
	popq	%rbp
	retq
Ltmp877:
Lfunc_end137:
	.cfi_endproc

	.globl	__ZN5alloc11collections5btree8navigate39LazyLeafRange$LT$BorrowType$C$K$C$V$GT$10init_front17hfbb0bf635bf54b0eE
	.p2align	4, 0x90
__ZN5alloc11collections5btree8navigate39LazyLeafRange$LT$BorrowType$C$K$C$V$GT$10init_front17hfbb0bf635bf54b0eE:
Lfunc_begin138:
	.loc	42 209 0
	.cfi_startproc
	pushq	%rbp
	.cfi_def_cfa_offset 16
	.cfi_offset %rbp, -16
	movq	%rsp, %rbp
	.cfi_def_cfa_register %rbp
	subq	$192, %rsp
	movq	%rdi, -192(%rbp)
	movq	%rdi, -72(%rbp)
Ltmp878:
	.loc	42 212 16 prologue_end
	movl	$1, %eax
	xorl	%ecx, %ecx
	cmpq	$2, (%rdi)
	cmoveq	%rcx, %rax
	cmpq	$1, %rax
	jne	LBB138_2
	.loc	42 0 16 is_stmt 0
	movq	-192(%rbp), %rax
	.loc	42 212 16
	cmpq	$0, (%rax)
	je	LBB138_3
Ltmp879:
LBB138_2:
	.loc	42 0 16
	movq	-192(%rbp), %rdx
	.loc	42 215 15 is_stmt 1
	movl	$1, %eax
	xorl	%ecx, %ecx
	cmpq	$2, (%rdx)
	cmoveq	%rcx, %rax
	.loc	42 215 9 is_stmt 0
	cmpq	$0, %rax
	je	LBB138_4
	jmp	LBB138_5
LBB138_3:
	.loc	42 0 9
	movq	-192(%rbp), %rax
Ltmp880:
	.loc	42 212 42 is_stmt 1
	movq	%rax, %rcx
	addq	$8, %rcx
	movq	%rcx, -64(%rbp)
	.loc	42 213 71
	movq	%rcx, -56(%rbp)
Ltmp881:
	.loc	4 1157 34
	leaq	-88(%rbp), %rcx
	movq	%rcx, -48(%rbp)
	.loc	4 1157 9 is_stmt 0
	movq	8(%rax), %rcx
	movq	%rcx, -88(%rbp)
	movq	16(%rax), %rax
	movq	%rax, -80(%rbp)
	.loc	4 1158 9 is_stmt 1
	movq	-88(%rbp), %rsi
	movq	-80(%rbp), %rdx
	movq	%rsi, -40(%rbp)
	movq	%rdx, -32(%rbp)
Ltmp882:
	.loc	23 627 38
	movq	%rsi, -24(%rbp)
	movq	%rdx, -16(%rbp)
Ltmp883:
	.loc	42 213 52
	leaq	-112(%rbp), %rdi
	callq	__ZN5alloc11collections5btree8navigate142_$LT$impl$u20$alloc..collections..btree..node..NodeRef$LT$BorrowType$C$K$C$V$C$alloc..collections..btree..node..marker..LeafOrInternal$GT$$GT$15first_leaf_edge17h732da7df35412592E
	movq	-192(%rbp), %rax
	.loc	42 213 31 is_stmt 0
	movq	-112(%rbp), %rcx
	movq	%rcx, -136(%rbp)
	movq	-104(%rbp), %rcx
	movq	%rcx, -128(%rbp)
	movq	-96(%rbp), %rcx
	movq	%rcx, -120(%rbp)
	movq	$1, -144(%rbp)
	.loc	42 213 26
	movq	-144(%rbp), %rcx
	movq	%rcx, -176(%rbp)
	movq	-136(%rbp), %rcx
	movq	%rcx, -168(%rbp)
	movq	-128(%rbp), %rcx
	movq	%rcx, -160(%rbp)
	movq	-120(%rbp), %rcx
	movq	%rcx, -152(%rbp)
	.loc	42 213 13
	movq	-176(%rbp), %rcx
	movq	%rcx, (%rax)
	movq	-168(%rbp), %rcx
	movq	%rcx, 8(%rax)
	movq	-160(%rbp), %rcx
	movq	%rcx, 16(%rax)
	movq	-152(%rbp), %rcx
	movq	%rcx, 24(%rax)
Ltmp884:
	.loc	42 212 9 is_stmt 1
	jmp	LBB138_2
LBB138_4:
	.loc	42 216 21
	movq	$0, -184(%rbp)
	jmp	LBB138_8
LBB138_5:
	.loc	42 0 21 is_stmt 0
	movq	-192(%rbp), %rax
	.loc	42 215 9 is_stmt 1
	cmpq	$0, (%rax)
	jne	LBB138_7
	.loc	42 219 55
	callq	__ZN4core4hint21unreachable_unchecked17h1a2d8aacc766a386E
LBB138_7:
	.loc	42 0 55 is_stmt 0
	movq	-192(%rbp), %rax
	.loc	42 217 39 is_stmt 1
	addq	$8, %rax
	movq	%rax, -8(%rbp)
Ltmp885:
	.loc	42 217 49 is_stmt 0
	movq	%rax, -184(%rbp)
Ltmp886:
LBB138_8:
	.loc	42 221 6 is_stmt 1
	movq	-184(%rbp), %rax
	addq	$192, %rsp
	popq	%rbp
	retq
Ltmp887:
Lfunc_end138:
	.cfi_endproc

	.globl	__ZN5alloc11collections5btree8navigate39LazyLeafRange$LT$BorrowType$C$K$C$V$GT$4none17h4481cf291cd732b9E
	.p2align	4, 0x90
__ZN5alloc11collections5btree8navigate39LazyLeafRange$LT$BorrowType$C$K$C$V$GT$4none17h4481cf291cd732b9E:
Lfunc_begin139:
	.loc	42 133 0
	.cfi_startproc
	pushq	%rbp
	.cfi_def_cfa_offset 16
	.cfi_offset %rbp, -16
	movq	%rsp, %rbp
	.cfi_def_cfa_register %rbp
	subq	$64, %rsp
	movq	%rdi, %rax
Ltmp888:
	.loc	42 134 32 prologue_end
	movq	$2, -64(%rbp)
	.loc	42 134 44 is_stmt 0
	movq	$2, -32(%rbp)
	.loc	42 134 9
	movq	-64(%rbp), %rcx
	movq	%rcx, (%rdi)
	movq	-56(%rbp), %rcx
	movq	%rcx, 8(%rdi)
	movq	-48(%rbp), %rcx
	movq	%rcx, 16(%rdi)
	movq	-40(%rbp), %rcx
	movq	%rcx, 24(%rdi)
	movq	-32(%rbp), %rcx
	movq	%rcx, 32(%rdi)
	movq	-24(%rbp), %rcx
	movq	%rcx, 40(%rdi)
	movq	-16(%rbp), %rcx
	movq	%rcx, 48(%rdi)
	movq	-8(%rbp), %rcx
	movq	%rcx, 56(%rdi)
	.loc	42 135 6 is_stmt 1
	addq	$64, %rsp
	popq	%rbp
	retq
Ltmp889:
Lfunc_end139:
	.cfi_endproc

	.globl	__ZN5alloc11collections5btree8navigate75LazyLeafRange$LT$alloc..collections..btree..node..marker..Dying$C$K$C$V$GT$10take_front17he5d019051f86aad6E
	.p2align	4, 0x90
__ZN5alloc11collections5btree8navigate75LazyLeafRange$LT$alloc..collections..btree..node..marker..Dying$C$K$C$V$GT$10take_front17he5d019051f86aad6E:
Lfunc_begin140:
	.loc	42 171 0
	.cfi_startproc
	pushq	%rbp
	.cfi_def_cfa_offset 16
	.cfi_offset %rbp, -16
	movq	%rsp, %rbp
	.cfi_def_cfa_register %rbp
	subq	$368, %rsp
	movq	%rdi, -360(%rbp)
	movq	%rdi, -352(%rbp)
	movq	%rsi, -48(%rbp)
Ltmp890:
	.loc	42 174 15 prologue_end
	movq	%rsi, -24(%rbp)
Ltmp891:
	.loc	3 1623 28
	movq	$2, -144(%rbp)
	.loc	3 1623 9 is_stmt 0
	leaq	-280(%rbp), %rdi
	leaq	-144(%rbp), %rdx
	callq	__ZN4core3mem7replace17h040e1560422b26d9E
Ltmp892:
	.loc	3 2407 15 is_stmt 1
	movl	$1, %eax
	xorl	%ecx, %ecx
	cmpq	$2, -280(%rbp)
	cmoveq	%rcx, %rax
	.loc	3 2407 9 is_stmt 0
	cmpq	$0, %rax
	jne	LBB140_2
	.loc	3 2409 21 is_stmt 1
	movq	$2, -312(%rbp)
	.loc	3 2409 44 is_stmt 0
	jmp	LBB140_3
LBB140_2:
	.loc	3 2408 18 is_stmt 1
	movq	-280(%rbp), %rax
	movq	%rax, -112(%rbp)
	movq	-272(%rbp), %rax
	movq	%rax, -104(%rbp)
	movq	-264(%rbp), %rax
	movq	%rax, -96(%rbp)
	movq	-256(%rbp), %rax
	movq	%rax, -88(%rbp)
Ltmp893:
	.loc	3 2408 46 is_stmt 0
	movq	-112(%rbp), %rax
	movq	%rax, -80(%rbp)
	movq	-104(%rbp), %rax
	movq	%rax, -72(%rbp)
	movq	-96(%rbp), %rax
	movq	%rax, -64(%rbp)
	movq	-88(%rbp), %rax
	movq	%rax, -56(%rbp)
	.loc	3 2408 24
	movq	-80(%rbp), %rax
	movq	%rax, -312(%rbp)
	movq	-72(%rbp), %rax
	movq	%rax, -304(%rbp)
	movq	-64(%rbp), %rax
	movq	%rax, -296(%rbp)
	movq	-56(%rbp), %rax
	movq	%rax, -288(%rbp)
Ltmp894:
LBB140_3:
	.loc	42 174 15 is_stmt 1
	xorl	%eax, %eax
	movl	$1, %ecx
	cmpq	$2, -312(%rbp)
	cmoveq	%rcx, %rax
	cmpq	$0, %rax
	jne	LBB140_5
	movq	-312(%rbp), %rax
	movq	%rax, -248(%rbp)
	movq	-304(%rbp), %rax
	movq	%rax, -240(%rbp)
	movq	-296(%rbp), %rax
	movq	%rax, -232(%rbp)
	movq	-288(%rbp), %rax
	movq	%rax, -224(%rbp)
Ltmp895:
	.loc	42 174 15 is_stmt 0
	movq	-248(%rbp), %rax
	movq	%rax, -344(%rbp)
	movq	-240(%rbp), %rax
	movq	%rax, -336(%rbp)
	movq	-232(%rbp), %rax
	movq	%rax, -328(%rbp)
	movq	-224(%rbp), %rax
	movq	%rax, -320(%rbp)
Ltmp896:
	.loc	42 174 9
	cmpq	$0, -344(%rbp)
	je	LBB140_7
	jmp	LBB140_8
LBB140_5:
	.loc	42 0 9
	movq	-360(%rbp), %rax
Ltmp897:
	.loc	3 2420 21 is_stmt 1
	movq	$0, 8(%rax)
Ltmp898:
LBB140_6:
	.loc	3 0 21 is_stmt 0
	movq	-352(%rbp), %rax
	.loc	42 178 6 is_stmt 1
	addq	$368, %rsp
	popq	%rbp
	retq
LBB140_7:
	.loc	42 175 34
	movq	-336(%rbp), %rsi
	movq	-328(%rbp), %rdx
	movq	%rsi, -16(%rbp)
	movq	%rdx, -8(%rbp)
Ltmp899:
	.loc	42 175 48 is_stmt 0
	leaq	-216(%rbp), %rdi
	callq	__ZN5alloc11collections5btree8navigate142_$LT$impl$u20$alloc..collections..btree..node..NodeRef$LT$BorrowType$C$K$C$V$C$alloc..collections..btree..node..marker..LeafOrInternal$GT$$GT$15first_leaf_edge17h732da7df35412592E
	movq	-360(%rbp), %rax
	.loc	42 175 43
	movq	-216(%rbp), %rcx
	movq	%rcx, (%rax)
	movq	-208(%rbp), %rcx
	movq	%rcx, 8(%rax)
	movq	-200(%rbp), %rcx
	movq	%rcx, 16(%rax)
Ltmp900:
	.loc	42 175 70
	jmp	LBB140_9
LBB140_8:
	.loc	42 0 70
	movq	-360(%rbp), %rax
	.loc	42 176 34 is_stmt 1
	movq	-336(%rbp), %rcx
	movq	%rcx, -192(%rbp)
	movq	-328(%rbp), %rcx
	movq	%rcx, -184(%rbp)
	movq	-320(%rbp), %rcx
	movq	%rcx, -176(%rbp)
Ltmp901:
	.loc	42 176 48 is_stmt 0
	movq	-192(%rbp), %rcx
	movq	%rcx, -168(%rbp)
	movq	-184(%rbp), %rcx
	movq	%rcx, -160(%rbp)
	movq	-176(%rbp), %rcx
	movq	%rcx, -152(%rbp)
	.loc	42 176 43
	movq	-168(%rbp), %rcx
	movq	%rcx, (%rax)
	movq	-160(%rbp), %rcx
	movq	%rcx, 8(%rax)
	movq	-152(%rbp), %rcx
	movq	%rcx, 16(%rax)
Ltmp902:
LBB140_9:
	.loc	42 178 6 is_stmt 1
	jmp	LBB140_6
Ltmp903:
Lfunc_end140:
	.cfi_endproc

	.globl	__ZN5alloc11collections5btree8navigate75LazyLeafRange$LT$alloc..collections..btree..node..marker..Dying$C$K$C$V$GT$16deallocating_end17h7996bb71571da741E
	.p2align	4, 0x90
__ZN5alloc11collections5btree8navigate75LazyLeafRange$LT$alloc..collections..btree..node..marker..Dying$C$K$C$V$GT$16deallocating_end17h7996bb71571da741E:
Lfunc_begin141:
	.loc	42 201 0
	.cfi_startproc
	.cfi_personality 155, _rust_eh_personality
	.cfi_lsda 16, Lexception20
	pushq	%rbp
	.cfi_def_cfa_offset 16
	.cfi_offset %rbp, -16
	movq	%rsp, %rbp
	.cfi_def_cfa_register %rbp
	subq	$112, %rsp
	movq	%rdi, %rsi
	movq	%rsi, -32(%rbp)
Ltmp909:
	.loc	42 202 30 prologue_end
	movb	$1, -33(%rbp)
Ltmp904:
	leaq	-112(%rbp), %rdi
	callq	__ZN5alloc11collections5btree8navigate75LazyLeafRange$LT$alloc..collections..btree..node..marker..Dying$C$K$C$V$GT$10take_front17he5d019051f86aad6E
Ltmp905:
	jmp	LBB141_3
Ltmp910:
LBB141_1:
	.loc	42 205 5
	testb	$1, -33(%rbp)
	jne	LBB141_8
	jmp	LBB141_7
LBB141_2:
Ltmp908:
	.loc	42 0 5 is_stmt 0
	movq	%rax, %rcx
	movl	%edx, %eax
	movq	%rcx, -16(%rbp)
	movl	%eax, -8(%rbp)
	jmp	LBB141_1
LBB141_3:
Ltmp911:
	.loc	42 202 16 is_stmt 1
	movq	-104(%rbp), %rdx
	movl	$1, %eax
	xorl	%ecx, %ecx
	cmpq	$0, %rdx
	cmoveq	%rcx, %rax
	cmpq	$1, %rax
	jne	LBB141_5
	.loc	42 202 21 is_stmt 0
	movq	-96(%rbp), %rax
	movq	%rax, -72(%rbp)
	movq	-112(%rbp), %rax
	movq	-104(%rbp), %rcx
	movq	%rcx, -80(%rbp)
	movq	%rax, -88(%rbp)
	.loc	42 203 13 is_stmt 1
	movq	-72(%rbp), %rax
	movq	%rax, -48(%rbp)
	movq	-88(%rbp), %rax
	movq	-80(%rbp), %rcx
	movq	%rcx, -56(%rbp)
	movq	%rax, -64(%rbp)
	.loc	42 203 36 is_stmt 0
	movb	$0, -33(%rbp)
Ltmp906:
	leaq	-64(%rbp), %rdi
	.loc	42 203 13
	callq	__ZN5alloc11collections5btree8navigate263_$LT$impl$u20$alloc..collections..btree..node..Handle$LT$alloc..collections..btree..node..NodeRef$LT$alloc..collections..btree..node..marker..Dying$C$K$C$V$C$alloc..collections..btree..node..marker..Leaf$GT$$C$alloc..collections..btree..node..marker..Edge$GT$$GT$16deallocating_end17h655c65ab5f9fa895E
Ltmp907:
	jmp	LBB141_6
Ltmp912:
LBB141_5:
	.loc	42 205 5 is_stmt 1
	testb	$1, -33(%rbp)
	jne	LBB141_10
	jmp	LBB141_9
LBB141_6:
	.loc	42 202 9
	jmp	LBB141_5
LBB141_7:
	.loc	42 201 5
	movq	-16(%rbp), %rdi
	callq	__Unwind_Resume
LBB141_8:
	.loc	42 205 5
	jmp	LBB141_7
LBB141_9:
	.loc	42 205 6 is_stmt 0
	addq	$112, %rsp
	popq	%rbp
	retq
LBB141_10:
	.loc	42 205 5
	jmp	LBB141_9
Ltmp913:
Lfunc_end141:
	.cfi_endproc
	.section	__TEXT,__gcc_except_tab
	.p2align	2
GCC_except_table141:
Lexception20:
	.byte	255
	.byte	255
	.byte	1
	.uleb128 Lcst_end20-Lcst_begin20
Lcst_begin20:
	.uleb128 Ltmp904-Lfunc_begin141
	.uleb128 Ltmp907-Ltmp904
	.uleb128 Ltmp908-Lfunc_begin141
	.byte	0
	.uleb128 Ltmp907-Lfunc_begin141
	.uleb128 Lfunc_end141-Ltmp907
	.byte	0
	.byte	0
Lcst_end20:
	.p2align	2

	.section	__TEXT,__text,regular,pure_instructions
	.globl	__ZN5alloc11collections5btree8navigate75LazyLeafRange$LT$alloc..collections..btree..node..marker..Dying$C$K$C$V$GT$27deallocating_next_unchecked17h034049ae49a0b52bE
	.p2align	4, 0x90
__ZN5alloc11collections5btree8navigate75LazyLeafRange$LT$alloc..collections..btree..node..marker..Dying$C$K$C$V$GT$27deallocating_next_unchecked17h034049ae49a0b52bE:
Lfunc_begin142:
	.loc	42 181 0 is_stmt 1
	.cfi_startproc
	.cfi_personality 155, _rust_eh_personality
	.cfi_lsda 16, Lexception21
	pushq	%rbp
	.cfi_def_cfa_offset 16
	.cfi_offset %rbp, -16
	movq	%rsp, %rbp
	.cfi_def_cfa_register %rbp
	subq	$96, %rsp
	movq	%rsi, -88(%rbp)
	movq	%rdi, %rax
	movq	-88(%rbp), %rdi
	movq	%rax, -80(%rbp)
	movq	%rax, -72(%rbp)
	movq	%rdi, -40(%rbp)
Ltmp921:
	.loc	42 185 9 prologue_end
	movb	$1, -41(%rbp)
Ltmp914:
	.loc	42 186 21
	callq	__ZN5alloc11collections5btree8navigate39LazyLeafRange$LT$BorrowType$C$K$C$V$GT$10init_front17hfbb0bf635bf54b0eE
Ltmp915:
	movq	%rax, -64(%rbp)
	jmp	LBB142_3
LBB142_1:
	.loc	42 188 5
	testb	$1, -41(%rbp)
	jne	LBB142_9
	jmp	LBB142_8
LBB142_2:
Ltmp920:
	.loc	42 0 5 is_stmt 0
	movq	%rax, %rcx
	movl	%edx, %eax
	movq	%rcx, -24(%rbp)
	movl	%eax, -16(%rbp)
	jmp	LBB142_1
LBB142_3:
	movq	-64(%rbp), %rax
	.loc	42 186 21 is_stmt 1
	movq	%rax, -56(%rbp)
Ltmp922:
	.loc	3 821 15
	movq	-56(%rbp), %rdx
	movl	$1, %eax
	xorl	%ecx, %ecx
	cmpq	$0, %rdx
	cmoveq	%rcx, %rax
	.loc	3 821 9 is_stmt 0
	cmpq	$0, %rax
	jne	LBB142_5
Ltmp918:
	.loc	3 823 21 is_stmt 1
	leaq	l___unnamed_10(%rip), %rdi
	leaq	l___unnamed_12(%rip), %rdx
	movl	$43, %esi
	callq	__ZN4core9panicking5panic17hc1bc45270cf64b03E
Ltmp919:
	jmp	LBB142_7
LBB142_5:
	.loc	3 0 21 is_stmt 0
	movq	-80(%rbp), %rdi
	.loc	3 822 18 is_stmt 1
	movq	-56(%rbp), %rsi
	movq	%rsi, -8(%rbp)
Ltmp923:
	.loc	42 187 52
	movb	$0, -41(%rbp)
Ltmp916:
	.loc	42 187 18 is_stmt 0
	callq	__ZN5alloc11collections5btree8navigate263_$LT$impl$u20$alloc..collections..btree..node..Handle$LT$alloc..collections..btree..node..NodeRef$LT$alloc..collections..btree..node..marker..Dying$C$K$C$V$C$alloc..collections..btree..node..marker..Leaf$GT$$C$alloc..collections..btree..node..marker..Edge$GT$$GT$27deallocating_next_unchecked17hf12db719246f83daE
Ltmp917:
	jmp	LBB142_6
Ltmp924:
LBB142_6:
	.loc	42 0 18
	movq	-72(%rbp), %rax
	.loc	42 188 6 is_stmt 1
	addq	$96, %rsp
	popq	%rbp
	retq
LBB142_7:
	.loc	42 0 6 is_stmt 0
	ud2
LBB142_8:
	.loc	42 181 5 is_stmt 1
	movq	-24(%rbp), %rdi
	callq	__Unwind_Resume
LBB142_9:
	.loc	42 188 5
	jmp	LBB142_8
Ltmp925:
Lfunc_end142:
	.cfi_endproc
	.section	__TEXT,__gcc_except_tab
	.p2align	2
GCC_except_table142:
Lexception21:
	.byte	255
	.byte	255
	.byte	1
	.uleb128 Lcst_end21-Lcst_begin21
Lcst_begin21:
	.uleb128 Ltmp914-Lfunc_begin142
	.uleb128 Ltmp917-Ltmp914
	.uleb128 Ltmp920-Lfunc_begin142
	.byte	0
	.uleb128 Ltmp917-Lfunc_begin142
	.uleb128 Lfunc_end142-Ltmp917
	.byte	0
	.byte	0
Lcst_end21:
	.p2align	2

	.section	__TEXT,__text,regular,pure_instructions
	.p2align	4, 0x90
__ZN5alloc3fmt6format17h9987212a05a404cbE:
Lfunc_begin143:
	.file	44 "/rustc/2c8cc343237b8f7d5a3c3703e3a87f2eb2c54a74/library/alloc/src" "fmt.rs"
	.loc	44 608 0
	.cfi_startproc
	pushq	%rbp
	.cfi_def_cfa_offset 16
	.cfi_offset %rbp, -16
	movq	%rsp, %rbp
	.cfi_def_cfa_register %rbp
	subq	$32, %rsp
	movq	%rsi, -24(%rbp)
	movq	%rdi, %rax
	movq	-24(%rbp), %rdi
	movq	%rax, -32(%rbp)
	movq	%rax, -16(%rbp)
Ltmp926:
	.loc	44 616 5 prologue_end
	callq	__ZN4core3fmt9Arguments6as_str17hf2bb82f06f2f8425E
	movq	-32(%rbp), %rdi
	movq	%rax, %rsi
	movq	-24(%rbp), %rax
	.loc	44 616 31 is_stmt 0
	movq	%rax, -8(%rbp)
	.loc	44 616 5
	movq	-8(%rbp), %rcx
	callq	__ZN4core6option15Option$LT$T$GT$11map_or_else17h13a140234188e005E
	movq	-16(%rbp), %rax
	.loc	44 617 2 is_stmt 1
	addq	$32, %rsp
	popq	%rbp
	retq
Ltmp927:
Lfunc_end143:
	.cfi_endproc

	.p2align	4, 0x90
__ZN5alloc3str56_$LT$impl$u20$alloc..borrow..ToOwned$u20$for$u20$str$GT$8to_owned17hc99cda634ea9dab8E:
Lfunc_begin144:
	.loc	7 208 0
	.cfi_startproc
	pushq	%rbp
	.cfi_def_cfa_offset 16
	.cfi_offset %rbp, -16
	movq	%rsp, %rbp
	.cfi_def_cfa_register %rbp
	subq	$112, %rsp
	movq	%rdi, -112(%rbp)
	movq	%rdi, -104(%rbp)
	movq	%rsi, -48(%rbp)
	movq	%rdx, -40(%rbp)
Ltmp928:
	.loc	7 209 46 prologue_end
	movq	%rsi, -32(%rbp)
	movq	%rdx, -24(%rbp)
Ltmp929:
	.loc	8 327 18
	movq	%rsi, -16(%rbp)
	movq	%rdx, -8(%rbp)
	movq	-16(%rbp), %rsi
	movq	-8(%rbp), %rdx
Ltmp930:
	.loc	7 209 46
	leaq	-96(%rbp), %rdi
	callq	__ZN5alloc5slice64_$LT$impl$u20$alloc..borrow..ToOwned$u20$for$u20$$u5b$T$u5d$$GT$8to_owned17h607b302c8a77fb8aE
	movq	-112(%rbp), %rdi
	movq	-104(%rbp), %rax
Ltmp931:
	.loc	6 846 23
	movq	-96(%rbp), %rcx
	movq	%rcx, -72(%rbp)
	movq	-88(%rbp), %rcx
	movq	%rcx, -64(%rbp)
	movq	-80(%rbp), %rcx
	movq	%rcx, -56(%rbp)
	.loc	6 846 9 is_stmt 0
	movq	-72(%rbp), %rcx
	movq	%rcx, (%rdi)
	movq	-64(%rbp), %rcx
	movq	%rcx, 8(%rdi)
	movq	-56(%rbp), %rcx
	movq	%rcx, 16(%rdi)
Ltmp932:
	.loc	7 210 6 is_stmt 1
	addq	$112, %rsp
	popq	%rbp
	retq
Ltmp933:
Lfunc_end144:
	.cfi_endproc

	.p2align	4, 0x90
__ZN5alloc5alloc15exchange_malloc17h491c7f8558ff8adcE:
Lfunc_begin145:
	.loc	35 324 0
	.cfi_startproc
	pushq	%rbp
	.cfi_def_cfa_offset 16
	.cfi_offset %rbp, -16
	movq	%rsp, %rbp
	.cfi_def_cfa_register %rbp
	subq	$208, %rsp
	movq	%rdi, -160(%rbp)
	movq	%rsi, -152(%rbp)
Ltmp934:
	.loc	35 325 61 prologue_end
	movq	%rdi, -144(%rbp)
	.loc	35 325 67 is_stmt 0
	movq	%rsi, -136(%rbp)
Ltmp935:
	.loc	29 120 65 is_stmt 1
	movq	%rsi, -128(%rbp)
Ltmp936:
	.loc	30 89 18
	movq	%rsi, -120(%rbp)
	movq	-120(%rbp), %rax
Ltmp937:
	.loc	29 120 18
	movq	%rdi, -200(%rbp)
	movq	%rax, -192(%rbp)
Ltmp938:
	.loc	35 326 11
	leaq	l___unnamed_6(%rip), %rdi
	movq	%rdi, -112(%rbp)
	.loc	35 326 27 is_stmt 0
	movq	-200(%rbp), %rsi
	movq	-192(%rbp), %rdx
	movq	%rsi, -104(%rbp)
	movq	%rdx, -96(%rbp)
	xorl	%ecx, %ecx
Ltmp939:
	.loc	35 237 9 is_stmt 1
	callq	__ZN5alloc5alloc6Global10alloc_impl17h3d06396feebde233E
	movq	%rdx, -176(%rbp)
	movq	%rax, -184(%rbp)
Ltmp940:
	.loc	35 326 11
	movq	-184(%rbp), %rdx
	xorl	%eax, %eax
	movl	$1, %ecx
	cmpq	$0, %rdx
	cmoveq	%rcx, %rax
	.loc	35 326 5 is_stmt 0
	cmpq	$0, %rax
	jne	LBB145_2
	.loc	35 327 12 is_stmt 1
	movq	-184(%rbp), %rax
	movq	-176(%rbp), %rcx
	movq	%rax, -88(%rbp)
	movq	%rcx, -80(%rbp)
Ltmp941:
	.loc	35 327 20 is_stmt 0
	movq	%rax, -72(%rbp)
	movq	%rcx, -64(%rbp)
Ltmp942:
	.loc	11 548 9 is_stmt 1
	movq	%rax, -56(%rbp)
	movq	%rcx, -48(%rbp)
Ltmp943:
	.loc	11 529 41
	movq	%rax, -40(%rbp)
	movq	%rcx, -32(%rbp)
Ltmp944:
	.loc	11 326 9
	movq	%rax, -24(%rbp)
	movq	%rcx, -16(%rbp)
Ltmp945:
	.loc	12 2037 9
	movq	%rax, -8(%rbp)
Ltmp946:
	.loc	11 201 13
	movq	%rax, -168(%rbp)
Ltmp947:
	.loc	11 326 9
	movq	-168(%rbp), %rax
Ltmp948:
	.loc	35 330 2
	addq	$208, %rsp
	popq	%rbp
	retq
LBB145_2:
Ltmp949:
	.loc	35 328 38
	movq	-200(%rbp), %rdi
	movq	-192(%rbp), %rsi
	.loc	35 328 19 is_stmt 0
	callq	__ZN5alloc5alloc18handle_alloc_error17hb5f6ff255f23ea4dE
Ltmp950:
Lfunc_end145:
	.cfi_endproc

	.p2align	4, 0x90
__ZN5alloc5alloc6Global10alloc_impl17h3d06396feebde233E:
Lfunc_begin146:
	.loc	35 172 0 is_stmt 1
	.cfi_startproc
	pushq	%rbp
	.cfi_def_cfa_offset 16
	.cfi_offset %rbp, -16
	movq	%rsp, %rbp
	.cfi_def_cfa_register %rbp
	subq	$352, %rsp
	movb	%cl, %al
	movb	%al, -345(%rbp)
	movq	%rsi, -336(%rbp)
	movq	%rdx, -328(%rbp)
	movq	%rdi, -208(%rbp)
	andb	$1, %al
	movb	%al, -193(%rbp)
Ltmp951:
	.loc	35 173 15 prologue_end
	leaq	-336(%rbp), %rax
	movq	%rax, -144(%rbp)
Ltmp952:
	.loc	29 129 9
	movq	-336(%rbp), %rax
	movq	%rax, -344(%rbp)
Ltmp953:
	.loc	35 173 9
	cmpq	$0, %rax
	jne	LBB146_2
	.loc	35 174 51
	leaq	-336(%rbp), %rax
	movq	%rax, -48(%rbp)
Ltmp954:
	.loc	29 216 71
	leaq	-336(%rbp), %rax
	movq	%rax, -40(%rbp)
Ltmp955:
	.loc	29 140 9
	movq	-328(%rbp), %rax
	movq	%rax, -32(%rbp)
Ltmp956:
	.loc	30 97 9
	movq	%rax, -232(%rbp)
	movq	-232(%rbp), %rax
	movq	%rax, -24(%rbp)
Ltmp957:
	.loc	4 599 14
	movq	%rax, -16(%rbp)
	movq	-16(%rbp), %rax
	movq	%rax, -8(%rbp)
Ltmp958:
	.loc	11 201 13
	movq	%rax, -304(%rbp)
Ltmp959:
	.loc	35 174 21
	movq	-304(%rbp), %rdi
	xorl	%eax, %eax
	movl	%eax, %esi
	callq	__ZN4core3ptr8non_null26NonNull$LT$$u5b$T$u5d$$GT$20slice_from_raw_parts17h46101907c2d85198E
	.loc	35 174 18 is_stmt 0
	movq	%rax, -320(%rbp)
	movq	%rdx, -312(%rbp)
	.loc	35 174 72
	jmp	LBB146_15
LBB146_2:
	.loc	35 0 72
	movb	-345(%rbp), %al
	movq	-344(%rbp), %rcx
	.loc	35 176 13 is_stmt 1
	movq	%rcx, -136(%rbp)
Ltmp960:
	.loc	35 177 34
	testb	$1, %al
	jne	LBB146_4
	.loc	35 177 79 is_stmt 0
	movq	-336(%rbp), %rcx
	movq	-328(%rbp), %rax
	movq	%rcx, -272(%rbp)
	movq	%rax, -264(%rbp)
Ltmp961:
	.loc	35 95 27 is_stmt 1
	leaq	-272(%rbp), %rax
	movq	%rax, -104(%rbp)
Ltmp962:
	.loc	29 129 9
	movq	-272(%rbp), %rdi
Ltmp963:
	.loc	35 95 42
	leaq	-272(%rbp), %rax
	movq	%rax, -96(%rbp)
Ltmp964:
	.loc	29 140 9
	movq	-264(%rbp), %rax
	movq	%rax, -88(%rbp)
Ltmp965:
	.loc	30 97 9
	movq	%rax, -216(%rbp)
	movq	-216(%rbp), %rsi
Ltmp966:
	.loc	35 95 14
	callq	___rust_alloc
	movq	%rax, -296(%rbp)
Ltmp967:
	.loc	35 177 31
	jmp	LBB146_5
LBB146_4:
	.loc	35 177 56 is_stmt 0
	movq	-336(%rbp), %rcx
	movq	-328(%rbp), %rax
	movq	%rcx, -288(%rbp)
	movq	%rax, -280(%rbp)
Ltmp968:
	.loc	35 166 34 is_stmt 1
	leaq	-288(%rbp), %rax
	movq	%rax, -128(%rbp)
Ltmp969:
	.loc	29 129 9
	movq	-288(%rbp), %rdi
Ltmp970:
	.loc	35 166 49
	leaq	-288(%rbp), %rax
	movq	%rax, -120(%rbp)
Ltmp971:
	.loc	29 140 9
	movq	-280(%rbp), %rax
	movq	%rax, -112(%rbp)
Ltmp972:
	.loc	30 97 9
	movq	%rax, -224(%rbp)
	movq	-224(%rbp), %rsi
Ltmp973:
	.loc	35 166 14
	callq	___rust_alloc_zeroed
	movq	%rax, -296(%rbp)
Ltmp974:
LBB146_5:
	.loc	35 178 40
	movq	-296(%rbp), %rdi
	.loc	35 178 27 is_stmt 0
	callq	__ZN4core3ptr8non_null16NonNull$LT$T$GT$3new17h16cb042252a2b6b9E
	movq	%rax, -240(%rbp)
Ltmp975:
	.loc	3 1096 15 is_stmt 1
	movq	-240(%rbp), %rdx
	movl	$1, %eax
	xorl	%ecx, %ecx
	cmpq	$0, %rdx
	cmoveq	%rcx, %rax
	.loc	3 1096 9 is_stmt 0
	cmpq	$0, %rax
	jne	LBB146_7
	.loc	3 1098 21 is_stmt 1
	movq	$0, -248(%rbp)
	.loc	3 1098 28 is_stmt 0
	jmp	LBB146_8
LBB146_7:
	.loc	3 1097 18 is_stmt 1
	movq	-240(%rbp), %rax
	movq	%rax, -80(%rbp)
Ltmp976:
	.loc	3 1097 24 is_stmt 0
	movq	%rax, -248(%rbp)
Ltmp977:
LBB146_8:
	.loc	33 2091 15 is_stmt 1
	movq	-248(%rbp), %rdx
	xorl	%eax, %eax
	movl	$1, %ecx
	cmpq	$0, %rdx
	cmoveq	%rcx, %rax
	.loc	33 2091 9 is_stmt 0
	cmpq	$0, %rax
	jne	LBB146_10
	.loc	33 2092 16 is_stmt 1
	movq	-248(%rbp), %rax
	movq	%rax, -72(%rbp)
Ltmp978:
	.loc	33 2092 22 is_stmt 0
	movq	%rax, -256(%rbp)
Ltmp979:
	.loc	33 2092 45
	jmp	LBB146_11
LBB146_10:
Ltmp980:
	.loc	33 2093 23 is_stmt 1
	movq	$0, -256(%rbp)
Ltmp981:
LBB146_11:
	.loc	35 178 27
	movq	-256(%rbp), %rdx
	xorl	%eax, %eax
	movl	$1, %ecx
	cmpq	$0, %rdx
	cmoveq	%rcx, %rax
	cmpq	$0, %rax
	jne	LBB146_13
	.loc	35 0 27 is_stmt 0
	movq	-344(%rbp), %rsi
	.loc	35 178 27
	movq	-256(%rbp), %rdi
	movq	%rdi, -64(%rbp)
Ltmp982:
	.loc	35 178 27
	movq	%rdi, -56(%rbp)
Ltmp983:
	.loc	35 179 20 is_stmt 1
	callq	__ZN4core3ptr8non_null26NonNull$LT$$u5b$T$u5d$$GT$20slice_from_raw_parts17h46101907c2d85198E
	.loc	35 179 17 is_stmt 0
	movq	%rax, -320(%rbp)
	movq	%rdx, -312(%rbp)
Ltmp984:
	.loc	35 180 13 is_stmt 1
	jmp	LBB146_15
LBB146_13:
Ltmp985:
	.loc	33 2107 23
	movq	$0, -320(%rbp)
Ltmp986:
LBB146_14:
	.loc	35 182 6
	movq	-320(%rbp), %rax
	movq	-312(%rbp), %rdx
	addq	$352, %rsp
	popq	%rbp
	retq
LBB146_15:
	jmp	LBB146_14
Ltmp987:
Lfunc_end146:
	.cfi_endproc

	.globl	__ZN5alloc5alloc8box_free17h228d13d5ff77f681E
	.p2align	4, 0x90
__ZN5alloc5alloc8box_free17h228d13d5ff77f681E:
Lfunc_begin147:
	.loc	35 340 0
	.cfi_startproc
	.cfi_personality 155, _rust_eh_personality
	.cfi_lsda 16, Lexception22
	pushq	%rbp
	.cfi_def_cfa_offset 16
	.cfi_offset %rbp, -16
	movq	%rsp, %rbp
	.cfi_def_cfa_register %rbp
	subq	$256, %rsp
	movq	%rdi, -240(%rbp)
Ltmp991:
	.loc	35 345 32 prologue_end
	leaq	-240(%rbp), %rax
	movq	%rax, -184(%rbp)
Ltmp992:
	.file	45 "/rustc/2c8cc343237b8f7d5a3c3703e3a87f2eb2c54a74/library/core/src/ptr" "unique.rs"
	.loc	45 117 18
	leaq	-240(%rbp), %rax
	movq	%rax, -176(%rbp)
Ltmp993:
	.loc	11 376 20
	movq	-240(%rbp), %rax
	movq	%rax, -168(%rbp)
Ltmp994:
	.loc	35 345 20
	movq	$24, -160(%rbp)
	movq	-160(%rbp), %rcx
	movq	%rcx, -256(%rbp)
	movq	%rcx, -152(%rbp)
Ltmp995:
	.loc	35 346 38
	leaq	-240(%rbp), %rax
	movq	%rax, -144(%rbp)
Ltmp996:
	.loc	45 117 18
	leaq	-240(%rbp), %rax
	movq	%rax, -136(%rbp)
Ltmp997:
	.loc	11 376 20
	movq	-240(%rbp), %rax
	movq	%rax, -128(%rbp)
Ltmp998:
	.loc	35 346 21
	movq	$8, -120(%rbp)
	movq	-120(%rbp), %rax
	movq	%rax, -112(%rbp)
Ltmp999:
	.loc	35 347 56
	movq	%rcx, -104(%rbp)
	.loc	35 347 62 is_stmt 0
	movq	%rax, -96(%rbp)
Ltmp1000:
	.loc	29 120 65 is_stmt 1
	movq	%rax, -88(%rbp)
Ltmp1001:
	.loc	30 89 18
	movq	%rax, -80(%rbp)
	movq	-80(%rbp), %rax
	movq	%rax, -248(%rbp)
Ltmp1002:
	.loc	30 0 18 is_stmt 0
	movq	-248(%rbp), %rax
	movq	-256(%rbp), %rcx
	.loc	29 120 18 is_stmt 1
	movq	%rcx, -224(%rbp)
	movq	%rax, -216(%rbp)
Ltmp1003:
	.loc	35 348 37
	movq	-240(%rbp), %rax
	movq	%rax, -72(%rbp)
Ltmp1004:
	.loc	45 137 22
	movq	%rax, -64(%rbp)
Ltmp1005:
	.loc	11 450 41
	movq	%rax, -56(%rbp)
	movq	%rax, -48(%rbp)
Ltmp1006:
	.loc	11 201 13
	movq	%rax, -192(%rbp)
Ltmp1007:
	.loc	45 191 18
	movq	-192(%rbp), %rax
	.loc	45 191 9 is_stmt 0
	movq	%rax, -200(%rbp)
Ltmp1008:
	.loc	11 768 41 is_stmt 1
	movq	-200(%rbp), %rax
	movq	%rax, -40(%rbp)
Ltmp1009:
	.loc	45 104 9
	movq	%rax, -32(%rbp)
Ltmp1010:
	.loc	11 326 9
	movq	%rax, -24(%rbp)
Ltmp1011:
	.loc	11 201 13
	movq	%rax, -208(%rbp)
Ltmp1012:
	.loc	35 348 50
	movq	-224(%rbp), %rdx
	movq	-216(%rbp), %rcx
	.loc	35 348 9 is_stmt 0
	movq	-208(%rbp), %rsi
Ltmp988:
	leaq	-232(%rbp), %rdi
	callq	__ZN63_$LT$alloc..alloc..Global$u20$as$u20$core..alloc..Allocator$GT$10deallocate17h916a6f792621e6aeE
Ltmp989:
	jmp	LBB147_4
Ltmp1013:
LBB147_2:
	.loc	35 340 1 is_stmt 1
	movq	-16(%rbp), %rdi
	callq	__Unwind_Resume
LBB147_3:
Ltmp990:
	.loc	35 0 1 is_stmt 0
	movq	%rax, %rcx
	movl	%edx, %eax
	movq	%rcx, -16(%rbp)
	movl	%eax, -8(%rbp)
	jmp	LBB147_2
LBB147_4:
	.loc	35 350 2 is_stmt 1
	addq	$256, %rsp
	popq	%rbp
	retq
Ltmp1014:
Lfunc_end147:
	.cfi_endproc
	.section	__TEXT,__gcc_except_tab
	.p2align	2
GCC_except_table147:
Lexception22:
	.byte	255
	.byte	255
	.byte	1
	.uleb128 Lcst_end22-Lcst_begin22
Lcst_begin22:
	.uleb128 Ltmp988-Lfunc_begin147
	.uleb128 Ltmp989-Ltmp988
	.uleb128 Ltmp990-Lfunc_begin147
	.byte	0
	.uleb128 Ltmp989-Lfunc_begin147
	.uleb128 Lfunc_end147-Ltmp989
	.byte	0
	.byte	0
Lcst_end22:
	.p2align	2

	.section	__TEXT,__text,regular,pure_instructions
	.globl	__ZN5alloc5alloc8box_free17h438802cbbdac7199E
	.p2align	4, 0x90
__ZN5alloc5alloc8box_free17h438802cbbdac7199E:
Lfunc_begin148:
	.loc	35 340 0
	.cfi_startproc
	.cfi_personality 155, _rust_eh_personality
	.cfi_lsda 16, Lexception23
	pushq	%rbp
	.cfi_def_cfa_offset 16
	.cfi_offset %rbp, -16
	movq	%rsp, %rbp
	.cfi_def_cfa_register %rbp
	subq	$304, %rsp
	movq	%rdi, -288(%rbp)
	movq	%rsi, -280(%rbp)
Ltmp1018:
	.loc	35 345 32 prologue_end
	leaq	-288(%rbp), %rax
	movq	%rax, -224(%rbp)
Ltmp1019:
	.loc	45 117 18
	leaq	-288(%rbp), %rax
	movq	%rax, -216(%rbp)
Ltmp1020:
	.loc	11 376 20
	movq	-288(%rbp), %rcx
	movq	-280(%rbp), %rax
	movq	%rcx, -208(%rbp)
	movq	%rax, -200(%rbp)
Ltmp1021:
	.loc	35 345 20
	movq	8(%rax), %rax
	movq	%rax, -192(%rbp)
	movq	-192(%rbp), %rcx
	movq	%rcx, -304(%rbp)
	movq	%rcx, -184(%rbp)
Ltmp1022:
	.loc	35 346 38
	leaq	-288(%rbp), %rax
	movq	%rax, -176(%rbp)
Ltmp1023:
	.loc	45 117 18
	leaq	-288(%rbp), %rax
	movq	%rax, -168(%rbp)
Ltmp1024:
	.loc	11 376 20
	movq	-288(%rbp), %rdx
	movq	-280(%rbp), %rax
	movq	%rdx, -160(%rbp)
	movq	%rax, -152(%rbp)
Ltmp1025:
	.loc	35 346 21
	movq	16(%rax), %rax
	movq	%rax, -144(%rbp)
	movq	-144(%rbp), %rax
	movq	%rax, -136(%rbp)
Ltmp1026:
	.loc	35 347 56
	movq	%rcx, -128(%rbp)
	.loc	35 347 62 is_stmt 0
	movq	%rax, -120(%rbp)
Ltmp1027:
	.loc	29 120 65 is_stmt 1
	movq	%rax, -112(%rbp)
Ltmp1028:
	.loc	30 89 18
	movq	%rax, -104(%rbp)
	movq	-104(%rbp), %rax
	movq	%rax, -296(%rbp)
Ltmp1029:
	.loc	30 0 18 is_stmt 0
	movq	-296(%rbp), %rax
	movq	-304(%rbp), %rcx
	.loc	29 120 18 is_stmt 1
	movq	%rcx, -264(%rbp)
	movq	%rax, -256(%rbp)
Ltmp1030:
	.loc	35 348 37
	movq	-288(%rbp), %rax
	movq	-280(%rbp), %rcx
	movq	%rax, -96(%rbp)
	movq	%rcx, -88(%rbp)
Ltmp1031:
	.loc	45 137 22
	movq	%rax, -80(%rbp)
	movq	%rcx, -72(%rbp)
Ltmp1032:
	.loc	11 450 41
	movq	%rax, -64(%rbp)
	movq	%rcx, -56(%rbp)
	movq	%rax, -48(%rbp)
Ltmp1033:
	.loc	11 201 13
	movq	%rax, -232(%rbp)
Ltmp1034:
	.loc	45 191 18
	movq	-232(%rbp), %rax
	.loc	45 191 9 is_stmt 0
	movq	%rax, -240(%rbp)
Ltmp1035:
	.loc	11 768 41 is_stmt 1
	movq	-240(%rbp), %rax
	movq	%rax, -40(%rbp)
Ltmp1036:
	.loc	45 104 9
	movq	%rax, -32(%rbp)
Ltmp1037:
	.loc	11 326 9
	movq	%rax, -24(%rbp)
Ltmp1038:
	.loc	11 201 13
	movq	%rax, -248(%rbp)
Ltmp1039:
	.loc	35 348 50
	movq	-264(%rbp), %rdx
	movq	-256(%rbp), %rcx
	.loc	35 348 9 is_stmt 0
	movq	-248(%rbp), %rsi
Ltmp1015:
	leaq	-272(%rbp), %rdi
	callq	__ZN63_$LT$alloc..alloc..Global$u20$as$u20$core..alloc..Allocator$GT$10deallocate17h916a6f792621e6aeE
Ltmp1016:
	jmp	LBB148_4
Ltmp1040:
LBB148_2:
	.loc	35 340 1 is_stmt 1
	movq	-16(%rbp), %rdi
	callq	__Unwind_Resume
LBB148_3:
Ltmp1017:
	.loc	35 0 1 is_stmt 0
	movq	%rax, %rcx
	movl	%edx, %eax
	movq	%rcx, -16(%rbp)
	movl	%eax, -8(%rbp)
	jmp	LBB148_2
LBB148_4:
	.loc	35 350 2 is_stmt 1
	addq	$304, %rsp
	popq	%rbp
	retq
Ltmp1041:
Lfunc_end148:
	.cfi_endproc
	.section	__TEXT,__gcc_except_tab
	.p2align	2
GCC_except_table148:
Lexception23:
	.byte	255
	.byte	255
	.byte	1
	.uleb128 Lcst_end23-Lcst_begin23
Lcst_begin23:
	.uleb128 Ltmp1015-Lfunc_begin148
	.uleb128 Ltmp1016-Ltmp1015
	.uleb128 Ltmp1017-Lfunc_begin148
	.byte	0
	.uleb128 Ltmp1016-Lfunc_begin148
	.uleb128 Lfunc_end148-Ltmp1016
	.byte	0
	.byte	0
Lcst_end23:
	.p2align	2

	.section	__TEXT,__text,regular,pure_instructions
	.globl	__ZN5alloc5alloc8box_free17h439939b994b592d7E
	.p2align	4, 0x90
__ZN5alloc5alloc8box_free17h439939b994b592d7E:
Lfunc_begin149:
	.loc	35 340 0
	.cfi_startproc
	.cfi_personality 155, _rust_eh_personality
	.cfi_lsda 16, Lexception24
	pushq	%rbp
	.cfi_def_cfa_offset 16
	.cfi_offset %rbp, -16
	movq	%rsp, %rbp
	.cfi_def_cfa_register %rbp
	subq	$304, %rsp
	movq	%rdi, -288(%rbp)
	movq	%rsi, -280(%rbp)
Ltmp1045:
	.loc	35 345 32 prologue_end
	leaq	-288(%rbp), %rax
	movq	%rax, -224(%rbp)
Ltmp1046:
	.loc	45 117 18
	leaq	-288(%rbp), %rax
	movq	%rax, -216(%rbp)
Ltmp1047:
	.loc	11 376 20
	movq	-288(%rbp), %rcx
	movq	-280(%rbp), %rax
	movq	%rcx, -208(%rbp)
	movq	%rax, -200(%rbp)
Ltmp1048:
	.loc	35 345 20
	shlq	$2, %rax
	movq	%rax, -192(%rbp)
	movq	-192(%rbp), %rcx
	movq	%rcx, -304(%rbp)
	movq	%rcx, -184(%rbp)
Ltmp1049:
	.loc	35 346 38
	leaq	-288(%rbp), %rax
	movq	%rax, -176(%rbp)
Ltmp1050:
	.loc	45 117 18
	leaq	-288(%rbp), %rax
	movq	%rax, -168(%rbp)
Ltmp1051:
	.loc	11 376 20
	movq	-288(%rbp), %rdx
	movq	-280(%rbp), %rax
	movq	%rdx, -160(%rbp)
	movq	%rax, -152(%rbp)
Ltmp1052:
	.loc	35 346 21
	movq	$4, -144(%rbp)
	movq	-144(%rbp), %rax
	movq	%rax, -136(%rbp)
Ltmp1053:
	.loc	35 347 56
	movq	%rcx, -128(%rbp)
	.loc	35 347 62 is_stmt 0
	movq	%rax, -120(%rbp)
Ltmp1054:
	.loc	29 120 65 is_stmt 1
	movq	%rax, -112(%rbp)
Ltmp1055:
	.loc	30 89 18
	movq	%rax, -104(%rbp)
	movq	-104(%rbp), %rax
	movq	%rax, -296(%rbp)
Ltmp1056:
	.loc	30 0 18 is_stmt 0
	movq	-296(%rbp), %rax
	movq	-304(%rbp), %rcx
	.loc	29 120 18 is_stmt 1
	movq	%rcx, -264(%rbp)
	movq	%rax, -256(%rbp)
Ltmp1057:
	.loc	35 348 37
	movq	-288(%rbp), %rax
	movq	-280(%rbp), %rcx
	movq	%rax, -96(%rbp)
	movq	%rcx, -88(%rbp)
Ltmp1058:
	.loc	45 137 22
	movq	%rax, -80(%rbp)
	movq	%rcx, -72(%rbp)
Ltmp1059:
	.loc	11 450 41
	movq	%rax, -64(%rbp)
	movq	%rcx, -56(%rbp)
	movq	%rax, -48(%rbp)
Ltmp1060:
	.loc	11 201 13
	movq	%rax, -232(%rbp)
Ltmp1061:
	.loc	45 191 18
	movq	-232(%rbp), %rax
	.loc	45 191 9 is_stmt 0
	movq	%rax, -240(%rbp)
Ltmp1062:
	.loc	11 768 41 is_stmt 1
	movq	-240(%rbp), %rax
	movq	%rax, -40(%rbp)
Ltmp1063:
	.loc	45 104 9
	movq	%rax, -32(%rbp)
Ltmp1064:
	.loc	11 326 9
	movq	%rax, -24(%rbp)
Ltmp1065:
	.loc	11 201 13
	movq	%rax, -248(%rbp)
Ltmp1066:
	.loc	35 348 50
	movq	-264(%rbp), %rdx
	movq	-256(%rbp), %rcx
	.loc	35 348 9 is_stmt 0
	movq	-248(%rbp), %rsi
Ltmp1042:
	leaq	-272(%rbp), %rdi
	callq	__ZN63_$LT$alloc..alloc..Global$u20$as$u20$core..alloc..Allocator$GT$10deallocate17h916a6f792621e6aeE
Ltmp1043:
	jmp	LBB149_4
Ltmp1067:
LBB149_2:
	.loc	35 340 1 is_stmt 1
	movq	-16(%rbp), %rdi
	callq	__Unwind_Resume
LBB149_3:
Ltmp1044:
	.loc	35 0 1 is_stmt 0
	movq	%rax, %rcx
	movl	%edx, %eax
	movq	%rcx, -16(%rbp)
	movl	%eax, -8(%rbp)
	jmp	LBB149_2
LBB149_4:
	.loc	35 350 2 is_stmt 1
	addq	$304, %rsp
	popq	%rbp
	retq
Ltmp1068:
Lfunc_end149:
	.cfi_endproc
	.section	__TEXT,__gcc_except_tab
	.p2align	2
GCC_except_table149:
Lexception24:
	.byte	255
	.byte	255
	.byte	1
	.uleb128 Lcst_end24-Lcst_begin24
Lcst_begin24:
	.uleb128 Ltmp1042-Lfunc_begin149
	.uleb128 Ltmp1043-Ltmp1042
	.uleb128 Ltmp1044-Lfunc_begin149
	.byte	0
	.uleb128 Ltmp1043-Lfunc_begin149
	.uleb128 Lfunc_end149-Ltmp1043
	.byte	0
	.byte	0
Lcst_end24:
	.p2align	2

	.section	__TEXT,__text,regular,pure_instructions
	.globl	__ZN5alloc5alloc8box_free17h4761b7c9236640ceE
	.p2align	4, 0x90
__ZN5alloc5alloc8box_free17h4761b7c9236640ceE:
Lfunc_begin150:
	.loc	35 340 0
	.cfi_startproc
	.cfi_personality 155, _rust_eh_personality
	.cfi_lsda 16, Lexception25
	pushq	%rbp
	.cfi_def_cfa_offset 16
	.cfi_offset %rbp, -16
	movq	%rsp, %rbp
	.cfi_def_cfa_register %rbp
	subq	$304, %rsp
	movq	%rdi, -288(%rbp)
	movq	%rsi, -280(%rbp)
Ltmp1072:
	.loc	35 345 32 prologue_end
	leaq	-288(%rbp), %rax
	movq	%rax, -224(%rbp)
Ltmp1073:
	.loc	45 117 18
	leaq	-288(%rbp), %rax
	movq	%rax, -216(%rbp)
Ltmp1074:
	.loc	11 376 20
	movq	-288(%rbp), %rcx
	movq	-280(%rbp), %rax
	movq	%rcx, -208(%rbp)
	movq	%rax, -200(%rbp)
Ltmp1075:
	.loc	35 345 20
	shlq	$0, %rax
	movq	%rax, -192(%rbp)
	movq	-192(%rbp), %rcx
	movq	%rcx, -304(%rbp)
	movq	%rcx, -184(%rbp)
Ltmp1076:
	.loc	35 346 38
	leaq	-288(%rbp), %rax
	movq	%rax, -176(%rbp)
Ltmp1077:
	.loc	45 117 18
	leaq	-288(%rbp), %rax
	movq	%rax, -168(%rbp)
Ltmp1078:
	.loc	11 376 20
	movq	-288(%rbp), %rdx
	movq	-280(%rbp), %rax
	movq	%rdx, -160(%rbp)
	movq	%rax, -152(%rbp)
Ltmp1079:
	.loc	35 346 21
	movq	$1, -144(%rbp)
	movq	-144(%rbp), %rax
	movq	%rax, -136(%rbp)
Ltmp1080:
	.loc	35 347 56
	movq	%rcx, -128(%rbp)
	.loc	35 347 62 is_stmt 0
	movq	%rax, -120(%rbp)
Ltmp1081:
	.loc	29 120 65 is_stmt 1
	movq	%rax, -112(%rbp)
Ltmp1082:
	.loc	30 89 18
	movq	%rax, -104(%rbp)
	movq	-104(%rbp), %rax
	movq	%rax, -296(%rbp)
Ltmp1083:
	.loc	30 0 18 is_stmt 0
	movq	-296(%rbp), %rax
	movq	-304(%rbp), %rcx
	.loc	29 120 18 is_stmt 1
	movq	%rcx, -264(%rbp)
	movq	%rax, -256(%rbp)
Ltmp1084:
	.loc	35 348 37
	movq	-288(%rbp), %rax
	movq	-280(%rbp), %rcx
	movq	%rax, -96(%rbp)
	movq	%rcx, -88(%rbp)
Ltmp1085:
	.loc	45 137 22
	movq	%rax, -80(%rbp)
	movq	%rcx, -72(%rbp)
Ltmp1086:
	.loc	11 450 41
	movq	%rax, -64(%rbp)
	movq	%rcx, -56(%rbp)
	movq	%rax, -48(%rbp)
Ltmp1087:
	.loc	11 201 13
	movq	%rax, -232(%rbp)
Ltmp1088:
	.loc	45 191 18
	movq	-232(%rbp), %rax
	.loc	45 191 9 is_stmt 0
	movq	%rax, -240(%rbp)
Ltmp1089:
	.loc	11 768 41 is_stmt 1
	movq	-240(%rbp), %rax
	movq	%rax, -40(%rbp)
Ltmp1090:
	.loc	45 104 9
	movq	%rax, -32(%rbp)
Ltmp1091:
	.loc	11 326 9
	movq	%rax, -24(%rbp)
Ltmp1092:
	.loc	11 201 13
	movq	%rax, -248(%rbp)
Ltmp1093:
	.loc	35 348 50
	movq	-264(%rbp), %rdx
	movq	-256(%rbp), %rcx
	.loc	35 348 9 is_stmt 0
	movq	-248(%rbp), %rsi
Ltmp1069:
	leaq	-272(%rbp), %rdi
	callq	__ZN63_$LT$alloc..alloc..Global$u20$as$u20$core..alloc..Allocator$GT$10deallocate17h916a6f792621e6aeE
Ltmp1070:
	jmp	LBB150_4
Ltmp1094:
LBB150_2:
	.loc	35 340 1 is_stmt 1
	movq	-16(%rbp), %rdi
	callq	__Unwind_Resume
LBB150_3:
Ltmp1071:
	.loc	35 0 1 is_stmt 0
	movq	%rax, %rcx
	movl	%edx, %eax
	movq	%rcx, -16(%rbp)
	movl	%eax, -8(%rbp)
	jmp	LBB150_2
LBB150_4:
	.loc	35 350 2 is_stmt 1
	addq	$304, %rsp
	popq	%rbp
	retq
Ltmp1095:
Lfunc_end150:
	.cfi_endproc
	.section	__TEXT,__gcc_except_tab
	.p2align	2
GCC_except_table150:
Lexception25:
	.byte	255
	.byte	255
	.byte	1
	.uleb128 Lcst_end25-Lcst_begin25
Lcst_begin25:
	.uleb128 Ltmp1069-Lfunc_begin150
	.uleb128 Ltmp1070-Ltmp1069
	.uleb128 Ltmp1071-Lfunc_begin150
	.byte	0
	.uleb128 Ltmp1070-Lfunc_begin150
	.uleb128 Lfunc_end150-Ltmp1070
	.byte	0
	.byte	0
Lcst_end25:
	.p2align	2

	.section	__TEXT,__text,regular,pure_instructions
	.globl	__ZN5alloc5alloc8box_free17hd0d3114b9445a523E
	.p2align	4, 0x90
__ZN5alloc5alloc8box_free17hd0d3114b9445a523E:
Lfunc_begin151:
	.loc	35 340 0
	.cfi_startproc
	.cfi_personality 155, _rust_eh_personality
	.cfi_lsda 16, Lexception26
	pushq	%rbp
	.cfi_def_cfa_offset 16
	.cfi_offset %rbp, -16
	movq	%rsp, %rbp
	.cfi_def_cfa_register %rbp
	subq	$304, %rsp
	movq	%rdi, -288(%rbp)
	movq	%rsi, -280(%rbp)
Ltmp1099:
	.loc	35 345 32 prologue_end
	leaq	-288(%rbp), %rax
	movq	%rax, -224(%rbp)
Ltmp1100:
	.loc	45 117 18
	leaq	-288(%rbp), %rax
	movq	%rax, -216(%rbp)
Ltmp1101:
	.loc	11 376 20
	movq	-288(%rbp), %rcx
	movq	-280(%rbp), %rax
	movq	%rcx, -208(%rbp)
	movq	%rax, -200(%rbp)
Ltmp1102:
	.loc	35 345 20
	movq	8(%rax), %rax
	movq	%rax, -192(%rbp)
	movq	-192(%rbp), %rcx
	movq	%rcx, -304(%rbp)
	movq	%rcx, -184(%rbp)
Ltmp1103:
	.loc	35 346 38
	leaq	-288(%rbp), %rax
	movq	%rax, -176(%rbp)
Ltmp1104:
	.loc	45 117 18
	leaq	-288(%rbp), %rax
	movq	%rax, -168(%rbp)
Ltmp1105:
	.loc	11 376 20
	movq	-288(%rbp), %rdx
	movq	-280(%rbp), %rax
	movq	%rdx, -160(%rbp)
	movq	%rax, -152(%rbp)
Ltmp1106:
	.loc	35 346 21
	movq	16(%rax), %rax
	movq	%rax, -144(%rbp)
	movq	-144(%rbp), %rax
	movq	%rax, -136(%rbp)
Ltmp1107:
	.loc	35 347 56
	movq	%rcx, -128(%rbp)
	.loc	35 347 62 is_stmt 0
	movq	%rax, -120(%rbp)
Ltmp1108:
	.loc	29 120 65 is_stmt 1
	movq	%rax, -112(%rbp)
Ltmp1109:
	.loc	30 89 18
	movq	%rax, -104(%rbp)
	movq	-104(%rbp), %rax
	movq	%rax, -296(%rbp)
Ltmp1110:
	.loc	30 0 18 is_stmt 0
	movq	-296(%rbp), %rax
	movq	-304(%rbp), %rcx
	.loc	29 120 18 is_stmt 1
	movq	%rcx, -264(%rbp)
	movq	%rax, -256(%rbp)
Ltmp1111:
	.loc	35 348 37
	movq	-288(%rbp), %rax
	movq	-280(%rbp), %rcx
	movq	%rax, -96(%rbp)
	movq	%rcx, -88(%rbp)
Ltmp1112:
	.loc	45 137 22
	movq	%rax, -80(%rbp)
	movq	%rcx, -72(%rbp)
Ltmp1113:
	.loc	11 450 41
	movq	%rax, -64(%rbp)
	movq	%rcx, -56(%rbp)
	movq	%rax, -48(%rbp)
Ltmp1114:
	.loc	11 201 13
	movq	%rax, -232(%rbp)
Ltmp1115:
	.loc	45 191 18
	movq	-232(%rbp), %rax
	.loc	45 191 9 is_stmt 0
	movq	%rax, -240(%rbp)
Ltmp1116:
	.loc	11 768 41 is_stmt 1
	movq	-240(%rbp), %rax
	movq	%rax, -40(%rbp)
Ltmp1117:
	.loc	45 104 9
	movq	%rax, -32(%rbp)
Ltmp1118:
	.loc	11 326 9
	movq	%rax, -24(%rbp)
Ltmp1119:
	.loc	11 201 13
	movq	%rax, -248(%rbp)
Ltmp1120:
	.loc	35 348 50
	movq	-264(%rbp), %rdx
	movq	-256(%rbp), %rcx
	.loc	35 348 9 is_stmt 0
	movq	-248(%rbp), %rsi
Ltmp1096:
	leaq	-272(%rbp), %rdi
	callq	__ZN63_$LT$alloc..alloc..Global$u20$as$u20$core..alloc..Allocator$GT$10deallocate17h916a6f792621e6aeE
Ltmp1097:
	jmp	LBB151_4
Ltmp1121:
LBB151_2:
	.loc	35 340 1 is_stmt 1
	movq	-16(%rbp), %rdi
	callq	__Unwind_Resume
LBB151_3:
Ltmp1098:
	.loc	35 0 1 is_stmt 0
	movq	%rax, %rcx
	movl	%edx, %eax
	movq	%rcx, -16(%rbp)
	movl	%eax, -8(%rbp)
	jmp	LBB151_2
LBB151_4:
	.loc	35 350 2 is_stmt 1
	addq	$304, %rsp
	popq	%rbp
	retq
Ltmp1122:
Lfunc_end151:
	.cfi_endproc
	.section	__TEXT,__gcc_except_tab
	.p2align	2
GCC_except_table151:
Lexception26:
	.byte	255
	.byte	255
	.byte	1
	.uleb128 Lcst_end26-Lcst_begin26
Lcst_begin26:
	.uleb128 Ltmp1096-Lfunc_begin151
	.uleb128 Ltmp1097-Ltmp1096
	.uleb128 Ltmp1098-Lfunc_begin151
	.byte	0
	.uleb128 Ltmp1097-Lfunc_begin151
	.uleb128 Lfunc_end151-Ltmp1097
	.byte	0
	.byte	0
Lcst_end26:
	.p2align	2

	.section	__TEXT,__text,regular,pure_instructions
	.globl	__ZN5alloc7raw_vec19RawVec$LT$T$C$A$GT$14current_memory17h27f9124ca09e0e08E
	.p2align	4, 0x90
__ZN5alloc7raw_vec19RawVec$LT$T$C$A$GT$14current_memory17h27f9124ca09e0e08E:
Lfunc_begin152:
	.file	46 "/rustc/2c8cc343237b8f7d5a3c3703e3a87f2eb2c54a74/library/alloc/src" "raw_vec.rs"
	.loc	46 240 0
	.cfi_startproc
	pushq	%rbp
	.cfi_def_cfa_offset 16
	.cfi_offset %rbp, -16
	movq	%rsp, %rbp
	.cfi_def_cfa_register %rbp
	subq	$176, %rsp
	movq	%rsi, -152(%rbp)
	movq	%rdi, -144(%rbp)
	movq	%rdi, -136(%rbp)
	movq	%rsi, -80(%rbp)
Ltmp1123:
	.loc	46 241 12 prologue_end
	xorl	%eax, %eax
	testb	$1, %al
	jne	LBB152_2
	.loc	46 0 12 is_stmt 0
	movq	-152(%rbp), %rax
	.loc	46 241 25
	cmpq	$0, (%rax)
	sete	%al
	.loc	46 241 12
	andb	$1, %al
	movb	%al, -121(%rbp)
	jmp	LBB152_3
LBB152_2:
	movb	$1, -121(%rbp)
LBB152_3:
	testb	$1, -121(%rbp)
	jne	LBB152_5
	.loc	46 0 12
	movq	-152(%rbp), %rax
	.loc	46 247 49 is_stmt 1
	movq	(%rax), %rdx
	movq	%rdx, -72(%rbp)
Ltmp1124:
	.loc	24 459 5
	movq	$8, -64(%rbp)
Ltmp1125:
	.loc	30 89 18
	movq	$8, -56(%rbp)
	movq	-56(%rbp), %rsi
Ltmp1126:
	.loc	29 438 16
	movl	$8, %edi
	callq	__ZN4core5alloc6layout6Layout5array5inner17h6d155fadc4d592c8E
	movq	%rax, %rdi
	movq	%rdx, %rsi
Ltmp1127:
	.loc	46 247 30
	leaq	l___unnamed_13(%rip), %rdx
	callq	__ZN4core6result19Result$LT$T$C$E$GT$16unwrap_unchecked17h6efe10c5a313aec2E
	movq	%rax, %rcx
	movq	-152(%rbp), %rax
	movq	%rcx, -168(%rbp)
	movq	%rdx, -160(%rbp)
	movq	%rcx, -48(%rbp)
	movq	%rdx, -40(%rbp)
Ltmp1128:
	.loc	46 248 23
	movq	8(%rax), %rax
	movq	%rax, -32(%rbp)
Ltmp1129:
	.loc	45 137 22
	movq	%rax, -24(%rbp)
Ltmp1130:
	.loc	11 450 41
	movq	%rax, -16(%rbp)
	movq	%rax, -8(%rbp)
Ltmp1131:
	.loc	11 201 13
	movq	%rax, -88(%rbp)
Ltmp1132:
	.loc	45 191 18
	movq	-88(%rbp), %rax
	.loc	45 191 9 is_stmt 0
	movq	%rax, -96(%rbp)
Ltmp1133:
	.loc	46 248 23 is_stmt 1
	movq	-96(%rbp), %rdi
	callq	__ZN50_$LT$T$u20$as$u20$core..convert..Into$LT$U$GT$$GT$4into17h47c389bd6fbbbfb4E
	movq	-168(%rbp), %rcx
	movq	-160(%rbp), %rdx
	movq	%rax, %rsi
	movq	-144(%rbp), %rax
	.loc	46 248 22 is_stmt 0
	movq	%rsi, -120(%rbp)
	movq	%rcx, -112(%rbp)
	movq	%rdx, -104(%rbp)
	.loc	46 248 17
	movq	-120(%rbp), %rcx
	movq	%rcx, (%rax)
	movq	-112(%rbp), %rcx
	movq	%rcx, 8(%rax)
	movq	-104(%rbp), %rcx
	movq	%rcx, 16(%rax)
Ltmp1134:
	.loc	46 241 9 is_stmt 1
	jmp	LBB152_6
LBB152_5:
	.loc	46 0 9 is_stmt 0
	movq	-144(%rbp), %rax
	.loc	46 242 13 is_stmt 1
	movq	$0, 16(%rax)
LBB152_6:
	.loc	46 0 13 is_stmt 0
	movq	-136(%rbp), %rax
	.loc	46 251 6 is_stmt 1
	addq	$176, %rsp
	popq	%rbp
	retq
Ltmp1135:
Lfunc_end152:
	.cfi_endproc

	.globl	__ZN5alloc7raw_vec19RawVec$LT$T$C$A$GT$14current_memory17h3c7b5b036b61d5d4E
	.p2align	4, 0x90
__ZN5alloc7raw_vec19RawVec$LT$T$C$A$GT$14current_memory17h3c7b5b036b61d5d4E:
Lfunc_begin153:
	.loc	46 240 0
	.cfi_startproc
	pushq	%rbp
	.cfi_def_cfa_offset 16
	.cfi_offset %rbp, -16
	movq	%rsp, %rbp
	.cfi_def_cfa_register %rbp
	subq	$176, %rsp
	movq	%rsi, -152(%rbp)
	movq	%rdi, -144(%rbp)
	movq	%rdi, -136(%rbp)
	movq	%rsi, -80(%rbp)
Ltmp1136:
	.loc	46 241 12 prologue_end
	xorl	%eax, %eax
	testb	$1, %al
	jne	LBB153_2
	.loc	46 0 12 is_stmt 0
	movq	-152(%rbp), %rax
	.loc	46 241 25
	cmpq	$0, (%rax)
	sete	%al
	.loc	46 241 12
	andb	$1, %al
	movb	%al, -121(%rbp)
	jmp	LBB153_3
LBB153_2:
	movb	$1, -121(%rbp)
LBB153_3:
	testb	$1, -121(%rbp)
	jne	LBB153_5
	.loc	46 0 12
	movq	-152(%rbp), %rax
	.loc	46 247 49 is_stmt 1
	movq	(%rax), %rdx
	movq	%rdx, -72(%rbp)
Ltmp1137:
	.loc	24 459 5
	movq	$8, -64(%rbp)
Ltmp1138:
	.loc	30 89 18
	movq	$8, -56(%rbp)
	movq	-56(%rbp), %rsi
Ltmp1139:
	.loc	29 438 16
	movl	$16, %edi
	callq	__ZN4core5alloc6layout6Layout5array5inner17h6d155fadc4d592c8E
	movq	%rax, %rdi
	movq	%rdx, %rsi
Ltmp1140:
	.loc	46 247 30
	leaq	l___unnamed_13(%rip), %rdx
	callq	__ZN4core6result19Result$LT$T$C$E$GT$16unwrap_unchecked17h6efe10c5a313aec2E
	movq	%rax, %rcx
	movq	-152(%rbp), %rax
	movq	%rcx, -168(%rbp)
	movq	%rdx, -160(%rbp)
	movq	%rcx, -48(%rbp)
	movq	%rdx, -40(%rbp)
Ltmp1141:
	.loc	46 248 23
	movq	8(%rax), %rax
	movq	%rax, -32(%rbp)
Ltmp1142:
	.loc	45 137 22
	movq	%rax, -24(%rbp)
Ltmp1143:
	.loc	11 450 41
	movq	%rax, -16(%rbp)
	movq	%rax, -8(%rbp)
Ltmp1144:
	.loc	11 201 13
	movq	%rax, -88(%rbp)
Ltmp1145:
	.loc	45 191 18
	movq	-88(%rbp), %rax
	.loc	45 191 9 is_stmt 0
	movq	%rax, -96(%rbp)
Ltmp1146:
	.loc	46 248 23 is_stmt 1
	movq	-96(%rbp), %rdi
	callq	__ZN50_$LT$T$u20$as$u20$core..convert..Into$LT$U$GT$$GT$4into17h47c389bd6fbbbfb4E
	movq	-168(%rbp), %rcx
	movq	-160(%rbp), %rdx
	movq	%rax, %rsi
	movq	-144(%rbp), %rax
	.loc	46 248 22 is_stmt 0
	movq	%rsi, -120(%rbp)
	movq	%rcx, -112(%rbp)
	movq	%rdx, -104(%rbp)
	.loc	46 248 17
	movq	-120(%rbp), %rcx
	movq	%rcx, (%rax)
	movq	-112(%rbp), %rcx
	movq	%rcx, 8(%rax)
	movq	-104(%rbp), %rcx
	movq	%rcx, 16(%rax)
Ltmp1147:
	.loc	46 241 9 is_stmt 1
	jmp	LBB153_6
LBB153_5:
	.loc	46 0 9 is_stmt 0
	movq	-144(%rbp), %rax
	.loc	46 242 13 is_stmt 1
	movq	$0, 16(%rax)
LBB153_6:
	.loc	46 0 13 is_stmt 0
	movq	-136(%rbp), %rax
	.loc	46 251 6 is_stmt 1
	addq	$176, %rsp
	popq	%rbp
	retq
Ltmp1148:
Lfunc_end153:
	.cfi_endproc

	.globl	__ZN5alloc7raw_vec19RawVec$LT$T$C$A$GT$14current_memory17hb6b126bf6eac6bdaE
	.p2align	4, 0x90
__ZN5alloc7raw_vec19RawVec$LT$T$C$A$GT$14current_memory17hb6b126bf6eac6bdaE:
Lfunc_begin154:
	.loc	46 240 0
	.cfi_startproc
	pushq	%rbp
	.cfi_def_cfa_offset 16
	.cfi_offset %rbp, -16
	movq	%rsp, %rbp
	.cfi_def_cfa_register %rbp
	subq	$176, %rsp
	movq	%rsi, -152(%rbp)
	movq	%rdi, -144(%rbp)
	movq	%rdi, -136(%rbp)
	movq	%rsi, -80(%rbp)
Ltmp1149:
	.loc	46 241 12 prologue_end
	xorl	%eax, %eax
	testb	$1, %al
	jne	LBB154_2
	.loc	46 0 12 is_stmt 0
	movq	-152(%rbp), %rax
	.loc	46 241 25
	cmpq	$0, (%rax)
	sete	%al
	.loc	46 241 12
	andb	$1, %al
	movb	%al, -121(%rbp)
	jmp	LBB154_3
LBB154_2:
	movb	$1, -121(%rbp)
LBB154_3:
	testb	$1, -121(%rbp)
	jne	LBB154_5
	.loc	46 0 12
	movq	-152(%rbp), %rax
	.loc	46 247 49 is_stmt 1
	movq	(%rax), %rdx
	movq	%rdx, -72(%rbp)
Ltmp1150:
	.loc	24 459 5
	movq	$8, -64(%rbp)
Ltmp1151:
	.loc	30 89 18
	movq	$8, -56(%rbp)
	movq	-56(%rbp), %rsi
Ltmp1152:
	.loc	29 438 16
	movl	$16, %edi
	callq	__ZN4core5alloc6layout6Layout5array5inner17h6d155fadc4d592c8E
	movq	%rax, %rdi
	movq	%rdx, %rsi
Ltmp1153:
	.loc	46 247 30
	leaq	l___unnamed_13(%rip), %rdx
	callq	__ZN4core6result19Result$LT$T$C$E$GT$16unwrap_unchecked17h6efe10c5a313aec2E
	movq	%rax, %rcx
	movq	-152(%rbp), %rax
	movq	%rcx, -168(%rbp)
	movq	%rdx, -160(%rbp)
	movq	%rcx, -48(%rbp)
	movq	%rdx, -40(%rbp)
Ltmp1154:
	.loc	46 248 23
	movq	8(%rax), %rax
	movq	%rax, -32(%rbp)
Ltmp1155:
	.loc	45 137 22
	movq	%rax, -24(%rbp)
Ltmp1156:
	.loc	11 450 41
	movq	%rax, -16(%rbp)
	movq	%rax, -8(%rbp)
Ltmp1157:
	.loc	11 201 13
	movq	%rax, -88(%rbp)
Ltmp1158:
	.loc	45 191 18
	movq	-88(%rbp), %rax
	.loc	45 191 9 is_stmt 0
	movq	%rax, -96(%rbp)
Ltmp1159:
	.loc	46 248 23 is_stmt 1
	movq	-96(%rbp), %rdi
	callq	__ZN50_$LT$T$u20$as$u20$core..convert..Into$LT$U$GT$$GT$4into17h47c389bd6fbbbfb4E
	movq	-168(%rbp), %rcx
	movq	-160(%rbp), %rdx
	movq	%rax, %rsi
	movq	-144(%rbp), %rax
	.loc	46 248 22 is_stmt 0
	movq	%rsi, -120(%rbp)
	movq	%rcx, -112(%rbp)
	movq	%rdx, -104(%rbp)
	.loc	46 248 17
	movq	-120(%rbp), %rcx
	movq	%rcx, (%rax)
	movq	-112(%rbp), %rcx
	movq	%rcx, 8(%rax)
	movq	-104(%rbp), %rcx
	movq	%rcx, 16(%rax)
Ltmp1160:
	.loc	46 241 9 is_stmt 1
	jmp	LBB154_6
LBB154_5:
	.loc	46 0 9 is_stmt 0
	movq	-144(%rbp), %rax
	.loc	46 242 13 is_stmt 1
	movq	$0, 16(%rax)
LBB154_6:
	.loc	46 0 13 is_stmt 0
	movq	-136(%rbp), %rax
	.loc	46 251 6 is_stmt 1
	addq	$176, %rsp
	popq	%rbp
	retq
Ltmp1161:
Lfunc_end154:
	.cfi_endproc

	.p2align	4, 0x90
__ZN60_$LT$alloc..string..String$u20$as$u20$core..fmt..Display$GT$3fmt17hf5c74e5b54c06f45E:
Lfunc_begin155:
	.loc	6 2274 0
	.cfi_startproc
	pushq	%rbp
	.cfi_def_cfa_offset 16
	.cfi_offset %rbp, -16
	movq	%rsp, %rbp
	.cfi_def_cfa_register %rbp
	subq	$64, %rsp
	movq	%rsi, -64(%rbp)
	movq	%rdi, -56(%rbp)
	movq	%rsi, -48(%rbp)
Ltmp1162:
	.loc	6 2275 29 prologue_end
	movq	%rdi, -40(%rbp)
Ltmp1163:
	.loc	6 2460 43
	callq	__ZN72_$LT$alloc..vec..Vec$LT$T$C$A$GT$$u20$as$u20$core..ops..deref..Deref$GT$5deref17h7a5c131a8ce8beeeE
	movq	%rax, %rcx
	movq	%rdx, %rax
	movq	-64(%rbp), %rdx
	movq	%rcx, -32(%rbp)
	movq	%rax, -24(%rbp)
Ltmp1164:
	.loc	16 173 14
	movq	%rcx, -16(%rbp)
	movq	%rax, -8(%rbp)
	movq	-16(%rbp), %rdi
	movq	-8(%rbp), %rsi
Ltmp1165:
	.loc	6 2275 9
	callq	__ZN42_$LT$str$u20$as$u20$core..fmt..Display$GT$3fmt17hd1cabce055ea2fbdE
	.loc	6 2276 6
	andb	$1, %al
	movzbl	%al, %eax
	addq	$64, %rsp
	popq	%rbp
	retq
Ltmp1166:
Lfunc_end155:
	.cfi_endproc

	.p2align	4, 0x90
__ZN63_$LT$alloc..alloc..Global$u20$as$u20$core..alloc..Allocator$GT$10deallocate17h916a6f792621e6aeE:
Lfunc_begin156:
	.loc	35 246 0
	.cfi_startproc
	pushq	%rbp
	.cfi_def_cfa_offset 16
	.cfi_offset %rbp, -16
	movq	%rsp, %rbp
	.cfi_def_cfa_register %rbp
	subq	$112, %rsp
	movq	%rsi, -112(%rbp)
	movq	%rdx, -104(%rbp)
	movq	%rcx, -96(%rbp)
	movq	%rdi, -64(%rbp)
	movq	%rsi, -56(%rbp)
Ltmp1167:
	.loc	35 247 12 prologue_end
	leaq	-104(%rbp), %rax
	movq	%rax, -48(%rbp)
	cmpq	$0, -104(%rbp)
	jne	LBB156_2
	.loc	35 247 9 is_stmt 0
	jmp	LBB156_3
LBB156_2:
	.loc	35 0 9
	movq	-112(%rbp), %rdi
	.loc	35 250 30 is_stmt 1
	movq	%rdi, -40(%rbp)
Ltmp1168:
	.loc	11 326 9
	movq	%rdi, -32(%rbp)
Ltmp1169:
	.loc	35 250 44
	movq	-104(%rbp), %rcx
	movq	-96(%rbp), %rax
	movq	%rcx, -88(%rbp)
	movq	%rax, -80(%rbp)
Ltmp1170:
	.loc	35 113 34
	leaq	-88(%rbp), %rax
	movq	%rax, -24(%rbp)
Ltmp1171:
	.loc	29 129 9
	movq	-88(%rbp), %rsi
Ltmp1172:
	.loc	35 113 49
	leaq	-88(%rbp), %rax
	movq	%rax, -16(%rbp)
Ltmp1173:
	.loc	29 140 9
	movq	-80(%rbp), %rax
	movq	%rax, -8(%rbp)
Ltmp1174:
	.loc	30 97 9
	movq	%rax, -72(%rbp)
	movq	-72(%rbp), %rdx
Ltmp1175:
	.loc	35 113 14
	callq	___rust_dealloc
Ltmp1176:
LBB156_3:
	.loc	35 252 6
	addq	$112, %rsp
	popq	%rbp
	retq
Ltmp1177:
Lfunc_end156:
	.cfi_endproc

	.p2align	4, 0x90
__ZN65_$LT$alloc..string..String$u20$as$u20$core..ops..deref..Deref$GT$5deref17h00166558acd5846eE:
Lfunc_begin157:
	.loc	6 2459 0
	.cfi_startproc
	pushq	%rbp
	.cfi_def_cfa_offset 16
	.cfi_offset %rbp, -16
	movq	%rsp, %rbp
	.cfi_def_cfa_register %rbp
	subq	$48, %rsp
	movq	%rdi, -40(%rbp)
Ltmp1178:
	.loc	6 2460 43 prologue_end
	callq	__ZN72_$LT$alloc..vec..Vec$LT$T$C$A$GT$$u20$as$u20$core..ops..deref..Deref$GT$5deref17h7a5c131a8ce8beeeE
	movq	%rax, -32(%rbp)
	movq	%rdx, -24(%rbp)
Ltmp1179:
	.loc	16 173 14
	movq	%rax, -16(%rbp)
	movq	%rdx, -8(%rbp)
	movq	-16(%rbp), %rax
	movq	-8(%rbp), %rdx
Ltmp1180:
	.loc	6 2461 6
	addq	$48, %rsp
	popq	%rbp
	retq
Ltmp1181:
Lfunc_end157:
	.cfi_endproc

	.p2align	4, 0x90
__ZN68_$LT$alloc..ffi..c_str..CString$u20$as$u20$core..ops..drop..Drop$GT$4drop17h01630f352838c2a7E:
Lfunc_begin158:
	.file	47 "/rustc/2c8cc343237b8f7d5a3c3703e3a87f2eb2c54a74/library/alloc/src/ffi" "c_str.rs"
	.loc	47 701 0
	.cfi_startproc
	pushq	%rbp
	.cfi_def_cfa_offset 16
	.cfi_offset %rbp, -16
	movq	%rsp, %rbp
	.cfi_def_cfa_register %rbp
	subq	$80, %rsp
	movq	%rdi, -80(%rbp)
Ltmp1182:
	.loc	47 703 14 prologue_end
	movq	(%rdi), %rax
	movq	8(%rdi), %rcx
	movq	%rax, -72(%rbp)
	movq	%rcx, -64(%rbp)
Ltmp1183:
	.loc	38 443 48
	movq	%rax, -56(%rbp)
	movq	%rcx, -48(%rbp)
Ltmp1184:
	.loc	39 253 13
	movq	%rax, -40(%rbp)
	movq	%rcx, -32(%rbp)
Ltmp1185:
	.loc	12 2037 9
	movq	%rax, -24(%rbp)
Ltmp1186:
	.loc	12 1034 18
	movq	%rax, -16(%rbp)
Ltmp1187:
	.loc	12 487 18
	movq	%rax, -8(%rbp)
	movq	-8(%rbp), %rax
Ltmp1188:
	.loc	47 703 13
	movb	$0, (%rax)
	.loc	47 705 6
	addq	$80, %rsp
	popq	%rbp
	retq
Ltmp1189:
Lfunc_end158:
	.cfi_endproc

	.p2align	4, 0x90
__ZN69_$LT$std..os..fd..owned..OwnedFd$u20$as$u20$core..ops..drop..Drop$GT$4drop17h5ee8167d3dd5e3fbE:
Lfunc_begin159:
	.file	48 "/rustc/2c8cc343237b8f7d5a3c3703e3a87f2eb2c54a74/library/std/src/os/fd" "owned.rs"
	.loc	48 170 0
	.cfi_startproc
	pushq	%rbp
	.cfi_def_cfa_offset 16
	.cfi_offset %rbp, -16
	movq	%rsp, %rbp
	.cfi_def_cfa_register %rbp
	subq	$16, %rsp
	movq	%rdi, -8(%rbp)
Ltmp1190:
	.loc	48 177 33 prologue_end
	movl	(%rdi), %edi
	.loc	48 177 21 is_stmt 0
	callq	_close$NOCANCEL
	.loc	48 179 6 is_stmt 1
	addq	$16, %rsp
	popq	%rbp
	retq
Ltmp1191:
Lfunc_end159:
	.cfi_endproc

