	.section	__TEXT,__text,regular,pure_instructions
	.macosx_version_min 10, 7
	.globl	__ZN100_$LT$core..iter..adapters..fuse..Fuse$LT$I$GT$$u20$as$u20$core..iter..traits..iterator..Iterator$GT$8try_fold17h342966b2e331455aE
	.p2align	4, 0x90
__ZN100_$LT$core..iter..adapters..fuse..Fuse$LT$I$GT$$u20$as$u20$core..iter..traits..iterator..Iterator$GT$8try_fold17h342966b2e331455aE:
Lfunc_begin0:
	.file	1 "/rustc/2c8cc343237b8f7d5a3c3703e3a87f2eb2c54a74/library/core/src/iter/adapters" "fuse.rs"
	.loc	1 76 0
	.cfi_startproc
	pushq	%rbp
	.cfi_def_cfa_offset 16
	.cfi_offset %rbp, -16
	movq	%rsp, %rbp
	.cfi_def_cfa_register %rbp
	subq	$32, %rsp
	movq	%rdi, -32(%rbp)
	movq	%rsi, -16(%rbp)
	movq	%rdx, -8(%rbp)
Ltmp0:
	.loc	1 82 9 prologue_end
	callq	__ZN107_$LT$core..iter..adapters..fuse..Fuse$LT$I$GT$$u20$as$u20$core..iter..adapters..fuse..FuseImpl$LT$I$GT$$GT$8try_fold17h02c8d5c4b6930259E
	.loc	1 83 6
	andb	$1, %al
	movzbl	%al, %eax
	addq	$32, %rsp
	popq	%rbp
	retq
Ltmp1:
Lfunc_end0:
	.cfi_endproc

	.globl	__ZN100_$LT$core..iter..adapters..fuse..Fuse$LT$I$GT$$u20$as$u20$core..iter..traits..iterator..Iterator$GT$8try_fold17h37ebe11a861ae17dE
	.p2align	4, 0x90
__ZN100_$LT$core..iter..adapters..fuse..Fuse$LT$I$GT$$u20$as$u20$core..iter..traits..iterator..Iterator$GT$8try_fold17h37ebe11a861ae17dE:
Lfunc_begin1:
	.loc	1 76 0
	.cfi_startproc
	pushq	%rbp
	.cfi_def_cfa_offset 16
	.cfi_offset %rbp, -16
	movq	%rsp, %rbp
	.cfi_def_cfa_register %rbp
	subq	$32, %rsp
	movq	%rdi, -32(%rbp)
	movq	%rsi, -16(%rbp)
	movq	%rdx, -8(%rbp)
Ltmp2:
	.loc	1 82 9 prologue_end
	callq	__ZN107_$LT$core..iter..adapters..fuse..Fuse$LT$I$GT$$u20$as$u20$core..iter..adapters..fuse..FuseImpl$LT$I$GT$$GT$8try_fold17h22299685c2f40bffE
	.loc	1 83 6
	andb	$1, %al
	movzbl	%al, %eax
	addq	$32, %rsp
	popq	%rbp
	retq
Ltmp3:
Lfunc_end1:
	.cfi_endproc

	.globl	__ZN100_$LT$core..iter..adapters..take..Take$LT$I$GT$$u20$as$u20$core..iter..traits..iterator..Iterator$GT$4next17hd39417465c66015eE
	.p2align	4, 0x90
__ZN100_$LT$core..iter..adapters..take..Take$LT$I$GT$$u20$as$u20$core..iter..traits..iterator..Iterator$GT$4next17hd39417465c66015eE:
Lfunc_begin2:
	.file	2 "/rustc/2c8cc343237b8f7d5a3c3703e3a87f2eb2c54a74/library/core/src/iter/adapters" "take.rs"
	.loc	2 34 0
	.cfi_startproc
	pushq	%rbp
	.cfi_def_cfa_offset 16
	.cfi_offset %rbp, -16
	movq	%rsp, %rbp
	.cfi_def_cfa_register %rbp
	subq	$32, %rsp
	movq	%rdi, -32(%rbp)
	movq	%rdi, -8(%rbp)
Ltmp4:
	.loc	2 35 12 prologue_end
	cmpq	$0, (%rdi)
	jne	LBB2_2
	.loc	2 39 13
	movq	$0, -24(%rbp)
	.loc	2 35 9
	jmp	LBB2_3
LBB2_2:
	.loc	2 0 9 is_stmt 0
	movq	-32(%rbp), %rdi
	.loc	2 36 13 is_stmt 1
	movq	(%rdi), %rax
	decq	%rax
	movq	%rax, (%rdi)
	.loc	2 37 13
	addq	$8, %rdi
	callq	__ZN102_$LT$core..iter..adapters..zip..Zip$LT$A$C$B$GT$$u20$as$u20$core..iter..traits..iterator..Iterator$GT$4next17hfc83d6573bda30baE
	movq	%rdx, -16(%rbp)
	movq	%rax, -24(%rbp)
LBB2_3:
	.loc	2 41 6
	movq	-24(%rbp), %rax
	movq	-16(%rbp), %rdx
	addq	$32, %rsp
	popq	%rbp
	retq
Ltmp5:
Lfunc_end2:
	.cfi_endproc

	.globl	__ZN102_$LT$core..iter..adapters..zip..Zip$LT$A$C$B$GT$$u20$as$u20$core..iter..traits..iterator..Iterator$GT$4next17h3f656dfd2c36fef3E
	.p2align	4, 0x90
__ZN102_$LT$core..iter..adapters..zip..Zip$LT$A$C$B$GT$$u20$as$u20$core..iter..traits..iterator..Iterator$GT$4next17h3f656dfd2c36fef3E:
Lfunc_begin3:
	.file	3 "/rustc/2c8cc343237b8f7d5a3c3703e3a87f2eb2c54a74/library/core/src/iter/adapters" "zip.rs"
	.loc	3 83 0
	.cfi_startproc
	pushq	%rbp
	.cfi_def_cfa_offset 16
	.cfi_offset %rbp, -16
	movq	%rsp, %rbp
	.cfi_def_cfa_register %rbp
	subq	$16, %rsp
	movq	%rdi, -8(%rbp)
Ltmp6:
	.loc	3 84 9 prologue_end
	callq	__ZN111_$LT$core..iter..adapters..zip..Zip$LT$A$C$B$GT$$u20$as$u20$core..iter..adapters..zip..ZipImpl$LT$A$C$B$GT$$GT$4next17he6dbe01ee27c6074E
	.loc	3 85 6
	addq	$16, %rsp
	popq	%rbp
	retq
Ltmp7:
Lfunc_end3:
	.cfi_endproc

	.globl	__ZN102_$LT$core..iter..adapters..zip..Zip$LT$A$C$B$GT$$u20$as$u20$core..iter..traits..iterator..Iterator$GT$4next17hbf6eba793a5901fdE
	.p2align	4, 0x90
__ZN102_$LT$core..iter..adapters..zip..Zip$LT$A$C$B$GT$$u20$as$u20$core..iter..traits..iterator..Iterator$GT$4next17hbf6eba793a5901fdE:
Lfunc_begin4:
	.loc	3 83 0
	.cfi_startproc
	pushq	%rbp
	.cfi_def_cfa_offset 16
	.cfi_offset %rbp, -16
	movq	%rsp, %rbp
	.cfi_def_cfa_register %rbp
	subq	$16, %rsp
	movq	%rdi, -8(%rbp)
Ltmp8:
	.loc	3 84 9 prologue_end
	callq	__ZN111_$LT$core..iter..adapters..zip..Zip$LT$A$C$B$GT$$u20$as$u20$core..iter..adapters..zip..ZipImpl$LT$A$C$B$GT$$GT$4next17h7700637e79cc2151E
	.loc	3 85 6
	addq	$16, %rsp
	popq	%rbp
	retq
Ltmp9:
Lfunc_end4:
	.cfi_endproc

	.globl	__ZN102_$LT$core..iter..adapters..zip..Zip$LT$A$C$B$GT$$u20$as$u20$core..iter..traits..iterator..Iterator$GT$4next17hfc83d6573bda30baE
	.p2align	4, 0x90
__ZN102_$LT$core..iter..adapters..zip..Zip$LT$A$C$B$GT$$u20$as$u20$core..iter..traits..iterator..Iterator$GT$4next17hfc83d6573bda30baE:
Lfunc_begin5:
	.loc	3 83 0
	.cfi_startproc
	pushq	%rbp
	.cfi_def_cfa_offset 16
	.cfi_offset %rbp, -16
	movq	%rsp, %rbp
	.cfi_def_cfa_register %rbp
	subq	$16, %rsp
	movq	%rdi, -8(%rbp)
Ltmp10:
	.loc	3 84 9 prologue_end
	callq	__ZN111_$LT$core..iter..adapters..zip..Zip$LT$A$C$B$GT$$u20$as$u20$core..iter..adapters..zip..ZipImpl$LT$A$C$B$GT$$GT$4next17hc11de10e73b99419E
	.loc	3 85 6
	addq	$16, %rsp
	popq	%rbp
	retq
Ltmp11:
Lfunc_end5:
	.cfi_endproc

	.globl	__ZN103_$LT$core..ops..try_trait..NeverShortCircuit$LT$T$GT$$u20$as$u20$core..ops..try_trait..FromResidual$GT$13from_residual17h91a75c0f6e358019E
	.p2align	4, 0x90
__ZN103_$LT$core..ops..try_trait..NeverShortCircuit$LT$T$GT$$u20$as$u20$core..ops..try_trait..FromResidual$GT$13from_residual17h91a75c0f6e358019E:
Lfunc_begin6:
	.file	4 "/rustc/2c8cc343237b8f7d5a3c3703e3a87f2eb2c54a74/library/core/src/ops" "try_trait.rs"
	.loc	4 411 0
	.cfi_startproc
	pushq	%rbp
	.cfi_def_cfa_offset 16
	.cfi_offset %rbp, -16
	movq	%rsp, %rbp
	.cfi_def_cfa_register %rbp
	pushq	%rax
Ltmp12:
	.loc	4 412 15 prologue_end
	ud2
Ltmp13:
Lfunc_end6:
	.cfi_endproc

	.globl	__ZN104_$LT$core..ops..control_flow..ControlFlow$LT$B$C$C$GT$$u20$as$u20$core..ops..try_trait..FromResidual$GT$13from_residual17h15e71e60204b6c0aE
	.p2align	4, 0x90
__ZN104_$LT$core..ops..control_flow..ControlFlow$LT$B$C$C$GT$$u20$as$u20$core..ops..try_trait..FromResidual$GT$13from_residual17h15e71e60204b6c0aE:
Lfunc_begin7:
	.file	5 "/rustc/2c8cc343237b8f7d5a3c3703e3a87f2eb2c54a74/library/core/src/ops" "control_flow.rs"
	.loc	5 123 0
	.cfi_startproc
	pushq	%rbp
	.cfi_def_cfa_offset 16
	.cfi_offset %rbp, -16
	movq	%rsp, %rbp
	.cfi_def_cfa_register %rbp
	subq	$24, %rsp
Ltmp14:
	.loc	5 125 38 prologue_end
	movb	$1, -17(%rbp)
Ltmp15:
	.loc	5 127 6
	movb	-17(%rbp), %al
	andb	$1, %al
	movzbl	%al, %eax
	addq	$24, %rsp
	popq	%rbp
	retq
Ltmp16:
Lfunc_end7:
	.cfi_endproc

	.globl	__ZN104_$LT$core..ops..control_flow..ControlFlow$LT$B$C$C$GT$$u20$as$u20$core..ops..try_trait..FromResidual$GT$13from_residual17hfef0525ed415a36fE
	.p2align	4, 0x90
__ZN104_$LT$core..ops..control_flow..ControlFlow$LT$B$C$C$GT$$u20$as$u20$core..ops..try_trait..FromResidual$GT$13from_residual17hfef0525ed415a36fE:
Lfunc_begin8:
	.loc	5 123 0
	.cfi_startproc
	pushq	%rbp
	.cfi_def_cfa_offset 16
	.cfi_offset %rbp, -16
	movq	%rsp, %rbp
	.cfi_def_cfa_register %rbp
	subq	$3, %rsp
	movb	%dil, %al
	andb	$1, %al
	movb	%al, -3(%rbp)
Ltmp17:
	.loc	5 125 32 prologue_end
	movb	-3(%rbp), %al
	movb	%al, %cl
	andb	$1, %cl
	movb	%cl, -1(%rbp)
Ltmp18:
	.loc	5 125 38 is_stmt 0
	andb	$1, %al
	movb	%al, -2(%rbp)
Ltmp19:
	.loc	5 127 6 is_stmt 1
	movb	-2(%rbp), %al
	addq	$3, %rsp
	popq	%rbp
	retq
Ltmp20:
Lfunc_end8:
	.cfi_endproc

	.globl	__ZN106_$LT$core..iter..adapters..GenericShunt$LT$I$C$R$GT$$u20$as$u20$core..iter..traits..iterator..Iterator$GT$4fold17h71ae8dcdbcbe2477E
	.p2align	4, 0x90
__ZN106_$LT$core..iter..adapters..GenericShunt$LT$I$C$R$GT$$u20$as$u20$core..iter..traits..iterator..Iterator$GT$4fold17h71ae8dcdbcbe2477E:
Lfunc_begin9:
	.file	6 "/rustc/2c8cc343237b8f7d5a3c3703e3a87f2eb2c54a74/library/core/src/iter" "mod.rs"
	.loc	6 365 0
	.cfi_startproc
	.cfi_personality 155, _rust_eh_personality
	.cfi_lsda 16, Lexception0
	pushq	%rbp
	.cfi_def_cfa_offset 16
	.cfi_offset %rbp, -16
	movq	%rsp, %rbp
	.cfi_def_cfa_register %rbp
	subq	$64, %rsp
	movq	%rdi, -56(%rbp)
Ltmp26:
	.loc	6 372 17 prologue_end
	movb	$1, -33(%rbp)
Ltmp21:
	leaq	-40(%rbp), %rdi
Ltmp27:
	.loc	6 372 24 is_stmt 0
	callq	__ZN4core13const_closure60ConstFnMutClosure$LT$$RF$mut$u20$CapturedData$C$Function$GT$3new17h0c67f3bd14f876f5E
Ltmp22:
	movq	%rax, -48(%rbp)
Ltmp28:
	jmp	LBB9_3
Ltmp29:
LBB9_1:
	.loc	6 374 9 is_stmt 1
	jmp	LBB9_5
Ltmp30:
LBB9_2:
Ltmp25:
	.loc	6 0 9 is_stmt 0
	movq	%rax, %rcx
	movl	%edx, %eax
	movq	%rcx, -24(%rbp)
	movl	%eax, -16(%rbp)
	jmp	LBB9_1
Ltmp31:
LBB9_3:
	movq	-48(%rbp), %rsi
	movq	-56(%rbp), %rdi
	.loc	6 372 24 is_stmt 1
	movq	%rsi, -8(%rbp)
Ltmp32:
	.loc	6 373 28
	movb	$0, -33(%rbp)
Ltmp23:
	.loc	6 373 13 is_stmt 0
	callq	__ZN106_$LT$core..iter..adapters..GenericShunt$LT$I$C$R$GT$$u20$as$u20$core..iter..traits..iterator..Iterator$GT$8try_fold17hc7192288bf13e7d6E
Ltmp24:
	jmp	LBB9_4
Ltmp33:
LBB9_4:
	.loc	6 374 9 is_stmt 1
	jmp	LBB9_6
Ltmp34:
LBB9_5:
	testb	$1, -33(%rbp)
	jne	LBB9_8
	jmp	LBB9_7
Ltmp35:
LBB9_6:
	.loc	6 374 10 is_stmt 0
	addq	$64, %rsp
	popq	%rbp
	retq
Ltmp36:
LBB9_7:
	.loc	6 365 9 is_stmt 1
	movq	-24(%rbp), %rdi
	callq	__Unwind_Resume
Ltmp37:
LBB9_8:
	.loc	6 374 9
	jmp	LBB9_7
Ltmp38:
Lfunc_end9:
	.cfi_endproc
	.section	__TEXT,__gcc_except_tab
	.p2align	2
GCC_except_table9:
Lexception0:
	.byte	255
	.byte	255
	.byte	1
	.uleb128 Lcst_end0-Lcst_begin0
Lcst_begin0:
	.uleb128 Ltmp21-Lfunc_begin9
	.uleb128 Ltmp24-Ltmp21
	.uleb128 Ltmp25-Lfunc_begin9
	.byte	0
	.uleb128 Ltmp24-Lfunc_begin9
	.uleb128 Lfunc_end9-Ltmp24
	.byte	0
	.byte	0
Lcst_end0:
	.p2align	2

	.section	__TEXT,__text,regular,pure_instructions
	.globl	__ZN106_$LT$core..iter..adapters..GenericShunt$LT$I$C$R$GT$$u20$as$u20$core..iter..traits..iterator..Iterator$GT$4fold17hd6631b9f854dde1eE
	.p2align	4, 0x90
__ZN106_$LT$core..iter..adapters..GenericShunt$LT$I$C$R$GT$$u20$as$u20$core..iter..traits..iterator..Iterator$GT$4fold17hd6631b9f854dde1eE:
Lfunc_begin10:
	.loc	6 365 0
	.cfi_startproc
	.cfi_personality 155, _rust_eh_personality
	.cfi_lsda 16, Lexception1
	pushq	%rbp
	.cfi_def_cfa_offset 16
	.cfi_offset %rbp, -16
	movq	%rsp, %rbp
	.cfi_def_cfa_register %rbp
	subq	$64, %rsp
	movq	%rdi, -56(%rbp)
Ltmp44:
	.loc	6 372 17 prologue_end
	movb	$1, -33(%rbp)
Ltmp39:
	leaq	-40(%rbp), %rdi
Ltmp45:
	.loc	6 372 24 is_stmt 0
	callq	__ZN4core13const_closure60ConstFnMutClosure$LT$$RF$mut$u20$CapturedData$C$Function$GT$3new17h987a774dd0632079E
Ltmp40:
	movq	%rax, -48(%rbp)
Ltmp46:
	jmp	LBB10_3
Ltmp47:
LBB10_1:
	.loc	6 374 9 is_stmt 1
	jmp	LBB10_5
Ltmp48:
LBB10_2:
Ltmp43:
	.loc	6 0 9 is_stmt 0
	movq	%rax, %rcx
	movl	%edx, %eax
	movq	%rcx, -24(%rbp)
	movl	%eax, -16(%rbp)
	jmp	LBB10_1
Ltmp49:
LBB10_3:
	movq	-48(%rbp), %rsi
	movq	-56(%rbp), %rdi
	.loc	6 372 24 is_stmt 1
	movq	%rsi, -8(%rbp)
Ltmp50:
	.loc	6 373 28
	movb	$0, -33(%rbp)
Ltmp41:
	.loc	6 373 13 is_stmt 0
	callq	__ZN106_$LT$core..iter..adapters..GenericShunt$LT$I$C$R$GT$$u20$as$u20$core..iter..traits..iterator..Iterator$GT$8try_fold17h4d3f77fa8f692827E
Ltmp42:
	jmp	LBB10_4
Ltmp51:
LBB10_4:
	.loc	6 374 9 is_stmt 1
	jmp	LBB10_6
Ltmp52:
LBB10_5:
	testb	$1, -33(%rbp)
	jne	LBB10_8
	jmp	LBB10_7
Ltmp53:
LBB10_6:
	.loc	6 374 10 is_stmt 0
	addq	$64, %rsp
	popq	%rbp
	retq
Ltmp54:
LBB10_7:
	.loc	6 365 9 is_stmt 1
	movq	-24(%rbp), %rdi
	callq	__Unwind_Resume
Ltmp55:
LBB10_8:
	.loc	6 374 9
	jmp	LBB10_7
Ltmp56:
Lfunc_end10:
	.cfi_endproc
	.section	__TEXT,__gcc_except_tab
	.p2align	2
GCC_except_table10:
Lexception1:
	.byte	255
	.byte	255
	.byte	1
	.uleb128 Lcst_end1-Lcst_begin1
Lcst_begin1:
	.uleb128 Ltmp39-Lfunc_begin10
	.uleb128 Ltmp42-Ltmp39
	.uleb128 Ltmp43-Lfunc_begin10
	.byte	0
	.uleb128 Ltmp42-Lfunc_begin10
	.uleb128 Lfunc_end10-Ltmp42
	.byte	0
	.byte	0
Lcst_end1:
	.p2align	2

	.section	__TEXT,__text,regular,pure_instructions
	.globl	__ZN106_$LT$core..iter..adapters..GenericShunt$LT$I$C$R$GT$$u20$as$u20$core..iter..traits..iterator..Iterator$GT$8try_fold17h4d3f77fa8f692827E
	.p2align	4, 0x90
__ZN106_$LT$core..iter..adapters..GenericShunt$LT$I$C$R$GT$$u20$as$u20$core..iter..traits..iterator..Iterator$GT$8try_fold17h4d3f77fa8f692827E:
Lfunc_begin11:
	.file	7 "/rustc/2c8cc343237b8f7d5a3c3703e3a87f2eb2c54a74/library/core/src/iter/adapters" "mod.rs"
	.loc	7 190 0
	.cfi_startproc
	.cfi_personality 155, _rust_eh_personality
	.cfi_lsda 16, Lexception2
	pushq	%rbp
	.cfi_def_cfa_offset 16
	.cfi_offset %rbp, -16
	movq	%rsp, %rbp
	.cfi_def_cfa_register %rbp
	subq	$64, %rsp
	movq	%rsi, -56(%rbp)
	movq	%rdi, -32(%rbp)
Ltmp62:
	.loc	7 196 29 prologue_end
	movq	48(%rdi), %rax
	leaq	-56(%rbp), %rcx
	movq	%rcx, -48(%rbp)
	movq	%rax, -40(%rbp)
	.loc	7 195 9
	movq	-48(%rbp), %rsi
	movq	-40(%rbp), %rdx
Ltmp57:
	callq	__ZN100_$LT$core..iter..adapters..fuse..Fuse$LT$I$GT$$u20$as$u20$core..iter..traits..iterator..Iterator$GT$8try_fold17h37ebe11a861ae17dE
Ltmp58:
	movb	%al, -57(%rbp)
	jmp	LBB11_3
LBB11_1:
	.loc	7 190 5
	movq	-16(%rbp), %rdi
	callq	__Unwind_Resume
LBB11_2:
Ltmp61:
	.loc	7 0 5 is_stmt 0
	movq	%rax, %rcx
	movl	%edx, %eax
	movq	%rcx, -16(%rbp)
	movl	%eax, -8(%rbp)
	jmp	LBB11_1
LBB11_3:
Ltmp59:
	movb	-57(%rbp), %al
	.loc	7 195 9 is_stmt 1
	movzbl	%al, %edi
	andl	$1, %edi
	callq	__ZN4core3ops12control_flow77ControlFlow$LT$R$C$$LT$R$u20$as$u20$core..ops..try_trait..Try$GT$..Output$GT$8into_try17h1d8f4c3fe9d99638E
Ltmp60:
	jmp	LBB11_4
LBB11_4:
	.loc	7 204 6
	addq	$64, %rsp
	popq	%rbp
	retq
Ltmp63:
Lfunc_end11:
	.cfi_endproc
	.section	__TEXT,__gcc_except_tab
	.p2align	2
GCC_except_table11:
Lexception2:
	.byte	255
	.byte	255
	.byte	1
	.uleb128 Lcst_end2-Lcst_begin2
Lcst_begin2:
	.uleb128 Ltmp57-Lfunc_begin11
	.uleb128 Ltmp58-Ltmp57
	.uleb128 Ltmp61-Lfunc_begin11
	.byte	0
	.uleb128 Ltmp58-Lfunc_begin11
	.uleb128 Ltmp59-Ltmp58
	.byte	0
	.byte	0
	.uleb128 Ltmp59-Lfunc_begin11
	.uleb128 Ltmp60-Ltmp59
	.uleb128 Ltmp61-Lfunc_begin11
	.byte	0
Lcst_end2:
	.p2align	2

	.section	__TEXT,__text,regular,pure_instructions
	.globl	__ZN106_$LT$core..iter..adapters..GenericShunt$LT$I$C$R$GT$$u20$as$u20$core..iter..traits..iterator..Iterator$GT$8try_fold17hc7192288bf13e7d6E
	.p2align	4, 0x90
__ZN106_$LT$core..iter..adapters..GenericShunt$LT$I$C$R$GT$$u20$as$u20$core..iter..traits..iterator..Iterator$GT$8try_fold17hc7192288bf13e7d6E:
Lfunc_begin12:
	.loc	7 190 0
	.cfi_startproc
	.cfi_personality 155, _rust_eh_personality
	.cfi_lsda 16, Lexception3
	pushq	%rbp
	.cfi_def_cfa_offset 16
	.cfi_offset %rbp, -16
	movq	%rsp, %rbp
	.cfi_def_cfa_register %rbp
	subq	$64, %rsp
	movq	%rsi, -56(%rbp)
	movq	%rdi, -32(%rbp)
Ltmp69:
	.loc	7 196 29 prologue_end
	movq	48(%rdi), %rax
	leaq	-56(%rbp), %rcx
	movq	%rcx, -48(%rbp)
	movq	%rax, -40(%rbp)
	.loc	7 195 9
	movq	-48(%rbp), %rsi
	movq	-40(%rbp), %rdx
Ltmp64:
	callq	__ZN100_$LT$core..iter..adapters..fuse..Fuse$LT$I$GT$$u20$as$u20$core..iter..traits..iterator..Iterator$GT$8try_fold17h342966b2e331455aE
Ltmp65:
	movb	%al, -57(%rbp)
	jmp	LBB12_3
LBB12_1:
	.loc	7 190 5
	movq	-16(%rbp), %rdi
	callq	__Unwind_Resume
LBB12_2:
Ltmp68:
	.loc	7 0 5 is_stmt 0
	movq	%rax, %rcx
	movl	%edx, %eax
	movq	%rcx, -16(%rbp)
	movl	%eax, -8(%rbp)
	jmp	LBB12_1
LBB12_3:
Ltmp66:
	movb	-57(%rbp), %al
	.loc	7 195 9 is_stmt 1
	movzbl	%al, %edi
	andl	$1, %edi
	callq	__ZN4core3ops12control_flow77ControlFlow$LT$R$C$$LT$R$u20$as$u20$core..ops..try_trait..Try$GT$..Output$GT$8into_try17h1d8f4c3fe9d99638E
Ltmp67:
	jmp	LBB12_4
LBB12_4:
	.loc	7 204 6
	addq	$64, %rsp
	popq	%rbp
	retq
Ltmp70:
Lfunc_end12:
	.cfi_endproc
	.section	__TEXT,__gcc_except_tab
	.p2align	2
GCC_except_table12:
Lexception3:
	.byte	255
	.byte	255
	.byte	1
	.uleb128 Lcst_end3-Lcst_begin3
Lcst_begin3:
	.uleb128 Ltmp64-Lfunc_begin12
	.uleb128 Ltmp65-Ltmp64
	.uleb128 Ltmp68-Lfunc_begin12
	.byte	0
	.uleb128 Ltmp65-Lfunc_begin12
	.uleb128 Ltmp66-Ltmp65
	.byte	0
	.byte	0
	.uleb128 Ltmp66-Lfunc_begin12
	.uleb128 Ltmp67-Ltmp66
	.uleb128 Ltmp68-Lfunc_begin12
	.byte	0
Lcst_end3:
	.p2align	2

	.section	__TEXT,__text,regular,pure_instructions
	.globl	__ZN106_$LT$core..iter..adapters..GenericShunt$LT$I$C$R$GT$$u20$as$u20$core..iter..traits..iterator..Iterator$GT$8try_fold28_$u7b$$u7b$closure$u7d$$u7d$17h39ce06893a87e19fE
	.p2align	4, 0x90
__ZN106_$LT$core..iter..adapters..GenericShunt$LT$I$C$R$GT$$u20$as$u20$core..iter..traits..iterator..Iterator$GT$8try_fold28_$u7b$$u7b$closure$u7d$$u7d$17h39ce06893a87e19fE:
Lfunc_begin13:
	.loc	7 196 0
	.cfi_startproc
	.cfi_personality 155, _rust_eh_personality
	.cfi_lsda 16, Lexception4
	pushq	%rbp
	.cfi_def_cfa_offset 16
	.cfi_offset %rbp, -16
	movq	%rsp, %rbp
	.cfi_def_cfa_register %rbp
	subq	$80, %rsp
	movq	%rdi, -72(%rbp)
	movb	%sil, %al
	movq	%rdi, -48(%rbp)
	movb	%al, %cl
	andb	$1, %cl
	movb	%cl, -33(%rbp)
Ltmp80:
	.loc	7 196 44 prologue_end
	movb	$1, -49(%rbp)
Ltmp71:
	movzbl	%al, %edi
	andl	$1, %edi
	callq	__ZN79_$LT$core..result..Result$LT$T$C$E$GT$$u20$as$u20$core..ops..try_trait..Try$GT$6branch17h562f7484f0427d21E
Ltmp72:
	movb	%al, -59(%rbp)
	jmp	LBB13_3
LBB13_1:
	.loc	7 202 13
	testb	$1, -49(%rbp)
	jne	LBB13_12
	jmp	LBB13_11
LBB13_2:
Ltmp79:
	.loc	7 0 13 is_stmt 0
	movq	%rax, %rcx
	movl	%edx, %eax
	movq	%rcx, -16(%rbp)
	movl	%eax, -8(%rbp)
	jmp	LBB13_1
LBB13_3:
	movb	-59(%rbp), %al
	.loc	7 196 44 is_stmt 1
	andb	$1, %al
	movb	%al, -57(%rbp)
	movb	-57(%rbp), %al
	andb	$1, %al
	movzbl	%al, %eax
	.loc	7 196 38 is_stmt 0
	cmpq	$0, %rax
	jne	LBB13_5
	.loc	7 0 38
	movq	-72(%rbp), %rax
Ltmp81:
	.loc	7 197 67 is_stmt 1
	movq	(%rax), %rdi
	.loc	7 197 69 is_stmt 0
	movb	$0, -49(%rbp)
Ltmp75:
	.loc	7 197 67
	callq	__ZN141_$LT$core..const_closure..ConstFnMutClosure$LT$$RF$mut$u20$A$C$Function$GT$$u20$as$u20$core..ops..function..FnMut$LT$ClosureArguments$GT$$GT$8call_mut17h05ec4b5e832fb32aE
Ltmp76:
	jmp	LBB13_9
Ltmp82:
LBB13_5:
	.loc	7 199 38 is_stmt 1
	movb	$1, -50(%rbp)
	.loc	7 0 38 is_stmt 0
	movq	-72(%rbp), %rax
	.loc	7 199 21
	movq	8(%rax), %rax
	movb	-50(%rbp), %cl
	movb	%cl, (%rax)
	.loc	7 200 46 is_stmt 1
	movb	$0, -49(%rbp)
Ltmp73:
	callq	__ZN94_$LT$core..ops..try_trait..NeverShortCircuit$LT$T$GT$$u20$as$u20$core..ops..try_trait..Try$GT$11from_output17h0f665f226410f3f3E
Ltmp74:
	jmp	LBB13_7
LBB13_7:
	.loc	7 200 21 is_stmt 0
	movb	$1, -58(%rbp)
Ltmp83:
LBB13_8:
	.loc	7 202 14 is_stmt 1
	movb	-58(%rbp), %al
	andb	$1, %al
	movzbl	%al, %eax
	addq	$80, %rsp
	popq	%rbp
	retq
LBB13_9:
Ltmp77:
Ltmp84:
	.loc	7 197 45
	callq	__ZN4core3ops12control_flow77ControlFlow$LT$R$C$$LT$R$u20$as$u20$core..ops..try_trait..Try$GT$..Output$GT$8from_try17ha69734f4c736f109E
Ltmp78:
	movb	%al, -73(%rbp)
	jmp	LBB13_10
LBB13_10:
	.loc	7 0 45 is_stmt 0
	movb	-73(%rbp), %al
	.loc	7 197 45
	andb	$1, %al
	movb	%al, -58(%rbp)
Ltmp85:
	.loc	7 197 76
	jmp	LBB13_8
LBB13_11:
	.loc	7 196 29 is_stmt 1
	movq	-16(%rbp), %rdi
	callq	__Unwind_Resume
LBB13_12:
	.loc	7 202 13
	jmp	LBB13_11
Ltmp86:
Lfunc_end13:
	.cfi_endproc
	.section	__TEXT,__gcc_except_tab
	.p2align	2
GCC_except_table13:
Lexception4:
	.byte	255
	.byte	255
	.byte	1
	.uleb128 Lcst_end4-Lcst_begin4
Lcst_begin4:
	.uleb128 Ltmp71-Lfunc_begin13
	.uleb128 Ltmp78-Ltmp71
	.uleb128 Ltmp79-Lfunc_begin13
	.byte	0
	.uleb128 Ltmp78-Lfunc_begin13
	.uleb128 Lfunc_end13-Ltmp78
	.byte	0
	.byte	0
Lcst_end4:
	.p2align	2

	.section	__TEXT,__text,regular,pure_instructions
	.globl	__ZN106_$LT$core..iter..adapters..GenericShunt$LT$I$C$R$GT$$u20$as$u20$core..iter..traits..iterator..Iterator$GT$8try_fold28_$u7b$$u7b$closure$u7d$$u7d$17ha51a0d94237553e7E
	.p2align	4, 0x90
__ZN106_$LT$core..iter..adapters..GenericShunt$LT$I$C$R$GT$$u20$as$u20$core..iter..traits..iterator..Iterator$GT$8try_fold28_$u7b$$u7b$closure$u7d$$u7d$17ha51a0d94237553e7E:
Lfunc_begin14:
	.loc	7 196 0
	.cfi_startproc
	.cfi_personality 155, _rust_eh_personality
	.cfi_lsda 16, Lexception5
	pushq	%rbp
	.cfi_def_cfa_offset 16
	.cfi_offset %rbp, -16
	movq	%rsp, %rbp
	.cfi_def_cfa_register %rbp
	subq	$80, %rsp
	movq	%rdi, -72(%rbp)
	movb	%sil, %al
	movq	%rdi, -48(%rbp)
	movb	%al, %cl
	andb	$1, %cl
	movb	%cl, -33(%rbp)
Ltmp96:
	.loc	7 196 44 prologue_end
	movb	$1, -49(%rbp)
Ltmp87:
	movzbl	%al, %edi
	andl	$1, %edi
	callq	__ZN79_$LT$core..result..Result$LT$T$C$E$GT$$u20$as$u20$core..ops..try_trait..Try$GT$6branch17h562f7484f0427d21E
Ltmp88:
	movb	%al, -59(%rbp)
	jmp	LBB14_3
LBB14_1:
	.loc	7 202 13
	testb	$1, -49(%rbp)
	jne	LBB14_12
	jmp	LBB14_11
LBB14_2:
Ltmp95:
	.loc	7 0 13 is_stmt 0
	movq	%rax, %rcx
	movl	%edx, %eax
	movq	%rcx, -16(%rbp)
	movl	%eax, -8(%rbp)
	jmp	LBB14_1
LBB14_3:
	movb	-59(%rbp), %al
	.loc	7 196 44 is_stmt 1
	andb	$1, %al
	movb	%al, -57(%rbp)
	movb	-57(%rbp), %al
	andb	$1, %al
	movzbl	%al, %eax
	.loc	7 196 38 is_stmt 0
	cmpq	$0, %rax
	jne	LBB14_5
	.loc	7 0 38
	movq	-72(%rbp), %rax
Ltmp97:
	.loc	7 197 67 is_stmt 1
	movq	(%rax), %rdi
	.loc	7 197 69 is_stmt 0
	movb	$0, -49(%rbp)
Ltmp91:
	.loc	7 197 67
	callq	__ZN141_$LT$core..const_closure..ConstFnMutClosure$LT$$RF$mut$u20$A$C$Function$GT$$u20$as$u20$core..ops..function..FnMut$LT$ClosureArguments$GT$$GT$8call_mut17h2fdda0a28eac4350E
Ltmp92:
	jmp	LBB14_9
Ltmp98:
LBB14_5:
	.loc	7 199 38 is_stmt 1
	movb	$1, -50(%rbp)
	.loc	7 0 38 is_stmt 0
	movq	-72(%rbp), %rax
	.loc	7 199 21
	movq	8(%rax), %rax
	movb	-50(%rbp), %cl
	movb	%cl, (%rax)
	.loc	7 200 46 is_stmt 1
	movb	$0, -49(%rbp)
Ltmp89:
	callq	__ZN94_$LT$core..ops..try_trait..NeverShortCircuit$LT$T$GT$$u20$as$u20$core..ops..try_trait..Try$GT$11from_output17h0f665f226410f3f3E
Ltmp90:
	jmp	LBB14_7
LBB14_7:
	.loc	7 200 21 is_stmt 0
	movb	$1, -58(%rbp)
Ltmp99:
LBB14_8:
	.loc	7 202 14 is_stmt 1
	movb	-58(%rbp), %al
	andb	$1, %al
	movzbl	%al, %eax
	addq	$80, %rsp
	popq	%rbp
	retq
LBB14_9:
Ltmp93:
Ltmp100:
	.loc	7 197 45
	callq	__ZN4core3ops12control_flow77ControlFlow$LT$R$C$$LT$R$u20$as$u20$core..ops..try_trait..Try$GT$..Output$GT$8from_try17ha69734f4c736f109E
Ltmp94:
	movb	%al, -73(%rbp)
	jmp	LBB14_10
LBB14_10:
	.loc	7 0 45 is_stmt 0
	movb	-73(%rbp), %al
	.loc	7 197 45
	andb	$1, %al
	movb	%al, -58(%rbp)
Ltmp101:
	.loc	7 197 76
	jmp	LBB14_8
LBB14_11:
	.loc	7 196 29 is_stmt 1
	movq	-16(%rbp), %rdi
	callq	__Unwind_Resume
LBB14_12:
	.loc	7 202 13
	jmp	LBB14_11
Ltmp102:
Lfunc_end14:
	.cfi_endproc
	.section	__TEXT,__gcc_except_tab
	.p2align	2
GCC_except_table14:
Lexception5:
	.byte	255
	.byte	255
	.byte	1
	.uleb128 Lcst_end5-Lcst_begin5
Lcst_begin5:
	.uleb128 Ltmp87-Lfunc_begin14
	.uleb128 Ltmp94-Ltmp87
	.uleb128 Ltmp95-Lfunc_begin14
	.byte	0
	.uleb128 Ltmp94-Lfunc_begin14
	.uleb128 Lfunc_end14-Ltmp94
	.byte	0
	.byte	0
Lcst_end5:
	.p2align	2

	.section	__TEXT,__text,regular,pure_instructions
	.globl	__ZN106_$LT$core..ops..range..Range$LT$usize$GT$$u20$as$u20$core..slice..index..SliceIndex$LT$$u5b$T$u5d$$GT$$GT$13get_unchecked17h0d1fc8859e6a9684E
	.p2align	4, 0x90
__ZN106_$LT$core..ops..range..Range$LT$usize$GT$$u20$as$u20$core..slice..index..SliceIndex$LT$$u5b$T$u5d$$GT$$GT$13get_unchecked17h0d1fc8859e6a9684E:
Lfunc_begin15:
	.file	8 "/rustc/2c8cc343237b8f7d5a3c3703e3a87f2eb2c54a74/library/core/src/slice" "index.rs"
	.loc	8 373 0
	.cfi_startproc
	pushq	%rbp
	.cfi_def_cfa_offset 16
	.cfi_offset %rbp, -16
	movq	%rsp, %rbp
	.cfi_def_cfa_register %rbp
	subq	$160, %rsp
	movq	%rdi, -128(%rbp)
	movq	%rsi, -120(%rbp)
	movq	%rdx, -112(%rbp)
	movq	%rcx, -104(%rbp)
Ltmp103:
	.loc	8 386 39 prologue_end
	movq	%rdx, -96(%rbp)
	movq	%rcx, -88(%rbp)
Ltmp104:
	.file	9 "/rustc/2c8cc343237b8f7d5a3c3703e3a87f2eb2c54a74/library/core/src/ptr" "const_ptr.rs"
	.loc	9 1650 9
	movq	%rdx, -80(%rbp)
Ltmp105:
	.loc	8 386 58
	movq	%rdi, -72(%rbp)
Ltmp106:
	.loc	9 932 18
	movq	%rdx, -64(%rbp)
	.loc	9 932 30 is_stmt 0
	movq	%rdi, -56(%rbp)
Ltmp107:
	.loc	9 473 18 is_stmt 1
	leaq	(%rdx,%rdi,4), %rax
	movq	%rax, -48(%rbp)
	movq	-48(%rbp), %rax
	movq	%rax, -40(%rbp)
Ltmp108:
	.loc	8 386 71
	subq	%rdi, %rsi
	movq	%rsi, -32(%rbp)
Ltmp109:
	.file	10 "/rustc/2c8cc343237b8f7d5a3c3703e3a87f2eb2c54a74/library/core/src/ptr" "mod.rs"
	.loc	10 734 20
	movq	%rax, -24(%rbp)
Ltmp110:
	.loc	9 61 9
	movq	%rax, -16(%rbp)
Ltmp111:
	.loc	10 734 33
	movq	%rsi, -8(%rbp)
Ltmp112:
	.file	11 "/rustc/2c8cc343237b8f7d5a3c3703e3a87f2eb2c54a74/library/core/src/ptr" "metadata.rs"
	.loc	11 118 36
	movq	%rax, -144(%rbp)
	movq	%rsi, -136(%rbp)
	.loc	11 118 14 is_stmt 0
	movq	-144(%rbp), %rcx
	movq	-136(%rbp), %rax
	movq	%rcx, -160(%rbp)
	movq	%rax, -152(%rbp)
	movq	-160(%rbp), %rax
	movq	-152(%rbp), %rdx
Ltmp113:
	.loc	8 388 6 is_stmt 1
	addq	$160, %rsp
	popq	%rbp
	retq
Ltmp114:
Lfunc_end15:
	.cfi_endproc

	.globl	__ZN106_$LT$core..ops..range..Range$LT$usize$GT$$u20$as$u20$core..slice..index..SliceIndex$LT$$u5b$T$u5d$$GT$$GT$13get_unchecked17h4df4e5a9ce97c36aE
	.p2align	4, 0x90
__ZN106_$LT$core..ops..range..Range$LT$usize$GT$$u20$as$u20$core..slice..index..SliceIndex$LT$$u5b$T$u5d$$GT$$GT$13get_unchecked17h4df4e5a9ce97c36aE:
Lfunc_begin16:
	.loc	8 373 0
	.cfi_startproc
	pushq	%rbp
	.cfi_def_cfa_offset 16
	.cfi_offset %rbp, -16
	movq	%rsp, %rbp
	.cfi_def_cfa_register %rbp
	subq	$160, %rsp
	movq	%rdi, -128(%rbp)
	movq	%rsi, -120(%rbp)
	movq	%rdx, -112(%rbp)
	movq	%rcx, -104(%rbp)
Ltmp115:
	.loc	8 386 39 prologue_end
	movq	%rdx, -96(%rbp)
	movq	%rcx, -88(%rbp)
Ltmp116:
	.loc	9 1650 9
	movq	%rdx, -80(%rbp)
Ltmp117:
	.loc	8 386 58
	movq	%rdi, -72(%rbp)
Ltmp118:
	.loc	9 932 18
	movq	%rdx, -64(%rbp)
	.loc	9 932 30 is_stmt 0
	movq	%rdi, -56(%rbp)
Ltmp119:
	.loc	9 473 18 is_stmt 1
	addq	%rdi, %rdx
	movq	%rdx, -48(%rbp)
	movq	-48(%rbp), %rax
	movq	%rax, -40(%rbp)
Ltmp120:
	.loc	8 386 71
	subq	%rdi, %rsi
	movq	%rsi, -32(%rbp)
Ltmp121:
	.loc	10 734 20
	movq	%rax, -24(%rbp)
Ltmp122:
	.loc	9 61 9
	movq	%rax, -16(%rbp)
Ltmp123:
	.loc	10 734 33
	movq	%rsi, -8(%rbp)
Ltmp124:
	.loc	11 118 36
	movq	%rax, -144(%rbp)
	movq	%rsi, -136(%rbp)
	.loc	11 118 14 is_stmt 0
	movq	-144(%rbp), %rcx
	movq	-136(%rbp), %rax
	movq	%rcx, -160(%rbp)
	movq	%rax, -152(%rbp)
	movq	-160(%rbp), %rax
	movq	-152(%rbp), %rdx
Ltmp125:
	.loc	8 388 6 is_stmt 1
	addq	$160, %rsp
	popq	%rbp
	retq
Ltmp126:
Lfunc_end16:
	.cfi_endproc

	.globl	__ZN106_$LT$core..ops..range..Range$LT$usize$GT$$u20$as$u20$core..slice..index..SliceIndex$LT$$u5b$T$u5d$$GT$$GT$13get_unchecked17he98bd27d9e3729cbE
	.p2align	4, 0x90
__ZN106_$LT$core..ops..range..Range$LT$usize$GT$$u20$as$u20$core..slice..index..SliceIndex$LT$$u5b$T$u5d$$GT$$GT$13get_unchecked17he98bd27d9e3729cbE:
Lfunc_begin17:
	.loc	8 373 0
	.cfi_startproc
	pushq	%rbp
	.cfi_def_cfa_offset 16
	.cfi_offset %rbp, -16
	movq	%rsp, %rbp
	.cfi_def_cfa_register %rbp
	subq	$160, %rsp
	movq	%rdi, -128(%rbp)
	movq	%rsi, -120(%rbp)
	movq	%rdx, -112(%rbp)
	movq	%rcx, -104(%rbp)
Ltmp127:
	.loc	8 386 39 prologue_end
	movq	%rdx, -96(%rbp)
	movq	%rcx, -88(%rbp)
Ltmp128:
	.loc	9 1650 9
	movq	%rdx, -80(%rbp)
Ltmp129:
	.loc	8 386 58
	movq	%rdi, -72(%rbp)
Ltmp130:
	.loc	9 932 18
	movq	%rdx, -64(%rbp)
	.loc	9 932 30 is_stmt 0
	movq	%rdi, -56(%rbp)
Ltmp131:
	.loc	9 473 18 is_stmt 1
	leaq	(%rdx,%rdi,2), %rax
	movq	%rax, -48(%rbp)
	movq	-48(%rbp), %rax
	movq	%rax, -40(%rbp)
Ltmp132:
	.loc	8 386 71
	subq	%rdi, %rsi
	movq	%rsi, -32(%rbp)
Ltmp133:
	.loc	10 734 20
	movq	%rax, -24(%rbp)
Ltmp134:
	.loc	9 61 9
	movq	%rax, -16(%rbp)
Ltmp135:
	.loc	10 734 33
	movq	%rsi, -8(%rbp)
Ltmp136:
	.loc	11 118 36
	movq	%rax, -144(%rbp)
	movq	%rsi, -136(%rbp)
	.loc	11 118 14 is_stmt 0
	movq	-144(%rbp), %rcx
	movq	-136(%rbp), %rax
	movq	%rcx, -160(%rbp)
	movq	%rax, -152(%rbp)
	movq	-160(%rbp), %rax
	movq	-152(%rbp), %rdx
Ltmp137:
	.loc	8 388 6 is_stmt 1
	addq	$160, %rsp
	popq	%rbp
	retq
Ltmp138:
Lfunc_end17:
	.cfi_endproc

	.globl	__ZN106_$LT$core..ops..range..Range$LT$usize$GT$$u20$as$u20$core..slice..index..SliceIndex$LT$$u5b$T$u5d$$GT$$GT$17get_unchecked_mut17h2e68c4dae76907f1E
	.p2align	4, 0x90
__ZN106_$LT$core..ops..range..Range$LT$usize$GT$$u20$as$u20$core..slice..index..SliceIndex$LT$$u5b$T$u5d$$GT$$GT$17get_unchecked_mut17h2e68c4dae76907f1E:
Lfunc_begin18:
	.loc	8 391 0
	.cfi_startproc
	pushq	%rbp
	.cfi_def_cfa_offset 16
	.cfi_offset %rbp, -16
	movq	%rsp, %rbp
	.cfi_def_cfa_register %rbp
	subq	$160, %rsp
	movq	%rdi, -128(%rbp)
	movq	%rsi, -120(%rbp)
	movq	%rdx, -112(%rbp)
	movq	%rcx, -104(%rbp)
Ltmp139:
	.loc	8 400 43 prologue_end
	movq	%rdx, -96(%rbp)
	movq	%rcx, -88(%rbp)
Ltmp140:
	.file	12 "/rustc/2c8cc343237b8f7d5a3c3703e3a87f2eb2c54a74/library/core/src/ptr" "mut_ptr.rs"
	.loc	12 2037 9
	movq	%rdx, -80(%rbp)
Ltmp141:
	.loc	8 400 66
	movq	%rdi, -72(%rbp)
Ltmp142:
	.loc	12 1034 18
	movq	%rdx, -64(%rbp)
	.loc	12 1034 30 is_stmt 0
	movq	%rdi, -56(%rbp)
Ltmp143:
	.loc	12 487 18 is_stmt 1
	movq	%rdi, %rax
	shlq	$4, %rax
	addq	%rax, %rdx
	movq	%rdx, -48(%rbp)
	movq	-48(%rbp), %rax
	movq	%rax, -40(%rbp)
Ltmp144:
	.loc	8 400 79
	subq	%rdi, %rsi
	movq	%rsi, -32(%rbp)
Ltmp145:
	.loc	10 766 24
	movq	%rax, -24(%rbp)
Ltmp146:
	.loc	12 60 9
	movq	%rax, -16(%rbp)
Ltmp147:
	.loc	10 766 37
	movq	%rsi, -8(%rbp)
Ltmp148:
	.loc	11 135 36
	movq	%rax, -144(%rbp)
	movq	%rsi, -136(%rbp)
	.loc	11 135 14 is_stmt 0
	movq	-144(%rbp), %rcx
	movq	-136(%rbp), %rax
	movq	%rcx, -160(%rbp)
	movq	%rax, -152(%rbp)
	movq	-160(%rbp), %rax
	movq	-152(%rbp), %rdx
Ltmp149:
	.loc	8 402 6 is_stmt 1
	addq	$160, %rsp
	popq	%rbp
	retq
Ltmp150:
Lfunc_end18:
	.cfi_endproc

	.globl	__ZN106_$LT$core..ops..range..Range$LT$usize$GT$$u20$as$u20$core..slice..index..SliceIndex$LT$$u5b$T$u5d$$GT$$GT$17get_unchecked_mut17h938608c9cbdbb1f4E
	.p2align	4, 0x90
__ZN106_$LT$core..ops..range..Range$LT$usize$GT$$u20$as$u20$core..slice..index..SliceIndex$LT$$u5b$T$u5d$$GT$$GT$17get_unchecked_mut17h938608c9cbdbb1f4E:
Lfunc_begin19:
	.loc	8 391 0
	.cfi_startproc
	pushq	%rbp
	.cfi_def_cfa_offset 16
	.cfi_offset %rbp, -16
	movq	%rsp, %rbp
	.cfi_def_cfa_register %rbp
	subq	$160, %rsp
	movq	%rdi, -128(%rbp)
	movq	%rsi, -120(%rbp)
	movq	%rdx, -112(%rbp)
	movq	%rcx, -104(%rbp)
Ltmp151:
	.loc	8 400 43 prologue_end
	movq	%rdx, -96(%rbp)
	movq	%rcx, -88(%rbp)
Ltmp152:
	.loc	12 2037 9
	movq	%rdx, -80(%rbp)
Ltmp153:
	.loc	8 400 66
	movq	%rdi, -72(%rbp)
Ltmp154:
	.loc	12 1034 18
	movq	%rdx, -64(%rbp)
	.loc	12 1034 30 is_stmt 0
	movq	%rdi, -56(%rbp)
Ltmp155:
	.loc	12 487 18 is_stmt 1
	addq	%rdi, %rdx
	movq	%rdx, -48(%rbp)
	movq	-48(%rbp), %rax
	movq	%rax, -40(%rbp)
Ltmp156:
	.loc	8 400 79
	subq	%rdi, %rsi
	movq	%rsi, -32(%rbp)
Ltmp157:
	.loc	10 766 24
	movq	%rax, -24(%rbp)
Ltmp158:
	.loc	12 60 9
	movq	%rax, -16(%rbp)
Ltmp159:
	.loc	10 766 37
	movq	%rsi, -8(%rbp)
Ltmp160:
	.loc	11 135 36
	movq	%rax, -144(%rbp)
	movq	%rsi, -136(%rbp)
	.loc	11 135 14 is_stmt 0
	movq	-144(%rbp), %rcx
	movq	-136(%rbp), %rax
	movq	%rcx, -160(%rbp)
	movq	%rax, -152(%rbp)
	movq	-160(%rbp), %rax
	movq	-152(%rbp), %rdx
Ltmp161:
	.loc	8 402 6 is_stmt 1
	addq	$160, %rsp
	popq	%rbp
	retq
Ltmp162:
Lfunc_end19:
	.cfi_endproc

	.globl	__ZN106_$LT$core..ops..range..Range$LT$usize$GT$$u20$as$u20$core..slice..index..SliceIndex$LT$$u5b$T$u5d$$GT$$GT$17get_unchecked_mut17hedb4d449a544cc41E
	.p2align	4, 0x90
__ZN106_$LT$core..ops..range..Range$LT$usize$GT$$u20$as$u20$core..slice..index..SliceIndex$LT$$u5b$T$u5d$$GT$$GT$17get_unchecked_mut17hedb4d449a544cc41E:
Lfunc_begin20:
	.loc	8 391 0
	.cfi_startproc
	pushq	%rbp
	.cfi_def_cfa_offset 16
	.cfi_offset %rbp, -16
	movq	%rsp, %rbp
	.cfi_def_cfa_register %rbp
	subq	$160, %rsp
	movq	%rdi, -128(%rbp)
	movq	%rsi, -120(%rbp)
	movq	%rdx, -112(%rbp)
	movq	%rcx, -104(%rbp)
Ltmp163:
	.loc	8 400 43 prologue_end
	movq	%rdx, -96(%rbp)
	movq	%rcx, -88(%rbp)
Ltmp164:
	.loc	12 2037 9
	movq	%rdx, -80(%rbp)
Ltmp165:
	.loc	8 400 66
	movq	%rdi, -72(%rbp)
Ltmp166:
	.loc	12 1034 18
	movq	%rdx, -64(%rbp)
	.loc	12 1034 30 is_stmt 0
	movq	%rdi, -56(%rbp)
Ltmp167:
	.loc	12 487 18 is_stmt 1
	leaq	(%rdx,%rdi,2), %rax
	movq	%rax, -48(%rbp)
	movq	-48(%rbp), %rax
	movq	%rax, -40(%rbp)
Ltmp168:
	.loc	8 400 79
	subq	%rdi, %rsi
	movq	%rsi, -32(%rbp)
Ltmp169:
	.loc	10 766 24
	movq	%rax, -24(%rbp)
Ltmp170:
	.loc	12 60 9
	movq	%rax, -16(%rbp)
Ltmp171:
	.loc	10 766 37
	movq	%rsi, -8(%rbp)
Ltmp172:
	.loc	11 135 36
	movq	%rax, -144(%rbp)
	movq	%rsi, -136(%rbp)
	.loc	11 135 14 is_stmt 0
	movq	-144(%rbp), %rcx
	movq	-136(%rbp), %rax
	movq	%rcx, -160(%rbp)
	movq	%rax, -152(%rbp)
	movq	-160(%rbp), %rax
	movq	-152(%rbp), %rdx
Ltmp173:
	.loc	8 402 6 is_stmt 1
	addq	$160, %rsp
	popq	%rbp
	retq
Ltmp174:
Lfunc_end20:
	.cfi_endproc

	.globl	__ZN106_$LT$core..ops..range..Range$LT$usize$GT$$u20$as$u20$core..slice..index..SliceIndex$LT$$u5b$T$u5d$$GT$$GT$3get17ha2ee3f45990b4b72E
	.p2align	4, 0x90
__ZN106_$LT$core..ops..range..Range$LT$usize$GT$$u20$as$u20$core..slice..index..SliceIndex$LT$$u5b$T$u5d$$GT$$GT$3get17ha2ee3f45990b4b72E:
Lfunc_begin21:
	.loc	8 353 0
	.cfi_startproc
	pushq	%rbp
	.cfi_def_cfa_offset 16
	.cfi_offset %rbp, -16
	movq	%rsp, %rbp
	.cfi_def_cfa_register %rbp
	subq	$96, %rsp
	movq	%rdi, -88(%rbp)
	movq	%rsi, -80(%rbp)
	movq	%rdx, -72(%rbp)
	movq	%rcx, -64(%rbp)
	movq	%rdi, -32(%rbp)
	movq	%rsi, -24(%rbp)
	movq	%rdx, -16(%rbp)
	movq	%rcx, -8(%rbp)
Ltmp175:
	.loc	8 354 12 prologue_end
	cmpq	%rsi, %rdi
	ja	LBB21_2
	.loc	8 0 12 is_stmt 0
	movq	-80(%rbp), %rax
	movq	-64(%rbp), %rcx
	.loc	8 354 37
	cmpq	%rcx, %rax
	seta	%al
	.loc	8 354 12
	andb	$1, %al
	movb	%al, -33(%rbp)
	jmp	LBB21_3
LBB21_2:
	movb	$1, -33(%rbp)
LBB21_3:
	testb	$1, -33(%rbp)
	jne	LBB21_5
	.loc	8 0 12
	movq	-64(%rbp), %rcx
	movq	-72(%rbp), %rdx
	movq	-80(%rbp), %rsi
	movq	-88(%rbp), %rdi
	.loc	8 358 29 is_stmt 1
	callq	__ZN106_$LT$core..ops..range..Range$LT$usize$GT$$u20$as$u20$core..slice..index..SliceIndex$LT$$u5b$T$u5d$$GT$$GT$13get_unchecked17h4df4e5a9ce97c36aE
	.loc	8 358 22 is_stmt 0
	movq	%rax, -56(%rbp)
	movq	%rdx, -48(%rbp)
	.loc	8 354 9 is_stmt 1
	jmp	LBB21_6
LBB21_5:
	.loc	8 355 13
	movq	$0, -56(%rbp)
LBB21_6:
	.loc	8 360 6
	movq	-56(%rbp), %rax
	movq	-48(%rbp), %rdx
	addq	$96, %rsp
	popq	%rbp
	retq
Ltmp176:
Lfunc_end21:
	.cfi_endproc

	.globl	__ZN106_$LT$core..ops..range..Range$LT$usize$GT$$u20$as$u20$core..slice..index..SliceIndex$LT$$u5b$T$u5d$$GT$$GT$5index17h03c4ef7a7f862c2bE
	.p2align	4, 0x90
__ZN106_$LT$core..ops..range..Range$LT$usize$GT$$u20$as$u20$core..slice..index..SliceIndex$LT$$u5b$T$u5d$$GT$$GT$5index17h03c4ef7a7f862c2bE:
Lfunc_begin22:
	.loc	8 405 0
	.cfi_startproc
	pushq	%rbp
	.cfi_def_cfa_offset 16
	.cfi_offset %rbp, -16
	movq	%rsp, %rbp
	.cfi_def_cfa_register %rbp
	subq	$80, %rsp
	movq	%rdi, -72(%rbp)
	movq	%rsi, -64(%rbp)
	movq	%rdx, -56(%rbp)
	movq	%rcx, -48(%rbp)
	movq	%r8, -40(%rbp)
	movq	%rdi, -32(%rbp)
	movq	%rsi, -24(%rbp)
	movq	%rdx, -16(%rbp)
	movq	%rcx, -8(%rbp)
Ltmp177:
	.loc	8 406 12 prologue_end
	cmpq	%rsi, %rdi
	ja	LBB22_2
	.loc	8 0 12 is_stmt 0
	movq	-64(%rbp), %rax
	movq	-48(%rbp), %rcx
	.loc	8 408 19 is_stmt 1
	cmpq	%rcx, %rax
	ja	LBB22_4
	jmp	LBB22_3
LBB22_2:
	.loc	8 0 19 is_stmt 0
	movq	-40(%rbp), %rdx
	movq	-64(%rbp), %rsi
	movq	-72(%rbp), %rdi
	.loc	8 407 13 is_stmt 1
	callq	__ZN4core5slice5index22slice_index_order_fail17h0d8f800a07d5f26eE
LBB22_3:
	.loc	8 0 13 is_stmt 0
	movq	-48(%rbp), %rcx
	movq	-56(%rbp), %rdx
	movq	-64(%rbp), %rsi
	movq	-72(%rbp), %rdi
	.loc	8 412 20 is_stmt 1
	callq	__ZN106_$LT$core..ops..range..Range$LT$usize$GT$$u20$as$u20$core..slice..index..SliceIndex$LT$$u5b$T$u5d$$GT$$GT$13get_unchecked17h0d1fc8859e6a9684E
	.loc	8 413 6
	addq	$80, %rsp
	popq	%rbp
	retq
LBB22_4:
	.loc	8 0 6 is_stmt 0
	movq	-40(%rbp), %rdx
	movq	-48(%rbp), %rsi
	movq	-64(%rbp), %rdi
	.loc	8 409 13 is_stmt 1
	callq	__ZN4core5slice5index24slice_end_index_len_fail17hc921cb2f1513645aE
Ltmp178:
Lfunc_end22:
	.cfi_endproc

	.globl	__ZN106_$LT$core..ops..range..Range$LT$usize$GT$$u20$as$u20$core..slice..index..SliceIndex$LT$$u5b$T$u5d$$GT$$GT$5index17h6e1b616dcaa05d6eE
	.p2align	4, 0x90
__ZN106_$LT$core..ops..range..Range$LT$usize$GT$$u20$as$u20$core..slice..index..SliceIndex$LT$$u5b$T$u5d$$GT$$GT$5index17h6e1b616dcaa05d6eE:
Lfunc_begin23:
	.loc	8 405 0
	.cfi_startproc
	pushq	%rbp
	.cfi_def_cfa_offset 16
	.cfi_offset %rbp, -16
	movq	%rsp, %rbp
	.cfi_def_cfa_register %rbp
	subq	$80, %rsp
	movq	%rdi, -72(%rbp)
	movq	%rsi, -64(%rbp)
	movq	%rdx, -56(%rbp)
	movq	%rcx, -48(%rbp)
	movq	%r8, -40(%rbp)
	movq	%rdi, -32(%rbp)
	movq	%rsi, -24(%rbp)
	movq	%rdx, -16(%rbp)
	movq	%rcx, -8(%rbp)
Ltmp179:
	.loc	8 406 12 prologue_end
	cmpq	%rsi, %rdi
	ja	LBB23_2
	.loc	8 0 12 is_stmt 0
	movq	-64(%rbp), %rax
	movq	-48(%rbp), %rcx
	.loc	8 408 19 is_stmt 1
	cmpq	%rcx, %rax
	ja	LBB23_4
	jmp	LBB23_3
LBB23_2:
	.loc	8 0 19 is_stmt 0
	movq	-40(%rbp), %rdx
	movq	-64(%rbp), %rsi
	movq	-72(%rbp), %rdi
	.loc	8 407 13 is_stmt 1
	callq	__ZN4core5slice5index22slice_index_order_fail17h0d8f800a07d5f26eE
LBB23_3:
	.loc	8 0 13 is_stmt 0
	movq	-48(%rbp), %rcx
	movq	-56(%rbp), %rdx
	movq	-64(%rbp), %rsi
	movq	-72(%rbp), %rdi
	.loc	8 412 20 is_stmt 1
	callq	__ZN106_$LT$core..ops..range..Range$LT$usize$GT$$u20$as$u20$core..slice..index..SliceIndex$LT$$u5b$T$u5d$$GT$$GT$13get_unchecked17he98bd27d9e3729cbE
	.loc	8 413 6
	addq	$80, %rsp
	popq	%rbp
	retq
LBB23_4:
	.loc	8 0 6 is_stmt 0
	movq	-40(%rbp), %rdx
	movq	-48(%rbp), %rsi
	movq	-64(%rbp), %rdi
	.loc	8 409 13 is_stmt 1
	callq	__ZN4core5slice5index24slice_end_index_len_fail17hc921cb2f1513645aE
Ltmp180:
Lfunc_end23:
	.cfi_endproc

	.globl	__ZN106_$LT$core..ops..range..Range$LT$usize$GT$$u20$as$u20$core..slice..index..SliceIndex$LT$$u5b$T$u5d$$GT$$GT$5index17hc3f57be0f5b38b85E
	.p2align	4, 0x90
__ZN106_$LT$core..ops..range..Range$LT$usize$GT$$u20$as$u20$core..slice..index..SliceIndex$LT$$u5b$T$u5d$$GT$$GT$5index17hc3f57be0f5b38b85E:
Lfunc_begin24:
	.loc	8 405 0
	.cfi_startproc
	pushq	%rbp
	.cfi_def_cfa_offset 16
	.cfi_offset %rbp, -16
	movq	%rsp, %rbp
	.cfi_def_cfa_register %rbp
	subq	$80, %rsp
	movq	%rdi, -72(%rbp)
	movq	%rsi, -64(%rbp)
	movq	%rdx, -56(%rbp)
	movq	%rcx, -48(%rbp)
	movq	%r8, -40(%rbp)
	movq	%rdi, -32(%rbp)
	movq	%rsi, -24(%rbp)
	movq	%rdx, -16(%rbp)
	movq	%rcx, -8(%rbp)
Ltmp181:
	.loc	8 406 12 prologue_end
	cmpq	%rsi, %rdi
	ja	LBB24_2
	.loc	8 0 12 is_stmt 0
	movq	-64(%rbp), %rax
	movq	-48(%rbp), %rcx
	.loc	8 408 19 is_stmt 1
	cmpq	%rcx, %rax
	ja	LBB24_4
	jmp	LBB24_3
LBB24_2:
	.loc	8 0 19 is_stmt 0
	movq	-40(%rbp), %rdx
	movq	-64(%rbp), %rsi
	movq	-72(%rbp), %rdi
	.loc	8 407 13 is_stmt 1
	callq	__ZN4core5slice5index22slice_index_order_fail17h0d8f800a07d5f26eE
LBB24_3:
	.loc	8 0 13 is_stmt 0
	movq	-48(%rbp), %rcx
	movq	-56(%rbp), %rdx
	movq	-64(%rbp), %rsi
	movq	-72(%rbp), %rdi
	.loc	8 412 20 is_stmt 1
	callq	__ZN106_$LT$core..ops..range..Range$LT$usize$GT$$u20$as$u20$core..slice..index..SliceIndex$LT$$u5b$T$u5d$$GT$$GT$13get_unchecked17h4df4e5a9ce97c36aE
	.loc	8 413 6
	addq	$80, %rsp
	popq	%rbp
	retq
LBB24_4:
	.loc	8 0 6 is_stmt 0
	movq	-40(%rbp), %rdx
	movq	-48(%rbp), %rsi
	movq	-64(%rbp), %rdi
	.loc	8 409 13 is_stmt 1
	callq	__ZN4core5slice5index24slice_end_index_len_fail17hc921cb2f1513645aE
Ltmp182:
Lfunc_end24:
	.cfi_endproc

	.globl	__ZN106_$LT$core..ops..range..Range$LT$usize$GT$$u20$as$u20$core..slice..index..SliceIndex$LT$$u5b$T$u5d$$GT$$GT$9index_mut17h042195b0bac82d5fE
	.p2align	4, 0x90
__ZN106_$LT$core..ops..range..Range$LT$usize$GT$$u20$as$u20$core..slice..index..SliceIndex$LT$$u5b$T$u5d$$GT$$GT$9index_mut17h042195b0bac82d5fE:
Lfunc_begin25:
	.loc	8 416 0
	.cfi_startproc
	pushq	%rbp
	.cfi_def_cfa_offset 16
	.cfi_offset %rbp, -16
	movq	%rsp, %rbp
	.cfi_def_cfa_register %rbp
	subq	$80, %rsp
	movq	%rdi, -72(%rbp)
	movq	%rsi, -64(%rbp)
	movq	%rdx, -56(%rbp)
	movq	%rcx, -48(%rbp)
	movq	%r8, -40(%rbp)
	movq	%rdi, -32(%rbp)
	movq	%rsi, -24(%rbp)
	movq	%rdx, -16(%rbp)
	movq	%rcx, -8(%rbp)
Ltmp183:
	.loc	8 417 12 prologue_end
	cmpq	%rsi, %rdi
	ja	LBB25_2
	.loc	8 0 12 is_stmt 0
	movq	-64(%rbp), %rax
	movq	-48(%rbp), %rcx
	.loc	8 419 19 is_stmt 1
	cmpq	%rcx, %rax
	ja	LBB25_4
	jmp	LBB25_3
LBB25_2:
	.loc	8 0 19 is_stmt 0
	movq	-40(%rbp), %rdx
	movq	-64(%rbp), %rsi
	movq	-72(%rbp), %rdi
	.loc	8 418 13 is_stmt 1
	callq	__ZN4core5slice5index22slice_index_order_fail17h0d8f800a07d5f26eE
LBB25_3:
	.loc	8 0 13 is_stmt 0
	movq	-48(%rbp), %rcx
	movq	-56(%rbp), %rdx
	movq	-64(%rbp), %rsi
	movq	-72(%rbp), %rdi
	.loc	8 423 24 is_stmt 1
	callq	__ZN106_$LT$core..ops..range..Range$LT$usize$GT$$u20$as$u20$core..slice..index..SliceIndex$LT$$u5b$T$u5d$$GT$$GT$17get_unchecked_mut17h938608c9cbdbb1f4E
	.loc	8 424 6
	addq	$80, %rsp
	popq	%rbp
	retq
LBB25_4:
	.loc	8 0 6 is_stmt 0
	movq	-40(%rbp), %rdx
	movq	-48(%rbp), %rsi
	movq	-64(%rbp), %rdi
	.loc	8 420 13 is_stmt 1
	callq	__ZN4core5slice5index24slice_end_index_len_fail17hc921cb2f1513645aE
Ltmp184:
Lfunc_end25:
	.cfi_endproc

	.globl	__ZN106_$LT$core..ops..range..Range$LT$usize$GT$$u20$as$u20$core..slice..index..SliceIndex$LT$$u5b$T$u5d$$GT$$GT$9index_mut17h6aca741bff0ead4eE
	.p2align	4, 0x90
__ZN106_$LT$core..ops..range..Range$LT$usize$GT$$u20$as$u20$core..slice..index..SliceIndex$LT$$u5b$T$u5d$$GT$$GT$9index_mut17h6aca741bff0ead4eE:
Lfunc_begin26:
	.loc	8 416 0
	.cfi_startproc
	pushq	%rbp
	.cfi_def_cfa_offset 16
	.cfi_offset %rbp, -16
	movq	%rsp, %rbp
	.cfi_def_cfa_register %rbp
	subq	$80, %rsp
	movq	%rdi, -72(%rbp)
	movq	%rsi, -64(%rbp)
	movq	%rdx, -56(%rbp)
	movq	%rcx, -48(%rbp)
	movq	%r8, -40(%rbp)
	movq	%rdi, -32(%rbp)
	movq	%rsi, -24(%rbp)
	movq	%rdx, -16(%rbp)
	movq	%rcx, -8(%rbp)
Ltmp185:
	.loc	8 417 12 prologue_end
	cmpq	%rsi, %rdi
	ja	LBB26_2
	.loc	8 0 12 is_stmt 0
	movq	-64(%rbp), %rax
	movq	-48(%rbp), %rcx
	.loc	8 419 19 is_stmt 1
	cmpq	%rcx, %rax
	ja	LBB26_4
	jmp	LBB26_3
LBB26_2:
	.loc	8 0 19 is_stmt 0
	movq	-40(%rbp), %rdx
	movq	-64(%rbp), %rsi
	movq	-72(%rbp), %rdi
	.loc	8 418 13 is_stmt 1
	callq	__ZN4core5slice5index22slice_index_order_fail17h0d8f800a07d5f26eE
LBB26_3:
	.loc	8 0 13 is_stmt 0
	movq	-48(%rbp), %rcx
	movq	-56(%rbp), %rdx
	movq	-64(%rbp), %rsi
	movq	-72(%rbp), %rdi
	.loc	8 423 24 is_stmt 1
	callq	__ZN106_$LT$core..ops..range..Range$LT$usize$GT$$u20$as$u20$core..slice..index..SliceIndex$LT$$u5b$T$u5d$$GT$$GT$17get_unchecked_mut17h2e68c4dae76907f1E
	.loc	8 424 6
	addq	$80, %rsp
	popq	%rbp
	retq
LBB26_4:
	.loc	8 0 6 is_stmt 0
	movq	-40(%rbp), %rdx
	movq	-48(%rbp), %rsi
	movq	-64(%rbp), %rdi
	.loc	8 420 13 is_stmt 1
	callq	__ZN4core5slice5index24slice_end_index_len_fail17hc921cb2f1513645aE
Ltmp186:
Lfunc_end26:
	.cfi_endproc

	.globl	__ZN106_$LT$core..ops..range..Range$LT$usize$GT$$u20$as$u20$core..slice..index..SliceIndex$LT$$u5b$T$u5d$$GT$$GT$9index_mut17ha671430c7f912741E
	.p2align	4, 0x90
__ZN106_$LT$core..ops..range..Range$LT$usize$GT$$u20$as$u20$core..slice..index..SliceIndex$LT$$u5b$T$u5d$$GT$$GT$9index_mut17ha671430c7f912741E:
Lfunc_begin27:
	.loc	8 416 0
	.cfi_startproc
	pushq	%rbp
	.cfi_def_cfa_offset 16
	.cfi_offset %rbp, -16
	movq	%rsp, %rbp
	.cfi_def_cfa_register %rbp
	subq	$80, %rsp
	movq	%rdi, -72(%rbp)
	movq	%rsi, -64(%rbp)
	movq	%rdx, -56(%rbp)
	movq	%rcx, -48(%rbp)
	movq	%r8, -40(%rbp)
	movq	%rdi, -32(%rbp)
	movq	%rsi, -24(%rbp)
	movq	%rdx, -16(%rbp)
	movq	%rcx, -8(%rbp)
Ltmp187:
	.loc	8 417 12 prologue_end
	cmpq	%rsi, %rdi
	ja	LBB27_2
	.loc	8 0 12 is_stmt 0
	movq	-64(%rbp), %rax
	movq	-48(%rbp), %rcx
	.loc	8 419 19 is_stmt 1
	cmpq	%rcx, %rax
	ja	LBB27_4
	jmp	LBB27_3
LBB27_2:
	.loc	8 0 19 is_stmt 0
	movq	-40(%rbp), %rdx
	movq	-64(%rbp), %rsi
	movq	-72(%rbp), %rdi
	.loc	8 418 13 is_stmt 1
	callq	__ZN4core5slice5index22slice_index_order_fail17h0d8f800a07d5f26eE
LBB27_3:
	.loc	8 0 13 is_stmt 0
	movq	-48(%rbp), %rcx
	movq	-56(%rbp), %rdx
	movq	-64(%rbp), %rsi
	movq	-72(%rbp), %rdi
	.loc	8 423 24 is_stmt 1
	callq	__ZN106_$LT$core..ops..range..Range$LT$usize$GT$$u20$as$u20$core..slice..index..SliceIndex$LT$$u5b$T$u5d$$GT$$GT$17get_unchecked_mut17hedb4d449a544cc41E
	.loc	8 424 6
	addq	$80, %rsp
	popq	%rbp
	retq
LBB27_4:
	.loc	8 0 6 is_stmt 0
	movq	-40(%rbp), %rdx
	movq	-48(%rbp), %rsi
	movq	-64(%rbp), %rdi
	.loc	8 420 13 is_stmt 1
	callq	__ZN4core5slice5index24slice_end_index_len_fail17hc921cb2f1513645aE
Ltmp188:
Lfunc_end27:
	.cfi_endproc

	.globl	__ZN107_$LT$core..iter..adapters..fuse..Fuse$LT$I$GT$$u20$as$u20$core..iter..adapters..fuse..FuseImpl$LT$I$GT$$GT$8try_fold17h02c8d5c4b6930259E
	.p2align	4, 0x90
__ZN107_$LT$core..iter..adapters..fuse..Fuse$LT$I$GT$$u20$as$u20$core..iter..adapters..fuse..FuseImpl$LT$I$GT$$GT$8try_fold17h02c8d5c4b6930259E:
Lfunc_begin28:
	.loc	1 266 0
	.cfi_startproc
	.cfi_personality 155, _rust_eh_personality
	.cfi_lsda 16, Lexception6
	pushq	%rbp
	.cfi_def_cfa_offset 16
	.cfi_offset %rbp, -16
	movq	%rsp, %rbp
	.cfi_def_cfa_register %rbp
	subq	$176, %rsp
	movq	%rdi, -160(%rbp)
	movq	%rsi, -152(%rbp)
	movq	%rdx, -144(%rbp)
	movq	%rdi, -72(%rbp)
	movq	%rsi, -56(%rbp)
	movq	%rdx, -48(%rbp)
Ltmp198:
	.loc	1 272 9 prologue_end
	movb	$1, -74(%rbp)
Ltmp199:
	.loc	1 272 16 is_stmt 0
	movl	$1, %eax
	xorl	%ecx, %ecx
	cmpb	$2, 40(%rdi)
	cmoveq	%rcx, %rax
	cmpq	$1, %rax
	jne	LBB28_2
	.loc	1 0 16
	movq	-144(%rbp), %rdx
	movq	-152(%rbp), %rsi
	movq	-160(%rbp), %rdi
	.loc	1 272 21
	movq	%rdi, -24(%rbp)
	.loc	1 273 33 is_stmt 1
	movb	$0, -73(%rbp)
	.loc	1 273 38 is_stmt 0
	movb	$0, -74(%rbp)
Ltmp189:
	.loc	1 273 19
	callq	__ZN109_$LT$core..iter..adapters..scan..Scan$LT$I$C$St$C$F$GT$$u20$as$u20$core..iter..traits..iterator..Iterator$GT$8try_fold17h2808f4cfaf2abd54E
Ltmp190:
	movb	%al, -161(%rbp)
	jmp	LBB28_5
Ltmp200:
LBB28_2:
	.loc	1 276 15 is_stmt 1
	movb	$0, -73(%rbp)
Ltmp195:
	callq	__ZN95_$LT$core..ops..control_flow..ControlFlow$LT$B$C$C$GT$$u20$as$u20$core..ops..try_trait..Try$GT$11from_output17h70b4fd9cb0f01746E
Ltmp196:
	movb	%al, -162(%rbp)
	jmp	LBB28_12
LBB28_3:
	.loc	1 277 5
	testb	$1, -74(%rbp)
	jne	LBB28_14
	jmp	LBB28_13
LBB28_4:
Ltmp197:
	.loc	1 0 5 is_stmt 0
	movq	%rax, %rcx
	movl	%edx, %eax
	movq	%rcx, -16(%rbp)
	movl	%eax, -8(%rbp)
	jmp	LBB28_3
LBB28_5:
Ltmp191:
	movb	-161(%rbp), %al
Ltmp201:
	.loc	1 273 19 is_stmt 1
	movzbl	%al, %edi
	andl	$1, %edi
	callq	__ZN95_$LT$core..ops..control_flow..ControlFlow$LT$B$C$C$GT$$u20$as$u20$core..ops..try_trait..Try$GT$6branch17ha4827ce13d4f9d53E
Ltmp192:
	movb	%al, -163(%rbp)
	jmp	LBB28_6
LBB28_6:
	.loc	1 0 19 is_stmt 0
	movb	-163(%rbp), %al
	.loc	1 273 19
	andb	$1, %al
	movb	%al, -129(%rbp)
	movb	-129(%rbp), %al
	andb	$1, %al
	movzbl	%al, %eax
	cmpq	$0, %rax
	jne	LBB28_8
	.loc	1 273 13
	movb	$1, -73(%rbp)
	.loc	1 274 25 is_stmt 1
	movb	$2, -88(%rbp)
	.loc	1 274 13 is_stmt 0
	jmp	LBB28_11
LBB28_8:
Ltmp193:
Ltmp202:
	.loc	1 273 19 is_stmt 1
	callq	__ZN104_$LT$core..ops..control_flow..ControlFlow$LT$B$C$C$GT$$u20$as$u20$core..ops..try_trait..FromResidual$GT$13from_residual17h15e71e60204b6c0aE
Ltmp194:
	movb	%al, -164(%rbp)
	jmp	LBB28_9
LBB28_9:
	.loc	1 0 19 is_stmt 0
	movb	-164(%rbp), %al
	.loc	1 273 19
	andb	$1, %al
	movb	%al, -130(%rbp)
Ltmp203:
LBB28_10:
	.loc	1 277 6 is_stmt 1
	movb	-130(%rbp), %al
	andb	$1, %al
	movzbl	%al, %eax
	addq	$176, %rsp
	popq	%rbp
	retq
LBB28_11:
	.loc	1 0 6 is_stmt 0
	movq	-160(%rbp), %rdi
Ltmp204:
	.loc	1 274 13 is_stmt 1
	leaq	-128(%rbp), %rsi
	movl	$48, %edx
	callq	_memcpy
Ltmp205:
	.loc	1 272 9
	jmp	LBB28_2
LBB28_12:
	.loc	1 0 9 is_stmt 0
	movb	-162(%rbp), %al
	.loc	1 276 15 is_stmt 1
	andb	$1, %al
	movb	%al, -130(%rbp)
	.loc	1 277 5
	testb	$1, -74(%rbp)
	jne	LBB28_15
	jmp	LBB28_10
LBB28_13:
	testb	$1, -73(%rbp)
	jne	LBB28_17
	jmp	LBB28_16
LBB28_14:
	jmp	LBB28_13
LBB28_15:
	jmp	LBB28_10
LBB28_16:
	.loc	1 266 5
	movq	-16(%rbp), %rdi
	callq	__Unwind_Resume
LBB28_17:
	.loc	1 277 5
	jmp	LBB28_16
Ltmp206:
Lfunc_end28:
	.cfi_endproc
	.section	__TEXT,__gcc_except_tab
	.p2align	2
GCC_except_table28:
Lexception6:
	.byte	255
	.byte	255
	.byte	1
	.uleb128 Lcst_end6-Lcst_begin6
Lcst_begin6:
	.uleb128 Ltmp189-Lfunc_begin28
	.uleb128 Ltmp194-Ltmp189
	.uleb128 Ltmp197-Lfunc_begin28
	.byte	0
	.uleb128 Ltmp194-Lfunc_begin28
	.uleb128 Lfunc_end28-Ltmp194
	.byte	0
	.byte	0
Lcst_end6:
	.p2align	2

	.section	__TEXT,__text,regular,pure_instructions
	.globl	__ZN107_$LT$core..iter..adapters..fuse..Fuse$LT$I$GT$$u20$as$u20$core..iter..adapters..fuse..FuseImpl$LT$I$GT$$GT$8try_fold17h22299685c2f40bffE
	.p2align	4, 0x90
__ZN107_$LT$core..iter..adapters..fuse..Fuse$LT$I$GT$$u20$as$u20$core..iter..adapters..fuse..FuseImpl$LT$I$GT$$GT$8try_fold17h22299685c2f40bffE:
Lfunc_begin29:
	.loc	1 266 0
	.cfi_startproc
	.cfi_personality 155, _rust_eh_personality
	.cfi_lsda 16, Lexception7
	pushq	%rbp
	.cfi_def_cfa_offset 16
	.cfi_offset %rbp, -16
	movq	%rsp, %rbp
	.cfi_def_cfa_register %rbp
	subq	$176, %rsp
	movq	%rdi, -160(%rbp)
	movq	%rsi, -152(%rbp)
	movq	%rdx, -144(%rbp)
	movq	%rdi, -72(%rbp)
	movq	%rsi, -56(%rbp)
	movq	%rdx, -48(%rbp)
Ltmp216:
	.loc	1 272 9 prologue_end
	movb	$1, -74(%rbp)
Ltmp217:
	.loc	1 272 16 is_stmt 0
	movl	$1, %eax
	xorl	%ecx, %ecx
	cmpb	$2, 40(%rdi)
	cmoveq	%rcx, %rax
	cmpq	$1, %rax
	jne	LBB29_2
	.loc	1 0 16
	movq	-144(%rbp), %rdx
	movq	-152(%rbp), %rsi
	movq	-160(%rbp), %rdi
	.loc	1 272 21
	movq	%rdi, -24(%rbp)
	.loc	1 273 33 is_stmt 1
	movb	$0, -73(%rbp)
	.loc	1 273 38 is_stmt 0
	movb	$0, -74(%rbp)
Ltmp207:
	.loc	1 273 19
	callq	__ZN109_$LT$core..iter..adapters..scan..Scan$LT$I$C$St$C$F$GT$$u20$as$u20$core..iter..traits..iterator..Iterator$GT$8try_fold17h43b1bb334f20c6e0E
Ltmp208:
	movb	%al, -161(%rbp)
	jmp	LBB29_5
Ltmp218:
LBB29_2:
	.loc	1 276 15 is_stmt 1
	movb	$0, -73(%rbp)
Ltmp213:
	callq	__ZN95_$LT$core..ops..control_flow..ControlFlow$LT$B$C$C$GT$$u20$as$u20$core..ops..try_trait..Try$GT$11from_output17h70b4fd9cb0f01746E
Ltmp214:
	movb	%al, -162(%rbp)
	jmp	LBB29_12
LBB29_3:
	.loc	1 277 5
	testb	$1, -74(%rbp)
	jne	LBB29_14
	jmp	LBB29_13
LBB29_4:
Ltmp215:
	.loc	1 0 5 is_stmt 0
	movq	%rax, %rcx
	movl	%edx, %eax
	movq	%rcx, -16(%rbp)
	movl	%eax, -8(%rbp)
	jmp	LBB29_3
LBB29_5:
Ltmp209:
	movb	-161(%rbp), %al
Ltmp219:
	.loc	1 273 19 is_stmt 1
	movzbl	%al, %edi
	andl	$1, %edi
	callq	__ZN95_$LT$core..ops..control_flow..ControlFlow$LT$B$C$C$GT$$u20$as$u20$core..ops..try_trait..Try$GT$6branch17ha4827ce13d4f9d53E
Ltmp210:
	movb	%al, -163(%rbp)
	jmp	LBB29_6
LBB29_6:
	.loc	1 0 19 is_stmt 0
	movb	-163(%rbp), %al
	.loc	1 273 19
	andb	$1, %al
	movb	%al, -129(%rbp)
	movb	-129(%rbp), %al
	andb	$1, %al
	movzbl	%al, %eax
	cmpq	$0, %rax
	jne	LBB29_8
	.loc	1 273 13
	movb	$1, -73(%rbp)
	.loc	1 274 25 is_stmt 1
	movb	$2, -88(%rbp)
	.loc	1 274 13 is_stmt 0
	jmp	LBB29_11
LBB29_8:
Ltmp211:
Ltmp220:
	.loc	1 273 19 is_stmt 1
	callq	__ZN104_$LT$core..ops..control_flow..ControlFlow$LT$B$C$C$GT$$u20$as$u20$core..ops..try_trait..FromResidual$GT$13from_residual17h15e71e60204b6c0aE
Ltmp212:
	movb	%al, -164(%rbp)
	jmp	LBB29_9
LBB29_9:
	.loc	1 0 19 is_stmt 0
	movb	-164(%rbp), %al
	.loc	1 273 19
	andb	$1, %al
	movb	%al, -130(%rbp)
Ltmp221:
LBB29_10:
	.loc	1 277 6 is_stmt 1
	movb	-130(%rbp), %al
	andb	$1, %al
	movzbl	%al, %eax
	addq	$176, %rsp
	popq	%rbp
	retq
LBB29_11:
	.loc	1 0 6 is_stmt 0
	movq	-160(%rbp), %rdi
Ltmp222:
	.loc	1 274 13 is_stmt 1
	leaq	-128(%rbp), %rsi
	movl	$48, %edx
	callq	_memcpy
Ltmp223:
	.loc	1 272 9
	jmp	LBB29_2
LBB29_12:
	.loc	1 0 9 is_stmt 0
	movb	-162(%rbp), %al
	.loc	1 276 15 is_stmt 1
	andb	$1, %al
	movb	%al, -130(%rbp)
	.loc	1 277 5
	testb	$1, -74(%rbp)
	jne	LBB29_15
	jmp	LBB29_10
LBB29_13:
	testb	$1, -73(%rbp)
	jne	LBB29_17
	jmp	LBB29_16
LBB29_14:
	jmp	LBB29_13
LBB29_15:
	jmp	LBB29_10
LBB29_16:
	.loc	1 266 5
	movq	-16(%rbp), %rdi
	callq	__Unwind_Resume
LBB29_17:
	.loc	1 277 5
	jmp	LBB29_16
Ltmp224:
Lfunc_end29:
	.cfi_endproc
	.section	__TEXT,__gcc_except_tab
	.p2align	2
GCC_except_table29:
Lexception7:
	.byte	255
	.byte	255
	.byte	1
	.uleb128 Lcst_end7-Lcst_begin7
Lcst_begin7:
	.uleb128 Ltmp207-Lfunc_begin29
	.uleb128 Ltmp212-Ltmp207
	.uleb128 Ltmp215-Lfunc_begin29
	.byte	0
	.uleb128 Ltmp212-Lfunc_begin29
	.uleb128 Lfunc_end29-Ltmp212
	.byte	0
	.byte	0
Lcst_end7:
	.p2align	2

	.section	__TEXT,__text,regular,pure_instructions
	.globl	__ZN108_$LT$core..ops..range..RangeTo$LT$usize$GT$$u20$as$u20$core..slice..index..SliceIndex$LT$$u5b$T$u5d$$GT$$GT$3get17hba9a240b0484e5f5E
	.p2align	4, 0x90
__ZN108_$LT$core..ops..range..RangeTo$LT$usize$GT$$u20$as$u20$core..slice..index..SliceIndex$LT$$u5b$T$u5d$$GT$$GT$3get17hba9a240b0484e5f5E:
Lfunc_begin30:
	.loc	8 433 0
	.cfi_startproc
	pushq	%rbp
	.cfi_def_cfa_offset 16
	.cfi_offset %rbp, -16
	movq	%rsp, %rbp
	.cfi_def_cfa_register %rbp
	subq	$48, %rsp
	movq	%rdx, %rcx
	movq	%rsi, %rdx
	movq	%rdi, -24(%rbp)
	movq	%rdx, -16(%rbp)
	movq	%rcx, -8(%rbp)
Ltmp225:
	.loc	8 434 9 prologue_end
	movq	$0, -40(%rbp)
	movq	%rdi, -32(%rbp)
	movq	-40(%rbp), %rdi
	movq	-32(%rbp), %rsi
	callq	__ZN106_$LT$core..ops..range..Range$LT$usize$GT$$u20$as$u20$core..slice..index..SliceIndex$LT$$u5b$T$u5d$$GT$$GT$3get17ha2ee3f45990b4b72E
	.loc	8 435 6
	addq	$48, %rsp
	popq	%rbp
	retq
Ltmp226:
Lfunc_end30:
	.cfi_endproc

	.globl	__ZN108_$LT$core..ops..range..RangeTo$LT$usize$GT$$u20$as$u20$core..slice..index..SliceIndex$LT$$u5b$T$u5d$$GT$$GT$5index17h35e16744bee4d4ddE
	.p2align	4, 0x90
__ZN108_$LT$core..ops..range..RangeTo$LT$usize$GT$$u20$as$u20$core..slice..index..SliceIndex$LT$$u5b$T$u5d$$GT$$GT$5index17h35e16744bee4d4ddE:
Lfunc_begin31:
	.loc	8 455 0
	.cfi_startproc
	pushq	%rbp
	.cfi_def_cfa_offset 16
	.cfi_offset %rbp, -16
	movq	%rsp, %rbp
	.cfi_def_cfa_register %rbp
	subq	$48, %rsp
	movq	%rcx, %r8
	movq	%rdx, %rcx
	movq	%rsi, %rdx
	movq	%rdi, -24(%rbp)
	movq	%rdx, -16(%rbp)
	movq	%rcx, -8(%rbp)
Ltmp227:
	.loc	8 456 9 prologue_end
	movq	$0, -40(%rbp)
	movq	%rdi, -32(%rbp)
	movq	-40(%rbp), %rdi
	movq	-32(%rbp), %rsi
	callq	__ZN106_$LT$core..ops..range..Range$LT$usize$GT$$u20$as$u20$core..slice..index..SliceIndex$LT$$u5b$T$u5d$$GT$$GT$5index17h6e1b616dcaa05d6eE
	.loc	8 457 6
	addq	$48, %rsp
	popq	%rbp
	retq
Ltmp228:
Lfunc_end31:
	.cfi_endproc

	.globl	__ZN108_$LT$core..ops..range..RangeTo$LT$usize$GT$$u20$as$u20$core..slice..index..SliceIndex$LT$$u5b$T$u5d$$GT$$GT$5index17h63d7d6764ebf0d9cE
	.p2align	4, 0x90
__ZN108_$LT$core..ops..range..RangeTo$LT$usize$GT$$u20$as$u20$core..slice..index..SliceIndex$LT$$u5b$T$u5d$$GT$$GT$5index17h63d7d6764ebf0d9cE:
Lfunc_begin32:
	.loc	8 455 0
	.cfi_startproc
	pushq	%rbp
	.cfi_def_cfa_offset 16
	.cfi_offset %rbp, -16
	movq	%rsp, %rbp
	.cfi_def_cfa_register %rbp
	subq	$48, %rsp
	movq	%rcx, %r8
	movq	%rdx, %rcx
	movq	%rsi, %rdx
	movq	%rdi, -24(%rbp)
	movq	%rdx, -16(%rbp)
	movq	%rcx, -8(%rbp)
Ltmp229:
	.loc	8 456 9 prologue_end
	movq	$0, -40(%rbp)
	movq	%rdi, -32(%rbp)
	movq	-40(%rbp), %rdi
	movq	-32(%rbp), %rsi
	callq	__ZN106_$LT$core..ops..range..Range$LT$usize$GT$$u20$as$u20$core..slice..index..SliceIndex$LT$$u5b$T$u5d$$GT$$GT$5index17hc3f57be0f5b38b85E
	.loc	8 457 6
	addq	$48, %rsp
	popq	%rbp
	retq
Ltmp230:
Lfunc_end32:
	.cfi_endproc

	.globl	__ZN108_$LT$core..ops..range..RangeTo$LT$usize$GT$$u20$as$u20$core..slice..index..SliceIndex$LT$$u5b$T$u5d$$GT$$GT$9index_mut17h067b930e73756c35E
	.p2align	4, 0x90
__ZN108_$LT$core..ops..range..RangeTo$LT$usize$GT$$u20$as$u20$core..slice..index..SliceIndex$LT$$u5b$T$u5d$$GT$$GT$9index_mut17h067b930e73756c35E:
Lfunc_begin33:
	.loc	8 460 0
	.cfi_startproc
	pushq	%rbp
	.cfi_def_cfa_offset 16
	.cfi_offset %rbp, -16
	movq	%rsp, %rbp
	.cfi_def_cfa_register %rbp
	subq	$48, %rsp
	movq	%rcx, %r8
	movq	%rdx, %rcx
	movq	%rsi, %rdx
	movq	%rdi, -24(%rbp)
	movq	%rdx, -16(%rbp)
	movq	%rcx, -8(%rbp)
Ltmp231:
	.loc	8 461 9 prologue_end
	movq	$0, -40(%rbp)
	movq	%rdi, -32(%rbp)
	movq	-40(%rbp), %rdi
	movq	-32(%rbp), %rsi
	callq	__ZN106_$LT$core..ops..range..Range$LT$usize$GT$$u20$as$u20$core..slice..index..SliceIndex$LT$$u5b$T$u5d$$GT$$GT$9index_mut17h042195b0bac82d5fE
	.loc	8 462 6
	addq	$48, %rsp
	popq	%rbp
	retq
Ltmp232:
Lfunc_end33:
	.cfi_endproc

	.globl	__ZN108_$LT$core..ops..range..RangeTo$LT$usize$GT$$u20$as$u20$core..slice..index..SliceIndex$LT$$u5b$T$u5d$$GT$$GT$9index_mut17h79872fb01835b9d3E
	.p2align	4, 0x90
__ZN108_$LT$core..ops..range..RangeTo$LT$usize$GT$$u20$as$u20$core..slice..index..SliceIndex$LT$$u5b$T$u5d$$GT$$GT$9index_mut17h79872fb01835b9d3E:
Lfunc_begin34:
	.loc	8 460 0
	.cfi_startproc
	pushq	%rbp
	.cfi_def_cfa_offset 16
	.cfi_offset %rbp, -16
	movq	%rsp, %rbp
	.cfi_def_cfa_register %rbp
	subq	$48, %rsp
	movq	%rcx, %r8
	movq	%rdx, %rcx
	movq	%rsi, %rdx
	movq	%rdi, -24(%rbp)
	movq	%rdx, -16(%rbp)
	movq	%rcx, -8(%rbp)
Ltmp233:
	.loc	8 461 9 prologue_end
	movq	$0, -40(%rbp)
	movq	%rdi, -32(%rbp)
	movq	-40(%rbp), %rdi
	movq	-32(%rbp), %rsi
	callq	__ZN106_$LT$core..ops..range..Range$LT$usize$GT$$u20$as$u20$core..slice..index..SliceIndex$LT$$u5b$T$u5d$$GT$$GT$9index_mut17h6aca741bff0ead4eE
	.loc	8 462 6
	addq	$48, %rsp
	popq	%rbp
	retq
Ltmp234:
Lfunc_end34:
	.cfi_endproc

	.globl	__ZN108_$LT$core..ops..range..RangeTo$LT$usize$GT$$u20$as$u20$core..slice..index..SliceIndex$LT$$u5b$T$u5d$$GT$$GT$9index_mut17h84cafbc6837bc9c5E
	.p2align	4, 0x90
__ZN108_$LT$core..ops..range..RangeTo$LT$usize$GT$$u20$as$u20$core..slice..index..SliceIndex$LT$$u5b$T$u5d$$GT$$GT$9index_mut17h84cafbc6837bc9c5E:
Lfunc_begin35:
	.loc	8 460 0
	.cfi_startproc
	pushq	%rbp
	.cfi_def_cfa_offset 16
	.cfi_offset %rbp, -16
	movq	%rsp, %rbp
	.cfi_def_cfa_register %rbp
	subq	$48, %rsp
	movq	%rcx, %r8
	movq	%rdx, %rcx
	movq	%rsi, %rdx
	movq	%rdi, -24(%rbp)
	movq	%rdx, -16(%rbp)
	movq	%rcx, -8(%rbp)
Ltmp235:
	.loc	8 461 9 prologue_end
	movq	$0, -40(%rbp)
	movq	%rdi, -32(%rbp)
	movq	-40(%rbp), %rdi
	movq	-32(%rbp), %rsi
	callq	__ZN106_$LT$core..ops..range..Range$LT$usize$GT$$u20$as$u20$core..slice..index..SliceIndex$LT$$u5b$T$u5d$$GT$$GT$9index_mut17ha671430c7f912741E
	.loc	8 462 6
	addq	$48, %rsp
	popq	%rbp
	retq
Ltmp236:
Lfunc_end35:
	.cfi_endproc

	.globl	__ZN109_$LT$core..iter..adapters..scan..Scan$LT$I$C$St$C$F$GT$$u20$as$u20$core..iter..traits..iterator..Iterator$GT$8try_fold17h2808f4cfaf2abd54E
	.p2align	4, 0x90
__ZN109_$LT$core..iter..adapters..scan..Scan$LT$I$C$St$C$F$GT$$u20$as$u20$core..iter..traits..iterator..Iterator$GT$8try_fold17h2808f4cfaf2abd54E:
Lfunc_begin36:
	.file	13 "/rustc/2c8cc343237b8f7d5a3c3703e3a87f2eb2c54a74/library/core/src/iter/adapters" "scan.rs"
	.loc	13 55 0
	.cfi_startproc
	.cfi_personality 155, _rust_eh_personality
	.cfi_lsda 16, Lexception8
	pushq	%rbp
	.cfi_def_cfa_offset 16
	.cfi_offset %rbp, -16
	movq	%rsp, %rbp
	.cfi_def_cfa_register %rbp
	subq	$128, %rsp
	movq	%rdx, %r8
	movq	%rsi, %rcx
	movq	%rdi, %rdx
	movq	%rdx, -112(%rbp)
	movq	%rdx, -64(%rbp)
	movq	%rcx, -48(%rbp)
	movq	%r8, -40(%rbp)
Ltmp242:
	.loc	13 72 21 prologue_end
	movq	%rdx, -32(%rbp)
Ltmp243:
	.loc	13 73 17
	movq	%rdx, -24(%rbp)
Ltmp244:
	.loc	13 74 28
	movb	$1, -65(%rbp)
Ltmp237:
	leaq	-104(%rbp), %rdi
	.loc	13 74 34 is_stmt 0
	movq	%rdx, %rsi
	callq	__ZN109_$LT$core..iter..adapters..scan..Scan$LT$I$C$St$C$F$GT$$u20$as$u20$core..iter..traits..iterator..Iterator$GT$8try_fold4scan17hb6b565b46078b9e4E
Ltmp238:
	jmp	LBB36_3
LBB36_1:
	.loc	13 74 54
	testb	$1, -65(%rbp)
	jne	LBB36_6
	jmp	LBB36_5
LBB36_2:
Ltmp241:
	.loc	13 0 54
	movq	%rax, %rcx
	movl	%edx, %eax
	movq	%rcx, -16(%rbp)
	movl	%eax, -8(%rbp)
	jmp	LBB36_1
LBB36_3:
	movq	-112(%rbp), %rdi
	.loc	13 74 9
	movb	$0, -65(%rbp)
Ltmp239:
	leaq	-104(%rbp), %rsi
	callq	__ZN112_$LT$core..iter..sources..repeat_with..RepeatWith$LT$F$GT$$u20$as$u20$core..iter..traits..iterator..Iterator$GT$8try_fold17h104153bac59e4bfbE
Ltmp240:
	movb	%al, -113(%rbp)
	jmp	LBB36_4
LBB36_4:
	.loc	13 0 9
	movb	-113(%rbp), %al
	.loc	13 74 9
	movzbl	%al, %edi
	callq	__ZN4core3ops12control_flow77ControlFlow$LT$R$C$$LT$R$u20$as$u20$core..ops..try_trait..Try$GT$..Output$GT$8into_try17h74b857b3867b2b1aE
Ltmp245:
	.loc	13 75 6 is_stmt 1
	andb	$1, %al
	movzbl	%al, %eax
	addq	$128, %rsp
	popq	%rbp
	retq
LBB36_5:
	.loc	13 55 5
	movq	-16(%rbp), %rdi
	callq	__Unwind_Resume
LBB36_6:
Ltmp246:
	.loc	13 74 54
	jmp	LBB36_5
Ltmp247:
Lfunc_end36:
	.cfi_endproc
	.section	__TEXT,__gcc_except_tab
	.p2align	2
GCC_except_table36:
Lexception8:
	.byte	255
	.byte	255
	.byte	1
	.uleb128 Lcst_end8-Lcst_begin8
Lcst_begin8:
	.uleb128 Ltmp237-Lfunc_begin36
	.uleb128 Ltmp240-Ltmp237
	.uleb128 Ltmp241-Lfunc_begin36
	.byte	0
	.uleb128 Ltmp240-Lfunc_begin36
	.uleb128 Lfunc_end36-Ltmp240
	.byte	0
	.byte	0
Lcst_end8:
	.p2align	2

	.section	__TEXT,__text,regular,pure_instructions
	.globl	__ZN109_$LT$core..iter..adapters..scan..Scan$LT$I$C$St$C$F$GT$$u20$as$u20$core..iter..traits..iterator..Iterator$GT$8try_fold17h43b1bb334f20c6e0E
	.p2align	4, 0x90
__ZN109_$LT$core..iter..adapters..scan..Scan$LT$I$C$St$C$F$GT$$u20$as$u20$core..iter..traits..iterator..Iterator$GT$8try_fold17h43b1bb334f20c6e0E:
Lfunc_begin37:
	.loc	13 55 0
	.cfi_startproc
	.cfi_personality 155, _rust_eh_personality
	.cfi_lsda 16, Lexception9
	pushq	%rbp
	.cfi_def_cfa_offset 16
	.cfi_offset %rbp, -16
	movq	%rsp, %rbp
	.cfi_def_cfa_register %rbp
	subq	$128, %rsp
	movq	%rdx, %r8
	movq	%rsi, %rcx
	movq	%rdi, %rdx
	movq	%rdx, -112(%rbp)
	movq	%rdx, -64(%rbp)
	movq	%rcx, -48(%rbp)
	movq	%r8, -40(%rbp)
Ltmp253:
	.loc	13 72 21 prologue_end
	movq	%rdx, -32(%rbp)
Ltmp254:
	.loc	13 73 17
	movq	%rdx, -24(%rbp)
Ltmp255:
	.loc	13 74 28
	movb	$1, -65(%rbp)
Ltmp248:
	leaq	-104(%rbp), %rdi
	.loc	13 74 34 is_stmt 0
	movq	%rdx, %rsi
	callq	__ZN109_$LT$core..iter..adapters..scan..Scan$LT$I$C$St$C$F$GT$$u20$as$u20$core..iter..traits..iterator..Iterator$GT$8try_fold4scan17h25f0217604d1aa7cE
Ltmp249:
	jmp	LBB37_3
LBB37_1:
	.loc	13 74 54
	testb	$1, -65(%rbp)
	jne	LBB37_6
	jmp	LBB37_5
LBB37_2:
Ltmp252:
	.loc	13 0 54
	movq	%rax, %rcx
	movl	%edx, %eax
	movq	%rcx, -16(%rbp)
	movl	%eax, -8(%rbp)
	jmp	LBB37_1
LBB37_3:
	movq	-112(%rbp), %rdi
	.loc	13 74 9
	movb	$0, -65(%rbp)
Ltmp250:
	leaq	-104(%rbp), %rsi
	callq	__ZN112_$LT$core..iter..sources..repeat_with..RepeatWith$LT$F$GT$$u20$as$u20$core..iter..traits..iterator..Iterator$GT$8try_fold17hcc991ea98cf0ad14E
Ltmp251:
	movb	%al, -113(%rbp)
	jmp	LBB37_4
LBB37_4:
	.loc	13 0 9
	movb	-113(%rbp), %al
	.loc	13 74 9
	movzbl	%al, %edi
	callq	__ZN4core3ops12control_flow77ControlFlow$LT$R$C$$LT$R$u20$as$u20$core..ops..try_trait..Try$GT$..Output$GT$8into_try17h74b857b3867b2b1aE
Ltmp256:
	.loc	13 75 6 is_stmt 1
	andb	$1, %al
	movzbl	%al, %eax
	addq	$128, %rsp
	popq	%rbp
	retq
LBB37_5:
	.loc	13 55 5
	movq	-16(%rbp), %rdi
	callq	__Unwind_Resume
LBB37_6:
Ltmp257:
	.loc	13 74 54
	jmp	LBB37_5
Ltmp258:
Lfunc_end37:
	.cfi_endproc
	.section	__TEXT,__gcc_except_tab
	.p2align	2
GCC_except_table37:
Lexception9:
	.byte	255
	.byte	255
	.byte	1
	.uleb128 Lcst_end9-Lcst_begin9
Lcst_begin9:
	.uleb128 Ltmp248-Lfunc_begin37
	.uleb128 Ltmp251-Ltmp248
	.uleb128 Ltmp252-Lfunc_begin37
	.byte	0
	.uleb128 Ltmp251-Lfunc_begin37
	.uleb128 Lfunc_end37-Ltmp251
	.byte	0
	.byte	0
Lcst_end9:
	.p2align	2

	.section	__TEXT,__text,regular,pure_instructions
	.globl	__ZN109_$LT$core..iter..adapters..scan..Scan$LT$I$C$St$C$F$GT$$u20$as$u20$core..iter..traits..iterator..Iterator$GT$8try_fold4scan17h25f0217604d1aa7cE
	.p2align	4, 0x90
__ZN109_$LT$core..iter..adapters..scan..Scan$LT$I$C$St$C$F$GT$$u20$as$u20$core..iter..traits..iterator..Iterator$GT$8try_fold4scan17h25f0217604d1aa7cE:
Lfunc_begin38:
	.loc	13 61 0
	.cfi_startproc
	pushq	%rbp
	.cfi_def_cfa_offset 16
	.cfi_offset %rbp, -16
	movq	%rsp, %rbp
	.cfi_def_cfa_register %rbp
	subq	$32, %rsp
	movq	%rdi, %rax
	movq	%rsi, -32(%rbp)
	movq	%rdx, -24(%rbp)
	movq	%rcx, -16(%rbp)
	movq	%r8, -8(%rbp)
Ltmp259:
	.loc	13 66 13 prologue_end
	movq	%rdx, 16(%rdi)
	movq	%rsi, 24(%rdi)
	movq	%rcx, (%rdi)
	movq	%r8, 8(%rdi)
	.loc	13 70 10
	addq	$32, %rsp
	popq	%rbp
	retq
Ltmp260:
Lfunc_end38:
	.cfi_endproc

	.globl	__ZN109_$LT$core..iter..adapters..scan..Scan$LT$I$C$St$C$F$GT$$u20$as$u20$core..iter..traits..iterator..Iterator$GT$8try_fold4scan17hb6b565b46078b9e4E
	.p2align	4, 0x90
__ZN109_$LT$core..iter..adapters..scan..Scan$LT$I$C$St$C$F$GT$$u20$as$u20$core..iter..traits..iterator..Iterator$GT$8try_fold4scan17hb6b565b46078b9e4E:
Lfunc_begin39:
	.loc	13 61 0
	.cfi_startproc
	pushq	%rbp
	.cfi_def_cfa_offset 16
	.cfi_offset %rbp, -16
	movq	%rsp, %rbp
	.cfi_def_cfa_register %rbp
	subq	$32, %rsp
	movq	%rdi, %rax
	movq	%rsi, -32(%rbp)
	movq	%rdx, -24(%rbp)
	movq	%rcx, -16(%rbp)
	movq	%r8, -8(%rbp)
Ltmp261:
	.loc	13 66 13 prologue_end
	movq	%rdx, 16(%rdi)
	movq	%rsi, 24(%rdi)
	movq	%rcx, (%rdi)
	movq	%r8, 8(%rdi)
	.loc	13 70 10
	addq	$32, %rsp
	popq	%rbp
	retq
Ltmp262:
Lfunc_end39:
	.cfi_endproc

	.globl	__ZN109_$LT$core..iter..adapters..scan..Scan$LT$I$C$St$C$F$GT$$u20$as$u20$core..iter..traits..iterator..Iterator$GT$8try_fold4scan28_$u7b$$u7b$closure$u7d$$u7d$17hf430d3759be36e4fE
	.p2align	4, 0x90
__ZN109_$LT$core..iter..adapters..scan..Scan$LT$I$C$St$C$F$GT$$u20$as$u20$core..iter..traits..iterator..Iterator$GT$8try_fold4scan28_$u7b$$u7b$closure$u7d$$u7d$17hf430d3759be36e4fE:
Lfunc_begin40:
	.loc	13 66 0
	.cfi_startproc
	.cfi_personality 155, _rust_eh_personality
	.cfi_lsda 16, Lexception10
	pushq	%rbp
	.cfi_def_cfa_offset 16
	.cfi_offset %rbp, -16
	movq	%rsp, %rbp
	.cfi_def_cfa_register %rbp
	subq	$96, %rsp
	movq	%rdi, %rcx
	movq	%rcx, -80(%rbp)
	movb	%sil, %al
	movq	%rcx, -40(%rbp)
	movb	%al, -25(%rbp)
Ltmp272:
	.loc	13 66 33 prologue_end
	movb	$1, -41(%rbp)
	movq	16(%rcx), %rdi
	.loc	13 66 35 is_stmt 0
	movq	24(%rcx), %rcx
	.loc	13 66 33
	movq	%rcx, -64(%rbp)
	movb	%al, -56(%rbp)
	movq	-64(%rbp), %rsi
	movl	-56(%rbp), %edx
Ltmp263:
	callq	__ZN5weezl6encode7IntoVec11encode_part28_$u7b$$u7b$closure$u7d$$u7d$17h0900f0aed410ab71E
Ltmp264:
	movb	%al, -67(%rbp)
	jmp	LBB40_3
LBB40_1:
	.loc	13 69 13 is_stmt 1
	testb	$1, -41(%rbp)
	jne	LBB40_11
	jmp	LBB40_10
LBB40_2:
Ltmp271:
	.loc	13 0 13 is_stmt 0
	movq	%rax, %rcx
	movl	%edx, %eax
	movq	%rcx, -24(%rbp)
	movl	%eax, -16(%rbp)
	jmp	LBB40_1
LBB40_3:
	movb	-67(%rbp), %al
	.loc	13 66 33 is_stmt 1
	movb	%al, -65(%rbp)
	movl	$1, %eax
	xorl	%ecx, %ecx
	cmpb	$2, -65(%rbp)
	cmoveq	%rcx, %rax
	.loc	13 66 27 is_stmt 0
	cmpq	$0, %rax
	jne	LBB40_5
	.loc	13 67 50 is_stmt 1
	movb	$0, -41(%rbp)
Ltmp269:
	callq	__ZN95_$LT$core..ops..control_flow..ControlFlow$LT$B$C$C$GT$$u20$as$u20$core..ops..try_trait..Try$GT$11from_output17h70b4fd9cb0f01746E
Ltmp270:
	movb	%al, -81(%rbp)
	jmp	LBB40_9
LBB40_5:
	.loc	13 0 50 is_stmt 0
	movq	-80(%rbp), %rdi
	.loc	13 68 22 is_stmt 1
	movb	-65(%rbp), %al
	movb	%al, -1(%rbp)
Ltmp273:
	.loc	13 68 55 is_stmt 0
	movb	$0, -41(%rbp)
	.loc	13 68 50
	movb	%al, -42(%rbp)
	movzbl	-42(%rbp), %esi
Ltmp265:
	callq	__ZN106_$LT$core..iter..adapters..GenericShunt$LT$I$C$R$GT$$u20$as$u20$core..iter..traits..iterator..Iterator$GT$8try_fold28_$u7b$$u7b$closure$u7d$$u7d$17h39ce06893a87e19fE
Ltmp266:
	movb	%al, -82(%rbp)
	jmp	LBB40_6
LBB40_6:
Ltmp267:
	.loc	13 0 50
	movb	-82(%rbp), %al
	.loc	13 68 28
	movzbl	%al, %edi
	andl	$1, %edi
	callq	__ZN4core3ops12control_flow77ControlFlow$LT$R$C$$LT$R$u20$as$u20$core..ops..try_trait..Try$GT$..Output$GT$8from_try17hf1e81369afc820fbE
Ltmp268:
	movb	%al, -83(%rbp)
	jmp	LBB40_7
LBB40_7:
	.loc	13 0 28
	movb	-83(%rbp), %al
	.loc	13 68 28
	movb	%al, -66(%rbp)
Ltmp274:
LBB40_8:
	.loc	13 69 14 is_stmt 1
	movb	-66(%rbp), %al
	addq	$96, %rsp
	popq	%rbp
	retq
LBB40_9:
	.loc	13 0 14 is_stmt 0
	movb	-81(%rbp), %al
	.loc	13 67 25 is_stmt 1
	andb	$1, %al
	movb	%al, -66(%rbp)
	.loc	13 67 55 is_stmt 0
	jmp	LBB40_8
LBB40_10:
	.loc	13 66 13 is_stmt 1
	movq	-24(%rbp), %rdi
	callq	__Unwind_Resume
LBB40_11:
	.loc	13 69 13
	jmp	LBB40_10
Ltmp275:
Lfunc_end40:
	.cfi_endproc
	.section	__TEXT,__gcc_except_tab
	.p2align	2
GCC_except_table40:
Lexception10:
	.byte	255
	.byte	255
	.byte	1
	.uleb128 Lcst_end10-Lcst_begin10
Lcst_begin10:
	.uleb128 Ltmp263-Lfunc_begin40
	.uleb128 Ltmp268-Ltmp263
	.uleb128 Ltmp271-Lfunc_begin40
	.byte	0
	.uleb128 Ltmp268-Lfunc_begin40
	.uleb128 Lfunc_end40-Ltmp268
	.byte	0
	.byte	0
Lcst_end10:
	.p2align	2

	.section	__TEXT,__text,regular,pure_instructions
	.globl	__ZN109_$LT$core..iter..adapters..scan..Scan$LT$I$C$St$C$F$GT$$u20$as$u20$core..iter..traits..iterator..Iterator$GT$8try_fold4scan28_$u7b$$u7b$closure$u7d$$u7d$17hfb6660fb67e41a34E
	.p2align	4, 0x90
__ZN109_$LT$core..iter..adapters..scan..Scan$LT$I$C$St$C$F$GT$$u20$as$u20$core..iter..traits..iterator..Iterator$GT$8try_fold4scan28_$u7b$$u7b$closure$u7d$$u7d$17hfb6660fb67e41a34E:
Lfunc_begin41:
	.loc	13 66 0
	.cfi_startproc
	.cfi_personality 155, _rust_eh_personality
	.cfi_lsda 16, Lexception11
	pushq	%rbp
	.cfi_def_cfa_offset 16
	.cfi_offset %rbp, -16
	movq	%rsp, %rbp
	.cfi_def_cfa_register %rbp
	subq	$96, %rsp
	movq	%rdi, %rcx
	movq	%rcx, -80(%rbp)
	movb	%sil, %al
	movq	%rcx, -40(%rbp)
	movb	%al, -25(%rbp)
Ltmp285:
	.loc	13 66 33 prologue_end
	movb	$1, -41(%rbp)
	movq	16(%rcx), %rdi
	.loc	13 66 35 is_stmt 0
	movq	24(%rcx), %rcx
	.loc	13 66 33
	movq	%rcx, -64(%rbp)
	movb	%al, -56(%rbp)
	movq	-64(%rbp), %rsi
	movl	-56(%rbp), %edx
Ltmp276:
	callq	__ZN5weezl6decode7IntoVec11decode_part28_$u7b$$u7b$closure$u7d$$u7d$17hf3d7187d38acec66E
Ltmp277:
	movb	%al, -67(%rbp)
	jmp	LBB41_3
LBB41_1:
	.loc	13 69 13 is_stmt 1
	testb	$1, -41(%rbp)
	jne	LBB41_11
	jmp	LBB41_10
LBB41_2:
Ltmp284:
	.loc	13 0 13 is_stmt 0
	movq	%rax, %rcx
	movl	%edx, %eax
	movq	%rcx, -24(%rbp)
	movl	%eax, -16(%rbp)
	jmp	LBB41_1
LBB41_3:
	movb	-67(%rbp), %al
	.loc	13 66 33 is_stmt 1
	movb	%al, -65(%rbp)
	movl	$1, %eax
	xorl	%ecx, %ecx
	cmpb	$2, -65(%rbp)
	cmoveq	%rcx, %rax
	.loc	13 66 27 is_stmt 0
	cmpq	$0, %rax
	jne	LBB41_5
	.loc	13 67 50 is_stmt 1
	movb	$0, -41(%rbp)
Ltmp282:
	callq	__ZN95_$LT$core..ops..control_flow..ControlFlow$LT$B$C$C$GT$$u20$as$u20$core..ops..try_trait..Try$GT$11from_output17h70b4fd9cb0f01746E
Ltmp283:
	movb	%al, -81(%rbp)
	jmp	LBB41_9
LBB41_5:
	.loc	13 0 50 is_stmt 0
	movq	-80(%rbp), %rdi
	.loc	13 68 22 is_stmt 1
	movb	-65(%rbp), %al
	movb	%al, -1(%rbp)
Ltmp286:
	.loc	13 68 55 is_stmt 0
	movb	$0, -41(%rbp)
	.loc	13 68 50
	movb	%al, -42(%rbp)
	movzbl	-42(%rbp), %esi
Ltmp278:
	callq	__ZN106_$LT$core..iter..adapters..GenericShunt$LT$I$C$R$GT$$u20$as$u20$core..iter..traits..iterator..Iterator$GT$8try_fold28_$u7b$$u7b$closure$u7d$$u7d$17ha51a0d94237553e7E
Ltmp279:
	movb	%al, -82(%rbp)
	jmp	LBB41_6
LBB41_6:
Ltmp280:
	.loc	13 0 50
	movb	-82(%rbp), %al
	.loc	13 68 28
	movzbl	%al, %edi
	andl	$1, %edi
	callq	__ZN4core3ops12control_flow77ControlFlow$LT$R$C$$LT$R$u20$as$u20$core..ops..try_trait..Try$GT$..Output$GT$8from_try17hf1e81369afc820fbE
Ltmp281:
	movb	%al, -83(%rbp)
	jmp	LBB41_7
LBB41_7:
	.loc	13 0 28
	movb	-83(%rbp), %al
	.loc	13 68 28
	movb	%al, -66(%rbp)
Ltmp287:
LBB41_8:
	.loc	13 69 14 is_stmt 1
	movb	-66(%rbp), %al
	addq	$96, %rsp
	popq	%rbp
	retq
LBB41_9:
	.loc	13 0 14 is_stmt 0
	movb	-81(%rbp), %al
	.loc	13 67 25 is_stmt 1
	andb	$1, %al
	movb	%al, -66(%rbp)
	.loc	13 67 55 is_stmt 0
	jmp	LBB41_8
LBB41_10:
	.loc	13 66 13 is_stmt 1
	movq	-24(%rbp), %rdi
	callq	__Unwind_Resume
LBB41_11:
	.loc	13 69 13
	jmp	LBB41_10
Ltmp288:
Lfunc_end41:
	.cfi_endproc
	.section	__TEXT,__gcc_except_tab
	.p2align	2
GCC_except_table41:
Lexception11:
	.byte	255
	.byte	255
	.byte	1
	.uleb128 Lcst_end11-Lcst_begin11
Lcst_begin11:
	.uleb128 Ltmp276-Lfunc_begin41
	.uleb128 Ltmp281-Ltmp276
	.uleb128 Ltmp284-Lfunc_begin41
	.byte	0
	.uleb128 Ltmp281-Lfunc_begin41
	.uleb128 Lfunc_end41-Ltmp281
	.byte	0
	.byte	0
Lcst_end11:
	.p2align	2

	.section	__TEXT,__text,regular,pure_instructions
	.globl	__ZN109_$LT$core..slice..iter..IterMut$LT$T$GT$$u20$as$u20$core..iter..traits..double_ended..DoubleEndedIterator$GT$9next_back17hcb0d4aec8b8a4e7aE
	.p2align	4, 0x90
__ZN109_$LT$core..slice..iter..IterMut$LT$T$GT$$u20$as$u20$core..iter..traits..double_ended..DoubleEndedIterator$GT$9next_back17hcb0d4aec8b8a4e7aE:
Lfunc_begin42:
	.file	14 "/rustc/2c8cc343237b8f7d5a3c3703e3a87f2eb2c54a74/library/core/src/slice/iter" "macros.rs"
	.loc	14 339 0
	.cfi_startproc
	pushq	%rbp
	.cfi_def_cfa_offset 16
	.cfi_offset %rbp, -16
	movq	%rsp, %rbp
	.cfi_def_cfa_register %rbp
	subq	$264, %rsp
	movq	%rdi, -264(%rbp)
	movq	%rdi, -208(%rbp)
Ltmp289:
	.loc	14 347 29 prologue_end
	movq	8(%rdi), %rax
	movq	%rax, -192(%rbp)
Ltmp290:
	.file	15 "/rustc/2c8cc343237b8f7d5a3c3703e3a87f2eb2c54a74/library/core/src/ptr" "non_null.rs"
	.loc	15 326 9
	movq	%rax, -184(%rbp)
Ltmp291:
	.loc	12 52 36
	movq	%rax, -240(%rbp)
	.loc	12 52 18 is_stmt 0
	movq	-240(%rbp), %rax
	movq	%rax, -176(%rbp)
Ltmp292:
	.loc	12 38 13 is_stmt 1
	movq	%rax, -168(%rbp)
Ltmp293:
	.loc	12 215 33
	movq	%rax, -160(%rbp)
	.loc	12 215 18 is_stmt 0
	movq	%rax, -152(%rbp)
Ltmp294:
	.loc	14 348 24 is_stmt 1
	movb	$1, %al
	testb	$1, %al
	jne	LBB42_2
LBB42_1:
	.loc	14 0 24 is_stmt 0
	movq	-264(%rbp), %rcx
	.loc	14 351 24 is_stmt 1
	movq	8(%rcx), %rax
	movq	%rax, -104(%rbp)
	cmpq	(%rcx), %rax
	je	LBB42_4
	jmp	LBB42_3
LBB42_2:
	.loc	14 0 24 is_stmt 0
	movq	-264(%rbp), %rax
	.loc	14 349 33 is_stmt 1
	movq	(%rax), %rax
	movq	%rax, -144(%rbp)
Ltmp295:
	.loc	12 52 36
	movq	%rax, -232(%rbp)
	.loc	12 52 18 is_stmt 0
	movq	-232(%rbp), %rax
	movq	%rax, -136(%rbp)
Ltmp296:
	.loc	12 38 13 is_stmt 1
	movq	%rax, -128(%rbp)
Ltmp297:
	.loc	12 215 33
	movq	%rax, -120(%rbp)
	.loc	12 215 18 is_stmt 0
	movq	%rax, -112(%rbp)
Ltmp298:
	.loc	14 348 21 is_stmt 1
	jmp	LBB42_1
LBB42_3:
	.loc	14 0 21 is_stmt 0
	movq	-264(%rbp), %rax
	.loc	14 354 30 is_stmt 1
	movq	%rax, -96(%rbp)
Ltmp299:
	.loc	14 93 20
	xorl	%eax, %eax
	testb	$1, %al
	jne	LBB42_7
	jmp	LBB42_6
Ltmp300:
LBB42_4:
	.loc	14 352 25
	movq	$0, -256(%rbp)
LBB42_5:
	.loc	14 357 14
	movq	-256(%rbp), %rax
	addq	$264, %rsp
	popq	%rbp
	retq
LBB42_6:
	.loc	14 0 14 is_stmt 0
	movq	-264(%rbp), %rax
Ltmp301:
	.loc	14 100 41 is_stmt 1
	movq	(%rax), %rcx
	movq	%rcx, -24(%rbp)
Ltmp302:
	.loc	12 1119 18
	movq	%rcx, -16(%rbp)
Ltmp303:
	.loc	12 487 18
	addq	$-1, %rcx
	movq	%rcx, -8(%rbp)
	movq	-8(%rbp), %rcx
Ltmp304:
	.loc	14 100 21
	movq	%rcx, (%rax)
	.loc	14 101 21
	movq	(%rax), %rax
	movq	%rax, -248(%rbp)
	.loc	14 93 17
	jmp	LBB42_8
LBB42_7:
	.loc	14 0 17 is_stmt 0
	movq	-264(%rbp), %rax
	.loc	14 57 29 is_stmt 1
	movq	(%rax), %rcx
	movq	%rcx, -88(%rbp)
Ltmp305:
	.loc	12 1300 9
	movq	%rcx, -80(%rbp)
Ltmp306:
	.loc	12 60 9
	movq	%rcx, -72(%rbp)
Ltmp307:
	.loc	12 1282 9
	movq	%rcx, -64(%rbp)
Ltmp308:
	.loc	12 568 18
	addq	$-1, %rcx
	movq	%rcx, -56(%rbp)
	movq	-56(%rbp), %rcx
	movq	%rcx, -48(%rbp)
Ltmp309:
	.loc	12 99 33
	movq	%rcx, -40(%rbp)
Ltmp310:
	.loc	11 135 36
	movq	%rcx, -216(%rbp)
	.loc	11 135 14 is_stmt 0
	movq	-216(%rbp), %rcx
	movq	%rcx, -224(%rbp)
	movq	-224(%rbp), %rcx
Ltmp311:
	.loc	14 57 17 is_stmt 1
	movq	%rcx, (%rax)
	.loc	14 95 21
	movq	8(%rax), %rax
	movq	%rax, -32(%rbp)
Ltmp312:
	.loc	15 326 9
	movq	%rax, -248(%rbp)
Ltmp313:
LBB42_8:
	.loc	14 354 30
	movq	-248(%rbp), %rax
	.loc	14 354 25 is_stmt 0
	movq	%rax, -256(%rbp)
	.loc	14 351 21 is_stmt 1
	jmp	LBB42_5
Ltmp314:
Lfunc_end42:
	.cfi_endproc

	.globl	__ZN110_$LT$core..ops..range..RangeFrom$LT$usize$GT$$u20$as$u20$core..slice..index..SliceIndex$LT$$u5b$T$u5d$$GT$$GT$5index17h3bf9b124ca007c89E
	.p2align	4, 0x90
__ZN110_$LT$core..ops..range..RangeFrom$LT$usize$GT$$u20$as$u20$core..slice..index..SliceIndex$LT$$u5b$T$u5d$$GT$$GT$5index17h3bf9b124ca007c89E:
Lfunc_begin43:
	.loc	8 493 0
	.cfi_startproc
	pushq	%rbp
	.cfi_def_cfa_offset 16
	.cfi_offset %rbp, -16
	movq	%rsp, %rbp
	.cfi_def_cfa_register %rbp
	subq	$144, %rsp
	movq	%rdi, -144(%rbp)
	movq	%rsi, -136(%rbp)
	movq	%rdx, -128(%rbp)
	movq	%rcx, -120(%rbp)
	movq	%rdi, -80(%rbp)
	movq	%rsi, -72(%rbp)
	movq	%rdx, -64(%rbp)
Ltmp315:
	.loc	8 494 12 prologue_end
	cmpq	%rdx, %rdi
	ja	LBB43_2
	.loc	8 0 12 is_stmt 0
	movq	-128(%rbp), %rcx
	movq	-136(%rbp), %rdx
	movq	-144(%rbp), %rsi
	.loc	8 498 20 is_stmt 1
	movq	%rsi, -56(%rbp)
	.loc	8 498 39 is_stmt 0
	movq	%rdx, -48(%rbp)
	movq	%rcx, -40(%rbp)
Ltmp316:
	.loc	8 483 31 is_stmt 1
	movq	%rdx, -32(%rbp)
	movq	%rcx, -24(%rbp)
Ltmp317:
	.loc	9 1630 18
	movq	%rdx, -16(%rbp)
	movq	%rcx, -8(%rbp)
Ltmp318:
	.loc	11 98 14
	movq	%rdx, -96(%rbp)
	movq	%rcx, -88(%rbp)
	movq	-88(%rbp), %rax
Ltmp319:
	.loc	8 483 18
	movq	%rsi, -112(%rbp)
	movq	%rax, -104(%rbp)
	movq	-112(%rbp), %rdi
	movq	-104(%rbp), %rsi
	callq	__ZN106_$LT$core..ops..range..Range$LT$usize$GT$$u20$as$u20$core..slice..index..SliceIndex$LT$$u5b$T$u5d$$GT$$GT$13get_unchecked17h4df4e5a9ce97c36aE
Ltmp320:
	.loc	8 499 6
	addq	$144, %rsp
	popq	%rbp
	retq
LBB43_2:
	.loc	8 0 6 is_stmt 0
	movq	-120(%rbp), %rdx
	movq	-128(%rbp), %rsi
	movq	-144(%rbp), %rdi
	.loc	8 495 13 is_stmt 1
	callq	__ZN4core5slice5index26slice_start_index_len_fail17h9d301bb51ec3e351E
Ltmp321:
Lfunc_end43:
	.cfi_endproc

	.globl	__ZN110_$LT$core..ops..range..RangeFrom$LT$usize$GT$$u20$as$u20$core..slice..index..SliceIndex$LT$$u5b$T$u5d$$GT$$GT$9index_mut17h625e6c39e4311395E
	.p2align	4, 0x90
__ZN110_$LT$core..ops..range..RangeFrom$LT$usize$GT$$u20$as$u20$core..slice..index..SliceIndex$LT$$u5b$T$u5d$$GT$$GT$9index_mut17h625e6c39e4311395E:
Lfunc_begin44:
	.loc	8 502 0
	.cfi_startproc
	pushq	%rbp
	.cfi_def_cfa_offset 16
	.cfi_offset %rbp, -16
	movq	%rsp, %rbp
	.cfi_def_cfa_register %rbp
	subq	$144, %rsp
	movq	%rdi, -144(%rbp)
	movq	%rsi, -136(%rbp)
	movq	%rdx, -128(%rbp)
	movq	%rcx, -120(%rbp)
	movq	%rdi, -80(%rbp)
	movq	%rsi, -72(%rbp)
	movq	%rdx, -64(%rbp)
Ltmp322:
	.loc	8 503 12 prologue_end
	cmpq	%rdx, %rdi
	ja	LBB44_2
	.loc	8 0 12 is_stmt 0
	movq	-128(%rbp), %rcx
	movq	-136(%rbp), %rdx
	movq	-144(%rbp), %rsi
	.loc	8 507 24 is_stmt 1
	movq	%rsi, -56(%rbp)
	.loc	8 507 47 is_stmt 0
	movq	%rdx, -48(%rbp)
	movq	%rcx, -40(%rbp)
Ltmp323:
	.loc	8 489 31 is_stmt 1
	movq	%rdx, -32(%rbp)
	movq	%rcx, -24(%rbp)
Ltmp324:
	.loc	12 1901 18
	movq	%rdx, -16(%rbp)
	movq	%rcx, -8(%rbp)
Ltmp325:
	.loc	11 98 14
	movq	%rdx, -96(%rbp)
	movq	%rcx, -88(%rbp)
	movq	-88(%rbp), %rax
Ltmp326:
	.loc	8 489 18
	movq	%rsi, -112(%rbp)
	movq	%rax, -104(%rbp)
	movq	-112(%rbp), %rdi
	movq	-104(%rbp), %rsi
	callq	__ZN106_$LT$core..ops..range..Range$LT$usize$GT$$u20$as$u20$core..slice..index..SliceIndex$LT$$u5b$T$u5d$$GT$$GT$17get_unchecked_mut17h938608c9cbdbb1f4E
Ltmp327:
	.loc	8 508 6
	addq	$144, %rsp
	popq	%rbp
	retq
LBB44_2:
	.loc	8 0 6 is_stmt 0
	movq	-120(%rbp), %rdx
	movq	-128(%rbp), %rsi
	movq	-144(%rbp), %rdi
	.loc	8 504 13 is_stmt 1
	callq	__ZN4core5slice5index26slice_start_index_len_fail17h9d301bb51ec3e351E
Ltmp328:
Lfunc_end44:
	.cfi_endproc

	.globl	__ZN111_$LT$core..iter..adapters..zip..Zip$LT$A$C$B$GT$$u20$as$u20$core..iter..adapters..zip..ZipImpl$LT$A$C$B$GT$$GT$3new17h408c2fe9d5981482E
	.p2align	4, 0x90
__ZN111_$LT$core..iter..adapters..zip..Zip$LT$A$C$B$GT$$u20$as$u20$core..iter..adapters..zip..ZipImpl$LT$A$C$B$GT$$GT$3new17h408c2fe9d5981482E:
Lfunc_begin45:
	.loc	3 262 0
	.cfi_startproc
	.cfi_personality 155, _rust_eh_personality
	.cfi_lsda 16, Lexception12
	pushq	%rbp
	.cfi_def_cfa_offset 16
	.cfi_offset %rbp, -16
	movq	%rsp, %rbp
	.cfi_def_cfa_register %rbp
	subq	$144, %rsp
	movq	%rdi, -120(%rbp)
	movq	%rdi, -112(%rbp)
	movq	%rsi, -96(%rbp)
	movq	%rdx, -88(%rbp)
	movq	%rcx, -80(%rbp)
	movq	%r8, -72(%rbp)
Ltmp329:
	leaq	-96(%rbp), %rdi
Ltmp336:
	.loc	3 263 21 prologue_end
	callq	__ZN4core4iter8adapters3zip27TrustedRandomAccessNoCoerce4size17h93f8c453ce635239E
Ltmp330:
	movq	%rax, -104(%rbp)
	jmp	LBB45_3
LBB45_1:
	.loc	3 262 5
	movq	-64(%rbp), %rdi
	callq	__Unwind_Resume
LBB45_2:
Ltmp335:
	.loc	3 0 5 is_stmt 0
	movq	%rax, %rcx
	movl	%edx, %eax
	movq	%rcx, -64(%rbp)
	movl	%eax, -56(%rbp)
	jmp	LBB45_1
LBB45_3:
	movq	-104(%rbp), %rax
	.loc	3 263 21 is_stmt 1
	movq	%rax, -48(%rbp)
Ltmp337:
	.loc	3 264 28
	movq	%rax, -40(%rbp)
Ltmp331:
	leaq	-80(%rbp), %rdi
	.loc	3 264 35 is_stmt 0
	callq	__ZN4core4iter8adapters3zip27TrustedRandomAccessNoCoerce4size17he8ac9591aeb0334dE
Ltmp332:
	movq	%rax, -128(%rbp)
	jmp	LBB45_4
LBB45_4:
	.loc	3 0 35
	movq	-128(%rbp), %rsi
	movq	-104(%rbp), %rdi
	.loc	3 264 35
	movq	%rsi, -32(%rbp)
Ltmp338:
	.file	16 "/rustc/2c8cc343237b8f7d5a3c3703e3a87f2eb2c54a74/library/core/src" "cmp.rs"
	.loc	16 1185 5 is_stmt 1
	movq	%rdi, -24(%rbp)
	.loc	16 1185 12 is_stmt 0
	movq	%rsi, -16(%rbp)
Ltmp333:
Ltmp339:
	.loc	16 833 13 is_stmt 1
	callq	__ZN4core3cmp6min_by17h23b429a2bbedd5fbE
Ltmp334:
	movq	%rax, -136(%rbp)
	jmp	LBB45_5
LBB45_5:
	.loc	16 0 13 is_stmt 0
	movq	-112(%rbp), %rax
	movq	-120(%rbp), %rcx
	movq	-104(%rbp), %rdx
	movq	-136(%rbp), %rsi
	.loc	16 833 13
	movq	%rsi, -8(%rbp)
Ltmp340:
	.loc	3 265 15 is_stmt 1
	movq	-96(%rbp), %r10
	movq	-88(%rbp), %r9
	.loc	3 265 18 is_stmt 0
	movq	-80(%rbp), %r8
	movq	-72(%rbp), %rdi
	.loc	3 265 9
	movq	%r10, (%rcx)
	movq	%r9, 8(%rcx)
	movq	%r8, 16(%rcx)
	movq	%rdi, 24(%rcx)
	movq	$0, 32(%rcx)
	movq	%rsi, 40(%rcx)
	movq	%rdx, 48(%rcx)
Ltmp341:
	.loc	3 266 6 is_stmt 1
	addq	$144, %rsp
	popq	%rbp
	retq
Ltmp342:
Lfunc_end45:
	.cfi_endproc
	.section	__TEXT,__gcc_except_tab
	.p2align	2
GCC_except_table45:
Lexception12:
	.byte	255
	.byte	255
	.byte	1
	.uleb128 Lcst_end12-Lcst_begin12
Lcst_begin12:
	.uleb128 Ltmp329-Lfunc_begin45
	.uleb128 Ltmp330-Ltmp329
	.uleb128 Ltmp335-Lfunc_begin45
	.byte	0
	.uleb128 Ltmp330-Lfunc_begin45
	.uleb128 Ltmp331-Ltmp330
	.byte	0
	.byte	0
	.uleb128 Ltmp331-Lfunc_begin45
	.uleb128 Ltmp334-Ltmp331
	.uleb128 Ltmp335-Lfunc_begin45
	.byte	0
Lcst_end12:
	.p2align	2

	.section	__TEXT,__text,regular,pure_instructions
	.globl	__ZN111_$LT$core..iter..adapters..zip..Zip$LT$A$C$B$GT$$u20$as$u20$core..iter..adapters..zip..ZipImpl$LT$A$C$B$GT$$GT$3new17h82117a6f022d3113E
	.p2align	4, 0x90
__ZN111_$LT$core..iter..adapters..zip..Zip$LT$A$C$B$GT$$u20$as$u20$core..iter..adapters..zip..ZipImpl$LT$A$C$B$GT$$GT$3new17h82117a6f022d3113E:
Lfunc_begin46:
	.loc	3 262 0
	.cfi_startproc
	.cfi_personality 155, _rust_eh_personality
	.cfi_lsda 16, Lexception13
	pushq	%rbp
	.cfi_def_cfa_offset 16
	.cfi_offset %rbp, -16
	movq	%rsp, %rbp
	.cfi_def_cfa_register %rbp
	subq	$144, %rsp
	movq	%rdi, -120(%rbp)
	movq	%rdi, -112(%rbp)
	movq	%rsi, -96(%rbp)
	movq	%rdx, -88(%rbp)
	movq	%rcx, -80(%rbp)
	movq	%r8, -72(%rbp)
Ltmp343:
	leaq	-96(%rbp), %rdi
Ltmp350:
	.loc	3 263 21 prologue_end
	callq	__ZN4core4iter8adapters3zip27TrustedRandomAccessNoCoerce4size17h93f8c453ce635239E
Ltmp344:
	movq	%rax, -104(%rbp)
	jmp	LBB46_3
LBB46_1:
	.loc	3 262 5
	movq	-64(%rbp), %rdi
	callq	__Unwind_Resume
LBB46_2:
Ltmp349:
	.loc	3 0 5 is_stmt 0
	movq	%rax, %rcx
	movl	%edx, %eax
	movq	%rcx, -64(%rbp)
	movl	%eax, -56(%rbp)
	jmp	LBB46_1
LBB46_3:
	movq	-104(%rbp), %rax
	.loc	3 263 21 is_stmt 1
	movq	%rax, -48(%rbp)
Ltmp351:
	.loc	3 264 28
	movq	%rax, -40(%rbp)
Ltmp345:
	leaq	-80(%rbp), %rdi
	.loc	3 264 35 is_stmt 0
	callq	__ZN4core4iter8adapters3zip27TrustedRandomAccessNoCoerce4size17h0304570deca6c8adE
Ltmp346:
	movq	%rax, -128(%rbp)
	jmp	LBB46_4
LBB46_4:
	.loc	3 0 35
	movq	-128(%rbp), %rsi
	movq	-104(%rbp), %rdi
	.loc	3 264 35
	movq	%rsi, -32(%rbp)
Ltmp352:
	.loc	16 1185 5 is_stmt 1
	movq	%rdi, -24(%rbp)
	.loc	16 1185 12 is_stmt 0
	movq	%rsi, -16(%rbp)
Ltmp347:
Ltmp353:
	.loc	16 833 13 is_stmt 1
	callq	__ZN4core3cmp6min_by17h23b429a2bbedd5fbE
Ltmp348:
	movq	%rax, -136(%rbp)
	jmp	LBB46_5
LBB46_5:
	.loc	16 0 13 is_stmt 0
	movq	-112(%rbp), %rax
	movq	-120(%rbp), %rcx
	movq	-104(%rbp), %rdx
	movq	-136(%rbp), %rsi
	.loc	16 833 13
	movq	%rsi, -8(%rbp)
Ltmp354:
	.loc	3 265 15 is_stmt 1
	movq	-96(%rbp), %r10
	movq	-88(%rbp), %r9
	.loc	3 265 18 is_stmt 0
	movq	-80(%rbp), %r8
	movq	-72(%rbp), %rdi
	.loc	3 265 9
	movq	%r10, (%rcx)
	movq	%r9, 8(%rcx)
	movq	%r8, 16(%rcx)
	movq	%rdi, 24(%rcx)
	movq	$0, 32(%rcx)
	movq	%rsi, 40(%rcx)
	movq	%rdx, 48(%rcx)
Ltmp355:
	.loc	3 266 6 is_stmt 1
	addq	$144, %rsp
	popq	%rbp
	retq
Ltmp356:
Lfunc_end46:
	.cfi_endproc
	.section	__TEXT,__gcc_except_tab
	.p2align	2
GCC_except_table46:
Lexception13:
	.byte	255
	.byte	255
	.byte	1
	.uleb128 Lcst_end13-Lcst_begin13
Lcst_begin13:
	.uleb128 Ltmp343-Lfunc_begin46
	.uleb128 Ltmp344-Ltmp343
	.uleb128 Ltmp349-Lfunc_begin46
	.byte	0
	.uleb128 Ltmp344-Lfunc_begin46
	.uleb128 Ltmp345-Ltmp344
	.byte	0
	.byte	0
	.uleb128 Ltmp345-Lfunc_begin46
	.uleb128 Ltmp348-Ltmp345
	.uleb128 Ltmp349-Lfunc_begin46
	.byte	0
Lcst_end13:
	.p2align	2

	.section	__TEXT,__text,regular,pure_instructions
	.globl	__ZN111_$LT$core..iter..adapters..zip..Zip$LT$A$C$B$GT$$u20$as$u20$core..iter..adapters..zip..ZipImpl$LT$A$C$B$GT$$GT$3new17hcee9d8e2fd957355E
	.p2align	4, 0x90
__ZN111_$LT$core..iter..adapters..zip..Zip$LT$A$C$B$GT$$u20$as$u20$core..iter..adapters..zip..ZipImpl$LT$A$C$B$GT$$GT$3new17hcee9d8e2fd957355E:
Lfunc_begin47:
	.loc	3 262 0
	.cfi_startproc
	.cfi_personality 155, _rust_eh_personality
	.cfi_lsda 16, Lexception14
	pushq	%rbp
	.cfi_def_cfa_offset 16
	.cfi_offset %rbp, -16
	movq	%rsp, %rbp
	.cfi_def_cfa_register %rbp
	subq	$144, %rsp
	movq	%rdi, -120(%rbp)
	movq	%rdi, -112(%rbp)
	movq	%rsi, -96(%rbp)
	movq	%rdx, -88(%rbp)
	movq	%rcx, -80(%rbp)
	movq	%r8, -72(%rbp)
Ltmp357:
	leaq	-96(%rbp), %rdi
Ltmp364:
	.loc	3 263 21 prologue_end
	callq	__ZN4core4iter8adapters3zip27TrustedRandomAccessNoCoerce4size17he8ac9591aeb0334dE
Ltmp358:
	movq	%rax, -104(%rbp)
	jmp	LBB47_3
LBB47_1:
	.loc	3 262 5
	movq	-64(%rbp), %rdi
	callq	__Unwind_Resume
LBB47_2:
Ltmp363:
	.loc	3 0 5 is_stmt 0
	movq	%rax, %rcx
	movl	%edx, %eax
	movq	%rcx, -64(%rbp)
	movl	%eax, -56(%rbp)
	jmp	LBB47_1
LBB47_3:
	movq	-104(%rbp), %rax
	.loc	3 263 21 is_stmt 1
	movq	%rax, -48(%rbp)
Ltmp365:
	.loc	3 264 28
	movq	%rax, -40(%rbp)
Ltmp359:
	leaq	-80(%rbp), %rdi
	.loc	3 264 35 is_stmt 0
	callq	__ZN4core4iter8adapters3zip27TrustedRandomAccessNoCoerce4size17h93f8c453ce635239E
Ltmp360:
	movq	%rax, -128(%rbp)
	jmp	LBB47_4
LBB47_4:
	.loc	3 0 35
	movq	-128(%rbp), %rsi
	movq	-104(%rbp), %rdi
	.loc	3 264 35
	movq	%rsi, -32(%rbp)
Ltmp366:
	.loc	16 1185 5 is_stmt 1
	movq	%rdi, -24(%rbp)
	.loc	16 1185 12 is_stmt 0
	movq	%rsi, -16(%rbp)
Ltmp361:
Ltmp367:
	.loc	16 833 13 is_stmt 1
	callq	__ZN4core3cmp6min_by17h23b429a2bbedd5fbE
Ltmp362:
	movq	%rax, -136(%rbp)
	jmp	LBB47_5
LBB47_5:
	.loc	16 0 13 is_stmt 0
	movq	-112(%rbp), %rax
	movq	-120(%rbp), %rcx
	movq	-104(%rbp), %rdx
	movq	-136(%rbp), %rsi
	.loc	16 833 13
	movq	%rsi, -8(%rbp)
Ltmp368:
	.loc	3 265 15 is_stmt 1
	movq	-96(%rbp), %r10
	movq	-88(%rbp), %r9
	.loc	3 265 18 is_stmt 0
	movq	-80(%rbp), %r8
	movq	-72(%rbp), %rdi
	.loc	3 265 9
	movq	%r10, (%rcx)
	movq	%r9, 8(%rcx)
	movq	%r8, 16(%rcx)
	movq	%rdi, 24(%rcx)
	movq	$0, 32(%rcx)
	movq	%rsi, 40(%rcx)
	movq	%rdx, 48(%rcx)
Ltmp369:
	.loc	3 266 6 is_stmt 1
	addq	$144, %rsp
	popq	%rbp
	retq
Ltmp370:
Lfunc_end47:
	.cfi_endproc
	.section	__TEXT,__gcc_except_tab
	.p2align	2
GCC_except_table47:
Lexception14:
	.byte	255
	.byte	255
	.byte	1
	.uleb128 Lcst_end14-Lcst_begin14
Lcst_begin14:
	.uleb128 Ltmp357-Lfunc_begin47
	.uleb128 Ltmp358-Ltmp357
	.uleb128 Ltmp363-Lfunc_begin47
	.byte	0
	.uleb128 Ltmp358-Lfunc_begin47
	.uleb128 Ltmp359-Ltmp358
	.byte	0
	.byte	0
	.uleb128 Ltmp359-Lfunc_begin47
	.uleb128 Ltmp362-Ltmp359
	.uleb128 Ltmp363-Lfunc_begin47
	.byte	0
Lcst_end14:
	.p2align	2

	.section	__TEXT,__text,regular,pure_instructions
	.globl	__ZN111_$LT$core..iter..adapters..zip..Zip$LT$A$C$B$GT$$u20$as$u20$core..iter..adapters..zip..ZipImpl$LT$A$C$B$GT$$GT$4next17h7700637e79cc2151E
	.p2align	4, 0x90
__ZN111_$LT$core..iter..adapters..zip..Zip$LT$A$C$B$GT$$u20$as$u20$core..iter..adapters..zip..ZipImpl$LT$A$C$B$GT$$GT$4next17h7700637e79cc2151E:
Lfunc_begin48:
	.loc	3 269 0
	.cfi_startproc
	.cfi_personality 155, _rust_eh_personality
	.cfi_lsda 16, Lexception15
	pushq	%rbp
	.cfi_def_cfa_offset 16
	.cfi_offset %rbp, -16
	movq	%rsp, %rbp
	.cfi_def_cfa_register %rbp
	subq	$112, %rsp
	movq	%rdi, -88(%rbp)
	movq	%rdi, -40(%rbp)
Ltmp374:
	.loc	3 270 12 prologue_end
	movq	32(%rdi), %rax
	cmpq	40(%rdi), %rax
	jb	LBB48_2
	.loc	3 279 19
	xorl	%eax, %eax
	testb	$1, %al
	jne	LBB48_8
	jmp	LBB48_7
LBB48_2:
	.loc	3 0 19 is_stmt 0
	movq	-88(%rbp), %rdi
	.loc	3 271 21 is_stmt 1
	movq	32(%rdi), %rsi
	movq	%rsi, -112(%rbp)
	movq	%rsi, -32(%rbp)
Ltmp375:
	.loc	3 274 13
	movq	32(%rdi), %rax
	incq	%rax
	movq	%rax, 32(%rdi)
	.loc	3 277 23
	callq	__ZN91_$LT$core..slice..iter..Iter$LT$T$GT$$u20$as$u20$core..iter..traits..iterator..Iterator$GT$24__iterator_get_unchecked17h3a31999442702a95E
	movq	-88(%rbp), %rdi
	movq	-112(%rbp), %rsi
	movq	%rax, -104(%rbp)
	.loc	3 277 59 is_stmt 0
	addq	$16, %rdi
Ltmp371:
	callq	__ZN91_$LT$core..slice..iter..Iter$LT$T$GT$$u20$as$u20$core..iter..traits..iterator..Iterator$GT$24__iterator_get_unchecked17h6bf9ab01f73717b3E
Ltmp372:
	movq	%rax, -96(%rbp)
	jmp	LBB48_5
Ltmp376:
LBB48_3:
	.loc	3 269 5 is_stmt 1
	movq	-24(%rbp), %rdi
	callq	__Unwind_Resume
LBB48_4:
Ltmp373:
	.loc	3 0 5 is_stmt 0
	movq	%rax, %rcx
	movl	%edx, %eax
	movq	%rcx, -24(%rbp)
	movl	%eax, -16(%rbp)
	jmp	LBB48_3
LBB48_5:
	movq	-96(%rbp), %rax
	movq	-104(%rbp), %rcx
Ltmp377:
	.loc	3 277 22 is_stmt 1
	movq	%rcx, -64(%rbp)
	movq	%rax, -56(%rbp)
	.loc	3 277 17 is_stmt 0
	movq	-64(%rbp), %rcx
	movq	-56(%rbp), %rax
	movq	%rcx, -80(%rbp)
	movq	%rax, -72(%rbp)
Ltmp378:
LBB48_6:
	.loc	3 293 6 is_stmt 1
	movq	-80(%rbp), %rax
	movq	-72(%rbp), %rdx
	addq	$112, %rsp
	popq	%rbp
	retq
LBB48_7:
	.loc	3 279 19
	movb	$0, -41(%rbp)
	jmp	LBB48_9
LBB48_8:
	.loc	3 0 19 is_stmt 0
	movq	-88(%rbp), %rcx
	.loc	3 279 46
	movq	32(%rcx), %rax
	cmpq	48(%rcx), %rax
	setb	%al
	.loc	3 279 19
	andb	$1, %al
	movb	%al, -41(%rbp)
LBB48_9:
	testb	$1, -41(%rbp)
	jne	LBB48_11
	.loc	3 291 13 is_stmt 1
	movq	$0, -80(%rbp)
	.loc	3 279 16
	jmp	LBB48_12
LBB48_11:
	.loc	3 0 16 is_stmt 0
	movq	-88(%rbp), %rdi
	.loc	3 280 21 is_stmt 1
	movq	32(%rdi), %rsi
	movq	%rsi, -8(%rbp)
Ltmp379:
	.loc	3 282 13
	movq	32(%rdi), %rax
	addq	$1, %rax
	movq	%rax, 32(%rdi)
	.loc	3 283 13
	movq	40(%rdi), %rax
	addq	$1, %rax
	movq	%rax, 40(%rdi)
	.loc	3 287 17
	callq	__ZN91_$LT$core..slice..iter..Iter$LT$T$GT$$u20$as$u20$core..iter..traits..iterator..Iterator$GT$24__iterator_get_unchecked17h3a31999442702a95E
	.loc	3 289 13
	movq	$0, -80(%rbp)
Ltmp380:
LBB48_12:
	.loc	3 270 9
	jmp	LBB48_6
Ltmp381:
Lfunc_end48:
	.cfi_endproc
	.section	__TEXT,__gcc_except_tab
	.p2align	2
GCC_except_table48:
Lexception15:
	.byte	255
	.byte	255
	.byte	1
	.uleb128 Lcst_end15-Lcst_begin15
Lcst_begin15:
	.uleb128 Lfunc_begin48-Lfunc_begin48
	.uleb128 Ltmp371-Lfunc_begin48
	.byte	0
	.byte	0
	.uleb128 Ltmp371-Lfunc_begin48
	.uleb128 Ltmp372-Ltmp371
	.uleb128 Ltmp373-Lfunc_begin48
	.byte	0
	.uleb128 Ltmp372-Lfunc_begin48
	.uleb128 Lfunc_end48-Ltmp372
	.byte	0
	.byte	0
Lcst_end15:
	.p2align	2

	.section	__TEXT,__text,regular,pure_instructions
	.globl	__ZN111_$LT$core..iter..adapters..zip..Zip$LT$A$C$B$GT$$u20$as$u20$core..iter..adapters..zip..ZipImpl$LT$A$C$B$GT$$GT$4next17hc11de10e73b99419E
	.p2align	4, 0x90
__ZN111_$LT$core..iter..adapters..zip..Zip$LT$A$C$B$GT$$u20$as$u20$core..iter..adapters..zip..ZipImpl$LT$A$C$B$GT$$GT$4next17hc11de10e73b99419E:
Lfunc_begin49:
	.loc	3 269 0
	.cfi_startproc
	.cfi_personality 155, _rust_eh_personality
	.cfi_lsda 16, Lexception16
	pushq	%rbp
	.cfi_def_cfa_offset 16
	.cfi_offset %rbp, -16
	movq	%rsp, %rbp
	.cfi_def_cfa_register %rbp
	subq	$112, %rsp
	movq	%rdi, -88(%rbp)
	movq	%rdi, -40(%rbp)
Ltmp385:
	.loc	3 270 12 prologue_end
	movq	32(%rdi), %rax
	cmpq	40(%rdi), %rax
	jb	LBB49_2
	.loc	3 279 19
	xorl	%eax, %eax
	testb	$1, %al
	jne	LBB49_8
	jmp	LBB49_7
LBB49_2:
	.loc	3 0 19 is_stmt 0
	movq	-88(%rbp), %rdi
	.loc	3 271 21 is_stmt 1
	movq	32(%rdi), %rsi
	movq	%rsi, -112(%rbp)
	movq	%rsi, -32(%rbp)
Ltmp386:
	.loc	3 274 13
	movq	32(%rdi), %rax
	incq	%rax
	movq	%rax, 32(%rdi)
	.loc	3 277 23
	callq	__ZN91_$LT$core..slice..iter..Iter$LT$T$GT$$u20$as$u20$core..iter..traits..iterator..Iterator$GT$24__iterator_get_unchecked17h6bf9ab01f73717b3E
	movq	-88(%rbp), %rdi
	movq	-112(%rbp), %rsi
	movq	%rax, -104(%rbp)
	.loc	3 277 59 is_stmt 0
	addq	$16, %rdi
Ltmp382:
	callq	__ZN91_$LT$core..slice..iter..Iter$LT$T$GT$$u20$as$u20$core..iter..traits..iterator..Iterator$GT$24__iterator_get_unchecked17h3a31999442702a95E
Ltmp383:
	movq	%rax, -96(%rbp)
	jmp	LBB49_5
Ltmp387:
LBB49_3:
	.loc	3 269 5 is_stmt 1
	movq	-24(%rbp), %rdi
	callq	__Unwind_Resume
LBB49_4:
Ltmp384:
	.loc	3 0 5 is_stmt 0
	movq	%rax, %rcx
	movl	%edx, %eax
	movq	%rcx, -24(%rbp)
	movl	%eax, -16(%rbp)
	jmp	LBB49_3
LBB49_5:
	movq	-96(%rbp), %rax
	movq	-104(%rbp), %rcx
Ltmp388:
	.loc	3 277 22 is_stmt 1
	movq	%rcx, -64(%rbp)
	movq	%rax, -56(%rbp)
	.loc	3 277 17 is_stmt 0
	movq	-64(%rbp), %rcx
	movq	-56(%rbp), %rax
	movq	%rcx, -80(%rbp)
	movq	%rax, -72(%rbp)
Ltmp389:
LBB49_6:
	.loc	3 293 6 is_stmt 1
	movq	-80(%rbp), %rax
	movq	-72(%rbp), %rdx
	addq	$112, %rsp
	popq	%rbp
	retq
LBB49_7:
	.loc	3 279 19
	movb	$0, -41(%rbp)
	jmp	LBB49_9
LBB49_8:
	.loc	3 0 19 is_stmt 0
	movq	-88(%rbp), %rcx
	.loc	3 279 46
	movq	32(%rcx), %rax
	cmpq	48(%rcx), %rax
	setb	%al
	.loc	3 279 19
	andb	$1, %al
	movb	%al, -41(%rbp)
LBB49_9:
	testb	$1, -41(%rbp)
	jne	LBB49_11
	.loc	3 291 13 is_stmt 1
	movq	$0, -80(%rbp)
	.loc	3 279 16
	jmp	LBB49_12
LBB49_11:
	.loc	3 0 16 is_stmt 0
	movq	-88(%rbp), %rdi
	.loc	3 280 21 is_stmt 1
	movq	32(%rdi), %rsi
	movq	%rsi, -8(%rbp)
Ltmp390:
	.loc	3 282 13
	movq	32(%rdi), %rax
	addq	$1, %rax
	movq	%rax, 32(%rdi)
	.loc	3 283 13
	movq	40(%rdi), %rax
	addq	$1, %rax
	movq	%rax, 40(%rdi)
	.loc	3 287 17
	callq	__ZN91_$LT$core..slice..iter..Iter$LT$T$GT$$u20$as$u20$core..iter..traits..iterator..Iterator$GT$24__iterator_get_unchecked17h6bf9ab01f73717b3E
	.loc	3 289 13
	movq	$0, -80(%rbp)
Ltmp391:
LBB49_12:
	.loc	3 270 9
	jmp	LBB49_6
Ltmp392:
Lfunc_end49:
	.cfi_endproc
	.section	__TEXT,__gcc_except_tab
	.p2align	2
GCC_except_table49:
Lexception16:
	.byte	255
	.byte	255
	.byte	1
	.uleb128 Lcst_end16-Lcst_begin16
Lcst_begin16:
	.uleb128 Lfunc_begin49-Lfunc_begin49
	.uleb128 Ltmp382-Lfunc_begin49
	.byte	0
	.byte	0
	.uleb128 Ltmp382-Lfunc_begin49
	.uleb128 Ltmp383-Ltmp382
	.uleb128 Ltmp384-Lfunc_begin49
	.byte	0
	.uleb128 Ltmp383-Lfunc_begin49
	.uleb128 Lfunc_end49-Ltmp383
	.byte	0
	.byte	0
Lcst_end16:
	.p2align	2

	.section	__TEXT,__text,regular,pure_instructions
	.globl	__ZN111_$LT$core..iter..adapters..zip..Zip$LT$A$C$B$GT$$u20$as$u20$core..iter..adapters..zip..ZipImpl$LT$A$C$B$GT$$GT$4next17he6dbe01ee27c6074E
	.p2align	4, 0x90
__ZN111_$LT$core..iter..adapters..zip..Zip$LT$A$C$B$GT$$u20$as$u20$core..iter..adapters..zip..ZipImpl$LT$A$C$B$GT$$GT$4next17he6dbe01ee27c6074E:
Lfunc_begin50:
	.loc	3 269 0
	.cfi_startproc
	.cfi_personality 155, _rust_eh_personality
	.cfi_lsda 16, Lexception17
	pushq	%rbp
	.cfi_def_cfa_offset 16
	.cfi_offset %rbp, -16
	movq	%rsp, %rbp
	.cfi_def_cfa_register %rbp
	subq	$112, %rsp
	movq	%rdi, -88(%rbp)
	movq	%rdi, -40(%rbp)
Ltmp396:
	.loc	3 270 12 prologue_end
	movq	32(%rdi), %rax
	cmpq	40(%rdi), %rax
	jb	LBB50_2
	.loc	3 279 19
	xorl	%eax, %eax
	testb	$1, %al
	jne	LBB50_8
	jmp	LBB50_7
LBB50_2:
	.loc	3 0 19 is_stmt 0
	movq	-88(%rbp), %rdi
	.loc	3 271 21 is_stmt 1
	movq	32(%rdi), %rsi
	movq	%rsi, -112(%rbp)
	movq	%rsi, -32(%rbp)
Ltmp397:
	.loc	3 274 13
	movq	32(%rdi), %rax
	incq	%rax
	movq	%rax, 32(%rdi)
	.loc	3 277 23
	callq	__ZN91_$LT$core..slice..iter..Iter$LT$T$GT$$u20$as$u20$core..iter..traits..iterator..Iterator$GT$24__iterator_get_unchecked17h6bf9ab01f73717b3E
	movq	-88(%rbp), %rdi
	movq	-112(%rbp), %rsi
	movq	%rax, -104(%rbp)
	.loc	3 277 59 is_stmt 0
	addq	$16, %rdi
Ltmp393:
	callq	__ZN94_$LT$core..slice..iter..IterMut$LT$T$GT$$u20$as$u20$core..iter..traits..iterator..Iterator$GT$24__iterator_get_unchecked17h9c8bf438957d2eafE
Ltmp394:
	movq	%rax, -96(%rbp)
	jmp	LBB50_5
Ltmp398:
LBB50_3:
	.loc	3 269 5 is_stmt 1
	movq	-24(%rbp), %rdi
	callq	__Unwind_Resume
LBB50_4:
Ltmp395:
	.loc	3 0 5 is_stmt 0
	movq	%rax, %rcx
	movl	%edx, %eax
	movq	%rcx, -24(%rbp)
	movl	%eax, -16(%rbp)
	jmp	LBB50_3
LBB50_5:
	movq	-96(%rbp), %rax
	movq	-104(%rbp), %rcx
Ltmp399:
	.loc	3 277 22 is_stmt 1
	movq	%rcx, -64(%rbp)
	movq	%rax, -56(%rbp)
	.loc	3 277 17 is_stmt 0
	movq	-64(%rbp), %rcx
	movq	-56(%rbp), %rax
	movq	%rcx, -80(%rbp)
	movq	%rax, -72(%rbp)
Ltmp400:
LBB50_6:
	.loc	3 293 6 is_stmt 1
	movq	-80(%rbp), %rax
	movq	-72(%rbp), %rdx
	addq	$112, %rsp
	popq	%rbp
	retq
LBB50_7:
	.loc	3 279 19
	movb	$0, -41(%rbp)
	jmp	LBB50_9
LBB50_8:
	.loc	3 0 19 is_stmt 0
	movq	-88(%rbp), %rcx
	.loc	3 279 46
	movq	32(%rcx), %rax
	cmpq	48(%rcx), %rax
	setb	%al
	.loc	3 279 19
	andb	$1, %al
	movb	%al, -41(%rbp)
LBB50_9:
	testb	$1, -41(%rbp)
	jne	LBB50_11
	.loc	3 291 13 is_stmt 1
	movq	$0, -80(%rbp)
	.loc	3 279 16
	jmp	LBB50_12
LBB50_11:
	.loc	3 0 16 is_stmt 0
	movq	-88(%rbp), %rdi
	.loc	3 280 21 is_stmt 1
	movq	32(%rdi), %rsi
	movq	%rsi, -8(%rbp)
Ltmp401:
	.loc	3 282 13
	movq	32(%rdi), %rax
	addq	$1, %rax
	movq	%rax, 32(%rdi)
	.loc	3 283 13
	movq	40(%rdi), %rax
	addq	$1, %rax
	movq	%rax, 40(%rdi)
	.loc	3 287 17
	callq	__ZN91_$LT$core..slice..iter..Iter$LT$T$GT$$u20$as$u20$core..iter..traits..iterator..Iterator$GT$24__iterator_get_unchecked17h6bf9ab01f73717b3E
	.loc	3 289 13
	movq	$0, -80(%rbp)
Ltmp402:
LBB50_12:
	.loc	3 270 9
	jmp	LBB50_6
Ltmp403:
Lfunc_end50:
	.cfi_endproc
	.section	__TEXT,__gcc_except_tab
	.p2align	2
GCC_except_table50:
Lexception17:
	.byte	255
	.byte	255
	.byte	1
	.uleb128 Lcst_end17-Lcst_begin17
Lcst_begin17:
	.uleb128 Lfunc_begin50-Lfunc_begin50
	.uleb128 Ltmp393-Lfunc_begin50
	.byte	0
	.byte	0
	.uleb128 Ltmp393-Lfunc_begin50
	.uleb128 Ltmp394-Ltmp393
	.uleb128 Ltmp395-Lfunc_begin50
	.byte	0
	.uleb128 Ltmp394-Lfunc_begin50
	.uleb128 Lfunc_end50-Ltmp394
	.byte	0
	.byte	0
Lcst_end17:
	.p2align	2

	.section	__TEXT,__text,regular,pure_instructions
	.globl	__ZN112_$LT$core..iter..sources..repeat_with..RepeatWith$LT$F$GT$$u20$as$u20$core..iter..traits..iterator..Iterator$GT$8try_fold17h104153bac59e4bfbE
	.p2align	4, 0x90
__ZN112_$LT$core..iter..sources..repeat_with..RepeatWith$LT$F$GT$$u20$as$u20$core..iter..traits..iterator..Iterator$GT$8try_fold17h104153bac59e4bfbE:
Lfunc_begin51:
	.file	17 "/rustc/2c8cc343237b8f7d5a3c3703e3a87f2eb2c54a74/library/core/src/iter/sources" "repeat_with.rs"
	.loc	17 103 0
	.cfi_startproc
	.cfi_personality 155, _rust_eh_personality
	.cfi_lsda 16, Lexception18
	pushq	%rbp
	.cfi_def_cfa_offset 16
	.cfi_offset %rbp, -16
	movq	%rsp, %rbp
	.cfi_def_cfa_register %rbp
	subq	$80, %rsp
	movq	%rdi, -72(%rbp)
	movq	%rsi, -64(%rbp)
Ltmp413:
	movq	%rdi, -48(%rbp)
Ltmp414:
	.loc	17 112 9 prologue_end
	movb	$1, -49(%rbp)
Ltmp415:
LBB51_1:
Ltmp404:
	.loc	17 0 9 is_stmt 0
	movq	-72(%rbp), %rdi
	.loc	17 113 24 is_stmt 1
	callq	__ZN5weezl6encode7IntoVec11encode_part28_$u7b$$u7b$closure$u7d$$u7d$17hc3e9773f7e310cbeE
Ltmp405:
	movb	%al, -73(%rbp)
	jmp	LBB51_4
Ltmp416:
LBB51_2:
	.loc	17 116 5
	jmp	LBB51_10
Ltmp417:
LBB51_3:
Ltmp412:
	.loc	17 0 5 is_stmt 0
	movq	%rax, %rcx
	movl	%edx, %eax
	movq	%rcx, -24(%rbp)
	movl	%eax, -16(%rbp)
	jmp	LBB51_2
Ltmp418:
LBB51_4:
	movq	-64(%rbp), %rdi
	movb	-73(%rbp), %al
	.loc	17 113 24 is_stmt 1
	movb	%al, -2(%rbp)
Ltmp419:
	.loc	17 114 25
	movb	$0, -49(%rbp)
	.loc	17 114 20 is_stmt 0
	movb	%al, -50(%rbp)
	movzbl	-50(%rbp), %esi
Ltmp406:
	callq	__ZN109_$LT$core..iter..adapters..scan..Scan$LT$I$C$St$C$F$GT$$u20$as$u20$core..iter..traits..iterator..Iterator$GT$8try_fold4scan28_$u7b$$u7b$closure$u7d$$u7d$17hf430d3759be36e4fE
Ltmp407:
	movb	%al, -74(%rbp)
	jmp	LBB51_5
Ltmp420:
LBB51_5:
Ltmp408:
	.loc	17 0 20
	movb	-74(%rbp), %al
	.loc	17 114 20
	movzbl	%al, %edi
	callq	__ZN95_$LT$core..ops..control_flow..ControlFlow$LT$B$C$C$GT$$u20$as$u20$core..ops..try_trait..Try$GT$6branch17hf90e8b813b881dd8E
Ltmp409:
	movb	%al, -75(%rbp)
	jmp	LBB51_6
Ltmp421:
LBB51_6:
	.loc	17 0 20
	movb	-75(%rbp), %al
	.loc	17 114 20
	movb	%al, -51(%rbp)
	movl	$1, %eax
	xorl	%ecx, %ecx
	cmpb	$2, -51(%rbp)
	cmoveq	%rcx, %rax
	cmpq	$0, %rax
	jne	LBB51_8
Ltmp422:
	.loc	17 114 13
	movb	$1, -49(%rbp)
Ltmp423:
	.loc	17 112 9 is_stmt 1
	jmp	LBB51_1
Ltmp424:
LBB51_8:
	.loc	17 114 36
	movzbl	-51(%rbp), %edi
	movb	%dil, %al
	andb	$1, %al
	movb	%al, -1(%rbp)
Ltmp410:
Ltmp425:
	.loc	17 114 20 is_stmt 0
	callq	__ZN104_$LT$core..ops..control_flow..ControlFlow$LT$B$C$C$GT$$u20$as$u20$core..ops..try_trait..FromResidual$GT$13from_residual17hfef0525ed415a36fE
Ltmp411:
	movb	%al, -76(%rbp)
	jmp	LBB51_9
Ltmp426:
LBB51_9:
	.loc	17 116 5 is_stmt 1
	jmp	LBB51_11
Ltmp427:
LBB51_10:
	testb	$1, -49(%rbp)
	jne	LBB51_13
	jmp	LBB51_12
Ltmp428:
LBB51_11:
	.loc	17 0 5 is_stmt 0
	movb	-76(%rbp), %al
	.loc	17 116 6
	addq	$80, %rsp
	popq	%rbp
	retq
Ltmp429:
LBB51_12:
	.loc	17 103 5 is_stmt 1
	movq	-24(%rbp), %rdi
	callq	__Unwind_Resume
Ltmp430:
LBB51_13:
	.loc	17 116 5
	jmp	LBB51_12
Ltmp431:
Lfunc_end51:
	.cfi_endproc
	.section	__TEXT,__gcc_except_tab
	.p2align	2
GCC_except_table51:
Lexception18:
	.byte	255
	.byte	255
	.byte	1
	.uleb128 Lcst_end18-Lcst_begin18
Lcst_begin18:
	.uleb128 Ltmp404-Lfunc_begin51
	.uleb128 Ltmp411-Ltmp404
	.uleb128 Ltmp412-Lfunc_begin51
	.byte	0
	.uleb128 Ltmp411-Lfunc_begin51
	.uleb128 Lfunc_end51-Ltmp411
	.byte	0
	.byte	0
Lcst_end18:
	.p2align	2

	.section	__TEXT,__text,regular,pure_instructions
	.globl	__ZN112_$LT$core..iter..sources..repeat_with..RepeatWith$LT$F$GT$$u20$as$u20$core..iter..traits..iterator..Iterator$GT$8try_fold17hcc991ea98cf0ad14E
	.p2align	4, 0x90
__ZN112_$LT$core..iter..sources..repeat_with..RepeatWith$LT$F$GT$$u20$as$u20$core..iter..traits..iterator..Iterator$GT$8try_fold17hcc991ea98cf0ad14E:
Lfunc_begin52:
	.loc	17 103 0
	.cfi_startproc
	.cfi_personality 155, _rust_eh_personality
	.cfi_lsda 16, Lexception19
	pushq	%rbp
	.cfi_def_cfa_offset 16
	.cfi_offset %rbp, -16
	movq	%rsp, %rbp
	.cfi_def_cfa_register %rbp
	subq	$80, %rsp
	movq	%rdi, -72(%rbp)
	movq	%rsi, -64(%rbp)
Ltmp441:
	movq	%rdi, -48(%rbp)
Ltmp442:
	.loc	17 112 9 prologue_end
	movb	$1, -49(%rbp)
Ltmp443:
LBB52_1:
Ltmp432:
	.loc	17 0 9 is_stmt 0
	movq	-72(%rbp), %rdi
	.loc	17 113 24 is_stmt 1
	callq	__ZN5weezl6decode7IntoVec11decode_part28_$u7b$$u7b$closure$u7d$$u7d$17h14256b7f415d9133E
Ltmp433:
	movb	%al, -73(%rbp)
	jmp	LBB52_4
Ltmp444:
LBB52_2:
	.loc	17 116 5
	jmp	LBB52_10
Ltmp445:
LBB52_3:
Ltmp440:
	.loc	17 0 5 is_stmt 0
	movq	%rax, %rcx
	movl	%edx, %eax
	movq	%rcx, -24(%rbp)
	movl	%eax, -16(%rbp)
	jmp	LBB52_2
Ltmp446:
LBB52_4:
	movq	-64(%rbp), %rdi
	movb	-73(%rbp), %al
	.loc	17 113 24 is_stmt 1
	movb	%al, -2(%rbp)
Ltmp447:
	.loc	17 114 25
	movb	$0, -49(%rbp)
	.loc	17 114 20 is_stmt 0
	movb	%al, -50(%rbp)
	movzbl	-50(%rbp), %esi
Ltmp434:
	callq	__ZN109_$LT$core..iter..adapters..scan..Scan$LT$I$C$St$C$F$GT$$u20$as$u20$core..iter..traits..iterator..Iterator$GT$8try_fold4scan28_$u7b$$u7b$closure$u7d$$u7d$17hfb6660fb67e41a34E
Ltmp435:
	movb	%al, -74(%rbp)
	jmp	LBB52_5
Ltmp448:
LBB52_5:
Ltmp436:
	.loc	17 0 20
	movb	-74(%rbp), %al
	.loc	17 114 20
	movzbl	%al, %edi
	callq	__ZN95_$LT$core..ops..control_flow..ControlFlow$LT$B$C$C$GT$$u20$as$u20$core..ops..try_trait..Try$GT$6branch17hf90e8b813b881dd8E
Ltmp437:
	movb	%al, -75(%rbp)
	jmp	LBB52_6
Ltmp449:
LBB52_6:
	.loc	17 0 20
	movb	-75(%rbp), %al
	.loc	17 114 20
	movb	%al, -51(%rbp)
	movl	$1, %eax
	xorl	%ecx, %ecx
	cmpb	$2, -51(%rbp)
	cmoveq	%rcx, %rax
	cmpq	$0, %rax
	jne	LBB52_8
Ltmp450:
	.loc	17 114 13
	movb	$1, -49(%rbp)
Ltmp451:
	.loc	17 112 9 is_stmt 1
	jmp	LBB52_1
Ltmp452:
LBB52_8:
	.loc	17 114 36
	movzbl	-51(%rbp), %edi
	movb	%dil, %al
	andb	$1, %al
	movb	%al, -1(%rbp)
Ltmp438:
Ltmp453:
	.loc	17 114 20 is_stmt 0
	callq	__ZN104_$LT$core..ops..control_flow..ControlFlow$LT$B$C$C$GT$$u20$as$u20$core..ops..try_trait..FromResidual$GT$13from_residual17hfef0525ed415a36fE
Ltmp439:
	movb	%al, -76(%rbp)
	jmp	LBB52_9
Ltmp454:
LBB52_9:
	.loc	17 116 5 is_stmt 1
	jmp	LBB52_11
Ltmp455:
LBB52_10:
	testb	$1, -49(%rbp)
	jne	LBB52_13
	jmp	LBB52_12
Ltmp456:
LBB52_11:
	.loc	17 0 5 is_stmt 0
	movb	-76(%rbp), %al
	.loc	17 116 6
	addq	$80, %rsp
	popq	%rbp
	retq
Ltmp457:
LBB52_12:
	.loc	17 103 5 is_stmt 1
	movq	-24(%rbp), %rdi
	callq	__Unwind_Resume
Ltmp458:
LBB52_13:
	.loc	17 116 5
	jmp	LBB52_12
Ltmp459:
Lfunc_end52:
	.cfi_endproc
	.section	__TEXT,__gcc_except_tab
	.p2align	2
GCC_except_table52:
Lexception19:
	.byte	255
	.byte	255
	.byte	1
	.uleb128 Lcst_end19-Lcst_begin19
Lcst_begin19:
	.uleb128 Ltmp432-Lfunc_begin52
	.uleb128 Ltmp439-Ltmp432
	.uleb128 Ltmp440-Lfunc_begin52
	.byte	0
	.uleb128 Ltmp439-Lfunc_begin52
	.uleb128 Lfunc_end52-Ltmp439
	.byte	0
	.byte	0
Lcst_end19:
	.p2align	2

	.section	__TEXT,__text,regular,pure_instructions
	.globl	__ZN115_$LT$core..ops..range..RangeInclusive$LT$usize$GT$$u20$as$u20$core..slice..index..SliceIndex$LT$$u5b$T$u5d$$GT$$GT$5index17hfcddfb5fdcef9cc8E
	.p2align	4, 0x90
__ZN115_$LT$core..ops..range..RangeInclusive$LT$usize$GT$$u20$as$u20$core..slice..index..SliceIndex$LT$$u5b$T$u5d$$GT$$GT$5index17hfcddfb5fdcef9cc8E:
Lfunc_begin53:
	.loc	8 575 0
	.cfi_startproc
	pushq	%rbp
	.cfi_def_cfa_offset 16
	.cfi_offset %rbp, -16
	movq	%rsp, %rbp
	.cfi_def_cfa_register %rbp
	subq	$128, %rsp
	movq	%rdi, -112(%rbp)
Ltmp460:
	movq	%rsi, -104(%rbp)
	movq	%rdx, -96(%rbp)
	movq	%rcx, -88(%rbp)
Ltmp461:
	movq	%rsi, -32(%rbp)
	movq	%rdx, -24(%rbp)
Ltmp462:
	.loc	8 576 13 prologue_end
	movq	%rdi, -16(%rbp)
	.loc	8 576 12 is_stmt 0
	cmpq	$-1, 8(%rdi)
Ltmp463:
	je	LBB53_2
Ltmp464:
	.loc	8 0 12
	movq	-112(%rbp), %rax
	.loc	8 579 9 is_stmt 1
	movq	(%rax), %rcx
	movq	%rcx, -64(%rbp)
	movq	8(%rax), %rcx
	movq	%rcx, -56(%rbp)
	movq	16(%rax), %rax
	movq	%rax, -48(%rbp)
Ltmp465:
	.file	18 "/rustc/2c8cc343237b8f7d5a3c3703e3a87f2eb2c54a74/library/core/src/ops" "range.rs"
	.loc	18 453 29
	movq	-56(%rbp), %rax
	addq	$1, %rax
	movq	%rax, -120(%rbp)
	movq	%rax, -8(%rbp)
Ltmp466:
	.loc	18 454 24
	testb	$1, -48(%rbp)
	jne	LBB53_4
	jmp	LBB53_3
Ltmp467:
LBB53_2:
	.loc	18 0 24 is_stmt 0
	movq	-88(%rbp), %rdi
	.loc	8 577 13 is_stmt 1
	callq	__ZN4core5slice5index29slice_end_index_overflow_fail17h1d13ef50abb383daE
Ltmp468:
LBB53_3:
	.loc	18 454 64
	movq	-64(%rbp), %rax
	movq	%rax, -40(%rbp)
	.loc	18 454 21 is_stmt 0
	jmp	LBB53_5
Ltmp469:
LBB53_4:
	.loc	18 0 21
	movq	-120(%rbp), %rax
	.loc	18 454 41
	movq	%rax, -40(%rbp)
Ltmp470:
LBB53_5:
	.loc	18 0 41
	movq	-88(%rbp), %r8
	movq	-96(%rbp), %rcx
	movq	-104(%rbp), %rdx
	movq	-120(%rbp), %rax
Ltmp471:
	.loc	18 455 9 is_stmt 1
	movq	-40(%rbp), %rsi
	movq	%rsi, -80(%rbp)
	movq	%rax, -72(%rbp)
Ltmp472:
	.loc	8 579 9
	movq	-80(%rbp), %rdi
	movq	-72(%rbp), %rsi
	callq	__ZN106_$LT$core..ops..range..Range$LT$usize$GT$$u20$as$u20$core..slice..index..SliceIndex$LT$$u5b$T$u5d$$GT$$GT$5index17h03c4ef7a7f862c2bE
	.loc	8 580 6
	addq	$128, %rsp
	popq	%rbp
	retq
Ltmp473:
Lfunc_end53:
	.cfi_endproc

	.globl	__ZN117_$LT$core..ops..range..RangeToInclusive$LT$usize$GT$$u20$as$u20$core..slice..index..SliceIndex$LT$$u5b$T$u5d$$GT$$GT$5index17h120ad64a1de58f18E
	.p2align	4, 0x90
__ZN117_$LT$core..ops..range..RangeToInclusive$LT$usize$GT$$u20$as$u20$core..slice..index..SliceIndex$LT$$u5b$T$u5d$$GT$$GT$5index17h120ad64a1de58f18E:
Lfunc_begin54:
	.loc	8 619 0
	.cfi_startproc
	pushq	%rbp
	.cfi_def_cfa_offset 16
	.cfi_offset %rbp, -16
	movq	%rsp, %rbp
	.cfi_def_cfa_register %rbp
	subq	$64, %rsp
	movq	%rdi, -32(%rbp)
	movq	%rsi, -24(%rbp)
	movq	%rdx, -16(%rbp)
Ltmp474:
	.loc	8 620 14 prologue_end
	movq	%rdi, -8(%rbp)
Ltmp475:
	.loc	18 375 9
	movq	$0, -56(%rbp)
	movq	%rdi, -48(%rbp)
	movb	$0, -40(%rbp)
	leaq	-56(%rbp), %rdi
Ltmp476:
	.loc	8 620 9
	callq	__ZN115_$LT$core..ops..range..RangeInclusive$LT$usize$GT$$u20$as$u20$core..slice..index..SliceIndex$LT$$u5b$T$u5d$$GT$$GT$5index17hfcddfb5fdcef9cc8E
	.loc	8 621 6
	addq	$64, %rsp
	popq	%rbp
	retq
Ltmp477:
Lfunc_end54:
	.cfi_endproc

	.globl	__ZN119_$LT$core..ptr..non_null..NonNull$LT$T$GT$$u20$as$u20$core..convert..From$LT$core..ptr..unique..Unique$LT$T$GT$$GT$$GT$4from17h663746ce4f01f97eE
	.p2align	4, 0x90
__ZN119_$LT$core..ptr..non_null..NonNull$LT$T$GT$$u20$as$u20$core..convert..From$LT$core..ptr..unique..Unique$LT$T$GT$$GT$$GT$4from17h663746ce4f01f97eE:
Lfunc_begin55:
	.loc	15 765 0
	.cfi_startproc
	pushq	%rbp
	.cfi_def_cfa_offset 16
	.cfi_offset %rbp, -16
	movq	%rsp, %rbp
	.cfi_def_cfa_register %rbp
	subq	$40, %rsp
	movq	%rdi, -32(%rbp)
Ltmp478:
	.loc	15 768 41 prologue_end
	movq	%rdi, -24(%rbp)
Ltmp479:
	.file	19 "/rustc/2c8cc343237b8f7d5a3c3703e3a87f2eb2c54a74/library/core/src/ptr" "unique.rs"
	.loc	19 104 9
	movq	%rdi, -16(%rbp)
Ltmp480:
	.loc	15 326 9
	movq	%rdi, -8(%rbp)
Ltmp481:
	.loc	15 201 13
	movq	%rdi, -40(%rbp)
Ltmp482:
	.loc	15 769 6
	movq	-40(%rbp), %rax
	addq	$40, %rsp
	popq	%rbp
	retq
Ltmp483:
Lfunc_end55:
	.cfi_endproc

	.p2align	4, 0x90
__ZN122_$LT$alloc..collections..TryReserveError$u20$as$u20$core..convert..From$LT$alloc..collections..TryReserveErrorKind$GT$$GT$4from17h56c3632912587a78E:
Lfunc_begin56:
	.file	20 "/rustc/2c8cc343237b8f7d5a3c3703e3a87f2eb2c54a74/library/alloc/src/collections" "mod.rs"
	.loc	20 116 0
	.cfi_startproc
	pushq	%rbp
	.cfi_def_cfa_offset 16
	.cfi_offset %rbp, -16
	movq	%rsp, %rbp
	.cfi_def_cfa_register %rbp
	subq	$32, %rsp
	movq	%rdi, -16(%rbp)
	movq	%rsi, -8(%rbp)
Ltmp484:
	.loc	20 117 9 prologue_end
	movq	%rdi, -32(%rbp)
	movq	%rsi, -24(%rbp)
	.loc	20 118 6
	movq	-32(%rbp), %rax
	movq	-24(%rbp), %rdx
	addq	$32, %rsp
	popq	%rbp
	retq
Ltmp485:
Lfunc_end56:
	.cfi_endproc

	.globl	__ZN136_$LT$core..result..Result$LT$V$C$E$GT$$u20$as$u20$core..iter..traits..collect..FromIterator$LT$core..result..Result$LT$A$C$E$GT$$GT$$GT$9from_iter17h334ea940f5b1a10dE
	.p2align	4, 0x90
__ZN136_$LT$core..result..Result$LT$V$C$E$GT$$u20$as$u20$core..iter..traits..collect..FromIterator$LT$core..result..Result$LT$A$C$E$GT$$GT$$GT$9from_iter17h334ea940f5b1a10dE:
Lfunc_begin57:
	.file	21 "/rustc/2c8cc343237b8f7d5a3c3703e3a87f2eb2c54a74/library/core/src" "result.rs"
	.loc	21 2073 0
	.cfi_startproc
	pushq	%rbp
	.cfi_def_cfa_offset 16
	.cfi_offset %rbp, -16
	movq	%rsp, %rbp
	.cfi_def_cfa_register %rbp
	subq	$96, %rsp
	movq	%rdi, %rsi
Ltmp486:
	.loc	21 2074 27 prologue_end
	leaq	-48(%rbp), %rdi
	movl	$48, %edx
	callq	_memcpy
Ltmp487:
	leaq	-96(%rbp), %rdi
	leaq	-48(%rbp), %rsi
	callq	__ZN63_$LT$I$u20$as$u20$core..iter..traits..collect..IntoIterator$GT$9into_iter17hea9d77669386f7c8E
	.loc	21 2074 9 is_stmt 0
	leaq	-96(%rbp), %rdi
	callq	__ZN4core4iter8adapters11try_process17h3131bfeba940b1bfE
	.loc	21 2075 6 is_stmt 1
	andb	$1, %al
	movzbl	%al, %eax
	addq	$96, %rsp
	popq	%rbp
	retq
Ltmp488:
Lfunc_end57:
	.cfi_endproc

	.globl	__ZN136_$LT$core..result..Result$LT$V$C$E$GT$$u20$as$u20$core..iter..traits..collect..FromIterator$LT$core..result..Result$LT$A$C$E$GT$$GT$$GT$9from_iter17h409e1529c569401aE
	.p2align	4, 0x90
__ZN136_$LT$core..result..Result$LT$V$C$E$GT$$u20$as$u20$core..iter..traits..collect..FromIterator$LT$core..result..Result$LT$A$C$E$GT$$GT$$GT$9from_iter17h409e1529c569401aE:
Lfunc_begin58:
	.loc	21 2073 0
	.cfi_startproc
	pushq	%rbp
	.cfi_def_cfa_offset 16
	.cfi_offset %rbp, -16
	movq	%rsp, %rbp
	.cfi_def_cfa_register %rbp
	subq	$96, %rsp
	movq	%rdi, %rsi
Ltmp489:
	.loc	21 2074 27 prologue_end
	leaq	-48(%rbp), %rdi
	movl	$48, %edx
	callq	_memcpy
Ltmp490:
	leaq	-96(%rbp), %rdi
	leaq	-48(%rbp), %rsi
	callq	__ZN63_$LT$I$u20$as$u20$core..iter..traits..collect..IntoIterator$GT$9into_iter17h4418f78e64a4b024E
	.loc	21 2074 9 is_stmt 0
	leaq	-96(%rbp), %rdi
	callq	__ZN4core4iter8adapters11try_process17h05dc373951330aabE
	.loc	21 2075 6 is_stmt 1
	andb	$1, %al
	movzbl	%al, %eax
	addq	$96, %rsp
	popq	%rbp
	retq
Ltmp491:
Lfunc_end58:
	.cfi_endproc

	.globl	__ZN136_$LT$core..result..Result$LT$V$C$E$GT$$u20$as$u20$core..iter..traits..collect..FromIterator$LT$core..result..Result$LT$A$C$E$GT$$GT$$GT$9from_iter28_$u7b$$u7b$closure$u7d$$u7d$17h911ce47411606677E
	.p2align	4, 0x90
__ZN136_$LT$core..result..Result$LT$V$C$E$GT$$u20$as$u20$core..iter..traits..collect..FromIterator$LT$core..result..Result$LT$A$C$E$GT$$GT$$GT$9from_iter28_$u7b$$u7b$closure$u7d$$u7d$17h911ce47411606677E:
Lfunc_begin59:
	.loc	21 2074 0
	.cfi_startproc
	pushq	%rbp
	.cfi_def_cfa_offset 16
	.cfi_offset %rbp, -16
	movq	%rsp, %rbp
	.cfi_def_cfa_register %rbp
	subq	$128, %rsp
	movq	%rdi, -8(%rbp)
Ltmp492:
	.loc	21 2074 49 prologue_end
	leaq	-120(%rbp), %rdi
	movl	$56, %edx
	callq	_memcpy
Ltmp493:
	.file	22 "/rustc/2c8cc343237b8f7d5a3c3703e3a87f2eb2c54a74/library/core/src/iter/traits" "iterator.rs"
	.loc	22 1860 33
	leaq	-64(%rbp), %rdi
	leaq	-120(%rbp), %rsi
	movl	$56, %edx
	callq	_memcpy
	.loc	22 1860 9 is_stmt 0
	leaq	-64(%rbp), %rdi
	callq	__ZN4core4unit96_$LT$impl$u20$core..iter..traits..collect..FromIterator$LT$$LP$$RP$$GT$$u20$for$u20$$LP$$RP$$GT$9from_iter17hc5f2c018e2fc3284E
Ltmp494:
	.loc	21 2074 60 is_stmt 1
	addq	$128, %rsp
	popq	%rbp
	retq
Ltmp495:
Lfunc_end59:
	.cfi_endproc

	.globl	__ZN136_$LT$core..result..Result$LT$V$C$E$GT$$u20$as$u20$core..iter..traits..collect..FromIterator$LT$core..result..Result$LT$A$C$E$GT$$GT$$GT$9from_iter28_$u7b$$u7b$closure$u7d$$u7d$17hda81f3f8d314c146E
	.p2align	4, 0x90
__ZN136_$LT$core..result..Result$LT$V$C$E$GT$$u20$as$u20$core..iter..traits..collect..FromIterator$LT$core..result..Result$LT$A$C$E$GT$$GT$$GT$9from_iter28_$u7b$$u7b$closure$u7d$$u7d$17hda81f3f8d314c146E:
Lfunc_begin60:
	.loc	21 2074 0
	.cfi_startproc
	pushq	%rbp
	.cfi_def_cfa_offset 16
	.cfi_offset %rbp, -16
	movq	%rsp, %rbp
	.cfi_def_cfa_register %rbp
	subq	$128, %rsp
	movq	%rdi, -8(%rbp)
Ltmp496:
	.loc	21 2074 49 prologue_end
	leaq	-120(%rbp), %rdi
	movl	$56, %edx
	callq	_memcpy
Ltmp497:
	.loc	22 1860 33
	leaq	-64(%rbp), %rdi
	leaq	-120(%rbp), %rsi
	movl	$56, %edx
	callq	_memcpy
	.loc	22 1860 9 is_stmt 0
	leaq	-64(%rbp), %rdi
	callq	__ZN4core4unit96_$LT$impl$u20$core..iter..traits..collect..FromIterator$LT$$LP$$RP$$GT$$u20$for$u20$$LP$$RP$$GT$9from_iter17h32eaf18773006acdE
Ltmp498:
	.loc	21 2074 60 is_stmt 1
	addq	$128, %rsp
	popq	%rbp
	retq
Ltmp499:
Lfunc_end60:
	.cfi_endproc

	.globl	__ZN141_$LT$core..const_closure..ConstFnMutClosure$LT$$RF$mut$u20$A$C$Function$GT$$u20$as$u20$core..ops..function..FnMut$LT$ClosureArguments$GT$$GT$8call_mut17h05ec4b5e832fb32aE
	.p2align	4, 0x90
__ZN141_$LT$core..const_closure..ConstFnMutClosure$LT$$RF$mut$u20$A$C$Function$GT$$u20$as$u20$core..ops..function..FnMut$LT$ClosureArguments$GT$$GT$8call_mut17h05ec4b5e832fb32aE:
Lfunc_begin61:
	.file	23 "/rustc/2c8cc343237b8f7d5a3c3703e3a87f2eb2c54a74/library/core/src" "const_closure.rs"
	.loc	23 66 0
	.cfi_startproc
	pushq	%rbp
	.cfi_def_cfa_offset 16
	.cfi_offset %rbp, -16
	movq	%rsp, %rbp
	.cfi_def_cfa_register %rbp
	subq	$32, %rsp
	movq	%rdi, -16(%rbp)
Ltmp500:
	.loc	23 68 35 prologue_end
	movq	%rdi, -8(%rbp)
Ltmp501:
	.loc	23 69 29
	movq	(%rdi), %rax
	.loc	23 69 17 is_stmt 0
	movq	%rax, -24(%rbp)
	movq	-24(%rbp), %rsi
	callq	__ZN4core3ops8function2Fn4call17hcbd36ebf90c98db9E
Ltmp502:
	.loc	23 70 14 is_stmt 1
	addq	$32, %rsp
	popq	%rbp
	retq
Ltmp503:
Lfunc_end61:
	.cfi_endproc

	.globl	__ZN141_$LT$core..const_closure..ConstFnMutClosure$LT$$RF$mut$u20$A$C$Function$GT$$u20$as$u20$core..ops..function..FnMut$LT$ClosureArguments$GT$$GT$8call_mut17h2fdda0a28eac4350E
	.p2align	4, 0x90
__ZN141_$LT$core..const_closure..ConstFnMutClosure$LT$$RF$mut$u20$A$C$Function$GT$$u20$as$u20$core..ops..function..FnMut$LT$ClosureArguments$GT$$GT$8call_mut17h2fdda0a28eac4350E:
Lfunc_begin62:
	.loc	23 66 0
	.cfi_startproc
	pushq	%rbp
	.cfi_def_cfa_offset 16
	.cfi_offset %rbp, -16
	movq	%rsp, %rbp
	.cfi_def_cfa_register %rbp
	subq	$32, %rsp
	movq	%rdi, -16(%rbp)
Ltmp504:
	.loc	23 68 35 prologue_end
	movq	%rdi, -8(%rbp)
Ltmp505:
	.loc	23 69 29
	movq	(%rdi), %rax
	.loc	23 69 17 is_stmt 0
	movq	%rax, -24(%rbp)
	movq	-24(%rbp), %rsi
	callq	__ZN4core3ops8function2Fn4call17h18f5e356e77a3299E
Ltmp506:
	.loc	23 70 14 is_stmt 1
	addq	$32, %rsp
	popq	%rbp
	retq
Ltmp507:
Lfunc_end62:
	.cfi_endproc

	.globl	__ZN153_$LT$core..result..Result$LT$T$C$F$GT$$u20$as$u20$core..ops..try_trait..FromResidual$LT$core..result..Result$LT$core..convert..Infallible$C$E$GT$$GT$$GT$13from_residual17h24a5263486e809e5E
	.p2align	4, 0x90
__ZN153_$LT$core..result..Result$LT$T$C$F$GT$$u20$as$u20$core..ops..try_trait..FromResidual$LT$core..result..Result$LT$core..convert..Infallible$C$E$GT$$GT$$GT$13from_residual17h24a5263486e809e5E:
Lfunc_begin63:
	.loc	21 2105 0
	.cfi_startproc
	pushq	%rbp
	.cfi_def_cfa_offset 16
	.cfi_offset %rbp, -16
	movq	%rsp, %rbp
	.cfi_def_cfa_register %rbp
	subq	$24, %rsp
Ltmp508:
	.loc	21 2107 23 prologue_end
	movb	$1, -17(%rbp)
Ltmp509:
	.loc	21 2109 6
	movb	-17(%rbp), %al
	andb	$1, %al
	movzbl	%al, %eax
	addq	$24, %rsp
	popq	%rbp
	retq
Ltmp510:
Lfunc_end63:
	.cfi_endproc

	.globl	__ZN153_$LT$core..result..Result$LT$T$C$F$GT$$u20$as$u20$core..ops..try_trait..FromResidual$LT$core..result..Result$LT$core..convert..Infallible$C$E$GT$$GT$$GT$13from_residual17hef350e4d8f52b8ddE
	.p2align	4, 0x90
__ZN153_$LT$core..result..Result$LT$T$C$F$GT$$u20$as$u20$core..ops..try_trait..FromResidual$LT$core..result..Result$LT$core..convert..Infallible$C$E$GT$$GT$$GT$13from_residual17hef350e4d8f52b8ddE:
Lfunc_begin64:
	.loc	21 2105 0
	.cfi_startproc
	pushq	%rbp
	.cfi_def_cfa_offset 16
	.cfi_offset %rbp, -16
	movq	%rsp, %rbp
	.cfi_def_cfa_register %rbp
	subq	$24, %rsp
Ltmp511:
	.loc	21 2107 23 prologue_end
	movb	$2, -17(%rbp)
Ltmp512:
	.loc	21 2109 6
	movb	-17(%rbp), %al
	addq	$24, %rsp
	popq	%rbp
	retq
Ltmp513:
Lfunc_end64:
	.cfi_endproc

	.globl	__ZN153_$LT$core..result..Result$LT$T$C$F$GT$$u20$as$u20$core..ops..try_trait..FromResidual$LT$core..result..Result$LT$core..convert..Infallible$C$E$GT$$GT$$GT$13from_residual17hff0bbc550f39f07bE
	.p2align	4, 0x90
__ZN153_$LT$core..result..Result$LT$T$C$F$GT$$u20$as$u20$core..ops..try_trait..FromResidual$LT$core..result..Result$LT$core..convert..Infallible$C$E$GT$$GT$$GT$13from_residual17hff0bbc550f39f07bE:
Lfunc_begin65:
	.loc	21 2105 0
	.cfi_startproc
	pushq	%rbp
	.cfi_def_cfa_offset 16
	.cfi_offset %rbp, -16
	movq	%rsp, %rbp
	.cfi_def_cfa_register %rbp
	subq	$16, %rsp
	movq	%rdi, %rax
Ltmp514:
	.loc	21 2107 23 prologue_end
	movq	$0, 8(%rdi)
Ltmp515:
	.loc	21 2109 6
	addq	$16, %rsp
	popq	%rbp
	retq
Ltmp516:
Lfunc_end65:
	.cfi_endproc

	.p2align	4, 0x90
__ZN47_$LT$u16$u20$as$u20$core..iter..range..Step$GT$17forward_unchecked17h0525688fcabcc5f5E:
Lfunc_begin66:
	.file	24 "/rustc/2c8cc343237b8f7d5a3c3703e3a87f2eb2c54a74/library/core/src/iter" "range.rs"
	.loc	24 189 0
	.cfi_startproc
	pushq	%rbp
	.cfi_def_cfa_offset 16
	.cfi_offset %rbp, -16
	movq	%rsp, %rbp
	.cfi_def_cfa_register %rbp
	subq	$24, %rsp
	movw	%di, %ax
	movw	%ax, -18(%rbp)
	movq	%rsi, -16(%rbp)
Ltmp517:
	.loc	24 191 22 prologue_end
	movw	%ax, -6(%rbp)
	.loc	24 191 42 is_stmt 0
	movw	%si, %cx
	movw	%cx, -4(%rbp)
Ltmp518:
	.file	25 "/rustc/2c8cc343237b8f7d5a3c3703e3a87f2eb2c54a74/library/core/src/num" "uint_macros.rs"
	.loc	25 470 22 is_stmt 1
	addw	%cx, %ax
	movw	%ax, -2(%rbp)
	movw	-2(%rbp), %ax
Ltmp519:
	.loc	24 192 10
	addq	$24, %rsp
	popq	%rbp
	retq
Ltmp520:
Lfunc_end66:
	.cfi_endproc

	.p2align	4, 0x90
__ZN49_$LT$usize$u20$as$u20$core..iter..range..Step$GT$17forward_unchecked17h50660f62f19ab125E:
Lfunc_begin67:
	.loc	24 189 0
	.cfi_startproc
	pushq	%rbp
	.cfi_def_cfa_offset 16
	.cfi_offset %rbp, -16
	movq	%rsp, %rbp
	.cfi_def_cfa_register %rbp
	subq	$40, %rsp
	movq	%rdi, -40(%rbp)
	movq	%rsi, -32(%rbp)
Ltmp521:
	.loc	24 191 22 prologue_end
	movq	%rdi, -24(%rbp)
	.loc	24 191 42 is_stmt 0
	movq	%rsi, -16(%rbp)
Ltmp522:
	.loc	25 470 22 is_stmt 1
	addq	%rsi, %rdi
	movq	%rdi, -8(%rbp)
	movq	-8(%rbp), %rax
Ltmp523:
	.loc	24 192 10
	addq	$40, %rsp
	popq	%rbp
	retq
Ltmp524:
Lfunc_end67:
	.cfi_endproc

	.globl	__ZN4core13const_closure60ConstFnMutClosure$LT$$RF$mut$u20$CapturedData$C$Function$GT$3new17h0c67f3bd14f876f5E
	.p2align	4, 0x90
__ZN4core13const_closure60ConstFnMutClosure$LT$$RF$mut$u20$CapturedData$C$Function$GT$3new17h0c67f3bd14f876f5E:
Lfunc_begin68:
	.loc	23 35 0
	.cfi_startproc
	pushq	%rbp
	.cfi_def_cfa_offset 16
	.cfi_offset %rbp, -16
	movq	%rsp, %rbp
	.cfi_def_cfa_register %rbp
	subq	$24, %rsp
	movq	%rdi, -16(%rbp)
Ltmp525:
	.loc	23 42 9 prologue_end
	movq	%rdi, -24(%rbp)
	.loc	23 43 6
	movq	-24(%rbp), %rax
	addq	$24, %rsp
	popq	%rbp
	retq
Ltmp526:
Lfunc_end68:
	.cfi_endproc

	.globl	__ZN4core13const_closure60ConstFnMutClosure$LT$$RF$mut$u20$CapturedData$C$Function$GT$3new17h987a774dd0632079E
	.p2align	4, 0x90
__ZN4core13const_closure60ConstFnMutClosure$LT$$RF$mut$u20$CapturedData$C$Function$GT$3new17h987a774dd0632079E:
Lfunc_begin69:
	.loc	23 35 0
	.cfi_startproc
	pushq	%rbp
	.cfi_def_cfa_offset 16
	.cfi_offset %rbp, -16
	movq	%rsp, %rbp
	.cfi_def_cfa_register %rbp
	subq	$24, %rsp
	movq	%rdi, -16(%rbp)
Ltmp527:
	.loc	23 42 9 prologue_end
	movq	%rdi, -24(%rbp)
	.loc	23 43 6
	movq	-24(%rbp), %rax
	addq	$24, %rsp
	popq	%rbp
	retq
Ltmp528:
Lfunc_end69:
	.cfi_endproc

	.globl	__ZN4core3cmp3Ord3min17h27f7c0ec2a848b9bE
	.p2align	4, 0x90
__ZN4core3cmp3Ord3min17h27f7c0ec2a848b9bE:
Lfunc_begin70:
	.loc	16 826 0
	.cfi_startproc
	pushq	%rbp
	.cfi_def_cfa_offset 16
	.cfi_offset %rbp, -16
	movq	%rsp, %rbp
	.cfi_def_cfa_register %rbp
	subq	$16, %rsp
	movw	%si, %ax
	movw	%di, %cx
	movw	%cx, -4(%rbp)
	movw	%ax, -2(%rbp)
Ltmp529:
	.loc	16 833 13 prologue_end
	movzwl	%cx, %edi
	movzwl	%ax, %esi
	callq	__ZN4core3cmp6min_by17haa7b793270db5fd3E
	.loc	16 841 6
	addq	$16, %rsp
	popq	%rbp
	retq
Ltmp530:
Lfunc_end70:
	.cfi_endproc

	.globl	__ZN4core3cmp3Ord3min17hf66a3a9a42f59cfbE
	.p2align	4, 0x90
__ZN4core3cmp3Ord3min17hf66a3a9a42f59cfbE:
Lfunc_begin71:
	.loc	16 826 0
	.cfi_startproc
	pushq	%rbp
	.cfi_def_cfa_offset 16
	.cfi_offset %rbp, -16
	movq	%rsp, %rbp
	.cfi_def_cfa_register %rbp
	subq	$16, %rsp
	movq	%rdi, -16(%rbp)
	movq	%rsi, -8(%rbp)
Ltmp531:
	.loc	16 833 13 prologue_end
	callq	__ZN4core3cmp6min_by17h23b429a2bbedd5fbE
	.loc	16 841 6
	addq	$16, %rsp
	popq	%rbp
	retq
Ltmp532:
Lfunc_end71:
	.cfi_endproc

	.globl	__ZN4core3cmp3min17h82f2ec41e1ad41d6E
	.p2align	4, 0x90
__ZN4core3cmp3min17h82f2ec41e1ad41d6E:
Lfunc_begin72:
	.loc	16 1184 0
	.cfi_startproc
	pushq	%rbp
	.cfi_def_cfa_offset 16
	.cfi_offset %rbp, -16
	movq	%rsp, %rbp
	.cfi_def_cfa_register %rbp
	subq	$16, %rsp
	movw	%si, %ax
	movw	%di, %cx
	movw	%cx, -4(%rbp)
	movw	%ax, -2(%rbp)
Ltmp533:
	.loc	16 1185 5 prologue_end
	movzwl	%cx, %edi
	movzwl	%ax, %esi
	callq	__ZN4core3cmp3Ord3min17h27f7c0ec2a848b9bE
	.loc	16 1186 2
	addq	$16, %rsp
	popq	%rbp
	retq
Ltmp534:
Lfunc_end72:
	.cfi_endproc

	.p2align	4, 0x90
__ZN4core3cmp5impls48_$LT$impl$u20$core..cmp..Ord$u20$for$u20$u16$GT$3cmp17h729dc6f4b419d933E:
Lfunc_begin73:
	.loc	16 1454 0
	.cfi_startproc
	pushq	%rbp
	.cfi_def_cfa_offset 16
	.cfi_offset %rbp, -16
	movq	%rsp, %rbp
	.cfi_def_cfa_register %rbp
	subq	$40, %rsp
	movq	%rdi, -40(%rbp)
	movq	%rsi, -32(%rbp)
	movq	%rdi, -16(%rbp)
	movq	%rsi, -8(%rbp)
Ltmp535:
	.loc	16 1457 24 prologue_end
	movw	(%rdi), %ax
	cmpw	(%rsi), %ax
	jb	LBB73_2
	.loc	16 0 24 is_stmt 0
	movq	-32(%rbp), %rcx
	movq	-40(%rbp), %rax
	.loc	16 1458 29 is_stmt 1
	movw	(%rax), %ax
	cmpw	(%rcx), %ax
	je	LBB73_5
	jmp	LBB73_4
LBB73_2:
	.loc	16 1457 41
	movb	$-1, -17(%rbp)
LBB73_3:
	.loc	16 1460 18
	movb	-17(%rbp), %al
	addq	$40, %rsp
	popq	%rbp
	retq
LBB73_4:
	.loc	16 1459 28
	movb	$1, -17(%rbp)
	.loc	16 1458 26
	jmp	LBB73_6
LBB73_5:
	.loc	16 1458 47 is_stmt 0
	movb	$0, -17(%rbp)
LBB73_6:
	.loc	16 1457 21 is_stmt 1
	jmp	LBB73_3
Ltmp536:
Lfunc_end73:
	.cfi_endproc

	.p2align	4, 0x90
__ZN4core3cmp5impls50_$LT$impl$u20$core..cmp..Ord$u20$for$u20$usize$GT$3cmp17h1f90ad52e7bf8395E:
Lfunc_begin74:
	.loc	16 1454 0
	.cfi_startproc
	pushq	%rbp
	.cfi_def_cfa_offset 16
	.cfi_offset %rbp, -16
	movq	%rsp, %rbp
	.cfi_def_cfa_register %rbp
	subq	$40, %rsp
	movq	%rdi, -40(%rbp)
	movq	%rsi, -32(%rbp)
	movq	%rdi, -16(%rbp)
	movq	%rsi, -8(%rbp)
Ltmp537:
	.loc	16 1457 24 prologue_end
	movq	(%rdi), %rax
	cmpq	(%rsi), %rax
	jb	LBB74_2
	.loc	16 0 24 is_stmt 0
	movq	-32(%rbp), %rcx
	movq	-40(%rbp), %rax
	.loc	16 1458 29 is_stmt 1
	movq	(%rax), %rax
	cmpq	(%rcx), %rax
	je	LBB74_5
	jmp	LBB74_4
LBB74_2:
	.loc	16 1457 41
	movb	$-1, -17(%rbp)
LBB74_3:
	.loc	16 1460 18
	movb	-17(%rbp), %al
	addq	$40, %rsp
	popq	%rbp
	retq
LBB74_4:
	.loc	16 1459 28
	movb	$1, -17(%rbp)
	.loc	16 1458 26
	jmp	LBB74_6
LBB74_5:
	.loc	16 1458 47 is_stmt 0
	movb	$0, -17(%rbp)
LBB74_6:
	.loc	16 1457 21 is_stmt 1
	jmp	LBB74_3
Ltmp538:
Lfunc_end74:
	.cfi_endproc

	.p2align	4, 0x90
__ZN4core3cmp5impls55_$LT$impl$u20$core..cmp..PartialOrd$u20$for$u20$u16$GT$2lt17h6e12ad76159eb91dE:
Lfunc_begin75:
	.loc	16 1441 0
	.cfi_startproc
	pushq	%rbp
	.cfi_def_cfa_offset 16
	.cfi_offset %rbp, -16
	movq	%rsp, %rbp
	.cfi_def_cfa_register %rbp
	subq	$16, %rsp
	movq	%rdi, -16(%rbp)
	movq	%rsi, -8(%rbp)
Ltmp539:
	.loc	16 1441 52 prologue_end
	movw	(%rdi), %ax
	cmpw	(%rsi), %ax
	setb	%al
	.loc	16 1441 72 is_stmt 0
	andb	$1, %al
	movzbl	%al, %eax
	addq	$16, %rsp
	popq	%rbp
	retq
Ltmp540:
Lfunc_end75:
	.cfi_endproc

	.p2align	4, 0x90
__ZN4core3cmp5impls57_$LT$impl$u20$core..cmp..PartialOrd$u20$for$u20$usize$GT$2lt17hfd7f43b8d173a065E:
Lfunc_begin76:
	.loc	16 1441 0 is_stmt 1
	.cfi_startproc
	pushq	%rbp
	.cfi_def_cfa_offset 16
	.cfi_offset %rbp, -16
	movq	%rsp, %rbp
	.cfi_def_cfa_register %rbp
	subq	$16, %rsp
	movq	%rdi, -16(%rbp)
	movq	%rsi, -8(%rbp)
Ltmp541:
	.loc	16 1441 52 prologue_end
	movq	(%rdi), %rax
	cmpq	(%rsi), %rax
	setb	%al
	.loc	16 1441 72 is_stmt 0
	andb	$1, %al
	movzbl	%al, %eax
	addq	$16, %rsp
	popq	%rbp
	retq
Ltmp542:
Lfunc_end76:
	.cfi_endproc

	.globl	__ZN4core3cmp6max_by17h09cf754b63bbb628E
	.p2align	4, 0x90
__ZN4core3cmp6max_by17h09cf754b63bbb628E:
Lfunc_begin77:
	.loc	16 1295 0 is_stmt 1
	.cfi_startproc
	.cfi_personality 155, _rust_eh_personality
	.cfi_lsda 16, Lexception20
	pushq	%rbp
	.cfi_def_cfa_offset 16
	.cfi_offset %rbp, -16
	movq	%rsp, %rbp
	.cfi_def_cfa_register %rbp
	subq	$96, %rsp
	movq	%rdi, -80(%rbp)
	movq	%rsi, -72(%rbp)
Ltmp546:
	.loc	16 1300 11 prologue_end
	movb	$1, -25(%rbp)
	movb	$1, -26(%rbp)
	leaq	-80(%rbp), %rax
	movq	%rax, -48(%rbp)
	leaq	-72(%rbp), %rax
	movq	%rax, -40(%rbp)
	movq	-48(%rbp), %rdi
	movq	-40(%rbp), %rsi
Ltmp543:
	callq	__ZN4core3ops8function6FnOnce9call_once17h04b128a1800f09dbE
Ltmp544:
	movb	%al, -81(%rbp)
	jmp	LBB77_3
LBB77_1:
	.loc	16 1304 1
	jmp	LBB77_4
LBB77_2:
Ltmp545:
	.loc	16 0 1 is_stmt 0
	movq	%rax, %rcx
	movl	%edx, %eax
	movq	%rcx, -16(%rbp)
	movl	%eax, -8(%rbp)
	jmp	LBB77_1
LBB77_3:
	movb	-81(%rbp), %al
	.loc	16 1300 11 is_stmt 1
	movb	%al, -49(%rbp)
	movb	-49(%rbp), %al
	.loc	16 1300 5 is_stmt 0
	incb	%al
	subb	$2, %al
	jb	LBB77_6
	jmp	LBB77_15
LBB77_15:
	jmp	LBB77_7
LBB77_4:
	.loc	16 1304 1 is_stmt 1
	testb	$1, -25(%rbp)
	jne	LBB77_12
	jmp	LBB77_11
	.loc	16 1300 11
	ud2
LBB77_6:
	.loc	16 1301 45
	movb	$0, -26(%rbp)
	movq	-72(%rbp), %rax
	movq	%rax, -64(%rbp)
	jmp	LBB77_8
LBB77_7:
	.loc	16 1302 30
	movb	$0, -25(%rbp)
	movq	-80(%rbp), %rax
	movq	%rax, -64(%rbp)
LBB77_8:
	.loc	16 1304 1
	testb	$1, -26(%rbp)
	jne	LBB77_10
LBB77_9:
	testb	$1, -25(%rbp)
	jne	LBB77_14
	jmp	LBB77_13
LBB77_10:
	jmp	LBB77_9
LBB77_11:
	.loc	16 1295 1
	movq	-16(%rbp), %rdi
	callq	__Unwind_Resume
LBB77_12:
	.loc	16 1304 1
	jmp	LBB77_11
LBB77_13:
	.loc	16 1304 2 is_stmt 0
	movq	-64(%rbp), %rax
	addq	$96, %rsp
	popq	%rbp
	retq
LBB77_14:
	.loc	16 1304 1
	jmp	LBB77_13
Ltmp547:
Lfunc_end77:
	.cfi_endproc
	.section	__TEXT,__gcc_except_tab
	.p2align	2
GCC_except_table77:
Lexception20:
	.byte	255
	.byte	255
	.byte	1
	.uleb128 Lcst_end20-Lcst_begin20
Lcst_begin20:
	.uleb128 Ltmp543-Lfunc_begin77
	.uleb128 Ltmp544-Ltmp543
	.uleb128 Ltmp545-Lfunc_begin77
	.byte	0
	.uleb128 Ltmp544-Lfunc_begin77
	.uleb128 Lfunc_end77-Ltmp544
	.byte	0
	.byte	0
Lcst_end20:
	.p2align	2

	.section	__TEXT,__text,regular,pure_instructions
	.globl	__ZN4core3cmp6min_by17h23b429a2bbedd5fbE
	.p2align	4, 0x90
__ZN4core3cmp6min_by17h23b429a2bbedd5fbE:
Lfunc_begin78:
	.loc	16 1204 0 is_stmt 1
	.cfi_startproc
	.cfi_personality 155, _rust_eh_personality
	.cfi_lsda 16, Lexception21
	pushq	%rbp
	.cfi_def_cfa_offset 16
	.cfi_offset %rbp, -16
	movq	%rsp, %rbp
	.cfi_def_cfa_register %rbp
	subq	$96, %rsp
	movq	%rdi, -80(%rbp)
	movq	%rsi, -72(%rbp)
Ltmp551:
	.loc	16 1209 11 prologue_end
	movb	$1, -25(%rbp)
	movb	$1, -26(%rbp)
	leaq	-80(%rbp), %rax
	movq	%rax, -48(%rbp)
	leaq	-72(%rbp), %rax
	movq	%rax, -40(%rbp)
	movq	-48(%rbp), %rdi
	movq	-40(%rbp), %rsi
Ltmp548:
	callq	__ZN4core3ops8function6FnOnce9call_once17h04b128a1800f09dbE
Ltmp549:
	movb	%al, -81(%rbp)
	jmp	LBB78_3
LBB78_1:
	.loc	16 1213 1
	jmp	LBB78_4
LBB78_2:
Ltmp550:
	.loc	16 0 1 is_stmt 0
	movq	%rax, %rcx
	movl	%edx, %eax
	movq	%rcx, -16(%rbp)
	movl	%eax, -8(%rbp)
	jmp	LBB78_1
LBB78_3:
	movb	-81(%rbp), %al
	.loc	16 1209 11 is_stmt 1
	movb	%al, -49(%rbp)
	movb	-49(%rbp), %al
	.loc	16 1209 5 is_stmt 0
	incb	%al
	subb	$2, %al
	jb	LBB78_6
	jmp	LBB78_15
LBB78_15:
	jmp	LBB78_7
LBB78_4:
	.loc	16 1213 1 is_stmt 1
	testb	$1, -25(%rbp)
	jne	LBB78_12
	jmp	LBB78_11
	.loc	16 1209 11
	ud2
LBB78_6:
	.loc	16 1210 45
	movb	$0, -25(%rbp)
	movq	-80(%rbp), %rax
	movq	%rax, -64(%rbp)
	jmp	LBB78_8
LBB78_7:
	.loc	16 1211 30
	movb	$0, -26(%rbp)
	movq	-72(%rbp), %rax
	movq	%rax, -64(%rbp)
LBB78_8:
	.loc	16 1213 1
	testb	$1, -26(%rbp)
	jne	LBB78_10
LBB78_9:
	testb	$1, -25(%rbp)
	jne	LBB78_14
	jmp	LBB78_13
LBB78_10:
	jmp	LBB78_9
LBB78_11:
	.loc	16 1204 1
	movq	-16(%rbp), %rdi
	callq	__Unwind_Resume
LBB78_12:
	.loc	16 1213 1
	jmp	LBB78_11
LBB78_13:
	.loc	16 1213 2 is_stmt 0
	movq	-64(%rbp), %rax
	addq	$96, %rsp
	popq	%rbp
	retq
LBB78_14:
	.loc	16 1213 1
	jmp	LBB78_13
Ltmp552:
Lfunc_end78:
	.cfi_endproc
	.section	__TEXT,__gcc_except_tab
	.p2align	2
GCC_except_table78:
Lexception21:
	.byte	255
	.byte	255
	.byte	1
	.uleb128 Lcst_end21-Lcst_begin21
Lcst_begin21:
	.uleb128 Ltmp548-Lfunc_begin78
	.uleb128 Ltmp549-Ltmp548
	.uleb128 Ltmp550-Lfunc_begin78
	.byte	0
	.uleb128 Ltmp549-Lfunc_begin78
	.uleb128 Lfunc_end78-Ltmp549
	.byte	0
	.byte	0
Lcst_end21:
	.p2align	2

	.section	__TEXT,__text,regular,pure_instructions
	.globl	__ZN4core3cmp6min_by17haa7b793270db5fd3E
	.p2align	4, 0x90
__ZN4core3cmp6min_by17haa7b793270db5fd3E:
Lfunc_begin79:
	.loc	16 1204 0 is_stmt 1
	.cfi_startproc
	.cfi_personality 155, _rust_eh_personality
	.cfi_lsda 16, Lexception22
	pushq	%rbp
	.cfi_def_cfa_offset 16
	.cfi_offset %rbp, -16
	movq	%rsp, %rbp
	.cfi_def_cfa_register %rbp
	subq	$64, %rsp
	movw	%si, %ax
	movw	%di, %cx
	movw	%cx, -56(%rbp)
	movw	%ax, -54(%rbp)
Ltmp556:
	.loc	16 1209 11 prologue_end
	movb	$1, -25(%rbp)
	movb	$1, -26(%rbp)
	leaq	-56(%rbp), %rax
	movq	%rax, -48(%rbp)
	leaq	-54(%rbp), %rax
	movq	%rax, -40(%rbp)
	movq	-48(%rbp), %rdi
	movq	-40(%rbp), %rsi
Ltmp553:
	callq	__ZN4core3ops8function6FnOnce9call_once17hae09334cdb9fc3b0E
Ltmp554:
	movb	%al, -57(%rbp)
	jmp	LBB79_3
LBB79_1:
	.loc	16 1213 1
	jmp	LBB79_4
LBB79_2:
Ltmp555:
	.loc	16 0 1 is_stmt 0
	movq	%rax, %rcx
	movl	%edx, %eax
	movq	%rcx, -16(%rbp)
	movl	%eax, -8(%rbp)
	jmp	LBB79_1
LBB79_3:
	movb	-57(%rbp), %al
	.loc	16 1209 11 is_stmt 1
	movb	%al, -49(%rbp)
	movb	-49(%rbp), %al
	.loc	16 1209 5 is_stmt 0
	incb	%al
	subb	$2, %al
	jb	LBB79_6
	jmp	LBB79_15
LBB79_15:
	jmp	LBB79_7
LBB79_4:
	.loc	16 1213 1 is_stmt 1
	testb	$1, -25(%rbp)
	jne	LBB79_12
	jmp	LBB79_11
	.loc	16 1209 11
	ud2
LBB79_6:
	.loc	16 1210 45
	movb	$0, -25(%rbp)
	movw	-56(%rbp), %ax
	movw	%ax, -52(%rbp)
	jmp	LBB79_8
LBB79_7:
	.loc	16 1211 30
	movb	$0, -26(%rbp)
	movw	-54(%rbp), %ax
	movw	%ax, -52(%rbp)
LBB79_8:
	.loc	16 1213 1
	testb	$1, -26(%rbp)
	jne	LBB79_10
LBB79_9:
	testb	$1, -25(%rbp)
	jne	LBB79_14
	jmp	LBB79_13
LBB79_10:
	jmp	LBB79_9
LBB79_11:
	.loc	16 1204 1
	movq	-16(%rbp), %rdi
	callq	__Unwind_Resume
LBB79_12:
	.loc	16 1213 1
	jmp	LBB79_11
LBB79_13:
	.loc	16 1213 2 is_stmt 0
	movw	-52(%rbp), %ax
	addq	$64, %rsp
	popq	%rbp
	retq
LBB79_14:
	.loc	16 1213 1
	jmp	LBB79_13
Ltmp557:
Lfunc_end79:
	.cfi_endproc
	.section	__TEXT,__gcc_except_tab
	.p2align	2
GCC_except_table79:
Lexception22:
	.byte	255
	.byte	255
	.byte	1
	.uleb128 Lcst_end22-Lcst_begin22
Lcst_begin22:
	.uleb128 Ltmp553-Lfunc_begin79
	.uleb128 Ltmp554-Ltmp553
	.uleb128 Ltmp555-Lfunc_begin79
	.byte	0
	.uleb128 Ltmp554-Lfunc_begin79
	.uleb128 Lfunc_end79-Ltmp554
	.byte	0
	.byte	0
Lcst_end22:
	.p2align	2

	.section	__TEXT,__text,regular,pure_instructions
	.globl	__ZN4core3fmt10ArgumentV111new_display17h02fe604cf4cf48b2E
	.p2align	4, 0x90
__ZN4core3fmt10ArgumentV111new_display17h02fe604cf4cf48b2E:
Lfunc_begin80:
	.file	26 "/rustc/2c8cc343237b8f7d5a3c3703e3a87f2eb2c54a74/library/core/src/fmt" "mod.rs"
	.loc	26 327 0 is_stmt 1
	.cfi_startproc
	pushq	%rbp
	.cfi_def_cfa_offset 16
	.cfi_offset %rbp, -16
	movq	%rsp, %rbp
	.cfi_def_cfa_register %rbp
	subq	$56, %rsp
	movq	%rdi, -40(%rbp)
Ltmp558:
	.loc	26 328 23 prologue_end
	movq	%rdi, -32(%rbp)
	.loc	26 328 26 is_stmt 0
	movq	__ZN4core3fmt3num3imp51_$LT$impl$u20$core..fmt..Display$u20$for$u20$u8$GT$3fmt17he2a0798a745fb926E@GOTPCREL(%rip), %rax
	movq	%rax, -24(%rbp)
Ltmp559:
	.loc	26 347 42 is_stmt 1
	movq	%rax, -16(%rbp)
	movq	-16(%rbp), %rax
	.loc	26 347 68 is_stmt 0
	movq	%rdi, -8(%rbp)
	movq	-8(%rbp), %rcx
	.loc	26 347 18
	movq	%rcx, -56(%rbp)
	movq	%rax, -48(%rbp)
Ltmp560:
	.loc	26 329 10 is_stmt 1
	movq	-56(%rbp), %rax
	movq	-48(%rbp), %rdx
	addq	$56, %rsp
	popq	%rbp
	retq
Ltmp561:
Lfunc_end80:
	.cfi_endproc

	.p2align	4, 0x90
__ZN4core3fmt9Arguments6new_v117h813f68fa05a5669eE:
Lfunc_begin81:
	.loc	26 399 0
	.cfi_startproc
	pushq	%rbp
	.cfi_def_cfa_offset 16
	.cfi_offset %rbp, -16
	movq	%rsp, %rbp
	.cfi_def_cfa_register %rbp
	subq	$160, %rsp
	movq	%r8, -152(%rbp)
	movq	%rcx, -144(%rbp)
	movq	%rdx, -136(%rbp)
	movq	%rsi, -128(%rbp)
	movq	%rdi, -120(%rbp)
	movq	%rdi, -112(%rbp)
	movq	%rsi, -32(%rbp)
	movq	%rdx, -24(%rbp)
	movq	%rcx, -16(%rbp)
	movq	%r8, -8(%rbp)
Ltmp562:
	.loc	26 400 12 prologue_end
	cmpq	%r8, %rdx
	jb	LBB81_2
	.loc	26 0 12 is_stmt 0
	movq	-136(%rbp), %rax
	movq	-152(%rbp), %rcx
	.loc	26 400 56
	addq	$1, %rcx
	.loc	26 400 41
	cmpq	%rcx, %rax
	seta	%al
	.loc	26 400 12
	andb	$1, %al
	movb	%al, -97(%rbp)
	jmp	LBB81_3
LBB81_2:
	movb	$1, -97(%rbp)
LBB81_3:
	testb	$1, -97(%rbp)
	jne	LBB81_5
	.loc	26 0 12
	movq	-112(%rbp), %rax
	movq	-120(%rbp), %rcx
	movq	-152(%rbp), %rdx
	movq	-144(%rbp), %rsi
	movq	-136(%rbp), %rdi
	movq	-128(%rbp), %r8
	.loc	26 403 34 is_stmt 1
	movq	$0, -48(%rbp)
	.loc	26 403 9 is_stmt 0
	movq	%r8, 16(%rcx)
	movq	%rdi, 24(%rcx)
	movq	-48(%rbp), %r8
	movq	-40(%rbp), %rdi
	movq	%r8, (%rcx)
	movq	%rdi, 8(%rcx)
	movq	%rsi, 32(%rcx)
	movq	%rdx, 40(%rcx)
	.loc	26 404 6 is_stmt 1
	addq	$160, %rsp
	popq	%rbp
	retq
LBB81_5:
	.loc	26 401 13
	leaq	l___unnamed_5(%rip), %rsi
	leaq	l___unnamed_6(%rip), %rcx
	xorl	%eax, %eax
	movl	%eax, %r8d
	leaq	-96(%rbp), %rdi
	movq	%rdi, -160(%rbp)
	movl	$1, %edx
	callq	__ZN4core3fmt9Arguments6new_v117h813f68fa05a5669eE
	movq	-160(%rbp), %rdi
	leaq	l___unnamed_7(%rip), %rsi
	callq	__ZN4core9panicking9panic_fmt17h9b5d807e24bcaaedE
Ltmp563:
Lfunc_end81:
	.cfi_endproc

	.globl	__ZN4core3mem7replace17h2a3e3214f5805863E
	.p2align	4, 0x90
__ZN4core3mem7replace17h2a3e3214f5805863E:
Lfunc_begin82:
	.file	27 "/rustc/2c8cc343237b8f7d5a3c3703e3a87f2eb2c54a74/library/core/src/mem" "mod.rs"
	.loc	27 905 0
	.cfi_startproc
	pushq	%rbp
	.cfi_def_cfa_offset 16
	.cfi_offset %rbp, -16
	movq	%rsp, %rbp
	.cfi_def_cfa_register %rbp
	subq	$184, %rsp
	movq	%rdi, -184(%rbp)
	movq	%rsi, -176(%rbp)
	movq	%rdx, -168(%rbp)
	movq	%rdi, -112(%rbp)
	movq	%rsi, -104(%rbp)
	movq	%rdx, -96(%rbp)
Ltmp564:
	.loc	27 910 32 prologue_end
	movq	%rdi, -88(%rbp)
Ltmp565:
	.loc	10 1157 34
	leaq	-128(%rbp), %rax
	movq	%rax, -80(%rbp)
	.loc	10 1157 9 is_stmt 0
	movq	(%rdi), %rax
	movq	%rax, -128(%rbp)
	movq	8(%rdi), %rax
	movq	%rax, -120(%rbp)
	.loc	10 1158 9 is_stmt 1
	movq	-128(%rbp), %rcx
	movq	%rcx, -160(%rbp)
	movq	-120(%rbp), %rax
	movq	%rax, -152(%rbp)
	movq	%rcx, -72(%rbp)
	movq	%rax, -64(%rbp)
	.loc	10 0 9 is_stmt 0
	movq	-152(%rbp), %rdx
	movq	-160(%rbp), %rax
	movq	-184(%rbp), %rcx
	movq	-168(%rbp), %rsi
	movq	-176(%rbp), %rdi
Ltmp566:
	.file	28 "/rustc/2c8cc343237b8f7d5a3c3703e3a87f2eb2c54a74/library/core/src/mem" "maybe_uninit.rs"
	.loc	28 627 38 is_stmt 1
	movq	%rax, -40(%rbp)
	movq	%rdx, -32(%rbp)
Ltmp567:
	.file	29 "/rustc/2c8cc343237b8f7d5a3c3703e3a87f2eb2c54a74/library/core/src/mem" "manually_drop.rs"
	.loc	29 89 9
	movq	%rax, -24(%rbp)
	movq	%rdx, -16(%rbp)
Ltmp568:
	.loc	27 911 20
	movq	%rcx, -8(%rbp)
	.loc	27 911 26 is_stmt 0
	movq	%rdi, -144(%rbp)
	movq	%rsi, -136(%rbp)
Ltmp569:
	.loc	10 1354 9 is_stmt 1
	movq	-144(%rbp), %rsi
	movq	-136(%rbp), %rdi
	movq	%rdi, 8(%rcx)
	movq	%rsi, (%rcx)
Ltmp570:
	.loc	27 914 2
	addq	$184, %rsp
	popq	%rbp
	retq
Ltmp571:
Lfunc_end82:
	.cfi_endproc

	.globl	__ZN4core3mem7replace17h2e071ed5dcdd4412E
	.p2align	4, 0x90
__ZN4core3mem7replace17h2e071ed5dcdd4412E:
Lfunc_begin83:
	.loc	27 905 0
	.cfi_startproc
	pushq	%rbp
	.cfi_def_cfa_offset 16
	.cfi_offset %rbp, -16
	movq	%rsp, %rbp
	.cfi_def_cfa_register %rbp
	subq	$88, %rsp
	movq	%rdi, -88(%rbp)
	movw	%si, %ax
	movw	%ax, -80(%rbp)
	movq	%rdi, -72(%rbp)
	movw	%ax, -58(%rbp)
Ltmp572:
	.loc	27 910 32 prologue_end
	movq	%rdi, -56(%rbp)
Ltmp573:
	.loc	10 1157 34
	leaq	-74(%rbp), %rax
	movq	%rax, -48(%rbp)
	.loc	10 1157 9 is_stmt 0
	movw	(%rdi), %ax
	movw	%ax, -74(%rbp)
	.loc	10 1158 9 is_stmt 1
	movw	-74(%rbp), %ax
	movw	%ax, -78(%rbp)
	movw	%ax, -34(%rbp)
	.loc	10 0 9 is_stmt 0
	movw	-78(%rbp), %ax
	movq	-88(%rbp), %rcx
	movw	-80(%rbp), %dx
Ltmp574:
	.loc	28 627 38 is_stmt 1
	movw	%ax, -12(%rbp)
Ltmp575:
	.loc	29 89 9
	movw	%ax, -10(%rbp)
Ltmp576:
	.loc	27 911 20
	movq	%rcx, -8(%rbp)
	.loc	27 911 26 is_stmt 0
	movw	%dx, -76(%rbp)
Ltmp577:
	.loc	10 1354 9 is_stmt 1
	movw	-76(%rbp), %dx
	movw	%dx, (%rcx)
Ltmp578:
	.loc	27 914 2
	addq	$88, %rsp
	popq	%rbp
	retq
Ltmp579:
Lfunc_end83:
	.cfi_endproc

	.globl	__ZN4core3mem7replace17h60d8fe6929bd9817E
	.p2align	4, 0x90
__ZN4core3mem7replace17h60d8fe6929bd9817E:
Lfunc_begin84:
	.loc	27 905 0
	.cfi_startproc
	pushq	%rbp
	.cfi_def_cfa_offset 16
	.cfi_offset %rbp, -16
	movq	%rsp, %rbp
	.cfi_def_cfa_register %rbp
	subq	$184, %rsp
	movq	%rdi, -184(%rbp)
	movq	%rsi, -176(%rbp)
	movq	%rdx, -168(%rbp)
	movq	%rdi, -112(%rbp)
	movq	%rsi, -104(%rbp)
	movq	%rdx, -96(%rbp)
Ltmp580:
	.loc	27 910 32 prologue_end
	movq	%rdi, -88(%rbp)
Ltmp581:
	.loc	10 1157 34
	leaq	-128(%rbp), %rax
	movq	%rax, -80(%rbp)
	.loc	10 1157 9 is_stmt 0
	movq	(%rdi), %rax
	movq	%rax, -128(%rbp)
	movq	8(%rdi), %rax
	movq	%rax, -120(%rbp)
	.loc	10 1158 9 is_stmt 1
	movq	-128(%rbp), %rcx
	movq	%rcx, -160(%rbp)
	movq	-120(%rbp), %rax
	movq	%rax, -152(%rbp)
	movq	%rcx, -72(%rbp)
	movq	%rax, -64(%rbp)
	.loc	10 0 9 is_stmt 0
	movq	-152(%rbp), %rdx
	movq	-160(%rbp), %rax
	movq	-184(%rbp), %rcx
	movq	-168(%rbp), %rsi
	movq	-176(%rbp), %rdi
Ltmp582:
	.loc	28 627 38 is_stmt 1
	movq	%rax, -40(%rbp)
	movq	%rdx, -32(%rbp)
Ltmp583:
	.loc	29 89 9
	movq	%rax, -24(%rbp)
	movq	%rdx, -16(%rbp)
Ltmp584:
	.loc	27 911 20
	movq	%rcx, -8(%rbp)
	.loc	27 911 26 is_stmt 0
	movq	%rdi, -144(%rbp)
	movq	%rsi, -136(%rbp)
Ltmp585:
	.loc	10 1354 9 is_stmt 1
	movq	-144(%rbp), %rsi
	movq	-136(%rbp), %rdi
	movq	%rdi, 8(%rcx)
	movq	%rsi, (%rcx)
Ltmp586:
	.loc	27 914 2
	addq	$184, %rsp
	popq	%rbp
	retq
Ltmp587:
Lfunc_end84:
	.cfi_endproc

	.globl	__ZN4core3mem7replace17h6f35761acfbdd6a4E
	.p2align	4, 0x90
__ZN4core3mem7replace17h6f35761acfbdd6a4E:
Lfunc_begin85:
	.loc	27 905 0
	.cfi_startproc
	pushq	%rbp
	.cfi_def_cfa_offset 16
	.cfi_offset %rbp, -16
	movq	%rsp, %rbp
	.cfi_def_cfa_register %rbp
	subq	$112, %rsp
	movq	%rdi, -112(%rbp)
	movq	%rsi, -96(%rbp)
	movq	-96(%rbp), %rax
	movq	%rax, -104(%rbp)
	movq	%rdi, -48(%rbp)
Ltmp588:
	.loc	27 910 32 prologue_end
	movq	%rdi, -40(%rbp)
Ltmp589:
	.loc	10 1157 34
	leaq	-72(%rbp), %rax
	movq	%rax, -32(%rbp)
	.loc	10 1157 9 is_stmt 0
	movq	(%rdi), %rax
	movq	%rax, -72(%rbp)
	.loc	10 1158 9 is_stmt 1
	movq	-72(%rbp), %rax
	movq	%rax, -64(%rbp)
	.loc	10 0 9 is_stmt 0
	movq	-112(%rbp), %rax
Ltmp590:
	.loc	28 627 38 is_stmt 1
	movq	-64(%rbp), %rcx
	movq	%rcx, -56(%rbp)
Ltmp591:
	.loc	29 89 9
	movq	-56(%rbp), %rcx
	movq	%rcx, -88(%rbp)
Ltmp592:
	.loc	27 911 20
	movq	%rax, -8(%rbp)
	.loc	27 911 26 is_stmt 0
	movq	-104(%rbp), %rcx
	movq	%rcx, -80(%rbp)
Ltmp593:
	.loc	10 1354 9 is_stmt 1
	movq	-80(%rbp), %rcx
	movq	%rcx, (%rax)
Ltmp594:
	.loc	27 914 2
	movq	-88(%rbp), %rax
	addq	$112, %rsp
	popq	%rbp
	retq
Ltmp595:
Lfunc_end85:
	.cfi_endproc

	.globl	__ZN4core3mem7replace17h7c1c0c8d01a5410dE
	.p2align	4, 0x90
__ZN4core3mem7replace17h7c1c0c8d01a5410dE:
Lfunc_begin86:
	.loc	27 905 0
	.cfi_startproc
	pushq	%rbp
	.cfi_def_cfa_offset 16
	.cfi_offset %rbp, -16
	movq	%rsp, %rbp
	.cfi_def_cfa_register %rbp
	subq	$88, %rsp
	movq	%rdi, -88(%rbp)
	movb	%sil, %al
	movb	%al, -76(%rbp)
	movq	%rdi, -72(%rbp)
	andb	$1, %al
	movb	%al, -57(%rbp)
Ltmp596:
	.loc	27 910 32 prologue_end
	movq	%rdi, -56(%rbp)
Ltmp597:
	.loc	10 1157 34
	leaq	-73(%rbp), %rax
	movq	%rax, -48(%rbp)
	.loc	10 1157 9 is_stmt 0
	movb	(%rdi), %al
	movb	%al, -73(%rbp)
	.loc	10 1158 9 is_stmt 1
	movb	-73(%rbp), %al
	movb	%al, -75(%rbp)
	movb	%al, -33(%rbp)
	.loc	10 0 9 is_stmt 0
	movb	-75(%rbp), %al
	movq	-88(%rbp), %rcx
	movb	-76(%rbp), %dl
Ltmp598:
	.loc	28 627 38 is_stmt 1
	movb	%al, %sil
	andb	$1, %sil
	movb	%sil, -10(%rbp)
Ltmp599:
	.loc	29 89 9
	movb	%al, %sil
	andb	$1, %sil
	movb	%sil, -9(%rbp)
Ltmp600:
	.loc	27 911 20
	movq	%rcx, -8(%rbp)
	.loc	27 911 26 is_stmt 0
	andb	$1, %dl
	movb	%dl, -74(%rbp)
Ltmp601:
	.loc	10 1354 9 is_stmt 1
	movb	-74(%rbp), %dl
	movb	%dl, (%rcx)
Ltmp602:
	.loc	27 914 2
	andb	$1, %al
	movzbl	%al, %eax
	addq	$88, %rsp
	popq	%rbp
	retq
Ltmp603:
Lfunc_end86:
	.cfi_endproc

	.globl	__ZN4core3mem7replace17haa6f1ad7b288becbE
	.p2align	4, 0x90
__ZN4core3mem7replace17haa6f1ad7b288becbE:
Lfunc_begin87:
	.loc	27 905 0
	.cfi_startproc
	pushq	%rbp
	.cfi_def_cfa_offset 16
	.cfi_offset %rbp, -16
	movq	%rsp, %rbp
	.cfi_def_cfa_register %rbp
	subq	$168, %rsp
	movq	%rdi, -168(%rbp)
	movq	%rsi, -144(%rbp)
	movq	%rdx, -136(%rbp)
	movq	%rdi, -96(%rbp)
Ltmp604:
	.loc	27 910 32 prologue_end
	movq	%rdi, -88(%rbp)
Ltmp605:
	.loc	10 1157 34
	leaq	-112(%rbp), %rax
	movq	%rax, -80(%rbp)
	.loc	10 1157 9 is_stmt 0
	movq	(%rdi), %rax
	movq	%rax, -112(%rbp)
	movq	8(%rdi), %rax
	movq	%rax, -104(%rbp)
	.loc	10 1158 9 is_stmt 1
	movq	-112(%rbp), %rcx
	movq	%rcx, -160(%rbp)
	movq	-104(%rbp), %rax
	movq	%rax, -152(%rbp)
	movq	%rcx, -72(%rbp)
	movq	%rax, -64(%rbp)
	.loc	10 0 9 is_stmt 0
	movq	-152(%rbp), %rdx
	movq	-160(%rbp), %rax
	movq	-168(%rbp), %rcx
Ltmp606:
	.loc	28 627 38 is_stmt 1
	movq	%rax, -40(%rbp)
	movq	%rdx, -32(%rbp)
Ltmp607:
	.loc	29 89 9
	movq	%rax, -24(%rbp)
	movq	%rdx, -16(%rbp)
Ltmp608:
	.loc	27 911 20
	movq	%rcx, -8(%rbp)
	.loc	27 911 26 is_stmt 0
	movq	-144(%rbp), %rdi
	movq	-136(%rbp), %rsi
	movq	%rdi, -128(%rbp)
	movq	%rsi, -120(%rbp)
Ltmp609:
	.loc	10 1354 9 is_stmt 1
	movq	-128(%rbp), %rsi
	movq	-120(%rbp), %rdi
	movq	%rdi, 8(%rcx)
	movq	%rsi, (%rcx)
Ltmp610:
	.loc	27 914 2
	addq	$168, %rsp
	popq	%rbp
	retq
Ltmp611:
Lfunc_end87:
	.cfi_endproc

	.globl	__ZN4core3mem7replace17hb4d9c059456fdac8E
	.p2align	4, 0x90
__ZN4core3mem7replace17hb4d9c059456fdac8E:
Lfunc_begin88:
	.loc	27 905 0
	.cfi_startproc
	pushq	%rbp
	.cfi_def_cfa_offset 16
	.cfi_offset %rbp, -16
	movq	%rsp, %rbp
	.cfi_def_cfa_register %rbp
	subq	$120, %rsp
	movq	%rdi, -120(%rbp)
	movq	%rsi, -112(%rbp)
	movq	%rdi, -80(%rbp)
	movq	%rsi, -72(%rbp)
Ltmp612:
	.loc	27 910 32 prologue_end
	movq	%rdi, -64(%rbp)
Ltmp613:
	.loc	10 1157 34
	leaq	-88(%rbp), %rax
	movq	%rax, -56(%rbp)
	.loc	10 1157 9 is_stmt 0
	movq	(%rdi), %rax
	movq	%rax, -88(%rbp)
	.loc	10 1158 9 is_stmt 1
	movq	-88(%rbp), %rax
	movq	%rax, -104(%rbp)
	movq	%rax, -48(%rbp)
	.loc	10 0 9 is_stmt 0
	movq	-104(%rbp), %rax
	movq	-120(%rbp), %rcx
	movq	-112(%rbp), %rdx
Ltmp614:
	.loc	28 627 38 is_stmt 1
	movq	%rax, -24(%rbp)
Ltmp615:
	.loc	29 89 9
	movq	%rax, -16(%rbp)
Ltmp616:
	.loc	27 911 20
	movq	%rcx, -8(%rbp)
	.loc	27 911 26 is_stmt 0
	movq	%rdx, -96(%rbp)
Ltmp617:
	.loc	10 1354 9 is_stmt 1
	movq	-96(%rbp), %rdx
	movq	%rdx, (%rcx)
Ltmp618:
	.loc	27 914 2
	addq	$120, %rsp
	popq	%rbp
	retq
Ltmp619:
Lfunc_end88:
	.cfi_endproc

	.p2align	4, 0x90
__ZN4core3num21_$LT$impl$u20$u16$GT$11checked_add17hd807a7f7f54a76fcE:
Lfunc_begin89:
	.loc	25 442 0
	.cfi_startproc
	pushq	%rbp
	.cfi_def_cfa_offset 16
	.cfi_offset %rbp, -16
	movq	%rsp, %rbp
	.cfi_def_cfa_register %rbp
	subq	$48, %rsp
	movw	%si, %ax
	movw	%di, %cx
	movw	%cx, -24(%rbp)
	movw	%ax, -22(%rbp)
Ltmp620:
	.loc	25 443 26 prologue_end
	movw	%cx, -20(%rbp)
	.loc	25 443 47 is_stmt 0
	movw	%ax, -18(%rbp)
Ltmp621:
	.loc	25 1479 26 is_stmt 1
	addw	%ax, %cx
	setb	%al
	andb	$1, %al
	movw	%cx, -16(%rbp)
	movb	%al, -14(%rbp)
	movw	-16(%rbp), %cx
	movb	-14(%rbp), %al
	.loc	25 1479 18 is_stmt 0
	movw	%cx, -8(%rbp)
	.loc	25 1479 21
	movb	%al, %dl
	andb	$1, %dl
	movb	%dl, -5(%rbp)
Ltmp622:
	.loc	25 1480 13 is_stmt 1
	movw	%cx, -32(%rbp)
	andb	$1, %al
	movb	%al, -30(%rbp)
Ltmp623:
	.loc	25 443 18
	movw	-32(%rbp), %ax
	movw	%ax, -42(%rbp)
	movw	%ax, -4(%rbp)
	.loc	25 443 21 is_stmt 0
	movb	-30(%rbp), %al
	movb	%al, %cl
	andb	$1, %cl
	movb	%cl, -2(%rbp)
Ltmp624:
	.loc	25 444 16 is_stmt 1
	andb	$1, %al
	movb	%al, -1(%rbp)
	testb	$1, -1(%rbp)
	jne	LBB89_2
	.loc	25 0 16 is_stmt 0
	movw	-42(%rbp), %ax
	.loc	25 444 42
	movw	%ax, -38(%rbp)
	movw	$1, -40(%rbp)
	.loc	25 444 13
	jmp	LBB89_3
LBB89_2:
	.loc	25 444 30
	movw	$0, -40(%rbp)
Ltmp625:
LBB89_3:
	.loc	25 445 10 is_stmt 1
	movw	-40(%rbp), %ax
	movw	-38(%rbp), %dx
	addq	$48, %rsp
	popq	%rbp
	retq
Ltmp626:
Lfunc_end89:
	.cfi_endproc

	.p2align	4, 0x90
__ZN4core3num21_$LT$impl$u20$u64$GT$13from_be_bytes17h0f33dbfaab817926E:
Lfunc_begin90:
	.loc	25 2344 0
	.cfi_startproc
	pushq	%rbp
	.cfi_def_cfa_offset 16
	.cfi_offset %rbp, -16
	movq	%rsp, %rbp
	.cfi_def_cfa_register %rbp
	subq	$64, %rsp
	movq	%rdi, -56(%rbp)
	movq	-56(%rbp), %rax
	movq	%rax, -64(%rbp)
Ltmp627:
	.loc	25 2345 47 prologue_end
	movq	-64(%rbp), %rax
	movq	%rax, -48(%rbp)
Ltmp628:
	.loc	25 2417 37
	movq	-48(%rbp), %rax
	movq	%rax, -40(%rbp)
	.loc	25 2417 22 is_stmt 0
	movq	-40(%rbp), %rax
	movq	%rax, -32(%rbp)
	movq	-32(%rbp), %rax
	movq	%rax, -24(%rbp)
Ltmp629:
	.loc	25 318 17 is_stmt 1
	movq	%rax, -16(%rbp)
Ltmp630:
	.loc	25 263 13
	bswapq	%rax
	movq	%rax, -8(%rbp)
	movq	-8(%rbp), %rax
Ltmp631:
	.loc	25 2346 10
	addq	$64, %rsp
	popq	%rbp
	retq
Ltmp632:
Lfunc_end90:
	.cfi_endproc

	.p2align	4, 0x90
__ZN4core3num23_$LT$impl$u20$usize$GT$11checked_add17h2bf0324bd4de0820E:
Lfunc_begin91:
	.loc	25 442 0
	.cfi_startproc
	pushq	%rbp
	.cfi_def_cfa_offset 16
	.cfi_offset %rbp, -16
	movq	%rsp, %rbp
	.cfi_def_cfa_register %rbp
	subq	$120, %rsp
	movq	%rdi, -80(%rbp)
	movq	%rsi, -72(%rbp)
Ltmp633:
	.loc	25 443 26 prologue_end
	movq	%rdi, -64(%rbp)
	.loc	25 443 47 is_stmt 0
	movq	%rsi, -56(%rbp)
Ltmp634:
	.loc	25 1479 26 is_stmt 1
	addq	%rsi, %rdi
	setb	%al
	andb	$1, %al
	movq	%rdi, -48(%rbp)
	movb	%al, -40(%rbp)
	movq	-48(%rbp), %rcx
	movb	-40(%rbp), %al
	.loc	25 1479 18 is_stmt 0
	movq	%rcx, -32(%rbp)
	.loc	25 1479 21
	movb	%al, %dl
	andb	$1, %dl
	movb	%dl, -17(%rbp)
Ltmp635:
	.loc	25 1480 13 is_stmt 1
	movq	%rcx, -96(%rbp)
	andb	$1, %al
	movb	%al, -88(%rbp)
Ltmp636:
	.loc	25 443 18
	movq	-96(%rbp), %rax
	movq	%rax, -120(%rbp)
	movq	%rax, -16(%rbp)
	.loc	25 443 21 is_stmt 0
	movb	-88(%rbp), %al
	movb	%al, %cl
	andb	$1, %cl
	movb	%cl, -2(%rbp)
Ltmp637:
	.loc	25 444 16 is_stmt 1
	andb	$1, %al
	movb	%al, -1(%rbp)
	testb	$1, -1(%rbp)
	jne	LBB91_2
	.loc	25 0 16 is_stmt 0
	movq	-120(%rbp), %rax
	.loc	25 444 42
	movq	%rax, -104(%rbp)
	movq	$1, -112(%rbp)
	.loc	25 444 13
	jmp	LBB91_3
LBB91_2:
	.loc	25 444 30
	movq	$0, -112(%rbp)
Ltmp638:
LBB91_3:
	.loc	25 445 10 is_stmt 1
	movq	-112(%rbp), %rax
	movq	-104(%rbp), %rdx
	addq	$120, %rsp
	popq	%rbp
	retq
Ltmp639:
Lfunc_end91:
	.cfi_endproc

	.globl	__ZN4core3ops12control_flow77ControlFlow$LT$R$C$$LT$R$u20$as$u20$core..ops..try_trait..Try$GT$..Output$GT$8from_try17ha69734f4c736f109E
	.p2align	4, 0x90
__ZN4core3ops12control_flow77ControlFlow$LT$R$C$$LT$R$u20$as$u20$core..ops..try_trait..Try$GT$..Output$GT$8from_try17ha69734f4c736f109E:
Lfunc_begin92:
	.loc	5 246 0
	.cfi_startproc
	pushq	%rbp
	.cfi_def_cfa_offset 16
	.cfi_offset %rbp, -16
	movq	%rsp, %rbp
	.cfi_def_cfa_register %rbp
	subq	$48, %rsp
Ltmp640:
	.loc	5 247 15 prologue_end
	callq	__ZN94_$LT$core..ops..try_trait..NeverShortCircuit$LT$T$GT$$u20$as$u20$core..ops..try_trait..Try$GT$6branch17h396dda134b4c0af6E
	.loc	5 247 9 is_stmt 0
	movb	$1, %al
	testb	$1, %al
	jne	LBB92_1
	jmp	LBB92_2
LBB92_1:
Ltmp641:
	.loc	5 248 41 is_stmt 1
	movb	$0, -33(%rbp)
Ltmp642:
	.loc	5 248 64 is_stmt 0
	jmp	LBB92_3
LBB92_2:
Ltmp643:
	.loc	5 249 57 is_stmt 1
	callq	__ZN103_$LT$core..ops..try_trait..NeverShortCircuit$LT$T$GT$$u20$as$u20$core..ops..try_trait..FromResidual$GT$13from_residual17h91a75c0f6e358019E
	.loc	5 249 38 is_stmt 0
	movb	$1, -33(%rbp)
Ltmp644:
LBB92_3:
	.loc	5 251 6 is_stmt 1
	movb	-33(%rbp), %al
	andb	$1, %al
	movzbl	%al, %eax
	addq	$48, %rsp
	popq	%rbp
	retq
Ltmp645:
Lfunc_end92:
	.cfi_endproc

	.globl	__ZN4core3ops12control_flow77ControlFlow$LT$R$C$$LT$R$u20$as$u20$core..ops..try_trait..Try$GT$..Output$GT$8from_try17hf1e81369afc820fbE
	.p2align	4, 0x90
__ZN4core3ops12control_flow77ControlFlow$LT$R$C$$LT$R$u20$as$u20$core..ops..try_trait..Try$GT$..Output$GT$8from_try17hf1e81369afc820fbE:
Lfunc_begin93:
	.loc	5 246 0
	.cfi_startproc
	pushq	%rbp
	.cfi_def_cfa_offset 16
	.cfi_offset %rbp, -16
	movq	%rsp, %rbp
	.cfi_def_cfa_register %rbp
	subq	$32, %rsp
	movb	%dil, %al
	movb	%al, %cl
	andb	$1, %cl
	movb	%cl, -17(%rbp)
Ltmp646:
	.loc	5 247 15 prologue_end
	movzbl	%al, %edi
	andl	$1, %edi
	callq	__ZN95_$LT$core..ops..control_flow..ControlFlow$LT$B$C$C$GT$$u20$as$u20$core..ops..try_trait..Try$GT$6branch17ha4827ce13d4f9d53E
	andb	$1, %al
	movb	%al, -18(%rbp)
	movb	-18(%rbp), %al
	andb	$1, %al
	movzbl	%al, %eax
	.loc	5 247 9 is_stmt 0
	cmpq	$0, %rax
	jne	LBB93_2
Ltmp647:
	.loc	5 248 41 is_stmt 1
	movb	$2, -19(%rbp)
Ltmp648:
	.loc	5 248 64 is_stmt 0
	jmp	LBB93_3
LBB93_2:
Ltmp649:
	.loc	5 249 57 is_stmt 1
	callq	__ZN104_$LT$core..ops..control_flow..ControlFlow$LT$B$C$C$GT$$u20$as$u20$core..ops..try_trait..FromResidual$GT$13from_residual17h15e71e60204b6c0aE
	.loc	5 249 38 is_stmt 0
	andb	$1, %al
	movb	%al, -19(%rbp)
Ltmp650:
LBB93_3:
	.loc	5 251 6 is_stmt 1
	movb	-19(%rbp), %al
	addq	$32, %rsp
	popq	%rbp
	retq
Ltmp651:
Lfunc_end93:
	.cfi_endproc

	.globl	__ZN4core3ops12control_flow77ControlFlow$LT$R$C$$LT$R$u20$as$u20$core..ops..try_trait..Try$GT$..Output$GT$8into_try17h1d8f4c3fe9d99638E
	.p2align	4, 0x90
__ZN4core3ops12control_flow77ControlFlow$LT$R$C$$LT$R$u20$as$u20$core..ops..try_trait..Try$GT$..Output$GT$8into_try17h1d8f4c3fe9d99638E:
Lfunc_begin94:
	.loc	5 255 0
	.cfi_startproc
	pushq	%rbp
	.cfi_def_cfa_offset 16
	.cfi_offset %rbp, -16
	movq	%rsp, %rbp
	.cfi_def_cfa_register %rbp
	subq	$32, %rsp
	movb	%dil, %al
	andb	$1, %al
	movb	%al, -17(%rbp)
Ltmp652:
	.loc	5 256 15 prologue_end
	movb	-17(%rbp), %al
	andb	$1, %al
	movzbl	%al, %eax
	.loc	5 256 9 is_stmt 0
	cmpq	$0, %rax
	jne	LBB94_2
Ltmp653:
	.loc	5 257 41 is_stmt 1
	callq	__ZN94_$LT$core..ops..try_trait..NeverShortCircuit$LT$T$GT$$u20$as$u20$core..ops..try_trait..Try$GT$11from_output17h0f665f226410f3f3E
Ltmp654:
	.loc	5 257 57 is_stmt 0
	jmp	LBB94_3
LBB94_2:
	.loc	5 258 38 is_stmt 1
	jmp	LBB94_3
LBB94_3:
	.loc	5 260 6
	addq	$32, %rsp
	popq	%rbp
	retq
Ltmp655:
Lfunc_end94:
	.cfi_endproc

	.globl	__ZN4core3ops12control_flow77ControlFlow$LT$R$C$$LT$R$u20$as$u20$core..ops..try_trait..Try$GT$..Output$GT$8into_try17h74b857b3867b2b1aE
	.p2align	4, 0x90
__ZN4core3ops12control_flow77ControlFlow$LT$R$C$$LT$R$u20$as$u20$core..ops..try_trait..Try$GT$..Output$GT$8into_try17h74b857b3867b2b1aE:
Lfunc_begin95:
	.loc	5 255 0
	.cfi_startproc
	pushq	%rbp
	.cfi_def_cfa_offset 16
	.cfi_offset %rbp, -16
	movq	%rsp, %rbp
	.cfi_def_cfa_register %rbp
	subq	$16, %rsp
	movb	%dil, %al
	movb	%al, -10(%rbp)
Ltmp656:
	.loc	5 256 15 prologue_end
	movl	$1, %eax
	xorl	%ecx, %ecx
	cmpb	$2, -10(%rbp)
	cmoveq	%rcx, %rax
	.loc	5 256 9 is_stmt 0
	cmpq	$0, %rax
	jne	LBB95_2
Ltmp657:
	.loc	5 257 41 is_stmt 1
	callq	__ZN95_$LT$core..ops..control_flow..ControlFlow$LT$B$C$C$GT$$u20$as$u20$core..ops..try_trait..Try$GT$11from_output17h70b4fd9cb0f01746E
	andb	$1, %al
	movb	%al, -9(%rbp)
Ltmp658:
	.loc	5 257 57 is_stmt 0
	jmp	LBB95_3
LBB95_2:
	.loc	5 258 32 is_stmt 1
	movb	-10(%rbp), %al
	movb	%al, %cl
	andb	$1, %cl
	movb	%cl, -1(%rbp)
Ltmp659:
	.loc	5 258 38 is_stmt 0
	andb	$1, %al
	movb	%al, -9(%rbp)
Ltmp660:
LBB95_3:
	.loc	5 260 6 is_stmt 1
	movb	-9(%rbp), %al
	andb	$1, %al
	movzbl	%al, %eax
	addq	$16, %rsp
	popq	%rbp
	retq
Ltmp661:
Lfunc_end95:
	.cfi_endproc

	.p2align	4, 0x90
__ZN4core3ops8function2Fn4call17h18f5e356e77a3299E:
Lfunc_begin96:
	.file	30 "/rustc/2c8cc343237b8f7d5a3c3703e3a87f2eb2c54a74/library/core/src/ops" "function.rs"
	.loc	30 79 0
	.cfi_startproc
	pushq	%rbp
	.cfi_def_cfa_offset 16
	.cfi_offset %rbp, -16
	movq	%rsp, %rbp
	.cfi_def_cfa_register %rbp
	subq	$16, %rsp
	movq	%rsi, -16(%rbp)
	movq	%rdi, -8(%rbp)
Ltmp662:
	.loc	30 79 5 prologue_end
	movq	-16(%rbp), %rdi
	callq	__ZN4core3ops9try_trait26NeverShortCircuit$LT$T$GT$14wrap_mut_2_imp17haf7ee5165c080ce8E
	addq	$16, %rsp
	popq	%rbp
	retq
Ltmp663:
Lfunc_end96:
	.cfi_endproc

	.p2align	4, 0x90
__ZN4core3ops8function2Fn4call17hcbd36ebf90c98db9E:
Lfunc_begin97:
	.loc	30 79 0
	.cfi_startproc
	pushq	%rbp
	.cfi_def_cfa_offset 16
	.cfi_offset %rbp, -16
	movq	%rsp, %rbp
	.cfi_def_cfa_register %rbp
	subq	$16, %rsp
	movq	%rsi, -16(%rbp)
	movq	%rdi, -8(%rbp)
Ltmp664:
	.loc	30 79 5 prologue_end
	movq	-16(%rbp), %rdi
	callq	__ZN4core3ops9try_trait26NeverShortCircuit$LT$T$GT$14wrap_mut_2_imp17he5f1b5fb1cf732cdE
	addq	$16, %rsp
	popq	%rbp
	retq
Ltmp665:
Lfunc_end97:
	.cfi_endproc

	.p2align	4, 0x90
__ZN4core3ops8function6FnOnce9call_once17h04b128a1800f09dbE:
Lfunc_begin98:
	.loc	30 250 0
	.cfi_startproc
	pushq	%rbp
	.cfi_def_cfa_offset 16
	.cfi_offset %rbp, -16
	movq	%rsp, %rbp
	.cfi_def_cfa_register %rbp
	subq	$32, %rsp
	movq	%rdi, -24(%rbp)
	movq	%rsi, -16(%rbp)
Ltmp666:
	.loc	30 250 5 prologue_end
	movq	-24(%rbp), %rdi
	movq	-16(%rbp), %rsi
	callq	__ZN4core3cmp5impls50_$LT$impl$u20$core..cmp..Ord$u20$for$u20$usize$GT$3cmp17h1f90ad52e7bf8395E
	addq	$32, %rsp
	popq	%rbp
	retq
Ltmp667:
Lfunc_end98:
	.cfi_endproc

	.p2align	4, 0x90
__ZN4core3ops8function6FnOnce9call_once17hae09334cdb9fc3b0E:
Lfunc_begin99:
	.loc	30 250 0
	.cfi_startproc
	pushq	%rbp
	.cfi_def_cfa_offset 16
	.cfi_offset %rbp, -16
	movq	%rsp, %rbp
	.cfi_def_cfa_register %rbp
	subq	$32, %rsp
	movq	%rdi, -24(%rbp)
	movq	%rsi, -16(%rbp)
Ltmp668:
	.loc	30 250 5 prologue_end
	movq	-24(%rbp), %rdi
	movq	-16(%rbp), %rsi
	callq	__ZN4core3cmp5impls48_$LT$impl$u20$core..cmp..Ord$u20$for$u20$u16$GT$3cmp17h729dc6f4b419d933E
	addq	$32, %rsp
	popq	%rbp
	retq
Ltmp669:
Lfunc_end99:
	.cfi_endproc

	.globl	__ZN4core3ops9try_trait26NeverShortCircuit$LT$T$GT$14wrap_mut_2_imp17haf7ee5165c080ce8E
	.p2align	4, 0x90
__ZN4core3ops9try_trait26NeverShortCircuit$LT$T$GT$14wrap_mut_2_imp17haf7ee5165c080ce8E:
Lfunc_begin100:
	.loc	4 384 0
	.cfi_startproc
	pushq	%rbp
	.cfi_def_cfa_offset 16
	.cfi_offset %rbp, -16
	movq	%rsp, %rbp
	.cfi_def_cfa_register %rbp
	subq	$48, %rsp
	movq	%rdi, -32(%rbp)
Ltmp670:
	.loc	4 388 27 prologue_end
	callq	__ZN4core4iter6traits8iterator8Iterator8for_each4call28_$u7b$$u7b$closure$u7d$$u7d$17h8cbf56d2d7c28da3E
Ltmp671:
	.loc	4 389 6
	addq	$48, %rsp
	popq	%rbp
	retq
Ltmp672:
Lfunc_end100:
	.cfi_endproc

	.globl	__ZN4core3ops9try_trait26NeverShortCircuit$LT$T$GT$14wrap_mut_2_imp17he5f1b5fb1cf732cdE
	.p2align	4, 0x90
__ZN4core3ops9try_trait26NeverShortCircuit$LT$T$GT$14wrap_mut_2_imp17he5f1b5fb1cf732cdE:
Lfunc_begin101:
	.loc	4 384 0
	.cfi_startproc
	pushq	%rbp
	.cfi_def_cfa_offset 16
	.cfi_offset %rbp, -16
	movq	%rsp, %rbp
	.cfi_def_cfa_register %rbp
	subq	$48, %rsp
	movq	%rdi, -32(%rbp)
Ltmp673:
	.loc	4 388 27 prologue_end
	callq	__ZN4core4iter6traits8iterator8Iterator8for_each4call28_$u7b$$u7b$closure$u7d$$u7d$17haf056c0575db9013E
Ltmp674:
	.loc	4 389 6
	addq	$48, %rsp
	popq	%rbp
	retq
Ltmp675:
Lfunc_end101:
	.cfi_endproc

	.globl	__ZN4core3ptr102drop_in_place$LT$alloc..boxed..Box$LT$$u5b$core..mem..maybe_uninit..MaybeUninit$LT$u8$GT$$u5d$$GT$$GT$17h9ed7a75f8efbfe59E
	.p2align	4, 0x90
__ZN4core3ptr102drop_in_place$LT$alloc..boxed..Box$LT$$u5b$core..mem..maybe_uninit..MaybeUninit$LT$u8$GT$$u5d$$GT$$GT$17h9ed7a75f8efbfe59E:
Lfunc_begin102:
	.loc	10 490 0
	.cfi_startproc
	pushq	%rbp
	.cfi_def_cfa_offset 16
	.cfi_offset %rbp, -16
	movq	%rsp, %rbp
	.cfi_def_cfa_register %rbp
	subq	$32, %rsp
	movq	%rdi, -32(%rbp)
	movq	%rdi, -24(%rbp)
	movq	-32(%rbp), %rax
Ltmp676:
	.loc	10 490 1 prologue_end
	movq	(%rax), %rdi
	movq	8(%rax), %rsi
	callq	__ZN5alloc5alloc8box_free17h0a8eb6536820f7f6E
	addq	$32, %rsp
	popq	%rbp
	retq
Ltmp677:
Lfunc_end102:
	.cfi_endproc

	.globl	__ZN4core3ptr40drop_in_place$LT$weezl..encode..Tree$GT$17h660aeb598cb94a4bE
	.p2align	4, 0x90
__ZN4core3ptr40drop_in_place$LT$weezl..encode..Tree$GT$17h660aeb598cb94a4bE:
Lfunc_begin103:
	.loc	10 490 0
	.cfi_startproc
	.cfi_personality 155, _rust_eh_personality
	.cfi_lsda 16, Lexception23
	pushq	%rbp
	.cfi_def_cfa_offset 16
	.cfi_offset %rbp, -16
	movq	%rsp, %rbp
	.cfi_def_cfa_register %rbp
	subq	$32, %rsp
	movq	%rdi, -32(%rbp)
	movq	%rdi, -24(%rbp)
Ltmp678:
Ltmp689:
	.loc	10 490 1 prologue_end
	callq	__ZN4core3ptr65drop_in_place$LT$alloc..vec..Vec$LT$weezl..encode..Simple$GT$$GT$17h27d89e6771ee02d5E
Ltmp679:
	jmp	LBB103_3
LBB103_1:
	.loc	10 0 1 is_stmt 0
	movq	-32(%rbp), %rdi
	.loc	10 490 1
	addq	$24, %rdi
Ltmp681:
	callq	__ZN4core3ptr63drop_in_place$LT$alloc..vec..Vec$LT$weezl..encode..Full$GT$$GT$17h6f1dd0aeec58dbb6E
Ltmp682:
	jmp	LBB103_5
LBB103_2:
Ltmp680:
	.loc	10 0 1
	movq	%rax, %rcx
	movl	%edx, %eax
	movq	%rcx, -16(%rbp)
	movl	%eax, -8(%rbp)
	jmp	LBB103_1
LBB103_3:
	movq	-32(%rbp), %rdi
	.loc	10 490 1
	addq	$24, %rdi
Ltmp683:
	callq	__ZN4core3ptr63drop_in_place$LT$alloc..vec..Vec$LT$weezl..encode..Full$GT$$GT$17h6f1dd0aeec58dbb6E
Ltmp684:
	jmp	LBB103_7
LBB103_4:
Ltmp688:
	callq	__ZN4core9panicking19panic_cannot_unwind17h1fbca7e1d7f56ae1E
LBB103_5:
	.loc	10 0 1
	movq	-32(%rbp), %rdi
	.loc	10 490 1
	addq	$48, %rdi
Ltmp686:
	callq	__ZN4core3ptr72drop_in_place$LT$alloc..vec..Vec$LT$weezl..encode..CompressedKey$GT$$GT$17hcaeb105719718065E
Ltmp687:
	jmp	LBB103_8
LBB103_6:
Ltmp685:
	.loc	10 0 1
	movq	%rax, %rcx
	movl	%edx, %eax
	movq	%rcx, -16(%rbp)
	movl	%eax, -8(%rbp)
	jmp	LBB103_5
LBB103_7:
	movq	-32(%rbp), %rdi
	.loc	10 490 1
	addq	$48, %rdi
	callq	__ZN4core3ptr72drop_in_place$LT$alloc..vec..Vec$LT$weezl..encode..CompressedKey$GT$$GT$17hcaeb105719718065E
	addq	$32, %rsp
	popq	%rbp
	retq
LBB103_8:
	movq	-16(%rbp), %rdi
	callq	__Unwind_Resume
Ltmp690:
Lfunc_end103:
	.cfi_endproc
	.section	__TEXT,__gcc_except_tab
	.p2align	2
GCC_except_table103:
Lexception23:
	.byte	255
	.byte	255
	.byte	1
	.uleb128 Lcst_end23-Lcst_begin23
Lcst_begin23:
	.uleb128 Ltmp678-Lfunc_begin103
	.uleb128 Ltmp679-Ltmp678
	.uleb128 Ltmp680-Lfunc_begin103
	.byte	0
	.uleb128 Ltmp681-Lfunc_begin103
	.uleb128 Ltmp682-Ltmp681
	.uleb128 Ltmp688-Lfunc_begin103
	.byte	0
	.uleb128 Ltmp683-Lfunc_begin103
	.uleb128 Ltmp684-Ltmp683
	.uleb128 Ltmp685-Lfunc_begin103
	.byte	0
	.uleb128 Ltmp686-Lfunc_begin103
	.uleb128 Ltmp687-Ltmp686
	.uleb128 Ltmp688-Lfunc_begin103
	.byte	0
	.uleb128 Ltmp687-Lfunc_begin103
	.uleb128 Lfunc_end103-Ltmp687
	.byte	0
	.byte	0
Lcst_end23:
	.p2align	2

	.section	__TEXT,__text,regular,pure_instructions
	.globl	__ZN4core3ptr41drop_in_place$LT$weezl..decode..Table$GT$17h5e1d6f1402480c64E
	.p2align	4, 0x90
__ZN4core3ptr41drop_in_place$LT$weezl..decode..Table$GT$17h5e1d6f1402480c64E:
Lfunc_begin104:
	.loc	10 490 0 is_stmt 1
	.cfi_startproc
	.cfi_personality 155, _rust_eh_personality
	.cfi_lsda 16, Lexception24
	pushq	%rbp
	.cfi_def_cfa_offset 16
	.cfi_offset %rbp, -16
	movq	%rsp, %rbp
	.cfi_def_cfa_register %rbp
	subq	$32, %rsp
	movq	%rdi, -32(%rbp)
	movq	%rdi, -24(%rbp)
Ltmp691:
Ltmp697:
	.loc	10 490 1 prologue_end
	callq	__ZN4core3ptr63drop_in_place$LT$alloc..vec..Vec$LT$weezl..decode..Link$GT$$GT$17hd511d0e21d18bac5E
Ltmp692:
	jmp	LBB104_3
LBB104_1:
	.loc	10 0 1 is_stmt 0
	movq	-32(%rbp), %rdi
	.loc	10 490 1
	addq	$24, %rdi
Ltmp694:
	callq	__ZN4core3ptr47drop_in_place$LT$alloc..vec..Vec$LT$u16$GT$$GT$17h5fd6a7f78903f754E
Ltmp695:
	jmp	LBB104_5
LBB104_2:
Ltmp693:
	.loc	10 0 1
	movq	%rax, %rcx
	movl	%edx, %eax
	movq	%rcx, -16(%rbp)
	movl	%eax, -8(%rbp)
	jmp	LBB104_1
LBB104_3:
	movq	-32(%rbp), %rdi
	.loc	10 490 1
	addq	$24, %rdi
	callq	__ZN4core3ptr47drop_in_place$LT$alloc..vec..Vec$LT$u16$GT$$GT$17h5fd6a7f78903f754E
	addq	$32, %rsp
	popq	%rbp
	retq
LBB104_4:
Ltmp696:
	callq	__ZN4core9panicking19panic_cannot_unwind17h1fbca7e1d7f56ae1E
LBB104_5:
	movq	-16(%rbp), %rdi
	callq	__Unwind_Resume
Ltmp698:
Lfunc_end104:
	.cfi_endproc
	.section	__TEXT,__gcc_except_tab
	.p2align	2
GCC_except_table104:
Lexception24:
	.byte	255
	.byte	255
	.byte	1
	.uleb128 Lcst_end24-Lcst_begin24
Lcst_begin24:
	.uleb128 Ltmp691-Lfunc_begin104
	.uleb128 Ltmp692-Ltmp691
	.uleb128 Ltmp693-Lfunc_begin104
	.byte	0
	.uleb128 Ltmp694-Lfunc_begin104
	.uleb128 Ltmp695-Ltmp694
	.uleb128 Ltmp696-Lfunc_begin104
	.byte	0
	.uleb128 Ltmp695-Lfunc_begin104
	.uleb128 Lfunc_end104-Ltmp695
	.byte	0
	.byte	0
Lcst_end24:
	.p2align	2

	.section	__TEXT,__text,regular,pure_instructions
	.globl	__ZN4core3ptr42drop_in_place$LT$weezl..decode..Buffer$GT$17h239faa1c346c473aE
	.p2align	4, 0x90
__ZN4core3ptr42drop_in_place$LT$weezl..decode..Buffer$GT$17h239faa1c346c473aE:
Lfunc_begin105:
	.loc	10 490 0 is_stmt 1
	.cfi_startproc
	pushq	%rbp
	.cfi_def_cfa_offset 16
	.cfi_offset %rbp, -16
	movq	%rsp, %rbp
	.cfi_def_cfa_register %rbp
	subq	$16, %rsp
	movq	%rdi, -8(%rbp)
Ltmp699:
	.loc	10 490 1 prologue_end
	callq	__ZN4core3ptr58drop_in_place$LT$alloc..boxed..Box$LT$$u5b$u8$u5d$$GT$$GT$17h18381bd9c2fa1c05E
	addq	$16, %rsp
	popq	%rbp
	retq
Ltmp700:
Lfunc_end105:
	.cfi_endproc

	.globl	__ZN4core3ptr46drop_in_place$LT$alloc..vec..Vec$LT$u8$GT$$GT$17h35b49b463314a270E
	.p2align	4, 0x90
__ZN4core3ptr46drop_in_place$LT$alloc..vec..Vec$LT$u8$GT$$GT$17h35b49b463314a270E:
Lfunc_begin106:
	.loc	10 490 0
	.cfi_startproc
	.cfi_personality 155, _rust_eh_personality
	.cfi_lsda 16, Lexception25
	pushq	%rbp
	.cfi_def_cfa_offset 16
	.cfi_offset %rbp, -16
	movq	%rsp, %rbp
	.cfi_def_cfa_register %rbp
	subq	$32, %rsp
	movq	%rdi, -32(%rbp)
	movq	%rdi, -24(%rbp)
Ltmp701:
Ltmp707:
	.loc	10 490 1 prologue_end
	callq	__ZN70_$LT$alloc..vec..Vec$LT$T$C$A$GT$$u20$as$u20$core..ops..drop..Drop$GT$4drop17h96116ffcaf578eeaE
Ltmp702:
	jmp	LBB106_3
LBB106_1:
Ltmp704:
	.loc	10 0 1 is_stmt 0
	movq	-32(%rbp), %rdi
	.loc	10 490 1
	callq	__ZN4core3ptr53drop_in_place$LT$alloc..raw_vec..RawVec$LT$u8$GT$$GT$17hf0044cf486ed61feE
Ltmp705:
	jmp	LBB106_5
LBB106_2:
Ltmp703:
	.loc	10 0 1
	movq	%rax, %rcx
	movl	%edx, %eax
	movq	%rcx, -16(%rbp)
	movl	%eax, -8(%rbp)
	jmp	LBB106_1
LBB106_3:
	movq	-32(%rbp), %rdi
	.loc	10 490 1
	callq	__ZN4core3ptr53drop_in_place$LT$alloc..raw_vec..RawVec$LT$u8$GT$$GT$17hf0044cf486ed61feE
	addq	$32, %rsp
	popq	%rbp
	retq
LBB106_4:
Ltmp706:
	callq	__ZN4core9panicking19panic_cannot_unwind17h1fbca7e1d7f56ae1E
LBB106_5:
	movq	-16(%rbp), %rdi
	callq	__Unwind_Resume
Ltmp708:
Lfunc_end106:
	.cfi_endproc
	.section	__TEXT,__gcc_except_tab
	.p2align	2
GCC_except_table106:
Lexception25:
	.byte	255
	.byte	255
	.byte	1
	.uleb128 Lcst_end25-Lcst_begin25
Lcst_begin25:
	.uleb128 Ltmp701-Lfunc_begin106
	.uleb128 Ltmp702-Ltmp701
	.uleb128 Ltmp703-Lfunc_begin106
	.byte	0
	.uleb128 Ltmp704-Lfunc_begin106
	.uleb128 Ltmp705-Ltmp704
	.uleb128 Ltmp706-Lfunc_begin106
	.byte	0
	.uleb128 Ltmp705-Lfunc_begin106
	.uleb128 Lfunc_end106-Ltmp705
	.byte	0
	.byte	0
Lcst_end25:
	.p2align	2

	.section	__TEXT,__text,regular,pure_instructions
	.globl	__ZN4core3ptr47drop_in_place$LT$alloc..vec..Vec$LT$u16$GT$$GT$17h5fd6a7f78903f754E
	.p2align	4, 0x90
__ZN4core3ptr47drop_in_place$LT$alloc..vec..Vec$LT$u16$GT$$GT$17h5fd6a7f78903f754E:
Lfunc_begin107:
	.loc	10 490 0 is_stmt 1
	.cfi_startproc
	.cfi_personality 155, _rust_eh_personality
	.cfi_lsda 16, Lexception26
	pushq	%rbp
	.cfi_def_cfa_offset 16
	.cfi_offset %rbp, -16
	movq	%rsp, %rbp
	.cfi_def_cfa_register %rbp
	subq	$32, %rsp
	movq	%rdi, -32(%rbp)
	movq	%rdi, -24(%rbp)
Ltmp709:
Ltmp715:
	.loc	10 490 1 prologue_end
	callq	__ZN70_$LT$alloc..vec..Vec$LT$T$C$A$GT$$u20$as$u20$core..ops..drop..Drop$GT$4drop17h8118334849dbece0E
Ltmp710:
	jmp	LBB107_3
LBB107_1:
Ltmp712:
	.loc	10 0 1 is_stmt 0
	movq	-32(%rbp), %rdi
	.loc	10 490 1
	callq	__ZN4core3ptr54drop_in_place$LT$alloc..raw_vec..RawVec$LT$u16$GT$$GT$17h20bad27a1f76829bE
Ltmp713:
	jmp	LBB107_5
LBB107_2:
Ltmp711:
	.loc	10 0 1
	movq	%rax, %rcx
	movl	%edx, %eax
	movq	%rcx, -16(%rbp)
	movl	%eax, -8(%rbp)
	jmp	LBB107_1
LBB107_3:
	movq	-32(%rbp), %rdi
	.loc	10 490 1
	callq	__ZN4core3ptr54drop_in_place$LT$alloc..raw_vec..RawVec$LT$u16$GT$$GT$17h20bad27a1f76829bE
	addq	$32, %rsp
	popq	%rbp
	retq
LBB107_4:
Ltmp714:
	callq	__ZN4core9panicking19panic_cannot_unwind17h1fbca7e1d7f56ae1E
LBB107_5:
	movq	-16(%rbp), %rdi
	callq	__Unwind_Resume
Ltmp716:
Lfunc_end107:
	.cfi_endproc
	.section	__TEXT,__gcc_except_tab
	.p2align	2
GCC_except_table107:
Lexception26:
	.byte	255
	.byte	255
	.byte	1
	.uleb128 Lcst_end26-Lcst_begin26
Lcst_begin26:
	.uleb128 Ltmp709-Lfunc_begin107
	.uleb128 Ltmp710-Ltmp709
	.uleb128 Ltmp711-Lfunc_begin107
	.byte	0
	.uleb128 Ltmp712-Lfunc_begin107
	.uleb128 Ltmp713-Ltmp712
	.uleb128 Ltmp714-Lfunc_begin107
	.byte	0
	.uleb128 Ltmp713-Lfunc_begin107
	.uleb128 Lfunc_end107-Ltmp713
	.byte	0
	.byte	0
Lcst_end26:
	.p2align	2

	.section	__TEXT,__text,regular,pure_instructions
	.globl	__ZN4core3ptr53drop_in_place$LT$alloc..raw_vec..RawVec$LT$u8$GT$$GT$17hf0044cf486ed61feE
	.p2align	4, 0x90
__ZN4core3ptr53drop_in_place$LT$alloc..raw_vec..RawVec$LT$u8$GT$$GT$17hf0044cf486ed61feE:
Lfunc_begin108:
	.loc	10 490 0 is_stmt 1
	.cfi_startproc
	pushq	%rbp
	.cfi_def_cfa_offset 16
	.cfi_offset %rbp, -16
	movq	%rsp, %rbp
	.cfi_def_cfa_register %rbp
	subq	$16, %rsp
	movq	%rdi, -8(%rbp)
Ltmp717:
	.loc	10 490 1 prologue_end
	callq	__ZN77_$LT$alloc..raw_vec..RawVec$LT$T$C$A$GT$$u20$as$u20$core..ops..drop..Drop$GT$4drop17h7503c9b97bc2e6d7E
	addq	$16, %rsp
	popq	%rbp
	retq
Ltmp718:
Lfunc_end108:
	.cfi_endproc

	.globl	__ZN4core3ptr54drop_in_place$LT$alloc..raw_vec..RawVec$LT$u16$GT$$GT$17h20bad27a1f76829bE
	.p2align	4, 0x90
__ZN4core3ptr54drop_in_place$LT$alloc..raw_vec..RawVec$LT$u16$GT$$GT$17h20bad27a1f76829bE:
Lfunc_begin109:
	.loc	10 490 0
	.cfi_startproc
	pushq	%rbp
	.cfi_def_cfa_offset 16
	.cfi_offset %rbp, -16
	movq	%rsp, %rbp
	.cfi_def_cfa_register %rbp
	subq	$16, %rsp
	movq	%rdi, -8(%rbp)
Ltmp719:
	.loc	10 490 1 prologue_end
	callq	__ZN77_$LT$alloc..raw_vec..RawVec$LT$T$C$A$GT$$u20$as$u20$core..ops..drop..Drop$GT$4drop17ha9c6d663c548a27cE
	addq	$16, %rsp
	popq	%rbp
	retq
Ltmp720:
Lfunc_end109:
	.cfi_endproc

	.globl	__ZN4core3ptr58drop_in_place$LT$alloc..boxed..Box$LT$$u5b$u8$u5d$$GT$$GT$17h18381bd9c2fa1c05E
	.p2align	4, 0x90
__ZN4core3ptr58drop_in_place$LT$alloc..boxed..Box$LT$$u5b$u8$u5d$$GT$$GT$17h18381bd9c2fa1c05E:
Lfunc_begin110:
	.loc	10 490 0
	.cfi_startproc
	pushq	%rbp
	.cfi_def_cfa_offset 16
	.cfi_offset %rbp, -16
	movq	%rsp, %rbp
	.cfi_def_cfa_register %rbp
	subq	$32, %rsp
	movq	%rdi, -32(%rbp)
	movq	%rdi, -24(%rbp)
	movq	-32(%rbp), %rax
Ltmp721:
	.loc	10 490 1 prologue_end
	movq	(%rax), %rdi
	movq	8(%rax), %rsi
	callq	__ZN5alloc5alloc8box_free17hcd8c88e8eda88455E
	addq	$32, %rsp
	popq	%rbp
	retq
Ltmp722:
Lfunc_end110:
	.cfi_endproc

	.globl	__ZN4core3ptr62drop_in_place$LT$alloc..vec..set_len_on_drop..SetLenOnDrop$GT$17ha5f5fac3bcc90efaE
	.p2align	4, 0x90
__ZN4core3ptr62drop_in_place$LT$alloc..vec..set_len_on_drop..SetLenOnDrop$GT$17ha5f5fac3bcc90efaE:
Lfunc_begin111:
	.loc	10 490 0
	.cfi_startproc
	pushq	%rbp
	.cfi_def_cfa_offset 16
	.cfi_offset %rbp, -16
	movq	%rsp, %rbp
	.cfi_def_cfa_register %rbp
	subq	$16, %rsp
	movq	%rdi, -8(%rbp)
Ltmp723:
	.loc	10 490 1 prologue_end
	callq	__ZN83_$LT$alloc..vec..set_len_on_drop..SetLenOnDrop$u20$as$u20$core..ops..drop..Drop$GT$4drop17h7a6ade57b459dec3E
	addq	$16, %rsp
	popq	%rbp
	retq
Ltmp724:
Lfunc_end111:
	.cfi_endproc

	.globl	__ZN4core3ptr63drop_in_place$LT$alloc..vec..Vec$LT$weezl..decode..Link$GT$$GT$17hd511d0e21d18bac5E
	.p2align	4, 0x90
__ZN4core3ptr63drop_in_place$LT$alloc..vec..Vec$LT$weezl..decode..Link$GT$$GT$17hd511d0e21d18bac5E:
Lfunc_begin112:
	.loc	10 490 0
	.cfi_startproc
	.cfi_personality 155, _rust_eh_personality
	.cfi_lsda 16, Lexception27
	pushq	%rbp
	.cfi_def_cfa_offset 16
	.cfi_offset %rbp, -16
	movq	%rsp, %rbp
	.cfi_def_cfa_register %rbp
	subq	$32, %rsp
	movq	%rdi, -32(%rbp)
	movq	%rdi, -24(%rbp)
Ltmp725:
Ltmp731:
	.loc	10 490 1 prologue_end
	callq	__ZN70_$LT$alloc..vec..Vec$LT$T$C$A$GT$$u20$as$u20$core..ops..drop..Drop$GT$4drop17hb7f1adf9f0e74f8fE
Ltmp726:
	jmp	LBB112_3
LBB112_1:
Ltmp728:
	.loc	10 0 1 is_stmt 0
	movq	-32(%rbp), %rdi
	.loc	10 490 1
	callq	__ZN4core3ptr70drop_in_place$LT$alloc..raw_vec..RawVec$LT$weezl..decode..Link$GT$$GT$17h00c46a81b287ddd5E
Ltmp729:
	jmp	LBB112_5
LBB112_2:
Ltmp727:
	.loc	10 0 1
	movq	%rax, %rcx
	movl	%edx, %eax
	movq	%rcx, -16(%rbp)
	movl	%eax, -8(%rbp)
	jmp	LBB112_1
LBB112_3:
	movq	-32(%rbp), %rdi
	.loc	10 490 1
	callq	__ZN4core3ptr70drop_in_place$LT$alloc..raw_vec..RawVec$LT$weezl..decode..Link$GT$$GT$17h00c46a81b287ddd5E
	addq	$32, %rsp
	popq	%rbp
	retq
LBB112_4:
Ltmp730:
	callq	__ZN4core9panicking19panic_cannot_unwind17h1fbca7e1d7f56ae1E
LBB112_5:
	movq	-16(%rbp), %rdi
	callq	__Unwind_Resume
Ltmp732:
Lfunc_end112:
	.cfi_endproc
	.section	__TEXT,__gcc_except_tab
	.p2align	2
GCC_except_table112:
Lexception27:
	.byte	255
	.byte	255
	.byte	1
	.uleb128 Lcst_end27-Lcst_begin27
Lcst_begin27:
	.uleb128 Ltmp725-Lfunc_begin112
	.uleb128 Ltmp726-Ltmp725
	.uleb128 Ltmp727-Lfunc_begin112
	.byte	0
	.uleb128 Ltmp728-Lfunc_begin112
	.uleb128 Ltmp729-Ltmp728
	.uleb128 Ltmp730-Lfunc_begin112
	.byte	0
	.uleb128 Ltmp729-Lfunc_begin112
	.uleb128 Lfunc_end112-Ltmp729
	.byte	0
	.byte	0
Lcst_end27:
	.p2align	2

	.section	__TEXT,__text,regular,pure_instructions
	.globl	__ZN4core3ptr63drop_in_place$LT$alloc..vec..Vec$LT$weezl..encode..Full$GT$$GT$17h6f1dd0aeec58dbb6E
	.p2align	4, 0x90
__ZN4core3ptr63drop_in_place$LT$alloc..vec..Vec$LT$weezl..encode..Full$GT$$GT$17h6f1dd0aeec58dbb6E:
Lfunc_begin113:
	.loc	10 490 0 is_stmt 1
	.cfi_startproc
	.cfi_personality 155, _rust_eh_personality
	.cfi_lsda 16, Lexception28
	pushq	%rbp
	.cfi_def_cfa_offset 16
	.cfi_offset %rbp, -16
	movq	%rsp, %rbp
	.cfi_def_cfa_register %rbp
	subq	$32, %rsp
	movq	%rdi, -32(%rbp)
	movq	%rdi, -24(%rbp)
Ltmp733:
Ltmp739:
	.loc	10 490 1 prologue_end
	callq	__ZN70_$LT$alloc..vec..Vec$LT$T$C$A$GT$$u20$as$u20$core..ops..drop..Drop$GT$4drop17h8831d06a17673464E
Ltmp734:
	jmp	LBB113_3
LBB113_1:
Ltmp736:
	.loc	10 0 1 is_stmt 0
	movq	-32(%rbp), %rdi
	.loc	10 490 1
	callq	__ZN4core3ptr70drop_in_place$LT$alloc..raw_vec..RawVec$LT$weezl..encode..Full$GT$$GT$17h21bb5ff237dc98a1E
Ltmp737:
	jmp	LBB113_5
LBB113_2:
Ltmp735:
	.loc	10 0 1
	movq	%rax, %rcx
	movl	%edx, %eax
	movq	%rcx, -16(%rbp)
	movl	%eax, -8(%rbp)
	jmp	LBB113_1
LBB113_3:
	movq	-32(%rbp), %rdi
	.loc	10 490 1
	callq	__ZN4core3ptr70drop_in_place$LT$alloc..raw_vec..RawVec$LT$weezl..encode..Full$GT$$GT$17h21bb5ff237dc98a1E
	addq	$32, %rsp
	popq	%rbp
	retq
LBB113_4:
Ltmp738:
	callq	__ZN4core9panicking19panic_cannot_unwind17h1fbca7e1d7f56ae1E
LBB113_5:
	movq	-16(%rbp), %rdi
	callq	__Unwind_Resume
Ltmp740:
Lfunc_end113:
	.cfi_endproc
	.section	__TEXT,__gcc_except_tab
	.p2align	2
GCC_except_table113:
Lexception28:
	.byte	255
	.byte	255
	.byte	1
	.uleb128 Lcst_end28-Lcst_begin28
Lcst_begin28:
	.uleb128 Ltmp733-Lfunc_begin113
	.uleb128 Ltmp734-Ltmp733
	.uleb128 Ltmp735-Lfunc_begin113
	.byte	0
	.uleb128 Ltmp736-Lfunc_begin113
	.uleb128 Ltmp737-Ltmp736
	.uleb128 Ltmp738-Lfunc_begin113
	.byte	0
	.uleb128 Ltmp737-Lfunc_begin113
	.uleb128 Lfunc_end113-Ltmp737
	.byte	0
	.byte	0
Lcst_end28:
	.p2align	2

	.section	__TEXT,__text,regular,pure_instructions
	.globl	__ZN4core3ptr65drop_in_place$LT$alloc..vec..Vec$LT$weezl..encode..Simple$GT$$GT$17h27d89e6771ee02d5E
	.p2align	4, 0x90
__ZN4core3ptr65drop_in_place$LT$alloc..vec..Vec$LT$weezl..encode..Simple$GT$$GT$17h27d89e6771ee02d5E:
Lfunc_begin114:
	.loc	10 490 0 is_stmt 1
	.cfi_startproc
	.cfi_personality 155, _rust_eh_personality
	.cfi_lsda 16, Lexception29
	pushq	%rbp
	.cfi_def_cfa_offset 16
	.cfi_offset %rbp, -16
	movq	%rsp, %rbp
	.cfi_def_cfa_register %rbp
	subq	$32, %rsp
	movq	%rdi, -32(%rbp)
	movq	%rdi, -24(%rbp)
Ltmp741:
Ltmp747:
	.loc	10 490 1 prologue_end
	callq	__ZN70_$LT$alloc..vec..Vec$LT$T$C$A$GT$$u20$as$u20$core..ops..drop..Drop$GT$4drop17h26e280e658af8944E
Ltmp742:
	jmp	LBB114_3
LBB114_1:
Ltmp744:
	.loc	10 0 1 is_stmt 0
	movq	-32(%rbp), %rdi
	.loc	10 490 1
	callq	__ZN4core3ptr72drop_in_place$LT$alloc..raw_vec..RawVec$LT$weezl..encode..Simple$GT$$GT$17h4cdcc90ff4babf0cE
Ltmp745:
	jmp	LBB114_5
LBB114_2:
Ltmp743:
	.loc	10 0 1
	movq	%rax, %rcx
	movl	%edx, %eax
	movq	%rcx, -16(%rbp)
	movl	%eax, -8(%rbp)
	jmp	LBB114_1
LBB114_3:
	movq	-32(%rbp), %rdi
	.loc	10 490 1
	callq	__ZN4core3ptr72drop_in_place$LT$alloc..raw_vec..RawVec$LT$weezl..encode..Simple$GT$$GT$17h4cdcc90ff4babf0cE
	addq	$32, %rsp
	popq	%rbp
	retq
LBB114_4:
Ltmp746:
	callq	__ZN4core9panicking19panic_cannot_unwind17h1fbca7e1d7f56ae1E
LBB114_5:
	movq	-16(%rbp), %rdi
	callq	__Unwind_Resume
Ltmp748:
Lfunc_end114:
	.cfi_endproc
	.section	__TEXT,__gcc_except_tab
	.p2align	2
GCC_except_table114:
Lexception29:
	.byte	255
	.byte	255
	.byte	1
	.uleb128 Lcst_end29-Lcst_begin29
Lcst_begin29:
	.uleb128 Ltmp741-Lfunc_begin114
	.uleb128 Ltmp742-Ltmp741
	.uleb128 Ltmp743-Lfunc_begin114
	.byte	0
	.uleb128 Ltmp744-Lfunc_begin114
	.uleb128 Ltmp745-Ltmp744
	.uleb128 Ltmp746-Lfunc_begin114
	.byte	0
	.uleb128 Ltmp745-Lfunc_begin114
	.uleb128 Lfunc_end114-Ltmp745
	.byte	0
	.byte	0
Lcst_end29:
	.p2align	2

	.section	__TEXT,__text,regular,pure_instructions
	.globl	__ZN4core3ptr70drop_in_place$LT$alloc..raw_vec..RawVec$LT$weezl..decode..Link$GT$$GT$17h00c46a81b287ddd5E
	.p2align	4, 0x90
__ZN4core3ptr70drop_in_place$LT$alloc..raw_vec..RawVec$LT$weezl..decode..Link$GT$$GT$17h00c46a81b287ddd5E:
Lfunc_begin115:
	.loc	10 490 0 is_stmt 1
	.cfi_startproc
	pushq	%rbp
	.cfi_def_cfa_offset 16
	.cfi_offset %rbp, -16
	movq	%rsp, %rbp
	.cfi_def_cfa_register %rbp
	subq	$16, %rsp
	movq	%rdi, -8(%rbp)
Ltmp749:
	.loc	10 490 1 prologue_end
	callq	__ZN77_$LT$alloc..raw_vec..RawVec$LT$T$C$A$GT$$u20$as$u20$core..ops..drop..Drop$GT$4drop17h7153ad38fd0d22eaE
	addq	$16, %rsp
	popq	%rbp
	retq
Ltmp750:
Lfunc_end115:
	.cfi_endproc

	.globl	__ZN4core3ptr70drop_in_place$LT$alloc..raw_vec..RawVec$LT$weezl..encode..Full$GT$$GT$17h21bb5ff237dc98a1E
	.p2align	4, 0x90
__ZN4core3ptr70drop_in_place$LT$alloc..raw_vec..RawVec$LT$weezl..encode..Full$GT$$GT$17h21bb5ff237dc98a1E:
Lfunc_begin116:
	.loc	10 490 0
	.cfi_startproc
	pushq	%rbp
	.cfi_def_cfa_offset 16
	.cfi_offset %rbp, -16
	movq	%rsp, %rbp
	.cfi_def_cfa_register %rbp
	subq	$16, %rsp
	movq	%rdi, -8(%rbp)
Ltmp751:
	.loc	10 490 1 prologue_end
	callq	__ZN77_$LT$alloc..raw_vec..RawVec$LT$T$C$A$GT$$u20$as$u20$core..ops..drop..Drop$GT$4drop17hae14e3ac74175ce3E
	addq	$16, %rsp
	popq	%rbp
	retq
Ltmp752:
Lfunc_end116:
	.cfi_endproc

	.globl	__ZN4core3ptr72drop_in_place$LT$alloc..raw_vec..RawVec$LT$weezl..encode..Simple$GT$$GT$17h4cdcc90ff4babf0cE
	.p2align	4, 0x90
__ZN4core3ptr72drop_in_place$LT$alloc..raw_vec..RawVec$LT$weezl..encode..Simple$GT$$GT$17h4cdcc90ff4babf0cE:
Lfunc_begin117:
	.loc	10 490 0
	.cfi_startproc
	pushq	%rbp
	.cfi_def_cfa_offset 16
	.cfi_offset %rbp, -16
	movq	%rsp, %rbp
	.cfi_def_cfa_register %rbp
	subq	$16, %rsp
	movq	%rdi, -8(%rbp)
Ltmp753:
	.loc	10 490 1 prologue_end
	callq	__ZN77_$LT$alloc..raw_vec..RawVec$LT$T$C$A$GT$$u20$as$u20$core..ops..drop..Drop$GT$4drop17hc4d7e268d8b1fe59E
	addq	$16, %rsp
	popq	%rbp
	retq
Ltmp754:
Lfunc_end117:
	.cfi_endproc

	.globl	__ZN4core3ptr72drop_in_place$LT$alloc..vec..Vec$LT$weezl..encode..CompressedKey$GT$$GT$17hcaeb105719718065E
	.p2align	4, 0x90
__ZN4core3ptr72drop_in_place$LT$alloc..vec..Vec$LT$weezl..encode..CompressedKey$GT$$GT$17hcaeb105719718065E:
Lfunc_begin118:
	.loc	10 490 0
	.cfi_startproc
	.cfi_personality 155, _rust_eh_personality
	.cfi_lsda 16, Lexception30
	pushq	%rbp
	.cfi_def_cfa_offset 16
	.cfi_offset %rbp, -16
	movq	%rsp, %rbp
	.cfi_def_cfa_register %rbp
	subq	$32, %rsp
	movq	%rdi, -32(%rbp)
	movq	%rdi, -24(%rbp)
Ltmp755:
Ltmp761:
	.loc	10 490 1 prologue_end
	callq	__ZN70_$LT$alloc..vec..Vec$LT$T$C$A$GT$$u20$as$u20$core..ops..drop..Drop$GT$4drop17h05b0ee4cc08acd38E
Ltmp756:
	jmp	LBB118_3
LBB118_1:
Ltmp758:
	.loc	10 0 1 is_stmt 0
	movq	-32(%rbp), %rdi
	.loc	10 490 1
	callq	__ZN4core3ptr79drop_in_place$LT$alloc..raw_vec..RawVec$LT$weezl..encode..CompressedKey$GT$$GT$17h2d1cd1f222035301E
Ltmp759:
	jmp	LBB118_5
LBB118_2:
Ltmp757:
	.loc	10 0 1
	movq	%rax, %rcx
	movl	%edx, %eax
	movq	%rcx, -16(%rbp)
	movl	%eax, -8(%rbp)
	jmp	LBB118_1
LBB118_3:
	movq	-32(%rbp), %rdi
	.loc	10 490 1
	callq	__ZN4core3ptr79drop_in_place$LT$alloc..raw_vec..RawVec$LT$weezl..encode..CompressedKey$GT$$GT$17h2d1cd1f222035301E
	addq	$32, %rsp
	popq	%rbp
	retq
LBB118_4:
Ltmp760:
	callq	__ZN4core9panicking19panic_cannot_unwind17h1fbca7e1d7f56ae1E
LBB118_5:
	movq	-16(%rbp), %rdi
	callq	__Unwind_Resume
Ltmp762:
Lfunc_end118:
	.cfi_endproc
	.section	__TEXT,__gcc_except_tab
	.p2align	2
GCC_except_table118:
Lexception30:
	.byte	255
	.byte	255
	.byte	1
	.uleb128 Lcst_end30-Lcst_begin30
Lcst_begin30:
	.uleb128 Ltmp755-Lfunc_begin118
	.uleb128 Ltmp756-Ltmp755
	.uleb128 Ltmp757-Lfunc_begin118
	.byte	0
	.uleb128 Ltmp758-Lfunc_begin118
	.uleb128 Ltmp759-Ltmp758
	.uleb128 Ltmp760-Lfunc_begin118
	.byte	0
	.uleb128 Ltmp759-Lfunc_begin118
	.uleb128 Lfunc_end118-Ltmp759
	.byte	0
	.byte	0
Lcst_end30:
	.p2align	2

	.section	__TEXT,__text,regular,pure_instructions
	.globl	__ZN4core3ptr79drop_in_place$LT$alloc..raw_vec..RawVec$LT$weezl..encode..CompressedKey$GT$$GT$17h2d1cd1f222035301E
	.p2align	4, 0x90
__ZN4core3ptr79drop_in_place$LT$alloc..raw_vec..RawVec$LT$weezl..encode..CompressedKey$GT$$GT$17h2d1cd1f222035301E:
Lfunc_begin119:
	.loc	10 490 0 is_stmt 1
	.cfi_startproc
	pushq	%rbp
	.cfi_def_cfa_offset 16
	.cfi_offset %rbp, -16
	movq	%rsp, %rbp
	.cfi_def_cfa_register %rbp
	subq	$16, %rsp
	movq	%rdi, -8(%rbp)
Ltmp763:
	.loc	10 490 1 prologue_end
	callq	__ZN77_$LT$alloc..raw_vec..RawVec$LT$T$C$A$GT$$u20$as$u20$core..ops..drop..Drop$GT$4drop17h9c2a3fe7c7985528E
	addq	$16, %rsp
	popq	%rbp
	retq
Ltmp764:
Lfunc_end119:
	.cfi_endproc

	.globl	__ZN4core3ptr79drop_in_place$LT$weezl..decode..DecodeState$LT$weezl..decode..LsbBuffer$GT$$GT$17h7548c949e5afab5cE
	.p2align	4, 0x90
__ZN4core3ptr79drop_in_place$LT$weezl..decode..DecodeState$LT$weezl..decode..LsbBuffer$GT$$GT$17h7548c949e5afab5cE:
Lfunc_begin120:
	.loc	10 490 0
	.cfi_startproc
	.cfi_personality 155, _rust_eh_personality
	.cfi_lsda 16, Lexception31
	pushq	%rbp
	.cfi_def_cfa_offset 16
	.cfi_offset %rbp, -16
	movq	%rsp, %rbp
	.cfi_def_cfa_register %rbp
	subq	$32, %rsp
	movq	%rdi, -32(%rbp)
	movq	%rdi, -24(%rbp)
Ltmp771:
	.loc	10 490 1 prologue_end
	addq	$48, %rdi
Ltmp765:
	callq	__ZN4core3ptr41drop_in_place$LT$weezl..decode..Table$GT$17h5e1d6f1402480c64E
Ltmp766:
	jmp	LBB120_3
LBB120_1:
Ltmp768:
	.loc	10 0 1 is_stmt 0
	movq	-32(%rbp), %rdi
	.loc	10 490 1
	callq	__ZN4core3ptr42drop_in_place$LT$weezl..decode..Buffer$GT$17h239faa1c346c473aE
Ltmp769:
	jmp	LBB120_5
LBB120_2:
Ltmp767:
	.loc	10 0 1
	movq	%rax, %rcx
	movl	%edx, %eax
	movq	%rcx, -16(%rbp)
	movl	%eax, -8(%rbp)
	jmp	LBB120_1
LBB120_3:
	movq	-32(%rbp), %rdi
	.loc	10 490 1
	callq	__ZN4core3ptr42drop_in_place$LT$weezl..decode..Buffer$GT$17h239faa1c346c473aE
	addq	$32, %rsp
	popq	%rbp
	retq
LBB120_4:
Ltmp770:
	callq	__ZN4core9panicking19panic_cannot_unwind17h1fbca7e1d7f56ae1E
LBB120_5:
	movq	-16(%rbp), %rdi
	callq	__Unwind_Resume
Ltmp772:
Lfunc_end120:
	.cfi_endproc
	.section	__TEXT,__gcc_except_tab
	.p2align	2
GCC_except_table120:
Lexception31:
	.byte	255
	.byte	255
	.byte	1
	.uleb128 Lcst_end31-Lcst_begin31
Lcst_begin31:
	.uleb128 Ltmp765-Lfunc_begin120
	.uleb128 Ltmp766-Ltmp765
	.uleb128 Ltmp767-Lfunc_begin120
	.byte	0
	.uleb128 Ltmp768-Lfunc_begin120
	.uleb128 Ltmp769-Ltmp768
	.uleb128 Ltmp770-Lfunc_begin120
	.byte	0
	.uleb128 Ltmp769-Lfunc_begin120
	.uleb128 Lfunc_end120-Ltmp769
	.byte	0
	.byte	0
Lcst_end31:
	.p2align	2

	.section	__TEXT,__text,regular,pure_instructions
	.globl	__ZN4core3ptr79drop_in_place$LT$weezl..decode..DecodeState$LT$weezl..decode..MsbBuffer$GT$$GT$17h21688b8e4ec83cd8E
	.p2align	4, 0x90
__ZN4core3ptr79drop_in_place$LT$weezl..decode..DecodeState$LT$weezl..decode..MsbBuffer$GT$$GT$17h21688b8e4ec83cd8E:
Lfunc_begin121:
	.loc	10 490 0 is_stmt 1
	.cfi_startproc
	.cfi_personality 155, _rust_eh_personality
	.cfi_lsda 16, Lexception32
	pushq	%rbp
	.cfi_def_cfa_offset 16
	.cfi_offset %rbp, -16
	movq	%rsp, %rbp
	.cfi_def_cfa_register %rbp
	subq	$32, %rsp
	movq	%rdi, -32(%rbp)
	movq	%rdi, -24(%rbp)
Ltmp779:
	.loc	10 490 1 prologue_end
	addq	$48, %rdi
Ltmp773:
	callq	__ZN4core3ptr41drop_in_place$LT$weezl..decode..Table$GT$17h5e1d6f1402480c64E
Ltmp774:
	jmp	LBB121_3
LBB121_1:
Ltmp776:
	.loc	10 0 1 is_stmt 0
	movq	-32(%rbp), %rdi
	.loc	10 490 1
	callq	__ZN4core3ptr42drop_in_place$LT$weezl..decode..Buffer$GT$17h239faa1c346c473aE
Ltmp777:
	jmp	LBB121_5
LBB121_2:
Ltmp775:
	.loc	10 0 1
	movq	%rax, %rcx
	movl	%edx, %eax
	movq	%rcx, -16(%rbp)
	movl	%eax, -8(%rbp)
	jmp	LBB121_1
LBB121_3:
	movq	-32(%rbp), %rdi
	.loc	10 490 1
	callq	__ZN4core3ptr42drop_in_place$LT$weezl..decode..Buffer$GT$17h239faa1c346c473aE
	addq	$32, %rsp
	popq	%rbp
	retq
LBB121_4:
Ltmp778:
	callq	__ZN4core9panicking19panic_cannot_unwind17h1fbca7e1d7f56ae1E
LBB121_5:
	movq	-16(%rbp), %rdi
	callq	__Unwind_Resume
Ltmp780:
Lfunc_end121:
	.cfi_endproc
	.section	__TEXT,__gcc_except_tab
	.p2align	2
GCC_except_table121:
Lexception32:
	.byte	255
	.byte	255
	.byte	1
	.uleb128 Lcst_end32-Lcst_begin32
Lcst_begin32:
	.uleb128 Ltmp773-Lfunc_begin121
	.uleb128 Ltmp774-Ltmp773
	.uleb128 Ltmp775-Lfunc_begin121
	.byte	0
	.uleb128 Ltmp776-Lfunc_begin121
	.uleb128 Ltmp777-Ltmp776
	.uleb128 Ltmp778-Lfunc_begin121
	.byte	0
	.uleb128 Ltmp777-Lfunc_begin121
	.uleb128 Lfunc_end121-Ltmp777
	.byte	0
	.byte	0
Lcst_end32:
	.p2align	2

	.section	__TEXT,__text,regular,pure_instructions
	.globl	__ZN4core3ptr79drop_in_place$LT$weezl..encode..EncodeState$LT$weezl..encode..LsbBuffer$GT$$GT$17hb03851fcfc2e4f25E
	.p2align	4, 0x90
__ZN4core3ptr79drop_in_place$LT$weezl..encode..EncodeState$LT$weezl..encode..LsbBuffer$GT$$GT$17hb03851fcfc2e4f25E:
Lfunc_begin122:
	.loc	10 490 0 is_stmt 1
	.cfi_startproc
	pushq	%rbp
	.cfi_def_cfa_offset 16
	.cfi_offset %rbp, -16
	movq	%rsp, %rbp
	.cfi_def_cfa_register %rbp
	subq	$16, %rsp
	movq	%rdi, -8(%rbp)
Ltmp781:
	.loc	10 490 1 prologue_end
	addq	$16, %rdi
	callq	__ZN4core3ptr40drop_in_place$LT$weezl..encode..Tree$GT$17h660aeb598cb94a4bE
	addq	$16, %rsp
	popq	%rbp
	retq
Ltmp782:
Lfunc_end122:
	.cfi_endproc

	.globl	__ZN4core3ptr79drop_in_place$LT$weezl..encode..EncodeState$LT$weezl..encode..MsbBuffer$GT$$GT$17h4b6dd1472b46ba3eE
	.p2align	4, 0x90
__ZN4core3ptr79drop_in_place$LT$weezl..encode..EncodeState$LT$weezl..encode..MsbBuffer$GT$$GT$17h4b6dd1472b46ba3eE:
Lfunc_begin123:
	.loc	10 490 0
	.cfi_startproc
	pushq	%rbp
	.cfi_def_cfa_offset 16
	.cfi_offset %rbp, -16
	movq	%rsp, %rbp
	.cfi_def_cfa_register %rbp
	subq	$16, %rsp
	movq	%rdi, -8(%rbp)
Ltmp783:
	.loc	10 490 1 prologue_end
	addq	$16, %rdi
	callq	__ZN4core3ptr40drop_in_place$LT$weezl..encode..Tree$GT$17h660aeb598cb94a4bE
	addq	$16, %rsp
	popq	%rbp
	retq
Ltmp784:
Lfunc_end123:
	.cfi_endproc

	.globl	__ZN4core3ptr8non_null16NonNull$LT$T$GT$3new17h412b66caf97b5fabE
	.p2align	4, 0x90
__ZN4core3ptr8non_null16NonNull$LT$T$GT$3new17h412b66caf97b5fabE:
Lfunc_begin124:
	.loc	15 222 0
	.cfi_startproc
	pushq	%rbp
	.cfi_def_cfa_offset 16
	.cfi_offset %rbp, -16
	movq	%rsp, %rbp
	.cfi_def_cfa_register %rbp
	subq	$88, %rsp
	movq	%rdi, -88(%rbp)
	movq	%rdi, -56(%rbp)
Ltmp785:
	.loc	15 223 13 prologue_end
	movq	%rdi, -48(%rbp)
Ltmp786:
	.loc	12 52 36
	movq	%rdi, -64(%rbp)
	.loc	12 52 18 is_stmt 0
	movq	-64(%rbp), %rax
	movq	%rax, -40(%rbp)
Ltmp787:
	.loc	12 38 13 is_stmt 1
	movq	%rax, -32(%rbp)
Ltmp788:
	.loc	12 215 33
	movq	%rax, -24(%rbp)
	.loc	12 215 18 is_stmt 0
	movq	%rax, -16(%rbp)
Ltmp789:
	.loc	12 38 13 is_stmt 1
	cmpq	$0, -16(%rbp)
	sete	%al
Ltmp790:
	.loc	15 223 12
	xorb	$-1, %al
	testb	$1, %al
	jne	LBB124_2
	.loc	15 227 13
	movq	$0, -80(%rbp)
	.loc	15 223 9
	jmp	LBB124_3
LBB124_2:
	.loc	15 0 9 is_stmt 0
	movq	-88(%rbp), %rax
	.loc	15 225 47 is_stmt 1
	movq	%rax, -8(%rbp)
Ltmp791:
	.loc	15 201 13
	movq	%rax, -72(%rbp)
Ltmp792:
	.loc	15 225 13
	movq	-72(%rbp), %rax
	movq	%rax, -80(%rbp)
LBB124_3:
	.loc	15 229 6
	movq	-80(%rbp), %rax
	addq	$88, %rsp
	popq	%rbp
	retq
Ltmp793:
Lfunc_end124:
	.cfi_endproc

	.globl	__ZN4core3ptr8non_null26NonNull$LT$$u5b$T$u5d$$GT$20slice_from_raw_parts17ha0022cf1059806bfE
	.p2align	4, 0x90
__ZN4core3ptr8non_null26NonNull$LT$$u5b$T$u5d$$GT$20slice_from_raw_parts17ha0022cf1059806bfE:
Lfunc_begin125:
	.loc	15 482 0
	.cfi_startproc
	pushq	%rbp
	.cfi_def_cfa_offset 16
	.cfi_offset %rbp, -16
	movq	%rsp, %rbp
	.cfi_def_cfa_register %rbp
	subq	$128, %rsp
	movq	%rdi, -80(%rbp)
	movq	%rsi, -72(%rbp)
Ltmp794:
	.loc	15 484 70 prologue_end
	movq	%rdi, -64(%rbp)
Ltmp795:
	.loc	15 326 9
	movq	%rdi, -56(%rbp)
Ltmp796:
	.loc	15 484 85
	movq	%rsi, -48(%rbp)
Ltmp797:
	.loc	10 766 24
	movq	%rdi, -40(%rbp)
Ltmp798:
	.loc	12 60 9
	movq	%rdi, -32(%rbp)
Ltmp799:
	.loc	10 766 37
	movq	%rsi, -24(%rbp)
Ltmp800:
	.loc	11 135 36
	movq	%rdi, -96(%rbp)
	movq	%rsi, -88(%rbp)
	.loc	11 135 14 is_stmt 0
	movq	-96(%rbp), %rcx
	movq	-88(%rbp), %rax
	movq	%rcx, -112(%rbp)
	movq	%rax, -104(%rbp)
	movq	-112(%rbp), %rcx
	movq	-104(%rbp), %rax
	movq	%rcx, -16(%rbp)
	movq	%rax, -8(%rbp)
Ltmp801:
	.loc	15 201 13 is_stmt 1
	movq	%rcx, -128(%rbp)
	movq	%rax, -120(%rbp)
Ltmp802:
	.loc	15 485 6
	movq	-128(%rbp), %rax
	movq	-120(%rbp), %rdx
	addq	$128, %rsp
	popq	%rbp
	retq
Ltmp803:
Lfunc_end125:
	.cfi_endproc

	.globl	__ZN4core3ptr9const_ptr33_$LT$impl$u20$$BP$const$u20$T$GT$7sub_ptr17h22242d659cee7802E
	.p2align	4, 0x90
__ZN4core3ptr9const_ptr33_$LT$impl$u20$$BP$const$u20$T$GT$7sub_ptr17h22242d659cee7802E:
Lfunc_begin126:
	.loc	9 791 0
	.cfi_startproc
	pushq	%rbp
	.cfi_def_cfa_offset 16
	.cfi_offset %rbp, -16
	movq	%rsp, %rbp
	.cfi_def_cfa_register %rbp
	subq	$64, %rsp
	movq	%rdi, -56(%rbp)
	movq	%rsi, -48(%rbp)
	movq	%rdi, -32(%rbp)
	movq	%rsi, -24(%rbp)
Ltmp804:
	.loc	27 309 5 prologue_end
	movq	$16, -16(%rbp)
Ltmp805:
	.loc	9 806 17
	movb	$1, %al
	testb	$1, %al
	jne	LBB126_2
	movb	$0, -33(%rbp)
	jmp	LBB126_3
LBB126_2:
	movb	$1, -33(%rbp)
LBB126_3:
	.loc	9 806 9 is_stmt 0
	movb	-33(%rbp), %al
	xorb	$-1, %al
	testb	$1, %al
	jne	LBB126_5
	.loc	9 0 9
	movq	-48(%rbp), %rcx
	movq	-56(%rbp), %rax
	.loc	9 808 18 is_stmt 1
	subq	%rcx, %rax
	shrq	$4, %rax
	movq	%rax, -8(%rbp)
	movq	-8(%rbp), %rax
Ltmp806:
	.loc	9 809 6
	addq	$64, %rsp
	popq	%rbp
	retq
LBB126_5:
Ltmp807:
	.loc	9 806 9
	leaq	l___unnamed_8(%rip), %rdi
	leaq	l___unnamed_9(%rip), %rdx
	movl	$73, %esi
	callq	__ZN4core9panicking5panic17hc1bc45270cf64b03E
Ltmp808:
Lfunc_end126:
	.cfi_endproc

	.globl	__ZN4core3ptr9const_ptr33_$LT$impl$u20$$BP$const$u20$T$GT$7sub_ptr17h2d1864f5d80205d4E
	.p2align	4, 0x90
__ZN4core3ptr9const_ptr33_$LT$impl$u20$$BP$const$u20$T$GT$7sub_ptr17h2d1864f5d80205d4E:
Lfunc_begin127:
	.loc	9 791 0
	.cfi_startproc
	pushq	%rbp
	.cfi_def_cfa_offset 16
	.cfi_offset %rbp, -16
	movq	%rsp, %rbp
	.cfi_def_cfa_register %rbp
	subq	$64, %rsp
	movq	%rdi, -56(%rbp)
	movq	%rsi, -48(%rbp)
	movq	%rdi, -32(%rbp)
	movq	%rsi, -24(%rbp)
Ltmp809:
	.loc	27 309 5 prologue_end
	movq	$1, -16(%rbp)
Ltmp810:
	.loc	9 806 17
	movb	$1, %al
	testb	$1, %al
	jne	LBB127_2
	movb	$0, -33(%rbp)
	jmp	LBB127_3
LBB127_2:
	movb	$1, -33(%rbp)
LBB127_3:
	.loc	9 806 9 is_stmt 0
	movb	-33(%rbp), %al
	xorb	$-1, %al
	testb	$1, %al
	jne	LBB127_5
	.loc	9 0 9
	movq	-48(%rbp), %rcx
	movq	-56(%rbp), %rax
	.loc	9 808 18 is_stmt 1
	subq	%rcx, %rax
	shrq	$0, %rax
	movq	%rax, -8(%rbp)
	movq	-8(%rbp), %rax
Ltmp811:
	.loc	9 809 6
	addq	$64, %rsp
	popq	%rbp
	retq
LBB127_5:
Ltmp812:
	.loc	9 806 9
	leaq	l___unnamed_8(%rip), %rdi
	leaq	l___unnamed_9(%rip), %rdx
	movl	$73, %esi
	callq	__ZN4core9panicking5panic17hc1bc45270cf64b03E
Ltmp813:
Lfunc_end127:
	.cfi_endproc

	.globl	__ZN4core3ptr9const_ptr33_$LT$impl$u20$$BP$const$u20$T$GT$7sub_ptr17hf55f7024788f7e58E
	.p2align	4, 0x90
__ZN4core3ptr9const_ptr33_$LT$impl$u20$$BP$const$u20$T$GT$7sub_ptr17hf55f7024788f7e58E:
Lfunc_begin128:
	.loc	9 791 0
	.cfi_startproc
	pushq	%rbp
	.cfi_def_cfa_offset 16
	.cfi_offset %rbp, -16
	movq	%rsp, %rbp
	.cfi_def_cfa_register %rbp
	subq	$64, %rsp
	movq	%rdi, -56(%rbp)
	movq	%rsi, -48(%rbp)
	movq	%rdi, -32(%rbp)
	movq	%rsi, -24(%rbp)
Ltmp814:
	.loc	27 309 5 prologue_end
	movq	$2, -16(%rbp)
Ltmp815:
	.loc	9 806 17
	movb	$1, %al
	testb	$1, %al
	jne	LBB128_2
	movb	$0, -33(%rbp)
	jmp	LBB128_3
LBB128_2:
	movb	$1, -33(%rbp)
LBB128_3:
	.loc	9 806 9 is_stmt 0
	movb	-33(%rbp), %al
	xorb	$-1, %al
	testb	$1, %al
	jne	LBB128_5
	.loc	9 0 9
	movq	-48(%rbp), %rcx
	movq	-56(%rbp), %rax
	.loc	9 808 18 is_stmt 1
	subq	%rcx, %rax
	shrq	$1, %rax
	movq	%rax, -8(%rbp)
	movq	-8(%rbp), %rax
Ltmp816:
	.loc	9 809 6
	addq	$64, %rsp
	popq	%rbp
	retq
LBB128_5:
Ltmp817:
	.loc	9 806 9
	leaq	l___unnamed_8(%rip), %rdi
	leaq	l___unnamed_9(%rip), %rdx
	movl	$73, %esi
	callq	__ZN4core9panicking5panic17hc1bc45270cf64b03E
Ltmp818:
Lfunc_end128:
	.cfi_endproc

	.p2align	4, 0x90
__ZN4core4hint21unreachable_unchecked17h40ca394af7f6f178E:
Lfunc_begin129:
	.file	31 "/rustc/2c8cc343237b8f7d5a3c3703e3a87f2eb2c54a74/library/core/src" "hint.rs"
	.loc	31 100 0
	.cfi_startproc
	pushq	%rbp
	.cfi_def_cfa_offset 16
	.cfi_offset %rbp, -16
	movq	%rsp, %rbp
	.cfi_def_cfa_register %rbp
Ltmp819:
	.loc	31 104 9 prologue_end
	ud2
Ltmp820:
Lfunc_end129:
	.cfi_endproc

	.globl	__ZN4core4iter5range101_$LT$impl$u20$core..iter..traits..iterator..Iterator$u20$for$u20$core..ops..range..Range$LT$A$GT$$GT$4next17h4430ea09214a78b8E
	.p2align	4, 0x90
__ZN4core4iter5range101_$LT$impl$u20$core..iter..traits..iterator..Iterator$u20$for$u20$core..ops..range..Range$LT$A$GT$$GT$4next17h4430ea09214a78b8E:
Lfunc_begin130:
	.loc	24 710 0
	.cfi_startproc
	pushq	%rbp
	.cfi_def_cfa_offset 16
	.cfi_offset %rbp, -16
	movq	%rsp, %rbp
	.cfi_def_cfa_register %rbp
	subq	$16, %rsp
	movq	%rdi, -8(%rbp)
Ltmp821:
	.loc	24 711 9 prologue_end
	callq	__ZN89_$LT$core..ops..range..Range$LT$T$GT$$u20$as$u20$core..iter..range..RangeIteratorImpl$GT$9spec_next17h6066ac35145f89cdE
	.loc	24 712 6
	addq	$16, %rsp
	popq	%rbp
	retq
Ltmp822:
Lfunc_end130:
	.cfi_endproc

	.globl	__ZN4core4iter6traits8iterator8Iterator3rev17ha841c1fb26b0d317E
	.p2align	4, 0x90
__ZN4core4iter6traits8iterator8Iterator3rev17ha841c1fb26b0d317E:
Lfunc_begin131:
	.loc	22 3179 0
	.cfi_startproc
	pushq	%rbp
	.cfi_def_cfa_offset 16
	.cfi_offset %rbp, -16
	movq	%rsp, %rbp
	.cfi_def_cfa_register %rbp
	subq	$16, %rsp
	movq	%rdi, -16(%rbp)
	movq	%rsi, -8(%rbp)
Ltmp823:
	.loc	22 3183 9 prologue_end
	callq	__ZN4core4iter8adapters3rev12Rev$LT$T$GT$3new17h267f5f939f262847E
	.loc	22 3184 6
	addq	$16, %rsp
	popq	%rbp
	retq
Ltmp824:
Lfunc_end131:
	.cfi_endproc

	.globl	__ZN4core4iter6traits8iterator8Iterator3zip17h3f92058137d805fcE
	.p2align	4, 0x90
__ZN4core4iter6traits8iterator8Iterator3zip17h3f92058137d805fcE:
Lfunc_begin132:
	.loc	22 623 0
	.cfi_startproc
	.cfi_personality 155, _rust_eh_personality
	.cfi_lsda 16, Lexception33
	pushq	%rbp
	.cfi_def_cfa_offset 16
	.cfi_offset %rbp, -16
	movq	%rsp, %rbp
	.cfi_def_cfa_register %rbp
	subq	$128, %rsp
	movq	%r8, -112(%rbp)
	movq	%rcx, -96(%rbp)
	movq	%rdx, -120(%rbp)
	movq	%rsi, %rax
	movq	-112(%rbp), %rsi
	movq	%rax, -104(%rbp)
	movq	%rdi, %rcx
	movq	-96(%rbp), %rdi
	movq	%rcx, -88(%rbp)
	movq	%rcx, -80(%rbp)
	movq	%rax, -48(%rbp)
	movq	%rdx, -40(%rbp)
	movq	%rdi, -32(%rbp)
	movq	%rsi, -24(%rbp)
Ltmp830:
	.loc	22 628 18 prologue_end
	movb	$1, -49(%rbp)
Ltmp825:
	.loc	22 628 24 is_stmt 0
	callq	__ZN63_$LT$I$u20$as$u20$core..iter..traits..collect..IntoIterator$GT$9into_iter17h6603715ed6c4b78dE
Ltmp826:
	movq	%rdx, -72(%rbp)
	movq	%rax, -64(%rbp)
	jmp	LBB132_3
LBB132_1:
	.loc	22 628 41
	testb	$1, -49(%rbp)
	jne	LBB132_6
	jmp	LBB132_5
LBB132_2:
Ltmp829:
	.loc	22 0 41
	movq	%rax, %rcx
	movl	%edx, %eax
	movq	%rcx, -16(%rbp)
	movl	%eax, -8(%rbp)
	jmp	LBB132_1
LBB132_3:
	movq	-72(%rbp), %r8
	movq	-64(%rbp), %rcx
	movq	-120(%rbp), %rdx
	movq	-104(%rbp), %rsi
	movq	-88(%rbp), %rdi
	.loc	22 628 9
	movb	$0, -49(%rbp)
Ltmp827:
	callq	__ZN4core4iter8adapters3zip16Zip$LT$A$C$B$GT$3new17hf1cc22aed3c7445eE
Ltmp828:
	jmp	LBB132_4
LBB132_4:
	.loc	22 0 9
	movq	-80(%rbp), %rax
	.loc	22 629 6 is_stmt 1
	addq	$128, %rsp
	popq	%rbp
	retq
LBB132_5:
	.loc	22 623 5
	movq	-16(%rbp), %rdi
	callq	__Unwind_Resume
LBB132_6:
	.loc	22 628 41
	jmp	LBB132_5
Ltmp831:
Lfunc_end132:
	.cfi_endproc
	.section	__TEXT,__gcc_except_tab
	.p2align	2
GCC_except_table132:
Lexception33:
	.byte	255
	.byte	255
	.byte	1
	.uleb128 Lcst_end33-Lcst_begin33
Lcst_begin33:
	.uleb128 Ltmp825-Lfunc_begin132
	.uleb128 Ltmp828-Ltmp825
	.uleb128 Ltmp829-Lfunc_begin132
	.byte	0
	.uleb128 Ltmp828-Lfunc_begin132
	.uleb128 Lfunc_end132-Ltmp828
	.byte	0
	.byte	0
Lcst_end33:
	.p2align	2

	.section	__TEXT,__text,regular,pure_instructions
	.globl	__ZN4core4iter6traits8iterator8Iterator3zip17h53e70d2ec3ee5e22E
	.p2align	4, 0x90
__ZN4core4iter6traits8iterator8Iterator3zip17h53e70d2ec3ee5e22E:
Lfunc_begin133:
	.loc	22 623 0
	.cfi_startproc
	.cfi_personality 155, _rust_eh_personality
	.cfi_lsda 16, Lexception34
	pushq	%rbp
	.cfi_def_cfa_offset 16
	.cfi_offset %rbp, -16
	movq	%rsp, %rbp
	.cfi_def_cfa_register %rbp
	subq	$128, %rsp
	movq	%r8, -112(%rbp)
	movq	%rcx, -96(%rbp)
	movq	%rdx, -120(%rbp)
	movq	%rsi, %rax
	movq	-112(%rbp), %rsi
	movq	%rax, -104(%rbp)
	movq	%rdi, %rcx
	movq	-96(%rbp), %rdi
	movq	%rcx, -88(%rbp)
	movq	%rcx, -80(%rbp)
	movq	%rax, -48(%rbp)
	movq	%rdx, -40(%rbp)
	movq	%rdi, -32(%rbp)
	movq	%rsi, -24(%rbp)
Ltmp837:
	.loc	22 628 18 prologue_end
	movb	$1, -49(%rbp)
Ltmp832:
	.loc	22 628 24 is_stmt 0
	callq	__ZN63_$LT$I$u20$as$u20$core..iter..traits..collect..IntoIterator$GT$9into_iter17h8b20e7933b041b36E
Ltmp833:
	movq	%rdx, -72(%rbp)
	movq	%rax, -64(%rbp)
	jmp	LBB133_3
LBB133_1:
	.loc	22 628 41
	testb	$1, -49(%rbp)
	jne	LBB133_6
	jmp	LBB133_5
LBB133_2:
Ltmp836:
	.loc	22 0 41
	movq	%rax, %rcx
	movl	%edx, %eax
	movq	%rcx, -16(%rbp)
	movl	%eax, -8(%rbp)
	jmp	LBB133_1
LBB133_3:
	movq	-72(%rbp), %r8
	movq	-64(%rbp), %rcx
	movq	-120(%rbp), %rdx
	movq	-104(%rbp), %rsi
	movq	-88(%rbp), %rdi
	.loc	22 628 9
	movb	$0, -49(%rbp)
Ltmp834:
	callq	__ZN4core4iter8adapters3zip16Zip$LT$A$C$B$GT$3new17h13cd004fdefefd2bE
Ltmp835:
	jmp	LBB133_4
LBB133_4:
	.loc	22 0 9
	movq	-80(%rbp), %rax
	.loc	22 629 6 is_stmt 1
	addq	$128, %rsp
	popq	%rbp
	retq
LBB133_5:
	.loc	22 623 5
	movq	-16(%rbp), %rdi
	callq	__Unwind_Resume
LBB133_6:
	.loc	22 628 41
	jmp	LBB133_5
Ltmp838:
Lfunc_end133:
	.cfi_endproc
	.section	__TEXT,__gcc_except_tab
	.p2align	2
GCC_except_table133:
Lexception34:
	.byte	255
	.byte	255
	.byte	1
	.uleb128 Lcst_end34-Lcst_begin34
Lcst_begin34:
	.uleb128 Ltmp832-Lfunc_begin133
	.uleb128 Ltmp835-Ltmp832
	.uleb128 Ltmp836-Lfunc_begin133
	.byte	0
	.uleb128 Ltmp835-Lfunc_begin133
	.uleb128 Lfunc_end133-Ltmp835
	.byte	0
	.byte	0
Lcst_end34:
	.p2align	2

	.section	__TEXT,__text,regular,pure_instructions
	.globl	__ZN4core4iter6traits8iterator8Iterator3zip17hfcd407396b776e90E
	.p2align	4, 0x90
__ZN4core4iter6traits8iterator8Iterator3zip17hfcd407396b776e90E:
Lfunc_begin134:
	.loc	22 623 0
	.cfi_startproc
	.cfi_personality 155, _rust_eh_personality
	.cfi_lsda 16, Lexception35
	pushq	%rbp
	.cfi_def_cfa_offset 16
	.cfi_offset %rbp, -16
	movq	%rsp, %rbp
	.cfi_def_cfa_register %rbp
	subq	$128, %rsp
	movq	%r8, -112(%rbp)
	movq	%rcx, -96(%rbp)
	movq	%rdx, -120(%rbp)
	movq	%rsi, %rax
	movq	-112(%rbp), %rsi
	movq	%rax, -104(%rbp)
	movq	%rdi, %rcx
	movq	-96(%rbp), %rdi
	movq	%rcx, -88(%rbp)
	movq	%rcx, -80(%rbp)
	movq	%rax, -48(%rbp)
	movq	%rdx, -40(%rbp)
	movq	%rdi, -32(%rbp)
	movq	%rsi, -24(%rbp)
Ltmp844:
	.loc	22 628 18 prologue_end
	movb	$1, -49(%rbp)
Ltmp839:
	.loc	22 628 24 is_stmt 0
	callq	__ZN4core5slice4iter95_$LT$impl$u20$core..iter..traits..collect..IntoIterator$u20$for$u20$$RF$mut$u20$$u5b$T$u5d$$GT$9into_iter17h7f0f7f2d786a0a32E
Ltmp840:
	movq	%rdx, -72(%rbp)
	movq	%rax, -64(%rbp)
	jmp	LBB134_3
LBB134_1:
	.loc	22 628 41
	testb	$1, -49(%rbp)
	jne	LBB134_6
	jmp	LBB134_5
LBB134_2:
Ltmp843:
	.loc	22 0 41
	movq	%rax, %rcx
	movl	%edx, %eax
	movq	%rcx, -16(%rbp)
	movl	%eax, -8(%rbp)
	jmp	LBB134_1
LBB134_3:
	movq	-72(%rbp), %r8
	movq	-64(%rbp), %rcx
	movq	-120(%rbp), %rdx
	movq	-104(%rbp), %rsi
	movq	-88(%rbp), %rdi
	.loc	22 628 9
	movb	$0, -49(%rbp)
Ltmp841:
	callq	__ZN4core4iter8adapters3zip16Zip$LT$A$C$B$GT$3new17hcf0d426e2e7b87e7E
Ltmp842:
	jmp	LBB134_4
LBB134_4:
	.loc	22 0 9
	movq	-80(%rbp), %rax
	.loc	22 629 6 is_stmt 1
	addq	$128, %rsp
	popq	%rbp
	retq
LBB134_5:
	.loc	22 623 5
	movq	-16(%rbp), %rdi
	callq	__Unwind_Resume
LBB134_6:
	.loc	22 628 41
	jmp	LBB134_5
Ltmp845:
Lfunc_end134:
	.cfi_endproc
	.section	__TEXT,__gcc_except_tab
	.p2align	2
GCC_except_table134:
Lexception35:
	.byte	255
	.byte	255
	.byte	1
	.uleb128 Lcst_end35-Lcst_begin35
Lcst_begin35:
	.uleb128 Ltmp839-Lfunc_begin134
	.uleb128 Ltmp842-Ltmp839
	.uleb128 Ltmp843-Lfunc_begin134
	.byte	0
	.uleb128 Ltmp842-Lfunc_begin134
	.uleb128 Lfunc_end134-Ltmp842
	.byte	0
	.byte	0
Lcst_end35:
	.p2align	2

	.section	__TEXT,__text,regular,pure_instructions
	.globl	__ZN4core4iter6traits8iterator8Iterator4fuse17h3a9e519b574b84ffE
	.p2align	4, 0x90
__ZN4core4iter6traits8iterator8Iterator4fuse17h3a9e519b574b84ffE:
Lfunc_begin135:
	.loc	22 1623 0
	.cfi_startproc
	pushq	%rbp
	.cfi_def_cfa_offset 16
	.cfi_offset %rbp, -16
	movq	%rsp, %rbp
	.cfi_def_cfa_register %rbp
	subq	$64, %rsp
	movq	%rdi, -64(%rbp)
	movq	%rdi, -56(%rbp)
Ltmp846:
	.loc	22 1627 19 prologue_end
	leaq	-48(%rbp), %rdi
	movl	$48, %edx
	callq	_memcpy
Ltmp847:
	.loc	22 0 19 is_stmt 0
	movq	-64(%rbp), %rdi
	.loc	22 1627 9
	leaq	-48(%rbp), %rsi
	callq	__ZN4core4iter8adapters4fuse13Fuse$LT$I$GT$3new17h7361b0c9b6e5ce65E
	movq	-56(%rbp), %rax
	.loc	22 1628 6 is_stmt 1
	addq	$64, %rsp
	popq	%rbp
	retq
Ltmp848:
Lfunc_end135:
	.cfi_endproc

	.globl	__ZN4core4iter6traits8iterator8Iterator4fuse17hd92556789c73c10bE
	.p2align	4, 0x90
__ZN4core4iter6traits8iterator8Iterator4fuse17hd92556789c73c10bE:
Lfunc_begin136:
	.loc	22 1623 0
	.cfi_startproc
	pushq	%rbp
	.cfi_def_cfa_offset 16
	.cfi_offset %rbp, -16
	movq	%rsp, %rbp
	.cfi_def_cfa_register %rbp
	subq	$64, %rsp
	movq	%rdi, -64(%rbp)
	movq	%rdi, -56(%rbp)
Ltmp849:
	.loc	22 1627 19 prologue_end
	leaq	-48(%rbp), %rdi
	movl	$48, %edx
	callq	_memcpy
Ltmp850:
	.loc	22 0 19 is_stmt 0
	movq	-64(%rbp), %rdi
	.loc	22 1627 9
	leaq	-48(%rbp), %rsi
	callq	__ZN4core4iter8adapters4fuse13Fuse$LT$I$GT$3new17h308acb87d972de49E
	movq	-56(%rbp), %rax
	.loc	22 1628 6 is_stmt 1
	addq	$64, %rsp
	popq	%rbp
	retq
Ltmp851:
Lfunc_end136:
	.cfi_endproc

	.globl	__ZN4core4iter6traits8iterator8Iterator4scan17h0187d0ddcc91ee7eE
	.p2align	4, 0x90
__ZN4core4iter6traits8iterator8Iterator4scan17h0187d0ddcc91ee7eE:
Lfunc_begin137:
	.loc	22 1431 0
	.cfi_startproc
	pushq	%rbp
	.cfi_def_cfa_offset 16
	.cfi_offset %rbp, -16
	movq	%rsp, %rbp
	.cfi_def_cfa_register %rbp
	subq	$80, %rsp
	movq	%rdi, -80(%rbp)
	movq	%rdi, -72(%rbp)
Ltmp852:
	.loc	22 1436 19 prologue_end
	leaq	-64(%rbp), %rdi
	movl	$48, %edx
	callq	_memcpy
Ltmp853:
	.loc	22 0 19 is_stmt 0
	movq	-80(%rbp), %rdi
	.loc	22 1436 9
	leaq	-64(%rbp), %rsi
	callq	__ZN4core4iter8adapters4scan22Scan$LT$I$C$St$C$F$GT$3new17hb1ff3f5129e3a191E
	movq	-72(%rbp), %rax
	.loc	22 1437 6 is_stmt 1
	addq	$80, %rsp
	popq	%rbp
	retq
Ltmp854:
Lfunc_end137:
	.cfi_endproc

	.globl	__ZN4core4iter6traits8iterator8Iterator4scan17h81c72f8c0ee24847E
	.p2align	4, 0x90
__ZN4core4iter6traits8iterator8Iterator4scan17h81c72f8c0ee24847E:
Lfunc_begin138:
	.loc	22 1431 0
	.cfi_startproc
	pushq	%rbp
	.cfi_def_cfa_offset 16
	.cfi_offset %rbp, -16
	movq	%rsp, %rbp
	.cfi_def_cfa_register %rbp
	subq	$80, %rsp
	movq	%rdi, -80(%rbp)
	movq	%rdi, -72(%rbp)
Ltmp855:
	.loc	22 1436 19 prologue_end
	leaq	-64(%rbp), %rdi
	movl	$48, %edx
	callq	_memcpy
Ltmp856:
	.loc	22 0 19 is_stmt 0
	movq	-80(%rbp), %rdi
	.loc	22 1436 9
	leaq	-64(%rbp), %rsi
	callq	__ZN4core4iter8adapters4scan22Scan$LT$I$C$St$C$F$GT$3new17h6beceee589083803E
	movq	-72(%rbp), %rax
	.loc	22 1437 6 is_stmt 1
	addq	$80, %rsp
	popq	%rbp
	retq
Ltmp857:
Lfunc_end138:
	.cfi_endproc

	.globl	__ZN4core4iter6traits8iterator8Iterator4take17hf2e80eaf3de3f383E
	.p2align	4, 0x90
__ZN4core4iter6traits8iterator8Iterator4take17hf2e80eaf3de3f383E:
Lfunc_begin139:
	.loc	22 1382 0
	.cfi_startproc
	pushq	%rbp
	.cfi_def_cfa_offset 16
	.cfi_offset %rbp, -16
	movq	%rsp, %rbp
	.cfi_def_cfa_register %rbp
	subq	$96, %rsp
	movq	%rdx, -80(%rbp)
	movq	%rdi, -88(%rbp)
	movq	%rdi, -72(%rbp)
Ltmp858:
	movq	%rdx, -8(%rbp)
Ltmp859:
	.loc	22 1386 19 prologue_end
	leaq	-64(%rbp), %rdi
	movl	$56, %edx
	callq	_memcpy
Ltmp860:
	.loc	22 0 19 is_stmt 0
	movq	-88(%rbp), %rdi
	movq	-80(%rbp), %rdx
	.loc	22 1386 9
	leaq	-64(%rbp), %rsi
	callq	__ZN4core4iter8adapters4take13Take$LT$I$GT$3new17h6ffaf79f980b88ceE
	movq	-72(%rbp), %rax
	.loc	22 1387 6 is_stmt 1
	addq	$96, %rsp
	popq	%rbp
	retq
Ltmp861:
Lfunc_end139:
	.cfi_endproc

	.globl	__ZN4core4iter6traits8iterator8Iterator7collect17h2bd59444b710d283E
	.p2align	4, 0x90
__ZN4core4iter6traits8iterator8Iterator7collect17h2bd59444b710d283E:
Lfunc_begin140:
	.loc	22 1856 0
	.cfi_startproc
	pushq	%rbp
	.cfi_def_cfa_offset 16
	.cfi_offset %rbp, -16
	movq	%rsp, %rbp
	.cfi_def_cfa_register %rbp
	subq	$48, %rsp
	movq	%rdi, %rsi
Ltmp862:
	.loc	22 1860 33 prologue_end
	leaq	-48(%rbp), %rdi
	movl	$48, %edx
	callq	_memcpy
Ltmp863:
	.loc	22 1860 9 is_stmt 0
	leaq	-48(%rbp), %rdi
	callq	__ZN136_$LT$core..result..Result$LT$V$C$E$GT$$u20$as$u20$core..iter..traits..collect..FromIterator$LT$core..result..Result$LT$A$C$E$GT$$GT$$GT$9from_iter17h334ea940f5b1a10dE
	.loc	22 1861 6 is_stmt 1
	andb	$1, %al
	movzbl	%al, %eax
	addq	$48, %rsp
	popq	%rbp
	retq
Ltmp864:
Lfunc_end140:
	.cfi_endproc

	.globl	__ZN4core4iter6traits8iterator8Iterator7collect17hfbe9ea9f683cceecE
	.p2align	4, 0x90
__ZN4core4iter6traits8iterator8Iterator7collect17hfbe9ea9f683cceecE:
Lfunc_begin141:
	.loc	22 1856 0
	.cfi_startproc
	pushq	%rbp
	.cfi_def_cfa_offset 16
	.cfi_offset %rbp, -16
	movq	%rsp, %rbp
	.cfi_def_cfa_register %rbp
	subq	$48, %rsp
	movq	%rdi, %rsi
Ltmp865:
	.loc	22 1860 33 prologue_end
	leaq	-48(%rbp), %rdi
	movl	$48, %edx
	callq	_memcpy
Ltmp866:
	.loc	22 1860 9 is_stmt 0
	leaq	-48(%rbp), %rdi
	callq	__ZN136_$LT$core..result..Result$LT$V$C$E$GT$$u20$as$u20$core..iter..traits..collect..FromIterator$LT$core..result..Result$LT$A$C$E$GT$$GT$$GT$9from_iter17h409e1529c569401aE
	.loc	22 1861 6 is_stmt 1
	andb	$1, %al
	movzbl	%al, %eax
	addq	$48, %rsp
	popq	%rbp
	retq
Ltmp867:
Lfunc_end141:
	.cfi_endproc

	.globl	__ZN4core4iter6traits8iterator8Iterator8for_each17h25bbbe11615057b6E
	.p2align	4, 0x90
__ZN4core4iter6traits8iterator8Iterator8for_each17h25bbbe11615057b6E:
Lfunc_begin142:
	.loc	22 827 0
	.cfi_startproc
	.cfi_personality 155, _rust_eh_personality
	.cfi_lsda 16, Lexception36
	pushq	%rbp
	.cfi_def_cfa_offset 16
	.cfi_offset %rbp, -16
	movq	%rsp, %rbp
	.cfi_def_cfa_register %rbp
	subq	$96, %rsp
Ltmp871:
	.loc	22 837 9 prologue_end
	movq	48(%rdi), %rax
	movq	%rax, -48(%rbp)
	movq	40(%rdi), %rax
	movq	%rax, -56(%rbp)
	movq	32(%rdi), %rax
	movq	%rax, -64(%rbp)
	movq	24(%rdi), %rax
	movq	%rax, -72(%rbp)
	movq	16(%rdi), %rax
	movq	%rax, -80(%rbp)
	movq	(%rdi), %rax
	movq	8(%rdi), %rcx
	movq	%rcx, -88(%rbp)
	movq	%rax, -96(%rbp)
Ltmp868:
	leaq	-96(%rbp), %rdi
Ltmp872:
	callq	__ZN106_$LT$core..iter..adapters..GenericShunt$LT$I$C$R$GT$$u20$as$u20$core..iter..traits..iterator..Iterator$GT$4fold17h71ae8dcdbcbe2477E
Ltmp869:
	jmp	LBB142_3
Ltmp873:
LBB142_1:
	.loc	22 837 30 is_stmt 0
	xorl	%eax, %eax
	testb	$1, %al
	jne	LBB142_5
	jmp	LBB142_4
Ltmp874:
LBB142_2:
Ltmp870:
	.loc	22 0 30
	movq	%rax, %rcx
	movl	%edx, %eax
	movq	%rcx, -16(%rbp)
	movl	%eax, -8(%rbp)
	jmp	LBB142_1
Ltmp875:
LBB142_3:
	.loc	22 838 6 is_stmt 1
	addq	$96, %rsp
	popq	%rbp
	retq
Ltmp876:
LBB142_4:
	.loc	22 827 5
	movq	-16(%rbp), %rdi
	callq	__Unwind_Resume
Ltmp877:
LBB142_5:
	.loc	22 837 30
	jmp	LBB142_4
Ltmp878:
Lfunc_end142:
	.cfi_endproc
	.section	__TEXT,__gcc_except_tab
	.p2align	2
GCC_except_table142:
Lexception36:
	.byte	255
	.byte	255
	.byte	1
	.uleb128 Lcst_end36-Lcst_begin36
Lcst_begin36:
	.uleb128 Ltmp868-Lfunc_begin142
	.uleb128 Ltmp869-Ltmp868
	.uleb128 Ltmp870-Lfunc_begin142
	.byte	0
	.uleb128 Ltmp869-Lfunc_begin142
	.uleb128 Lfunc_end142-Ltmp869
	.byte	0
	.byte	0
Lcst_end36:
	.p2align	2

	.section	__TEXT,__text,regular,pure_instructions
	.globl	__ZN4core4iter6traits8iterator8Iterator8for_each17h4315a492806f013bE
	.p2align	4, 0x90
__ZN4core4iter6traits8iterator8Iterator8for_each17h4315a492806f013bE:
Lfunc_begin143:
	.loc	22 827 0
	.cfi_startproc
	.cfi_personality 155, _rust_eh_personality
	.cfi_lsda 16, Lexception37
	pushq	%rbp
	.cfi_def_cfa_offset 16
	.cfi_offset %rbp, -16
	movq	%rsp, %rbp
	.cfi_def_cfa_register %rbp
	subq	$96, %rsp
Ltmp882:
	.loc	22 837 9 prologue_end
	movq	48(%rdi), %rax
	movq	%rax, -48(%rbp)
	movq	40(%rdi), %rax
	movq	%rax, -56(%rbp)
	movq	32(%rdi), %rax
	movq	%rax, -64(%rbp)
	movq	24(%rdi), %rax
	movq	%rax, -72(%rbp)
	movq	16(%rdi), %rax
	movq	%rax, -80(%rbp)
	movq	(%rdi), %rax
	movq	8(%rdi), %rcx
	movq	%rcx, -88(%rbp)
	movq	%rax, -96(%rbp)
Ltmp879:
	leaq	-96(%rbp), %rdi
Ltmp883:
	callq	__ZN106_$LT$core..iter..adapters..GenericShunt$LT$I$C$R$GT$$u20$as$u20$core..iter..traits..iterator..Iterator$GT$4fold17hd6631b9f854dde1eE
Ltmp880:
	jmp	LBB143_3
Ltmp884:
LBB143_1:
	.loc	22 837 30 is_stmt 0
	xorl	%eax, %eax
	testb	$1, %al
	jne	LBB143_5
	jmp	LBB143_4
Ltmp885:
LBB143_2:
Ltmp881:
	.loc	22 0 30
	movq	%rax, %rcx
	movl	%edx, %eax
	movq	%rcx, -16(%rbp)
	movl	%eax, -8(%rbp)
	jmp	LBB143_1
Ltmp886:
LBB143_3:
	.loc	22 838 6 is_stmt 1
	addq	$96, %rsp
	popq	%rbp
	retq
Ltmp887:
LBB143_4:
	.loc	22 827 5
	movq	-16(%rbp), %rdi
	callq	__Unwind_Resume
Ltmp888:
LBB143_5:
	.loc	22 837 30
	jmp	LBB143_4
Ltmp889:
Lfunc_end143:
	.cfi_endproc
	.section	__TEXT,__gcc_except_tab
	.p2align	2
GCC_except_table143:
Lexception37:
	.byte	255
	.byte	255
	.byte	1
	.uleb128 Lcst_end37-Lcst_begin37
Lcst_begin37:
	.uleb128 Ltmp879-Lfunc_begin143
	.uleb128 Ltmp880-Ltmp879
	.uleb128 Ltmp881-Lfunc_begin143
	.byte	0
	.uleb128 Ltmp880-Lfunc_begin143
	.uleb128 Lfunc_end143-Ltmp880
	.byte	0
	.byte	0
Lcst_end37:
	.p2align	2

	.section	__TEXT,__text,regular,pure_instructions
	.globl	__ZN4core4iter6traits8iterator8Iterator8for_each4call28_$u7b$$u7b$closure$u7d$$u7d$17h8cbf56d2d7c28da3E
	.p2align	4, 0x90
__ZN4core4iter6traits8iterator8Iterator8for_each4call28_$u7b$$u7b$closure$u7d$$u7d$17h8cbf56d2d7c28da3E:
Lfunc_begin144:
	.loc	22 834 0
	.cfi_startproc
	pushq	%rbp
	.cfi_def_cfa_offset 16
	.cfi_offset %rbp, -16
	movq	%rsp, %rbp
	.cfi_def_cfa_register %rbp
	subq	$32, %rsp
	movq	%rdi, -24(%rbp)
Ltmp890:
	.loc	22 834 29 prologue_end
	callq	__ZN4core4unit96_$LT$impl$u20$core..iter..traits..collect..FromIterator$LT$$LP$$RP$$GT$$u20$for$u20$$LP$$RP$$GT$9from_iter28_$u7b$$u7b$closure$u7d$$u7d$17hecaf65bd6d9591f0E
	.loc	22 834 36 is_stmt 0
	addq	$32, %rsp
	popq	%rbp
	retq
Ltmp891:
Lfunc_end144:
	.cfi_endproc

	.globl	__ZN4core4iter6traits8iterator8Iterator8for_each4call28_$u7b$$u7b$closure$u7d$$u7d$17haf056c0575db9013E
	.p2align	4, 0x90
__ZN4core4iter6traits8iterator8Iterator8for_each4call28_$u7b$$u7b$closure$u7d$$u7d$17haf056c0575db9013E:
Lfunc_begin145:
	.loc	22 834 0 is_stmt 1
	.cfi_startproc
	pushq	%rbp
	.cfi_def_cfa_offset 16
	.cfi_offset %rbp, -16
	movq	%rsp, %rbp
	.cfi_def_cfa_register %rbp
	subq	$32, %rsp
	movq	%rdi, -24(%rbp)
Ltmp892:
	.loc	22 834 29 prologue_end
	callq	__ZN4core4unit96_$LT$impl$u20$core..iter..traits..collect..FromIterator$LT$$LP$$RP$$GT$$u20$for$u20$$LP$$RP$$GT$9from_iter28_$u7b$$u7b$closure$u7d$$u7d$17h3f54f6e2d75d0ab6E
	.loc	22 834 36 is_stmt 0
	addq	$32, %rsp
	popq	%rbp
	retq
Ltmp893:
Lfunc_end145:
	.cfi_endproc

	.globl	__ZN4core4iter7sources11repeat_with11repeat_with17h15d357dc085bc98cE
	.p2align	4, 0x90
__ZN4core4iter7sources11repeat_with11repeat_with17h15d357dc085bc98cE:
Lfunc_begin146:
	.loc	17 66 0 is_stmt 1
	.cfi_startproc
	pushq	%rbp
	.cfi_def_cfa_offset 16
	.cfi_offset %rbp, -16
	movq	%rsp, %rbp
	.cfi_def_cfa_register %rbp
	subq	$64, %rsp
	movq	%rdi, -64(%rbp)
	movq	%rdi, -56(%rbp)
Ltmp894:
	.loc	17 67 18 prologue_end
	leaq	-48(%rbp), %rdi
	movl	$48, %edx
	callq	_memcpy
Ltmp895:
	.loc	17 0 18 is_stmt 0
	movq	-64(%rbp), %rdi
	.loc	17 67 5
	leaq	-48(%rbp), %rsi
	movl	$48, %edx
	callq	_memcpy
	movq	-56(%rbp), %rax
	.loc	17 68 2 is_stmt 1
	addq	$64, %rsp
	popq	%rbp
	retq
Ltmp896:
Lfunc_end146:
	.cfi_endproc

	.globl	__ZN4core4iter7sources11repeat_with11repeat_with17h1a0d7785cc102fe6E
	.p2align	4, 0x90
__ZN4core4iter7sources11repeat_with11repeat_with17h1a0d7785cc102fe6E:
Lfunc_begin147:
	.loc	17 66 0
	.cfi_startproc
	pushq	%rbp
	.cfi_def_cfa_offset 16
	.cfi_offset %rbp, -16
	movq	%rsp, %rbp
	.cfi_def_cfa_register %rbp
	subq	$64, %rsp
	movq	%rdi, -64(%rbp)
	movq	%rdi, -56(%rbp)
Ltmp897:
	.loc	17 67 18 prologue_end
	leaq	-48(%rbp), %rdi
	movl	$48, %edx
	callq	_memcpy
Ltmp898:
	.loc	17 0 18 is_stmt 0
	movq	-64(%rbp), %rdi
	.loc	17 67 5
	leaq	-48(%rbp), %rsi
	movl	$48, %edx
	callq	_memcpy
	movq	-56(%rbp), %rax
	.loc	17 68 2 is_stmt 1
	addq	$64, %rsp
	popq	%rbp
	retq
Ltmp899:
Lfunc_end147:
	.cfi_endproc

	.globl	__ZN4core4iter8adapters11try_process17h05dc373951330aabE
	.p2align	4, 0x90
__ZN4core4iter8adapters11try_process17h05dc373951330aabE:
Lfunc_begin148:
	.loc	7 156 0
	.cfi_startproc
	.cfi_personality 155, _rust_eh_personality
	.cfi_lsda 16, Lexception38
	pushq	%rbp
	.cfi_def_cfa_offset 16
	.cfi_offset %rbp, -16
	movq	%rsp, %rbp
	.cfi_def_cfa_register %rbp
	subq	$272, %rsp
Ltmp908:
	.loc	7 162 24 prologue_end
	movb	$1, -33(%rbp)
	movb	$0, -257(%rbp)
Ltmp909:
	.loc	7 163 32
	movq	40(%rdi), %rax
	movq	%rax, -160(%rbp)
	movq	32(%rdi), %rax
	movq	%rax, -168(%rbp)
	movq	24(%rdi), %rax
	movq	%rax, -176(%rbp)
	movq	16(%rdi), %rax
	movq	%rax, -184(%rbp)
	movq	(%rdi), %rax
	movq	8(%rdi), %rcx
	movq	%rcx, -192(%rbp)
	movq	%rax, -200(%rbp)
	.loc	7 163 17 is_stmt 0
	movq	-160(%rbp), %rax
	movq	%rax, -216(%rbp)
	movq	-168(%rbp), %rax
	movq	%rax, -224(%rbp)
	movq	-176(%rbp), %rax
	movq	%rax, -232(%rbp)
	movq	-184(%rbp), %rax
	movq	%rax, -240(%rbp)
	movq	-200(%rbp), %rax
	movq	-192(%rbp), %rcx
	movq	%rcx, -248(%rbp)
	movq	%rax, -256(%rbp)
	leaq	-257(%rbp), %rax
	movq	%rax, -208(%rbp)
Ltmp910:
	.loc	7 164 19 is_stmt 1
	movq	-208(%rbp), %rax
	movq	%rax, -48(%rbp)
	movq	-216(%rbp), %rax
	movq	%rax, -56(%rbp)
	movq	-224(%rbp), %rax
	movq	%rax, -64(%rbp)
	movq	-232(%rbp), %rax
	movq	%rax, -72(%rbp)
	movq	-240(%rbp), %rax
	movq	%rax, -80(%rbp)
	movq	-256(%rbp), %rax
	movq	-248(%rbp), %rcx
	movq	%rcx, -88(%rbp)
	movq	%rax, -96(%rbp)
	.loc	7 164 17 is_stmt 0
	movq	-48(%rbp), %rax
	movq	%rax, -104(%rbp)
	movq	-56(%rbp), %rax
	movq	%rax, -112(%rbp)
	movq	-64(%rbp), %rax
	movq	%rax, -120(%rbp)
	movq	-72(%rbp), %rax
	movq	%rax, -128(%rbp)
	movq	-80(%rbp), %rax
	movq	%rax, -136(%rbp)
	movq	-96(%rbp), %rax
	movq	-88(%rbp), %rcx
	movq	%rcx, -144(%rbp)
	movq	%rax, -152(%rbp)
Ltmp900:
	leaq	-264(%rbp), %rdi
Ltmp911:
	.loc	7 0 17
	leaq	-152(%rbp), %rsi
	.loc	7 164 17
	callq	__ZN136_$LT$core..result..Result$LT$V$C$E$GT$$u20$as$u20$core..iter..traits..collect..FromIterator$LT$core..result..Result$LT$A$C$E$GT$$GT$$GT$9from_iter28_$u7b$$u7b$closure$u7d$$u7d$17hda81f3f8d314c146E
Ltmp901:
	jmp	LBB148_3
Ltmp912:
LBB148_1:
	.loc	7 169 1 is_stmt 1
	movb	-257(%rbp), %al
	andb	$1, %al
	movzbl	%al, %eax
	cmpq	$1, %rax
	je	LBB148_14
	jmp	LBB148_15
Ltmp913:
LBB148_2:
Ltmp902:
	.loc	7 0 1 is_stmt 0
	movq	%rax, %rcx
	movl	%edx, %eax
	movq	%rcx, -16(%rbp)
	movl	%eax, -8(%rbp)
	jmp	LBB148_1
Ltmp914:
LBB148_3:
	.loc	7 164 24 is_stmt 1
	movb	$1, -34(%rbp)
Ltmp915:
	.loc	7 165 11
	movb	-257(%rbp), %al
	andb	$1, %al
	movzbl	%al, %eax
	.loc	7 165 5 is_stmt 0
	cmpq	$0, %rax
	jne	LBB148_5
Ltmp916:
	.loc	7 167 34 is_stmt 1
	movb	$0, -34(%rbp)
Ltmp905:
	.loc	7 167 17 is_stmt 0
	callq	__ZN79_$LT$core..result..Result$LT$T$C$E$GT$$u20$as$u20$core..ops..try_trait..Try$GT$11from_output17h6a268d445cdacc07E
Ltmp906:
	movb	%al, -265(%rbp)
	jmp	LBB148_10
Ltmp917:
LBB148_5:
	.loc	7 166 14 is_stmt 1
	movb	$0, -33(%rbp)
Ltmp903:
Ltmp918:
	.loc	7 166 20 is_stmt 0
	leaq	l___unnamed_10(%rip), %rdi
	callq	__ZN153_$LT$core..result..Result$LT$T$C$F$GT$$u20$as$u20$core..ops..try_trait..FromResidual$LT$core..result..Result$LT$core..convert..Infallible$C$E$GT$$GT$$GT$13from_residual17h24a5263486e809e5E
Ltmp904:
	movb	%al, -266(%rbp)
	jmp	LBB148_8
Ltmp919:
LBB148_6:
	.loc	7 169 1 is_stmt 1
	testb	$1, -34(%rbp)
	jne	LBB148_11
	jmp	LBB148_1
Ltmp920:
LBB148_7:
Ltmp907:
	.loc	7 0 1 is_stmt 0
	movq	%rax, %rcx
	movl	%edx, %eax
	movq	%rcx, -16(%rbp)
	movl	%eax, -8(%rbp)
	jmp	LBB148_6
Ltmp921:
LBB148_8:
	movb	-266(%rbp), %al
Ltmp922:
	.loc	7 166 20 is_stmt 1
	andb	$1, %al
	movb	%al, -258(%rbp)
Ltmp923:
LBB148_9:
	.loc	7 169 1
	testb	$1, -34(%rbp)
	jne	LBB148_13
	jmp	LBB148_12
Ltmp924:
LBB148_10:
	.loc	7 0 1 is_stmt 0
	movb	-265(%rbp), %al
Ltmp925:
	.loc	7 167 17 is_stmt 1
	andb	$1, %al
	movb	%al, -258(%rbp)
	.loc	7 167 39 is_stmt 0
	jmp	LBB148_9
Ltmp926:
LBB148_11:
	.loc	7 169 1 is_stmt 1
	jmp	LBB148_1
Ltmp927:
LBB148_12:
	.loc	7 169 2 is_stmt 0
	movb	-258(%rbp), %al
	andb	$1, %al
	movzbl	%al, %eax
	addq	$272, %rsp
	popq	%rbp
	retq
Ltmp928:
LBB148_13:
	.loc	7 169 1
	jmp	LBB148_12
Ltmp929:
LBB148_14:
	.loc	7 169 1
	testb	$1, -33(%rbp)
	jne	LBB148_16
Ltmp930:
LBB148_15:
	.loc	7 156 1 is_stmt 1
	movq	-16(%rbp), %rdi
	callq	__Unwind_Resume
Ltmp931:
LBB148_16:
	.loc	7 169 1
	jmp	LBB148_15
Ltmp932:
Lfunc_end148:
	.cfi_endproc
	.section	__TEXT,__gcc_except_tab
	.p2align	2
GCC_except_table148:
Lexception38:
	.byte	255
	.byte	255
	.byte	1
	.uleb128 Lcst_end38-Lcst_begin38
Lcst_begin38:
	.uleb128 Ltmp900-Lfunc_begin148
	.uleb128 Ltmp901-Ltmp900
	.uleb128 Ltmp902-Lfunc_begin148
	.byte	0
	.uleb128 Ltmp905-Lfunc_begin148
	.uleb128 Ltmp904-Ltmp905
	.uleb128 Ltmp907-Lfunc_begin148
	.byte	0
	.uleb128 Ltmp904-Lfunc_begin148
	.uleb128 Lfunc_end148-Ltmp904
	.byte	0
	.byte	0
Lcst_end38:
	.p2align	2

	.section	__TEXT,__text,regular,pure_instructions
	.globl	__ZN4core4iter8adapters11try_process17h3131bfeba940b1bfE
	.p2align	4, 0x90
__ZN4core4iter8adapters11try_process17h3131bfeba940b1bfE:
Lfunc_begin149:
	.loc	7 156 0
	.cfi_startproc
	.cfi_personality 155, _rust_eh_personality
	.cfi_lsda 16, Lexception39
	pushq	%rbp
	.cfi_def_cfa_offset 16
	.cfi_offset %rbp, -16
	movq	%rsp, %rbp
	.cfi_def_cfa_register %rbp
	subq	$272, %rsp
Ltmp941:
	.loc	7 162 24 prologue_end
	movb	$1, -33(%rbp)
	movb	$0, -257(%rbp)
Ltmp942:
	.loc	7 163 32
	movq	40(%rdi), %rax
	movq	%rax, -160(%rbp)
	movq	32(%rdi), %rax
	movq	%rax, -168(%rbp)
	movq	24(%rdi), %rax
	movq	%rax, -176(%rbp)
	movq	16(%rdi), %rax
	movq	%rax, -184(%rbp)
	movq	(%rdi), %rax
	movq	8(%rdi), %rcx
	movq	%rcx, -192(%rbp)
	movq	%rax, -200(%rbp)
	.loc	7 163 17 is_stmt 0
	movq	-160(%rbp), %rax
	movq	%rax, -216(%rbp)
	movq	-168(%rbp), %rax
	movq	%rax, -224(%rbp)
	movq	-176(%rbp), %rax
	movq	%rax, -232(%rbp)
	movq	-184(%rbp), %rax
	movq	%rax, -240(%rbp)
	movq	-200(%rbp), %rax
	movq	-192(%rbp), %rcx
	movq	%rcx, -248(%rbp)
	movq	%rax, -256(%rbp)
	leaq	-257(%rbp), %rax
	movq	%rax, -208(%rbp)
Ltmp943:
	.loc	7 164 19 is_stmt 1
	movq	-208(%rbp), %rax
	movq	%rax, -48(%rbp)
	movq	-216(%rbp), %rax
	movq	%rax, -56(%rbp)
	movq	-224(%rbp), %rax
	movq	%rax, -64(%rbp)
	movq	-232(%rbp), %rax
	movq	%rax, -72(%rbp)
	movq	-240(%rbp), %rax
	movq	%rax, -80(%rbp)
	movq	-256(%rbp), %rax
	movq	-248(%rbp), %rcx
	movq	%rcx, -88(%rbp)
	movq	%rax, -96(%rbp)
	.loc	7 164 17 is_stmt 0
	movq	-48(%rbp), %rax
	movq	%rax, -104(%rbp)
	movq	-56(%rbp), %rax
	movq	%rax, -112(%rbp)
	movq	-64(%rbp), %rax
	movq	%rax, -120(%rbp)
	movq	-72(%rbp), %rax
	movq	%rax, -128(%rbp)
	movq	-80(%rbp), %rax
	movq	%rax, -136(%rbp)
	movq	-96(%rbp), %rax
	movq	-88(%rbp), %rcx
	movq	%rcx, -144(%rbp)
	movq	%rax, -152(%rbp)
Ltmp933:
	leaq	-264(%rbp), %rdi
Ltmp944:
	.loc	7 0 17
	leaq	-152(%rbp), %rsi
	.loc	7 164 17
	callq	__ZN136_$LT$core..result..Result$LT$V$C$E$GT$$u20$as$u20$core..iter..traits..collect..FromIterator$LT$core..result..Result$LT$A$C$E$GT$$GT$$GT$9from_iter28_$u7b$$u7b$closure$u7d$$u7d$17h911ce47411606677E
Ltmp934:
	jmp	LBB149_3
Ltmp945:
LBB149_1:
	.loc	7 169 1 is_stmt 1
	movb	-257(%rbp), %al
	andb	$1, %al
	movzbl	%al, %eax
	cmpq	$1, %rax
	je	LBB149_14
	jmp	LBB149_15
Ltmp946:
LBB149_2:
Ltmp935:
	.loc	7 0 1 is_stmt 0
	movq	%rax, %rcx
	movl	%edx, %eax
	movq	%rcx, -16(%rbp)
	movl	%eax, -8(%rbp)
	jmp	LBB149_1
Ltmp947:
LBB149_3:
	.loc	7 164 24 is_stmt 1
	movb	$1, -34(%rbp)
Ltmp948:
	.loc	7 165 11
	movb	-257(%rbp), %al
	andb	$1, %al
	movzbl	%al, %eax
	.loc	7 165 5 is_stmt 0
	cmpq	$0, %rax
	jne	LBB149_5
Ltmp949:
	.loc	7 167 34 is_stmt 1
	movb	$0, -34(%rbp)
Ltmp938:
	.loc	7 167 17 is_stmt 0
	callq	__ZN79_$LT$core..result..Result$LT$T$C$E$GT$$u20$as$u20$core..ops..try_trait..Try$GT$11from_output17h6a268d445cdacc07E
Ltmp939:
	movb	%al, -265(%rbp)
	jmp	LBB149_10
Ltmp950:
LBB149_5:
	.loc	7 166 14 is_stmt 1
	movb	$0, -33(%rbp)
Ltmp936:
Ltmp951:
	.loc	7 166 20 is_stmt 0
	leaq	l___unnamed_10(%rip), %rdi
	callq	__ZN153_$LT$core..result..Result$LT$T$C$F$GT$$u20$as$u20$core..ops..try_trait..FromResidual$LT$core..result..Result$LT$core..convert..Infallible$C$E$GT$$GT$$GT$13from_residual17h24a5263486e809e5E
Ltmp937:
	movb	%al, -266(%rbp)
	jmp	LBB149_8
Ltmp952:
LBB149_6:
	.loc	7 169 1 is_stmt 1
	testb	$1, -34(%rbp)
	jne	LBB149_11
	jmp	LBB149_1
Ltmp953:
LBB149_7:
Ltmp940:
	.loc	7 0 1 is_stmt 0
	movq	%rax, %rcx
	movl	%edx, %eax
	movq	%rcx, -16(%rbp)
	movl	%eax, -8(%rbp)
	jmp	LBB149_6
Ltmp954:
LBB149_8:
	movb	-266(%rbp), %al
Ltmp955:
	.loc	7 166 20 is_stmt 1
	andb	$1, %al
	movb	%al, -258(%rbp)
Ltmp956:
LBB149_9:
	.loc	7 169 1
	testb	$1, -34(%rbp)
	jne	LBB149_13
	jmp	LBB149_12
Ltmp957:
LBB149_10:
	.loc	7 0 1 is_stmt 0
	movb	-265(%rbp), %al
Ltmp958:
	.loc	7 167 17 is_stmt 1
	andb	$1, %al
	movb	%al, -258(%rbp)
	.loc	7 167 39 is_stmt 0
	jmp	LBB149_9
Ltmp959:
LBB149_11:
	.loc	7 169 1 is_stmt 1
	jmp	LBB149_1
Ltmp960:
LBB149_12:
	.loc	7 169 2 is_stmt 0
	movb	-258(%rbp), %al
	andb	$1, %al
	movzbl	%al, %eax
	addq	$272, %rsp
	popq	%rbp
	retq
Ltmp961:
LBB149_13:
	.loc	7 169 1
	jmp	LBB149_12
Ltmp962:
LBB149_14:
	.loc	7 169 1
	testb	$1, -33(%rbp)
	jne	LBB149_16
Ltmp963:
LBB149_15:
	.loc	7 156 1 is_stmt 1
	movq	-16(%rbp), %rdi
	callq	__Unwind_Resume
Ltmp964:
LBB149_16:
	.loc	7 169 1
	jmp	LBB149_15
Ltmp965:
Lfunc_end149:
	.cfi_endproc
	.section	__TEXT,__gcc_except_tab
	.p2align	2
GCC_except_table149:
Lexception39:
	.byte	255
	.byte	255
	.byte	1
	.uleb128 Lcst_end39-Lcst_begin39
Lcst_begin39:
	.uleb128 Ltmp933-Lfunc_begin149
	.uleb128 Ltmp934-Ltmp933
	.uleb128 Ltmp935-Lfunc_begin149
	.byte	0
	.uleb128 Ltmp938-Lfunc_begin149
	.uleb128 Ltmp937-Ltmp938
	.uleb128 Ltmp940-Lfunc_begin149
	.byte	0
	.uleb128 Ltmp937-Lfunc_begin149
	.uleb128 Lfunc_end149-Ltmp937
	.byte	0
	.byte	0
Lcst_end39:
	.p2align	2

	.section	__TEXT,__text,regular,pure_instructions
	.globl	__ZN4core4iter8adapters3rev12Rev$LT$T$GT$3new17h267f5f939f262847E
	.p2align	4, 0x90
__ZN4core4iter8adapters3rev12Rev$LT$T$GT$3new17h267f5f939f262847E:
Lfunc_begin150:
	.file	32 "/rustc/2c8cc343237b8f7d5a3c3703e3a87f2eb2c54a74/library/core/src/iter/adapters" "rev.rs"
	.loc	32 19 0
	.cfi_startproc
	pushq	%rbp
	.cfi_def_cfa_offset 16
	.cfi_offset %rbp, -16
	movq	%rsp, %rbp
	.cfi_def_cfa_register %rbp
	subq	$32, %rsp
	movq	%rdi, -16(%rbp)
	movq	%rsi, -8(%rbp)
Ltmp966:
	.loc	32 20 9 prologue_end
	movq	%rdi, -32(%rbp)
	movq	%rsi, -24(%rbp)
	.loc	32 21 6
	movq	-32(%rbp), %rax
	movq	-24(%rbp), %rdx
	addq	$32, %rsp
	popq	%rbp
	retq
Ltmp967:
Lfunc_end150:
	.cfi_endproc

	.globl	__ZN4core4iter8adapters3zip16Zip$LT$A$C$B$GT$3new17h13cd004fdefefd2bE
	.p2align	4, 0x90
__ZN4core4iter8adapters3zip16Zip$LT$A$C$B$GT$3new17h13cd004fdefefd2bE:
Lfunc_begin151:
	.loc	3 22 0
	.cfi_startproc
	pushq	%rbp
	.cfi_def_cfa_offset 16
	.cfi_offset %rbp, -16
	movq	%rsp, %rbp
	.cfi_def_cfa_register %rbp
	subq	$48, %rsp
	movq	%rdi, %rax
	movq	%rax, -40(%rbp)
	movq	%rsi, -32(%rbp)
	movq	%rdx, -24(%rbp)
	movq	%rcx, -16(%rbp)
	movq	%r8, -8(%rbp)
Ltmp968:
	.loc	3 23 9 prologue_end
	callq	__ZN111_$LT$core..iter..adapters..zip..Zip$LT$A$C$B$GT$$u20$as$u20$core..iter..adapters..zip..ZipImpl$LT$A$C$B$GT$$GT$3new17h408c2fe9d5981482E
	movq	-40(%rbp), %rax
	.loc	3 24 6
	addq	$48, %rsp
	popq	%rbp
	retq
Ltmp969:
Lfunc_end151:
	.cfi_endproc

	.globl	__ZN4core4iter8adapters3zip16Zip$LT$A$C$B$GT$3new17hcf0d426e2e7b87e7E
	.p2align	4, 0x90
__ZN4core4iter8adapters3zip16Zip$LT$A$C$B$GT$3new17hcf0d426e2e7b87e7E:
Lfunc_begin152:
	.loc	3 22 0
	.cfi_startproc
	pushq	%rbp
	.cfi_def_cfa_offset 16
	.cfi_offset %rbp, -16
	movq	%rsp, %rbp
	.cfi_def_cfa_register %rbp
	subq	$48, %rsp
	movq	%rdi, %rax
	movq	%rax, -40(%rbp)
	movq	%rsi, -32(%rbp)
	movq	%rdx, -24(%rbp)
	movq	%rcx, -16(%rbp)
	movq	%r8, -8(%rbp)
Ltmp970:
	.loc	3 23 9 prologue_end
	callq	__ZN111_$LT$core..iter..adapters..zip..Zip$LT$A$C$B$GT$$u20$as$u20$core..iter..adapters..zip..ZipImpl$LT$A$C$B$GT$$GT$3new17h82117a6f022d3113E
	movq	-40(%rbp), %rax
	.loc	3 24 6
	addq	$48, %rsp
	popq	%rbp
	retq
Ltmp971:
Lfunc_end152:
	.cfi_endproc

	.globl	__ZN4core4iter8adapters3zip16Zip$LT$A$C$B$GT$3new17hf1cc22aed3c7445eE
	.p2align	4, 0x90
__ZN4core4iter8adapters3zip16Zip$LT$A$C$B$GT$3new17hf1cc22aed3c7445eE:
Lfunc_begin153:
	.loc	3 22 0
	.cfi_startproc
	pushq	%rbp
	.cfi_def_cfa_offset 16
	.cfi_offset %rbp, -16
	movq	%rsp, %rbp
	.cfi_def_cfa_register %rbp
	subq	$48, %rsp
	movq	%rdi, %rax
	movq	%rax, -40(%rbp)
	movq	%rsi, -32(%rbp)
	movq	%rdx, -24(%rbp)
	movq	%rcx, -16(%rbp)
	movq	%r8, -8(%rbp)
Ltmp972:
	.loc	3 23 9 prologue_end
	callq	__ZN111_$LT$core..iter..adapters..zip..Zip$LT$A$C$B$GT$$u20$as$u20$core..iter..adapters..zip..ZipImpl$LT$A$C$B$GT$$GT$3new17hcee9d8e2fd957355E
	movq	-40(%rbp), %rax
	.loc	3 24 6
	addq	$48, %rsp
	popq	%rbp
	retq
Ltmp973:
Lfunc_end153:
	.cfi_endproc

	.globl	__ZN4core4iter8adapters3zip27TrustedRandomAccessNoCoerce4size17h0304570deca6c8adE
	.p2align	4, 0x90
__ZN4core4iter8adapters3zip27TrustedRandomAccessNoCoerce4size17h0304570deca6c8adE:
Lfunc_begin154:
	.loc	3 538 0
	.cfi_startproc
	pushq	%rbp
	.cfi_def_cfa_offset 16
	.cfi_offset %rbp, -16
	movq	%rsp, %rbp
	.cfi_def_cfa_register %rbp
	subq	$32, %rsp
	movq	%rdi, %rsi
	movq	%rsi, -8(%rbp)
Ltmp974:
	.loc	3 542 9 prologue_end
	leaq	-32(%rbp), %rdi
	callq	__ZN94_$LT$core..slice..iter..IterMut$LT$T$GT$$u20$as$u20$core..iter..traits..iterator..Iterator$GT$9size_hint17h2f48ec192643dd23E
	movq	-32(%rbp), %rax
	.loc	3 543 6
	addq	$32, %rsp
	popq	%rbp
	retq
Ltmp975:
Lfunc_end154:
	.cfi_endproc

	.globl	__ZN4core4iter8adapters3zip27TrustedRandomAccessNoCoerce4size17h93f8c453ce635239E
	.p2align	4, 0x90
__ZN4core4iter8adapters3zip27TrustedRandomAccessNoCoerce4size17h93f8c453ce635239E:
Lfunc_begin155:
	.loc	3 538 0
	.cfi_startproc
	pushq	%rbp
	.cfi_def_cfa_offset 16
	.cfi_offset %rbp, -16
	movq	%rsp, %rbp
	.cfi_def_cfa_register %rbp
	subq	$32, %rsp
	movq	%rdi, %rsi
	movq	%rsi, -8(%rbp)
Ltmp976:
	.loc	3 542 9 prologue_end
	leaq	-32(%rbp), %rdi
	callq	__ZN91_$LT$core..slice..iter..Iter$LT$T$GT$$u20$as$u20$core..iter..traits..iterator..Iterator$GT$9size_hint17h2c1c8705e9a162cfE
	movq	-32(%rbp), %rax
	.loc	3 543 6
	addq	$32, %rsp
	popq	%rbp
	retq
Ltmp977:
Lfunc_end155:
	.cfi_endproc

	.globl	__ZN4core4iter8adapters3zip27TrustedRandomAccessNoCoerce4size17he8ac9591aeb0334dE
	.p2align	4, 0x90
__ZN4core4iter8adapters3zip27TrustedRandomAccessNoCoerce4size17he8ac9591aeb0334dE:
Lfunc_begin156:
	.loc	3 538 0
	.cfi_startproc
	pushq	%rbp
	.cfi_def_cfa_offset 16
	.cfi_offset %rbp, -16
	movq	%rsp, %rbp
	.cfi_def_cfa_register %rbp
	subq	$32, %rsp
	movq	%rdi, %rsi
	movq	%rsi, -8(%rbp)
Ltmp978:
	.loc	3 542 9 prologue_end
	leaq	-32(%rbp), %rdi
	callq	__ZN91_$LT$core..slice..iter..Iter$LT$T$GT$$u20$as$u20$core..iter..traits..iterator..Iterator$GT$9size_hint17h18579111099571dbE
	movq	-32(%rbp), %rax
	.loc	3 543 6
	addq	$32, %rsp
	popq	%rbp
	retq
Ltmp979:
Lfunc_end156:
	.cfi_endproc

	.globl	__ZN4core4iter8adapters4fuse13Fuse$LT$I$GT$3new17h308acb87d972de49E
	.p2align	4, 0x90
__ZN4core4iter8adapters4fuse13Fuse$LT$I$GT$3new17h308acb87d972de49E:
Lfunc_begin157:
	.loc	1 24 0
	.cfi_startproc
	pushq	%rbp
	.cfi_def_cfa_offset 16
	.cfi_offset %rbp, -16
	movq	%rsp, %rbp
	.cfi_def_cfa_register %rbp
	subq	$112, %rsp
	movq	%rdi, -112(%rbp)
	movq	%rdi, -104(%rbp)
Ltmp980:
	.loc	1 25 27 prologue_end
	leaq	-48(%rbp), %rdi
	movl	$48, %edx
	callq	_memcpy
Ltmp981:
	.loc	1 25 22 is_stmt 0
	leaq	-96(%rbp), %rdi
	leaq	-48(%rbp), %rsi
	movl	$48, %edx
	callq	_memcpy
	movq	-112(%rbp), %rdi
	.loc	1 25 9
	leaq	-96(%rbp), %rsi
	movl	$48, %edx
	callq	_memcpy
	movq	-104(%rbp), %rax
	.loc	1 26 6 is_stmt 1
	addq	$112, %rsp
	popq	%rbp
	retq
Ltmp982:
Lfunc_end157:
	.cfi_endproc

	.globl	__ZN4core4iter8adapters4fuse13Fuse$LT$I$GT$3new17h7361b0c9b6e5ce65E
	.p2align	4, 0x90
__ZN4core4iter8adapters4fuse13Fuse$LT$I$GT$3new17h7361b0c9b6e5ce65E:
Lfunc_begin158:
	.loc	1 24 0
	.cfi_startproc
	pushq	%rbp
	.cfi_def_cfa_offset 16
	.cfi_offset %rbp, -16
	movq	%rsp, %rbp
	.cfi_def_cfa_register %rbp
	subq	$112, %rsp
	movq	%rdi, -112(%rbp)
	movq	%rdi, -104(%rbp)
Ltmp983:
	.loc	1 25 27 prologue_end
	leaq	-48(%rbp), %rdi
	movl	$48, %edx
	callq	_memcpy
Ltmp984:
	.loc	1 25 22 is_stmt 0
	leaq	-96(%rbp), %rdi
	leaq	-48(%rbp), %rsi
	movl	$48, %edx
	callq	_memcpy
	movq	-112(%rbp), %rdi
	.loc	1 25 9
	leaq	-96(%rbp), %rsi
	movl	$48, %edx
	callq	_memcpy
	movq	-104(%rbp), %rax
	.loc	1 26 6 is_stmt 1
	addq	$112, %rsp
	popq	%rbp
	retq
Ltmp985:
Lfunc_end158:
	.cfi_endproc

	.globl	__ZN4core4iter8adapters4scan22Scan$LT$I$C$St$C$F$GT$3new17h6beceee589083803E
	.p2align	4, 0x90
__ZN4core4iter8adapters4scan22Scan$LT$I$C$St$C$F$GT$3new17h6beceee589083803E:
Lfunc_begin159:
	.loc	13 22 0
	.cfi_startproc
	pushq	%rbp
	.cfi_def_cfa_offset 16
	.cfi_offset %rbp, -16
	movq	%rsp, %rbp
	.cfi_def_cfa_register %rbp
	subq	$80, %rsp
	movq	%rdi, -80(%rbp)
	movq	%rdi, -72(%rbp)
Ltmp986:
	.loc	13 23 16 prologue_end
	leaq	-64(%rbp), %rdi
	movl	$48, %edx
	callq	_memcpy
Ltmp987:
	.loc	13 0 16 is_stmt 0
	movq	-80(%rbp), %rdi
	.loc	13 23 9
	leaq	-64(%rbp), %rsi
	movl	$48, %edx
	callq	_memcpy
	movq	-72(%rbp), %rax
	.loc	13 24 6 is_stmt 1
	addq	$80, %rsp
	popq	%rbp
	retq
Ltmp988:
Lfunc_end159:
	.cfi_endproc

	.globl	__ZN4core4iter8adapters4scan22Scan$LT$I$C$St$C$F$GT$3new17hb1ff3f5129e3a191E
	.p2align	4, 0x90
__ZN4core4iter8adapters4scan22Scan$LT$I$C$St$C$F$GT$3new17hb1ff3f5129e3a191E:
Lfunc_begin160:
	.loc	13 22 0
	.cfi_startproc
	pushq	%rbp
	.cfi_def_cfa_offset 16
	.cfi_offset %rbp, -16
	movq	%rsp, %rbp
	.cfi_def_cfa_register %rbp
	subq	$80, %rsp
	movq	%rdi, -80(%rbp)
	movq	%rdi, -72(%rbp)
Ltmp989:
	.loc	13 23 16 prologue_end
	leaq	-64(%rbp), %rdi
	movl	$48, %edx
	callq	_memcpy
Ltmp990:
	.loc	13 0 16 is_stmt 0
	movq	-80(%rbp), %rdi
	.loc	13 23 9
	leaq	-64(%rbp), %rsi
	movl	$48, %edx
	callq	_memcpy
	movq	-72(%rbp), %rax
	.loc	13 24 6 is_stmt 1
	addq	$80, %rsp
	popq	%rbp
	retq
Ltmp991:
Lfunc_end160:
	.cfi_endproc

	.globl	__ZN4core4iter8adapters4take13Take$LT$I$GT$3new17h6ffaf79f980b88ceE
	.p2align	4, 0x90
__ZN4core4iter8adapters4take13Take$LT$I$GT$3new17h6ffaf79f980b88ceE:
Lfunc_begin161:
	.loc	2 21 0
	.cfi_startproc
	pushq	%rbp
	.cfi_def_cfa_offset 16
	.cfi_offset %rbp, -16
	movq	%rsp, %rbp
	.cfi_def_cfa_register %rbp
	subq	$96, %rsp
	movq	%rdx, -88(%rbp)
	movq	%rdi, -80(%rbp)
	movq	%rdi, -72(%rbp)
Ltmp992:
	movq	%rdx, -8(%rbp)
Ltmp993:
	.loc	2 22 16 prologue_end
	leaq	-64(%rbp), %rdi
	movl	$56, %edx
	callq	_memcpy
Ltmp994:
	.loc	2 0 16 is_stmt 0
	movq	-80(%rbp), %rdi
	.loc	2 22 9
	addq	$8, %rdi
	leaq	-64(%rbp), %rsi
	movl	$56, %edx
	callq	_memcpy
	movq	-88(%rbp), %rdx
	movq	-80(%rbp), %rdi
	movq	-72(%rbp), %rax
	movq	%rdx, (%rdi)
	.loc	2 23 6 is_stmt 1
	addq	$96, %rsp
	popq	%rbp
	retq
Ltmp995:
Lfunc_end161:
	.cfi_endproc

	.globl	__ZN4core4unit96_$LT$impl$u20$core..iter..traits..collect..FromIterator$LT$$LP$$RP$$GT$$u20$for$u20$$LP$$RP$$GT$9from_iter17h32eaf18773006acdE
	.p2align	4, 0x90
__ZN4core4unit96_$LT$impl$u20$core..iter..traits..collect..FromIterator$LT$$LP$$RP$$GT$$u20$for$u20$$LP$$RP$$GT$9from_iter17h32eaf18773006acdE:
Lfunc_begin162:
	.file	33 "/rustc/2c8cc343237b8f7d5a3c3703e3a87f2eb2c54a74/library/core/src" "unit.rs"
	.loc	33 18 0
	.cfi_startproc
	pushq	%rbp
	.cfi_def_cfa_offset 16
	.cfi_offset %rbp, -16
	movq	%rsp, %rbp
	.cfi_def_cfa_register %rbp
	subq	$112, %rsp
	movq	%rdi, %rsi
Ltmp996:
	.loc	33 19 9 prologue_end
	leaq	-56(%rbp), %rdi
	movl	$56, %edx
	callq	_memcpy
Ltmp997:
	leaq	-112(%rbp), %rdi
	leaq	-56(%rbp), %rsi
	callq	__ZN63_$LT$I$u20$as$u20$core..iter..traits..collect..IntoIterator$GT$9into_iter17h9ee3a48457110267E
	leaq	-112(%rbp), %rdi
	callq	__ZN4core4iter6traits8iterator8Iterator8for_each17h4315a492806f013bE
	.loc	33 20 6
	addq	$112, %rsp
	popq	%rbp
	retq
Ltmp998:
Lfunc_end162:
	.cfi_endproc

	.globl	__ZN4core4unit96_$LT$impl$u20$core..iter..traits..collect..FromIterator$LT$$LP$$RP$$GT$$u20$for$u20$$LP$$RP$$GT$9from_iter17hc5f2c018e2fc3284E
	.p2align	4, 0x90
__ZN4core4unit96_$LT$impl$u20$core..iter..traits..collect..FromIterator$LT$$LP$$RP$$GT$$u20$for$u20$$LP$$RP$$GT$9from_iter17hc5f2c018e2fc3284E:
Lfunc_begin163:
	.loc	33 18 0
	.cfi_startproc
	pushq	%rbp
	.cfi_def_cfa_offset 16
	.cfi_offset %rbp, -16
	movq	%rsp, %rbp
	.cfi_def_cfa_register %rbp
	subq	$112, %rsp
	movq	%rdi, %rsi
Ltmp999:
	.loc	33 19 9 prologue_end
	leaq	-56(%rbp), %rdi
	movl	$56, %edx
	callq	_memcpy
Ltmp1000:
	leaq	-112(%rbp), %rdi
	leaq	-56(%rbp), %rsi
	callq	__ZN63_$LT$I$u20$as$u20$core..iter..traits..collect..IntoIterator$GT$9into_iter17h92e1063955500017E
	leaq	-112(%rbp), %rdi
	callq	__ZN4core4iter6traits8iterator8Iterator8for_each17h25bbbe11615057b6E
	.loc	33 20 6
	addq	$112, %rsp
	popq	%rbp
	retq
Ltmp1001:
Lfunc_end163:
	.cfi_endproc

	.globl	__ZN4core4unit96_$LT$impl$u20$core..iter..traits..collect..FromIterator$LT$$LP$$RP$$GT$$u20$for$u20$$LP$$RP$$GT$9from_iter28_$u7b$$u7b$closure$u7d$$u7d$17h3f54f6e2d75d0ab6E
	.p2align	4, 0x90
__ZN4core4unit96_$LT$impl$u20$core..iter..traits..collect..FromIterator$LT$$LP$$RP$$GT$$u20$for$u20$$LP$$RP$$GT$9from_iter28_$u7b$$u7b$closure$u7d$$u7d$17h3f54f6e2d75d0ab6E:
Lfunc_begin164:
	.loc	33 19 0
	.cfi_startproc
	pushq	%rbp
	.cfi_def_cfa_offset 16
	.cfi_offset %rbp, -16
	movq	%rsp, %rbp
	.cfi_def_cfa_register %rbp
	subq	$16, %rsp
	movq	%rdi, -16(%rbp)
Ltmp1002:
	.loc	33 19 42 prologue_end
	addq	$16, %rsp
	popq	%rbp
	retq
Ltmp1003:
Lfunc_end164:
	.cfi_endproc

	.globl	__ZN4core4unit96_$LT$impl$u20$core..iter..traits..collect..FromIterator$LT$$LP$$RP$$GT$$u20$for$u20$$LP$$RP$$GT$9from_iter28_$u7b$$u7b$closure$u7d$$u7d$17hecaf65bd6d9591f0E
	.p2align	4, 0x90
__ZN4core4unit96_$LT$impl$u20$core..iter..traits..collect..FromIterator$LT$$LP$$RP$$GT$$u20$for$u20$$LP$$RP$$GT$9from_iter28_$u7b$$u7b$closure$u7d$$u7d$17hecaf65bd6d9591f0E:
Lfunc_begin165:
	.loc	33 19 0
	.cfi_startproc
	pushq	%rbp
	.cfi_def_cfa_offset 16
	.cfi_offset %rbp, -16
	movq	%rsp, %rbp
	.cfi_def_cfa_register %rbp
	subq	$16, %rsp
	movq	%rdi, -16(%rbp)
Ltmp1004:
	.loc	33 19 42 prologue_end
	addq	$16, %rsp
	popq	%rbp
	retq
Ltmp1005:
Lfunc_end165:
	.cfi_endproc

	.p2align	4, 0x90
__ZN4core5alloc6layout6Layout5array5inner17h8a24f47f31eead8eE:
Lfunc_begin166:
	.file	34 "/rustc/2c8cc343237b8f7d5a3c3703e3a87f2eb2c54a74/library/core/src/alloc" "layout.rs"
	.loc	34 441 0
	.cfi_startproc
	pushq	%rbp
	.cfi_def_cfa_offset 16
	.cfi_offset %rbp, -16
	movq	%rsp, %rbp
	.cfi_def_cfa_register %rbp
	subq	$176, %rsp
	movq	%rdi, -168(%rbp)
	movq	%rsi, -160(%rbp)
	movq	%rdx, -152(%rbp)
	movq	%rdi, -88(%rbp)
	movq	%rsi, -80(%rbp)
	movq	%rdx, -72(%rbp)
Ltmp1006:
	.loc	34 452 16 prologue_end
	cmpq	$0, %rdi
	jne	LBB166_2
	movb	$0, -121(%rbp)
	jmp	LBB166_5
LBB166_2:
	.loc	34 0 16 is_stmt 0
	movq	-168(%rbp), %rax
	movq	-160(%rbp), %rcx
	.loc	34 452 68
	movq	%rcx, -64(%rbp)
Ltmp1007:
	.loc	34 93 32 is_stmt 1
	movq	%rcx, -56(%rbp)
Ltmp1008:
	.file	35 "/rustc/2c8cc343237b8f7d5a3c3703e3a87f2eb2c54a74/library/core/src/ptr" "alignment.rs"
	.loc	35 97 9
	movq	%rcx, -104(%rbp)
	movq	-104(%rbp), %rdx
Ltmp1009:
	.loc	34 93 31
	subq	$1, %rdx
	.loc	34 93 9 is_stmt 0
	movabsq	$9223372036854775807, %rcx
	subq	%rdx, %rcx
	movq	%rcx, -176(%rbp)
Ltmp1010:
	.loc	34 452 41 is_stmt 1
	cmpq	$0, %rax
	sete	%al
	testb	$1, %al
	jne	LBB166_4
	.loc	34 0 41 is_stmt 0
	movq	-168(%rbp), %rcx
	movq	-176(%rbp), %rax
	.loc	34 452 41
	xorl	%edx, %edx
	divq	%rcx
	movq	%rax, %rcx
	movq	-152(%rbp), %rax
	.loc	34 452 37
	cmpq	%rcx, %rax
	seta	%al
	.loc	34 452 16
	andb	$1, %al
	movb	%al, -121(%rbp)
	jmp	LBB166_5
LBB166_4:
	.loc	34 452 41
	leaq	_str.0(%rip), %rdi
	leaq	l___unnamed_11(%rip), %rdx
	movl	$25, %esi
	callq	__ZN4core9panicking5panic17hc1bc45270cf64b03E
LBB166_5:
	.loc	34 452 16
	testb	$1, -121(%rbp)
	jne	LBB166_7
	.loc	34 0 16
	movq	-160(%rbp), %rax
	movq	-152(%rbp), %rdx
	movq	-168(%rbp), %rcx
	.loc	34 456 30 is_stmt 1
	imulq	%rdx, %rcx
	movq	%rcx, -48(%rbp)
Ltmp1011:
	.loc	34 461 59
	movq	%rcx, -40(%rbp)
	.loc	34 461 71 is_stmt 0
	movq	%rax, -32(%rbp)
Ltmp1012:
	.loc	35 97 9 is_stmt 1
	movq	%rax, -96(%rbp)
	movq	-96(%rbp), %rax
	movq	%rax, -24(%rbp)
Ltmp1013:
	.loc	34 120 65
	movq	%rax, -16(%rbp)
Ltmp1014:
	.loc	35 89 18
	movq	%rax, -8(%rbp)
	movq	-8(%rbp), %rax
Ltmp1015:
	.loc	34 120 18
	movq	%rcx, -120(%rbp)
	movq	%rax, -112(%rbp)
Ltmp1016:
	.loc	34 461 22
	movq	-120(%rbp), %rcx
	movq	-112(%rbp), %rax
	movq	%rcx, -144(%rbp)
	movq	%rax, -136(%rbp)
Ltmp1017:
	.loc	34 462 10
	jmp	LBB166_8
LBB166_7:
	.loc	34 453 24
	movq	$0, -136(%rbp)
LBB166_8:
	.loc	34 462 10
	movq	-144(%rbp), %rax
	movq	-136(%rbp), %rdx
	addq	$176, %rsp
	popq	%rbp
	retq
Ltmp1018:
Lfunc_end166:
	.cfi_endproc

	.globl	__ZN4core5array106_$LT$impl$u20$core..iter..traits..collect..IntoIterator$u20$for$u20$$RF$mut$u20$$u5b$T$u3b$$u20$N$u5d$$GT$9into_iter17h85023762ac325278E
	.p2align	4, 0x90
__ZN4core5array106_$LT$impl$u20$core..iter..traits..collect..IntoIterator$u20$for$u20$$RF$mut$u20$$u5b$T$u3b$$u20$N$u5d$$GT$9into_iter17h85023762ac325278E:
Lfunc_begin167:
	.file	36 "/rustc/2c8cc343237b8f7d5a3c3703e3a87f2eb2c54a74/library/core/src/array" "mod.rs"
	.loc	36 343 0
	.cfi_startproc
	pushq	%rbp
	.cfi_def_cfa_offset 16
	.cfi_offset %rbp, -16
	movq	%rsp, %rbp
	.cfi_def_cfa_register %rbp
	subq	$32, %rsp
	movq	%rdi, -24(%rbp)
Ltmp1019:
	.loc	36 344 9 prologue_end
	movq	%rdi, -16(%rbp)
	movq	$6, -8(%rbp)
	movl	$6, %esi
Ltmp1020:
	.file	37 "/rustc/2c8cc343237b8f7d5a3c3703e3a87f2eb2c54a74/library/core/src/slice" "mod.rs"
	.loc	37 761 9
	callq	__ZN4core5slice4iter16IterMut$LT$T$GT$3new17hf46e7163117a5334E
Ltmp1021:
	.loc	36 345 6
	addq	$32, %rsp
	popq	%rbp
	retq
Ltmp1022:
Lfunc_end167:
	.cfi_endproc

	.globl	__ZN4core5array75_$LT$impl$u20$core..default..Default$u20$for$u20$$u5b$T$u3b$$u20$_$u5d$$GT$7default17hbe6fab8913988438E
	.p2align	4, 0x90
__ZN4core5array75_$LT$impl$u20$core..default..Default$u20$for$u20$$u5b$T$u3b$$u20$_$u5d$$GT$7default17hbe6fab8913988438E:
Lfunc_begin168:
	.loc	36 452 0
	.cfi_startproc
	.cfi_personality 155, _rust_eh_personality
	.cfi_lsda 16, Lexception40
	pushq	%rbp
	.cfi_def_cfa_offset 16
	.cfi_offset %rbp, -16
	movq	%rsp, %rbp
	.cfi_def_cfa_register %rbp
	pushq	%r15
	pushq	%r14
	pushq	%r13
	pushq	%r12
	pushq	%rbx
	subq	$200, %rsp
	.cfi_offset %rbx, -56
	.cfi_offset %r12, -48
	.cfi_offset %r13, -40
	.cfi_offset %r14, -32
	.cfi_offset %r15, -24
	movq	%rdi, -104(%rbp)
	movq	%rdi, -96(%rbp)
Ltmp1038:
	.loc	36 453 18 prologue_end
	callq	__ZN4core5slice76_$LT$impl$u20$core..default..Default$u20$for$u20$$RF$mut$u20$$u5b$T$u5d$$GT$7default17hf3f9982d9e885482E
	movq	%rax, -88(%rbp)
	movq	%rdx, -80(%rbp)
Ltmp1023:
	.loc	36 453 35 is_stmt 0
	callq	__ZN4core5slice76_$LT$impl$u20$core..default..Default$u20$for$u20$$RF$mut$u20$$u5b$T$u5d$$GT$7default17hf3f9982d9e885482E
Ltmp1024:
	movq	%rdx, -72(%rbp)
	movq	%rax, -64(%rbp)
	jmp	LBB168_3
LBB168_1:
	.loc	36 452 13 is_stmt 1
	movq	-56(%rbp), %rdi
	callq	__Unwind_Resume
LBB168_2:
Ltmp1025:
	.loc	36 0 13 is_stmt 0
	movq	%rax, %rcx
	movl	%edx, %eax
	movq	%rcx, -56(%rbp)
	movl	%eax, -48(%rbp)
	jmp	LBB168_1
LBB168_3:
	movq	-72(%rbp), %rax
	movq	-64(%rbp), %rcx
	movq	%rcx, -136(%rbp)
	movq	%rax, -128(%rbp)
Ltmp1026:
	.loc	36 453 35 is_stmt 1
	callq	__ZN4core5slice76_$LT$impl$u20$core..default..Default$u20$for$u20$$RF$mut$u20$$u5b$T$u5d$$GT$7default17hf3f9982d9e885482E
Ltmp1027:
	movq	%rdx, -120(%rbp)
	movq	%rax, -112(%rbp)
	jmp	LBB168_6
LBB168_4:
	.loc	36 453 52 is_stmt 0
	jmp	LBB168_1
LBB168_5:
Ltmp1028:
	.loc	36 0 52
	movq	%rax, %rcx
	movl	%edx, %eax
	movq	%rcx, -56(%rbp)
	movl	%eax, -48(%rbp)
	jmp	LBB168_4
LBB168_6:
	movq	-120(%rbp), %rax
	movq	-112(%rbp), %rcx
	movq	%rcx, -168(%rbp)
	movq	%rax, -160(%rbp)
Ltmp1029:
	.loc	36 453 35
	callq	__ZN4core5slice76_$LT$impl$u20$core..default..Default$u20$for$u20$$RF$mut$u20$$u5b$T$u5d$$GT$7default17hf3f9982d9e885482E
Ltmp1030:
	movq	%rdx, -152(%rbp)
	movq	%rax, -144(%rbp)
	jmp	LBB168_9
LBB168_7:
	.loc	36 453 52
	jmp	LBB168_4
LBB168_8:
Ltmp1031:
	.loc	36 0 52
	movq	%rax, %rcx
	movl	%edx, %eax
	movq	%rcx, -56(%rbp)
	movl	%eax, -48(%rbp)
	jmp	LBB168_7
LBB168_9:
	movq	-152(%rbp), %rax
	movq	-144(%rbp), %rcx
	movq	%rcx, -200(%rbp)
	movq	%rax, -192(%rbp)
Ltmp1032:
	.loc	36 453 35
	callq	__ZN4core5slice76_$LT$impl$u20$core..default..Default$u20$for$u20$$RF$mut$u20$$u5b$T$u5d$$GT$7default17hf3f9982d9e885482E
Ltmp1033:
	movq	%rdx, -184(%rbp)
	movq	%rax, -176(%rbp)
	jmp	LBB168_12
LBB168_10:
	.loc	36 453 52
	jmp	LBB168_7
LBB168_11:
Ltmp1034:
	.loc	36 0 52
	movq	%rax, %rcx
	movl	%edx, %eax
	movq	%rcx, -56(%rbp)
	movl	%eax, -48(%rbp)
	jmp	LBB168_10
LBB168_12:
	movq	-184(%rbp), %rax
	movq	-176(%rbp), %rcx
	movq	%rcx, -232(%rbp)
	movq	%rax, -224(%rbp)
Ltmp1035:
	.loc	36 453 35
	callq	__ZN4core5slice76_$LT$impl$u20$core..default..Default$u20$for$u20$$RF$mut$u20$$u5b$T$u5d$$GT$7default17hf3f9982d9e885482E
Ltmp1036:
	movq	%rdx, -216(%rbp)
	movq	%rax, -208(%rbp)
	jmp	LBB168_15
LBB168_13:
	.loc	36 453 52
	jmp	LBB168_10
LBB168_14:
Ltmp1037:
	.loc	36 0 52
	movq	%rax, %rcx
	movl	%edx, %eax
	movq	%rcx, -56(%rbp)
	movl	%eax, -48(%rbp)
	jmp	LBB168_13
LBB168_15:
	movq	-96(%rbp), %rax
	movq	-104(%rbp), %rcx
	movq	-216(%rbp), %rdx
	movq	-208(%rbp), %rsi
	movq	-224(%rbp), %rdi
	movq	-232(%rbp), %r8
	movq	-192(%rbp), %r9
	movq	-200(%rbp), %r10
	movq	-160(%rbp), %r11
	movq	-168(%rbp), %rbx
	movq	-128(%rbp), %r14
	movq	-136(%rbp), %r15
	movq	-80(%rbp), %r12
	movq	-88(%rbp), %r13
	.loc	36 453 17
	movq	%r13, (%rcx)
	movq	%r12, 8(%rcx)
	movq	%r15, 16(%rcx)
	movq	%r14, 24(%rcx)
	movq	%rbx, 32(%rcx)
	movq	%r11, 40(%rcx)
	movq	%r10, 48(%rcx)
	movq	%r9, 56(%rcx)
	movq	%r8, 64(%rcx)
	movq	%rdi, 72(%rcx)
	movq	%rsi, 80(%rcx)
	movq	%rdx, 88(%rcx)
	.loc	36 454 14 is_stmt 1
	addq	$200, %rsp
	popq	%rbx
	popq	%r12
	popq	%r13
	popq	%r14
	popq	%r15
	popq	%rbp
	retq
Ltmp1039:
Lfunc_end168:
	.cfi_endproc
	.section	__TEXT,__gcc_except_tab
	.p2align	2
GCC_except_table168:
Lexception40:
	.byte	255
	.byte	255
	.byte	1
	.uleb128 Lcst_end40-Lcst_begin40
Lcst_begin40:
	.uleb128 Lfunc_begin168-Lfunc_begin168
	.uleb128 Ltmp1023-Lfunc_begin168
	.byte	0
	.byte	0
	.uleb128 Ltmp1023-Lfunc_begin168
	.uleb128 Ltmp1024-Ltmp1023
	.uleb128 Ltmp1025-Lfunc_begin168
	.byte	0
	.uleb128 Ltmp1024-Lfunc_begin168
	.uleb128 Ltmp1026-Ltmp1024
	.byte	0
	.byte	0
	.uleb128 Ltmp1026-Lfunc_begin168
	.uleb128 Ltmp1027-Ltmp1026
	.uleb128 Ltmp1028-Lfunc_begin168
	.byte	0
	.uleb128 Ltmp1029-Lfunc_begin168
	.uleb128 Ltmp1030-Ltmp1029
	.uleb128 Ltmp1031-Lfunc_begin168
	.byte	0
	.uleb128 Ltmp1032-Lfunc_begin168
	.uleb128 Ltmp1033-Ltmp1032
	.uleb128 Ltmp1034-Lfunc_begin168
	.byte	0
	.uleb128 Ltmp1035-Lfunc_begin168
	.uleb128 Ltmp1036-Ltmp1035
	.uleb128 Ltmp1037-Lfunc_begin168
	.byte	0
Lcst_end40:
	.p2align	2

	.section	__TEXT,__text,regular,pure_instructions
	.globl	__ZN4core5array85_$LT$impl$u20$core..ops..index..Index$LT$I$GT$$u20$for$u20$$u5b$T$u3b$$u20$N$u5d$$GT$5index17hd809fb792debe20eE
	.p2align	4, 0x90
__ZN4core5array85_$LT$impl$u20$core..ops..index..Index$LT$I$GT$$u20$for$u20$$u5b$T$u3b$$u20$N$u5d$$GT$5index17hd809fb792debe20eE:
Lfunc_begin169:
	.loc	36 357 0
	.cfi_startproc
	pushq	%rbp
	.cfi_def_cfa_offset 16
	.cfi_offset %rbp, -16
	movq	%rsp, %rbp
	.cfi_def_cfa_register %rbp
	subq	$16, %rsp
	movq	%rdx, %rcx
	movq	%rsi, %rdx
	movq	%rdi, -16(%rbp)
	movq	%rdx, -8(%rbp)
	movl	$6, %esi
Ltmp1040:
	.loc	36 358 9 prologue_end
	callq	__ZN4core5slice5index74_$LT$impl$u20$core..ops..index..Index$LT$I$GT$$u20$for$u20$$u5b$T$u5d$$GT$5index17hd80d6fcd380140f2E
	.loc	36 359 6
	addq	$16, %rsp
	popq	%rbp
	retq
Ltmp1041:
Lfunc_end169:
	.cfi_endproc

	.globl	__ZN4core5array88_$LT$impl$u20$core..ops..index..IndexMut$LT$I$GT$$u20$for$u20$$u5b$T$u3b$$u20$N$u5d$$GT$9index_mut17h9914a211d2cc9a35E
	.p2align	4, 0x90
__ZN4core5array88_$LT$impl$u20$core..ops..index..IndexMut$LT$I$GT$$u20$for$u20$$u5b$T$u3b$$u20$N$u5d$$GT$9index_mut17h9914a211d2cc9a35E:
Lfunc_begin170:
	.loc	36 369 0
	.cfi_startproc
	pushq	%rbp
	.cfi_def_cfa_offset 16
	.cfi_offset %rbp, -16
	movq	%rsp, %rbp
	.cfi_def_cfa_register %rbp
	subq	$16, %rsp
	movq	%rdx, %rcx
	movq	%rsi, %rdx
	movq	%rdi, -16(%rbp)
	movq	%rdx, -8(%rbp)
	movl	$8, %esi
Ltmp1042:
	.loc	36 370 9 prologue_end
	callq	__ZN4core5slice5index77_$LT$impl$u20$core..ops..index..IndexMut$LT$I$GT$$u20$for$u20$$u5b$T$u5d$$GT$9index_mut17h67ee59fa7f8bde5fE
	.loc	36 371 6
	addq	$16, %rsp
	popq	%rbp
	retq
Ltmp1043:
Lfunc_end170:
	.cfi_endproc

	.globl	__ZN4core5array88_$LT$impl$u20$core..ops..index..IndexMut$LT$I$GT$$u20$for$u20$$u5b$T$u3b$$u20$N$u5d$$GT$9index_mut17ha051ef716c6132d9E
	.p2align	4, 0x90
__ZN4core5array88_$LT$impl$u20$core..ops..index..IndexMut$LT$I$GT$$u20$for$u20$$u5b$T$u3b$$u20$N$u5d$$GT$9index_mut17ha051ef716c6132d9E:
Lfunc_begin171:
	.loc	36 369 0
	.cfi_startproc
	pushq	%rbp
	.cfi_def_cfa_offset 16
	.cfi_offset %rbp, -16
	movq	%rsp, %rbp
	.cfi_def_cfa_register %rbp
	subq	$16, %rsp
	movq	%rdx, %rcx
	movq	%rsi, %rdx
	movq	%rdi, -16(%rbp)
	movq	%rdx, -8(%rbp)
	movl	$6, %esi
Ltmp1044:
	.loc	36 370 9 prologue_end
	callq	__ZN4core5slice5index77_$LT$impl$u20$core..ops..index..IndexMut$LT$I$GT$$u20$for$u20$$u5b$T$u5d$$GT$9index_mut17h45a78fc83e10e06bE
	.loc	36 371 6
	addq	$16, %rsp
	popq	%rbp
	retq
Ltmp1045:
Lfunc_end171:
	.cfi_endproc

	.globl	__ZN4core5slice29_$LT$impl$u20$$u5b$T$u5d$$GT$10split_last17he0f8b40fc2b6b8f8E
	.p2align	4, 0x90
__ZN4core5slice29_$LT$impl$u20$$u5b$T$u5d$$GT$10split_last17he0f8b40fc2b6b8f8E:
Lfunc_begin172:
	.loc	37 253 0
	.cfi_startproc
	pushq	%rbp
	.cfi_def_cfa_offset 16
	.cfi_offset %rbp, -16
	movq	%rsp, %rbp
	.cfi_def_cfa_register %rbp
	subq	$96, %rsp
	movq	%rdx, -96(%rbp)
	movq	%rsi, -88(%rbp)
	movq	%rdi, -80(%rbp)
	movq	%rdi, -72(%rbp)
	movq	%rsi, -40(%rbp)
	movq	%rdx, -32(%rbp)
Ltmp1046:
	.loc	37 254 16 prologue_end
	cmpq	$1, %rdx
	jae	LBB172_2
Ltmp1047:
	.loc	37 0 16 is_stmt 0
	movq	-80(%rbp), %rax
	.loc	37 254 71
	movq	$0, (%rax)
	.loc	37 254 9
	jmp	LBB172_3
LBB172_2:
	.loc	37 0 9
	movq	-80(%rbp), %rax
	movq	-88(%rbp), %rdx
	movq	-96(%rbp), %rdi
Ltmp1048:
	.loc	37 254 17
	movq	%rdi, %rcx
	subq	$1, %rcx
	movq	%rdx, -24(%rbp)
	movq	%rcx, -16(%rbp)
	.loc	37 254 28
	subq	$1, %rdi
	shlq	$1, %rdi
	movq	%rdx, %rsi
	addq	%rdi, %rsi
	movq	%rsi, -8(%rbp)
	.loc	37 254 48
	movq	%rsi, -64(%rbp)
	movq	%rdx, -56(%rbp)
	movq	%rcx, -48(%rbp)
	.loc	37 254 43
	movq	-64(%rbp), %rcx
	movq	%rcx, (%rax)
	movq	-56(%rbp), %rcx
	movq	%rcx, 8(%rax)
	movq	-48(%rbp), %rcx
	movq	%rcx, 16(%rax)
Ltmp1049:
LBB172_3:
	.loc	37 0 43
	movq	-72(%rbp), %rax
	.loc	37 255 6 is_stmt 1
	addq	$96, %rsp
	popq	%rbp
	retq
Ltmp1050:
Lfunc_end172:
	.cfi_endproc

	.globl	__ZN4core5slice29_$LT$impl$u20$$u5b$T$u5d$$GT$12split_at_mut17he8b96f5d8b1df6ceE
	.p2align	4, 0x90
__ZN4core5slice29_$LT$impl$u20$$u5b$T$u5d$$GT$12split_at_mut17he8b96f5d8b1df6ceE:
Lfunc_begin173:
	.loc	37 1620 0
	.cfi_startproc
	pushq	%rbp
	.cfi_def_cfa_offset 16
	.cfi_offset %rbp, -16
	movq	%rsp, %rbp
	.cfi_def_cfa_register %rbp
	subq	$80, %rsp
	movq	%r8, -72(%rbp)
	movq	%rcx, -64(%rbp)
	movq	%rdx, -56(%rbp)
	movq	%rsi, -48(%rbp)
	movq	%rdi, -40(%rbp)
	movq	%rdi, -32(%rbp)
	movq	%rsi, -24(%rbp)
	movq	%rdx, -16(%rbp)
	movq	%rcx, -8(%rbp)
Ltmp1051:
	.loc	37 1621 17 prologue_end
	cmpq	%rdx, %rcx
	setbe	%al
	.loc	37 1621 9 is_stmt 0
	xorb	$-1, %al
	testb	$1, %al
	jne	LBB173_2
	.loc	37 0 9
	movq	-64(%rbp), %rcx
	movq	-56(%rbp), %rdx
	movq	-48(%rbp), %rsi
	movq	-40(%rbp), %rdi
	.loc	37 1624 18 is_stmt 1
	callq	__ZN4core5slice29_$LT$impl$u20$$u5b$T$u5d$$GT$22split_at_mut_unchecked17h91ae282c330b3af0E
	movq	-32(%rbp), %rax
	.loc	37 1625 6
	addq	$80, %rsp
	popq	%rbp
	retq
LBB173_2:
	.loc	37 0 6 is_stmt 0
	movq	-72(%rbp), %rdx
	.loc	37 1621 9 is_stmt 1
	leaq	l___unnamed_12(%rip), %rdi
	movl	$35, %esi
	callq	__ZN4core9panicking5panic17hc1bc45270cf64b03E
Ltmp1052:
Lfunc_end173:
	.cfi_endproc

	.globl	__ZN4core5slice29_$LT$impl$u20$$u5b$T$u5d$$GT$15copy_from_slice17h4aec24ee7fbbaeb9E
	.p2align	4, 0x90
__ZN4core5slice29_$LT$impl$u20$$u5b$T$u5d$$GT$15copy_from_slice17h4aec24ee7fbbaeb9E:
Lfunc_begin174:
	.loc	37 3301 0
	.cfi_startproc
	pushq	%rbp
	.cfi_def_cfa_offset 16
	.cfi_offset %rbp, -16
	movq	%rsp, %rbp
	.cfi_def_cfa_register %rbp
	subq	$128, %rsp
	movq	%rdi, -128(%rbp)
	movq	%rsi, -120(%rbp)
	movq	%rdx, -112(%rbp)
	movq	%rcx, -104(%rbp)
	movq	%r8, -96(%rbp)
	movq	%rdi, -88(%rbp)
	movq	%rsi, -80(%rbp)
	movq	%rdx, -72(%rbp)
	movq	%rcx, -64(%rbp)
Ltmp1053:
	.loc	37 3317 12 prologue_end
	cmpq	%rcx, %rsi
	jne	LBB174_2
	.loc	37 0 12 is_stmt 0
	movq	-112(%rbp), %rsi
	movq	-128(%rbp), %rdi
	movq	-120(%rbp), %rdx
	movq	-104(%rbp), %rax
	.loc	37 3325 38 is_stmt 1
	movq	%rsi, -56(%rbp)
	movq	%rax, -48(%rbp)
Ltmp1054:
	.loc	37 477 9
	movq	%rsi, -40(%rbp)
Ltmp1055:
	.loc	37 3325 52
	movq	%rdi, -32(%rbp)
	movq	%rdx, -24(%rbp)
Ltmp1056:
	.loc	37 507 9
	movq	%rdi, -16(%rbp)
Ltmp1057:
	.loc	37 3325 71
	movq	%rdx, -8(%rbp)
Ltmp1058:
	.file	38 "/rustc/2c8cc343237b8f7d5a3c3703e3a87f2eb2c54a74/library/core/src" "intrinsics.rs"
	.loc	38 2372 9
	shlq	$0, %rdx
	callq	_memcpy
Ltmp1059:
	.loc	37 3327 6
	addq	$128, %rsp
	popq	%rbp
	retq
LBB174_2:
	.loc	37 0 6 is_stmt 0
	movq	-96(%rbp), %rdx
	movq	-104(%rbp), %rsi
	movq	-120(%rbp), %rdi
	.loc	37 3318 13 is_stmt 1
	callq	__ZN4core5slice29_$LT$impl$u20$$u5b$T$u5d$$GT$15copy_from_slice17len_mismatch_fail17h1c0d44dec593879cE
Ltmp1060:
Lfunc_end174:
	.cfi_endproc

	.globl	__ZN4core5slice29_$LT$impl$u20$$u5b$T$u5d$$GT$22split_at_mut_unchecked17h91ae282c330b3af0E
	.p2align	4, 0x90
__ZN4core5slice29_$LT$impl$u20$$u5b$T$u5d$$GT$22split_at_mut_unchecked17h91ae282c330b3af0E:
Lfunc_begin175:
	.loc	37 1722 0
	.cfi_startproc
	pushq	%rbp
	.cfi_def_cfa_offset 16
	.cfi_offset %rbp, -16
	movq	%rsp, %rbp
	.cfi_def_cfa_register %rbp
	subq	$272, %rsp
	movq	%rcx, %r9
	movq	%rsi, %rcx
	movq	%rdi, %rax
	movq	%rcx, -208(%rbp)
	movq	%rdx, -200(%rbp)
	movq	%r9, -192(%rbp)
Ltmp1061:
	.loc	37 1723 19 prologue_end
	movq	%rdx, -184(%rbp)
Ltmp1062:
	.loc	37 1724 19
	movq	%rcx, -176(%rbp)
	movq	%rdx, -168(%rbp)
Ltmp1063:
	.loc	37 507 9
	movq	%rcx, -160(%rbp)
Ltmp1064:
	.loc	37 1735 33
	movq	%rcx, -152(%rbp)
	.loc	37 1735 38 is_stmt 0
	movq	%r9, -144(%rbp)
Ltmp1065:
	.file	39 "/rustc/2c8cc343237b8f7d5a3c3703e3a87f2eb2c54a74/library/core/src/slice" "raw.rs"
	.loc	39 145 45 is_stmt 1
	movq	%rcx, -136(%rbp)
	.loc	39 145 51 is_stmt 0
	movq	%r9, -128(%rbp)
Ltmp1066:
	.loc	10 766 24 is_stmt 1
	movq	%rcx, -120(%rbp)
Ltmp1067:
	.loc	12 60 9
	movq	%rcx, -112(%rbp)
Ltmp1068:
	.loc	10 766 37
	movq	%r9, -104(%rbp)
Ltmp1069:
	.loc	11 135 36
	movq	%rcx, -256(%rbp)
	movq	%r9, -248(%rbp)
	.loc	11 135 14 is_stmt 0
	movq	-256(%rbp), %r8
	movq	-248(%rbp), %rsi
	movq	%r8, -272(%rbp)
	movq	%rsi, -264(%rbp)
	movq	-272(%rbp), %r8
	movq	-264(%rbp), %rsi
Ltmp1070:
	.loc	37 1735 63 is_stmt 1
	movq	%rcx, -96(%rbp)
	.loc	37 1735 71 is_stmt 0
	movq	%r9, -88(%rbp)
Ltmp1071:
	.loc	12 1034 18 is_stmt 1
	movq	%rcx, -80(%rbp)
	.loc	12 1034 30 is_stmt 0
	movq	%r9, -72(%rbp)
Ltmp1072:
	.loc	12 487 18 is_stmt 1
	addq	%r9, %rcx
	movq	%rcx, -64(%rbp)
	movq	-64(%rbp), %rcx
	movq	%rcx, -56(%rbp)
Ltmp1073:
	.loc	37 1735 77
	subq	%r9, %rdx
	movq	%rdx, -48(%rbp)
Ltmp1074:
	.loc	39 145 45
	movq	%rcx, -40(%rbp)
	.loc	39 145 51 is_stmt 0
	movq	%rdx, -32(%rbp)
Ltmp1075:
	.loc	10 766 24 is_stmt 1
	movq	%rcx, -24(%rbp)
Ltmp1076:
	.loc	12 60 9
	movq	%rcx, -16(%rbp)
Ltmp1077:
	.loc	10 766 37
	movq	%rdx, -8(%rbp)
Ltmp1078:
	.loc	11 135 36
	movq	%rcx, -224(%rbp)
	movq	%rdx, -216(%rbp)
	.loc	11 135 14 is_stmt 0
	movq	-224(%rbp), %rdx
	movq	-216(%rbp), %rcx
	movq	%rdx, -240(%rbp)
	movq	%rcx, -232(%rbp)
	movq	-240(%rbp), %rdx
	movq	-232(%rbp), %rcx
Ltmp1079:
	.loc	37 1735 13 is_stmt 1
	movq	%r8, (%rdi)
	movq	%rsi, 8(%rdi)
	movq	%rdx, 16(%rdi)
	movq	%rcx, 24(%rdi)
Ltmp1080:
	.loc	37 1737 6
	addq	$272, %rsp
	popq	%rbp
	retq
Ltmp1081:
Lfunc_end175:
	.cfi_endproc

	.globl	__ZN4core5slice29_$LT$impl$u20$$u5b$T$u5d$$GT$3get17h439ae85da5c63a7cE
	.p2align	4, 0x90
__ZN4core5slice29_$LT$impl$u20$$u5b$T$u5d$$GT$3get17h439ae85da5c63a7cE:
Lfunc_begin176:
	.loc	37 339 0
	.cfi_startproc
	pushq	%rbp
	.cfi_def_cfa_offset 16
	.cfi_offset %rbp, -16
	movq	%rsp, %rbp
	.cfi_def_cfa_register %rbp
	subq	$32, %rsp
	movq	%rdx, -32(%rbp)
	movq	%rsi, %rdx
	movq	%rdi, %rsi
	movq	-32(%rbp), %rdi
	movq	%rsi, -24(%rbp)
	movq	%rdx, -16(%rbp)
	movq	%rdi, -8(%rbp)
Ltmp1082:
	.loc	37 343 9 prologue_end
	callq	__ZN108_$LT$core..ops..range..RangeTo$LT$usize$GT$$u20$as$u20$core..slice..index..SliceIndex$LT$$u5b$T$u5d$$GT$$GT$3get17hba9a240b0484e5f5E
	.loc	37 344 6
	addq	$32, %rsp
	popq	%rbp
	retq
Ltmp1083:
Lfunc_end176:
	.cfi_endproc

	.globl	__ZN4core5slice29_$LT$impl$u20$$u5b$T$u5d$$GT$4iter17h0e34490c626dc528E
	.p2align	4, 0x90
__ZN4core5slice29_$LT$impl$u20$$u5b$T$u5d$$GT$4iter17h0e34490c626dc528E:
Lfunc_begin177:
	.loc	37 741 0
	.cfi_startproc
	pushq	%rbp
	.cfi_def_cfa_offset 16
	.cfi_offset %rbp, -16
	movq	%rsp, %rbp
	.cfi_def_cfa_register %rbp
	subq	$16, %rsp
	movq	%rdi, -16(%rbp)
	movq	%rsi, -8(%rbp)
Ltmp1084:
	.loc	37 742 9 prologue_end
	callq	__ZN4core5slice4iter13Iter$LT$T$GT$3new17hd593b9af06816458E
	.loc	37 743 6
	addq	$16, %rsp
	popq	%rbp
	retq
Ltmp1085:
Lfunc_end177:
	.cfi_endproc

	.globl	__ZN4core5slice29_$LT$impl$u20$$u5b$T$u5d$$GT$4iter17hfe19347afcd92797E
	.p2align	4, 0x90
__ZN4core5slice29_$LT$impl$u20$$u5b$T$u5d$$GT$4iter17hfe19347afcd92797E:
Lfunc_begin178:
	.loc	37 741 0
	.cfi_startproc
	pushq	%rbp
	.cfi_def_cfa_offset 16
	.cfi_offset %rbp, -16
	movq	%rsp, %rbp
	.cfi_def_cfa_register %rbp
	subq	$16, %rsp
	movq	%rdi, -16(%rbp)
	movq	%rsi, -8(%rbp)
Ltmp1086:
	.loc	37 742 9 prologue_end
	callq	__ZN4core5slice4iter13Iter$LT$T$GT$3new17hf773373dfa433181E
	.loc	37 743 6
	addq	$16, %rsp
	popq	%rbp
	retq
Ltmp1087:
Lfunc_end178:
	.cfi_endproc

	.globl	__ZN4core5slice29_$LT$impl$u20$$u5b$T$u5d$$GT$8is_empty17hd17385d292e9b4b9E
	.p2align	4, 0x90
__ZN4core5slice29_$LT$impl$u20$$u5b$T$u5d$$GT$8is_empty17hd17385d292e9b4b9E:
Lfunc_begin179:
	.loc	37 152 0
	.cfi_startproc
	pushq	%rbp
	.cfi_def_cfa_offset 16
	.cfi_offset %rbp, -16
	movq	%rsp, %rbp
	.cfi_def_cfa_register %rbp
	subq	$16, %rsp
	movq	%rdi, -16(%rbp)
	movq	%rsi, -8(%rbp)
Ltmp1088:
	.loc	37 153 9 prologue_end
	cmpq	$0, %rsi
	sete	%al
	.loc	37 154 6
	andb	$1, %al
	movzbl	%al, %eax
	addq	$16, %rsp
	popq	%rbp
	retq
Ltmp1089:
Lfunc_end179:
	.cfi_endproc

	.globl	__ZN4core5slice29_$LT$impl$u20$$u5b$T$u5d$$GT$8iter_mut17hbe59185f6e4f19c1E
	.p2align	4, 0x90
__ZN4core5slice29_$LT$impl$u20$$u5b$T$u5d$$GT$8iter_mut17hbe59185f6e4f19c1E:
Lfunc_begin180:
	.loc	37 760 0
	.cfi_startproc
	pushq	%rbp
	.cfi_def_cfa_offset 16
	.cfi_offset %rbp, -16
	movq	%rsp, %rbp
	.cfi_def_cfa_register %rbp
	subq	$16, %rsp
	movq	%rdi, -16(%rbp)
	movq	%rsi, -8(%rbp)
