	.section	__TEXT,__text,regular,pure_instructions
	.macosx_version_min 10, 7
	.p2align	4, 0x90
__ZN102_$LT$core..iter..adapters..map..Map$LT$I$C$F$GT$$u20$as$u20$core..iter..traits..iterator..Iterator$GT$8try_fold17ha526c89c463c1de1E:
Lfunc_begin0:
	.file	1 "/rustc/2c8cc343237b8f7d5a3c3703e3a87f2eb2c54a74/library/core/src/iter/adapters" "map.rs"
	.loc	1 111 0
	.cfi_startproc
	.cfi_personality 155, _rust_eh_personality
	.cfi_lsda 16, Lexception0
	pushq	%rbp
	.cfi_def_cfa_offset 16
	.cfi_offset %rbp, -16
	movq	%rsp, %rbp
	.cfi_def_cfa_register %rbp
	subq	$96, %rsp
	movq	%rdi, -72(%rbp)
	movq	%rsi, -64(%rbp)
	movq	%rdi, -40(%rbp)
	movq	%rsi, -32(%rbp)
Ltmp5:
	.loc	1 117 28 prologue_end
	movb	$1, -41(%rbp)
Ltmp0:
	.loc	1 117 34 is_stmt 0
	callq	__ZN4core4iter8adapters3map12map_try_fold17h3f86f071f4e93ac6E
Ltmp1:
	movq	%rax, -56(%rbp)
	jmp	LBB0_3
LBB0_1:
	.loc	1 117 62
	testb	$1, -41(%rbp)
	jne	LBB0_6
	jmp	LBB0_5
LBB0_2:
Ltmp4:
	.loc	1 0 62
	movq	%rax, %rcx
	movl	%edx, %eax
	movq	%rcx, -16(%rbp)
	movl	%eax, -8(%rbp)
	jmp	LBB0_1
LBB0_3:
	movq	-56(%rbp), %rdx
	movq	-64(%rbp), %rsi
	movq	-72(%rbp), %rdi
	.loc	1 117 9
	movb	$0, -41(%rbp)
Ltmp2:
	callq	__ZN4core4iter6traits8iterator8Iterator8try_fold17h1db8e74e9318bfe4E
Ltmp3:
	movq	%rdx, -88(%rbp)
	movq	%rax, -80(%rbp)
	jmp	LBB0_4
LBB0_4:
	.loc	1 0 9
	movq	-88(%rbp), %rdx
	movq	-80(%rbp), %rax
	.loc	1 118 6 is_stmt 1
	addq	$96, %rsp
	popq	%rbp
	retq
LBB0_5:
	.loc	1 111 5
	movq	-16(%rbp), %rdi
	callq	__Unwind_Resume
LBB0_6:
	.loc	1 117 62
	jmp	LBB0_5
Ltmp6:
Lfunc_end0:
	.cfi_endproc
	.section	__TEXT,__gcc_except_tab
	.p2align	2
GCC_except_table0:
Lexception0:
	.byte	255
	.byte	255
	.byte	1
	.uleb128 Lcst_end0-Lcst_begin0
Lcst_begin0:
	.uleb128 Ltmp0-Lfunc_begin0
	.uleb128 Ltmp3-Ltmp0
	.uleb128 Ltmp4-Lfunc_begin0
	.byte	0
	.uleb128 Ltmp3-Lfunc_begin0
	.uleb128 Lfunc_end0-Ltmp3
	.byte	0
	.byte	0
Lcst_end0:
	.p2align	2

	.section	__TEXT,__text,regular,pure_instructions
	.p2align	4, 0x90
__ZN106_$LT$core..ops..range..Range$LT$usize$GT$$u20$as$u20$core..slice..index..SliceIndex$LT$$u5b$T$u5d$$GT$$GT$13get_unchecked17haf1928fd848e103eE:
Lfunc_begin1:
	.file	2 "/rustc/2c8cc343237b8f7d5a3c3703e3a87f2eb2c54a74/library/core/src/slice" "index.rs"
	.loc	2 373 0
	.cfi_startproc
	pushq	%rbp
	.cfi_def_cfa_offset 16
	.cfi_offset %rbp, -16
	movq	%rsp, %rbp
	.cfi_def_cfa_register %rbp
	subq	$160, %rsp
	movq	%rdi, -128(%rbp)
	movq	%rsi, -120(%rbp)
	movq	%rdx, -112(%rbp)
	movq	%rcx, -104(%rbp)
Ltmp7:
	.loc	2 386 39 prologue_end
	movq	%rdx, -96(%rbp)
	movq	%rcx, -88(%rbp)
Ltmp8:
	.file	3 "/rustc/2c8cc343237b8f7d5a3c3703e3a87f2eb2c54a74/library/core/src/ptr" "const_ptr.rs"
	.loc	3 1650 9
	movq	%rdx, -80(%rbp)
Ltmp9:
	.loc	2 386 58
	movq	%rdi, -72(%rbp)
Ltmp10:
	.loc	3 932 18
	movq	%rdx, -64(%rbp)
	.loc	3 932 30 is_stmt 0
	movq	%rdi, -56(%rbp)
Ltmp11:
	.loc	3 473 18 is_stmt 1
	addq	%rdi, %rdx
	movq	%rdx, -48(%rbp)
	movq	-48(%rbp), %rax
	movq	%rax, -40(%rbp)
Ltmp12:
	.loc	2 386 71
	subq	%rdi, %rsi
	movq	%rsi, -32(%rbp)
Ltmp13:
	.file	4 "/rustc/2c8cc343237b8f7d5a3c3703e3a87f2eb2c54a74/library/core/src/ptr" "mod.rs"
	.loc	4 734 20
	movq	%rax, -24(%rbp)
Ltmp14:
	.loc	3 61 9
	movq	%rax, -16(%rbp)
Ltmp15:
	.loc	4 734 33
	movq	%rsi, -8(%rbp)
Ltmp16:
	.file	5 "/rustc/2c8cc343237b8f7d5a3c3703e3a87f2eb2c54a74/library/core/src/ptr" "metadata.rs"
	.loc	5 118 36
	movq	%rax, -144(%rbp)
	movq	%rsi, -136(%rbp)
	.loc	5 118 14 is_stmt 0
	movq	-144(%rbp), %rcx
	movq	-136(%rbp), %rax
	movq	%rcx, -160(%rbp)
	movq	%rax, -152(%rbp)
	movq	-160(%rbp), %rax
	movq	-152(%rbp), %rdx
Ltmp17:
	.loc	2 388 6 is_stmt 1
	addq	$160, %rsp
	popq	%rbp
	retq
Ltmp18:
Lfunc_end1:
	.cfi_endproc

	.p2align	4, 0x90
__ZN106_$LT$core..ops..range..Range$LT$usize$GT$$u20$as$u20$core..slice..index..SliceIndex$LT$$u5b$T$u5d$$GT$$GT$17get_unchecked_mut17h6c38d0ebb696ac40E:
Lfunc_begin2:
	.loc	2 391 0
	.cfi_startproc
	pushq	%rbp
	.cfi_def_cfa_offset 16
	.cfi_offset %rbp, -16
	movq	%rsp, %rbp
	.cfi_def_cfa_register %rbp
	subq	$160, %rsp
	movq	%rdi, -128(%rbp)
	movq	%rsi, -120(%rbp)
	movq	%rdx, -112(%rbp)
	movq	%rcx, -104(%rbp)
Ltmp19:
	.loc	2 400 43 prologue_end
	movq	%rdx, -96(%rbp)
	movq	%rcx, -88(%rbp)
Ltmp20:
	.file	6 "/rustc/2c8cc343237b8f7d5a3c3703e3a87f2eb2c54a74/library/core/src/ptr" "mut_ptr.rs"
	.loc	6 2037 9
	movq	%rdx, -80(%rbp)
Ltmp21:
	.loc	2 400 66
	movq	%rdi, -72(%rbp)
Ltmp22:
	.loc	6 1034 18
	movq	%rdx, -64(%rbp)
	.loc	6 1034 30 is_stmt 0
	movq	%rdi, -56(%rbp)
Ltmp23:
	.loc	6 487 18 is_stmt 1
	addq	%rdi, %rdx
	movq	%rdx, -48(%rbp)
	movq	-48(%rbp), %rax
	movq	%rax, -40(%rbp)
Ltmp24:
	.loc	2 400 79
	subq	%rdi, %rsi
	movq	%rsi, -32(%rbp)
Ltmp25:
	.loc	4 766 24
	movq	%rax, -24(%rbp)
Ltmp26:
	.loc	6 60 9
	movq	%rax, -16(%rbp)
Ltmp27:
	.loc	4 766 37
	movq	%rsi, -8(%rbp)
Ltmp28:
	.loc	5 135 36
	movq	%rax, -144(%rbp)
	movq	%rsi, -136(%rbp)
	.loc	5 135 14 is_stmt 0
	movq	-144(%rbp), %rcx
	movq	-136(%rbp), %rax
	movq	%rcx, -160(%rbp)
	movq	%rax, -152(%rbp)
	movq	-160(%rbp), %rax
	movq	-152(%rbp), %rdx
Ltmp29:
	.loc	2 402 6 is_stmt 1
	addq	$160, %rsp
	popq	%rbp
	retq
Ltmp30:
Lfunc_end2:
	.cfi_endproc

	.p2align	4, 0x90
__ZN106_$LT$core..ops..range..Range$LT$usize$GT$$u20$as$u20$core..slice..index..SliceIndex$LT$$u5b$T$u5d$$GT$$GT$17get_unchecked_mut17hec72c0e05db51a8dE:
Lfunc_begin3:
	.loc	2 391 0
	.cfi_startproc
	pushq	%rbp
	.cfi_def_cfa_offset 16
	.cfi_offset %rbp, -16
	movq	%rsp, %rbp
	.cfi_def_cfa_register %rbp
	subq	$160, %rsp
	movq	%rdi, -128(%rbp)
	movq	%rsi, -120(%rbp)
	movq	%rdx, -112(%rbp)
	movq	%rcx, -104(%rbp)
Ltmp31:
	.loc	2 400 43 prologue_end
	movq	%rdx, -96(%rbp)
	movq	%rcx, -88(%rbp)
Ltmp32:
	.loc	6 2037 9
	movq	%rdx, -80(%rbp)
Ltmp33:
	.loc	2 400 66
	movq	%rdi, -72(%rbp)
Ltmp34:
	.loc	6 1034 18
	movq	%rdx, -64(%rbp)
	.loc	6 1034 30 is_stmt 0
	movq	%rdi, -56(%rbp)
Ltmp35:
	.loc	6 487 18 is_stmt 1
	addq	%rdi, %rdx
	movq	%rdx, -48(%rbp)
	movq	-48(%rbp), %rax
	movq	%rax, -40(%rbp)
Ltmp36:
	.loc	2 400 79
	subq	%rdi, %rsi
	movq	%rsi, -32(%rbp)
Ltmp37:
	.loc	4 766 24
	movq	%rax, -24(%rbp)
Ltmp38:
	.loc	6 60 9
	movq	%rax, -16(%rbp)
Ltmp39:
	.loc	4 766 37
	movq	%rsi, -8(%rbp)
Ltmp40:
	.loc	5 135 36
	movq	%rax, -144(%rbp)
	movq	%rsi, -136(%rbp)
	.loc	5 135 14 is_stmt 0
	movq	-144(%rbp), %rcx
	movq	-136(%rbp), %rax
	movq	%rcx, -160(%rbp)
	movq	%rax, -152(%rbp)
	movq	-160(%rbp), %rax
	movq	-152(%rbp), %rdx
Ltmp41:
	.loc	2 402 6 is_stmt 1
	addq	$160, %rsp
	popq	%rbp
	retq
Ltmp42:
Lfunc_end3:
	.cfi_endproc

	.p2align	4, 0x90
__ZN106_$LT$core..ops..range..Range$LT$usize$GT$$u20$as$u20$core..slice..index..SliceIndex$LT$$u5b$T$u5d$$GT$$GT$3get17h270002492ea0438aE:
Lfunc_begin4:
	.loc	2 353 0
	.cfi_startproc
	pushq	%rbp
	.cfi_def_cfa_offset 16
	.cfi_offset %rbp, -16
	movq	%rsp, %rbp
	.cfi_def_cfa_register %rbp
	subq	$96, %rsp
	movq	%rdi, -88(%rbp)
	movq	%rsi, -80(%rbp)
	movq	%rdx, -72(%rbp)
	movq	%rcx, -64(%rbp)
	movq	%rdi, -32(%rbp)
	movq	%rsi, -24(%rbp)
	movq	%rdx, -16(%rbp)
	movq	%rcx, -8(%rbp)
Ltmp43:
	.loc	2 354 12 prologue_end
	cmpq	%rsi, %rdi
	ja	LBB4_2
	.loc	2 0 12 is_stmt 0
	movq	-80(%rbp), %rax
	movq	-64(%rbp), %rcx
	.loc	2 354 37
	cmpq	%rcx, %rax
	seta	%al
	.loc	2 354 12
	andb	$1, %al
	movb	%al, -33(%rbp)
	jmp	LBB4_3
LBB4_2:
	movb	$1, -33(%rbp)
LBB4_3:
	testb	$1, -33(%rbp)
	jne	LBB4_5
	.loc	2 0 12
	movq	-64(%rbp), %rcx
	movq	-72(%rbp), %rdx
	movq	-80(%rbp), %rsi
	movq	-88(%rbp), %rdi
	.loc	2 358 29 is_stmt 1
	callq	__ZN106_$LT$core..ops..range..Range$LT$usize$GT$$u20$as$u20$core..slice..index..SliceIndex$LT$$u5b$T$u5d$$GT$$GT$13get_unchecked17haf1928fd848e103eE
	.loc	2 358 22 is_stmt 0
	movq	%rax, -56(%rbp)
	movq	%rdx, -48(%rbp)
	.loc	2 354 9 is_stmt 1
	jmp	LBB4_6
LBB4_5:
	.loc	2 355 13
	movq	$0, -56(%rbp)
LBB4_6:
	.loc	2 360 6
	movq	-56(%rbp), %rax
	movq	-48(%rbp), %rdx
	addq	$96, %rsp
	popq	%rbp
	retq
Ltmp44:
Lfunc_end4:
	.cfi_endproc

	.p2align	4, 0x90
__ZN106_$LT$core..ops..range..Range$LT$usize$GT$$u20$as$u20$core..slice..index..SliceIndex$LT$$u5b$T$u5d$$GT$$GT$5index17hd8d0b7db5bcc0181E:
Lfunc_begin5:
	.loc	2 405 0
	.cfi_startproc
	pushq	%rbp
	.cfi_def_cfa_offset 16
	.cfi_offset %rbp, -16
	movq	%rsp, %rbp
	.cfi_def_cfa_register %rbp
	subq	$80, %rsp
	movq	%rdi, -72(%rbp)
	movq	%rsi, -64(%rbp)
	movq	%rdx, -56(%rbp)
	movq	%rcx, -48(%rbp)
	movq	%r8, -40(%rbp)
	movq	%rdi, -32(%rbp)
	movq	%rsi, -24(%rbp)
	movq	%rdx, -16(%rbp)
	movq	%rcx, -8(%rbp)
Ltmp45:
	.loc	2 406 12 prologue_end
	cmpq	%rsi, %rdi
	ja	LBB5_2
	.loc	2 0 12 is_stmt 0
	movq	-64(%rbp), %rax
	movq	-48(%rbp), %rcx
	.loc	2 408 19 is_stmt 1
	cmpq	%rcx, %rax
	ja	LBB5_4
	jmp	LBB5_3
LBB5_2:
	.loc	2 0 19 is_stmt 0
	movq	-40(%rbp), %rdx
	movq	-64(%rbp), %rsi
	movq	-72(%rbp), %rdi
	.loc	2 407 13 is_stmt 1
	callq	__ZN4core5slice5index22slice_index_order_fail17h0d8f800a07d5f26eE
LBB5_3:
	.loc	2 0 13 is_stmt 0
	movq	-48(%rbp), %rcx
	movq	-56(%rbp), %rdx
	movq	-64(%rbp), %rsi
	movq	-72(%rbp), %rdi
	.loc	2 412 20 is_stmt 1
	callq	__ZN106_$LT$core..ops..range..Range$LT$usize$GT$$u20$as$u20$core..slice..index..SliceIndex$LT$$u5b$T$u5d$$GT$$GT$13get_unchecked17haf1928fd848e103eE
	.loc	2 413 6
	addq	$80, %rsp
	popq	%rbp
	retq
LBB5_4:
	.loc	2 0 6 is_stmt 0
	movq	-40(%rbp), %rdx
	movq	-48(%rbp), %rsi
	movq	-64(%rbp), %rdi
	.loc	2 409 13 is_stmt 1
	callq	__ZN4core5slice5index24slice_end_index_len_fail17hc921cb2f1513645aE
Ltmp46:
Lfunc_end5:
	.cfi_endproc

	.p2align	4, 0x90
__ZN106_$LT$core..ops..range..Range$LT$usize$GT$$u20$as$u20$core..slice..index..SliceIndex$LT$$u5b$T$u5d$$GT$$GT$9index_mut17h48a213aee7c24539E:
Lfunc_begin6:
	.loc	2 416 0
	.cfi_startproc
	pushq	%rbp
	.cfi_def_cfa_offset 16
	.cfi_offset %rbp, -16
	movq	%rsp, %rbp
	.cfi_def_cfa_register %rbp
	subq	$80, %rsp
	movq	%rdi, -72(%rbp)
	movq	%rsi, -64(%rbp)
	movq	%rdx, -56(%rbp)
	movq	%rcx, -48(%rbp)
	movq	%r8, -40(%rbp)
	movq	%rdi, -32(%rbp)
	movq	%rsi, -24(%rbp)
	movq	%rdx, -16(%rbp)
	movq	%rcx, -8(%rbp)
Ltmp47:
	.loc	2 417 12 prologue_end
	cmpq	%rsi, %rdi
	ja	LBB6_2
	.loc	2 0 12 is_stmt 0
	movq	-64(%rbp), %rax
	movq	-48(%rbp), %rcx
	.loc	2 419 19 is_stmt 1
	cmpq	%rcx, %rax
	ja	LBB6_4
	jmp	LBB6_3
LBB6_2:
	.loc	2 0 19 is_stmt 0
	movq	-40(%rbp), %rdx
	movq	-64(%rbp), %rsi
	movq	-72(%rbp), %rdi
	.loc	2 418 13 is_stmt 1
	callq	__ZN4core5slice5index22slice_index_order_fail17h0d8f800a07d5f26eE
LBB6_3:
	.loc	2 0 13 is_stmt 0
	movq	-48(%rbp), %rcx
	movq	-56(%rbp), %rdx
	movq	-64(%rbp), %rsi
	movq	-72(%rbp), %rdi
	.loc	2 423 24 is_stmt 1
	callq	__ZN106_$LT$core..ops..range..Range$LT$usize$GT$$u20$as$u20$core..slice..index..SliceIndex$LT$$u5b$T$u5d$$GT$$GT$17get_unchecked_mut17h6c38d0ebb696ac40E
	.loc	2 424 6
	addq	$80, %rsp
	popq	%rbp
	retq
LBB6_4:
	.loc	2 0 6 is_stmt 0
	movq	-40(%rbp), %rdx
	movq	-48(%rbp), %rsi
	movq	-64(%rbp), %rdi
	.loc	2 420 13 is_stmt 1
	callq	__ZN4core5slice5index24slice_end_index_len_fail17hc921cb2f1513645aE
Ltmp48:
Lfunc_end6:
	.cfi_endproc

	.p2align	4, 0x90
__ZN111_$LT$alloc..vec..Vec$LT$T$GT$$u20$as$u20$alloc..vec..spec_from_iter_nested..SpecFromIterNested$LT$T$C$I$GT$$GT$9from_iter17h99490cbc31bcbc9aE:
Lfunc_begin7:
	.file	7 "/rustc/2c8cc343237b8f7d5a3c3703e3a87f2eb2c54a74/library/alloc/src/vec" "spec_from_iter_nested.rs"
	.loc	7 20 0
	.cfi_startproc
	.cfi_personality 155, _rust_eh_personality
	.cfi_lsda 16, Lexception1
	pushq	%rbp
	.cfi_def_cfa_offset 16
	.cfi_offset %rbp, -16
	movq	%rsp, %rbp
	.cfi_def_cfa_register %rbp
	subq	$528, %rsp
	movq	%rsi, -456(%rbp)
Ltmp65:
	movq	%rdi, %rax
	movq	-456(%rbp), %rdi
	movq	%rax, -448(%rbp)
	movq	%rax, -440(%rbp)
Ltmp66:
	.loc	7 26 13 prologue_end
	movb	$1, -234(%rbp)
Ltmp49:
	.loc	7 26 32 is_stmt 0
	callq	__ZN90_$LT$core..str..iter..Split$LT$P$GT$$u20$as$u20$core..iter..traits..iterator..Iterator$GT$4next17hbd819a0d44b9663dE
Ltmp50:
	movq	%rdx, -432(%rbp)
	movq	%rax, -424(%rbp)
	jmp	LBB7_3
Ltmp67:
LBB7_1:
	.loc	7 45 5 is_stmt 1
	testb	$1, -234(%rbp)
	jne	LBB7_19
	jmp	LBB7_18
Ltmp68:
LBB7_2:
Ltmp51:
	.loc	7 0 5 is_stmt 0
	movq	%rax, %rcx
	movl	%edx, %eax
	movq	%rcx, -208(%rbp)
	movl	%eax, -200(%rbp)
	jmp	LBB7_1
Ltmp69:
LBB7_3:
	movq	-432(%rbp), %rax
	movq	-424(%rbp), %rcx
	.loc	7 26 32 is_stmt 1
	movq	%rcx, -392(%rbp)
	movq	%rax, -384(%rbp)
	movq	-392(%rbp), %rdx
	movl	$1, %eax
	xorl	%ecx, %ecx
	cmpq	$0, %rdx
	cmoveq	%rcx, %rax
	.loc	7 26 26 is_stmt 0
	cmpq	$0, %rax
	jne	LBB7_5
Ltmp70:
	.loc	7 0 26
	movq	-448(%rbp), %rax
Ltmp71:
	.file	8 "/rustc/2c8cc343237b8f7d5a3c3703e3a87f2eb2c54a74/library/alloc/src/vec" "mod.rs"
	.loc	8 425 20 is_stmt 1
	movq	L___unnamed_2(%rip), %rdx
	movq	L___unnamed_2+8(%rip), %rcx
	.loc	8 425 9 is_stmt 0
	movq	%rdx, (%rax)
	movq	%rcx, 8(%rax)
	movq	$0, 16(%rax)
Ltmp72:
	.loc	7 45 5 is_stmt 1
	jmp	LBB7_20
Ltmp73:
LBB7_5:
	.loc	7 0 5 is_stmt 0
	movq	-456(%rbp), %rsi
	.loc	7 28 18 is_stmt 1
	movq	-392(%rbp), %rcx
	movq	%rcx, -472(%rbp)
	movq	-384(%rbp), %rax
	movq	%rax, -464(%rbp)
	movq	%rcx, -192(%rbp)
	movq	%rax, -184(%rbp)
Ltmp52:
	leaq	-376(%rbp), %rdi
Ltmp74:
	.loc	7 29 34
	callq	__ZN4core4iter6traits8iterator8Iterator9size_hint17hc376477498e4f25eE
Ltmp53:
	jmp	LBB7_8
Ltmp75:
LBB7_6:
	.loc	7 39 13
	movb	$1, %al
	testb	$1, %al
	jne	LBB7_14
	jmp	LBB7_1
Ltmp76:
LBB7_7:
Ltmp58:
	.loc	7 0 13 is_stmt 0
	movq	%rax, %rcx
	movl	%edx, %eax
	movq	%rcx, -208(%rbp)
	movl	%eax, -200(%rbp)
	jmp	LBB7_6
Ltmp77:
LBB7_8:
	.loc	7 29 22 is_stmt 1
	movq	-376(%rbp), %rax
	movq	%rax, -176(%rbp)
Ltmp78:
	.loc	7 31 61
	movq	%rax, -168(%rbp)
Ltmp79:
	.file	9 "/rustc/2c8cc343237b8f7d5a3c3703e3a87f2eb2c54a74/library/core/src/num" "uint_macros.rs"
	.loc	9 1022 13
	incq	%rax
	movq	$-1, %rcx
	cmoveq	%rcx, %rax
	movq	%rax, -160(%rbp)
	movq	-160(%rbp), %rax
	movq	%rax, -480(%rbp)
	movq	%rax, -152(%rbp)
Ltmp80:
	.loc	9 0 13 is_stmt 0
	movq	-480(%rbp), %rsi
	.loc	7 31 21 is_stmt 1
	movq	$4, -144(%rbp)
Ltmp81:
	.file	10 "/rustc/2c8cc343237b8f7d5a3c3703e3a87f2eb2c54a74/library/core/src" "cmp.rs"
	.loc	10 1276 5
	movq	$4, -136(%rbp)
	.loc	10 1276 12 is_stmt 0
	movq	%rsi, -128(%rbp)
Ltmp54:
	movl	$4, %edi
Ltmp82:
	.loc	10 803 13 is_stmt 1
	callq	__ZN4core3cmp6max_by17heffad1b120908224E
Ltmp55:
	movq	%rax, -488(%rbp)
	jmp	LBB7_10
Ltmp83:
LBB7_10:
	.loc	10 0 13 is_stmt 0
	movq	-488(%rbp), %rdi
	.loc	10 803 13
	movq	%rdi, -120(%rbp)
Ltmp84:
	.loc	7 32 53 is_stmt 1
	movq	%rdi, -112(%rbp)
Ltmp85:
	.loc	8 483 32
	movq	%rdi, -104(%rbp)
Ltmp86:
	.loc	8 676 45
	movq	%rdi, -96(%rbp)
Ltmp87:
	.file	11 "/rustc/2c8cc343237b8f7d5a3c3703e3a87f2eb2c54a74/library/alloc/src" "raw_vec.rs"
	.loc	11 131 37
	movb	$0, -233(%rbp)
	.loc	11 131 9 is_stmt 0
	movzbl	-233(%rbp), %esi
Ltmp56:
	callq	__ZN5alloc7raw_vec19RawVec$LT$T$C$A$GT$11allocate_in17h730149a92dda4bd6E
Ltmp57:
	movq	%rdx, -504(%rbp)
	movq	%rax, -496(%rbp)
	jmp	LBB7_11
Ltmp88:
LBB7_11:
	.loc	11 0 9
	movq	-504(%rbp), %rax
	movq	-496(%rbp), %rcx
	.loc	8 676 9 is_stmt 1
	movq	%rcx, -352(%rbp)
	movq	%rax, -344(%rbp)
	movq	$0, -336(%rbp)
Ltmp89:
	.loc	7 35 32
	leaq	-352(%rbp), %rax
	movq	%rax, -88(%rbp)
Ltmp90:
	.loc	8 1280 19
	leaq	-352(%rbp), %rax
	movq	%rax, -80(%rbp)
Ltmp91:
	.loc	11 224 9
	movq	-344(%rbp), %rax
	movq	%rax, -512(%rbp)
	movq	%rax, -72(%rbp)
Ltmp92:
	.file	12 "/rustc/2c8cc343237b8f7d5a3c3703e3a87f2eb2c54a74/library/core/src/ptr" "unique.rs"
	.loc	12 104 9
	movq	%rax, -64(%rbp)
Ltmp93:
	.file	13 "/rustc/2c8cc343237b8f7d5a3c3703e3a87f2eb2c54a74/library/core/src/ptr" "non_null.rs"
	.loc	13 326 9
	movq	%rax, -56(%rbp)
Ltmp94:
	.loc	8 1282 21
	movq	%rax, -48(%rbp)
Ltmp95:
	.loc	6 52 36
	movq	%rax, -232(%rbp)
	.loc	6 52 18 is_stmt 0
	movq	-232(%rbp), %rax
	movq	%rax, -40(%rbp)
Ltmp96:
	.loc	6 38 13 is_stmt 1
	movq	%rax, -32(%rbp)
Ltmp97:
	.loc	6 215 33
	movq	%rax, -24(%rbp)
	.loc	6 215 18 is_stmt 0
	movq	%rax, -16(%rbp)
	movq	-16(%rbp), %rax
Ltmp98:
	.loc	6 0 18
	movq	-456(%rbp), %rsi
	movq	-512(%rbp), %rax
	movq	-464(%rbp), %rcx
	movq	-472(%rbp), %rdx
	.loc	7 35 53 is_stmt 1
	movq	%rdx, -328(%rbp)
	movq	%rcx, -320(%rbp)
Ltmp99:
	.loc	4 1354 9
	movq	-328(%rbp), %rcx
	movq	-320(%rbp), %rdx
	movq	%rdx, 8(%rax)
	movq	%rcx, (%rax)
	leaq	-352(%rbp), %rax
Ltmp100:
	.loc	7 36 21
	movq	%rax, -8(%rbp)
Ltmp101:
	.loc	8 1377 9
	movq	$1, -336(%rbp)
Ltmp102:
	.loc	7 38 17
	movq	-336(%rbp), %rax
	movq	%rax, -400(%rbp)
	movq	-352(%rbp), %rax
	movq	-344(%rbp), %rcx
	movq	%rcx, -408(%rbp)
	movq	%rax, -416(%rbp)
Ltmp103:
	.loc	7 43 64
	movb	$0, -234(%rbp)
	movl	$9, %ecx
	leaq	-312(%rbp), %rdi
	movq	%rdi, -520(%rbp)
	rep;movsq (%rsi), %es:(%rdi)
	movq	-520(%rbp), %rsi
Ltmp59:
	leaq	-416(%rbp), %rdi
	.loc	7 43 9 is_stmt 0
	callq	__ZN97_$LT$alloc..vec..Vec$LT$T$C$A$GT$$u20$as$u20$alloc..vec..spec_extend..SpecExtend$LT$T$C$I$GT$$GT$11spec_extend17h6ee939afef9ae95bE
Ltmp60:
	jmp	LBB7_17
Ltmp104:
LBB7_13:
Ltmp64:
	.loc	7 20 5 is_stmt 1
	callq	__ZN4core9panicking19panic_cannot_unwind17h1fbca7e1d7f56ae1E
Ltmp105:
LBB7_14:
	.loc	7 39 13
	jmp	LBB7_1
Ltmp106:
LBB7_15:
Ltmp62:
	.loc	7 0 13 is_stmt 0
	leaq	-416(%rbp), %rdi
	.loc	7 45 5 is_stmt 1
	callq	__ZN4core3ptr51drop_in_place$LT$alloc..vec..Vec$LT$$RF$str$GT$$GT$17h8d73a31920df80b0E
Ltmp63:
	jmp	LBB7_1
Ltmp107:
LBB7_16:
Ltmp61:
	.loc	7 0 5 is_stmt 0
	movq	%rax, %rcx
	movl	%edx, %eax
	movq	%rcx, -208(%rbp)
	movl	%eax, -200(%rbp)
	jmp	LBB7_15
Ltmp108:
LBB7_17:
	movq	-448(%rbp), %rax
Ltmp109:
	.loc	7 44 9 is_stmt 1
	movq	-416(%rbp), %rcx
	movq	%rcx, (%rax)
	movq	-408(%rbp), %rcx
	movq	%rcx, 8(%rax)
	movq	-400(%rbp), %rcx
	movq	%rcx, 16(%rax)
Ltmp110:
	.loc	7 45 5
	jmp	LBB7_20
Ltmp111:
LBB7_18:
	.loc	7 20 5
	movq	-208(%rbp), %rdi
	callq	__Unwind_Resume
Ltmp112:
LBB7_19:
	.loc	7 45 5
	jmp	LBB7_18
Ltmp113:
LBB7_20:
	.loc	7 0 5 is_stmt 0
	movq	-440(%rbp), %rax
	.loc	7 45 6
	addq	$528, %rsp
	popq	%rbp
	retq
Ltmp114:
Lfunc_end7:
	.cfi_endproc
	.section	__TEXT,__gcc_except_tab
	.p2align	2
GCC_except_table7:
Lexception1:
	.byte	255
	.byte	255
	.byte	1
	.uleb128 Lcst_end1-Lcst_begin1
Lcst_begin1:
	.uleb128 Ltmp49-Lfunc_begin7
	.uleb128 Ltmp50-Ltmp49
	.uleb128 Ltmp51-Lfunc_begin7
	.byte	0
	.uleb128 Ltmp52-Lfunc_begin7
	.uleb128 Ltmp57-Ltmp52
	.uleb128 Ltmp58-Lfunc_begin7
	.byte	0
	.uleb128 Ltmp59-Lfunc_begin7
	.uleb128 Ltmp60-Ltmp59
	.uleb128 Ltmp61-Lfunc_begin7
	.byte	0
	.uleb128 Ltmp62-Lfunc_begin7
	.uleb128 Ltmp63-Ltmp62
	.uleb128 Ltmp64-Lfunc_begin7
	.byte	0
	.uleb128 Ltmp63-Lfunc_begin7
	.uleb128 Lfunc_end7-Ltmp63
	.byte	0
	.byte	0
Lcst_end1:
	.p2align	2

	.section	__TEXT,__text,regular,pure_instructions
	.p2align	4, 0x90
__ZN119_$LT$core..ptr..non_null..NonNull$LT$T$GT$$u20$as$u20$core..convert..From$LT$core..ptr..unique..Unique$LT$T$GT$$GT$$GT$4from17h0cb816e2a9457acbE:
Lfunc_begin8:
	.loc	13 765 0 is_stmt 1
	.cfi_startproc
	pushq	%rbp
	.cfi_def_cfa_offset 16
	.cfi_offset %rbp, -16
	movq	%rsp, %rbp
	.cfi_def_cfa_register %rbp
	subq	$40, %rsp
	movq	%rdi, -32(%rbp)
Ltmp115:
	.loc	13 768 41 prologue_end
	movq	%rdi, -24(%rbp)
Ltmp116:
	.loc	12 104 9
	movq	%rdi, -16(%rbp)
Ltmp117:
	.loc	13 326 9
	movq	%rdi, -8(%rbp)
Ltmp118:
	.loc	13 201 13
	movq	%rdi, -40(%rbp)
Ltmp119:
	.loc	13 769 6
	movq	-40(%rbp), %rax
	addq	$40, %rsp
	popq	%rbp
	retq
Ltmp120:
Lfunc_end8:
	.cfi_endproc

	.p2align	4, 0x90
__ZN122_$LT$alloc..collections..TryReserveError$u20$as$u20$core..convert..From$LT$alloc..collections..TryReserveErrorKind$GT$$GT$4from17h69d9dd9a985827b2E:
Lfunc_begin9:
	.file	14 "/rustc/2c8cc343237b8f7d5a3c3703e3a87f2eb2c54a74/library/alloc/src/collections" "mod.rs"
	.loc	14 116 0
	.cfi_startproc
	pushq	%rbp
	.cfi_def_cfa_offset 16
	.cfi_offset %rbp, -16
	movq	%rsp, %rbp
	.cfi_def_cfa_register %rbp
	subq	$32, %rsp
	movq	%rdi, -16(%rbp)
	movq	%rsi, -8(%rbp)
Ltmp121:
	.loc	14 117 9 prologue_end
	movq	%rdi, -32(%rbp)
	movq	%rsi, -24(%rbp)
	.loc	14 118 6
	movq	-32(%rbp), %rax
	movq	-24(%rbp), %rdx
	addq	$32, %rsp
	popq	%rbp
	retq
Ltmp122:
Lfunc_end9:
	.cfi_endproc

	.p2align	4, 0x90
__ZN132_$LT$alloc..vec..Vec$LT$T$C$A$GT$$u20$as$u20$alloc..vec..spec_extend..SpecExtend$LT$$RF$T$C$core..slice..iter..Iter$LT$T$GT$$GT$$GT$11spec_extend17h0f8f7dcbbd525a19E:
Lfunc_begin10:
	.file	15 "/rustc/2c8cc343237b8f7d5a3c3703e3a87f2eb2c54a74/library/alloc/src/vec" "spec_extend.rs"
	.loc	15 53 0
	.cfi_startproc
	pushq	%rbp
	.cfi_def_cfa_offset 16
	.cfi_offset %rbp, -16
	movq	%rsp, %rbp
	.cfi_def_cfa_register %rbp
	subq	$48, %rsp
	movq	%rdi, -48(%rbp)
	movq	%rsi, -40(%rbp)
	movq	%rdx, -32(%rbp)
	movq	%rdi, -24(%rbp)
Ltmp123:
	.loc	15 54 21 prologue_end
	leaq	-40(%rbp), %rdi
	callq	__ZN4core5slice4iter13Iter$LT$T$GT$8as_slice17hc10ab0d83a6fe58aE
	movq	-48(%rbp), %rdi
	movq	%rax, %rsi
	movq	%rsi, -16(%rbp)
	movq	%rdx, -8(%rbp)
Ltmp124:
	.loc	15 55 18
	callq	__ZN5alloc3vec16Vec$LT$T$C$A$GT$15append_elements17h231917bd8d27a428E
Ltmp125:
	.loc	15 56 6
	addq	$48, %rsp
	popq	%rbp
	retq
Ltmp126:
Lfunc_end10:
	.cfi_endproc

	.p2align	4, 0x90
__ZN3std10sys_common9backtrace28__rust_begin_short_backtrace17hda60918d2d0f0099E:
Lfunc_begin11:
	.file	16 "/rustc/2c8cc343237b8f7d5a3c3703e3a87f2eb2c54a74/library/std/src/sys_common" "backtrace.rs"
	.loc	16 117 0
	.cfi_startproc
	pushq	%rbp
	.cfi_def_cfa_offset 16
	.cfi_offset %rbp, -16
	movq	%rsp, %rbp
	.cfi_def_cfa_register %rbp
	subq	$48, %rsp
	movq	%rdi, -32(%rbp)
Ltmp127:
	.loc	16 121 18 prologue_end
	callq	__ZN4core3ops8function6FnOnce9call_once17haff78be8726c5401E
Ltmp128:
	.file	17 "/rustc/2c8cc343237b8f7d5a3c3703e3a87f2eb2c54a74/library/core/src" "hint.rs"
	.loc	17 295 5
	## InlineAsm Start
	## InlineAsm End
Ltmp129:
	.loc	16 127 2
	addq	$48, %rsp
	popq	%rbp
	retq
Ltmp130:
Lfunc_end11:
	.cfi_endproc

	.private_extern	__ZN3std2rt10lang_start17h9d691a8cfeace2d8E
	.globl	__ZN3std2rt10lang_start17h9d691a8cfeace2d8E
	.p2align	4, 0x90
__ZN3std2rt10lang_start17h9d691a8cfeace2d8E:
Lfunc_begin12:
	.file	18 "/rustc/2c8cc343237b8f7d5a3c3703e3a87f2eb2c54a74/library/std/src" "rt.rs"
	.loc	18 159 0
	.cfi_startproc
	pushq	%rbp
	.cfi_def_cfa_offset 16
	.cfi_offset %rbp, -16
	movq	%rsp, %rbp
	.cfi_def_cfa_register %rbp
	subq	$64, %rsp
	movl	%ecx, %eax
	movq	%rdx, %rcx
	movq	%rsi, %rdx
	movq	%rdi, -40(%rbp)
	movq	%rdx, -32(%rbp)
	movq	%rcx, -24(%rbp)
	movb	%al, -9(%rbp)
Ltmp131:
	.loc	18 166 10 prologue_end
	movq	%rdi, -48(%rbp)
	.loc	18 165 17
	leaq	-48(%rbp), %rdi
	leaq	l___unnamed_1(%rip), %rsi
	movzbl	%al, %r8d
	callq	__ZN3std2rt19lang_start_internal17h72dc55d09e0a2397E
	movq	%rax, -56(%rbp)
	.loc	18 165 12 is_stmt 0
	movq	-56(%rbp), %rax
	movq	%rax, -8(%rbp)
	.loc	18 172 2 is_stmt 1
	addq	$64, %rsp
	popq	%rbp
	retq
Ltmp132:
Lfunc_end12:
	.cfi_endproc

	.p2align	4, 0x90
__ZN3std2rt10lang_start28_$u7b$$u7b$closure$u7d$$u7d$17h631b3c0d60bd1dc1E:
Lfunc_begin13:
	.loc	18 166 0
	.cfi_startproc
	pushq	%rbp
	.cfi_def_cfa_offset 16
	.cfi_offset %rbp, -16
	movq	%rsp, %rbp
	.cfi_def_cfa_register %rbp
	subq	$32, %rsp
	movq	%rdi, -16(%rbp)
Ltmp133:
	.loc	18 166 77 prologue_end
	movq	(%rdi), %rdi
	.loc	18 166 18 is_stmt 0
	callq	__ZN3std10sys_common9backtrace28__rust_begin_short_backtrace17hda60918d2d0f0099E
	callq	__ZN54_$LT$$LP$$RP$$u20$as$u20$std..process..Termination$GT$6report17h2a4a6c63784264ffE
	movb	%al, -17(%rbp)
Ltmp134:
	.file	19 "/rustc/2c8cc343237b8f7d5a3c3703e3a87f2eb2c54a74/library/std/src" "process.rs"
	.loc	19 1820 9 is_stmt 1
	leaq	-17(%rbp), %rax
	movq	%rax, -8(%rbp)
Ltmp135:
	.file	20 "/rustc/2c8cc343237b8f7d5a3c3703e3a87f2eb2c54a74/library/std/src/sys/unix/process" "process_common.rs"
	.loc	20 594 9
	movzbl	-17(%rbp), %eax
Ltmp136:
	.loc	18 166 100
	addq	$32, %rsp
	popq	%rbp
	retq
Ltmp137:
Lfunc_end13:
	.cfi_endproc

	.p2align	4, 0x90
__ZN3std3env3var17hcb96a3dc2669f26bE:
Lfunc_begin14:
	.file	21 "/rustc/2c8cc343237b8f7d5a3c3703e3a87f2eb2c54a74/library/std/src" "env.rs"
	.loc	21 227 0
	.cfi_startproc
	.cfi_personality 155, _rust_eh_personality
	.cfi_lsda 16, Lexception2
	pushq	%rbp
	.cfi_def_cfa_offset 16
	.cfi_offset %rbp, -16
	movq	%rsp, %rbp
	.cfi_def_cfa_register %rbp
	subq	$64, %rsp
	movq	%rdi, -64(%rbp)
	movq	%rdi, -56(%rbp)
	movq	%rsi, -32(%rbp)
	movq	%rdx, -24(%rbp)
Ltmp138:
	leaq	-32(%rbp), %rdi
Ltmp143:
	.loc	21 228 10 prologue_end
	callq	__ZN55_$LT$$RF$T$u20$as$u20$core..convert..AsRef$LT$U$GT$$GT$6as_ref17ha96a9693342caa57E
Ltmp139:
	movq	%rdx, -48(%rbp)
	movq	%rax, -40(%rbp)
	jmp	LBB14_3
LBB14_1:
	.loc	21 227 1
	movq	-16(%rbp), %rdi
	callq	__Unwind_Resume
LBB14_2:
Ltmp142:
	.loc	21 0 1 is_stmt 0
	movq	%rax, %rcx
	movl	%edx, %eax
	movq	%rcx, -16(%rbp)
	movl	%eax, -8(%rbp)
	jmp	LBB14_1
LBB14_3:
Ltmp140:
	movq	-48(%rbp), %rdx
	movq	-40(%rbp), %rsi
	movq	-64(%rbp), %rdi
	.loc	21 228 5 is_stmt 1
	callq	__ZN3std3env4_var17h3981769605209d03E
Ltmp141:
	jmp	LBB14_4
LBB14_4:
	.loc	21 0 5 is_stmt 0
	movq	-56(%rbp), %rax
	.loc	21 229 2 is_stmt 1
	addq	$64, %rsp
	popq	%rbp
	retq
Ltmp144:
Lfunc_end14:
	.cfi_endproc
	.section	__TEXT,__gcc_except_tab
	.p2align	2
GCC_except_table14:
Lexception2:
	.byte	255
	.byte	255
	.byte	1
	.uleb128 Lcst_end2-Lcst_begin2
Lcst_begin2:
	.uleb128 Ltmp138-Lfunc_begin14
	.uleb128 Ltmp139-Ltmp138
	.uleb128 Ltmp142-Lfunc_begin14
	.byte	0
	.uleb128 Ltmp139-Lfunc_begin14
	.uleb128 Ltmp140-Ltmp139
	.byte	0
	.byte	0
	.uleb128 Ltmp140-Lfunc_begin14
	.uleb128 Ltmp141-Ltmp140
	.uleb128 Ltmp142-Lfunc_begin14
	.byte	0
Lcst_end2:
	.p2align	2

	.section	__TEXT,__text,regular,pure_instructions
	.p2align	4, 0x90
__ZN3std3ffi6os_str85_$LT$impl$u20$core..convert..AsRef$LT$std..ffi..os_str..OsStr$GT$$u20$for$u20$str$GT$6as_ref17h2ef637b1ad4ab905E:
Lfunc_begin15:
	.file	22 "/rustc/2c8cc343237b8f7d5a3c3703e3a87f2eb2c54a74/library/std/src/ffi" "os_str.rs"
	.loc	22 1321 0
	.cfi_startproc
	pushq	%rbp
	.cfi_def_cfa_offset 16
	.cfi_offset %rbp, -16
	movq	%rsp, %rbp
	.cfi_def_cfa_register %rbp
	subq	$112, %rsp
	movq	%rdi, -112(%rbp)
	movq	%rsi, -104(%rbp)
Ltmp145:
	.loc	22 1322 43 prologue_end
	movq	%rdi, -96(%rbp)
	movq	%rsi, -88(%rbp)
Ltmp146:
	.file	23 "/rustc/2c8cc343237b8f7d5a3c3703e3a87f2eb2c54a74/library/std/src/sys/unix" "os_str.rs"
	.loc	23 201 30
	movq	%rdi, -80(%rbp)
	movq	%rsi, -72(%rbp)
Ltmp147:
	.file	24 "/rustc/2c8cc343237b8f7d5a3c3703e3a87f2eb2c54a74/library/core/src/str" "mod.rs"
	.loc	24 327 18
	movq	%rdi, -64(%rbp)
	movq	%rsi, -56(%rbp)
	movq	-64(%rbp), %rcx
	movq	-56(%rbp), %rax
Ltmp148:
	.loc	23 201 30
	movq	%rcx, -48(%rbp)
	movq	%rax, -40(%rbp)
Ltmp149:
	.loc	23 196 18
	movq	%rcx, -32(%rbp)
	movq	%rax, -24(%rbp)
	movq	-32(%rbp), %rax
	movq	-24(%rbp), %rdx
Ltmp150:
	.loc	22 1322 27
	movq	%rax, -16(%rbp)
	movq	%rdx, -8(%rbp)
	.loc	22 1323 6
	addq	$112, %rsp
	popq	%rbp
	retq
Ltmp151:
Lfunc_end15:
	.cfi_endproc

	.p2align	4, 0x90
__ZN44_$LT$$RF$T$u20$as$u20$core..fmt..Display$GT$3fmt17h9b757cb537acea96E:
Lfunc_begin16:
	.file	25 "/rustc/2c8cc343237b8f7d5a3c3703e3a87f2eb2c54a74/library/core/src/fmt" "mod.rs"
	.loc	25 2377 0
	.cfi_startproc
	pushq	%rbp
	.cfi_def_cfa_offset 16
	.cfi_offset %rbp, -16
	movq	%rsp, %rbp
	.cfi_def_cfa_register %rbp
	subq	$16, %rsp
	movq	%rsi, %rdx
	movq	%rdi, %rax
	movq	%rax, -16(%rbp)
	movq	%rdx, -8(%rbp)
Ltmp152:
	.loc	25 2377 71 prologue_end
	movq	(%rax), %rdi
	movq	8(%rax), %rsi
	.loc	25 2377 62 is_stmt 0
	callq	__ZN42_$LT$str$u20$as$u20$core..fmt..Display$GT$3fmt17hd1cabce055ea2fbdE
	.loc	25 2377 84
	andb	$1, %al
	movzbl	%al, %eax
	addq	$16, %rsp
	popq	%rbp
	retq
Ltmp153:
Lfunc_end16:
	.cfi_endproc

	.p2align	4, 0x90
__ZN4core3cmp5impls50_$LT$impl$u20$core..cmp..Ord$u20$for$u20$usize$GT$3cmp17h29bcf0a9dc7651edE:
Lfunc_begin17:
	.loc	10 1454 0 is_stmt 1
	.cfi_startproc
	pushq	%rbp
	.cfi_def_cfa_offset 16
	.cfi_offset %rbp, -16
	movq	%rsp, %rbp
	.cfi_def_cfa_register %rbp
	subq	$40, %rsp
	movq	%rdi, -40(%rbp)
	movq	%rsi, -32(%rbp)
	movq	%rdi, -16(%rbp)
	movq	%rsi, -8(%rbp)
Ltmp154:
	.loc	10 1457 24 prologue_end
	movq	(%rdi), %rax
	cmpq	(%rsi), %rax
	jb	LBB17_2
	.loc	10 0 24 is_stmt 0
	movq	-32(%rbp), %rcx
	movq	-40(%rbp), %rax
	.loc	10 1458 29 is_stmt 1
	movq	(%rax), %rax
	cmpq	(%rcx), %rax
	je	LBB17_5
	jmp	LBB17_4
LBB17_2:
	.loc	10 1457 41
	movb	$-1, -17(%rbp)
LBB17_3:
	.loc	10 1460 18
	movb	-17(%rbp), %al
	addq	$40, %rsp
	popq	%rbp
	retq
LBB17_4:
	.loc	10 1459 28
	movb	$1, -17(%rbp)
	.loc	10 1458 26
	jmp	LBB17_6
LBB17_5:
	.loc	10 1458 47 is_stmt 0
	movb	$0, -17(%rbp)
LBB17_6:
	.loc	10 1457 21 is_stmt 1
	jmp	LBB17_3
Ltmp155:
Lfunc_end17:
	.cfi_endproc

	.p2align	4, 0x90
__ZN4core3cmp5impls69_$LT$impl$u20$core..cmp..PartialEq$LT$$RF$B$GT$$u20$for$u20$$RF$A$GT$2eq17h077434f2e84fd5c8E:
Lfunc_begin18:
	.loc	10 1530 0
	.cfi_startproc
	pushq	%rbp
	.cfi_def_cfa_offset 16
	.cfi_offset %rbp, -16
	movq	%rsp, %rbp
	.cfi_def_cfa_register %rbp
	subq	$16, %rsp
	movq	%rdi, -16(%rbp)
	movq	%rsi, -8(%rbp)
Ltmp156:
	.loc	10 1531 27 prologue_end
	movq	(%rdi), %rdi
	.loc	10 1531 34 is_stmt 0
	movq	(%rsi), %rsi
	.loc	10 1531 13
	callq	__ZN4core3cmp5impls69_$LT$impl$u20$core..cmp..PartialEq$LT$$RF$B$GT$$u20$for$u20$$RF$A$GT$2eq17hd3c9a9d09de66a37E
	.loc	10 1532 10 is_stmt 1
	andb	$1, %al
	movzbl	%al, %eax
	addq	$16, %rsp
	popq	%rbp
	retq
Ltmp157:
Lfunc_end18:
	.cfi_endproc

	.p2align	4, 0x90
__ZN4core3cmp5impls69_$LT$impl$u20$core..cmp..PartialEq$LT$$RF$B$GT$$u20$for$u20$$RF$A$GT$2eq17hd3c9a9d09de66a37E:
Lfunc_begin19:
	.loc	10 1530 0
	.cfi_startproc
	pushq	%rbp
	.cfi_def_cfa_offset 16
	.cfi_offset %rbp, -16
	movq	%rsp, %rbp
	.cfi_def_cfa_register %rbp
	subq	$16, %rsp
	movq	%rsi, %rax
	movq	%rdi, %rcx
	movq	%rcx, -16(%rbp)
	movq	%rax, -8(%rbp)
Ltmp158:
	.loc	10 1531 27 prologue_end
	movq	(%rcx), %rdi
	movq	8(%rcx), %rsi
	.loc	10 1531 34 is_stmt 0
	movq	(%rax), %rdx
	movq	8(%rax), %rcx
	.loc	10 1531 13
	callq	__ZN4core3str6traits54_$LT$impl$u20$core..cmp..PartialEq$u20$for$u20$str$GT$2eq17h7840d30dacbbceeaE
	.loc	10 1532 10 is_stmt 1
	andb	$1, %al
	movzbl	%al, %eax
	addq	$16, %rsp
	popq	%rbp
	retq
Ltmp159:
Lfunc_end19:
	.cfi_endproc

	.p2align	4, 0x90
__ZN4core3cmp6max_by17heffad1b120908224E:
Lfunc_begin20:
	.loc	10 1295 0
	.cfi_startproc
	.cfi_personality 155, _rust_eh_personality
	.cfi_lsda 16, Lexception3
	pushq	%rbp
	.cfi_def_cfa_offset 16
	.cfi_offset %rbp, -16
	movq	%rsp, %rbp
	.cfi_def_cfa_register %rbp
	subq	$96, %rsp
	movq	%rdi, -80(%rbp)
	movq	%rsi, -72(%rbp)
Ltmp163:
	.loc	10 1300 11 prologue_end
	movb	$1, -25(%rbp)
	movb	$1, -26(%rbp)
	leaq	-80(%rbp), %rax
	movq	%rax, -48(%rbp)
	leaq	-72(%rbp), %rax
	movq	%rax, -40(%rbp)
	movq	-48(%rbp), %rdi
	movq	-40(%rbp), %rsi
Ltmp160:
	callq	__ZN4core3ops8function6FnOnce9call_once17he57160f7528748bdE
Ltmp161:
	movb	%al, -81(%rbp)
	jmp	LBB20_3
LBB20_1:
	.loc	10 1304 1
	jmp	LBB20_4
LBB20_2:
Ltmp162:
	.loc	10 0 1 is_stmt 0
	movq	%rax, %rcx
	movl	%edx, %eax
	movq	%rcx, -16(%rbp)
	movl	%eax, -8(%rbp)
	jmp	LBB20_1
LBB20_3:
	movb	-81(%rbp), %al
	.loc	10 1300 11 is_stmt 1
	movb	%al, -49(%rbp)
	movb	-49(%rbp), %al
	.loc	10 1300 5 is_stmt 0
	incb	%al
	subb	$2, %al
	jb	LBB20_6
	jmp	LBB20_15
LBB20_15:
	jmp	LBB20_7
LBB20_4:
	.loc	10 1304 1 is_stmt 1
	testb	$1, -25(%rbp)
	jne	LBB20_12
	jmp	LBB20_11
	.loc	10 1300 11
	ud2
LBB20_6:
	.loc	10 1301 45
	movb	$0, -26(%rbp)
	movq	-72(%rbp), %rax
	movq	%rax, -64(%rbp)
	jmp	LBB20_8
LBB20_7:
	.loc	10 1302 30
	movb	$0, -25(%rbp)
	movq	-80(%rbp), %rax
	movq	%rax, -64(%rbp)
LBB20_8:
	.loc	10 1304 1
	testb	$1, -26(%rbp)
	jne	LBB20_10
LBB20_9:
	testb	$1, -25(%rbp)
	jne	LBB20_14
	jmp	LBB20_13
LBB20_10:
	jmp	LBB20_9
LBB20_11:
	.loc	10 1295 1
	movq	-16(%rbp), %rdi
	callq	__Unwind_Resume
LBB20_12:
	.loc	10 1304 1
	jmp	LBB20_11
LBB20_13:
	.loc	10 1304 2 is_stmt 0
	movq	-64(%rbp), %rax
	addq	$96, %rsp
	popq	%rbp
	retq
LBB20_14:
	.loc	10 1304 1
	jmp	LBB20_13
Ltmp164:
Lfunc_end20:
	.cfi_endproc
	.section	__TEXT,__gcc_except_tab
	.p2align	2
GCC_except_table20:
Lexception3:
	.byte	255
	.byte	255
	.byte	1
	.uleb128 Lcst_end3-Lcst_begin3
Lcst_begin3:
	.uleb128 Ltmp160-Lfunc_begin20
	.uleb128 Ltmp161-Ltmp160
	.uleb128 Ltmp162-Lfunc_begin20
	.byte	0
	.uleb128 Ltmp161-Lfunc_begin20
	.uleb128 Lfunc_end20-Ltmp161
	.byte	0
	.byte	0
Lcst_end3:
	.p2align	2

	.section	__TEXT,__text,regular,pure_instructions
	.p2align	4, 0x90
__ZN4core3fmt10ArgumentV111new_display17h66af6799789eaadeE:
Lfunc_begin21:
	.loc	25 327 0 is_stmt 1
	.cfi_startproc
	pushq	%rbp
	.cfi_def_cfa_offset 16
	.cfi_offset %rbp, -16
	movq	%rsp, %rbp
	.cfi_def_cfa_register %rbp
	subq	$56, %rsp
	movq	%rdi, -40(%rbp)
Ltmp165:
	.loc	25 328 23 prologue_end
	movq	%rdi, -32(%rbp)
	.loc	25 328 26 is_stmt 0
	movq	__ZN57_$LT$std..env..VarError$u20$as$u20$core..fmt..Display$GT$3fmt17hff1ea9f5c9d28420E@GOTPCREL(%rip), %rax
	movq	%rax, -24(%rbp)
Ltmp166:
	.loc	25 347 42 is_stmt 1
	movq	%rax, -16(%rbp)
	movq	-16(%rbp), %rax
	.loc	25 347 68 is_stmt 0
	movq	%rdi, -8(%rbp)
	movq	-8(%rbp), %rcx
	.loc	25 347 18
	movq	%rcx, -56(%rbp)
	movq	%rax, -48(%rbp)
Ltmp167:
	.loc	25 329 10 is_stmt 1
	movq	-56(%rbp), %rax
	movq	-48(%rbp), %rdx
	addq	$56, %rsp
	popq	%rbp
	retq
Ltmp168:
Lfunc_end21:
	.cfi_endproc

	.p2align	4, 0x90
__ZN4core3fmt10ArgumentV111new_display17hca6a0dded98854e1E:
Lfunc_begin22:
	.loc	25 327 0
	.cfi_startproc
	pushq	%rbp
	.cfi_def_cfa_offset 16
	.cfi_offset %rbp, -16
	movq	%rsp, %rbp
	.cfi_def_cfa_register %rbp
	subq	$56, %rsp
	movq	%rdi, -40(%rbp)
Ltmp169:
	.loc	25 328 23 prologue_end
	movq	%rdi, -32(%rbp)
	.loc	25 328 26 is_stmt 0
	leaq	__ZN44_$LT$$RF$T$u20$as$u20$core..fmt..Display$GT$3fmt17h9b757cb537acea96E(%rip), %rax
	movq	%rax, -24(%rbp)
Ltmp170:
	.loc	25 347 42 is_stmt 1
	movq	%rax, -16(%rbp)
	movq	-16(%rbp), %rax
	.loc	25 347 68 is_stmt 0
	movq	%rdi, -8(%rbp)
	movq	-8(%rbp), %rcx
	.loc	25 347 18
	movq	%rcx, -56(%rbp)
	movq	%rax, -48(%rbp)
Ltmp171:
	.loc	25 329 10 is_stmt 1
	movq	-56(%rbp), %rax
	movq	-48(%rbp), %rdx
	addq	$56, %rsp
	popq	%rbp
	retq
Ltmp172:
Lfunc_end22:
	.cfi_endproc

	.p2align	4, 0x90
__ZN4core3fmt9Arguments6new_v117hb0fb783e74552858E:
Lfunc_begin23:
	.loc	25 399 0
	.cfi_startproc
	pushq	%rbp
	.cfi_def_cfa_offset 16
	.cfi_offset %rbp, -16
	movq	%rsp, %rbp
	.cfi_def_cfa_register %rbp
	subq	$160, %rsp
	movq	%r8, -152(%rbp)
	movq	%rcx, -144(%rbp)
	movq	%rdx, -136(%rbp)
	movq	%rsi, -128(%rbp)
	movq	%rdi, -120(%rbp)
	movq	%rdi, -112(%rbp)
	movq	%rsi, -32(%rbp)
	movq	%rdx, -24(%rbp)
	movq	%rcx, -16(%rbp)
	movq	%r8, -8(%rbp)
Ltmp173:
	.loc	25 400 12 prologue_end
	cmpq	%r8, %rdx
	jb	LBB23_2
	.loc	25 0 12 is_stmt 0
	movq	-136(%rbp), %rax
	movq	-152(%rbp), %rcx
	.loc	25 400 56
	addq	$1, %rcx
	.loc	25 400 41
	cmpq	%rcx, %rax
	seta	%al
	.loc	25 400 12
	andb	$1, %al
	movb	%al, -97(%rbp)
	jmp	LBB23_3
LBB23_2:
	movb	$1, -97(%rbp)
LBB23_3:
	testb	$1, -97(%rbp)
	jne	LBB23_5
	.loc	25 0 12
	movq	-112(%rbp), %rax
	movq	-120(%rbp), %rcx
	movq	-152(%rbp), %rdx
	movq	-144(%rbp), %rsi
	movq	-136(%rbp), %rdi
	movq	-128(%rbp), %r8
	.loc	25 403 34 is_stmt 1
	movq	$0, -48(%rbp)
	.loc	25 403 9 is_stmt 0
	movq	%r8, 16(%rcx)
	movq	%rdi, 24(%rcx)
	movq	-48(%rbp), %r8
	movq	-40(%rbp), %rdi
	movq	%r8, (%rcx)
	movq	%rdi, 8(%rcx)
	movq	%rsi, 32(%rcx)
	movq	%rdx, 40(%rcx)
	.loc	25 404 6 is_stmt 1
	addq	$160, %rsp
	popq	%rbp
	retq
LBB23_5:
	.loc	25 401 13
	leaq	l___unnamed_3(%rip), %rsi
	leaq	l___unnamed_4(%rip), %rcx
	xorl	%eax, %eax
	movl	%eax, %r8d
	leaq	-96(%rbp), %rdi
	movq	%rdi, -160(%rbp)
	movl	$1, %edx
	callq	__ZN4core3fmt9Arguments6new_v117hb0fb783e74552858E
	movq	-160(%rbp), %rdi
	leaq	l___unnamed_5(%rip), %rsi
	callq	__ZN4core9panicking9panic_fmt17h9b5d807e24bcaaedE
Ltmp174:
Lfunc_end23:
	.cfi_endproc

	.p2align	4, 0x90
__ZN4core3num23_$LT$impl$u20$usize$GT$11checked_add17hc342af7aaffd4a54E:
Lfunc_begin24:
	.loc	9 442 0
	.cfi_startproc
	pushq	%rbp
	.cfi_def_cfa_offset 16
	.cfi_offset %rbp, -16
	movq	%rsp, %rbp
	.cfi_def_cfa_register %rbp
	subq	$120, %rsp
	movq	%rdi, -80(%rbp)
	movq	%rsi, -72(%rbp)
Ltmp175:
	.loc	9 443 26 prologue_end
	movq	%rdi, -64(%rbp)
	.loc	9 443 47 is_stmt 0
	movq	%rsi, -56(%rbp)
Ltmp176:
	.loc	9 1479 26 is_stmt 1
	addq	%rsi, %rdi
	setb	%al
	andb	$1, %al
	movq	%rdi, -48(%rbp)
	movb	%al, -40(%rbp)
	movq	-48(%rbp), %rcx
	movb	-40(%rbp), %al
	.loc	9 1479 18 is_stmt 0
	movq	%rcx, -32(%rbp)
	.loc	9 1479 21
	movb	%al, %dl
	andb	$1, %dl
	movb	%dl, -17(%rbp)
Ltmp177:
	.loc	9 1480 13 is_stmt 1
	movq	%rcx, -96(%rbp)
	andb	$1, %al
	movb	%al, -88(%rbp)
Ltmp178:
	.loc	9 443 18
	movq	-96(%rbp), %rax
	movq	%rax, -120(%rbp)
	movq	%rax, -16(%rbp)
	.loc	9 443 21 is_stmt 0
	movb	-88(%rbp), %al
	movb	%al, %cl
	andb	$1, %cl
	movb	%cl, -2(%rbp)
Ltmp179:
	.loc	9 444 16 is_stmt 1
	andb	$1, %al
	movb	%al, -1(%rbp)
	testb	$1, -1(%rbp)
	jne	LBB24_2
	.loc	9 0 16 is_stmt 0
	movq	-120(%rbp), %rax
	.loc	9 444 42
	movq	%rax, -104(%rbp)
	movq	$1, -112(%rbp)
	.loc	9 444 13
	jmp	LBB24_3
LBB24_2:
	.loc	9 444 30
	movq	$0, -112(%rbp)
Ltmp180:
LBB24_3:
	.loc	9 445 10 is_stmt 1
	movq	-112(%rbp), %rax
	movq	-104(%rbp), %rdx
	addq	$120, %rsp
	popq	%rbp
	retq
Ltmp181:
Lfunc_end24:
	.cfi_endproc

	.p2align	4, 0x90
__ZN4core3num23_$LT$impl$u20$usize$GT$11checked_mul17h3394c9173af9761eE:
Lfunc_begin25:
	.loc	9 558 0
	.cfi_startproc
	pushq	%rbp
	.cfi_def_cfa_offset 16
	.cfi_offset %rbp, -16
	movq	%rsp, %rbp
	.cfi_def_cfa_register %rbp
	subq	$120, %rsp
	movq	%rdi, %rax
	movq	%rax, -80(%rbp)
	movq	%rsi, -72(%rbp)
Ltmp182:
	.loc	9 559 26 prologue_end
	movq	%rax, -64(%rbp)
	.loc	9 559 47 is_stmt 0
	movq	%rsi, -56(%rbp)
Ltmp183:
	.loc	9 1677 26 is_stmt 1
	mulq	%rsi
	movq	%rax, %rcx
	seto	%al
	andb	$1, %al
	movq	%rcx, -48(%rbp)
	movb	%al, -40(%rbp)
	movq	-48(%rbp), %rcx
	movb	-40(%rbp), %al
	.loc	9 1677 18 is_stmt 0
	movq	%rcx, -32(%rbp)
	.loc	9 1677 21
	movb	%al, %dl
	andb	$1, %dl
	movb	%dl, -17(%rbp)
Ltmp184:
	.loc	9 1678 13 is_stmt 1
	movq	%rcx, -96(%rbp)
	andb	$1, %al
	movb	%al, -88(%rbp)
Ltmp185:
	.loc	9 559 18
	movq	-96(%rbp), %rax
	movq	%rax, -120(%rbp)
	movq	%rax, -16(%rbp)
	.loc	9 559 21 is_stmt 0
	movb	-88(%rbp), %al
	movb	%al, %cl
	andb	$1, %cl
	movb	%cl, -2(%rbp)
Ltmp186:
	.loc	9 560 16 is_stmt 1
	andb	$1, %al
	movb	%al, -1(%rbp)
	testb	$1, -1(%rbp)
	jne	LBB25_2
	.loc	9 0 16 is_stmt 0
	movq	-120(%rbp), %rax
	.loc	9 560 42
	movq	%rax, -104(%rbp)
	movq	$1, -112(%rbp)
	.loc	9 560 13
	jmp	LBB25_3
LBB25_2:
	.loc	9 560 30
	movq	$0, -112(%rbp)
Ltmp187:
LBB25_3:
	.loc	9 561 10 is_stmt 1
	movq	-112(%rbp), %rax
	movq	-104(%rbp), %rdx
	addq	$120, %rsp
	popq	%rbp
	retq
Ltmp188:
Lfunc_end25:
	.cfi_endproc

	.p2align	4, 0x90
__ZN4core3ops8function5FnMut8call_mut17h670eacbc1ed0bbdcE:
Lfunc_begin26:
	.file	26 "/rustc/2c8cc343237b8f7d5a3c3703e3a87f2eb2c54a74/library/core/src/ops" "function.rs"
	.loc	26 166 0
	.cfi_startproc
	pushq	%rbp
	.cfi_def_cfa_offset 16
	.cfi_offset %rbp, -16
	movq	%rsp, %rbp
	.cfi_def_cfa_register %rbp
	subq	$32, %rsp
	movq	%rsi, -24(%rbp)
	movq	%rdx, -16(%rbp)
	movq	%rdi, -8(%rbp)
Ltmp189:
	.loc	26 166 5 prologue_end
	movq	-24(%rbp), %rdi
	movq	-16(%rbp), %rsi
	callq	__ZN4core3num23_$LT$impl$u20$usize$GT$11checked_add17hc342af7aaffd4a54E
	addq	$32, %rsp
	popq	%rbp
	retq
Ltmp190:
Lfunc_end26:
	.cfi_endproc

	.p2align	4, 0x90
__ZN4core3ops8function5impls80_$LT$impl$u20$core..ops..function..FnOnce$LT$A$GT$$u20$for$u20$$RF$mut$u20$F$GT$9call_once17h8483dc6cffefe164E:
Lfunc_begin27:
	.loc	26 309 0
	.cfi_startproc
	pushq	%rbp
	.cfi_def_cfa_offset 16
	.cfi_offset %rbp, -16
	movq	%rsp, %rbp
	.cfi_def_cfa_register %rbp
	subq	$16, %rsp
	movq	%rsi, -16(%rbp)
	movq	%rdi, -8(%rbp)
Ltmp191:
	.loc	26 310 30 prologue_end
	movq	-16(%rbp), %rsi
	.loc	26 310 13 is_stmt 0
	callq	__ZN5alloc3str17join_generic_copy28_$u7b$$u7b$closure$u7d$$u7d$17h33b631a3cc2bfc44E
	.loc	26 311 10 is_stmt 1
	addq	$16, %rsp
	popq	%rbp
	retq
Ltmp192:
Lfunc_end27:
	.cfi_endproc

	.p2align	4, 0x90
__ZN4core3ops8function6FnOnce40call_once$u7b$$u7b$vtable.shim$u7d$$u7d$17h4df600af639f222bE:
Lfunc_begin28:
	.loc	26 250 0
	.cfi_startproc
	pushq	%rbp
	.cfi_def_cfa_offset 16
	.cfi_offset %rbp, -16
	movq	%rsp, %rbp
	.cfi_def_cfa_register %rbp
	subq	$16, %rsp
	movq	%rdi, -8(%rbp)
Ltmp193:
	.loc	26 250 5 prologue_end
	movq	(%rdi), %rdi
	callq	__ZN4core3ops8function6FnOnce9call_once17hf73102f2846c6eadE
	addq	$16, %rsp
	popq	%rbp
	retq
Ltmp194:
Lfunc_end28:
	.cfi_endproc

	.p2align	4, 0x90
__ZN4core3ops8function6FnOnce9call_once17haff78be8726c5401E:
Lfunc_begin29:
	.loc	26 250 0
	.cfi_startproc
	pushq	%rbp
	.cfi_def_cfa_offset 16
	.cfi_offset %rbp, -16
	movq	%rsp, %rbp
	.cfi_def_cfa_register %rbp
	subq	$16, %rsp
	movq	%rdi, -8(%rbp)
Ltmp195:
	.loc	26 250 5 prologue_end
	callq	*%rdi
	addq	$16, %rsp
	popq	%rbp
	retq
Ltmp196:
Lfunc_end29:
	.cfi_endproc

	.p2align	4, 0x90
__ZN4core3ops8function6FnOnce9call_once17he57160f7528748bdE:
Lfunc_begin30:
	.loc	26 250 0
	.cfi_startproc
	pushq	%rbp
	.cfi_def_cfa_offset 16
	.cfi_offset %rbp, -16
	movq	%rsp, %rbp
	.cfi_def_cfa_register %rbp
	subq	$32, %rsp
	movq	%rdi, -24(%rbp)
	movq	%rsi, -16(%rbp)
Ltmp197:
	.loc	26 250 5 prologue_end
	movq	-24(%rbp), %rdi
	movq	-16(%rbp), %rsi
	callq	__ZN4core3cmp5impls50_$LT$impl$u20$core..cmp..Ord$u20$for$u20$usize$GT$3cmp17h29bcf0a9dc7651edE
	addq	$32, %rsp
	popq	%rbp
	retq
Ltmp198:
Lfunc_end30:
	.cfi_endproc

	.p2align	4, 0x90
__ZN4core3ops8function6FnOnce9call_once17hf73102f2846c6eadE:
Lfunc_begin31:
	.loc	26 250 0
	.cfi_startproc
	.cfi_personality 155, _rust_eh_personality
	.cfi_lsda 16, Lexception4
	pushq	%rbp
	.cfi_def_cfa_offset 16
	.cfi_offset %rbp, -16
	movq	%rsp, %rbp
	.cfi_def_cfa_register %rbp
	subq	$48, %rsp
	movq	%rdi, -32(%rbp)
Ltmp199:
	leaq	-32(%rbp), %rdi
Ltmp202:
	.loc	26 250 5 prologue_end
	callq	__ZN3std2rt10lang_start28_$u7b$$u7b$closure$u7d$$u7d$17h631b3c0d60bd1dc1E
Ltmp200:
	movl	%eax, -36(%rbp)
	jmp	LBB31_3
LBB31_1:
	movq	-16(%rbp), %rdi
	callq	__Unwind_Resume
LBB31_2:
Ltmp201:
	.loc	26 0 5 is_stmt 0
	movq	%rax, %rcx
	movl	%edx, %eax
	movq	%rcx, -16(%rbp)
	movl	%eax, -8(%rbp)
	jmp	LBB31_1
LBB31_3:
	movl	-36(%rbp), %eax
	.loc	26 250 5
	addq	$48, %rsp
	popq	%rbp
	retq
Ltmp203:
Lfunc_end31:
	.cfi_endproc
	.section	__TEXT,__gcc_except_tab
	.p2align	2
GCC_except_table31:
Lexception4:
	.byte	255
	.byte	255
	.byte	1
	.uleb128 Lcst_end4-Lcst_begin4
Lcst_begin4:
	.uleb128 Ltmp199-Lfunc_begin31
	.uleb128 Ltmp200-Ltmp199
	.uleb128 Ltmp201-Lfunc_begin31
	.byte	0
	.uleb128 Ltmp200-Lfunc_begin31
	.uleb128 Lfunc_end31-Ltmp200
	.byte	0
	.byte	0
Lcst_end4:
	.p2align	2

	.section	__TEXT,__text,regular,pure_instructions
	.p2align	4, 0x90
__ZN4core3ptr39drop_in_place$LT$std..env..VarError$GT$17h90a545e4d2095d2cE:
Lfunc_begin32:
	.loc	4 490 0 is_stmt 1
	.cfi_startproc
	pushq	%rbp
	.cfi_def_cfa_offset 16
	.cfi_offset %rbp, -16
	movq	%rsp, %rbp
	.cfi_def_cfa_register %rbp
	subq	$16, %rsp
	movq	%rdi, -16(%rbp)
	movq	%rdi, -8(%rbp)
Ltmp204:
	.loc	4 490 1 prologue_end
	movq	8(%rdi), %rdx
	movl	$1, %eax
	xorl	%ecx, %ecx
	cmpq	$0, %rdx
	cmoveq	%rcx, %rax
	cmpq	$0, %rax
	jne	LBB32_2
LBB32_1:
	addq	$16, %rsp
	popq	%rbp
	retq
LBB32_2:
	.loc	4 0 1 is_stmt 0
	movq	-16(%rbp), %rdi
	.loc	4 490 1
	callq	__ZN4core3ptr47drop_in_place$LT$std..ffi..os_str..OsString$GT$17h98c70386c5f84609E
	jmp	LBB32_1
Ltmp205:
Lfunc_end32:
	.cfi_endproc

	.p2align	4, 0x90
__ZN4core3ptr42drop_in_place$LT$alloc..string..String$GT$17h1bf38c63a12d24d2E:
Lfunc_begin33:
	.loc	4 490 0 is_stmt 1
	.cfi_startproc
	pushq	%rbp
	.cfi_def_cfa_offset 16
	.cfi_offset %rbp, -16
	movq	%rsp, %rbp
	.cfi_def_cfa_register %rbp
	subq	$16, %rsp
	movq	%rdi, -8(%rbp)
Ltmp206:
	.loc	4 490 1 prologue_end
	callq	__ZN4core3ptr46drop_in_place$LT$alloc..vec..Vec$LT$u8$GT$$GT$17hdbb3ec982d5a62caE
	addq	$16, %rsp
	popq	%rbp
	retq
Ltmp207:
Lfunc_end33:
	.cfi_endproc

	.p2align	4, 0x90
__ZN4core3ptr46drop_in_place$LT$alloc..vec..Vec$LT$u8$GT$$GT$17hdbb3ec982d5a62caE:
Lfunc_begin34:
	.loc	4 490 0
	.cfi_startproc
	.cfi_personality 155, _rust_eh_personality
	.cfi_lsda 16, Lexception5
	pushq	%rbp
	.cfi_def_cfa_offset 16
	.cfi_offset %rbp, -16
	movq	%rsp, %rbp
	.cfi_def_cfa_register %rbp
	subq	$32, %rsp
	movq	%rdi, -32(%rbp)
	movq	%rdi, -24(%rbp)
Ltmp208:
Ltmp214:
	.loc	4 490 1 prologue_end
	callq	__ZN70_$LT$alloc..vec..Vec$LT$T$C$A$GT$$u20$as$u20$core..ops..drop..Drop$GT$4drop17h654d6e948fa50ca0E
Ltmp209:
	jmp	LBB34_3
LBB34_1:
Ltmp211:
	.loc	4 0 1 is_stmt 0
	movq	-32(%rbp), %rdi
	.loc	4 490 1
	callq	__ZN4core3ptr53drop_in_place$LT$alloc..raw_vec..RawVec$LT$u8$GT$$GT$17hc187f1a38e3c22beE
Ltmp212:
	jmp	LBB34_5
LBB34_2:
Ltmp210:
	.loc	4 0 1
	movq	%rax, %rcx
	movl	%edx, %eax
	movq	%rcx, -16(%rbp)
	movl	%eax, -8(%rbp)
	jmp	LBB34_1
LBB34_3:
	movq	-32(%rbp), %rdi
	.loc	4 490 1
	callq	__ZN4core3ptr53drop_in_place$LT$alloc..raw_vec..RawVec$LT$u8$GT$$GT$17hc187f1a38e3c22beE
	addq	$32, %rsp
	popq	%rbp
	retq
LBB34_4:
Ltmp213:
	callq	__ZN4core9panicking19panic_cannot_unwind17h1fbca7e1d7f56ae1E
LBB34_5:
	movq	-16(%rbp), %rdi
	callq	__Unwind_Resume
Ltmp215:
Lfunc_end34:
	.cfi_endproc
	.section	__TEXT,__gcc_except_tab
	.p2align	2
GCC_except_table34:
Lexception5:
	.byte	255
	.byte	255
	.byte	1
	.uleb128 Lcst_end5-Lcst_begin5
Lcst_begin5:
	.uleb128 Ltmp208-Lfunc_begin34
	.uleb128 Ltmp209-Ltmp208
	.uleb128 Ltmp210-Lfunc_begin34
	.byte	0
	.uleb128 Ltmp211-Lfunc_begin34
	.uleb128 Ltmp212-Ltmp211
	.uleb128 Ltmp213-Lfunc_begin34
	.byte	0
	.uleb128 Ltmp212-Lfunc_begin34
	.uleb128 Lfunc_end34-Ltmp212
	.byte	0
	.byte	0
Lcst_end5:
	.p2align	2

	.section	__TEXT,__text,regular,pure_instructions
	.p2align	4, 0x90
__ZN4core3ptr47drop_in_place$LT$std..ffi..os_str..OsString$GT$17h98c70386c5f84609E:
Lfunc_begin35:
	.loc	4 490 0 is_stmt 1
	.cfi_startproc
	pushq	%rbp
	.cfi_def_cfa_offset 16
	.cfi_offset %rbp, -16
	movq	%rsp, %rbp
	.cfi_def_cfa_register %rbp
	subq	$16, %rsp
	movq	%rdi, -8(%rbp)
Ltmp216:
	.loc	4 490 1 prologue_end
	callq	__ZN4core3ptr48drop_in_place$LT$std..sys..unix..os_str..Buf$GT$17h4f8d34c2174c7235E
	addq	$16, %rsp
	popq	%rbp
	retq
Ltmp217:
Lfunc_end35:
	.cfi_endproc

	.p2align	4, 0x90
__ZN4core3ptr48drop_in_place$LT$std..sys..unix..os_str..Buf$GT$17h4f8d34c2174c7235E:
Lfunc_begin36:
	.loc	4 490 0
	.cfi_startproc
	pushq	%rbp
	.cfi_def_cfa_offset 16
	.cfi_offset %rbp, -16
	movq	%rsp, %rbp
	.cfi_def_cfa_register %rbp
	subq	$16, %rsp
	movq	%rdi, -8(%rbp)
Ltmp218:
	.loc	4 490 1 prologue_end
	callq	__ZN4core3ptr46drop_in_place$LT$alloc..vec..Vec$LT$u8$GT$$GT$17hdbb3ec982d5a62caE
	addq	$16, %rsp
	popq	%rbp
	retq
Ltmp219:
Lfunc_end36:
	.cfi_endproc

	.p2align	4, 0x90
__ZN4core3ptr51drop_in_place$LT$alloc..vec..Vec$LT$$RF$str$GT$$GT$17h8d73a31920df80b0E:
Lfunc_begin37:
	.loc	4 490 0
	.cfi_startproc
	.cfi_personality 155, _rust_eh_personality
	.cfi_lsda 16, Lexception6
	pushq	%rbp
	.cfi_def_cfa_offset 16
	.cfi_offset %rbp, -16
	movq	%rsp, %rbp
	.cfi_def_cfa_register %rbp
	subq	$32, %rsp
	movq	%rdi, -32(%rbp)
	movq	%rdi, -24(%rbp)
Ltmp220:
Ltmp226:
	.loc	4 490 1 prologue_end
	callq	__ZN70_$LT$alloc..vec..Vec$LT$T$C$A$GT$$u20$as$u20$core..ops..drop..Drop$GT$4drop17h681cbb5eea5c18d3E
Ltmp221:
	jmp	LBB37_3
LBB37_1:
Ltmp223:
	.loc	4 0 1 is_stmt 0
	movq	-32(%rbp), %rdi
	.loc	4 490 1
	callq	__ZN4core3ptr58drop_in_place$LT$alloc..raw_vec..RawVec$LT$$RF$str$GT$$GT$17h666fdeeafd087d87E
Ltmp224:
	jmp	LBB37_5
LBB37_2:
Ltmp222:
	.loc	4 0 1
	movq	%rax, %rcx
	movl	%edx, %eax
	movq	%rcx, -16(%rbp)
	movl	%eax, -8(%rbp)
	jmp	LBB37_1
LBB37_3:
	movq	-32(%rbp), %rdi
	.loc	4 490 1
	callq	__ZN4core3ptr58drop_in_place$LT$alloc..raw_vec..RawVec$LT$$RF$str$GT$$GT$17h666fdeeafd087d87E
	addq	$32, %rsp
	popq	%rbp
	retq
LBB37_4:
Ltmp225:
	callq	__ZN4core9panicking19panic_cannot_unwind17h1fbca7e1d7f56ae1E
LBB37_5:
	movq	-16(%rbp), %rdi
	callq	__Unwind_Resume
Ltmp227:
Lfunc_end37:
	.cfi_endproc
	.section	__TEXT,__gcc_except_tab
	.p2align	2
GCC_except_table37:
Lexception6:
	.byte	255
	.byte	255
	.byte	1
	.uleb128 Lcst_end6-Lcst_begin6
Lcst_begin6:
	.uleb128 Ltmp220-Lfunc_begin37
	.uleb128 Ltmp221-Ltmp220
	.uleb128 Ltmp222-Lfunc_begin37
	.byte	0
	.uleb128 Ltmp223-Lfunc_begin37
	.uleb128 Ltmp224-Ltmp223
	.uleb128 Ltmp225-Lfunc_begin37
	.byte	0
	.uleb128 Ltmp224-Lfunc_begin37
	.uleb128 Lfunc_end37-Ltmp224
	.byte	0
	.byte	0
Lcst_end6:
	.p2align	2

	.section	__TEXT,__text,regular,pure_instructions
	.p2align	4, 0x90
__ZN4core3ptr53drop_in_place$LT$alloc..raw_vec..RawVec$LT$u8$GT$$GT$17hc187f1a38e3c22beE:
Lfunc_begin38:
	.loc	4 490 0 is_stmt 1
	.cfi_startproc
	pushq	%rbp
	.cfi_def_cfa_offset 16
	.cfi_offset %rbp, -16
	movq	%rsp, %rbp
	.cfi_def_cfa_register %rbp
	subq	$16, %rsp
	movq	%rdi, -8(%rbp)
Ltmp228:
	.loc	4 490 1 prologue_end
	callq	__ZN77_$LT$alloc..raw_vec..RawVec$LT$T$C$A$GT$$u20$as$u20$core..ops..drop..Drop$GT$4drop17h02406a22dbd82a2aE
	addq	$16, %rsp
	popq	%rbp
	retq
Ltmp229:
Lfunc_end38:
	.cfi_endproc

	.p2align	4, 0x90
__ZN4core3ptr58drop_in_place$LT$alloc..raw_vec..RawVec$LT$$RF$str$GT$$GT$17h666fdeeafd087d87E:
Lfunc_begin39:
	.loc	4 490 0
	.cfi_startproc
	pushq	%rbp
	.cfi_def_cfa_offset 16
	.cfi_offset %rbp, -16
	movq	%rsp, %rbp
	.cfi_def_cfa_register %rbp
	subq	$16, %rsp
	movq	%rdi, -8(%rbp)
Ltmp230:
	.loc	4 490 1 prologue_end
	callq	__ZN77_$LT$alloc..raw_vec..RawVec$LT$T$C$A$GT$$u20$as$u20$core..ops..drop..Drop$GT$4drop17h94546e7831ad4c21E
	addq	$16, %rsp
	popq	%rbp
	retq
Ltmp231:
Lfunc_end39:
	.cfi_endproc

	.p2align	4, 0x90
__ZN4core3ptr85drop_in_place$LT$std..rt..lang_start$LT$$LP$$RP$$GT$..$u7b$$u7b$closure$u7d$$u7d$$GT$17ha85d985f3eb75998E:
Lfunc_begin40:
	.loc	4 490 0
	.cfi_startproc
	pushq	%rbp
	.cfi_def_cfa_offset 16
	.cfi_offset %rbp, -16
	movq	%rsp, %rbp
	.cfi_def_cfa_register %rbp
	pushq	%rax
	movq	%rdi, -8(%rbp)
Ltmp232:
	.loc	4 490 1 prologue_end
	addq	$8, %rsp
	popq	%rbp
	retq
Ltmp233:
Lfunc_end40:
	.cfi_endproc

	.p2align	4, 0x90
__ZN4core3ptr8non_null16NonNull$LT$T$GT$3new17h099d93d3ba5c7421E:
Lfunc_begin41:
	.loc	13 222 0
	.cfi_startproc
	pushq	%rbp
	.cfi_def_cfa_offset 16
	.cfi_offset %rbp, -16
	movq	%rsp, %rbp
	.cfi_def_cfa_register %rbp
	subq	$88, %rsp
	movq	%rdi, -88(%rbp)
	movq	%rdi, -56(%rbp)
Ltmp234:
	.loc	13 223 13 prologue_end
	movq	%rdi, -48(%rbp)
Ltmp235:
	.loc	6 52 36
	movq	%rdi, -64(%rbp)
	.loc	6 52 18 is_stmt 0
	movq	-64(%rbp), %rax
	movq	%rax, -40(%rbp)
Ltmp236:
	.loc	6 38 13 is_stmt 1
	movq	%rax, -32(%rbp)
Ltmp237:
	.loc	6 215 33
	movq	%rax, -24(%rbp)
	.loc	6 215 18 is_stmt 0
	movq	%rax, -16(%rbp)
Ltmp238:
	.loc	6 38 13 is_stmt 1
	cmpq	$0, -16(%rbp)
	sete	%al
Ltmp239:
	.loc	13 223 12
	xorb	$-1, %al
	testb	$1, %al
	jne	LBB41_2
	.loc	13 227 13
	movq	$0, -80(%rbp)
	.loc	13 223 9
	jmp	LBB41_3
LBB41_2:
	.loc	13 0 9 is_stmt 0
	movq	-88(%rbp), %rax
	.loc	13 225 47 is_stmt 1
	movq	%rax, -8(%rbp)
Ltmp240:
	.loc	13 201 13
	movq	%rax, -72(%rbp)
Ltmp241:
	.loc	13 225 13
	movq	-72(%rbp), %rax
	movq	%rax, -80(%rbp)
LBB41_3:
	.loc	13 229 6
	movq	-80(%rbp), %rax
	addq	$88, %rsp
	popq	%rbp
	retq
Ltmp242:
Lfunc_end41:
	.cfi_endproc

	.p2align	4, 0x90
__ZN4core3ptr8non_null26NonNull$LT$$u5b$T$u5d$$GT$20slice_from_raw_parts17h7f4055cbe686ed7aE:
Lfunc_begin42:
	.loc	13 482 0
	.cfi_startproc
	pushq	%rbp
	.cfi_def_cfa_offset 16
	.cfi_offset %rbp, -16
	movq	%rsp, %rbp
	.cfi_def_cfa_register %rbp
	subq	$128, %rsp
	movq	%rdi, -80(%rbp)
	movq	%rsi, -72(%rbp)
Ltmp243:
	.loc	13 484 70 prologue_end
	movq	%rdi, -64(%rbp)
Ltmp244:
	.loc	13 326 9
	movq	%rdi, -56(%rbp)
Ltmp245:
	.loc	13 484 85
	movq	%rsi, -48(%rbp)
Ltmp246:
	.loc	4 766 24
	movq	%rdi, -40(%rbp)
Ltmp247:
	.loc	6 60 9
	movq	%rdi, -32(%rbp)
Ltmp248:
	.loc	4 766 37
	movq	%rsi, -24(%rbp)
Ltmp249:
	.loc	5 135 36
	movq	%rdi, -96(%rbp)
	movq	%rsi, -88(%rbp)
	.loc	5 135 14 is_stmt 0
	movq	-96(%rbp), %rcx
	movq	-88(%rbp), %rax
	movq	%rcx, -112(%rbp)
	movq	%rax, -104(%rbp)
	movq	-112(%rbp), %rcx
	movq	-104(%rbp), %rax
	movq	%rcx, -16(%rbp)
	movq	%rax, -8(%rbp)
Ltmp250:
	.loc	13 201 13 is_stmt 1
	movq	%rcx, -128(%rbp)
	movq	%rax, -120(%rbp)
Ltmp251:
	.loc	13 485 6
	movq	-128(%rbp), %rax
	movq	-120(%rbp), %rdx
	addq	$128, %rsp
	popq	%rbp
	retq
Ltmp252:
Lfunc_end42:
	.cfi_endproc

	.p2align	4, 0x90
__ZN4core3ptr9const_ptr33_$LT$impl$u20$$BP$const$u20$T$GT$7sub_ptr17h3871d097462e8993E:
Lfunc_begin43:
	.loc	3 791 0
	.cfi_startproc
	pushq	%rbp
	.cfi_def_cfa_offset 16
	.cfi_offset %rbp, -16
	movq	%rsp, %rbp
	.cfi_def_cfa_register %rbp
	subq	$64, %rsp
	movq	%rdi, -56(%rbp)
	movq	%rsi, -48(%rbp)
	movq	%rdi, -32(%rbp)
	movq	%rsi, -24(%rbp)
Ltmp253:
	.file	27 "/rustc/2c8cc343237b8f7d5a3c3703e3a87f2eb2c54a74/library/core/src/mem" "mod.rs"
	.loc	27 309 5 prologue_end
	movq	$1, -16(%rbp)
Ltmp254:
	.loc	3 806 17
	movb	$1, %al
	testb	$1, %al
	jne	LBB43_2
	movb	$0, -33(%rbp)
	jmp	LBB43_3
LBB43_2:
	movb	$1, -33(%rbp)
LBB43_3:
	.loc	3 806 9 is_stmt 0
	movb	-33(%rbp), %al
	xorb	$-1, %al
	testb	$1, %al
	jne	LBB43_5
	.loc	3 0 9
	movq	-48(%rbp), %rcx
	movq	-56(%rbp), %rax
	.loc	3 808 18 is_stmt 1
	subq	%rcx, %rax
	shrq	$0, %rax
	movq	%rax, -8(%rbp)
	movq	-8(%rbp), %rax
Ltmp255:
	.loc	3 809 6
	addq	$64, %rsp
	popq	%rbp
	retq
LBB43_5:
Ltmp256:
	.loc	3 806 9
	leaq	l___unnamed_6(%rip), %rdi
	leaq	l___unnamed_7(%rip), %rdx
	movl	$73, %esi
	callq	__ZN4core9panicking5panic17hc1bc45270cf64b03E
Ltmp257:
Lfunc_end43:
	.cfi_endproc

	.p2align	4, 0x90
__ZN4core3ptr9const_ptr33_$LT$impl$u20$$BP$const$u20$T$GT$7sub_ptr17h90f8a3fb82aa6a51E:
Lfunc_begin44:
	.loc	3 791 0
	.cfi_startproc
	pushq	%rbp
	.cfi_def_cfa_offset 16
	.cfi_offset %rbp, -16
	movq	%rsp, %rbp
	.cfi_def_cfa_register %rbp
	subq	$64, %rsp
	movq	%rdi, -56(%rbp)
	movq	%rsi, -48(%rbp)
	movq	%rdi, -32(%rbp)
	movq	%rsi, -24(%rbp)
Ltmp258:
	.loc	27 309 5 prologue_end
	movq	$16, -16(%rbp)
Ltmp259:
	.loc	3 806 17
	movb	$1, %al
	testb	$1, %al
	jne	LBB44_2
	movb	$0, -33(%rbp)
	jmp	LBB44_3
LBB44_2:
	movb	$1, -33(%rbp)
LBB44_3:
	.loc	3 806 9 is_stmt 0
	movb	-33(%rbp), %al
	xorb	$-1, %al
	testb	$1, %al
	jne	LBB44_5
	.loc	3 0 9
	movq	-48(%rbp), %rcx
	movq	-56(%rbp), %rax
	.loc	3 808 18 is_stmt 1
	subq	%rcx, %rax
	shrq	$4, %rax
	movq	%rax, -8(%rbp)
	movq	-8(%rbp), %rax
Ltmp260:
	.loc	3 809 6
	addq	$64, %rsp
	popq	%rbp
	retq
LBB44_5:
Ltmp261:
	.loc	3 806 9
	leaq	l___unnamed_6(%rip), %rdi
	leaq	l___unnamed_7(%rip), %rdx
	movl	$73, %esi
	callq	__ZN4core9panicking5panic17hc1bc45270cf64b03E
Ltmp262:
Lfunc_end44:
	.cfi_endproc

	.p2align	4, 0x90
__ZN4core3str21_$LT$impl$u20$str$GT$5split17h6645cffc5c6a393cE:
Lfunc_begin45:
	.loc	24 1341 0
	.cfi_startproc
	.cfi_personality 155, _rust_eh_personality
	.cfi_lsda 16, Lexception7
	pushq	%rbp
	.cfi_def_cfa_offset 16
	.cfi_offset %rbp, -16
	movq	%rsp, %rbp
	.cfi_def_cfa_register %rbp
	subq	$272, %rsp
	movl	%ecx, -260(%rbp)
	movq	%rdx, -256(%rbp)
	movq	%rsi, -248(%rbp)
	movq	%rdi, -240(%rbp)
	movq	%rdi, -232(%rbp)
	movq	%rsi, -88(%rbp)
	movq	%rdx, -80(%rbp)
	movl	%ecx, -68(%rbp)
Ltmp266:
	.loc	24 1342 15 prologue_end
	movb	$1, -89(%rbp)
	.loc	24 1344 18
	movq	%rsi, -64(%rbp)
	movq	%rdx, -56(%rbp)
Ltmp267:
	.loc	24 160 9
	movq	%rsi, -48(%rbp)
	movq	%rdx, -40(%rbp)
Ltmp268:
	.loc	24 327 18
	movq	%rsi, -32(%rbp)
	movq	%rdx, -24(%rbp)
	movq	-24(%rbp), %rax
	movq	%rax, -224(%rbp)
Ltmp269:
	.loc	24 0 18 is_stmt 0
	movq	-256(%rbp), %rcx
	movq	-248(%rbp), %rdx
	movl	-260(%rbp), %esi
	.loc	24 1345 22 is_stmt 1
	movb	$0, -89(%rbp)
Ltmp263:
	leaq	-144(%rbp), %rdi
	callq	__ZN52_$LT$char$u20$as$u20$core..str..pattern..Pattern$GT$13into_searcher17h7a41fb87c0f4d362E
Ltmp264:
	jmp	LBB45_4
LBB45_2:
	.loc	24 1349 5
	testb	$1, -89(%rbp)
	jne	LBB45_6
	jmp	LBB45_5
LBB45_3:
Ltmp265:
	.loc	24 0 5 is_stmt 0
	movq	%rax, %rcx
	movl	%edx, %eax
	movq	%rcx, -16(%rbp)
	movl	%eax, -8(%rbp)
	jmp	LBB45_2
LBB45_4:
	movq	-224(%rbp), %rax
	.loc	24 1342 15 is_stmt 1
	movq	$0, -168(%rbp)
	movq	%rax, -160(%rbp)
	leaq	-216(%rbp), %rdi
	leaq	-144(%rbp), %rsi
	movl	$48, %edx
	callq	_memcpy
	movq	-240(%rbp), %rdi
	movb	$1, -152(%rbp)
	movb	$0, -151(%rbp)
	.loc	24 1342 9 is_stmt 0
	leaq	-216(%rbp), %rsi
	movl	$72, %edx
	callq	_memcpy
	movq	-232(%rbp), %rax
	.loc	24 1349 6 is_stmt 1
	addq	$272, %rsp
	popq	%rbp
	retq
LBB45_5:
	.loc	24 1341 5
	movq	-16(%rbp), %rdi
	callq	__Unwind_Resume
LBB45_6:
	.loc	24 1349 5
	jmp	LBB45_5
Ltmp270:
Lfunc_end45:
	.cfi_endproc
	.section	__TEXT,__gcc_except_tab
	.p2align	2
GCC_except_table45:
Lexception7:
	.byte	255
	.byte	255
	.byte	1
	.uleb128 Lcst_end7-Lcst_begin7
Lcst_begin7:
	.uleb128 Ltmp263-Lfunc_begin45
	.uleb128 Ltmp264-Ltmp263
	.uleb128 Ltmp265-Lfunc_begin45
	.byte	0
	.uleb128 Ltmp264-Lfunc_begin45
	.uleb128 Lfunc_end45-Ltmp264
	.byte	0
	.byte	0
Lcst_end7:
	.p2align	2

	.section	__TEXT,__text,regular,pure_instructions
	.p2align	4, 0x90
__ZN4core3str4iter22SplitInternal$LT$P$GT$4next17hb00e20c34132cb8aE:
Lfunc_begin46:
	.file	28 "/rustc/2c8cc343237b8f7d5a3c3703e3a87f2eb2c54a74/library/core/src/str" "iter.rs"
	.loc	28 602 0
	.cfi_startproc
	pushq	%rbp
	.cfi_def_cfa_offset 16
	.cfi_offset %rbp, -16
	movq	%rsp, %rbp
	.cfi_def_cfa_register %rbp
	subq	$160, %rsp
	movq	%rdi, -136(%rbp)
	movq	%rdi, -72(%rbp)
Ltmp271:
	.loc	28 603 12 prologue_end
	testb	$1, 65(%rdi)
	jne	LBB46_2
	.loc	28 0 12 is_stmt 0
	movq	-136(%rbp), %rdi
	.loc	28 607 24 is_stmt 1
	callq	__ZN81_$LT$core..str..pattern..CharSearcher$u20$as$u20$core..str..pattern..Searcher$GT$8haystack17h33148b7d6bfd4a2bE
	movq	-136(%rbp), %rsi
	movq	%rax, -152(%rbp)
	movq	%rdx, -144(%rbp)
	movq	%rax, -64(%rbp)
	movq	%rdx, -56(%rbp)
Ltmp272:
	.loc	28 608 15
	leaq	-112(%rbp), %rdi
	callq	__ZN81_$LT$core..str..pattern..CharSearcher$u20$as$u20$core..str..pattern..Searcher$GT$10next_match17h4129eb67c6bf2b09E
	.loc	28 608 9 is_stmt 0
	cmpq	$0, -112(%rbp)
	je	LBB46_4
	jmp	LBB46_5
Ltmp273:
LBB46_2:
	.loc	28 604 20 is_stmt 1
	movq	$0, -128(%rbp)
LBB46_3:
	.loc	28 617 6
	movq	-128(%rbp), %rax
	movq	-120(%rbp), %rdx
	addq	$160, %rsp
	popq	%rbp
	retq
LBB46_4:
	.loc	28 0 6 is_stmt 0
	movq	-136(%rbp), %rdi
Ltmp274:
	.loc	28 615 21 is_stmt 1
	callq	__ZN4core3str4iter22SplitInternal$LT$P$GT$7get_end17h14c16713b29b0f05E
	movq	%rdx, -120(%rbp)
	movq	%rax, -128(%rbp)
	.loc	28 615 34 is_stmt 0
	jmp	LBB46_6
LBB46_5:
	.loc	28 0 34
	movq	-136(%rbp), %rsi
	movq	-144(%rbp), %rcx
	movq	-152(%rbp), %rdx
	.loc	28 610 19 is_stmt 1
	movq	-104(%rbp), %rax
	movq	%rax, -48(%rbp)
	.loc	28 610 22 is_stmt 0
	movq	-96(%rbp), %rdi
	movq	%rdi, -160(%rbp)
	movq	%rdi, -40(%rbp)
Ltmp275:
	.loc	28 611 27 is_stmt 1
	movq	%rdx, -32(%rbp)
	movq	%rcx, -24(%rbp)
	.loc	28 611 50 is_stmt 0
	movq	48(%rsi), %rsi
	movq	%rsi, -88(%rbp)
	movq	%rax, -80(%rbp)
Ltmp276:
	.loc	24 511 20 is_stmt 1
	movq	-88(%rbp), %rdi
	movq	-80(%rbp), %rsi
	callq	__ZN4core3str6traits108_$LT$impl$u20$core..slice..index..SliceIndex$LT$str$GT$$u20$for$u20$core..ops..range..Range$LT$usize$GT$$GT$13get_unchecked17ha3de7626d64bf1adE
	movq	-160(%rbp), %rsi
	movq	-136(%rbp), %rcx
	.loc	24 511 18 is_stmt 0
	movq	%rax, -16(%rbp)
	movq	%rdx, -8(%rbp)
Ltmp277:
	.loc	28 612 17 is_stmt 1
	movq	%rsi, 48(%rcx)
	.loc	28 613 17
	movq	%rax, -128(%rbp)
	movq	%rdx, -120(%rbp)
Ltmp278:
LBB46_6:
	.loc	28 617 6
	jmp	LBB46_3
Ltmp279:
Lfunc_end46:
	.cfi_endproc

	.p2align	4, 0x90
__ZN4core3str4iter22SplitInternal$LT$P$GT$7get_end17h14c16713b29b0f05E:
Lfunc_begin47:
	.loc	28 587 0
	.cfi_startproc
	pushq	%rbp
	.cfi_def_cfa_offset 16
	.cfi_offset %rbp, -16
	movq	%rsp, %rbp
	.cfi_def_cfa_register %rbp
	subq	$96, %rsp
	movq	%rdi, -88(%rbp)
	movq	%rdi, -40(%rbp)
Ltmp280:
	.loc	28 588 13 prologue_end
	movb	65(%rdi), %al
	.loc	28 588 12 is_stmt 0
	xorb	$-1, %al
	testb	$1, %al
	jne	LBB47_2
LBB47_1:
	.loc	28 598 9 is_stmt 1
	movq	$0, -80(%rbp)
	.loc	28 599 6
	jmp	LBB47_8
LBB47_2:
	.loc	28 0 6 is_stmt 0
	movq	-88(%rbp), %rax
	.loc	28 589 13 is_stmt 1
	movb	$1, 65(%rax)
	.loc	28 591 16
	testb	$1, 64(%rax)
	jne	LBB47_4
	.loc	28 0 16 is_stmt 0
	movq	-88(%rbp), %rcx
	.loc	28 591 45
	movq	56(%rcx), %rax
	subq	48(%rcx), %rax
	cmpq	$0, %rax
	seta	%al
	.loc	28 591 16
	andb	$1, %al
	movb	%al, -57(%rbp)
	jmp	LBB47_5
LBB47_4:
	movb	$1, -57(%rbp)
LBB47_5:
	testb	$1, -57(%rbp)
	jne	LBB47_7
	.loc	28 588 9 is_stmt 1
	jmp	LBB47_1
LBB47_7:
	.loc	28 0 9 is_stmt 0
	movq	-88(%rbp), %rdi
	.loc	28 593 39 is_stmt 1
	callq	__ZN81_$LT$core..str..pattern..CharSearcher$u20$as$u20$core..str..pattern..Searcher$GT$8haystack17h33148b7d6bfd4a2bE
	movq	%rax, %rcx
	movq	-88(%rbp), %rax
	movq	%rcx, -96(%rbp)
	movq	%rdx, %rcx
	movq	-96(%rbp), %rdx
	movq	%rdx, -32(%rbp)
	movq	%rcx, -24(%rbp)
	.loc	28 593 77 is_stmt 0
	movq	48(%rax), %rsi
	.loc	28 593 89
	movq	56(%rax), %rax
	.loc	28 593 77
	movq	%rsi, -56(%rbp)
	movq	%rax, -48(%rbp)
Ltmp281:
	.loc	24 511 20 is_stmt 1
	movq	-56(%rbp), %rdi
	movq	-48(%rbp), %rsi
	callq	__ZN4core3str6traits108_$LT$impl$u20$core..slice..index..SliceIndex$LT$str$GT$$u20$for$u20$core..ops..range..Range$LT$usize$GT$$GT$13get_unchecked17ha3de7626d64bf1adE
	.loc	24 511 18 is_stmt 0
	movq	%rax, -16(%rbp)
	movq	%rdx, -8(%rbp)
Ltmp282:
	.loc	28 594 24 is_stmt 1
	movq	%rax, -80(%rbp)
	movq	%rdx, -72(%rbp)
Ltmp283:
LBB47_8:
	.loc	28 599 6
	movq	-80(%rbp), %rax
	movq	-72(%rbp), %rdx
	addq	$96, %rsp
	popq	%rbp
	retq
Ltmp284:
Lfunc_end47:
	.cfi_endproc

	.p2align	4, 0x90
__ZN4core3str6traits108_$LT$impl$u20$core..slice..index..SliceIndex$LT$str$GT$$u20$for$u20$core..ops..range..Range$LT$usize$GT$$GT$13get_unchecked17ha3de7626d64bf1adE:
Lfunc_begin48:
	.file	29 "/rustc/2c8cc343237b8f7d5a3c3703e3a87f2eb2c54a74/library/core/src/str" "traits.rs"
	.loc	29 197 0
	.cfi_startproc
	pushq	%rbp
	.cfi_def_cfa_offset 16
	.cfi_offset %rbp, -16
	movq	%rsp, %rbp
	.cfi_def_cfa_register %rbp
	subq	$192, %rsp
	movq	%rdi, -160(%rbp)
	movq	%rsi, -152(%rbp)
	movq	%rdx, -144(%rbp)
	movq	%rcx, -136(%rbp)
Ltmp285:
	.loc	29 198 21 prologue_end
	movq	%rdx, -128(%rbp)
	movq	%rcx, -120(%rbp)
Ltmp286:
	.loc	29 201 28
	movq	%rdx, -112(%rbp)
	movq	%rcx, -104(%rbp)
Ltmp287:
	.loc	3 1650 9
	movq	%rdx, -96(%rbp)
Ltmp288:
	.loc	29 201 47
	movq	%rdi, -88(%rbp)
Ltmp289:
	.loc	3 932 18
	movq	%rdx, -80(%rbp)
	.loc	3 932 30 is_stmt 0
	movq	%rdi, -72(%rbp)
Ltmp290:
	.loc	3 473 18 is_stmt 1
	addq	%rdi, %rdx
	movq	%rdx, -64(%rbp)
	movq	-64(%rbp), %rax
	movq	%rax, -56(%rbp)
Ltmp291:
	.loc	29 202 19
	subq	%rdi, %rsi
	movq	%rsi, -48(%rbp)
Ltmp292:
	.loc	29 203 35
	movq	%rax, -40(%rbp)
	.loc	29 203 40 is_stmt 0
	movq	%rsi, -32(%rbp)
Ltmp293:
	.loc	4 734 20 is_stmt 1
	movq	%rax, -24(%rbp)
Ltmp294:
	.loc	3 61 9
	movq	%rax, -16(%rbp)
Ltmp295:
	.loc	4 734 33
	movq	%rsi, -8(%rbp)
Ltmp296:
	.loc	5 118 36
	movq	%rax, -176(%rbp)
	movq	%rsi, -168(%rbp)
	.loc	5 118 14 is_stmt 0
	movq	-176(%rbp), %rcx
	movq	-168(%rbp), %rax
	movq	%rcx, -192(%rbp)
	movq	%rax, -184(%rbp)
	movq	-192(%rbp), %rax
	movq	-184(%rbp), %rdx
Ltmp297:
	.loc	29 204 6 is_stmt 1
	addq	$192, %rsp
	popq	%rbp
	retq
Ltmp298:
Lfunc_end48:
	.cfi_endproc

	.p2align	4, 0x90
__ZN4core3str6traits54_$LT$impl$u20$core..cmp..PartialEq$u20$for$u20$str$GT$2eq17h7840d30dacbbceeaE:
Lfunc_begin49:
	.loc	29 28 0
	.cfi_startproc
	pushq	%rbp
	.cfi_def_cfa_offset 16
	.cfi_offset %rbp, -16
	movq	%rsp, %rbp
	.cfi_def_cfa_register %rbp
	subq	$112, %rsp
	movq	%rdi, -80(%rbp)
	movq	%rsi, -72(%rbp)
	movq	%rdx, -64(%rbp)
	movq	%rcx, -56(%rbp)
Ltmp299:
	.loc	29 29 9 prologue_end
	movq	%rdi, -48(%rbp)
	movq	%rsi, -40(%rbp)
Ltmp300:
	.loc	24 327 18
	movq	%rdi, -112(%rbp)
	movq	%rsi, -104(%rbp)
Ltmp301:
	.loc	29 29 9
	leaq	-112(%rbp), %rax
	movq	%rax, -32(%rbp)
	.loc	29 29 28 is_stmt 0
	movq	%rdx, -24(%rbp)
	movq	%rcx, -16(%rbp)
Ltmp302:
	.loc	24 327 18 is_stmt 1
	movq	%rdx, -96(%rbp)
	movq	%rcx, -88(%rbp)
Ltmp303:
	.loc	29 29 28
	leaq	-96(%rbp), %rax
	movq	%rax, -8(%rbp)
Ltmp304:
	.loc	10 1531 27
	movq	-112(%rbp), %rdi
	movq	-104(%rbp), %rsi
	.loc	10 1531 34 is_stmt 0
	movq	-96(%rbp), %rdx
	movq	-88(%rbp), %rcx
	.loc	10 1531 13
	callq	__ZN4core5slice3cmp81_$LT$impl$u20$core..cmp..PartialEq$LT$$u5b$B$u5d$$GT$$u20$for$u20$$u5b$A$u5d$$GT$2eq17h59d4337effb65eddE
Ltmp305:
	.loc	29 30 6 is_stmt 1
	andb	$1, %al
	movzbl	%al, %eax
	addq	$112, %rsp
	popq	%rbp
	retq
Ltmp306:
Lfunc_end49:
	.cfi_endproc

	.p2align	4, 0x90
__ZN4core3str74_$LT$impl$u20$core..convert..AsRef$LT$$u5b$u8$u5d$$GT$$u20$for$u20$str$GT$6as_ref17hc7a01e7d068cbb9aE:
Lfunc_begin50:
	.loc	24 2579 0
	.cfi_startproc
	pushq	%rbp
	.cfi_def_cfa_offset 16
	.cfi_offset %rbp, -16
	movq	%rsp, %rbp
	.cfi_def_cfa_register %rbp
	subq	$48, %rsp
	movq	%rdi, -48(%rbp)
	movq	%rsi, -40(%rbp)
Ltmp307:
	.loc	24 2580 9 prologue_end
	movq	%rdi, -32(%rbp)
	movq	%rsi, -24(%rbp)
Ltmp308:
	.loc	24 327 18
	movq	%rdi, -16(%rbp)
	movq	%rsi, -8(%rbp)
	movq	-16(%rbp), %rax
	movq	-8(%rbp), %rdx
Ltmp309:
	.loc	24 2581 6
	addq	$48, %rsp
	popq	%rbp
	retq
Ltmp310:
Lfunc_end50:
	.cfi_endproc

	.p2align	4, 0x90
__ZN4core4char7methods15encode_utf8_raw17h6833e2dc5be46b7bE:
Lfunc_begin51:
	.file	30 "/rustc/2c8cc343237b8f7d5a3c3703e3a87f2eb2c54a74/library/core/src/char" "methods.rs"
	.loc	30 1729 0
	.cfi_startproc
	pushq	%rbp
	.cfi_def_cfa_offset 16
	.cfi_offset %rbp, -16
	movq	%rsp, %rbp
	.cfi_def_cfa_register %rbp
	subq	$560, %rsp
	movq	%rsi, -544(%rbp)
	movq	%rdx, -536(%rbp)
	movl	%edi, -516(%rbp)
	movq	%rsi, -304(%rbp)
	movq	%rdx, -296(%rbp)
Ltmp311:
	.loc	30 1730 24 prologue_end
	movl	-516(%rbp), %edi
	.loc	30 1730 15 is_stmt 0
	callq	__ZN4core4char7methods8len_utf817h269a84b813ca58f3E
	movq	-544(%rbp), %rsi
	movq	-536(%rbp), %rdx
	movq	%rax, -512(%rbp)
Ltmp312:
	.loc	30 1731 12 is_stmt 1
	movq	-512(%rbp), %rax
	.loc	30 1731 22 is_stmt 0
	movq	%rsi, -272(%rbp)
	movq	%rdx, -264(%rbp)
Ltmp313:
	.loc	2 30 25 is_stmt 1
	movq	%rsi, -256(%rbp)
	movq	%rdx, -248(%rbp)
Ltmp314:
	.loc	30 1731 11
	movq	%rax, -504(%rbp)
	movq	%rsi, -496(%rbp)
	movq	%rdx, -488(%rbp)
	.loc	30 1731 5 is_stmt 0
	movq	-504(%rbp), %rax
	decq	%rax
	movq	%rax, -528(%rbp)
	subq	$3, %rax
	ja	LBB51_1
	.loc	30 0 5
	movq	-528(%rbp), %rax
	leaq	LJTI51_0(%rip), %rcx
	movslq	(%rcx,%rax,4), %rax
	addq	%rcx, %rax
	jmpq	*%rax
LBB51_1:
	movq	-536(%rbp), %rcx
	leaq	-512(%rbp), %rsi
	.loc	30 1750 14 is_stmt 1
	movq	%rsi, -120(%rbp)
Ltmp315:
	.loc	25 328 23
	movq	%rsi, -112(%rbp)
	.loc	25 328 26 is_stmt 0
	movq	__ZN4core3fmt3num3imp54_$LT$impl$u20$core..fmt..Display$u20$for$u20$usize$GT$3fmt17ha5c925fcd7ed33faE@GOTPCREL(%rip), %rax
	movq	%rax, -104(%rbp)
Ltmp316:
	.loc	25 347 42 is_stmt 1
	movq	%rax, -96(%rbp)
	movq	-96(%rbp), %rdx
	.loc	25 347 68 is_stmt 0
	movq	%rsi, -88(%rbp)
	movq	-88(%rbp), %rsi
	.loc	25 347 18
	movq	%rsi, -384(%rbp)
	movq	%rdx, -376(%rbp)
	leaq	-516(%rbp), %rsi
Ltmp317:
	.loc	30 1750 14 is_stmt 1
	movq	%rsi, -80(%rbp)
Ltmp318:
	.loc	25 328 23
	movq	%rsi, -72(%rbp)
	.loc	25 328 26 is_stmt 0
	movq	__ZN4core3fmt3num53_$LT$impl$u20$core..fmt..UpperHex$u20$for$u20$u32$GT$3fmt17ha96bbefe8f663d11E@GOTPCREL(%rip), %rdx
	movq	%rdx, -64(%rbp)
Ltmp319:
	.loc	25 347 42 is_stmt 1
	movq	%rdx, -56(%rbp)
	movq	-56(%rbp), %rdx
	.loc	25 347 68 is_stmt 0
	movq	%rsi, -48(%rbp)
	movq	-48(%rbp), %rsi
	.loc	25 347 18
	movq	%rsi, -368(%rbp)
	movq	%rdx, -360(%rbp)
Ltmp320:
	.loc	30 1754 13 is_stmt 1
	movq	%rcx, -336(%rbp)
	leaq	-336(%rbp), %rcx
	.loc	30 1750 14
	movq	%rcx, -40(%rbp)
Ltmp321:
	.loc	25 328 23
	movq	%rcx, -32(%rbp)
	.loc	25 328 26 is_stmt 0
	movq	%rax, -24(%rbp)
Ltmp322:
	.loc	25 347 42 is_stmt 1
	movq	%rax, -16(%rbp)
	movq	-16(%rbp), %rax
	.loc	25 347 68 is_stmt 0
	movq	%rcx, -8(%rbp)
	movq	-8(%rbp), %rcx
	.loc	25 347 18
	movq	%rcx, -352(%rbp)
	movq	%rax, -344(%rbp)
Ltmp323:
	.loc	30 1750 14 is_stmt 1
	movq	-384(%rbp), %rcx
	movq	-376(%rbp), %rax
	movq	%rcx, -432(%rbp)
	movq	%rax, -424(%rbp)
	movq	-368(%rbp), %rcx
	movq	-360(%rbp), %rax
	movq	%rcx, -416(%rbp)
	movq	%rax, -408(%rbp)
	movq	-352(%rbp), %rcx
	movq	-344(%rbp), %rax
	movq	%rcx, -400(%rbp)
	movq	%rax, -392(%rbp)
	leaq	l___unnamed_8(%rip), %rsi
	leaq	-480(%rbp), %rdi
	movq	%rdi, -552(%rbp)
	leaq	-432(%rbp), %rcx
	movl	$3, %r8d
	movq	%r8, %rdx
	callq	__ZN4core3fmt9Arguments6new_v117hb0fb783e74552858E
	movq	-552(%rbp), %rdi
	leaq	l___unnamed_9(%rip), %rsi
	callq	__ZN4core9panicking9panic_fmt17h9b5d807e24bcaaedE
LBB51_2:
	.loc	30 1732 13
	cmpq	$1, -488(%rbp)
	jae	LBB51_10
	jmp	LBB51_1
LBB51_3:
	.loc	30 1735 13
	cmpq	$2, -488(%rbp)
	jae	LBB51_9
	jmp	LBB51_1
LBB51_4:
	.loc	30 1739 13
	cmpq	$3, -488(%rbp)
	jae	LBB51_8
	jmp	LBB51_1
LBB51_5:
	.loc	30 1744 13
	cmpq	$4, -488(%rbp)
	jb	LBB51_1
	.loc	30 1744 14 is_stmt 0
	movq	-496(%rbp), %rsi
	movq	%rsi, -240(%rbp)
	.loc	30 1744 17
	movq	-496(%rbp), %rdx
	movq	%rdx, %rax
	addq	$1, %rax
	movq	%rax, -232(%rbp)
	.loc	30 1744 20
	movq	-496(%rbp), %rcx
	movq	%rcx, %rax
	addq	$2, %rax
	movq	%rax, -224(%rbp)
	.loc	30 1744 23
	movq	-496(%rbp), %rax
	movq	%rax, %rdi
	addq	$3, %rdi
	movq	%rdi, -216(%rbp)
Ltmp324:
	.loc	30 1745 19 is_stmt 1
	movl	-516(%rbp), %edi
	shrl	$18, %edi
	.loc	30 1745 18 is_stmt 0
	andl	$7, %edi
	.loc	30 1745 13
	orb	$-16, %dil
	movb	%dil, (%rsi)
	.loc	30 1746 19 is_stmt 1
	movl	-516(%rbp), %esi
	shrl	$12, %esi
	.loc	30 1746 18 is_stmt 0
	andl	$63, %esi
	.loc	30 1746 13
	orb	$-128, %sil
	movb	%sil, 1(%rdx)
	.loc	30 1747 19 is_stmt 1
	movl	-516(%rbp), %edx
	shrl	$6, %edx
	.loc	30 1747 18 is_stmt 0
	andl	$63, %edx
	.loc	30 1747 13
	orb	$-128, %dl
	movb	%dl, 2(%rcx)
	.loc	30 1748 19 is_stmt 1
	movl	-516(%rbp), %ecx
	.loc	30 1748 18 is_stmt 0
	andl	$63, %ecx
	.loc	30 1748 13
	orb	$-128, %cl
	movb	%cl, 3(%rax)
Ltmp325:
LBB51_7:
	.loc	30 0 13
	movq	-536(%rbp), %rcx
	movq	-544(%rbp), %rdx
	.loc	30 1757 10 is_stmt 1
	movq	%rdx, -160(%rbp)
	movq	%rcx, -152(%rbp)
	.loc	30 1757 16 is_stmt 0
	movq	-512(%rbp), %rax
	.loc	30 1757 14
	movq	%rax, -328(%rbp)
Ltmp326:
	.loc	2 30 9 is_stmt 1
	movq	-328(%rbp), %rax
	movq	%rax, -144(%rbp)
	.loc	2 30 25 is_stmt 0
	movq	%rdx, -136(%rbp)
	movq	%rcx, -128(%rbp)
Ltmp327:
	.loc	2 461 9 is_stmt 1
	movq	$0, -320(%rbp)
	movq	%rax, -312(%rbp)
	movq	-320(%rbp), %rdi
	movq	-312(%rbp), %rsi
	leaq	l___unnamed_10(%rip), %r8
	callq	__ZN106_$LT$core..ops..range..Range$LT$usize$GT$$u20$as$u20$core..slice..index..SliceIndex$LT$$u5b$T$u5d$$GT$$GT$9index_mut17h48a213aee7c24539E
Ltmp328:
	.loc	30 1758 2
	addq	$560, %rsp
	popq	%rbp
	retq
LBB51_8:
Ltmp329:
	.loc	30 1739 14
	movq	-496(%rbp), %rdx
	movq	%rdx, -208(%rbp)
	.loc	30 1739 17 is_stmt 0
	movq	-496(%rbp), %rcx
	movq	%rcx, %rax
	addq	$1, %rax
	movq	%rax, -200(%rbp)
	.loc	30 1739 20
	movq	-496(%rbp), %rax
	movq	%rax, %rsi
	addq	$2, %rsi
	movq	%rsi, -192(%rbp)
Ltmp330:
	.loc	30 1740 19 is_stmt 1
	movl	-516(%rbp), %esi
	shrl	$12, %esi
	.loc	30 1740 18 is_stmt 0
	andl	$15, %esi
	.loc	30 1740 13
	orb	$-32, %sil
	movb	%sil, (%rdx)
	.loc	30 1741 19 is_stmt 1
	movl	-516(%rbp), %edx
	shrl	$6, %edx
	.loc	30 1741 18 is_stmt 0
	andl	$63, %edx
	.loc	30 1741 13
	orb	$-128, %dl
	movb	%dl, 1(%rcx)
	.loc	30 1742 19 is_stmt 1
	movl	-516(%rbp), %ecx
	.loc	30 1742 18 is_stmt 0
	andl	$63, %ecx
	.loc	30 1742 13
	orb	$-128, %cl
	movb	%cl, 2(%rax)
Ltmp331:
	.loc	30 1743 9 is_stmt 1
	jmp	LBB51_7
LBB51_9:
	.loc	30 1735 14
	movq	-496(%rbp), %rcx
	movq	%rcx, -184(%rbp)
	.loc	30 1735 17 is_stmt 0
	movq	-496(%rbp), %rax
	movq	%rax, %rdx
	addq	$1, %rdx
	movq	%rdx, -176(%rbp)
Ltmp332:
	.loc	30 1736 19 is_stmt 1
	movl	-516(%rbp), %edx
	shrl	$6, %edx
	.loc	30 1736 18 is_stmt 0
	andl	$31, %edx
	.loc	30 1736 13
	orb	$-64, %dl
	movb	%dl, (%rcx)
	.loc	30 1737 19 is_stmt 1
	movl	-516(%rbp), %ecx
	.loc	30 1737 18 is_stmt 0
	andl	$63, %ecx
	.loc	30 1737 13
	orb	$-128, %cl
	movb	%cl, 1(%rax)
Ltmp333:
	.loc	30 1738 9 is_stmt 1
	jmp	LBB51_7
LBB51_10:
	.loc	30 1732 14
	movq	-496(%rbp), %rax
	movq	%rax, -168(%rbp)
Ltmp334:
	.loc	30 1733 18
	movl	-516(%rbp), %ecx
	.loc	30 1733 13 is_stmt 0
	movb	%cl, (%rax)
Ltmp335:
	.loc	30 1734 9 is_stmt 1
	jmp	LBB51_7
Ltmp336:
Lfunc_end51:
	.cfi_endproc
	.p2align	2, 0x90
	.data_region jt32
.set L51_0_set_2, LBB51_2-LJTI51_0
.set L51_0_set_3, LBB51_3-LJTI51_0
.set L51_0_set_4, LBB51_4-LJTI51_0
.set L51_0_set_5, LBB51_5-LJTI51_0
LJTI51_0:
	.long	L51_0_set_2
	.long	L51_0_set_3
	.long	L51_0_set_4
	.long	L51_0_set_5
	.end_data_region

	.p2align	4, 0x90
__ZN4core4char7methods8len_utf817h269a84b813ca58f3E:
Lfunc_begin52:
	.loc	30 1701 0
	.cfi_startproc
	pushq	%rbp
	.cfi_def_cfa_offset 16
	.cfi_offset %rbp, -16
	movq	%rsp, %rbp
	.cfi_def_cfa_register %rbp
	subq	$24, %rsp
	movl	%edi, -20(%rbp)
	movl	%edi, -4(%rbp)
Ltmp337:
	.loc	30 1702 8 prologue_end
	cmpl	$128, %edi
	jb	LBB52_2
	.loc	30 0 8 is_stmt 0
	movl	-20(%rbp), %eax
	.loc	30 1704 15 is_stmt 1
	cmpl	$2048, %eax
	jb	LBB52_5
	jmp	LBB52_4
LBB52_2:
	.loc	30 1703 9
	movq	$1, -16(%rbp)
LBB52_3:
	.loc	30 1711 2
	movq	-16(%rbp), %rax
	addq	$24, %rsp
	popq	%rbp
	retq
LBB52_4:
	.loc	30 0 2 is_stmt 0
	movl	-20(%rbp), %eax
	.loc	30 1706 15 is_stmt 1
	cmpl	$65536, %eax
	jb	LBB52_8
	jmp	LBB52_7
LBB52_5:
	.loc	30 1705 9
	movq	$2, -16(%rbp)
LBB52_6:
	.loc	30 1702 5
	jmp	LBB52_3
LBB52_7:
	.loc	30 1709 9
	movq	$4, -16(%rbp)
	.loc	30 1706 12
	jmp	LBB52_9
LBB52_8:
	.loc	30 1707 9
	movq	$3, -16(%rbp)
LBB52_9:
	.loc	30 1704 12
	jmp	LBB52_6
Ltmp338:
Lfunc_end52:
	.cfi_endproc

	.p2align	4, 0x90
__ZN4core4hint21unreachable_unchecked17h361e7ea06b40c4f9E:
Lfunc_begin53:
	.loc	17 100 0
	.cfi_startproc
	pushq	%rbp
	.cfi_def_cfa_offset 16
	.cfi_offset %rbp, -16
	movq	%rsp, %rbp
	.cfi_def_cfa_register %rbp
Ltmp339:
	.loc	17 104 9 prologue_end
	ud2
Ltmp340:
Lfunc_end53:
	.cfi_endproc

	.p2align	4, 0x90
__ZN4core4iter6traits8iterator8Iterator7collect17h3a1f67bf368606c3E:
Lfunc_begin54:
	.file	31 "/rustc/2c8cc343237b8f7d5a3c3703e3a87f2eb2c54a74/library/core/src/iter/traits" "iterator.rs"
	.loc	31 1856 0
	.cfi_startproc
	pushq	%rbp
	.cfi_def_cfa_offset 16
	.cfi_offset %rbp, -16
	movq	%rsp, %rbp
	.cfi_def_cfa_register %rbp
	subq	$96, %rsp
	movq	%rdi, -88(%rbp)
	movq	%rdi, -80(%rbp)
Ltmp341:
	.loc	31 1860 33 prologue_end
	leaq	-72(%rbp), %rdi
	movl	$72, %edx
	callq	_memcpy
Ltmp342:
	.loc	31 0 33 is_stmt 0
	movq	-88(%rbp), %rdi
	.loc	31 1860 9
	leaq	-72(%rbp), %rsi
	callq	__ZN95_$LT$alloc..vec..Vec$LT$T$GT$$u20$as$u20$core..iter..traits..collect..FromIterator$LT$T$GT$$GT$9from_iter17h78f6f2ab26b089f1E
	movq	-80(%rbp), %rax
	.loc	31 1861 6 is_stmt 1
	addq	$96, %rsp
	popq	%rbp
	retq
Ltmp343:
Lfunc_end54:
	.cfi_endproc

	.p2align	4, 0x90
__ZN4core4iter6traits8iterator8Iterator8try_fold17h1db8e74e9318bfe4E:
Lfunc_begin55:
	.loc	31 2254 0
	.cfi_startproc
	.cfi_personality 155, _rust_eh_personality
	.cfi_lsda 16, Lexception8
	pushq	%rbp
	.cfi_def_cfa_offset 16
	.cfi_offset %rbp, -16
	movq	%rsp, %rbp
	.cfi_def_cfa_register %rbp
	subq	$224, %rsp
	movq	%rdi, -144(%rbp)
	movq	%rdx, -136(%rbp)
	movq	%rdi, -56(%rbp)
	movq	%rsi, -48(%rbp)
Ltmp355:
	.loc	31 2260 25 prologue_end
	movb	$1, -57(%rbp)
	movq	%rsi, -112(%rbp)
LBB55_1:
Ltmp344:
	.loc	31 0 25 is_stmt 0
	movq	-144(%rbp), %rdi
Ltmp356:
	.loc	31 2261 29 is_stmt 1
	callq	__ZN91_$LT$core..slice..iter..Iter$LT$T$GT$$u20$as$u20$core..iter..traits..iterator..Iterator$GT$4next17h063a0e35635e2885E
Ltmp345:
	movq	%rax, -152(%rbp)
	jmp	LBB55_4
Ltmp357:
LBB55_2:
	.loc	31 2265 5
	testb	$1, -57(%rbp)
	jne	LBB55_16
	jmp	LBB55_15
LBB55_3:
Ltmp354:
	.loc	31 0 5 is_stmt 0
	movq	%rax, %rcx
	movl	%edx, %eax
	movq	%rcx, -32(%rbp)
	movl	%eax, -24(%rbp)
	jmp	LBB55_2
LBB55_4:
	movq	-152(%rbp), %rax
Ltmp358:
	.loc	31 2261 29 is_stmt 1
	movq	%rax, -104(%rbp)
	.loc	31 2261 19 is_stmt 0
	movq	-104(%rbp), %rdx
	movl	$1, %eax
	xorl	%ecx, %ecx
	cmpq	$0, %rdx
	cmoveq	%rcx, %rax
	cmpq	$1, %rax
	jne	LBB55_6
	.loc	31 2261 24
	movq	-104(%rbp), %rax
	movq	%rax, -16(%rbp)
	.loc	31 2262 23 is_stmt 1
	movb	$0, -57(%rbp)
	movq	-112(%rbp), %rcx
	.loc	31 2262 21 is_stmt 0
	movq	%rcx, -80(%rbp)
	movq	%rax, -72(%rbp)
	movq	-80(%rbp), %rsi
	movq	-72(%rbp), %rdx
Ltmp348:
	leaq	-136(%rbp), %rdi
	callq	__ZN4core4iter8adapters3map12map_try_fold28_$u7b$$u7b$closure$u7d$$u7d$17h17ac964b5fa7e84fE
Ltmp349:
	movq	%rdx, -168(%rbp)
	movq	%rax, -160(%rbp)
	jmp	LBB55_10
Ltmp359:
LBB55_6:
	.loc	31 2261 9 is_stmt 1
	jmp	LBB55_7
LBB55_7:
	.loc	31 2264 15
	movb	$0, -57(%rbp)
	movq	-112(%rbp), %rdi
Ltmp346:
	callq	__ZN75_$LT$core..option..Option$LT$T$GT$$u20$as$u20$core..ops..try_trait..Try$GT$11from_output17h7d0e362c8c3f43d2E
Ltmp347:
	movq	%rdx, -184(%rbp)
	movq	%rax, -176(%rbp)
	jmp	LBB55_8
LBB55_8:
	.loc	31 0 15 is_stmt 0
	movq	-184(%rbp), %rax
	movq	-176(%rbp), %rcx
	.loc	31 2264 15
	movq	%rcx, -128(%rbp)
	movq	%rax, -120(%rbp)
Ltmp360:
LBB55_9:
	.loc	31 2265 6 is_stmt 1
	movq	-128(%rbp), %rax
	movq	-120(%rbp), %rdx
	addq	$224, %rsp
	popq	%rbp
	retq
LBB55_10:
Ltmp350:
	.loc	31 0 6 is_stmt 0
	movq	-168(%rbp), %rsi
	movq	-160(%rbp), %rdi
Ltmp361:
	.loc	31 2262 21 is_stmt 1
	callq	__ZN75_$LT$core..option..Option$LT$T$GT$$u20$as$u20$core..ops..try_trait..Try$GT$6branch17hb0c7c4e63a39cad0E
Ltmp351:
	movq	%rdx, -200(%rbp)
	movq	%rax, -192(%rbp)
	jmp	LBB55_11
LBB55_11:
	.loc	31 0 21 is_stmt 0
	movq	-200(%rbp), %rax
	movq	-192(%rbp), %rcx
	.loc	31 2262 21
	movq	%rcx, -96(%rbp)
	movq	%rax, -88(%rbp)
	cmpq	$0, -96(%rbp)
	jne	LBB55_13
	movq	-88(%rbp), %rax
	movq	%rax, -8(%rbp)
	.loc	31 2262 13
	movb	$1, -57(%rbp)
	movq	%rax, -112(%rbp)
Ltmp362:
	.loc	31 2261 9 is_stmt 1
	jmp	LBB55_1
LBB55_13:
Ltmp352:
Ltmp363:
	.loc	31 2262 21
	callq	__ZN84_$LT$core..option..Option$LT$T$GT$$u20$as$u20$core..ops..try_trait..FromResidual$GT$13from_residual17h85ca6e72f895db8bE
Ltmp353:
	movq	%rdx, -216(%rbp)
	movq	%rax, -208(%rbp)
	jmp	LBB55_14
LBB55_14:
	.loc	31 0 21 is_stmt 0
	movq	-216(%rbp), %rax
	movq	-208(%rbp), %rcx
	.loc	31 2262 21
	movq	%rcx, -128(%rbp)
	movq	%rax, -120(%rbp)
Ltmp364:
	.loc	31 2265 5 is_stmt 1
	jmp	LBB55_9
LBB55_15:
	.loc	31 2254 5
	movq	-32(%rbp), %rdi
	callq	__Unwind_Resume
LBB55_16:
	.loc	31 2265 5
	jmp	LBB55_15
Ltmp365:
Lfunc_end55:
	.cfi_endproc
	.section	__TEXT,__gcc_except_tab
	.p2align	2
GCC_except_table55:
Lexception8:
	.byte	255
	.byte	255
	.byte	1
	.uleb128 Lcst_end8-Lcst_begin8
Lcst_begin8:
	.uleb128 Ltmp344-Lfunc_begin55
	.uleb128 Ltmp353-Ltmp344
	.uleb128 Ltmp354-Lfunc_begin55
	.byte	0
	.uleb128 Ltmp353-Lfunc_begin55
	.uleb128 Lfunc_end55-Ltmp353
	.byte	0
	.byte	0
Lcst_end8:
	.p2align	2

	.section	__TEXT,__text,regular,pure_instructions
	.p2align	4, 0x90
__ZN4core4iter6traits8iterator8Iterator9size_hint17hc376477498e4f25eE:
Lfunc_begin56:
	.loc	31 221 0
	.cfi_startproc
	pushq	%rbp
	.cfi_def_cfa_offset 16
	.cfi_offset %rbp, -16
	movq	%rsp, %rbp
	.cfi_def_cfa_register %rbp
	subq	$24, %rsp
	movq	%rdi, %rax
	movq	%rsi, -8(%rbp)
Ltmp366:
	.loc	31 222 13 prologue_end
	movq	$0, -24(%rbp)
	.loc	31 222 9 is_stmt 0
	movq	$0, (%rdi)
	movq	-24(%rbp), %rdx
	movq	-16(%rbp), %rcx
	movq	%rdx, 8(%rdi)
	movq	%rcx, 16(%rdi)
	.loc	31 223 6 is_stmt 1
	addq	$24, %rsp
	popq	%rbp
	retq
Ltmp367:
Lfunc_end56:
	.cfi_endproc

	.p2align	4, 0x90
__ZN4core4iter8adapters3map12map_try_fold17h3f86f071f4e93ac6E:
Lfunc_begin57:
	.loc	1 87 0
	.cfi_startproc
	pushq	%rbp
	.cfi_def_cfa_offset 16
	.cfi_offset %rbp, -16
	movq	%rsp, %rbp
	.cfi_def_cfa_register %rbp
	subq	$24, %rsp
	movq	%rdi, -16(%rbp)
Ltmp368:
	.loc	1 91 5 prologue_end
	movq	%rdi, -24(%rbp)
	.loc	1 92 2
	movq	-24(%rbp), %rax
	addq	$24, %rsp
	popq	%rbp
	retq
Ltmp369:
Lfunc_end57:
	.cfi_endproc

	.p2align	4, 0x90
__ZN4core4iter8adapters3map12map_try_fold28_$u7b$$u7b$closure$u7d$$u7d$17h17ac964b5fa7e84fE:
Lfunc_begin58:
	.loc	1 91 0
	.cfi_startproc
	.cfi_personality 155, _rust_eh_personality
	.cfi_lsda 16, Lexception9
	pushq	%rbp
	.cfi_def_cfa_offset 16
	.cfi_offset %rbp, -16
	movq	%rsp, %rbp
	.cfi_def_cfa_register %rbp
	subq	$112, %rsp
	movq	%rdi, -96(%rbp)
	movq	%rsi, -88(%rbp)
	movq	%rdi, -40(%rbp)
	movq	%rsi, -32(%rbp)
	movq	%rdx, -24(%rbp)
Ltmp375:
	.loc	1 91 23 prologue_end
	movb	$1, -41(%rbp)
	.loc	1 91 28 is_stmt 0
	movq	(%rdi), %rdi
	movq	%rdx, -56(%rbp)
	movq	-56(%rbp), %rsi
Ltmp370:
	callq	__ZN5alloc3str17join_generic_copy28_$u7b$$u7b$closure$u7d$$u7d$28_$u7b$$u7b$closure$u7d$$u7d$17h297644da3c5a7090E
Ltmp371:
	movq	%rax, -80(%rbp)
	jmp	LBB58_3
LBB58_1:
	.loc	1 91 34
	testb	$1, -41(%rbp)
	jne	LBB58_6
	jmp	LBB58_5
LBB58_2:
Ltmp374:
	.loc	1 0 34
	movq	%rax, %rcx
	movl	%edx, %eax
	movq	%rcx, -16(%rbp)
	movl	%eax, -8(%rbp)
	jmp	LBB58_1
LBB58_3:
	movq	-96(%rbp), %rdi
	movq	-80(%rbp), %rax
	movq	-88(%rbp), %rcx
	.loc	1 91 21
	movb	$0, -41(%rbp)
	movq	%rcx, -72(%rbp)
	movq	%rax, -64(%rbp)
	movq	-72(%rbp), %rsi
	movq	-64(%rbp), %rdx
Ltmp372:
	callq	__ZN4core3ops8function5FnMut8call_mut17h670eacbc1ed0bbdcE
Ltmp373:
	movq	%rdx, -112(%rbp)
	movq	%rax, -104(%rbp)
	jmp	LBB58_4
LBB58_4:
	.loc	1 0 21
	movq	-112(%rbp), %rdx
	movq	-104(%rbp), %rax
	.loc	1 91 35
	addq	$112, %rsp
	popq	%rbp
	retq
LBB58_5:
	.loc	1 91 5
	movq	-16(%rbp), %rdi
	callq	__Unwind_Resume
LBB58_6:
	.loc	1 91 34
	jmp	LBB58_5
Ltmp376:
Lfunc_end58:
	.cfi_endproc
	.section	__TEXT,__gcc_except_tab
	.p2align	2
GCC_except_table58:
Lexception9:
	.byte	255
	.byte	255
	.byte	1
	.uleb128 Lcst_end9-Lcst_begin9
Lcst_begin9:
	.uleb128 Ltmp370-Lfunc_begin58
	.uleb128 Ltmp373-Ltmp370
	.uleb128 Ltmp374-Lfunc_begin58
	.byte	0
	.uleb128 Ltmp373-Lfunc_begin58
	.uleb128 Lfunc_end58-Ltmp373
	.byte	0
	.byte	0
Lcst_end9:
	.p2align	2

	.section	__TEXT,__text,regular,pure_instructions
	.p2align	4, 0x90
__ZN4core4iter8adapters3map16Map$LT$I$C$F$GT$3new17h761c4206230d7238E:
Lfunc_begin59:
	.loc	1 68 0 is_stmt 1
	.cfi_startproc
	pushq	%rbp
	.cfi_def_cfa_offset 16
	.cfi_offset %rbp, -16
	movq	%rsp, %rbp
	.cfi_def_cfa_register %rbp
	subq	$40, %rsp
	movq	%rdi, -24(%rbp)
	movq	%rsi, -16(%rbp)
Ltmp377:
	.loc	1 69 9 prologue_end
	movq	%rdi, -40(%rbp)
	movq	%rsi, -32(%rbp)
	.loc	1 70 6
	movq	-40(%rbp), %rax
	movq	-32(%rbp), %rdx
	addq	$40, %rsp
	popq	%rbp
	retq
Ltmp378:
Lfunc_end59:
	.cfi_endproc

	.p2align	4, 0x90
__ZN4core4iter8adapters3map16Map$LT$I$C$F$GT$3new17he7829fd9504ce69fE:
Lfunc_begin60:
	.loc	1 68 0
	.cfi_startproc
	pushq	%rbp
	.cfi_def_cfa_offset 16
	.cfi_offset %rbp, -16
	movq	%rsp, %rbp
	.cfi_def_cfa_register %rbp
	subq	$40, %rsp
	movq	%rdi, -24(%rbp)
	movq	%rsi, -16(%rbp)
Ltmp379:
	.loc	1 69 9 prologue_end
	movq	%rdi, -40(%rbp)
	movq	%rsi, -32(%rbp)
	.loc	1 70 6
	movq	-40(%rbp), %rax
	movq	-32(%rbp), %rdx
	addq	$40, %rsp
	popq	%rbp
	retq
Ltmp380:
Lfunc_end60:
	.cfi_endproc

	.p2align	4, 0x90
__ZN4core5alloc6layout6Layout5array5inner17hced92133ccec7f8eE:
Lfunc_begin61:
	.file	32 "/rustc/2c8cc343237b8f7d5a3c3703e3a87f2eb2c54a74/library/core/src/alloc" "layout.rs"
	.loc	32 441 0
	.cfi_startproc
	pushq	%rbp
	.cfi_def_cfa_offset 16
	.cfi_offset %rbp, -16
	movq	%rsp, %rbp
	.cfi_def_cfa_register %rbp
	subq	$176, %rsp
	movq	%rdi, -168(%rbp)
	movq	%rsi, -160(%rbp)
	movq	%rdx, -152(%rbp)
	movq	%rdi, -88(%rbp)
	movq	%rsi, -80(%rbp)
	movq	%rdx, -72(%rbp)
Ltmp381:
	.loc	32 452 16 prologue_end
	cmpq	$0, %rdi
	jne	LBB61_2
	movb	$0, -121(%rbp)
	jmp	LBB61_5
LBB61_2:
	.loc	32 0 16 is_stmt 0
	movq	-168(%rbp), %rax
	movq	-160(%rbp), %rcx
	.loc	32 452 68
	movq	%rcx, -64(%rbp)
Ltmp382:
	.loc	32 93 32 is_stmt 1
	movq	%rcx, -56(%rbp)
Ltmp383:
	.file	33 "/rustc/2c8cc343237b8f7d5a3c3703e3a87f2eb2c54a74/library/core/src/ptr" "alignment.rs"
	.loc	33 97 9
	movq	%rcx, -104(%rbp)
	movq	-104(%rbp), %rdx
Ltmp384:
	.loc	32 93 31
	subq	$1, %rdx
	.loc	32 93 9 is_stmt 0
	movabsq	$9223372036854775807, %rcx
	subq	%rdx, %rcx
	movq	%rcx, -176(%rbp)
Ltmp385:
	.loc	32 452 41 is_stmt 1
	cmpq	$0, %rax
	sete	%al
	testb	$1, %al
	jne	LBB61_4
	.loc	32 0 41 is_stmt 0
	movq	-168(%rbp), %rcx
	movq	-176(%rbp), %rax
	.loc	32 452 41
	xorl	%edx, %edx
	divq	%rcx
	movq	%rax, %rcx
	movq	-152(%rbp), %rax
	.loc	32 452 37
	cmpq	%rcx, %rax
	seta	%al
	.loc	32 452 16
	andb	$1, %al
	movb	%al, -121(%rbp)
	jmp	LBB61_5
LBB61_4:
	.loc	32 452 41
	leaq	_str.0(%rip), %rdi
	leaq	l___unnamed_11(%rip), %rdx
	movl	$25, %esi
	callq	__ZN4core9panicking5panic17hc1bc45270cf64b03E
LBB61_5:
	.loc	32 452 16
	testb	$1, -121(%rbp)
	jne	LBB61_7
	.loc	32 0 16
	movq	-160(%rbp), %rax
	movq	-152(%rbp), %rdx
	movq	-168(%rbp), %rcx
	.loc	32 456 30 is_stmt 1
	imulq	%rdx, %rcx
	movq	%rcx, -48(%rbp)
Ltmp386:
	.loc	32 461 59
	movq	%rcx, -40(%rbp)
	.loc	32 461 71 is_stmt 0
	movq	%rax, -32(%rbp)
Ltmp387:
	.loc	33 97 9 is_stmt 1
	movq	%rax, -96(%rbp)
	movq	-96(%rbp), %rax
	movq	%rax, -24(%rbp)
Ltmp388:
	.loc	32 120 65
	movq	%rax, -16(%rbp)
Ltmp389:
	.loc	33 89 18
	movq	%rax, -8(%rbp)
	movq	-8(%rbp), %rax
Ltmp390:
	.loc	32 120 18
	movq	%rcx, -120(%rbp)
	movq	%rax, -112(%rbp)
Ltmp391:
	.loc	32 461 22
	movq	-120(%rbp), %rcx
	movq	-112(%rbp), %rax
	movq	%rcx, -144(%rbp)
	movq	%rax, -136(%rbp)
Ltmp392:
	.loc	32 462 10
	jmp	LBB61_8
LBB61_7:
	.loc	32 453 24
	movq	$0, -136(%rbp)
LBB61_8:
	.loc	32 462 10
	movq	-144(%rbp), %rax
	movq	-136(%rbp), %rdx
	addq	$176, %rsp
	popq	%rbp
	retq
Ltmp393:
Lfunc_end61:
	.cfi_endproc

	.p2align	4, 0x90
__ZN4core5slice29_$LT$impl$u20$$u5b$T$u5d$$GT$12split_at_mut17h181195129892fc64E:
Lfunc_begin62:
	.file	34 "/rustc/2c8cc343237b8f7d5a3c3703e3a87f2eb2c54a74/library/core/src/slice" "mod.rs"
	.loc	34 1620 0
	.cfi_startproc
	pushq	%rbp
	.cfi_def_cfa_offset 16
	.cfi_offset %rbp, -16
	movq	%rsp, %rbp
	.cfi_def_cfa_register %rbp
	subq	$80, %rsp
	movq	%r8, -72(%rbp)
	movq	%rcx, -64(%rbp)
	movq	%rdx, -56(%rbp)
	movq	%rsi, -48(%rbp)
	movq	%rdi, -40(%rbp)
	movq	%rdi, -32(%rbp)
	movq	%rsi, -24(%rbp)
	movq	%rdx, -16(%rbp)
	movq	%rcx, -8(%rbp)
Ltmp394:
	.loc	34 1621 17 prologue_end
	cmpq	%rdx, %rcx
	setbe	%al
	.loc	34 1621 9 is_stmt 0
	xorb	$-1, %al
	testb	$1, %al
	jne	LBB62_2
	.loc	34 0 9
	movq	-64(%rbp), %rcx
	movq	-56(%rbp), %rdx
	movq	-48(%rbp), %rsi
	movq	-40(%rbp), %rdi
	.loc	34 1624 18 is_stmt 1
	callq	__ZN4core5slice29_$LT$impl$u20$$u5b$T$u5d$$GT$22split_at_mut_unchecked17h6399357a67942ad7E
	movq	-32(%rbp), %rax
	.loc	34 1625 6
	addq	$80, %rsp
	popq	%rbp
	retq
LBB62_2:
	.loc	34 0 6 is_stmt 0
	movq	-72(%rbp), %rdx
	.loc	34 1621 9 is_stmt 1
	leaq	l___unnamed_12(%rip), %rdi
	movl	$35, %esi
	callq	__ZN4core9panicking5panic17hc1bc45270cf64b03E
Ltmp395:
Lfunc_end62:
	.cfi_endproc

	.p2align	4, 0x90
__ZN4core5slice29_$LT$impl$u20$$u5b$T$u5d$$GT$15copy_from_slice17h5c0917fb64ab4755E:
Lfunc_begin63:
	.loc	34 3301 0
	.cfi_startproc
	pushq	%rbp
	.cfi_def_cfa_offset 16
	.cfi_offset %rbp, -16
	movq	%rsp, %rbp
	.cfi_def_cfa_register %rbp
	subq	$128, %rsp
	movq	%rdi, -128(%rbp)
	movq	%rsi, -120(%rbp)
	movq	%rdx, -112(%rbp)
	movq	%rcx, -104(%rbp)
	movq	%r8, -96(%rbp)
	movq	%rdi, -88(%rbp)
	movq	%rsi, -80(%rbp)
	movq	%rdx, -72(%rbp)
	movq	%rcx, -64(%rbp)
Ltmp396:
	.loc	34 3317 12 prologue_end
	cmpq	%rcx, %rsi
	jne	LBB63_2
	.loc	34 0 12 is_stmt 0
	movq	-112(%rbp), %rsi
	movq	-128(%rbp), %rdi
	movq	-120(%rbp), %rdx
	movq	-104(%rbp), %rax
	.loc	34 3325 38 is_stmt 1
	movq	%rsi, -56(%rbp)
	movq	%rax, -48(%rbp)
Ltmp397:
	.loc	34 477 9
	movq	%rsi, -40(%rbp)
Ltmp398:
	.loc	34 3325 52
	movq	%rdi, -32(%rbp)
	movq	%rdx, -24(%rbp)
Ltmp399:
	.loc	34 507 9
	movq	%rdi, -16(%rbp)
Ltmp400:
	.loc	34 3325 71
	movq	%rdx, -8(%rbp)
Ltmp401:
	.file	35 "/rustc/2c8cc343237b8f7d5a3c3703e3a87f2eb2c54a74/library/core/src" "intrinsics.rs"
	.loc	35 2372 9
	shlq	$0, %rdx
	callq	_memcpy
Ltmp402:
	.loc	34 3327 6
	addq	$128, %rsp
	popq	%rbp
	retq
LBB63_2:
	.loc	34 0 6 is_stmt 0
	movq	-96(%rbp), %rdx
	movq	-104(%rbp), %rsi
	movq	-120(%rbp), %rdi
	.loc	34 3318 13 is_stmt 1
	callq	__ZN4core5slice29_$LT$impl$u20$$u5b$T$u5d$$GT$15copy_from_slice17len_mismatch_fail17h1c0d44dec593879cE
Ltmp403:
Lfunc_end63:
	.cfi_endproc

	.p2align	4, 0x90
__ZN4core5slice29_$LT$impl$u20$$u5b$T$u5d$$GT$22split_at_mut_unchecked17h6399357a67942ad7E:
Lfunc_begin64:
	.loc	34 1722 0
	.cfi_startproc
	pushq	%rbp
	.cfi_def_cfa_offset 16
	.cfi_offset %rbp, -16
	movq	%rsp, %rbp
	.cfi_def_cfa_register %rbp
	subq	$272, %rsp
	movq	%rcx, %r9
	movq	%rsi, %rcx
	movq	%rdi, %rax
	movq	%rcx, -208(%rbp)
	movq	%rdx, -200(%rbp)
	movq	%r9, -192(%rbp)
Ltmp404:
	.loc	34 1723 19 prologue_end
	movq	%rdx, -184(%rbp)
Ltmp405:
	.loc	34 1724 19
	movq	%rcx, -176(%rbp)
	movq	%rdx, -168(%rbp)
Ltmp406:
	.loc	34 507 9
	movq	%rcx, -160(%rbp)
Ltmp407:
	.loc	34 1735 33
	movq	%rcx, -152(%rbp)
	.loc	34 1735 38 is_stmt 0
	movq	%r9, -144(%rbp)
Ltmp408:
	.file	36 "/rustc/2c8cc343237b8f7d5a3c3703e3a87f2eb2c54a74/library/core/src/slice" "raw.rs"
	.loc	36 145 45 is_stmt 1
	movq	%rcx, -136(%rbp)
	.loc	36 145 51 is_stmt 0
	movq	%r9, -128(%rbp)
Ltmp409:
	.loc	4 766 24 is_stmt 1
	movq	%rcx, -120(%rbp)
Ltmp410:
	.loc	6 60 9
	movq	%rcx, -112(%rbp)
Ltmp411:
	.loc	4 766 37
	movq	%r9, -104(%rbp)
Ltmp412:
	.loc	5 135 36
	movq	%rcx, -256(%rbp)
	movq	%r9, -248(%rbp)
	.loc	5 135 14 is_stmt 0
	movq	-256(%rbp), %r8
	movq	-248(%rbp), %rsi
	movq	%r8, -272(%rbp)
	movq	%rsi, -264(%rbp)
	movq	-272(%rbp), %r8
	movq	-264(%rbp), %rsi
Ltmp413:
	.loc	34 1735 63 is_stmt 1
	movq	%rcx, -96(%rbp)
	.loc	34 1735 71 is_stmt 0
	movq	%r9, -88(%rbp)
Ltmp414:
	.loc	6 1034 18 is_stmt 1
	movq	%rcx, -80(%rbp)
	.loc	6 1034 30 is_stmt 0
	movq	%r9, -72(%rbp)
Ltmp415:
	.loc	6 487 18 is_stmt 1
	addq	%r9, %rcx
	movq	%rcx, -64(%rbp)
	movq	-64(%rbp), %rcx
	movq	%rcx, -56(%rbp)
Ltmp416:
	.loc	34 1735 77
	subq	%r9, %rdx
	movq	%rdx, -48(%rbp)
Ltmp417:
	.loc	36 145 45
	movq	%rcx, -40(%rbp)
	.loc	36 145 51 is_stmt 0
	movq	%rdx, -32(%rbp)
Ltmp418:
	.loc	4 766 24 is_stmt 1
	movq	%rcx, -24(%rbp)
Ltmp419:
	.loc	6 60 9
	movq	%rcx, -16(%rbp)
Ltmp420:
	.loc	4 766 37
	movq	%rdx, -8(%rbp)
Ltmp421:
	.loc	5 135 36
	movq	%rcx, -224(%rbp)
	movq	%rdx, -216(%rbp)
	.loc	5 135 14 is_stmt 0
	movq	-224(%rbp), %rdx
	movq	-216(%rbp), %rcx
	movq	%rdx, -240(%rbp)
	movq	%rcx, -232(%rbp)
	movq	-240(%rbp), %rdx
	movq	-232(%rbp), %rcx
Ltmp422:
	.loc	34 1735 13 is_stmt 1
	movq	%r8, (%rdi)
	movq	%rsi, 8(%rdi)
	movq	%rdx, 16(%rdi)
	movq	%rcx, 24(%rdi)
Ltmp423:
	.loc	34 1737 6
	addq	$272, %rsp
	popq	%rbp
	retq
Ltmp424:
Lfunc_end64:
	.cfi_endproc

	.p2align	4, 0x90
__ZN4core5slice29_$LT$impl$u20$$u5b$T$u5d$$GT$3get17h90c33edb2138eaccE:
Lfunc_begin65:
	.loc	34 339 0
	.cfi_startproc
	pushq	%rbp
	.cfi_def_cfa_offset 16
	.cfi_offset %rbp, -16
	movq	%rsp, %rbp
	.cfi_def_cfa_register %rbp
	subq	$32, %rsp
	movq	%rdx, -32(%rbp)
	movq	%rsi, %rdx
	movq	%rdi, %rsi
	movq	-32(%rbp), %rdi
	movq	%rsi, -24(%rbp)
	movq	%rdx, -16(%rbp)
	movq	%rdi, -8(%rbp)
Ltmp425:
	.loc	34 343 9 prologue_end
	callq	__ZN75_$LT$usize$u20$as$u20$core..slice..index..SliceIndex$LT$$u5b$T$u5d$$GT$$GT$3get17h24480e8eb0cb3b01E
	.loc	34 344 6
	addq	$32, %rsp
	popq	%rbp
	retq
Ltmp426:
Lfunc_end65:
	.cfi_endproc

	.p2align	4, 0x90
__ZN4core5slice29_$LT$impl$u20$$u5b$T$u5d$$GT$8contains17h5b4a57026ff97852E:
Lfunc_begin66:
	.loc	34 2228 0
	.cfi_startproc
	pushq	%rbp
	.cfi_def_cfa_offset 16
	.cfi_offset %rbp, -16
	movq	%rsp, %rbp
	.cfi_def_cfa_register %rbp
	subq	$32, %rsp
	movq	%rdx, -32(%rbp)
	movq	%rsi, %rdx
	movq	%rdi, %rsi
	movq	-32(%rbp), %rdi
	movq	%rsi, -24(%rbp)
	movq	%rdx, -16(%rbp)
	movq	%rdi, -8(%rbp)
Ltmp427:
	.loc	34 2232 9 prologue_end
	callq	__ZN53_$LT$T$u20$as$u20$core..slice..cmp..SliceContains$GT$14slice_contains17h925d3a7f2e9657acE
	.loc	34 2233 6
	andb	$1, %al
	movzbl	%al, %eax
	addq	$32, %rsp
	popq	%rbp
	retq
Ltmp428:
Lfunc_end66:
	.cfi_endproc

	.p2align	4, 0x90
__ZN4core5slice3cmp81_$LT$impl$u20$core..cmp..PartialEq$LT$$u5b$B$u5d$$GT$$u20$for$u20$$u5b$A$u5d$$GT$2eq17h59d4337effb65eddE:
Lfunc_begin67:
	.file	37 "/rustc/2c8cc343237b8f7d5a3c3703e3a87f2eb2c54a74/library/core/src/slice" "cmp.rs"
	.loc	37 25 0
	.cfi_startproc
	pushq	%rbp
	.cfi_def_cfa_offset 16
	.cfi_offset %rbp, -16
	movq	%rsp, %rbp
	.cfi_def_cfa_register %rbp
	subq	$32, %rsp
	movq	%rdi, -32(%rbp)
	movq	%rsi, -24(%rbp)
	movq	%rdx, -16(%rbp)
	movq	%rcx, -8(%rbp)
Ltmp429:
	.loc	37 26 9 prologue_end
	callq	__ZN73_$LT$$u5b$A$u5d$$u20$as$u20$core..slice..cmp..SlicePartialEq$LT$B$GT$$GT$5equal17hedddfc45e24624f5E
	.loc	37 27 6
	andb	$1, %al
	movzbl	%al, %eax
	addq	$32, %rsp
	popq	%rbp
	retq
Ltmp430:
Lfunc_end67:
	.cfi_endproc

	.p2align	4, 0x90
__ZN4core5slice4iter13Iter$LT$T$GT$3new17hca1196f046d0eedaE:
Lfunc_begin68:
	.file	38 "/rustc/2c8cc343237b8f7d5a3c3703e3a87f2eb2c54a74/library/core/src/slice" "iter.rs"
	.loc	38 82 0
	.cfi_startproc
	pushq	%rbp
	.cfi_def_cfa_offset 16
	.cfi_offset %rbp, -16
	movq	%rsp, %rbp
	.cfi_def_cfa_register %rbp
	subq	$280, %rsp
	movq	%rdi, -280(%rbp)
	movq	%rsi, -272(%rbp)
	movq	%rdi, -208(%rbp)
	movq	%rsi, -200(%rbp)
Ltmp431:
	.loc	38 83 19 prologue_end
	movq	%rdi, -184(%rbp)
	movq	%rsi, -176(%rbp)
Ltmp432:
	.loc	34 477 9
	movq	%rdi, -168(%rbp)
Ltmp433:
	.loc	38 86 21
	movq	%rdi, -160(%rbp)
Ltmp434:
	.loc	3 53 36
	movq	%rdi, -232(%rbp)
	.loc	3 53 18 is_stmt 0
	movq	-232(%rbp), %rax
	movq	%rax, -152(%rbp)
Ltmp435:
	.loc	3 39 13 is_stmt 1
	movq	%rax, -144(%rbp)
Ltmp436:
	.loc	3 209 33
	movq	%rax, -136(%rbp)
	.loc	3 209 18 is_stmt 0
	movq	%rax, -128(%rbp)
Ltmp437:
	.loc	38 89 20 is_stmt 1
	xorl	%eax, %eax
	testb	$1, %al
	jne	LBB68_2
	.loc	38 0 20 is_stmt 0
	movq	-272(%rbp), %rcx
	movq	-280(%rbp), %rax
	.loc	38 89 76
	movq	%rax, -40(%rbp)
	.loc	38 89 84
	movq	%rcx, -32(%rbp)
Ltmp438:
	.loc	3 932 18 is_stmt 1
	movq	%rax, -24(%rbp)
	.loc	3 932 30 is_stmt 0
	movq	%rcx, -16(%rbp)
Ltmp439:
	.loc	3 473 18 is_stmt 1
	addq	%rcx, %rax
	movq	%rax, -248(%rbp)
Ltmp440:
	.loc	38 89 17
	jmp	LBB68_3
LBB68_2:
	.loc	38 0 17 is_stmt 0
	movq	-272(%rbp), %rcx
	movq	-280(%rbp), %rax
	.loc	38 89 32
	movq	%rax, -120(%rbp)
	.loc	38 89 54
	movq	%rcx, -112(%rbp)
Ltmp441:
	.loc	3 1118 9 is_stmt 1
	movq	%rax, -104(%rbp)
Ltmp442:
	.loc	3 61 9
	movq	%rax, -96(%rbp)
Ltmp443:
	.loc	3 1118 40
	movq	%rcx, -88(%rbp)
Ltmp444:
	.loc	3 1100 9
	movq	%rax, -80(%rbp)
	.loc	3 1100 30 is_stmt 0
	movq	%rcx, -72(%rbp)
Ltmp445:
	.loc	3 555 18 is_stmt 1
	addq	%rcx, %rax
	movq	%rax, -64(%rbp)
	movq	-64(%rbp), %rax
	movq	%rax, -56(%rbp)
Ltmp446:
	.loc	3 100 29
	movq	%rax, -48(%rbp)
Ltmp447:
	.loc	5 118 36
	movq	%rax, -216(%rbp)
	.loc	5 118 14 is_stmt 0
	movq	-216(%rbp), %rax
	movq	%rax, -224(%rbp)
	movq	-224(%rbp), %rax
	movq	%rax, -248(%rbp)
Ltmp448:
LBB68_3:
	.loc	5 0 14
	movq	-280(%rbp), %rax
Ltmp449:
	.loc	38 91 48 is_stmt 1
	movq	%rax, -8(%rbp)
Ltmp450:
	.loc	13 201 13
	movq	%rax, -240(%rbp)
Ltmp451:
	.loc	38 91 64
	movq	-248(%rbp), %rax
	.loc	38 91 13 is_stmt 0
	movq	-240(%rbp), %rcx
	movq	%rcx, -256(%rbp)
	movq	%rax, -264(%rbp)
Ltmp452:
	.loc	38 93 6 is_stmt 1
	movq	-264(%rbp), %rax
	movq	-256(%rbp), %rdx
	addq	$280, %rsp
	popq	%rbp
	retq
Ltmp453:
Lfunc_end68:
	.cfi_endproc

	.p2align	4, 0x90
__ZN4core5slice4iter13Iter$LT$T$GT$3new17hce4b46714288f86cE:
Lfunc_begin69:
	.loc	38 82 0
	.cfi_startproc
	pushq	%rbp
	.cfi_def_cfa_offset 16
	.cfi_offset %rbp, -16
	movq	%rsp, %rbp
	.cfi_def_cfa_register %rbp
	subq	$280, %rsp
	movq	%rdi, -280(%rbp)
	movq	%rsi, -272(%rbp)
	movq	%rdi, -208(%rbp)
	movq	%rsi, -200(%rbp)
Ltmp454:
	.loc	38 83 19 prologue_end
	movq	%rdi, -184(%rbp)
	movq	%rsi, -176(%rbp)
Ltmp455:
	.loc	34 477 9
	movq	%rdi, -168(%rbp)
Ltmp456:
	.loc	38 86 21
	movq	%rdi, -160(%rbp)
Ltmp457:
	.loc	3 53 36
	movq	%rdi, -232(%rbp)
	.loc	3 53 18 is_stmt 0
	movq	-232(%rbp), %rax
	movq	%rax, -152(%rbp)
Ltmp458:
	.loc	3 39 13 is_stmt 1
	movq	%rax, -144(%rbp)
Ltmp459:
	.loc	3 209 33
	movq	%rax, -136(%rbp)
	.loc	3 209 18 is_stmt 0
	movq	%rax, -128(%rbp)
Ltmp460:
	.loc	38 89 20 is_stmt 1
	xorl	%eax, %eax
	testb	$1, %al
	jne	LBB69_2
	.loc	38 0 20 is_stmt 0
	movq	-280(%rbp), %rax
	movq	-272(%rbp), %rcx
	.loc	38 89 76
	movq	%rax, -40(%rbp)
	.loc	38 89 84
	movq	%rcx, -32(%rbp)
Ltmp461:
	.loc	3 932 18 is_stmt 1
	movq	%rax, -24(%rbp)
	.loc	3 932 30 is_stmt 0
	movq	%rcx, -16(%rbp)
Ltmp462:
	.loc	3 473 18 is_stmt 1
	shlq	$4, %rcx
	addq	%rcx, %rax
	movq	%rax, -248(%rbp)
Ltmp463:
	.loc	38 89 17
	jmp	LBB69_3
LBB69_2:
	.loc	38 0 17 is_stmt 0
	movq	-272(%rbp), %rcx
	movq	-280(%rbp), %rax
	.loc	38 89 32
	movq	%rax, -120(%rbp)
	.loc	38 89 54
	movq	%rcx, -112(%rbp)
Ltmp464:
	.loc	3 1118 9 is_stmt 1
	movq	%rax, -104(%rbp)
Ltmp465:
	.loc	3 61 9
	movq	%rax, -96(%rbp)
Ltmp466:
	.loc	3 1118 40
	movq	%rcx, -88(%rbp)
Ltmp467:
	.loc	3 1100 9
	movq	%rax, -80(%rbp)
	.loc	3 1100 30 is_stmt 0
	movq	%rcx, -72(%rbp)
Ltmp468:
	.loc	3 555 18 is_stmt 1
	addq	%rcx, %rax
	movq	%rax, -64(%rbp)
	movq	-64(%rbp), %rax
	movq	%rax, -56(%rbp)
Ltmp469:
	.loc	3 100 29
	movq	%rax, -48(%rbp)
Ltmp470:
	.loc	5 118 36
	movq	%rax, -216(%rbp)
	.loc	5 118 14 is_stmt 0
	movq	-216(%rbp), %rax
	movq	%rax, -224(%rbp)
	movq	-224(%rbp), %rax
	movq	%rax, -248(%rbp)
Ltmp471:
LBB69_3:
	.loc	5 0 14
	movq	-280(%rbp), %rax
Ltmp472:
	.loc	38 91 48 is_stmt 1
	movq	%rax, -8(%rbp)
Ltmp473:
	.loc	13 201 13
	movq	%rax, -240(%rbp)
Ltmp474:
	.loc	38 91 64
	movq	-248(%rbp), %rax
	.loc	38 91 13 is_stmt 0
	movq	-240(%rbp), %rcx
	movq	%rcx, -256(%rbp)
	movq	%rax, -264(%rbp)
Ltmp475:
	.loc	38 93 6 is_stmt 1
	movq	-264(%rbp), %rax
	movq	-256(%rbp), %rdx
	addq	$280, %rsp
	popq	%rbp
	retq
Ltmp476:
Lfunc_end69:
	.cfi_endproc

	.p2align	4, 0x90
__ZN4core5slice4iter13Iter$LT$T$GT$8as_slice17hc10ab0d83a6fe58aE:
Lfunc_begin70:
	.loc	38 122 0
	.cfi_startproc
	pushq	%rbp
	.cfi_def_cfa_offset 16
	.cfi_offset %rbp, -16
	movq	%rsp, %rbp
	.cfi_def_cfa_register %rbp
	subq	$224, %rsp
	movq	%rdi, -224(%rbp)
	movq	%rdi, -160(%rbp)
Ltmp477:
	.loc	38 123 9 prologue_end
	movq	%rdi, -152(%rbp)
Ltmp478:
	.file	39 "/rustc/2c8cc343237b8f7d5a3c3703e3a87f2eb2c54a74/library/core/src/slice/iter" "macros.rs"
	.loc	39 68 41
	movq	8(%rdi), %rax
	movq	%rax, -216(%rbp)
	movq	%rax, -144(%rbp)
	movq	%rax, -136(%rbp)
	.loc	39 16 21
	movq	8(%rdi), %rax
	movq	%rax, -208(%rbp)
	movq	%rax, -128(%rbp)
Ltmp479:
	.loc	39 17 12
	xorl	%eax, %eax
	testb	$1, %al
	jne	LBB70_2
	.loc	39 0 12 is_stmt 0
	movq	-208(%rbp), %rsi
	movq	-224(%rbp), %rax
	.loc	39 25 22 is_stmt 1
	movq	(%rax), %rdi
	.loc	39 25 40 is_stmt 0
	movq	%rsi, -48(%rbp)
	.loc	39 25 22
	callq	__ZN4core3ptr9const_ptr33_$LT$impl$u20$$BP$const$u20$T$GT$7sub_ptr17h3871d097462e8993E
	movq	%rax, -200(%rbp)
	.loc	39 17 9 is_stmt 1
	jmp	LBB70_3
LBB70_2:
	.loc	39 0 9 is_stmt 0
	movq	-208(%rbp), %rcx
	movq	-224(%rbp), %rax
	.loc	39 20 13 is_stmt 1
	movq	(%rax), %rax
	movq	%rax, -120(%rbp)
Ltmp480:
	.loc	3 209 33
	movq	%rax, -112(%rbp)
	.loc	3 209 18 is_stmt 0
	movq	%rax, -104(%rbp)
	movq	-104(%rbp), %rax
	movq	%rax, -96(%rbp)
Ltmp481:
	.loc	39 20 43 is_stmt 1
	movq	%rcx, -88(%rbp)
Ltmp482:
	.loc	13 326 9
	movq	%rcx, -80(%rbp)
Ltmp483:
	.loc	6 215 33
	movq	%rcx, -72(%rbp)
	.loc	6 215 18 is_stmt 0
	movq	%rcx, -64(%rbp)
	movq	-64(%rbp), %rcx
	movq	%rcx, -56(%rbp)
Ltmp484:
	.loc	9 1203 13 is_stmt 1
	subq	%rcx, %rax
	movq	%rax, -200(%rbp)
Ltmp485:
LBB70_3:
	.loc	9 0 13 is_stmt 0
	movq	-216(%rbp), %rcx
Ltmp486:
	.loc	36 100 37 is_stmt 1
	movq	%rcx, -40(%rbp)
	.loc	36 100 43 is_stmt 0
	movq	-200(%rbp), %rax
	movq	%rax, -32(%rbp)
Ltmp487:
	.loc	4 734 20 is_stmt 1
	movq	%rcx, -24(%rbp)
Ltmp488:
	.loc	3 61 9
	movq	%rcx, -16(%rbp)
Ltmp489:
	.loc	4 734 33
	movq	%rax, -8(%rbp)
Ltmp490:
	.loc	5 118 36
	movq	%rcx, -176(%rbp)
	movq	%rax, -168(%rbp)
	.loc	5 118 14 is_stmt 0
	movq	-176(%rbp), %rcx
	movq	-168(%rbp), %rax
	movq	%rcx, -192(%rbp)
	movq	%rax, -184(%rbp)
	movq	-192(%rbp), %rax
	movq	-184(%rbp), %rdx
Ltmp491:
	.loc	38 124 6 is_stmt 1
	addq	$224, %rsp
	popq	%rbp
	retq
Ltmp492:
Lfunc_end70:
	.cfi_endproc

	.p2align	4, 0x90
__ZN4core5slice6memchr12memchr_naive17h4169037ac0e000bdE:
Lfunc_begin71:
	.file	40 "/rustc/2c8cc343237b8f7d5a3c3703e3a87f2eb2c54a74/library/core/src/slice" "memchr.rs"
	.loc	40 48 0
	.cfi_startproc
	pushq	%rbp
	.cfi_def_cfa_offset 16
	.cfi_offset %rbp, -16
	movq	%rsp, %rbp
	.cfi_def_cfa_register %rbp
	subq	$80, %rsp
	movq	%rdx, -72(%rbp)
	movq	%rsi, -64(%rbp)
	movb	%dil, %al
	movb	%al, -49(%rbp)
	movb	%al, -17(%rbp)
	movq	%rsi, -16(%rbp)
	movq	%rdx, -8(%rbp)
Ltmp493:
	.loc	40 49 17 prologue_end
	movq	$0, -32(%rbp)
LBB71_1:
	.loc	40 0 17 is_stmt 0
	movq	-72(%rbp), %rax
Ltmp494:
	.loc	40 52 11 is_stmt 1
	cmpq	%rax, -32(%rbp)
	jb	LBB71_3
	.loc	40 60 5
	movq	$0, -48(%rbp)
Ltmp495:
	.loc	40 61 2
	jmp	LBB71_8
LBB71_3:
	.loc	40 0 2 is_stmt 0
	movq	-72(%rbp), %rcx
Ltmp496:
	.loc	40 53 17 is_stmt 1
	movq	-32(%rbp), %rax
	movq	%rax, -80(%rbp)
	.loc	40 53 12 is_stmt 0
	cmpq	%rcx, %rax
	setb	%al
	testb	$1, %al
	jne	LBB71_4
	jmp	LBB71_5
LBB71_4:
	.loc	40 0 12
	movq	-64(%rbp), %rax
	movq	-80(%rbp), %rcx
	movb	-49(%rbp), %dl
	.loc	40 53 12
	cmpb	%dl, (%rax,%rcx)
	je	LBB71_7
	jmp	LBB71_6
LBB71_5:
	.loc	40 0 12
	movq	-72(%rbp), %rsi
	movq	-80(%rbp), %rdi
	.loc	40 53 12
	leaq	l___unnamed_13(%rip), %rdx
	callq	__ZN4core9panicking18panic_bounds_check17hacb8a94866cda541E
LBB71_6:
	.loc	40 57 9 is_stmt 1
	movq	-32(%rbp), %rax
	addq	$1, %rax
	movq	%rax, -32(%rbp)
	.loc	40 52 5
	jmp	LBB71_1
LBB71_7:
	.loc	40 54 25
	movq	-32(%rbp), %rax
	.loc	40 54 20 is_stmt 0
	movq	%rax, -40(%rbp)
	movq	$1, -48(%rbp)
Ltmp497:
LBB71_8:
	.loc	40 61 2 is_stmt 1
	movq	-48(%rbp), %rax
	movq	-40(%rbp), %rdx
	addq	$80, %rsp
	popq	%rbp
	retq
Ltmp498:
Lfunc_end71:
	.cfi_endproc

	.p2align	4, 0x90
__ZN4core5slice6memchr6memchr17h8341457da4c586e1E:
Lfunc_begin72:
	.loc	40 38 0
	.cfi_startproc
	pushq	%rbp
	.cfi_def_cfa_offset 16
	.cfi_offset %rbp, -16
	movq	%rsp, %rbp
	.cfi_def_cfa_register %rbp
	subq	$64, %rsp
	movq	%rdx, -64(%rbp)
	movq	%rsi, -56(%rbp)
	movb	%dil, %al
	movb	%al, -41(%rbp)
	movb	%al, -17(%rbp)
	movq	%rsi, -16(%rbp)
	movq	%rdx, -8(%rbp)
Ltmp499:
	.loc	40 40 8 prologue_end
	cmpq	$16, %rdx
	jb	LBB72_2
	.loc	40 0 8 is_stmt 0
	movq	-64(%rbp), %rdx
	movq	-56(%rbp), %rsi
	movb	-41(%rbp), %al
	.loc	40 44 5 is_stmt 1
	movzbl	%al, %edi
	callq	__ZN4core5slice6memchr14memchr_aligned17h35d16807f0081d88E
	movq	%rdx, -32(%rbp)
	movq	%rax, -40(%rbp)
	.loc	40 45 2
	jmp	LBB72_3
LBB72_2:
	.loc	40 0 2 is_stmt 0
	movq	-64(%rbp), %rdx
	movq	-56(%rbp), %rsi
	movb	-41(%rbp), %al
	.loc	40 41 16 is_stmt 1
	movzbl	%al, %edi
	callq	__ZN4core5slice6memchr12memchr_naive17h4169037ac0e000bdE
	movq	%rdx, -32(%rbp)
	movq	%rax, -40(%rbp)
LBB72_3:
	.loc	40 45 2
	movq	-40(%rbp), %rax
	movq	-32(%rbp), %rdx
	addq	$64, %rsp
	popq	%rbp
	retq
Ltmp500:
Lfunc_end72:
	.cfi_endproc

	.p2align	4, 0x90
__ZN4core6option15Option$LT$T$GT$3map17h71b8f405f32effc2E:
Lfunc_begin73:
	.file	41 "/rustc/2c8cc343237b8f7d5a3c3703e3a87f2eb2c54a74/library/core/src" "option.rs"
	.loc	41 964 0
	.cfi_startproc
	pushq	%rbp
	.cfi_def_cfa_offset 16
	.cfi_offset %rbp, -16
	movq	%rsp, %rbp
	.cfi_def_cfa_register %rbp
	subq	$64, %rsp
	movq	%rsi, -64(%rbp)
	movq	%rdi, -56(%rbp)
	movq	%rsi, -16(%rbp)
Ltmp501:
	.loc	41 969 15 prologue_end
	movb	$1, -17(%rbp)
	movq	-56(%rbp), %rdx
	movl	$1, %eax
	xorl	%ecx, %ecx
	cmpq	$0, %rdx
	cmoveq	%rcx, %rax
	.loc	41 969 9 is_stmt 0
	cmpq	$0, %rax
	jne	LBB73_2
	.loc	41 971 21 is_stmt 1
	movq	$0, -48(%rbp)
	jmp	LBB73_3
LBB73_2:
	.loc	41 0 21 is_stmt 0
	movq	-64(%rbp), %rdi
	.loc	41 970 18 is_stmt 1
	movq	-56(%rbp), %rax
	movq	%rax, -8(%rbp)
Ltmp502:
	.loc	41 970 29 is_stmt 0
	movb	$0, -17(%rbp)
	movq	%rax, -32(%rbp)
	movq	-32(%rbp), %rsi
	callq	__ZN4core3ops8function5impls80_$LT$impl$u20$core..ops..function..FnOnce$LT$A$GT$$u20$for$u20$$RF$mut$u20$F$GT$9call_once17h8483dc6cffefe164E
	.loc	41 970 24
	movq	%rax, -48(%rbp)
	movq	%rdx, -40(%rbp)
Ltmp503:
LBB73_3:
	.loc	41 973 5 is_stmt 1
	testb	$1, -17(%rbp)
	jne	LBB73_5
LBB73_4:
	.loc	41 973 6 is_stmt 0
	movq	-48(%rbp), %rax
	movq	-40(%rbp), %rdx
	addq	$64, %rsp
	popq	%rbp
	retq
LBB73_5:
	.loc	41 973 5
	jmp	LBB73_4
Ltmp504:
Lfunc_end73:
	.cfi_endproc

	.p2align	4, 0x90
__ZN4core6option15Option$LT$T$GT$8and_then17h0315f1e0a6a2d4f7E:
Lfunc_begin74:
	.loc	41 1303 0 is_stmt 1
	.cfi_startproc
	pushq	%rbp
	.cfi_def_cfa_offset 16
	.cfi_offset %rbp, -16
	movq	%rsp, %rbp
	.cfi_def_cfa_register %rbp
	subq	$96, %rsp
	movq	%rdx, -88(%rbp)
	movq	%rcx, -80(%rbp)
	movq	%rdi, -72(%rbp)
	movq	%rsi, -64(%rbp)
	movq	%rdx, -24(%rbp)
	movq	%rcx, -16(%rbp)
Ltmp505:
	.loc	41 1308 15 prologue_end
	movb	$1, -25(%rbp)
	.loc	41 1308 9 is_stmt 0
	cmpq	$0, -72(%rbp)
	jne	LBB74_2
	.loc	41 1310 21 is_stmt 1
	movq	$0, -56(%rbp)
	jmp	LBB74_3
LBB74_2:
	.loc	41 0 21 is_stmt 0
	movq	-80(%rbp), %rsi
	movq	-88(%rbp), %rdi
	.loc	41 1309 18 is_stmt 1
	movq	-64(%rbp), %rax
	movq	%rax, -8(%rbp)
Ltmp506:
	.loc	41 1309 24 is_stmt 0
	movb	$0, -25(%rbp)
	movq	%rax, -40(%rbp)
	movq	-40(%rbp), %rdx
	callq	__ZN5alloc3str17join_generic_copy28_$u7b$$u7b$closure$u7d$$u7d$17h9c7729858765c42dE
	movq	%rdx, -48(%rbp)
	movq	%rax, -56(%rbp)
Ltmp507:
LBB74_3:
	.loc	41 1312 5 is_stmt 1
	testb	$1, -25(%rbp)
	jne	LBB74_5
LBB74_4:
	.loc	41 1312 6 is_stmt 0
	movq	-56(%rbp), %rax
	movq	-48(%rbp), %rdx
	addq	$96, %rsp
	popq	%rbp
	retq
LBB74_5:
	.loc	41 1312 5
	jmp	LBB74_4
Ltmp508:
Lfunc_end74:
	.cfi_endproc

	.p2align	4, 0x90
__ZN4core6result19Result$LT$T$C$E$GT$16unwrap_unchecked17hc398619ce0c4c647E:
Lfunc_begin75:
	.file	42 "/rustc/2c8cc343237b8f7d5a3c3703e3a87f2eb2c54a74/library/core/src" "result.rs"
	.loc	42 1530 0 is_stmt 1
	.cfi_startproc
	.cfi_personality 155, _rust_eh_personality
	.cfi_lsda 16, Lexception10
	pushq	%rbp
	.cfi_def_cfa_offset 16
	.cfi_offset %rbp, -16
	movq	%rsp, %rbp
	.cfi_def_cfa_register %rbp
	subq	$64, %rsp
	movq	%rdi, -48(%rbp)
	movq	%rsi, -40(%rbp)
Ltmp512:
	.loc	42 1532 15 prologue_end
	xorl	%eax, %eax
	movl	$1, %ecx
	cmpq	$0, -40(%rbp)
	cmoveq	%rcx, %rax
	.loc	42 1532 9 is_stmt 0
	cmpq	$0, %rax
	jne	LBB75_2
	.loc	42 1533 16 is_stmt 1
	movq	-48(%rbp), %rcx
	movq	%rcx, -64(%rbp)
	movq	-40(%rbp), %rax
	movq	%rax, -56(%rbp)
	movq	%rcx, -16(%rbp)
	movq	%rax, -8(%rbp)
	.loc	42 1537 5
	xorl	%eax, %eax
	movl	$1, %ecx
	cmpq	$0, -40(%rbp)
	cmoveq	%rcx, %rax
	cmpq	$0, %rax
	je	LBB75_10
	jmp	LBB75_11
LBB75_2:
Ltmp509:
	.loc	42 1535 32
	callq	__ZN4core4hint21unreachable_unchecked17h361e7ea06b40c4f9E
Ltmp510:
	jmp	LBB75_5
LBB75_3:
	.loc	42 1537 5
	xorl	%eax, %eax
	movl	$1, %ecx
	cmpq	$0, -40(%rbp)
	cmoveq	%rcx, %rax
	cmpq	$0, %rax
	je	LBB75_6
	jmp	LBB75_7
LBB75_4:
Ltmp511:
	.loc	42 0 5 is_stmt 0
	movq	%rax, %rcx
	movl	%edx, %eax
	movq	%rcx, -32(%rbp)
	movl	%eax, -24(%rbp)
	jmp	LBB75_3
LBB75_5:
	ud2
LBB75_6:
	.loc	42 1537 5
	movb	$1, %al
	testb	$1, %al
	jne	LBB75_9
	jmp	LBB75_8
LBB75_7:
	jmp	LBB75_8
LBB75_8:
	.loc	42 1530 5 is_stmt 1
	movq	-32(%rbp), %rdi
	callq	__Unwind_Resume
LBB75_9:
	.loc	42 1537 5
	jmp	LBB75_8
LBB75_10:
	.loc	42 0 5 is_stmt 0
	movq	-56(%rbp), %rdx
	movq	-64(%rbp), %rax
	.loc	42 1537 6
	addq	$64, %rsp
	popq	%rbp
	retq
LBB75_11:
	.loc	42 1537 5
	jmp	LBB75_10
Ltmp513:
Lfunc_end75:
	.cfi_endproc
	.section	__TEXT,__gcc_except_tab
	.p2align	2
GCC_except_table75:
Lexception10:
	.byte	255
	.byte	255
	.byte	1
	.uleb128 Lcst_end10-Lcst_begin10
Lcst_begin10:
	.uleb128 Ltmp509-Lfunc_begin75
	.uleb128 Ltmp510-Ltmp509
	.uleb128 Ltmp511-Lfunc_begin75
	.byte	0
	.uleb128 Ltmp510-Lfunc_begin75
	.uleb128 Lfunc_end75-Ltmp510
	.byte	0
	.byte	0
Lcst_end10:
	.p2align	2

	.section	__TEXT,__text,regular,pure_instructions
	.p2align	4, 0x90
__ZN4core6result19Result$LT$T$C$E$GT$7map_err17h3d73e177c38e776aE:
Lfunc_begin76:
	.loc	42 857 0 is_stmt 1
	.cfi_startproc
	pushq	%rbp
	.cfi_def_cfa_offset 16
	.cfi_offset %rbp, -16
	movq	%rsp, %rbp
	.cfi_def_cfa_register %rbp
	subq	$80, %rsp
	movq	%rcx, -80(%rbp)
	movq	%rdi, -72(%rbp)
	movq	%rdi, -64(%rbp)
	movq	%rsi, -56(%rbp)
	movq	%rdx, -48(%rbp)
	movq	%rcx, -32(%rbp)
Ltmp514:
	.loc	42 858 15 prologue_end
	movb	$1, -33(%rbp)
	movq	-56(%rbp), %rdx
	xorl	%eax, %eax
	movl	$1, %ecx
	cmpq	$0, %rdx
	cmoveq	%rcx, %rax
	.loc	42 858 9 is_stmt 0
	cmpq	$0, %rax
	jne	LBB76_2
	.loc	42 0 9
	movq	-72(%rbp), %rax
	.loc	42 859 16 is_stmt 1
	movq	-56(%rbp), %rdx
	movq	-48(%rbp), %rcx
	movq	%rdx, -16(%rbp)
	movq	%rcx, -8(%rbp)
Ltmp515:
	.loc	42 859 22 is_stmt 0
	movq	%rdx, 8(%rax)
	movq	%rcx, 16(%rax)
	movq	$0, (%rax)
Ltmp516:
	.loc	42 859 26
	jmp	LBB76_3
LBB76_2:
	.loc	42 0 26
	movq	-80(%rbp), %rdi
Ltmp517:
	.loc	42 860 27 is_stmt 1
	movb	$0, -33(%rbp)
	callq	__ZN5alloc7raw_vec11finish_grow28_$u7b$$u7b$closure$u7d$$u7d$17hedd1f7c082c020f6E
	movq	%rax, %rcx
	movq	-72(%rbp), %rax
	.loc	42 860 23 is_stmt 0
	movq	%rcx, 8(%rax)
	movq	%rdx, 16(%rax)
	movq	$1, (%rax)
Ltmp518:
LBB76_3:
	.loc	42 862 5 is_stmt 1
	testb	$1, -33(%rbp)
	jne	LBB76_5
LBB76_4:
	.loc	42 0 5 is_stmt 0
	movq	-64(%rbp), %rax
	.loc	42 862 6
	addq	$80, %rsp
	popq	%rbp
	retq
LBB76_5:
	.loc	42 862 5
	jmp	LBB76_4
Ltmp519:
Lfunc_end76:
	.cfi_endproc

	.p2align	4, 0x90
__ZN4core6result19Result$LT$T$C$E$GT$7map_err17h66d7114ba69ae1ceE:
Lfunc_begin77:
	.loc	42 857 0 is_stmt 1
	.cfi_startproc
	pushq	%rbp
	.cfi_def_cfa_offset 16
	.cfi_offset %rbp, -16
	movq	%rsp, %rbp
	.cfi_def_cfa_register %rbp
	subq	$80, %rsp
	movq	%rdi, -72(%rbp)
	movq	%rdi, -64(%rbp)
	movq	%rsi, -56(%rbp)
	movq	%rdx, -48(%rbp)
Ltmp520:
	.loc	42 858 15 prologue_end
	movb	$1, -33(%rbp)
	xorl	%eax, %eax
	movl	$1, %ecx
	cmpq	$0, -48(%rbp)
	cmoveq	%rcx, %rax
	.loc	42 858 9 is_stmt 0
	cmpq	$0, %rax
	jne	LBB77_2
	.loc	42 0 9
	movq	-72(%rbp), %rax
	.loc	42 859 16 is_stmt 1
	movq	-56(%rbp), %rdx
	movq	-48(%rbp), %rcx
	movq	%rdx, -16(%rbp)
	movq	%rcx, -8(%rbp)
Ltmp521:
	.loc	42 859 22 is_stmt 0
	movq	%rdx, 8(%rax)
	movq	%rcx, 16(%rax)
	movq	$0, (%rax)
Ltmp522:
	.loc	42 859 26
	jmp	LBB77_3
LBB77_2:
Ltmp523:
	.loc	42 860 27 is_stmt 1
	movb	$0, -33(%rbp)
	callq	__ZN5alloc7raw_vec11finish_grow28_$u7b$$u7b$closure$u7d$$u7d$17h0327ca5f939c3737E
	movq	%rax, %rcx
	movq	-72(%rbp), %rax
	.loc	42 860 23 is_stmt 0
	movq	%rcx, 8(%rax)
	movq	%rdx, 16(%rax)
	movq	$1, (%rax)
Ltmp524:
LBB77_3:
	.loc	42 862 5 is_stmt 1
	testb	$1, -33(%rbp)
	jne	LBB77_5
LBB77_4:
	.loc	42 0 5 is_stmt 0
	movq	-64(%rbp), %rax
	.loc	42 862 6
	addq	$80, %rsp
	popq	%rbp
	retq
LBB77_5:
	.loc	42 862 5
	jmp	LBB77_4
Ltmp525:
Lfunc_end77:
	.cfi_endproc

	.p2align	4, 0x90
__ZN4core6result19Result$LT$T$C$E$GT$7map_err17h90f963f2e03ec697E:
Lfunc_begin78:
	.loc	42 857 0 is_stmt 1
	.cfi_startproc
	pushq	%rbp
	.cfi_def_cfa_offset 16
	.cfi_offset %rbp, -16
	movq	%rsp, %rbp
	.cfi_def_cfa_register %rbp
	subq	$96, %rsp
	movq	%rdi, -88(%rbp)
	movq	%rsi, -80(%rbp)
Ltmp526:
	.loc	42 858 15 prologue_end
	movb	$1, -33(%rbp)
	movabsq	$-9223372036854775807, %rdx
	movl	$1, %eax
	xorl	%ecx, %ecx
	cmpq	%rdx, -80(%rbp)
	cmoveq	%rcx, %rax
	.loc	42 858 9 is_stmt 0
	cmpq	$0, %rax
	jne	LBB78_2
Ltmp527:
	.loc	42 859 22 is_stmt 1
	movabsq	$-9223372036854775807, %rax
	movq	%rax, -64(%rbp)
Ltmp528:
	.loc	42 859 26 is_stmt 0
	jmp	LBB78_3
LBB78_2:
	.loc	42 860 17 is_stmt 1
	movq	-88(%rbp), %rcx
	movq	-80(%rbp), %rax
	movq	%rcx, -16(%rbp)
	movq	%rax, -8(%rbp)
Ltmp529:
	.loc	42 860 27 is_stmt 0
	movb	$0, -33(%rbp)
	movq	%rcx, -56(%rbp)
	movq	%rax, -48(%rbp)
	movq	-56(%rbp), %rdi
	movq	-48(%rbp), %rsi
	callq	__ZN5alloc7raw_vec14handle_reserve28_$u7b$$u7b$closure$u7d$$u7d$17hd4ffa49453879e44E
	.loc	42 860 23
	movq	%rax, -72(%rbp)
	movq	%rdx, -64(%rbp)
Ltmp530:
LBB78_3:
	.loc	42 862 5 is_stmt 1
	testb	$1, -33(%rbp)
	jne	LBB78_5
LBB78_4:
	.loc	42 862 6 is_stmt 0
	movq	-72(%rbp), %rax
	movq	-64(%rbp), %rdx
	addq	$96, %rsp
	popq	%rbp
	retq
LBB78_5:
	.loc	42 862 5
	jmp	LBB78_4
Ltmp531:
Lfunc_end78:
	.cfi_endproc

	.p2align	4, 0x90
__ZN50_$LT$T$u20$as$u20$core..convert..Into$LT$U$GT$$GT$4into17h3e332cff80e5741fE:
Lfunc_begin79:
	.file	43 "/rustc/2c8cc343237b8f7d5a3c3703e3a87f2eb2c54a74/library/core/src/convert" "mod.rs"
	.loc	43 725 0 is_stmt 1
	.cfi_startproc
	pushq	%rbp
	.cfi_def_cfa_offset 16
	.cfi_offset %rbp, -16
	movq	%rsp, %rbp
	.cfi_def_cfa_register %rbp
	subq	$16, %rsp
	movq	%rdi, -8(%rbp)
Ltmp532:
	.loc	43 726 9 prologue_end
	callq	__ZN119_$LT$core..ptr..non_null..NonNull$LT$T$GT$$u20$as$u20$core..convert..From$LT$core..ptr..unique..Unique$LT$T$GT$$GT$$GT$4from17h0cb816e2a9457acbE
	.loc	43 727 6
	addq	$16, %rsp
	popq	%rbp
	retq
Ltmp533:
Lfunc_end79:
	.cfi_endproc

	.p2align	4, 0x90
__ZN50_$LT$T$u20$as$u20$core..convert..Into$LT$U$GT$$GT$4into17h6a1ebccb35bcb224E:
Lfunc_begin80:
	.loc	43 725 0
	.cfi_startproc
	pushq	%rbp
	.cfi_def_cfa_offset 16
	.cfi_offset %rbp, -16
	movq	%rsp, %rbp
	.cfi_def_cfa_register %rbp
	subq	$16, %rsp
	movq	%rdi, -16(%rbp)
	movq	%rsi, -8(%rbp)
Ltmp534:
	.loc	43 726 9 prologue_end
	callq	__ZN122_$LT$alloc..collections..TryReserveError$u20$as$u20$core..convert..From$LT$alloc..collections..TryReserveErrorKind$GT$$GT$4from17h69d9dd9a985827b2E
	.loc	43 727 6
	addq	$16, %rsp
	popq	%rbp
	retq
Ltmp535:
Lfunc_end80:
	.cfi_endproc

	.p2align	4, 0x90
__ZN51_$LT$T$u20$as$u20$core..borrow..Borrow$LT$T$GT$$GT$6borrow17he4c566df6a136e70E:
Lfunc_begin81:
	.file	44 "/rustc/2c8cc343237b8f7d5a3c3703e3a87f2eb2c54a74/library/core/src" "borrow.rs"
	.loc	44 213 0
	.cfi_startproc
	pushq	%rbp
	.cfi_def_cfa_offset 16
	.cfi_offset %rbp, -16
	movq	%rsp, %rbp
	.cfi_def_cfa_register %rbp
	subq	$16, %rsp
	movq	%rsi, %rdx
	movq	%rdi, %rax
	movq	%rax, -16(%rbp)
	movq	%rdx, -8(%rbp)
Ltmp536:
	.loc	44 215 6 prologue_end
	addq	$16, %rsp
	popq	%rbp
	retq
Ltmp537:
Lfunc_end81:
	.cfi_endproc

	.p2align	4, 0x90
__ZN52_$LT$char$u20$as$u20$core..str..pattern..Pattern$GT$13into_searcher17h7a41fb87c0f4d362E:
Lfunc_begin82:
	.file	45 "/rustc/2c8cc343237b8f7d5a3c3703e3a87f2eb2c54a74/library/core/src/str" "pattern.rs"
	.loc	45 543 0
	.cfi_startproc
	pushq	%rbp
	.cfi_def_cfa_offset 16
	.cfi_offset %rbp, -16
	movq	%rsp, %rbp
	.cfi_def_cfa_register %rbp
	subq	$224, %rsp
	movq	%rcx, -208(%rbp)
	movq	%rdx, -216(%rbp)
	movl	%esi, -196(%rbp)
	movq	%rdi, -192(%rbp)
	movq	%rdi, -184(%rbp)
	movl	%esi, -164(%rbp)
	movq	%rdx, -160(%rbp)
	movq	%rcx, -152(%rbp)
Ltmp538:
	.loc	45 544 32 prologue_end
	leaq	-172(%rbp), %rdi
	xorl	%esi, %esi
	movl	$4, %edx
	callq	_memset
	movl	-196(%rbp), %edi
Ltmp539:
	.loc	45 545 25
	movl	%edi, -140(%rbp)
	.loc	45 545 42 is_stmt 0
	leaq	-172(%rbp), %rax
	movq	%rax, -136(%rbp)
	movq	$4, -128(%rbp)
Ltmp540:
	.loc	30 663 42 is_stmt 1
	leaq	-172(%rbp), %rsi
	movl	$4, %edx
	callq	__ZN4core4char7methods15encode_utf8_raw17h6833e2dc5be46b7bE
	movq	-216(%rbp), %r9
	movq	-208(%rbp), %r8
	movl	-196(%rbp), %esi
	movq	-192(%rbp), %rdi
	movq	%rax, %rcx
	movq	-184(%rbp), %rax
	movq	%rcx, -120(%rbp)
	movq	%rdx, -112(%rbp)
Ltmp541:
	.loc	45 545 25
	movq	%rcx, -104(%rbp)
	movq	%rdx, -96(%rbp)
Ltmp542:
	.loc	24 160 9
	movq	%rcx, -88(%rbp)
	movq	%rdx, -80(%rbp)
Ltmp543:
	.loc	24 327 18
	movq	%rcx, -72(%rbp)
	movq	%rdx, -64(%rbp)
	movq	-64(%rbp), %rcx
Ltmp544:
	.loc	24 160 9
	movq	%rcx, -56(%rbp)
Ltmp545:
	.loc	45 549 26
	movq	%r9, -48(%rbp)
	movq	%r8, -40(%rbp)
Ltmp546:
	.loc	24 160 9
	movq	%r9, -32(%rbp)
	movq	%r8, -24(%rbp)
Ltmp547:
	.loc	24 327 18
	movq	%r9, -16(%rbp)
	movq	%r8, -8(%rbp)
	movq	-8(%rbp), %rdx
Ltmp548:
	.loc	45 552 13
	movl	-172(%rbp), %r10d
	movl	%r10d, -168(%rbp)
	.loc	45 546 9
	movq	%r9, (%rdi)
	movq	%r8, 8(%rdi)
	movq	$0, 16(%rdi)
	movq	%rdx, 24(%rdi)
	movl	%esi, 44(%rdi)
	movq	%rcx, 32(%rdi)
	movl	-168(%rbp), %ecx
	movl	%ecx, 40(%rdi)
Ltmp549:
	.loc	45 554 6
	addq	$224, %rsp
	popq	%rbp
	retq
Ltmp550:
Lfunc_end82:
	.cfi_endproc

	.p2align	4, 0x90
__ZN53_$LT$T$u20$as$u20$core..slice..cmp..SliceContains$GT$14slice_contains17h925d3a7f2e9657acE:
Lfunc_begin83:
	.loc	37 237 0
	.cfi_startproc
	pushq	%rbp
	.cfi_def_cfa_offset 16
	.cfi_offset %rbp, -16
	movq	%rsp, %rbp
	.cfi_def_cfa_register %rbp
	subq	$96, %rsp
	movq	%rdx, -88(%rbp)
	movq	%rsi, %rax
	movq	-88(%rbp), %rsi
	movq	%rax, -80(%rbp)
	movq	%rdi, %rax
	movq	-80(%rbp), %rdi
	movq	%rax, -72(%rbp)
	movq	%rax, -40(%rbp)
	movq	%rdi, -32(%rbp)
	movq	%rsi, -24(%rbp)
Ltmp551:
	.loc	37 238 9 prologue_end
	movq	%rdi, -16(%rbp)
	movq	%rsi, -8(%rbp)
Ltmp552:
	.loc	34 742 9
	callq	__ZN4core5slice4iter13Iter$LT$T$GT$3new17hce4b46714288f86cE
	movq	-72(%rbp), %rdi
	movq	%rdx, -56(%rbp)
	movq	%rax, -64(%rbp)
Ltmp553:
	.loc	37 238 22
	movq	%rdi, -48(%rbp)
	.loc	37 238 9 is_stmt 0
	movq	-48(%rbp), %rsi
	leaq	-64(%rbp), %rdi
	callq	__ZN91_$LT$core..slice..iter..Iter$LT$T$GT$$u20$as$u20$core..iter..traits..iterator..Iterator$GT$3any17h47e651618bb5e0aeE
	.loc	37 239 6 is_stmt 1
	andb	$1, %al
	movzbl	%al, %eax
	addq	$96, %rsp
	popq	%rbp
	retq
Ltmp554:
Lfunc_end83:
	.cfi_endproc

	.p2align	4, 0x90
__ZN53_$LT$T$u20$as$u20$core..slice..cmp..SliceContains$GT$14slice_contains28_$u7b$$u7b$closure$u7d$$u7d$17h1606cc28af0c4cf9E:
Lfunc_begin84:
	.loc	37 238 0
	.cfi_startproc
	pushq	%rbp
	.cfi_def_cfa_offset 16
	.cfi_offset %rbp, -16
	movq	%rsp, %rbp
	.cfi_def_cfa_register %rbp
	subq	$32, %rsp
	movq	%rsi, -24(%rbp)
	movq	%rdi, %rax
	movq	-24(%rbp), %rdi
	movq	%rax, -16(%rbp)
	movq	%rdi, -8(%rbp)
Ltmp555:
	.loc	37 238 32 prologue_end
	movq	(%rax), %rsi
	.loc	37 238 26 is_stmt 0
	callq	__ZN4core3cmp5impls69_$LT$impl$u20$core..cmp..PartialEq$LT$$RF$B$GT$$u20$for$u20$$RF$A$GT$2eq17hd3c9a9d09de66a37E
	.loc	37 238 37
	andb	$1, %al
	movzbl	%al, %eax
	addq	$32, %rsp
	popq	%rbp
	retq
Ltmp556:
Lfunc_end84:
	.cfi_endproc

	.p2align	4, 0x90
__ZN54_$LT$$LP$$RP$$u20$as$u20$std..process..Termination$GT$6report17h2a4a6c63784264ffE:
Lfunc_begin85:
	.loc	19 2182 0 is_stmt 1
	.cfi_startproc
	pushq	%rbp
	.cfi_def_cfa_offset 16
	.cfi_offset %rbp, -16
	movq	%rsp, %rbp
	.cfi_def_cfa_register %rbp
	pushq	%rax
Ltmp557:
	.loc	19 2184 6 prologue_end
	xorl	%eax, %eax
	addq	$8, %rsp
	popq	%rbp
	retq
Ltmp558:
Lfunc_end85:
	.cfi_endproc

	.p2align	4, 0x90
__ZN55_$LT$$RF$T$u20$as$u20$core..borrow..Borrow$LT$T$GT$$GT$6borrow17hd1c308553c4629ffE:
Lfunc_begin86:
	.loc	44 229 0
	.cfi_startproc
	pushq	%rbp
	.cfi_def_cfa_offset 16
	.cfi_offset %rbp, -16
	movq	%rsp, %rbp
	.cfi_def_cfa_register %rbp
	pushq	%rax
	movq	%rdi, -8(%rbp)
Ltmp559:
	.loc	44 230 9 prologue_end
	movq	(%rdi), %rax
	movq	8(%rdi), %rdx
	.loc	44 231 6
	addq	$8, %rsp
	popq	%rbp
	retq
Ltmp560:
Lfunc_end86:
	.cfi_endproc

	.p2align	4, 0x90
__ZN55_$LT$$RF$T$u20$as$u20$core..convert..AsRef$LT$U$GT$$GT$6as_ref17ha96a9693342caa57E:
Lfunc_begin87:
	.loc	43 667 0
	.cfi_startproc
	pushq	%rbp
	.cfi_def_cfa_offset 16
	.cfi_offset %rbp, -16
	movq	%rsp, %rbp
	.cfi_def_cfa_register %rbp
	subq	$16, %rsp
	movq	%rdi, %rax
	movq	%rax, -8(%rbp)
Ltmp561:
	.loc	43 668 33 prologue_end
	movq	(%rax), %rdi
	movq	8(%rax), %rsi
	.loc	43 668 9 is_stmt 0
	callq	__ZN3std3ffi6os_str85_$LT$impl$u20$core..convert..AsRef$LT$std..ffi..os_str..OsStr$GT$$u20$for$u20$str$GT$6as_ref17h2ef637b1ad4ab905E
	.loc	43 669 6 is_stmt 1
	addq	$16, %rsp
	popq	%rbp
	retq
Ltmp562:
Lfunc_end87:
	.cfi_endproc

	.p2align	4, 0x90
__ZN55_$LT$T$u20$as$u20$core..option..SpecOptionPartialEq$GT$2eq17h4d262383f5aff7b7E:
Lfunc_begin88:
	.loc	41 2102 0
	.cfi_startproc
	pushq	%rbp
	.cfi_def_cfa_offset 16
	.cfi_offset %rbp, -16
	movq	%rsp, %rbp
	.cfi_def_cfa_register %rbp
	subq	$64, %rsp
	movq	%rdi, -32(%rbp)
	movq	%rsi, -24(%rbp)
Ltmp563:
	.loc	41 2103 15 prologue_end
	movq	%rdi, -48(%rbp)
	movq	%rsi, -40(%rbp)
	movq	-48(%rbp), %rax
	movq	(%rax), %rax
	testq	%rax, %rax
	setne	%al
	movzbl	%al, %eax
	movq	%rax, -64(%rbp)
	.loc	41 2103 9 is_stmt 0
	je	LBB88_2
	jmp	LBB88_7
LBB88_7:
	.loc	41 0 9
	movq	-64(%rbp), %rax
	.loc	41 2103 9
	subq	$1, %rax
	je	LBB88_3
	jmp	LBB88_1
LBB88_1:
	.loc	41 2106 18 is_stmt 1
	movb	$0, -49(%rbp)
	jmp	LBB88_5
LBB88_2:
	.loc	41 2103 15
	movq	-40(%rbp), %rax
	movq	(%rax), %rdx
	movl	$1, %eax
	xorl	%ecx, %ecx
	cmpq	$0, %rdx
	cmoveq	%rcx, %rax
	.loc	41 2103 9 is_stmt 0
	cmpq	$0, %rax
	je	LBB88_6
	jmp	LBB88_1
LBB88_3:
	.loc	41 2103 15
	movq	-40(%rbp), %rax
	movq	(%rax), %rdx
	movl	$1, %eax
	xorl	%ecx, %ecx
	cmpq	$0, %rdx
	cmoveq	%rcx, %rax
	.loc	41 2103 9
	cmpq	$1, %rax
	jne	LBB88_1
	.loc	41 2104 19 is_stmt 1
	movq	-48(%rbp), %rdi
	movq	%rdi, -16(%rbp)
	.loc	41 2104 28 is_stmt 0
	movq	-40(%rbp), %rsi
	movq	%rsi, -8(%rbp)
Ltmp564:
	.loc	41 2104 35
	callq	__ZN4core3cmp5impls69_$LT$impl$u20$core..cmp..PartialEq$LT$$RF$B$GT$$u20$for$u20$$RF$A$GT$2eq17h077434f2e84fd5c8E
	andb	$1, %al
	movb	%al, -49(%rbp)
Ltmp565:
LBB88_5:
	.loc	41 2108 6 is_stmt 1
	movb	-49(%rbp), %al
	andb	$1, %al
	movzbl	%al, %eax
	addq	$64, %rsp
	popq	%rbp
	retq
LBB88_6:
	.loc	41 2105 29
	movb	$1, -49(%rbp)
	jmp	LBB88_5
Ltmp566:
Lfunc_end88:
	.cfi_endproc

	.p2align	4, 0x90
__ZN5alloc3str17join_generic_copy17hd50c39d89b23a5adE:
Lfunc_begin89:
	.file	46 "/rustc/2c8cc343237b8f7d5a3c3703e3a87f2eb2c54a74/library/alloc/src" "str.rs"
	.loc	46 129 0
	.cfi_startproc
	.cfi_personality 155, _rust_eh_personality
	.cfi_lsda 16, Lexception11
	pushq	%rbp
	.cfi_def_cfa_offset 16
	.cfi_offset %rbp, -16
	movq	%rsp, %rbp
	.cfi_def_cfa_register %rbp
	subq	$3744, %rsp
	movq	%r8, -2952(%rbp)
	movq	%rcx, -2944(%rbp)
	movq	%rdx, -2936(%rbp)
	movq	%rsi, %rax
	movq	-2936(%rbp), %rsi
	movq	%rax, -2928(%rbp)
	movq	%rdi, %rax
	movq	-2928(%rbp), %rdi
	movq	%rax, -2920(%rbp)
	movq	%rax, -2912(%rbp)
	movq	%rdi, -1920(%rbp)
	movq	%rsi, -1912(%rbp)
	movq	%rcx, -1904(%rbp)
	movq	%r8, -1896(%rbp)
Ltmp667:
	.loc	46 135 19 prologue_end
	movq	%r8, -1864(%rbp)
Ltmp668:
	.loc	46 136 20
	movq	%rdi, -1856(%rbp)
	movq	%rsi, -1848(%rbp)
Ltmp669:
	.loc	34 742 9
	callq	__ZN4core5slice4iter13Iter$LT$T$GT$3new17hce4b46714288f86cE
	movq	%rdx, -2896(%rbp)
	movq	%rax, -2904(%rbp)
Ltmp670:
	.loc	46 139 23
	leaq	-2904(%rbp), %rdi
	callq	__ZN91_$LT$core..slice..iter..Iter$LT$T$GT$$u20$as$u20$core..iter..traits..iterator..Iterator$GT$4next17h063a0e35635e2885E
	movq	%rax, -2888(%rbp)
	movq	-2888(%rbp), %rdx
	movl	$1, %eax
	xorl	%ecx, %ecx
	cmpq	$0, %rdx
	cmoveq	%rcx, %rax
	.loc	46 139 17 is_stmt 0
	cmpq	$0, %rax
	jne	LBB89_2
	.loc	46 0 17
	movq	-2920(%rbp), %rax
Ltmp671:
	.loc	8 425 20 is_stmt 1
	movq	L___unnamed_14(%rip), %rdx
	movq	L___unnamed_14+8(%rip), %rcx
	.loc	8 425 9 is_stmt 0
	movq	%rdx, (%rax)
	movq	%rcx, 8(%rax)
	movq	$0, 16(%rax)
Ltmp672:
	.loc	46 185 2 is_stmt 1
	jmp	LBB89_85
LBB89_2:
Ltmp673:
	.loc	46 140 14
	movq	-2888(%rbp), %rax
	movq	%rax, -2968(%rbp)
	movq	%rax, -1840(%rbp)
Ltmp674:
	.loc	46 140 24 is_stmt 0
	movq	%rax, -1832(%rbp)
Ltmp675:
	.loc	46 149 22 is_stmt 1
	leaq	-2904(%rbp), %rax
	movq	%rax, -1824(%rbp)
Ltmp676:
	.loc	39 16 21
	movq	-2896(%rbp), %rax
	movq	%rax, -2960(%rbp)
	movq	%rax, -1816(%rbp)
Ltmp677:
	.loc	39 17 12
	xorl	%eax, %eax
	testb	$1, %al
	jne	LBB89_4
	.loc	39 0 12 is_stmt 0
	movq	-2960(%rbp), %rsi
	.loc	39 25 22 is_stmt 1
	movq	-2904(%rbp), %rdi
	.loc	39 25 40 is_stmt 0
	movq	%rsi, -1736(%rbp)
	.loc	39 25 22
	callq	__ZN4core3ptr9const_ptr33_$LT$impl$u20$$BP$const$u20$T$GT$7sub_ptr17h90f8a3fb82aa6a51E
	movq	%rax, -2864(%rbp)
	.loc	39 17 9 is_stmt 1
	jmp	LBB89_5
LBB89_4:
	.loc	39 0 9 is_stmt 0
	movq	-2960(%rbp), %rcx
	.loc	39 20 13 is_stmt 1
	movq	-2904(%rbp), %rax
	movq	%rax, -1808(%rbp)
Ltmp678:
	.loc	3 209 33
	movq	%rax, -1800(%rbp)
	.loc	3 209 18 is_stmt 0
	movq	%rax, -1792(%rbp)
	movq	-1792(%rbp), %rax
	movq	%rax, -1784(%rbp)
Ltmp679:
	.loc	39 20 43 is_stmt 1
	movq	%rcx, -1776(%rbp)
Ltmp680:
	.loc	13 326 9
	movq	%rcx, -1768(%rbp)
Ltmp681:
	.loc	6 215 33
	movq	%rcx, -1760(%rbp)
	.loc	6 215 18 is_stmt 0
	movq	%rcx, -1752(%rbp)
	movq	-1752(%rbp), %rcx
	movq	%rcx, -1744(%rbp)
Ltmp682:
	.loc	9 1203 13 is_stmt 1
	subq	%rcx, %rax
	movq	%rax, -2864(%rbp)
Ltmp683:
LBB89_5:
	.loc	9 0 13 is_stmt 0
	movq	-2952(%rbp), %rdi
	.loc	46 148 24 is_stmt 1
	movq	-2864(%rbp), %rsi
	callq	__ZN4core3num23_$LT$impl$u20$usize$GT$11checked_mul17h3394c9173af9761eE
	movq	-2928(%rbp), %rcx
	movq	%rax, %rdi
	movq	-2936(%rbp), %rax
	movq	%rdx, %rsi
	.loc	46 150 19
	movq	%rcx, -2856(%rbp)
	movq	%rax, -2848(%rbp)
	.loc	46 148 24
	movq	-2856(%rbp), %rdx
	movq	-2848(%rbp), %rcx
	callq	__ZN4core6option15Option$LT$T$GT$8and_then17h0315f1e0a6a2d4f7E
	movq	%rdx, -2872(%rbp)
	movq	%rax, -2880(%rbp)
	.loc	46 153 17
	leaq	l___unnamed_15(%rip), %rax
	movq	%rax, -1728(%rbp)
	movq	$53, -1720(%rbp)
Ltmp684:
	.loc	41 784 9
	cmpq	$0, -2880(%rbp)
	jne	LBB89_7
	.loc	41 786 21
	leaq	l___unnamed_15(%rip), %rdi
	leaq	l___unnamed_16(%rip), %rdx
	movl	$53, %esi
	callq	__ZN4core6option13expect_failed17h5792a81bec0ff713E
LBB89_7:
	.loc	41 785 18
	movq	-2872(%rbp), %rdi
	movq	%rdi, -2992(%rbp)
	movq	%rdi, -1712(%rbp)
Ltmp685:
	.loc	46 156 41
	movq	%rdi, -1704(%rbp)
Ltmp686:
	.loc	8 483 32
	movq	%rdi, -1696(%rbp)
Ltmp687:
	.loc	8 676 45
	movq	%rdi, -1688(%rbp)
Ltmp688:
	.loc	11 131 37
	movb	$0, -2209(%rbp)
	.loc	11 131 9 is_stmt 0
	movzbl	-2209(%rbp), %esi
	callq	__ZN5alloc7raw_vec19RawVec$LT$T$C$A$GT$11allocate_in17h72e9cfdf7487b43bE
	movq	-2968(%rbp), %rdi
Ltmp689:
	.loc	8 676 9 is_stmt 1
	movq	%rax, -2840(%rbp)
	movq	%rdx, -2832(%rbp)
	movq	$0, -2824(%rbp)
Ltmp690:
Ltmp567:
	.loc	46 159 30
	callq	__ZN55_$LT$$RF$T$u20$as$u20$core..borrow..Borrow$LT$T$GT$$GT$6borrow17hd1c308553c4629ffE
Ltmp568:
	movq	%rdx, -2984(%rbp)
	movq	%rax, -2976(%rbp)
	jmp	LBB89_10
Ltmp691:
LBB89_8:
Ltmp664:
	.loc	46 0 30 is_stmt 0
	leaq	-2840(%rbp), %rdi
	.loc	46 185 1 is_stmt 1
	callq	__ZN4core3ptr46drop_in_place$LT$alloc..vec..Vec$LT$u8$GT$$GT$17hdbb3ec982d5a62caE
Ltmp665:
	jmp	LBB89_84
LBB89_9:
Ltmp663:
	.loc	46 0 1 is_stmt 0
	movq	%rax, %rcx
	movl	%edx, %eax
	movq	%rcx, -1680(%rbp)
	movl	%eax, -1672(%rbp)
	jmp	LBB89_8
LBB89_10:
Ltmp569:
	movq	-2984(%rbp), %rsi
	movq	-2976(%rbp), %rdi
Ltmp692:
	.loc	46 159 30 is_stmt 1
	callq	__ZN4core3str74_$LT$impl$u20$core..convert..AsRef$LT$$u5b$u8$u5d$$GT$$u20$for$u20$str$GT$6as_ref17hc7a01e7d068cbb9aE
Ltmp570:
	movq	%rdx, -3008(%rbp)
	movq	%rax, -3000(%rbp)
	jmp	LBB89_11
LBB89_11:
Ltmp571:
	.loc	46 0 30 is_stmt 0
	movq	-3008(%rbp), %rdx
	movq	-3000(%rbp), %rsi
	leaq	-2840(%rbp), %rdi
	.loc	46 159 5
	callq	__ZN5alloc3vec16Vec$LT$T$C$A$GT$17extend_from_slice17h24b0c96c5f54ac63E
Ltmp572:
	jmp	LBB89_12
LBB89_12:
	.loc	46 0 5
	leaq	-2840(%rbp), %rdi
	.loc	46 162 19 is_stmt 1
	movq	%rdi, -1664(%rbp)
Ltmp693:
	.loc	8 2062 9
	movq	-2824(%rbp), %rax
	movq	%rax, -3032(%rbp)
	movq	%rax, -1656(%rbp)
Ltmp694:
Ltmp573:
	.loc	46 163 22
	callq	__ZN5alloc3vec16Vec$LT$T$C$A$GT$18spare_capacity_mut17he3bfd8984e760f01E
Ltmp574:
	movq	%rdx, -3024(%rbp)
	movq	%rax, -3016(%rbp)
	jmp	LBB89_13
LBB89_13:
	.loc	46 0 22 is_stmt 0
	movq	-3024(%rbp), %rcx
	movq	-3016(%rbp), %rdx
	movq	-3032(%rbp), %rsi
	movq	-2992(%rbp), %rax
	.loc	46 163 22
	movq	%rdx, -1648(%rbp)
	movq	%rcx, -1640(%rbp)
	.loc	46 163 70
	subq	%rsi, %rax
	.loc	46 163 68
	movq	%rax, -2816(%rbp)
Ltmp695:
	.loc	34 443 24 is_stmt 1
	movq	-2816(%rbp), %rax
	movq	%rax, -1632(%rbp)
	.loc	34 443 48 is_stmt 0
	movq	%rdx, -1624(%rbp)
	movq	%rcx, -1616(%rbp)
Ltmp696:
	.loc	2 451 18 is_stmt 1
	movq	$0, -2208(%rbp)
	movq	%rax, -2200(%rbp)
	movq	-2208(%rbp), %rdi
	movq	-2200(%rbp), %rsi
Ltmp575:
	callq	__ZN106_$LT$core..ops..range..Range$LT$usize$GT$$u20$as$u20$core..slice..index..SliceIndex$LT$$u5b$T$u5d$$GT$$GT$17get_unchecked_mut17hec72c0e05db51a8dE
Ltmp576:
	movq	%rdx, -3048(%rbp)
	movq	%rax, -3040(%rbp)
	jmp	LBB89_14
LBB89_14:
	.loc	2 0 18 is_stmt 0
	movq	-2944(%rbp), %rcx
	movq	-2952(%rbp), %rax
	movq	-3048(%rbp), %rdx
	movq	-3040(%rbp), %rsi
	.loc	2 451 18
	movq	%rsi, %rdi
	movq	%rdi, -3096(%rbp)
	movq	%rdx, %rdi
	movq	%rdi, -3088(%rbp)
Ltmp697:
	.loc	34 443 9 is_stmt 1
	movq	%rsi, -1608(%rbp)
	movq	%rdx, -1600(%rbp)
Ltmp698:
	.loc	46 167 54
	movq	%rcx, -1592(%rbp)
	movq	%rax, -1584(%rbp)
Ltmp699:
	.loc	34 477 9
	movq	%rcx, -1576(%rbp)
Ltmp700:
	.loc	3 61 9
	movq	%rcx, -1568(%rbp)
Ltmp701:
	.loc	46 167 75
	movq	%rcx, -1560(%rbp)
	movq	%rax, -1552(%rbp)
Ltmp702:
	.loc	34 137 23
	movq	%rcx, -1544(%rbp)
	movq	%rax, -1536(%rbp)
Ltmp703:
	.loc	5 98 14
	movq	%rcx, -2192(%rbp)
	movq	%rax, -2184(%rbp)
	movq	-2184(%rbp), %rax
	movq	%rax, -1528(%rbp)
Ltmp704:
	.loc	36 100 37
	movq	%rcx, -1520(%rbp)
	.loc	36 100 43 is_stmt 0
	movq	%rax, -1512(%rbp)
Ltmp705:
	.loc	4 734 20 is_stmt 1
	movq	%rcx, -1504(%rbp)
Ltmp706:
	.loc	3 61 9
	movq	%rcx, -1496(%rbp)
Ltmp707:
	.loc	4 734 33
	movq	%rax, -1488(%rbp)
Ltmp708:
	.loc	5 118 36
	movq	%rcx, -2160(%rbp)
	movq	%rax, -2152(%rbp)
	.loc	5 118 14 is_stmt 0
	movq	-2160(%rbp), %rcx
	movq	-2152(%rbp), %rax
	movq	%rcx, -2176(%rbp)
	movq	%rax, -2168(%rbp)
	movq	-2176(%rbp), %rcx
	movq	%rcx, -3080(%rbp)
	movq	-2168(%rbp), %rax
	movq	%rax, -3072(%rbp)
Ltmp709:
	.loc	36 100 9 is_stmt 1
	movq	%rcx, -1480(%rbp)
	movq	%rax, -1472(%rbp)
Ltmp710:
	.loc	46 168 27
	movq	-2904(%rbp), %rdi
	movq	-2896(%rbp), %rsi
	movq	%rdi, -1464(%rbp)
	movq	%rsi, -1456(%rbp)
Ltmp577:
Ltmp711:
	.loc	31 787 9
	callq	__ZN4core4iter8adapters3map16Map$LT$I$C$F$GT$3new17h761c4206230d7238E
Ltmp578:
	movq	%rdx, -3064(%rbp)
	movq	%rax, -3056(%rbp)
	jmp	LBB89_15
LBB89_15:
	.loc	31 0 9 is_stmt 0
	movq	-3072(%rbp), %rax
	movq	-3080(%rbp), %rcx
	movq	-3064(%rbp), %rdx
	movq	-3056(%rbp), %rsi
	movq	-3088(%rbp), %rdi
	movq	-3096(%rbp), %r8
	.loc	31 787 9
	movq	%rsi, %r9
	movq	%r9, -3120(%rbp)
	movq	%rdx, %r9
	movq	%r9, -3112(%rbp)
	movq	%rsi, -1448(%rbp)
	movq	%rdx, -1440(%rbp)
Ltmp712:
	.loc	46 176 58 is_stmt 1
	movq	%r8, -2808(%rbp)
	movq	%rdi, -2800(%rbp)
Ltmp713:
	.loc	46 176 66 is_stmt 0
	movq	%rsi, -1432(%rbp)
	movq	%rdx, -1424(%rbp)
Ltmp714:
	.loc	46 176 46
	movq	%rcx, -1416(%rbp)
	movq	%rax, -1408(%rbp)
Ltmp715:
	.loc	46 176 22
	movq	%rcx, -1400(%rbp)
	movq	%rax, -1392(%rbp)
Ltmp716:
	.loc	34 137 23 is_stmt 1
	movq	%rcx, -1384(%rbp)
	movq	%rax, -1376(%rbp)
Ltmp717:
	.loc	5 98 14
	movq	%rcx, -2144(%rbp)
	movq	%rax, -2136(%rbp)
	movq	-2136(%rbp), %rax
	movq	%rax, -3104(%rbp)
Ltmp718:
	.loc	46 176 22
	subq	$4, %rax
	ja	LBB89_16
	.loc	46 0 22 is_stmt 0
	movq	-3104(%rbp), %rax
	leaq	LJTI89_0(%rip), %rcx
	movslq	(%rcx,%rax,4), %rax
	addq	%rcx, %rax
	jmpq	*%rax
LBB89_16:
	movq	-3112(%rbp), %rax
	movq	-3120(%rbp), %rcx
	.loc	46 176 22
	movq	%rcx, -1368(%rbp)
	movq	%rax, -1360(%rbp)
	movq	%rcx, -2312(%rbp)
	movq	%rax, -2304(%rbp)
Ltmp719:
	.loc	46 176 22
	jmp	LBB89_22
Ltmp720:
LBB89_17:
	.loc	46 0 22
	movq	-3112(%rbp), %rax
	movq	-3120(%rbp), %rcx
	.loc	46 176 22
	movq	%rcx, -288(%rbp)
	movq	%rax, -280(%rbp)
	movq	%rcx, -2792(%rbp)
	movq	%rax, -2784(%rbp)
Ltmp721:
	.loc	46 176 22
	jmp	LBB89_73
Ltmp722:
LBB89_18:
	.loc	46 0 22
	movq	-3112(%rbp), %rax
	movq	-3120(%rbp), %rcx
	.loc	46 176 22
	movq	%rcx, -504(%rbp)
	movq	%rax, -496(%rbp)
	movq	%rcx, -2696(%rbp)
	movq	%rax, -2688(%rbp)
Ltmp723:
	.loc	46 176 22
	jmp	LBB89_63
Ltmp724:
LBB89_19:
	.loc	46 0 22
	movq	-3112(%rbp), %rax
	movq	-3120(%rbp), %rcx
	.loc	46 176 22
	movq	%rcx, -720(%rbp)
	movq	%rax, -712(%rbp)
	movq	%rcx, -2600(%rbp)
	movq	%rax, -2592(%rbp)
Ltmp725:
	.loc	46 176 22
	jmp	LBB89_53
Ltmp726:
LBB89_20:
	.loc	46 0 22
	movq	-3112(%rbp), %rax
	movq	-3120(%rbp), %rcx
	.loc	46 176 22
	movq	%rcx, -936(%rbp)
	movq	%rax, -928(%rbp)
	movq	%rcx, -2504(%rbp)
	movq	%rax, -2496(%rbp)
Ltmp727:
	.loc	46 176 22
	jmp	LBB89_43
Ltmp728:
LBB89_21:
	.loc	46 0 22
	movq	-3112(%rbp), %rax
	movq	-3120(%rbp), %rcx
	.loc	46 176 22
	movq	%rcx, -1152(%rbp)
	movq	%rax, -1144(%rbp)
	movq	%rcx, -2408(%rbp)
	movq	%rax, -2400(%rbp)
Ltmp729:
	.loc	46 176 22
	jmp	LBB89_33
Ltmp730:
LBB89_22:
	.loc	46 0 22
	leaq	-2312(%rbp), %rdi
Ltmp731:
	.loc	46 176 22
	movq	%rdi, -1352(%rbp)
Ltmp649:
Ltmp732:
	.loc	1 103 9 is_stmt 1
	callq	__ZN91_$LT$core..slice..iter..Iter$LT$T$GT$$u20$as$u20$core..iter..traits..iterator..Iterator$GT$4next17h063a0e35635e2885E
Ltmp650:
	movq	%rax, -3128(%rbp)
	jmp	LBB89_23
LBB89_23:
Ltmp651:
	.loc	1 0 9 is_stmt 0
	movq	-3128(%rbp), %rdi
	leaq	-2312(%rbp), %rsi
	.loc	1 103 9
	callq	__ZN4core6option15Option$LT$T$GT$3map17h71b8f405f32effc2E
Ltmp652:
	movq	%rdx, -3144(%rbp)
	movq	%rax, -3136(%rbp)
	jmp	LBB89_24
LBB89_24:
	.loc	1 0 9
	movq	-3144(%rbp), %rax
	movq	-3136(%rbp), %rcx
	.loc	1 103 9
	movq	%rcx, -2296(%rbp)
	movq	%rax, -2288(%rbp)
Ltmp733:
	.loc	46 176 22 is_stmt 1
	movq	-2296(%rbp), %rdx
	movl	$1, %eax
	xorl	%ecx, %ecx
	cmpq	$0, %rdx
	cmoveq	%rcx, %rax
	cmpq	$0, %rax
	jne	LBB89_26
Ltmp734:
	.loc	46 176 22 is_stmt 0
	jmp	LBB89_32
LBB89_26:
	.loc	46 0 22
	movq	-3072(%rbp), %rax
	movq	-3080(%rbp), %rcx
Ltmp735:
	.loc	46 176 22
	movq	-2296(%rbp), %rsi
	movq	%rsi, -3160(%rbp)
	movq	-2288(%rbp), %rdx
	movq	%rdx, -3152(%rbp)
	movq	%rsi, -1344(%rbp)
	movq	%rdx, -1336(%rbp)
Ltmp736:
	.loc	46 176 22
	movq	%rcx, -1328(%rbp)
	movq	%rax, -1320(%rbp)
Ltmp737:
	.loc	34 137 23 is_stmt 1
	movq	%rcx, -1312(%rbp)
	movq	%rax, -1304(%rbp)
Ltmp738:
	.loc	5 98 14
	movq	%rcx, -1968(%rbp)
	movq	%rax, -1960(%rbp)
	movq	-1960(%rbp), %rcx
	movq	%rcx, -1296(%rbp)
Ltmp739:
	.loc	46 176 22
	movq	-2808(%rbp), %rsi
	movq	-2800(%rbp), %rdx
Ltmp653:
	leaq	l___unnamed_17(%rip), %r8
	leaq	-2280(%rbp), %rdi
	callq	__ZN4core5slice29_$LT$impl$u20$$u5b$T$u5d$$GT$12split_at_mut17h181195129892fc64E
Ltmp654:
	jmp	LBB89_27
LBB89_27:
	.loc	46 0 22 is_stmt 0
	movq	-3072(%rbp), %rcx
	movq	-3080(%rbp), %rdx
	.loc	46 176 22
	movq	-2280(%rbp), %rdi
	movq	-2272(%rbp), %rsi
	movq	%rdi, -1288(%rbp)
	movq	%rsi, -1280(%rbp)
	movq	-2264(%rbp), %r8
	movq	%r8, -3176(%rbp)
	movq	-2256(%rbp), %rax
	movq	%rax, -3168(%rbp)
	movq	%r8, -1272(%rbp)
	movq	%rax, -1264(%rbp)
Ltmp655:
Ltmp740:
	.loc	46 176 22
	leaq	l___unnamed_17(%rip), %r8
	callq	__ZN4core5slice29_$LT$impl$u20$$u5b$T$u5d$$GT$15copy_from_slice17h5c0917fb64ab4755E
Ltmp656:
	jmp	LBB89_28
LBB89_28:
	.loc	46 0 22
	movq	-3152(%rbp), %rsi
	movq	-3160(%rbp), %rdi
	movq	-3168(%rbp), %rax
	movq	-3176(%rbp), %rcx
	.loc	46 176 22
	movq	%rcx, -2808(%rbp)
	movq	%rax, -2800(%rbp)
Ltmp657:
	callq	__ZN51_$LT$T$u20$as$u20$core..borrow..Borrow$LT$T$GT$$GT$6borrow17he4c566df6a136e70E
Ltmp658:
	movq	%rdx, -3192(%rbp)
	movq	%rax, -3184(%rbp)
	jmp	LBB89_29
LBB89_29:
	.loc	46 0 22
	movq	-3192(%rbp), %rax
	movq	-3184(%rbp), %rcx
	.loc	46 176 22
	movq	%rcx, %rdx
	movq	%rdx, -3208(%rbp)
	movq	%rax, %rdx
	movq	%rdx, -3200(%rbp)
	movq	%rcx, -1256(%rbp)
	movq	%rax, -1248(%rbp)
Ltmp741:
	.loc	43 794 9 is_stmt 1
	movq	%rcx, -1240(%rbp)
	movq	%rax, -1232(%rbp)
Ltmp742:
	.loc	46 176 22
	movq	%rcx, -1224(%rbp)
	movq	%rax, -1216(%rbp)
Ltmp743:
	.loc	34 137 23
	movq	%rcx, -1208(%rbp)
	movq	%rax, -1200(%rbp)
Ltmp744:
	.loc	5 98 14
	movq	%rcx, -1952(%rbp)
	movq	%rax, -1944(%rbp)
	movq	-1944(%rbp), %rcx
	movq	%rcx, -1192(%rbp)
Ltmp745:
	.loc	46 176 22
	movq	-2808(%rbp), %rsi
	movq	-2800(%rbp), %rdx
Ltmp659:
	leaq	l___unnamed_17(%rip), %r8
	leaq	-2248(%rbp), %rdi
	callq	__ZN4core5slice29_$LT$impl$u20$$u5b$T$u5d$$GT$12split_at_mut17h181195129892fc64E
Ltmp660:
	jmp	LBB89_30
LBB89_30:
	.loc	46 0 22 is_stmt 0
	movq	-3200(%rbp), %rcx
	movq	-3208(%rbp), %rdx
	.loc	46 176 22
	movq	-2248(%rbp), %rdi
	movq	-2240(%rbp), %rsi
	movq	%rdi, -1184(%rbp)
	movq	%rsi, -1176(%rbp)
	movq	-2232(%rbp), %r8
	movq	%r8, -3224(%rbp)
	movq	-2224(%rbp), %rax
	movq	%rax, -3216(%rbp)
	movq	%r8, -1168(%rbp)
	movq	%rax, -1160(%rbp)
Ltmp661:
Ltmp746:
	.loc	46 176 22
	leaq	l___unnamed_17(%rip), %r8
	callq	__ZN4core5slice29_$LT$impl$u20$$u5b$T$u5d$$GT$15copy_from_slice17h5c0917fb64ab4755E
Ltmp662:
	jmp	LBB89_31
LBB89_31:
	.loc	46 0 22
	movq	-3216(%rbp), %rax
	movq	-3224(%rbp), %rcx
	.loc	46 176 22
	movq	%rcx, -2808(%rbp)
	movq	%rax, -2800(%rbp)
Ltmp747:
	.loc	46 176 22
	jmp	LBB89_22
Ltmp748:
LBB89_32:
	.loc	46 0 22
	movq	-2920(%rbp), %rax
	movq	-2992(%rbp), %rcx
	.loc	46 176 22
	movq	-2808(%rbp), %rsi
	movq	-2800(%rbp), %rdx
Ltmp749:
	.loc	46 176 22
	movq	%rsi, -72(%rbp)
	movq	%rdx, -64(%rbp)
Ltmp750:
	.loc	46 181 41 is_stmt 1
	movq	%rsi, -56(%rbp)
	movq	%rdx, -48(%rbp)
Ltmp751:
	.loc	34 137 23
	movq	%rsi, -40(%rbp)
	movq	%rdx, -32(%rbp)
Ltmp752:
	.loc	5 98 14
	movq	%rsi, -1936(%rbp)
	movq	%rdx, -1928(%rbp)
Ltmp753:
	.loc	46 181 26
	subq	-1928(%rbp), %rcx
	movq	%rcx, -24(%rbp)
Ltmp754:
	.loc	46 182 9
	leaq	-2840(%rbp), %rdx
	movq	%rdx, -16(%rbp)
	.loc	46 182 24 is_stmt 0
	movq	%rcx, -8(%rbp)
Ltmp755:
	.loc	8 1377 9 is_stmt 1
	movq	%rcx, -2824(%rbp)
Ltmp756:
	.loc	46 184 5
	movq	-2840(%rbp), %rcx
	movq	%rcx, (%rax)
	movq	-2832(%rbp), %rcx
	movq	%rcx, 8(%rax)
	movq	-2824(%rbp), %rcx
	movq	%rcx, 16(%rax)
Ltmp757:
	.loc	46 185 2
	jmp	LBB89_85
LBB89_33:
	.loc	46 0 2 is_stmt 0
	leaq	-2408(%rbp), %rdi
Ltmp758:
	.loc	46 176 22 is_stmt 1
	movq	%rdi, -1136(%rbp)
Ltmp579:
Ltmp759:
	.loc	1 103 9
	callq	__ZN91_$LT$core..slice..iter..Iter$LT$T$GT$$u20$as$u20$core..iter..traits..iterator..Iterator$GT$4next17h063a0e35635e2885E
Ltmp580:
	movq	%rax, -3232(%rbp)
	jmp	LBB89_34
LBB89_34:
Ltmp581:
	.loc	1 0 9 is_stmt 0
	movq	-3232(%rbp), %rdi
	leaq	-2408(%rbp), %rsi
	.loc	1 103 9
	callq	__ZN4core6option15Option$LT$T$GT$3map17h71b8f405f32effc2E
Ltmp582:
	movq	%rdx, -3248(%rbp)
	movq	%rax, -3240(%rbp)
	jmp	LBB89_35
LBB89_35:
	.loc	1 0 9
	movq	-3248(%rbp), %rax
	movq	-3240(%rbp), %rcx
	.loc	1 103 9
	movq	%rcx, -2392(%rbp)
	movq	%rax, -2384(%rbp)
Ltmp760:
	.loc	46 176 22 is_stmt 1
	movq	-2392(%rbp), %rdx
	movl	$1, %eax
	xorl	%ecx, %ecx
	cmpq	$0, %rdx
	cmoveq	%rcx, %rax
	cmpq	$0, %rax
	jne	LBB89_37
Ltmp761:
	.loc	46 176 22 is_stmt 0
	jmp	LBB89_32
LBB89_37:
	.loc	46 0 22
	movq	-3072(%rbp), %rax
	movq	-3080(%rbp), %rcx
Ltmp762:
	.loc	46 176 22
	movq	-2392(%rbp), %rsi
	movq	%rsi, -3264(%rbp)
	movq	-2384(%rbp), %rdx
	movq	%rdx, -3256(%rbp)
	movq	%rsi, -1128(%rbp)
	movq	%rdx, -1120(%rbp)
Ltmp763:
	.loc	46 176 22
	movq	%rcx, -1112(%rbp)
	movq	%rax, -1104(%rbp)
Ltmp764:
	.loc	34 137 23 is_stmt 1
	movq	%rcx, -1096(%rbp)
	movq	%rax, -1088(%rbp)
Ltmp765:
	.loc	5 98 14
	movq	%rcx, -2000(%rbp)
	movq	%rax, -1992(%rbp)
	movq	-1992(%rbp), %rcx
	movq	%rcx, -1080(%rbp)
Ltmp766:
	.loc	46 176 22
	movq	-2808(%rbp), %rsi
	movq	-2800(%rbp), %rdx
Ltmp583:
	leaq	l___unnamed_17(%rip), %r8
	leaq	-2376(%rbp), %rdi
	callq	__ZN4core5slice29_$LT$impl$u20$$u5b$T$u5d$$GT$12split_at_mut17h181195129892fc64E
Ltmp584:
	jmp	LBB89_38
LBB89_38:
	.loc	46 0 22 is_stmt 0
	movq	-3072(%rbp), %rcx
	movq	-3080(%rbp), %rdx
	.loc	46 176 22
	movq	-2376(%rbp), %rdi
	movq	-2368(%rbp), %rsi
	movq	%rdi, -1072(%rbp)
	movq	%rsi, -1064(%rbp)
	movq	-2360(%rbp), %r8
	movq	%r8, -3280(%rbp)
	movq	-2352(%rbp), %rax
	movq	%rax, -3272(%rbp)
	movq	%r8, -1056(%rbp)
	movq	%rax, -1048(%rbp)
Ltmp585:
Ltmp767:
	.loc	46 176 22
	leaq	l___unnamed_17(%rip), %r8
	callq	__ZN4core5slice29_$LT$impl$u20$$u5b$T$u5d$$GT$15copy_from_slice17h5c0917fb64ab4755E
Ltmp586:
	jmp	LBB89_39
LBB89_39:
	.loc	46 0 22
	movq	-3256(%rbp), %rsi
	movq	-3264(%rbp), %rdi
	movq	-3272(%rbp), %rax
	movq	-3280(%rbp), %rcx
	.loc	46 176 22
	movq	%rcx, -2808(%rbp)
	movq	%rax, -2800(%rbp)
Ltmp587:
	callq	__ZN51_$LT$T$u20$as$u20$core..borrow..Borrow$LT$T$GT$$GT$6borrow17he4c566df6a136e70E
Ltmp588:
	movq	%rdx, -3296(%rbp)
	movq	%rax, -3288(%rbp)
	jmp	LBB89_40
LBB89_40:
	.loc	46 0 22
	movq	-3296(%rbp), %rax
	movq	-3288(%rbp), %rcx
	.loc	46 176 22
	movq	%rcx, %rdx
	movq	%rdx, -3312(%rbp)
	movq	%rax, %rdx
	movq	%rdx, -3304(%rbp)
	movq	%rcx, -1040(%rbp)
	movq	%rax, -1032(%rbp)
Ltmp768:
	.loc	43 794 9 is_stmt 1
	movq	%rcx, -1024(%rbp)
	movq	%rax, -1016(%rbp)
Ltmp769:
	.loc	46 176 22
	movq	%rcx, -1008(%rbp)
	movq	%rax, -1000(%rbp)
Ltmp770:
	.loc	34 137 23
	movq	%rcx, -992(%rbp)
	movq	%rax, -984(%rbp)
Ltmp771:
	.loc	5 98 14
	movq	%rcx, -1984(%rbp)
	movq	%rax, -1976(%rbp)
	movq	-1976(%rbp), %rcx
	movq	%rcx, -976(%rbp)
Ltmp772:
	.loc	46 176 22
	movq	-2808(%rbp), %rsi
	movq	-2800(%rbp), %rdx
Ltmp589:
	leaq	l___unnamed_17(%rip), %r8
	leaq	-2344(%rbp), %rdi
	callq	__ZN4core5slice29_$LT$impl$u20$$u5b$T$u5d$$GT$12split_at_mut17h181195129892fc64E
Ltmp590:
	jmp	LBB89_41
LBB89_41:
	.loc	46 0 22 is_stmt 0
	movq	-3304(%rbp), %rcx
	movq	-3312(%rbp), %rdx
	.loc	46 176 22
	movq	-2344(%rbp), %rdi
	movq	-2336(%rbp), %rsi
	movq	%rdi, -968(%rbp)
	movq	%rsi, -960(%rbp)
	movq	-2328(%rbp), %r8
	movq	%r8, -3328(%rbp)
	movq	-2320(%rbp), %rax
	movq	%rax, -3320(%rbp)
	movq	%r8, -952(%rbp)
	movq	%rax, -944(%rbp)
Ltmp591:
Ltmp773:
	.loc	46 176 22
	leaq	l___unnamed_17(%rip), %r8
	callq	__ZN4core5slice29_$LT$impl$u20$$u5b$T$u5d$$GT$15copy_from_slice17h5c0917fb64ab4755E
Ltmp592:
	jmp	LBB89_42
LBB89_42:
	.loc	46 0 22
	movq	-3320(%rbp), %rax
	movq	-3328(%rbp), %rcx
	.loc	46 176 22
	movq	%rcx, -2808(%rbp)
	movq	%rax, -2800(%rbp)
Ltmp774:
	.loc	46 176 22
	jmp	LBB89_33
Ltmp775:
LBB89_43:
	.loc	46 0 22
	leaq	-2504(%rbp), %rdi
Ltmp776:
	.loc	46 176 22
	movq	%rdi, -920(%rbp)
Ltmp593:
Ltmp777:
	.loc	1 103 9 is_stmt 1
	callq	__ZN91_$LT$core..slice..iter..Iter$LT$T$GT$$u20$as$u20$core..iter..traits..iterator..Iterator$GT$4next17h063a0e35635e2885E
Ltmp594:
	movq	%rax, -3336(%rbp)
	jmp	LBB89_44
LBB89_44:
Ltmp595:
	.loc	1 0 9 is_stmt 0
	movq	-3336(%rbp), %rdi
	leaq	-2504(%rbp), %rsi
	.loc	1 103 9
	callq	__ZN4core6option15Option$LT$T$GT$3map17h71b8f405f32effc2E
Ltmp596:
	movq	%rdx, -3352(%rbp)
	movq	%rax, -3344(%rbp)
	jmp	LBB89_45
LBB89_45:
	.loc	1 0 9
	movq	-3352(%rbp), %rax
	movq	-3344(%rbp), %rcx
	.loc	1 103 9
	movq	%rcx, -2488(%rbp)
	movq	%rax, -2480(%rbp)
Ltmp778:
	.loc	46 176 22 is_stmt 1
	movq	-2488(%rbp), %rdx
	movl	$1, %eax
	xorl	%ecx, %ecx
	cmpq	$0, %rdx
	cmoveq	%rcx, %rax
	cmpq	$0, %rax
	jne	LBB89_47
Ltmp779:
	.loc	46 176 22 is_stmt 0
	jmp	LBB89_32
LBB89_47:
	.loc	46 0 22
	movq	-3072(%rbp), %rax
	movq	-3080(%rbp), %rcx
Ltmp780:
	.loc	46 176 22
	movq	-2488(%rbp), %rsi
	movq	%rsi, -3368(%rbp)
	movq	-2480(%rbp), %rdx
	movq	%rdx, -3360(%rbp)
	movq	%rsi, -912(%rbp)
	movq	%rdx, -904(%rbp)
Ltmp781:
	.loc	46 176 22
	movq	%rcx, -896(%rbp)
	movq	%rax, -888(%rbp)
Ltmp782:
	.loc	34 137 23 is_stmt 1
	movq	%rcx, -880(%rbp)
	movq	%rax, -872(%rbp)
Ltmp783:
	.loc	5 98 14
	movq	%rcx, -2032(%rbp)
	movq	%rax, -2024(%rbp)
	movq	-2024(%rbp), %rcx
	movq	%rcx, -864(%rbp)
Ltmp784:
	.loc	46 176 22
	movq	-2808(%rbp), %rsi
	movq	-2800(%rbp), %rdx
Ltmp597:
	leaq	l___unnamed_17(%rip), %r8
	leaq	-2472(%rbp), %rdi
	callq	__ZN4core5slice29_$LT$impl$u20$$u5b$T$u5d$$GT$12split_at_mut17h181195129892fc64E
Ltmp598:
	jmp	LBB89_48
LBB89_48:
	.loc	46 0 22 is_stmt 0
	movq	-3072(%rbp), %rcx
	movq	-3080(%rbp), %rdx
	.loc	46 176 22
	movq	-2472(%rbp), %rdi
	movq	-2464(%rbp), %rsi
	movq	%rdi, -856(%rbp)
	movq	%rsi, -848(%rbp)
	movq	-2456(%rbp), %r8
	movq	%r8, -3384(%rbp)
	movq	-2448(%rbp), %rax
	movq	%rax, -3376(%rbp)
	movq	%r8, -840(%rbp)
	movq	%rax, -832(%rbp)
Ltmp599:
Ltmp785:
	.loc	46 176 22
	leaq	l___unnamed_17(%rip), %r8
	callq	__ZN4core5slice29_$LT$impl$u20$$u5b$T$u5d$$GT$15copy_from_slice17h5c0917fb64ab4755E
Ltmp600:
	jmp	LBB89_49
LBB89_49:
	.loc	46 0 22
	movq	-3360(%rbp), %rsi
	movq	-3368(%rbp), %rdi
	movq	-3376(%rbp), %rax
	movq	-3384(%rbp), %rcx
	.loc	46 176 22
	movq	%rcx, -2808(%rbp)
	movq	%rax, -2800(%rbp)
Ltmp601:
	callq	__ZN51_$LT$T$u20$as$u20$core..borrow..Borrow$LT$T$GT$$GT$6borrow17he4c566df6a136e70E
Ltmp602:
	movq	%rdx, -3400(%rbp)
	movq	%rax, -3392(%rbp)
	jmp	LBB89_50
LBB89_50:
	.loc	46 0 22
	movq	-3400(%rbp), %rax
	movq	-3392(%rbp), %rcx
	.loc	46 176 22
	movq	%rcx, %rdx
	movq	%rdx, -3416(%rbp)
	movq	%rax, %rdx
	movq	%rdx, -3408(%rbp)
	movq	%rcx, -824(%rbp)
	movq	%rax, -816(%rbp)
Ltmp786:
	.loc	43 794 9 is_stmt 1
	movq	%rcx, -808(%rbp)
	movq	%rax, -800(%rbp)
Ltmp787:
	.loc	46 176 22
	movq	%rcx, -792(%rbp)
	movq	%rax, -784(%rbp)
Ltmp788:
	.loc	34 137 23
	movq	%rcx, -776(%rbp)
	movq	%rax, -768(%rbp)
Ltmp789:
	.loc	5 98 14
	movq	%rcx, -2016(%rbp)
	movq	%rax, -2008(%rbp)
	movq	-2008(%rbp), %rcx
	movq	%rcx, -760(%rbp)
Ltmp790:
	.loc	46 176 22
	movq	-2808(%rbp), %rsi
	movq	-2800(%rbp), %rdx
Ltmp603:
	leaq	l___unnamed_17(%rip), %r8
	leaq	-2440(%rbp), %rdi
	callq	__ZN4core5slice29_$LT$impl$u20$$u5b$T$u5d$$GT$12split_at_mut17h181195129892fc64E
Ltmp604:
	jmp	LBB89_51
LBB89_51:
	.loc	46 0 22 is_stmt 0
	movq	-3408(%rbp), %rcx
	movq	-3416(%rbp), %rdx
	.loc	46 176 22
	movq	-2440(%rbp), %rdi
	movq	-2432(%rbp), %rsi
	movq	%rdi, -752(%rbp)
	movq	%rsi, -744(%rbp)
	movq	-2424(%rbp), %r8
	movq	%r8, -3432(%rbp)
	movq	-2416(%rbp), %rax
	movq	%rax, -3424(%rbp)
	movq	%r8, -736(%rbp)
	movq	%rax, -728(%rbp)
Ltmp605:
Ltmp791:
	.loc	46 176 22
	leaq	l___unnamed_17(%rip), %r8
	callq	__ZN4core5slice29_$LT$impl$u20$$u5b$T$u5d$$GT$15copy_from_slice17h5c0917fb64ab4755E
Ltmp606:
	jmp	LBB89_52
LBB89_52:
	.loc	46 0 22
	movq	-3424(%rbp), %rax
	movq	-3432(%rbp), %rcx
	.loc	46 176 22
	movq	%rcx, -2808(%rbp)
	movq	%rax, -2800(%rbp)
Ltmp792:
	.loc	46 176 22
	jmp	LBB89_43
Ltmp793:
LBB89_53:
	.loc	46 0 22
	leaq	-2600(%rbp), %rdi
Ltmp794:
	.loc	46 176 22
	movq	%rdi, -704(%rbp)
Ltmp607:
Ltmp795:
	.loc	1 103 9 is_stmt 1
	callq	__ZN91_$LT$core..slice..iter..Iter$LT$T$GT$$u20$as$u20$core..iter..traits..iterator..Iterator$GT$4next17h063a0e35635e2885E
Ltmp608:
	movq	%rax, -3440(%rbp)
	jmp	LBB89_54
LBB89_54:
Ltmp609:
	.loc	1 0 9 is_stmt 0
	movq	-3440(%rbp), %rdi
	leaq	-2600(%rbp), %rsi
	.loc	1 103 9
	callq	__ZN4core6option15Option$LT$T$GT$3map17h71b8f405f32effc2E
Ltmp610:
	movq	%rdx, -3456(%rbp)
	movq	%rax, -3448(%rbp)
	jmp	LBB89_55
LBB89_55:
	.loc	1 0 9
	movq	-3456(%rbp), %rax
	movq	-3448(%rbp), %rcx
	.loc	1 103 9
	movq	%rcx, -2584(%rbp)
	movq	%rax, -2576(%rbp)
Ltmp796:
	.loc	46 176 22 is_stmt 1
	movq	-2584(%rbp), %rdx
	movl	$1, %eax
	xorl	%ecx, %ecx
	cmpq	$0, %rdx
	cmoveq	%rcx, %rax
	cmpq	$0, %rax
	jne	LBB89_57
Ltmp797:
	.loc	46 176 22 is_stmt 0
	jmp	LBB89_32
LBB89_57:
	.loc	46 0 22
	movq	-3072(%rbp), %rax
	movq	-3080(%rbp), %rcx
Ltmp798:
	.loc	46 176 22
	movq	-2584(%rbp), %rsi
	movq	%rsi, -3472(%rbp)
	movq	-2576(%rbp), %rdx
	movq	%rdx, -3464(%rbp)
	movq	%rsi, -696(%rbp)
	movq	%rdx, -688(%rbp)
Ltmp799:
	.loc	46 176 22
	movq	%rcx, -680(%rbp)
	movq	%rax, -672(%rbp)
Ltmp800:
	.loc	34 137 23 is_stmt 1
	movq	%rcx, -664(%rbp)
	movq	%rax, -656(%rbp)
Ltmp801:
	.loc	5 98 14
	movq	%rcx, -2064(%rbp)
	movq	%rax, -2056(%rbp)
	movq	-2056(%rbp), %rcx
	movq	%rcx, -648(%rbp)
Ltmp802:
	.loc	46 176 22
	movq	-2808(%rbp), %rsi
	movq	-2800(%rbp), %rdx
Ltmp611:
	leaq	l___unnamed_17(%rip), %r8
	leaq	-2568(%rbp), %rdi
	callq	__ZN4core5slice29_$LT$impl$u20$$u5b$T$u5d$$GT$12split_at_mut17h181195129892fc64E
Ltmp612:
	jmp	LBB89_58
LBB89_58:
	.loc	46 0 22 is_stmt 0
	movq	-3072(%rbp), %rcx
	movq	-3080(%rbp), %rdx
	.loc	46 176 22
	movq	-2568(%rbp), %rdi
	movq	-2560(%rbp), %rsi
	movq	%rdi, -640(%rbp)
	movq	%rsi, -632(%rbp)
	movq	-2552(%rbp), %r8
	movq	%r8, -3488(%rbp)
	movq	-2544(%rbp), %rax
	movq	%rax, -3480(%rbp)
	movq	%r8, -624(%rbp)
	movq	%rax, -616(%rbp)
Ltmp613:
Ltmp803:
	.loc	46 176 22
	leaq	l___unnamed_17(%rip), %r8
	callq	__ZN4core5slice29_$LT$impl$u20$$u5b$T$u5d$$GT$15copy_from_slice17h5c0917fb64ab4755E
Ltmp614:
	jmp	LBB89_59
LBB89_59:
	.loc	46 0 22
	movq	-3464(%rbp), %rsi
	movq	-3472(%rbp), %rdi
	movq	-3480(%rbp), %rax
	movq	-3488(%rbp), %rcx
	.loc	46 176 22
	movq	%rcx, -2808(%rbp)
	movq	%rax, -2800(%rbp)
Ltmp615:
	callq	__ZN51_$LT$T$u20$as$u20$core..borrow..Borrow$LT$T$GT$$GT$6borrow17he4c566df6a136e70E
Ltmp616:
	movq	%rdx, -3504(%rbp)
	movq	%rax, -3496(%rbp)
	jmp	LBB89_60
LBB89_60:
	.loc	46 0 22
	movq	-3504(%rbp), %rax
	movq	-3496(%rbp), %rcx
	.loc	46 176 22
	movq	%rcx, %rdx
	movq	%rdx, -3520(%rbp)
	movq	%rax, %rdx
	movq	%rdx, -3512(%rbp)
	movq	%rcx, -608(%rbp)
	movq	%rax, -600(%rbp)
Ltmp804:
	.loc	43 794 9 is_stmt 1
	movq	%rcx, -592(%rbp)
	movq	%rax, -584(%rbp)
Ltmp805:
	.loc	46 176 22
	movq	%rcx, -576(%rbp)
	movq	%rax, -568(%rbp)
Ltmp806:
	.loc	34 137 23
	movq	%rcx, -560(%rbp)
	movq	%rax, -552(%rbp)
Ltmp807:
	.loc	5 98 14
	movq	%rcx, -2048(%rbp)
	movq	%rax, -2040(%rbp)
	movq	-2040(%rbp), %rcx
	movq	%rcx, -544(%rbp)
Ltmp808:
	.loc	46 176 22
	movq	-2808(%rbp), %rsi
	movq	-2800(%rbp), %rdx
Ltmp617:
	leaq	l___unnamed_17(%rip), %r8
	leaq	-2536(%rbp), %rdi
	callq	__ZN4core5slice29_$LT$impl$u20$$u5b$T$u5d$$GT$12split_at_mut17h181195129892fc64E
Ltmp618:
	jmp	LBB89_61
LBB89_61:
	.loc	46 0 22 is_stmt 0
	movq	-3512(%rbp), %rcx
	movq	-3520(%rbp), %rdx
	.loc	46 176 22
	movq	-2536(%rbp), %rdi
	movq	-2528(%rbp), %rsi
	movq	%rdi, -536(%rbp)
	movq	%rsi, -528(%rbp)
	movq	-2520(%rbp), %r8
	movq	%r8, -3536(%rbp)
	movq	-2512(%rbp), %rax
	movq	%rax, -3528(%rbp)
	movq	%r8, -520(%rbp)
	movq	%rax, -512(%rbp)
Ltmp619:
Ltmp809:
	.loc	46 176 22
	leaq	l___unnamed_17(%rip), %r8
	callq	__ZN4core5slice29_$LT$impl$u20$$u5b$T$u5d$$GT$15copy_from_slice17h5c0917fb64ab4755E
Ltmp620:
	jmp	LBB89_62
LBB89_62:
	.loc	46 0 22
	movq	-3528(%rbp), %rax
	movq	-3536(%rbp), %rcx
	.loc	46 176 22
	movq	%rcx, -2808(%rbp)
	movq	%rax, -2800(%rbp)
Ltmp810:
	.loc	46 176 22
	jmp	LBB89_53
Ltmp811:
LBB89_63:
	.loc	46 0 22
	leaq	-2696(%rbp), %rdi
Ltmp812:
	.loc	46 176 22
	movq	%rdi, -488(%rbp)
Ltmp621:
Ltmp813:
	.loc	1 103 9 is_stmt 1
	callq	__ZN91_$LT$core..slice..iter..Iter$LT$T$GT$$u20$as$u20$core..iter..traits..iterator..Iterator$GT$4next17h063a0e35635e2885E
Ltmp622:
	movq	%rax, -3544(%rbp)
	jmp	LBB89_64
LBB89_64:
Ltmp623:
	.loc	1 0 9 is_stmt 0
	movq	-3544(%rbp), %rdi
	leaq	-2696(%rbp), %rsi
	.loc	1 103 9
	callq	__ZN4core6option15Option$LT$T$GT$3map17h71b8f405f32effc2E
Ltmp624:
	movq	%rdx, -3560(%rbp)
	movq	%rax, -3552(%rbp)
	jmp	LBB89_65
LBB89_65:
	.loc	1 0 9
	movq	-3560(%rbp), %rax
	movq	-3552(%rbp), %rcx
	.loc	1 103 9
	movq	%rcx, -2680(%rbp)
	movq	%rax, -2672(%rbp)
Ltmp814:
	.loc	46 176 22 is_stmt 1
	movq	-2680(%rbp), %rdx
	movl	$1, %eax
	xorl	%ecx, %ecx
	cmpq	$0, %rdx
	cmoveq	%rcx, %rax
	cmpq	$0, %rax
	jne	LBB89_67
Ltmp815:
	.loc	46 176 22 is_stmt 0
	jmp	LBB89_32
LBB89_67:
	.loc	46 0 22
	movq	-3072(%rbp), %rax
	movq	-3080(%rbp), %rcx
Ltmp816:
	.loc	46 176 22
	movq	-2680(%rbp), %rsi
	movq	%rsi, -3576(%rbp)
	movq	-2672(%rbp), %rdx
	movq	%rdx, -3568(%rbp)
	movq	%rsi, -480(%rbp)
	movq	%rdx, -472(%rbp)
Ltmp817:
	.loc	46 176 22
	movq	%rcx, -464(%rbp)
	movq	%rax, -456(%rbp)
Ltmp818:
	.loc	34 137 23 is_stmt 1
	movq	%rcx, -448(%rbp)
	movq	%rax, -440(%rbp)
Ltmp819:
	.loc	5 98 14
	movq	%rcx, -2096(%rbp)
	movq	%rax, -2088(%rbp)
	movq	-2088(%rbp), %rcx
	movq	%rcx, -432(%rbp)
Ltmp820:
	.loc	46 176 22
	movq	-2808(%rbp), %rsi
	movq	-2800(%rbp), %rdx
Ltmp625:
	leaq	l___unnamed_17(%rip), %r8
	leaq	-2664(%rbp), %rdi
	callq	__ZN4core5slice29_$LT$impl$u20$$u5b$T$u5d$$GT$12split_at_mut17h181195129892fc64E
Ltmp626:
	jmp	LBB89_68
LBB89_68:
	.loc	46 0 22 is_stmt 0
	movq	-3072(%rbp), %rcx
	movq	-3080(%rbp), %rdx
	.loc	46 176 22
	movq	-2664(%rbp), %rdi
	movq	-2656(%rbp), %rsi
	movq	%rdi, -424(%rbp)
	movq	%rsi, -416(%rbp)
	movq	-2648(%rbp), %r8
	movq	%r8, -3592(%rbp)
	movq	-2640(%rbp), %rax
	movq	%rax, -3584(%rbp)
	movq	%r8, -408(%rbp)
	movq	%rax, -400(%rbp)
Ltmp627:
Ltmp821:
	.loc	46 176 22
	leaq	l___unnamed_17(%rip), %r8
	callq	__ZN4core5slice29_$LT$impl$u20$$u5b$T$u5d$$GT$15copy_from_slice17h5c0917fb64ab4755E
Ltmp628:
	jmp	LBB89_69
LBB89_69:
	.loc	46 0 22
	movq	-3568(%rbp), %rsi
	movq	-3576(%rbp), %rdi
	movq	-3584(%rbp), %rax
	movq	-3592(%rbp), %rcx
	.loc	46 176 22
	movq	%rcx, -2808(%rbp)
	movq	%rax, -2800(%rbp)
Ltmp629:
	callq	__ZN51_$LT$T$u20$as$u20$core..borrow..Borrow$LT$T$GT$$GT$6borrow17he4c566df6a136e70E
Ltmp630:
	movq	%rdx, -3608(%rbp)
	movq	%rax, -3600(%rbp)
	jmp	LBB89_70
LBB89_70:
	.loc	46 0 22
	movq	-3608(%rbp), %rax
	movq	-3600(%rbp), %rcx
	.loc	46 176 22
	movq	%rcx, %rdx
	movq	%rdx, -3624(%rbp)
	movq	%rax, %rdx
	movq	%rdx, -3616(%rbp)
	movq	%rcx, -392(%rbp)
	movq	%rax, -384(%rbp)
Ltmp822:
	.loc	43 794 9 is_stmt 1
	movq	%rcx, -376(%rbp)
	movq	%rax, -368(%rbp)
Ltmp823:
	.loc	46 176 22
	movq	%rcx, -360(%rbp)
	movq	%rax, -352(%rbp)
Ltmp824:
	.loc	34 137 23
	movq	%rcx, -344(%rbp)
	movq	%rax, -336(%rbp)
Ltmp825:
	.loc	5 98 14
	movq	%rcx, -2080(%rbp)
	movq	%rax, -2072(%rbp)
	movq	-2072(%rbp), %rcx
	movq	%rcx, -328(%rbp)
Ltmp826:
	.loc	46 176 22
	movq	-2808(%rbp), %rsi
	movq	-2800(%rbp), %rdx
Ltmp631:
	leaq	l___unnamed_17(%rip), %r8
	leaq	-2632(%rbp), %rdi
	callq	__ZN4core5slice29_$LT$impl$u20$$u5b$T$u5d$$GT$12split_at_mut17h181195129892fc64E
Ltmp632:
	jmp	LBB89_71
LBB89_71:
	.loc	46 0 22 is_stmt 0
	movq	-3616(%rbp), %rcx
	movq	-3624(%rbp), %rdx
	.loc	46 176 22
	movq	-2632(%rbp), %rdi
	movq	-2624(%rbp), %rsi
	movq	%rdi, -320(%rbp)
	movq	%rsi, -312(%rbp)
	movq	-2616(%rbp), %r8
	movq	%r8, -3640(%rbp)
	movq	-2608(%rbp), %rax
	movq	%rax, -3632(%rbp)
	movq	%r8, -304(%rbp)
	movq	%rax, -296(%rbp)
Ltmp633:
Ltmp827:
	.loc	46 176 22
	leaq	l___unnamed_17(%rip), %r8
	callq	__ZN4core5slice29_$LT$impl$u20$$u5b$T$u5d$$GT$15copy_from_slice17h5c0917fb64ab4755E
Ltmp634:
	jmp	LBB89_72
LBB89_72:
	.loc	46 0 22
	movq	-3632(%rbp), %rax
	movq	-3640(%rbp), %rcx
	.loc	46 176 22
	movq	%rcx, -2808(%rbp)
	movq	%rax, -2800(%rbp)
Ltmp828:
	.loc	46 176 22
	jmp	LBB89_63
Ltmp829:
LBB89_73:
	.loc	46 0 22
	leaq	-2792(%rbp), %rdi
Ltmp830:
	.loc	46 176 22
	movq	%rdi, -272(%rbp)
Ltmp635:
Ltmp831:
	.loc	1 103 9 is_stmt 1
	callq	__ZN91_$LT$core..slice..iter..Iter$LT$T$GT$$u20$as$u20$core..iter..traits..iterator..Iterator$GT$4next17h063a0e35635e2885E
Ltmp636:
	movq	%rax, -3648(%rbp)
	jmp	LBB89_74
LBB89_74:
Ltmp637:
	.loc	1 0 9 is_stmt 0
	movq	-3648(%rbp), %rdi
	leaq	-2792(%rbp), %rsi
	.loc	1 103 9
	callq	__ZN4core6option15Option$LT$T$GT$3map17h71b8f405f32effc2E
Ltmp638:
	movq	%rdx, -3664(%rbp)
	movq	%rax, -3656(%rbp)
	jmp	LBB89_75
LBB89_75:
	.loc	1 0 9
	movq	-3664(%rbp), %rax
	movq	-3656(%rbp), %rcx
	.loc	1 103 9
	movq	%rcx, -2776(%rbp)
	movq	%rax, -2768(%rbp)
Ltmp832:
	.loc	46 176 22 is_stmt 1
	movq	-2776(%rbp), %rdx
	movl	$1, %eax
	xorl	%ecx, %ecx
	cmpq	$0, %rdx
	cmoveq	%rcx, %rax
	cmpq	$0, %rax
	jne	LBB89_77
Ltmp833:
	.loc	46 176 22 is_stmt 0
	jmp	LBB89_32
LBB89_77:
	.loc	46 0 22
	movq	-3072(%rbp), %rax
	movq	-3080(%rbp), %rcx
Ltmp834:
	.loc	46 176 22
	movq	-2776(%rbp), %rsi
	movq	%rsi, -3680(%rbp)
	movq	-2768(%rbp), %rdx
	movq	%rdx, -3672(%rbp)
	movq	%rsi, -264(%rbp)
	movq	%rdx, -256(%rbp)
Ltmp835:
	.loc	46 176 22
	movq	%rcx, -248(%rbp)
	movq	%rax, -240(%rbp)
Ltmp836:
	.loc	34 137 23 is_stmt 1
	movq	%rcx, -232(%rbp)
	movq	%rax, -224(%rbp)
Ltmp837:
	.loc	5 98 14
	movq	%rcx, -2128(%rbp)
	movq	%rax, -2120(%rbp)
	movq	-2120(%rbp), %rcx
	movq	%rcx, -216(%rbp)
Ltmp838:
	.loc	46 176 22
	movq	-2808(%rbp), %rsi
	movq	-2800(%rbp), %rdx
Ltmp639:
	leaq	l___unnamed_17(%rip), %r8
	leaq	-2760(%rbp), %rdi
	callq	__ZN4core5slice29_$LT$impl$u20$$u5b$T$u5d$$GT$12split_at_mut17h181195129892fc64E
Ltmp640:
	jmp	LBB89_78
LBB89_78:
	.loc	46 0 22 is_stmt 0
	movq	-3072(%rbp), %rcx
	movq	-3080(%rbp), %rdx
	.loc	46 176 22
	movq	-2760(%rbp), %rdi
	movq	-2752(%rbp), %rsi
	movq	%rdi, -208(%rbp)
	movq	%rsi, -200(%rbp)
	movq	-2744(%rbp), %r8
	movq	%r8, -3696(%rbp)
	movq	-2736(%rbp), %rax
	movq	%rax, -3688(%rbp)
	movq	%r8, -192(%rbp)
	movq	%rax, -184(%rbp)
Ltmp641:
Ltmp839:
	.loc	46 176 22
	leaq	l___unnamed_17(%rip), %r8
	callq	__ZN4core5slice29_$LT$impl$u20$$u5b$T$u5d$$GT$15copy_from_slice17h5c0917fb64ab4755E
Ltmp642:
	jmp	LBB89_79
LBB89_79:
	.loc	46 0 22
	movq	-3672(%rbp), %rsi
	movq	-3680(%rbp), %rdi
	movq	-3688(%rbp), %rax
	movq	-3696(%rbp), %rcx
	.loc	46 176 22
	movq	%rcx, -2808(%rbp)
	movq	%rax, -2800(%rbp)
Ltmp643:
	callq	__ZN51_$LT$T$u20$as$u20$core..borrow..Borrow$LT$T$GT$$GT$6borrow17he4c566df6a136e70E
Ltmp644:
	movq	%rdx, -3712(%rbp)
	movq	%rax, -3704(%rbp)
	jmp	LBB89_80
LBB89_80:
	.loc	46 0 22
	movq	-3712(%rbp), %rax
	movq	-3704(%rbp), %rcx
	.loc	46 176 22
	movq	%rcx, %rdx
	movq	%rdx, -3728(%rbp)
	movq	%rax, %rdx
	movq	%rdx, -3720(%rbp)
	movq	%rcx, -176(%rbp)
	movq	%rax, -168(%rbp)
Ltmp840:
	.loc	43 794 9 is_stmt 1
	movq	%rcx, -160(%rbp)
	movq	%rax, -152(%rbp)
Ltmp841:
	.loc	46 176 22
	movq	%rcx, -144(%rbp)
	movq	%rax, -136(%rbp)
Ltmp842:
	.loc	34 137 23
	movq	%rcx, -128(%rbp)
	movq	%rax, -120(%rbp)
Ltmp843:
	.loc	5 98 14
	movq	%rcx, -2112(%rbp)
	movq	%rax, -2104(%rbp)
	movq	-2104(%rbp), %rcx
	movq	%rcx, -112(%rbp)
Ltmp844:
	.loc	46 176 22
	movq	-2808(%rbp), %rsi
	movq	-2800(%rbp), %rdx
Ltmp645:
	leaq	l___unnamed_17(%rip), %r8
	leaq	-2728(%rbp), %rdi
	callq	__ZN4core5slice29_$LT$impl$u20$$u5b$T$u5d$$GT$12split_at_mut17h181195129892fc64E
Ltmp646:
	jmp	LBB89_81
LBB89_81:
	.loc	46 0 22 is_stmt 0
	movq	-3720(%rbp), %rcx
	movq	-3728(%rbp), %rdx
	.loc	46 176 22
	movq	-2728(%rbp), %rdi
	movq	-2720(%rbp), %rsi
	movq	%rdi, -104(%rbp)
	movq	%rsi, -96(%rbp)
	movq	-2712(%rbp), %r8
	movq	%r8, -3744(%rbp)
	movq	-2704(%rbp), %rax
	movq	%rax, -3736(%rbp)
	movq	%r8, -88(%rbp)
	movq	%rax, -80(%rbp)
Ltmp647:
Ltmp845:
	.loc	46 176 22
	leaq	l___unnamed_17(%rip), %r8
	callq	__ZN4core5slice29_$LT$impl$u20$$u5b$T$u5d$$GT$15copy_from_slice17h5c0917fb64ab4755E
Ltmp648:
	jmp	LBB89_82
LBB89_82:
	.loc	46 0 22
	movq	-3736(%rbp), %rax
	movq	-3744(%rbp), %rcx
	.loc	46 176 22
	movq	%rcx, -2808(%rbp)
	movq	%rax, -2800(%rbp)
Ltmp846:
	.loc	46 176 22
	jmp	LBB89_73
Ltmp847:
LBB89_83:
Ltmp666:
	.loc	46 129 1 is_stmt 1
	callq	__ZN4core9panicking19panic_cannot_unwind17h1fbca7e1d7f56ae1E
LBB89_84:
	movq	-1680(%rbp), %rdi
	callq	__Unwind_Resume
LBB89_85:
	.loc	46 0 1 is_stmt 0
	movq	-2912(%rbp), %rax
	.loc	46 185 2 is_stmt 1
	addq	$3744, %rsp
	popq	%rbp
	retq
Ltmp848:
Lfunc_end89:
	.cfi_endproc
	.p2align	2, 0x90
	.data_region jt32
.set L89_0_set_17, LBB89_17-LJTI89_0
.set L89_0_set_18, LBB89_18-LJTI89_0
.set L89_0_set_19, LBB89_19-LJTI89_0
.set L89_0_set_20, LBB89_20-LJTI89_0
.set L89_0_set_21, LBB89_21-LJTI89_0
LJTI89_0:
	.long	L89_0_set_17
	.long	L89_0_set_18
	.long	L89_0_set_19
	.long	L89_0_set_20
	.long	L89_0_set_21
	.end_data_region
	.file	47 "/rustc/2c8cc343237b8f7d5a3c3703e3a87f2eb2c54a74/library/alloc/src" "macros.rs"
	.section	__TEXT,__gcc_except_tab
	.p2align	2
GCC_except_table89:
Lexception11:
	.byte	255
	.byte	255
	.byte	1
	.uleb128 Lcst_end11-Lcst_begin11
Lcst_begin11:
	.uleb128 Lfunc_begin89-Lfunc_begin89
	.uleb128 Ltmp567-Lfunc_begin89
	.byte	0
	.byte	0
	.uleb128 Ltmp567-Lfunc_begin89
	.uleb128 Ltmp568-Ltmp567
	.uleb128 Ltmp663-Lfunc_begin89
	.byte	0
	.uleb128 Ltmp664-Lfunc_begin89
	.uleb128 Ltmp665-Ltmp664
	.uleb128 Ltmp666-Lfunc_begin89
	.byte	0
	.uleb128 Ltmp569-Lfunc_begin89
	.uleb128 Ltmp648-Ltmp569
	.uleb128 Ltmp663-Lfunc_begin89
	.byte	0
	.uleb128 Ltmp648-Lfunc_begin89
	.uleb128 Lfunc_end89-Ltmp648
	.byte	0
	.byte	0
Lcst_end11:
	.p2align	2

	.section	__TEXT,__text,regular,pure_instructions
	.p2align	4, 0x90
__ZN5alloc3str17join_generic_copy28_$u7b$$u7b$closure$u7d$$u7d$17h33b631a3cc2bfc44E:
Lfunc_begin90:
	.loc	46 168 0
	.cfi_startproc
	pushq	%rbp
	.cfi_def_cfa_offset 16
	.cfi_offset %rbp, -16
	movq	%rsp, %rbp
	.cfi_def_cfa_register %rbp
	subq	$160, %rsp
	movq	%rsi, -152(%rbp)
	movq	%rdi, %rax
	movq	-152(%rbp), %rdi
	movq	%rax, -112(%rbp)
	movq	%rdi, -104(%rbp)
Ltmp849:
	.loc	46 169 22 prologue_end
	callq	__ZN55_$LT$$RF$T$u20$as$u20$core..borrow..Borrow$LT$T$GT$$GT$6borrow17hd1c308553c4629ffE
	movq	%rax, %rdi
	movq	%rdx, %rsi
	callq	__ZN4core3str74_$LT$impl$u20$core..convert..AsRef$LT$$u5b$u8$u5d$$GT$$u20$for$u20$str$GT$6as_ref17hc7a01e7d068cbb9aE
	movq	%rax, -96(%rbp)
	movq	%rdx, -88(%rbp)
Ltmp850:
	.loc	46 170 41
	movq	%rax, -80(%rbp)
	movq	%rdx, -72(%rbp)
Ltmp851:
	.loc	34 477 9
	movq	%rax, -64(%rbp)
Ltmp852:
	.loc	3 61 9
	movq	%rax, -56(%rbp)
Ltmp853:
	.loc	46 170 61
	movq	%rdx, -48(%rbp)
Ltmp854:
	.loc	36 100 37
	movq	%rax, -40(%rbp)
	.loc	36 100 43 is_stmt 0
	movq	%rdx, -32(%rbp)
Ltmp855:
	.loc	4 734 20 is_stmt 1
	movq	%rax, -24(%rbp)
Ltmp856:
	.loc	3 61 9
	movq	%rax, -16(%rbp)
Ltmp857:
	.loc	4 734 33
	movq	%rdx, -8(%rbp)
Ltmp858:
	.loc	5 118 36
	movq	%rax, -128(%rbp)
	movq	%rdx, -120(%rbp)
	.loc	5 118 14 is_stmt 0
	movq	-128(%rbp), %rcx
	movq	-120(%rbp), %rax
	movq	%rcx, -144(%rbp)
	movq	%rax, -136(%rbp)
	movq	-144(%rbp), %rax
	movq	-136(%rbp), %rdx
Ltmp859:
	.loc	46 171 10 is_stmt 1
	addq	$160, %rsp
	popq	%rbp
	retq
Ltmp860:
Lfunc_end90:
	.cfi_endproc

	.p2align	4, 0x90
__ZN5alloc3str17join_generic_copy28_$u7b$$u7b$closure$u7d$$u7d$17h9c7729858765c42dE:
Lfunc_begin91:
	.loc	46 150 0
	.cfi_startproc
	pushq	%rbp
	.cfi_def_cfa_offset 16
	.cfi_offset %rbp, -16
	movq	%rsp, %rbp
	.cfi_def_cfa_register %rbp
	subq	$96, %rsp
	movq	%rdx, -88(%rbp)
	movq	%rdi, -80(%rbp)
	movq	%rsi, -72(%rbp)
	movq	%rdx, -48(%rbp)
Ltmp861:
	.loc	46 151 13 prologue_end
	movq	-80(%rbp), %rdi
	movq	-72(%rbp), %rsi
	movq	%rdi, -32(%rbp)
	movq	%rsi, -24(%rbp)
Ltmp862:
	.loc	34 742 9
	callq	__ZN4core5slice4iter13Iter$LT$T$GT$3new17hce4b46714288f86cE
	movq	%rax, %rdi
	movq	%rdx, %rsi
	movq	%rdi, -16(%rbp)
	movq	%rsi, -8(%rbp)
Ltmp863:
	.loc	31 787 9
	callq	__ZN4core4iter8adapters3map16Map$LT$I$C$F$GT$3new17he7829fd9504ce69fE
	movq	-88(%rbp), %rsi
	movq	%rdx, -56(%rbp)
	movq	%rax, -64(%rbp)
	leaq	-64(%rbp), %rdi
Ltmp864:
	.loc	46 151 13
	callq	__ZN102_$LT$core..iter..adapters..map..Map$LT$I$C$F$GT$$u20$as$u20$core..iter..traits..iterator..Iterator$GT$8try_fold17ha526c89c463c1de1E
	.loc	46 152 10
	addq	$96, %rsp
	popq	%rbp
	retq
Ltmp865:
Lfunc_end91:
	.cfi_endproc

	.p2align	4, 0x90
__ZN5alloc3str17join_generic_copy28_$u7b$$u7b$closure$u7d$$u7d$28_$u7b$$u7b$closure$u7d$$u7d$17h297644da3c5a7090E:
Lfunc_begin92:
	.loc	46 151 0
	.cfi_startproc
	pushq	%rbp
	.cfi_def_cfa_offset 16
	.cfi_offset %rbp, -16
	movq	%rsp, %rbp
	.cfi_def_cfa_register %rbp
	subq	$32, %rsp
	movq	%rsi, -24(%rbp)
	movq	%rdi, %rax
	movq	-24(%rbp), %rdi
	movq	%rax, -16(%rbp)
	movq	%rdi, -8(%rbp)
Ltmp866:
	.loc	46 151 34 prologue_end
	callq	__ZN55_$LT$$RF$T$u20$as$u20$core..borrow..Borrow$LT$T$GT$$GT$6borrow17hd1c308553c4629ffE
	movq	%rax, %rdi
	movq	%rdx, %rsi
	callq	__ZN4core3str74_$LT$impl$u20$core..convert..AsRef$LT$$u5b$u8$u5d$$GT$$u20$for$u20$str$GT$6as_ref17hc7a01e7d068cbb9aE
	movq	%rdx, %rax
	.loc	46 151 59 is_stmt 0
	addq	$32, %rsp
	popq	%rbp
	retq
Ltmp867:
Lfunc_end92:
	.cfi_endproc

	.p2align	4, 0x90
__ZN5alloc3str75_$LT$impl$u20$alloc..slice..Join$LT$$RF$str$GT$$u20$for$u20$$u5b$S$u5d$$GT$4join17hb0a76c5784fc8fb2E:
Lfunc_begin93:
	.loc	46 74 0 is_stmt 1
	.cfi_startproc
	pushq	%rbp
	.cfi_def_cfa_offset 16
	.cfi_offset %rbp, -16
	movq	%rsp, %rbp
	.cfi_def_cfa_register %rbp
	subq	$128, %rsp
	movq	%rdi, -128(%rbp)
	movq	%rdi, -120(%rbp)
	movq	%rsi, -64(%rbp)
	movq	%rdx, -56(%rbp)
	movq	%rcx, -48(%rbp)
	movq	%r8, -40(%rbp)
Ltmp868:
	.loc	46 75 71 prologue_end
	movq	%rcx, -32(%rbp)
	movq	%r8, -24(%rbp)
Ltmp869:
	.loc	24 327 18
	movq	%rcx, -16(%rbp)
	movq	%r8, -8(%rbp)
	movq	-16(%rbp), %rcx
	movq	-8(%rbp), %r8
Ltmp870:
	.loc	46 75 46
	leaq	-112(%rbp), %rdi
	callq	__ZN5alloc3str17join_generic_copy17hd50c39d89b23a5adE
	movq	-128(%rbp), %rdi
	movq	-120(%rbp), %rax
Ltmp871:
	.file	48 "/rustc/2c8cc343237b8f7d5a3c3703e3a87f2eb2c54a74/library/alloc/src" "string.rs"
	.loc	48 846 23
	movq	-112(%rbp), %rcx
	movq	%rcx, -88(%rbp)
	movq	-104(%rbp), %rcx
	movq	%rcx, -80(%rbp)
	movq	-96(%rbp), %rcx
	movq	%rcx, -72(%rbp)
	.loc	48 846 9 is_stmt 0
	movq	-88(%rbp), %rcx
	movq	%rcx, (%rdi)
	movq	-80(%rbp), %rcx
	movq	%rcx, 8(%rdi)
	movq	-72(%rbp), %rcx
	movq	%rcx, 16(%rdi)
Ltmp872:
	.loc	46 76 6 is_stmt 1
	addq	$128, %rsp
	popq	%rbp
	retq
Ltmp873:
Lfunc_end93:
	.cfi_endproc

	.p2align	4, 0x90
__ZN5alloc3vec16Vec$LT$T$C$A$GT$15append_elements17h231917bd8d27a428E:
Lfunc_begin94:
	.loc	8 1950 0
	.cfi_startproc
	pushq	%rbp
	.cfi_def_cfa_offset 16
	.cfi_offset %rbp, -16
	movq	%rsp, %rbp
	.cfi_def_cfa_register %rbp
	subq	$224, %rsp
	movq	%rdx, -224(%rbp)
	movq	%rsi, %rax
	movq	-224(%rbp), %rsi
	movq	%rdi, -200(%rbp)
	movq	%rax, -216(%rbp)
	movq	%rsi, -208(%rbp)
	movq	%rdi, -184(%rbp)
	movq	%rax, -176(%rbp)
	movq	%rsi, -168(%rbp)
Ltmp874:
	.loc	8 1951 30 prologue_end
	movq	%rsi, -160(%rbp)
Ltmp875:
	.loc	8 1952 9
	callq	__ZN5alloc3vec16Vec$LT$T$C$A$GT$7reserve17he226ea91b8853793E
	movq	-216(%rbp), %rsi
	movq	-208(%rbp), %rdx
	movq	-200(%rbp), %rdi
	.loc	8 1953 19
	movq	%rdi, -152(%rbp)
Ltmp876:
	.loc	8 2062 9
	movq	16(%rdi), %rcx
	movq	%rcx, -144(%rbp)
Ltmp877:
	.loc	8 1954 43
	movq	%rsi, -136(%rbp)
	.loc	8 1954 62 is_stmt 0
	movq	%rdi, -128(%rbp)
Ltmp878:
	.loc	8 1280 19 is_stmt 1
	movq	%rdi, -120(%rbp)
Ltmp879:
	.loc	11 224 9
	movq	8(%rdi), %rax
	movq	%rax, -112(%rbp)
Ltmp880:
	.loc	12 104 9
	movq	%rax, -104(%rbp)
Ltmp881:
	.loc	13 326 9
	movq	%rax, -96(%rbp)
Ltmp882:
	.loc	8 1282 21
	movq	%rax, -88(%rbp)
Ltmp883:
	.loc	6 52 36
	movq	%rax, -192(%rbp)
	.loc	6 52 18 is_stmt 0
	movq	-192(%rbp), %rdi
	movq	%rdi, -80(%rbp)
Ltmp884:
	.loc	6 38 13 is_stmt 1
	movq	%rdi, -72(%rbp)
Ltmp885:
	.loc	6 215 33
	movq	%rdi, -64(%rbp)
	.loc	6 215 18 is_stmt 0
	movq	%rdi, -56(%rbp)
Ltmp886:
	.loc	8 1954 84 is_stmt 1
	movq	%rcx, -48(%rbp)
Ltmp887:
	.loc	6 1034 18
	movq	%rax, -40(%rbp)
	.loc	6 1034 30 is_stmt 0
	movq	%rcx, -32(%rbp)
Ltmp888:
	.loc	6 487 18 is_stmt 1
	addq	%rcx, %rax
	movq	%rax, -24(%rbp)
	movq	-24(%rbp), %rdi
	movq	%rdi, -16(%rbp)
Ltmp889:
	.loc	8 1954 90
	movq	%rdx, -8(%rbp)
Ltmp890:
	.loc	35 2372 9
	shlq	$0, %rdx
	callq	_memcpy
	movq	-208(%rbp), %rdx
	movq	-200(%rbp), %rdi
Ltmp891:
	.loc	8 1955 9
	addq	16(%rdi), %rdx
	movq	%rdx, 16(%rdi)
Ltmp892:
	.loc	8 1956 6
	addq	$224, %rsp
	popq	%rbp
	retq
Ltmp893:
Lfunc_end94:
	.cfi_endproc

	.p2align	4, 0x90
__ZN5alloc3vec16Vec$LT$T$C$A$GT$16extend_desugared17hca6ed6f81efccf98E:
Lfunc_begin95:
	.loc	8 2845 0
	.cfi_startproc
	.cfi_personality 155, _rust_eh_personality
	.cfi_lsda 16, Lexception12
	pushq	%rbp
	.cfi_def_cfa_offset 16
	.cfi_offset %rbp, -16
	movq	%rsp, %rbp
	.cfi_def_cfa_register %rbp
	subq	$384, %rsp
	movq	%rdi, -320(%rbp)
	movq	%rsi, -312(%rbp)
Ltmp902:
	movq	%rdi, -232(%rbp)
Ltmp903:
LBB95_1:
Ltmp894:
	movq	-312(%rbp), %rdi
Ltmp904:
	.loc	8 2853 35 prologue_end
	callq	__ZN90_$LT$core..str..iter..Split$LT$P$GT$$u20$as$u20$core..iter..traits..iterator..Iterator$GT$4next17hbd819a0d44b9663dE
Ltmp895:
	movq	%rdx, -336(%rbp)
	movq	%rax, -328(%rbp)
	jmp	LBB95_4
Ltmp905:
LBB95_2:
	.loc	8 2845 5
	movq	-224(%rbp), %rdi
	callq	__Unwind_Resume
Ltmp906:
LBB95_3:
Ltmp896:
	.loc	8 0 5 is_stmt 0
	movq	%rax, %rcx
	movl	%edx, %eax
	movq	%rcx, -224(%rbp)
	movl	%eax, -216(%rbp)
	jmp	LBB95_2
Ltmp907:
LBB95_4:
	movq	-336(%rbp), %rax
	movq	-328(%rbp), %rcx
Ltmp908:
	.loc	8 2853 35 is_stmt 1
	movq	%rcx, -304(%rbp)
	movq	%rax, -296(%rbp)
	.loc	8 2853 19 is_stmt 0
	movq	-304(%rbp), %rdx
	movl	$1, %eax
	xorl	%ecx, %ecx
	cmpq	$0, %rdx
	cmoveq	%rcx, %rax
	cmpq	$1, %rax
	jne	LBB95_6
Ltmp909:
	.loc	8 0 19
	movq	-320(%rbp), %rax
	.loc	8 2853 24
	movq	-304(%rbp), %rdx
	movq	%rdx, -360(%rbp)
	movq	-296(%rbp), %rcx
	movq	%rcx, -352(%rbp)
	movq	%rdx, -208(%rbp)
	movq	%rcx, -200(%rbp)
	.loc	8 2854 23 is_stmt 1
	movq	%rax, -192(%rbp)
Ltmp910:
	.loc	8 2062 9
	movq	16(%rax), %rcx
	movq	%rcx, -344(%rbp)
	movq	%rcx, -184(%rbp)
Ltmp911:
	.loc	8 2855 23
	movq	%rax, -176(%rbp)
Ltmp912:
	.loc	8 889 9
	movq	%rax, -168(%rbp)
Ltmp913:
	.loc	11 232 12
	xorl	%eax, %eax
	testb	$1, %al
	jne	LBB95_9
	jmp	LBB95_8
Ltmp914:
LBB95_6:
	.loc	8 2853 9
	jmp	LBB95_7
Ltmp915:
LBB95_7:
	.loc	8 2867 6
	addq	$384, %rsp
	popq	%rbp
	retq
Ltmp916:
LBB95_8:
	.loc	8 0 6 is_stmt 0
	movq	-320(%rbp), %rax
Ltmp917:
	.loc	11 232 44 is_stmt 1
	movq	(%rax), %rax
	movq	%rax, -288(%rbp)
	.loc	11 232 9 is_stmt 0
	jmp	LBB95_10
Ltmp918:
LBB95_9:
	.loc	11 232 24
	movq	$-1, -288(%rbp)
Ltmp919:
LBB95_10:
	.loc	11 0 24
	movq	-344(%rbp), %rax
	.loc	8 2855 16 is_stmt 1
	cmpq	-288(%rbp), %rax
	je	LBB95_12
Ltmp920:
LBB95_11:
	.loc	8 0 16 is_stmt 0
	movq	-320(%rbp), %rax
	.loc	8 2860 28 is_stmt 1
	movq	%rax, -136(%rbp)
Ltmp921:
	.loc	8 1280 19
	movq	%rax, -128(%rbp)
Ltmp922:
	.loc	11 224 9
	movq	8(%rax), %rax
	movq	%rax, -368(%rbp)
	movq	%rax, -120(%rbp)
Ltmp923:
	.loc	12 104 9
	movq	%rax, -112(%rbp)
Ltmp924:
	.loc	13 326 9
	movq	%rax, -104(%rbp)
Ltmp925:
	.loc	8 1282 21
	movq	%rax, -96(%rbp)
Ltmp926:
	.loc	6 52 36
	movq	%rax, -240(%rbp)
	.loc	6 52 18 is_stmt 0
	movq	-240(%rbp), %rax
	movq	%rax, -88(%rbp)
Ltmp927:
	.loc	6 38 13 is_stmt 1
	movq	%rax, -80(%rbp)
Ltmp928:
	.loc	6 215 33
	movq	%rax, -72(%rbp)
	.loc	6 215 18 is_stmt 0
	movq	%rax, -64(%rbp)
	movq	-64(%rbp), %rax
	jmp	LBB95_18
Ltmp929:
LBB95_12:
Ltmp897:
	.loc	6 0 18
	movq	-312(%rbp), %rsi
	leaq	-280(%rbp), %rdi
	.loc	8 2856 34 is_stmt 1
	callq	__ZN4core4iter6traits8iterator8Iterator9size_hint17hc376477498e4f25eE
Ltmp898:
	jmp	LBB95_15
Ltmp930:
LBB95_13:
	.loc	8 2866 9
	movb	$1, %al
	testb	$1, %al
	jne	LBB95_20
	jmp	LBB95_2
Ltmp931:
LBB95_14:
Ltmp901:
	.loc	8 0 9 is_stmt 0
	movq	%rax, %rcx
	movl	%edx, %eax
	movq	%rcx, -224(%rbp)
	movl	%eax, -216(%rbp)
	jmp	LBB95_13
Ltmp932:
LBB95_15:
	.loc	8 2856 22 is_stmt 1
	movq	-280(%rbp), %rax
	movq	%rax, -160(%rbp)
Ltmp933:
	.loc	8 2857 30
	movq	%rax, -152(%rbp)
Ltmp934:
	.loc	9 1022 13
	incq	%rax
	movq	$-1, %rcx
	cmoveq	%rcx, %rax
	movq	%rax, -144(%rbp)
	movq	-144(%rbp), %rax
	movq	%rax, -376(%rbp)
Ltmp935:
Ltmp899:
	.loc	9 0 13 is_stmt 0
	movq	-376(%rbp), %rsi
	movq	-320(%rbp), %rdi
	.loc	8 2857 17 is_stmt 1
	callq	__ZN5alloc3vec16Vec$LT$T$C$A$GT$7reserve17hb21d16dddb9c4452E
Ltmp900:
	jmp	LBB95_17
Ltmp936:
LBB95_17:
	.loc	8 2855 13
	jmp	LBB95_11
Ltmp937:
LBB95_18:
	.loc	8 0 13 is_stmt 0
	movq	-368(%rbp), %rax
	movq	-344(%rbp), %rcx
	.loc	8 2860 50 is_stmt 1
	movq	%rcx, -56(%rbp)
Ltmp938:
	.loc	6 1034 18
	movq	%rax, -48(%rbp)
	.loc	6 1034 30 is_stmt 0
	movq	%rcx, -40(%rbp)
Ltmp939:
	.loc	6 487 18 is_stmt 1
	shlq	$4, %rcx
	addq	%rcx, %rax
	movq	%rax, -32(%rbp)
	movq	-32(%rbp), %rax
	movq	%rax, -384(%rbp)
Ltmp940:
	.loc	6 0 18 is_stmt 0
	movq	-320(%rbp), %rax
	movq	-344(%rbp), %rcx
	movq	-384(%rbp), %rdx
	movq	-352(%rbp), %rsi
	movq	-360(%rbp), %rdi
	.loc	6 487 18
	movq	%rdx, -24(%rbp)
Ltmp941:
	.loc	8 2860 56 is_stmt 1
	movq	%rdi, -256(%rbp)
	movq	%rsi, -248(%rbp)
Ltmp942:
	.loc	4 1354 9
	movq	-256(%rbp), %rsi
	movq	%rsi, (%rdx)
	movq	-248(%rbp), %rsi
	movq	%rsi, 8(%rdx)
Ltmp943:
	.loc	8 2864 17
	movq	%rax, -16(%rbp)
	.loc	8 2864 30 is_stmt 0
	addq	$1, %rcx
	movq	%rcx, -8(%rbp)
Ltmp944:
	.loc	8 1377 9 is_stmt 1
	movq	%rcx, 16(%rax)
Ltmp945:
	.loc	8 2853 9
	jmp	LBB95_1
Ltmp946:
LBB95_20:
	.loc	8 2866 9
	jmp	LBB95_2
Ltmp947:
Lfunc_end95:
	.cfi_endproc
	.section	__TEXT,__gcc_except_tab
	.p2align	2
GCC_except_table95:
Lexception12:
	.byte	255
	.byte	255
	.byte	1
	.uleb128 Lcst_end12-Lcst_begin12
Lcst_begin12:
	.uleb128 Ltmp894-Lfunc_begin95
	.uleb128 Ltmp895-Ltmp894
	.uleb128 Ltmp896-Lfunc_begin95
	.byte	0
	.uleb128 Ltmp895-Lfunc_begin95
	.uleb128 Ltmp897-Ltmp895
	.byte	0
	.byte	0
	.uleb128 Ltmp897-Lfunc_begin95
	.uleb128 Ltmp900-Ltmp897
	.uleb128 Ltmp901-Lfunc_begin95
	.byte	0
Lcst_end12:
	.p2align	2

	.section	__TEXT,__text,regular,pure_instructions
	.p2align	4, 0x90
__ZN5alloc3vec16Vec$LT$T$C$A$GT$17extend_from_slice17h24b0c96c5f54ac63E:
Lfunc_begin96:
	.loc	8 2397 0
	.cfi_startproc
	pushq	%rbp
	.cfi_def_cfa_offset 16
	.cfi_offset %rbp, -16
	movq	%rsp, %rbp
	.cfi_def_cfa_register %rbp
	subq	$64, %rsp
	movq	%rdx, -64(%rbp)
	movq	%rsi, %rax
	movq	-64(%rbp), %rsi
	movq	%rax, -56(%rbp)
	movq	%rdi, %rax
	movq	-56(%rbp), %rdi
	movq	%rax, -48(%rbp)
	movq	%rax, -40(%rbp)
	movq	%rdi, -32(%rbp)
	movq	%rsi, -24(%rbp)
Ltmp948:
	.loc	8 2398 26 prologue_end
	movq	%rdi, -16(%rbp)
	movq	%rsi, -8(%rbp)
Ltmp949:
	.loc	34 742 9
	callq	__ZN4core5slice4iter13Iter$LT$T$GT$3new17hca1196f046d0eedaE
	movq	-48(%rbp), %rdi
	movq	%rax, %rsi
Ltmp950:
	.loc	8 2398 9
	callq	__ZN132_$LT$alloc..vec..Vec$LT$T$C$A$GT$$u20$as$u20$alloc..vec..spec_extend..SpecExtend$LT$$RF$T$C$core..slice..iter..Iter$LT$T$GT$$GT$$GT$11spec_extend17h0f8f7dcbbd525a19E
	.loc	8 2399 6
	addq	$64, %rsp
	popq	%rbp
	retq
Ltmp951:
Lfunc_end96:
	.cfi_endproc

	.p2align	4, 0x90
__ZN5alloc3vec16Vec$LT$T$C$A$GT$18spare_capacity_mut17he3bfd8984e760f01E:
Lfunc_begin97:
	.loc	8 2241 0
	.cfi_startproc
	pushq	%rbp
	.cfi_def_cfa_offset 16
	.cfi_offset %rbp, -16
	movq	%rsp, %rbp
	.cfi_def_cfa_register %rbp
	subq	$248, %rsp
	movq	%rdi, -248(%rbp)
	movq	%rdi, -184(%rbp)
Ltmp952:
	.loc	8 2247 17 prologue_end
	movq	%rdi, -176(%rbp)
Ltmp953:
	.loc	8 1280 19
	movq	%rdi, -168(%rbp)
Ltmp954:
	.loc	11 224 9
	movq	8(%rdi), %rax
	movq	%rax, -160(%rbp)
Ltmp955:
	.loc	12 104 9
	movq	%rax, -152(%rbp)
Ltmp956:
	.loc	13 326 9
	movq	%rax, -144(%rbp)
Ltmp957:
	.loc	8 1282 21
	movq	%rax, -136(%rbp)
Ltmp958:
	.loc	6 52 36
	movq	%rax, -224(%rbp)
	.loc	6 52 18 is_stmt 0
	movq	-224(%rbp), %rcx
	movq	%rcx, -128(%rbp)
Ltmp959:
	.loc	6 38 13 is_stmt 1
	movq	%rcx, -120(%rbp)
Ltmp960:
	.loc	6 215 33
	movq	%rcx, -112(%rbp)
	.loc	6 215 18 is_stmt 0
	movq	%rcx, -104(%rbp)
Ltmp961:
	.loc	8 2247 39 is_stmt 1
	movq	16(%rdi), %rcx
	movq	%rcx, -96(%rbp)
Ltmp962:
	.loc	6 1034 18
	movq	%rax, -88(%rbp)
	.loc	6 1034 30 is_stmt 0
	movq	%rcx, -80(%rbp)
Ltmp963:
	.loc	6 487 18 is_stmt 1
	addq	%rcx, %rax
	movq	%rax, -72(%rbp)
	movq	-72(%rbp), %rax
	movq	%rax, -240(%rbp)
Ltmp964:
	.loc	8 2247 17
	movq	%rax, -64(%rbp)
	.loc	8 2248 17
	movq	%rdi, -56(%rbp)
Ltmp965:
	.loc	11 232 12
	xorl	%eax, %eax
	testb	$1, %al
	jne	LBB97_2
	.loc	11 0 12 is_stmt 0
	movq	-248(%rbp), %rax
	.loc	11 232 44
	movq	(%rax), %rax
	movq	%rax, -232(%rbp)
	.loc	11 232 9
	jmp	LBB97_3
LBB97_2:
	.loc	11 232 24
	movq	$-1, -232(%rbp)
Ltmp966:
LBB97_3:
	.loc	11 0 24
	movq	-240(%rbp), %rcx
	movq	-248(%rbp), %rax
	.loc	8 2248 39 is_stmt 1
	movq	16(%rax), %rdx
	.loc	8 2248 17 is_stmt 0
	movq	-232(%rbp), %rax
	subq	%rdx, %rax
	movq	%rax, -48(%rbp)
Ltmp967:
	.loc	36 145 45 is_stmt 1
	movq	%rcx, -40(%rbp)
	.loc	36 145 51 is_stmt 0
	movq	%rax, -32(%rbp)
Ltmp968:
	.loc	4 766 24 is_stmt 1
	movq	%rcx, -24(%rbp)
Ltmp969:
	.loc	6 60 9
	movq	%rcx, -16(%rbp)
Ltmp970:
	.loc	4 766 37
	movq	%rax, -8(%rbp)
Ltmp971:
	.loc	5 135 36
	movq	%rcx, -200(%rbp)
	movq	%rax, -192(%rbp)
	.loc	5 135 14 is_stmt 0
	movq	-200(%rbp), %rcx
	movq	-192(%rbp), %rax
	movq	%rcx, -216(%rbp)
	movq	%rax, -208(%rbp)
	movq	-216(%rbp), %rax
	movq	-208(%rbp), %rdx
Ltmp972:
	.loc	8 2251 6 is_stmt 1
	addq	$248, %rsp
	popq	%rbp
	retq
Ltmp973:
Lfunc_end97:
	.cfi_endproc

	.p2align	4, 0x90
__ZN5alloc3vec16Vec$LT$T$C$A$GT$7reserve17hb21d16dddb9c4452E:
Lfunc_begin98:
	.loc	8 911 0
	.cfi_startproc
	pushq	%rbp
	.cfi_def_cfa_offset 16
	.cfi_offset %rbp, -16
	movq	%rsp, %rbp
	.cfi_def_cfa_register %rbp
	subq	$16, %rsp
	movq	%rsi, %rdx
	movq	%rdi, -16(%rbp)
	movq	%rdx, -8(%rbp)
Ltmp974:
	.loc	8 912 26 prologue_end
	movq	16(%rdi), %rsi
	.loc	8 912 9 is_stmt 0
	callq	__ZN5alloc7raw_vec19RawVec$LT$T$C$A$GT$7reserve17h8528df52e8221b59E
	.loc	8 913 6 is_stmt 1
	addq	$16, %rsp
	popq	%rbp
	retq
Ltmp975:
Lfunc_end98:
	.cfi_endproc

	.p2align	4, 0x90
__ZN5alloc3vec16Vec$LT$T$C$A$GT$7reserve17he226ea91b8853793E:
Lfunc_begin99:
	.loc	8 911 0
	.cfi_startproc
	pushq	%rbp
	.cfi_def_cfa_offset 16
	.cfi_offset %rbp, -16
	movq	%rsp, %rbp
	.cfi_def_cfa_register %rbp
	subq	$16, %rsp
	movq	%rsi, %rdx
	movq	%rdi, -16(%rbp)
	movq	%rdx, -8(%rbp)
Ltmp976:
	.loc	8 912 26 prologue_end
	movq	16(%rdi), %rsi
	.loc	8 912 9 is_stmt 0
	callq	__ZN5alloc7raw_vec19RawVec$LT$T$C$A$GT$7reserve17ha86244f62e6bbd81E
	.loc	8 913 6 is_stmt 1
	addq	$16, %rsp
	popq	%rbp
	retq
Ltmp977:
Lfunc_end99:
	.cfi_endproc

	.p2align	4, 0x90
__ZN5alloc5alloc6Global10alloc_impl17h2d500a986b3305bdE:
Lfunc_begin100:
	.file	49 "/rustc/2c8cc343237b8f7d5a3c3703e3a87f2eb2c54a74/library/alloc/src" "alloc.rs"
	.loc	49 172 0
	.cfi_startproc
	pushq	%rbp
	.cfi_def_cfa_offset 16
	.cfi_offset %rbp, -16
	movq	%rsp, %rbp
	.cfi_def_cfa_register %rbp
	subq	$352, %rsp
	movb	%cl, %al
	movb	%al, -345(%rbp)
	movq	%rsi, -336(%rbp)
	movq	%rdx, -328(%rbp)
	movq	%rdi, -208(%rbp)
	andb	$1, %al
	movb	%al, -193(%rbp)
Ltmp978:
	.loc	49 173 15 prologue_end
	leaq	-336(%rbp), %rax
	movq	%rax, -144(%rbp)
Ltmp979:
	.loc	32 129 9
	movq	-336(%rbp), %rax
	movq	%rax, -344(%rbp)
Ltmp980:
	.loc	49 173 9
	cmpq	$0, %rax
	jne	LBB100_2
	.loc	49 174 51
	leaq	-336(%rbp), %rax
	movq	%rax, -48(%rbp)
Ltmp981:
	.loc	32 216 71
	leaq	-336(%rbp), %rax
	movq	%rax, -40(%rbp)
Ltmp982:
	.loc	32 140 9
	movq	-328(%rbp), %rax
	movq	%rax, -32(%rbp)
Ltmp983:
	.loc	33 97 9
	movq	%rax, -232(%rbp)
	movq	-232(%rbp), %rax
	movq	%rax, -24(%rbp)
Ltmp984:
	.loc	4 599 14
	movq	%rax, -16(%rbp)
	movq	-16(%rbp), %rax
	movq	%rax, -8(%rbp)
Ltmp985:
	.loc	13 201 13
	movq	%rax, -304(%rbp)
Ltmp986:
	.loc	49 174 21
	movq	-304(%rbp), %rdi
	xorl	%eax, %eax
	movl	%eax, %esi
	callq	__ZN4core3ptr8non_null26NonNull$LT$$u5b$T$u5d$$GT$20slice_from_raw_parts17h7f4055cbe686ed7aE
	.loc	49 174 18 is_stmt 0
	movq	%rax, -320(%rbp)
	movq	%rdx, -312(%rbp)
	.loc	49 174 72
	jmp	LBB100_15
LBB100_2:
	.loc	49 0 72
	movb	-345(%rbp), %al
	movq	-344(%rbp), %rcx
	.loc	49 176 13 is_stmt 1
	movq	%rcx, -136(%rbp)
Ltmp987:
	.loc	49 177 34
	testb	$1, %al
	jne	LBB100_4
	.loc	49 177 79 is_stmt 0
	movq	-336(%rbp), %rcx
	movq	-328(%rbp), %rax
	movq	%rcx, -272(%rbp)
	movq	%rax, -264(%rbp)
Ltmp988:
	.loc	49 95 27 is_stmt 1
	leaq	-272(%rbp), %rax
	movq	%rax, -104(%rbp)
Ltmp989:
	.loc	32 129 9
	movq	-272(%rbp), %rdi
Ltmp990:
	.loc	49 95 42
	leaq	-272(%rbp), %rax
	movq	%rax, -96(%rbp)
Ltmp991:
	.loc	32 140 9
	movq	-264(%rbp), %rax
	movq	%rax, -88(%rbp)
Ltmp992:
	.loc	33 97 9
	movq	%rax, -216(%rbp)
	movq	-216(%rbp), %rsi
Ltmp993:
	.loc	49 95 14
	callq	___rust_alloc
	movq	%rax, -296(%rbp)
Ltmp994:
	.loc	49 177 31
	jmp	LBB100_5
LBB100_4:
	.loc	49 177 56 is_stmt 0
	movq	-336(%rbp), %rcx
	movq	-328(%rbp), %rax
	movq	%rcx, -288(%rbp)
	movq	%rax, -280(%rbp)
Ltmp995:
	.loc	49 166 34 is_stmt 1
	leaq	-288(%rbp), %rax
	movq	%rax, -128(%rbp)
Ltmp996:
	.loc	32 129 9
	movq	-288(%rbp), %rdi
Ltmp997:
	.loc	49 166 49
	leaq	-288(%rbp), %rax
	movq	%rax, -120(%rbp)
Ltmp998:
	.loc	32 140 9
	movq	-280(%rbp), %rax
	movq	%rax, -112(%rbp)
Ltmp999:
	.loc	33 97 9
	movq	%rax, -224(%rbp)
	movq	-224(%rbp), %rsi
Ltmp1000:
	.loc	49 166 14
	callq	___rust_alloc_zeroed
	movq	%rax, -296(%rbp)
Ltmp1001:
LBB100_5:
	.loc	49 178 40
	movq	-296(%rbp), %rdi
	.loc	49 178 27 is_stmt 0
	callq	__ZN4core3ptr8non_null16NonNull$LT$T$GT$3new17h099d93d3ba5c7421E
	movq	%rax, -240(%rbp)
Ltmp1002:
	.loc	41 1096 15 is_stmt 1
	movq	-240(%rbp), %rdx
	movl	$1, %eax
	xorl	%ecx, %ecx
	cmpq	$0, %rdx
	cmoveq	%rcx, %rax
	.loc	41 1096 9 is_stmt 0
	cmpq	$0, %rax
	jne	LBB100_7
	.loc	41 1098 21 is_stmt 1
	movq	$0, -248(%rbp)
	.loc	41 1098 28 is_stmt 0
	jmp	LBB100_8
LBB100_7:
	.loc	41 1097 18 is_stmt 1
	movq	-240(%rbp), %rax
	movq	%rax, -80(%rbp)
Ltmp1003:
	.loc	41 1097 24 is_stmt 0
	movq	%rax, -248(%rbp)
Ltmp1004:
LBB100_8:
	.loc	42 2091 15 is_stmt 1
	movq	-248(%rbp), %rdx
	xorl	%eax, %eax
	movl	$1, %ecx
	cmpq	$0, %rdx
	cmoveq	%rcx, %rax
	.loc	42 2091 9 is_stmt 0
	cmpq	$0, %rax
	jne	LBB100_10
	.loc	42 2092 16 is_stmt 1
	movq	-248(%rbp), %rax
	movq	%rax, -72(%rbp)
Ltmp1005:
	.loc	42 2092 22 is_stmt 0
	movq	%rax, -256(%rbp)
Ltmp1006:
	.loc	42 2092 45
	jmp	LBB100_11
LBB100_10:
Ltmp1007:
	.loc	42 2093 23 is_stmt 1
	movq	$0, -256(%rbp)
Ltmp1008:
LBB100_11:
	.loc	49 178 27
	movq	-256(%rbp), %rdx
	xorl	%eax, %eax
	movl	$1, %ecx
	cmpq	$0, %rdx
	cmoveq	%rcx, %rax
	cmpq	$0, %rax
	jne	LBB100_13
	.loc	49 0 27 is_stmt 0
	movq	-344(%rbp), %rsi
	.loc	49 178 27
	movq	-256(%rbp), %rdi
	movq	%rdi, -64(%rbp)
Ltmp1009:
	.loc	49 178 27
	movq	%rdi, -56(%rbp)
Ltmp1010:
	.loc	49 179 20 is_stmt 1
	callq	__ZN4core3ptr8non_null26NonNull$LT$$u5b$T$u5d$$GT$20slice_from_raw_parts17h7f4055cbe686ed7aE
	.loc	49 179 17 is_stmt 0
	movq	%rax, -320(%rbp)
	movq	%rdx, -312(%rbp)
Ltmp1011:
	.loc	49 180 13 is_stmt 1
	jmp	LBB100_15
LBB100_13:
Ltmp1012:
	.loc	42 2107 23
	movq	$0, -320(%rbp)
Ltmp1013:
LBB100_14:
	.loc	49 182 6
	movq	-320(%rbp), %rax
	movq	-312(%rbp), %rdx
	addq	$352, %rsp
	popq	%rbp
	retq
LBB100_15:
	jmp	LBB100_14
Ltmp1014:
Lfunc_end100:
	.cfi_endproc

	.p2align	4, 0x90
__ZN5alloc5alloc6Global9grow_impl17h57bd39c9ac573cb4E:
Lfunc_begin101:
	.loc	49 186 0
	.cfi_startproc
	pushq	%rbp
	.cfi_def_cfa_offset 16
	.cfi_offset %rbp, -16
	movq	%rsp, %rbp
	.cfi_def_cfa_register %rbp
	subq	$736, %rsp
	movq	%rsi, -688(%rbp)
	movq	%rdi, -680(%rbp)
	movb	16(%rbp), %al
	movb	%al, -665(%rbp)
	movq	%rdx, -656(%rbp)
	movq	%rcx, -648(%rbp)
	movq	%r8, -640(%rbp)
	movq	%r9, -632(%rbp)
	movq	%rdi, -504(%rbp)
	movq	%rsi, -496(%rbp)
	andb	$1, %al
	movb	%al, -481(%rbp)
Ltmp1015:
	.loc	49 198 15 prologue_end
	leaq	-656(%rbp), %rax
	movq	%rax, -392(%rbp)
Ltmp1016:
	.loc	32 129 9
	movq	-656(%rbp), %rax
	movq	%rax, -664(%rbp)
Ltmp1017:
	.loc	49 198 9
	cmpq	$0, %rax
	jne	LBB101_2
	.loc	49 0 9 is_stmt 0
	movq	-680(%rbp), %rdi
	movb	-665(%rbp), %al
	.loc	49 199 34 is_stmt 1
	movq	-640(%rbp), %rsi
	movq	-632(%rbp), %rdx
	.loc	49 199 18 is_stmt 0
	movzbl	%al, %ecx
	andl	$1, %ecx
	callq	__ZN5alloc5alloc6Global10alloc_impl17h2d500a986b3305bdE
	movq	%rdx, -616(%rbp)
	movq	%rax, -624(%rbp)
	.loc	49 199 52
	jmp	LBB101_16
LBB101_2:
	.loc	49 203 25 is_stmt 1
	leaq	-656(%rbp), %rax
	movq	%rax, -384(%rbp)
Ltmp1018:
	.loc	32 140 9
	movq	-648(%rbp), %rax
	movq	%rax, -376(%rbp)
Ltmp1019:
	.loc	33 97 9
	movq	%rax, -536(%rbp)
	movq	-536(%rbp), %rax
Ltmp1020:
	.loc	49 203 47
	leaq	-640(%rbp), %rcx
	movq	%rcx, -368(%rbp)
Ltmp1021:
	.loc	32 140 9
	movq	-632(%rbp), %rcx
	movq	%rcx, -360(%rbp)
Ltmp1022:
	.loc	33 97 9
	movq	%rcx, -528(%rbp)
	movq	-528(%rbp), %rcx
Ltmp1023:
	.loc	49 203 25
	cmpq	%rcx, %rax
	je	LBB101_4
	.loc	49 0 25 is_stmt 0
	movq	-680(%rbp), %rdi
	movb	-665(%rbp), %al
	movq	-664(%rbp), %rcx
	.loc	49 222 13 is_stmt 1
	movq	%rcx, -160(%rbp)
Ltmp1024:
	.loc	49 223 47
	movq	-640(%rbp), %rsi
	movq	-632(%rbp), %rdx
	.loc	49 223 31 is_stmt 0
	movzbl	%al, %ecx
	andl	$1, %ecx
	callq	__ZN5alloc5alloc6Global10alloc_impl17h2d500a986b3305bdE
	movq	%rdx, -544(%rbp)
	movq	%rax, -552(%rbp)
Ltmp1025:
	.loc	42 2091 15 is_stmt 1
	movq	-552(%rbp), %rdx
	xorl	%eax, %eax
	movl	$1, %ecx
	cmpq	$0, %rdx
	cmoveq	%rcx, %rax
	.loc	42 2091 9 is_stmt 0
	cmpq	$0, %rax
	je	LBB101_17
	jmp	LBB101_18
Ltmp1026:
LBB101_4:
	.loc	42 0 9
	movq	-688(%rbp), %rdi
	movq	-664(%rbp), %rax
	.loc	49 203 13 is_stmt 1
	movq	%rax, -352(%rbp)
Ltmp1027:
	.loc	49 204 32
	leaq	-640(%rbp), %rax
	movq	%rax, -344(%rbp)
Ltmp1028:
	.loc	32 129 9
	movq	-640(%rbp), %rcx
	movq	%rcx, -704(%rbp)
	movq	%rcx, -336(%rbp)
Ltmp1029:
	.loc	49 207 48
	leaq	-656(%rbp), %rax
	movq	%rax, -328(%rbp)
	.loc	49 209 39
	movq	%rdi, -320(%rbp)
Ltmp1030:
	.loc	13 326 9
	movq	%rdi, -312(%rbp)
Ltmp1031:
	.loc	49 209 53
	movq	-656(%rbp), %rdx
	movq	-648(%rbp), %rax
	movq	%rdx, -608(%rbp)
	movq	%rax, -600(%rbp)
	.loc	49 209 65 is_stmt 0
	movq	%rcx, -304(%rbp)
Ltmp1032:
	.loc	49 132 34 is_stmt 1
	leaq	-608(%rbp), %rax
	movq	%rax, -296(%rbp)
Ltmp1033:
	.loc	32 129 9
	movq	-608(%rbp), %rsi
Ltmp1034:
	.loc	49 132 49
	leaq	-608(%rbp), %rax
	movq	%rax, -288(%rbp)
Ltmp1035:
	.loc	32 140 9
	movq	-600(%rbp), %rax
	movq	%rax, -280(%rbp)
Ltmp1036:
	.loc	33 97 9
	movq	%rax, -520(%rbp)
	movq	-520(%rbp), %rdx
Ltmp1037:
	.loc	49 132 14
	callq	___rust_realloc
	movq	%rax, %rdi
	movq	%rdi, -696(%rbp)
	movq	%rdi, -272(%rbp)
Ltmp1038:
	.loc	49 210 27
	callq	__ZN4core3ptr8non_null16NonNull$LT$T$GT$3new17h099d93d3ba5c7421E
	movq	%rax, -576(%rbp)
Ltmp1039:
	.loc	41 1096 15
	movq	-576(%rbp), %rdx
	movl	$1, %eax
	xorl	%ecx, %ecx
	cmpq	$0, %rdx
	cmoveq	%rcx, %rax
	.loc	41 1096 9 is_stmt 0
	cmpq	$0, %rax
	jne	LBB101_6
	.loc	41 1098 21 is_stmt 1
	movq	$0, -584(%rbp)
	.loc	41 1098 28 is_stmt 0
	jmp	LBB101_7
LBB101_6:
	.loc	41 1097 18 is_stmt 1
	movq	-576(%rbp), %rax
	movq	%rax, -264(%rbp)
Ltmp1040:
	.loc	41 1097 24 is_stmt 0
	movq	%rax, -584(%rbp)
Ltmp1041:
LBB101_7:
	.loc	42 2091 15 is_stmt 1
	movq	-584(%rbp), %rdx
	xorl	%eax, %eax
	movl	$1, %ecx
	cmpq	$0, %rdx
	cmoveq	%rcx, %rax
	.loc	42 2091 9 is_stmt 0
	cmpq	$0, %rax
	jne	LBB101_9
	.loc	42 2092 16 is_stmt 1
	movq	-584(%rbp), %rax
	movq	%rax, -256(%rbp)
Ltmp1042:
	.loc	42 2092 22 is_stmt 0
	movq	%rax, -592(%rbp)
Ltmp1043:
	.loc	42 2092 45
	jmp	LBB101_10
LBB101_9:
Ltmp1044:
	.loc	42 2093 23 is_stmt 1
	movq	$0, -592(%rbp)
Ltmp1045:
LBB101_10:
	.loc	49 210 27
	movq	-592(%rbp), %rdx
	xorl	%eax, %eax
	movl	$1, %ecx
	cmpq	$0, %rdx
	cmoveq	%rcx, %rax
	cmpq	$0, %rax
	jne	LBB101_12
	.loc	49 0 27 is_stmt 0
	movb	-665(%rbp), %al
	.loc	49 210 27
	movq	-592(%rbp), %rcx
	movq	%rcx, -712(%rbp)
	movq	%rcx, -248(%rbp)
Ltmp1046:
	.loc	49 210 27
	movq	%rcx, -240(%rbp)
Ltmp1047:
	.loc	49 211 20 is_stmt 1
	testb	$1, %al
	jne	LBB101_15
	jmp	LBB101_14
Ltmp1048:
LBB101_12:
	.loc	42 2107 23
	movq	$0, -624(%rbp)
Ltmp1049:
LBB101_13:
	.loc	49 229 6
	jmp	LBB101_22
LBB101_14:
	.loc	49 0 6 is_stmt 0
	movq	-704(%rbp), %rsi
	movq	-712(%rbp), %rdi
Ltmp1050:
	.loc	49 214 20 is_stmt 1
	callq	__ZN4core3ptr8non_null26NonNull$LT$$u5b$T$u5d$$GT$20slice_from_raw_parts17h7f4055cbe686ed7aE
	.loc	49 214 17 is_stmt 0
	movq	%rax, -624(%rbp)
	movq	%rdx, -616(%rbp)
Ltmp1051:
	.loc	49 215 13 is_stmt 1
	jmp	LBB101_16
LBB101_15:
	.loc	49 0 13 is_stmt 0
	movq	-664(%rbp), %rax
	movq	-704(%rbp), %rdx
	movq	-696(%rbp), %rcx
Ltmp1052:
	.loc	49 212 21 is_stmt 1
	movq	%rcx, -232(%rbp)
	.loc	49 212 33 is_stmt 0
	movq	%rax, -224(%rbp)
Ltmp1053:
	.loc	6 1034 18 is_stmt 1
	movq	%rcx, -216(%rbp)
	.loc	6 1034 30 is_stmt 0
	movq	%rax, -208(%rbp)
Ltmp1054:
	.loc	6 487 18 is_stmt 1
	addq	%rax, %rcx
	movq	%rcx, -200(%rbp)
	movq	-200(%rbp), %rdi
	movq	%rdi, -192(%rbp)
Ltmp1055:
	.loc	49 212 58
	subq	%rax, %rdx
	movq	%rdx, -184(%rbp)
Ltmp1056:
	.loc	6 1488 30
	movq	%rdi, -176(%rbp)
	.loc	6 1488 41 is_stmt 0
	movq	%rdx, -168(%rbp)
Ltmp1057:
	.loc	35 2529 9 is_stmt 1
	shlq	$0, %rdx
	xorl	%esi, %esi
	callq	_memset
Ltmp1058:
	.loc	49 211 17
	jmp	LBB101_14
Ltmp1059:
LBB101_16:
	.loc	49 229 6
	jmp	LBB101_22
LBB101_17:
Ltmp1060:
	.loc	42 2092 16
	movq	-552(%rbp), %rcx
	movq	-544(%rbp), %rax
	movq	%rcx, -152(%rbp)
	movq	%rax, -144(%rbp)
Ltmp1061:
	.loc	42 2092 22 is_stmt 0
	movq	%rcx, -568(%rbp)
	movq	%rax, -560(%rbp)
Ltmp1062:
	.loc	42 2092 45
	jmp	LBB101_19
LBB101_18:
Ltmp1063:
	.loc	42 2093 23 is_stmt 1
	movq	$0, -568(%rbp)
Ltmp1064:
LBB101_19:
	.loc	49 223 31
	movq	-568(%rbp), %rdx
	xorl	%eax, %eax
	movl	$1, %ecx
	cmpq	$0, %rdx
	cmoveq	%rcx, %rax
	cmpq	$0, %rax
	jne	LBB101_21
	.loc	49 0 31 is_stmt 0
	movq	-688(%rbp), %rsi
	movq	-664(%rbp), %rdx
	.loc	49 223 31
	movq	-568(%rbp), %rax
	movq	%rax, -728(%rbp)
	movq	-560(%rbp), %rcx
	movq	%rcx, -720(%rbp)
	movq	%rax, -136(%rbp)
	movq	%rcx, -128(%rbp)
Ltmp1065:
	.loc	49 223 31
	movq	%rax, -120(%rbp)
	movq	%rcx, -112(%rbp)
Ltmp1066:
	.loc	49 224 42 is_stmt 1
	movq	%rsi, -104(%rbp)
	movq	%rsi, -96(%rbp)
	.loc	49 224 56 is_stmt 0
	movq	%rax, -88(%rbp)
	movq	%rcx, -80(%rbp)
Ltmp1067:
	.loc	13 548 9 is_stmt 1
	movq	%rax, -72(%rbp)
	movq	%rcx, -64(%rbp)
Ltmp1068:
	.loc	13 529 41
	movq	%rax, -56(%rbp)
	movq	%rcx, -48(%rbp)
Ltmp1069:
	.loc	13 326 9
	movq	%rax, -40(%rbp)
	movq	%rcx, -32(%rbp)
Ltmp1070:
	.loc	6 2037 9
	movq	%rax, -24(%rbp)
Ltmp1071:
	.loc	13 201 13
	movq	%rax, -512(%rbp)
Ltmp1072:
	.loc	13 326 9
	movq	-512(%rbp), %rdi
	movq	%rdi, -16(%rbp)
Ltmp1073:
	.loc	49 224 78
	movq	%rdx, -8(%rbp)
Ltmp1074:
	.loc	35 2372 9
	shlq	$0, %rdx
	callq	_memcpy
	movq	-680(%rbp), %rdi
	movq	-688(%rbp), %rsi
Ltmp1075:
	.loc	49 225 38
	movq	-656(%rbp), %rdx
	movq	-648(%rbp), %rcx
	.loc	49 225 17 is_stmt 0
	callq	__ZN63_$LT$alloc..alloc..Global$u20$as$u20$core..alloc..Allocator$GT$10deallocate17h1355adbdd4725853E
	movq	-728(%rbp), %rcx
	movq	-720(%rbp), %rax
	.loc	49 226 17 is_stmt 1
	movq	%rcx, -624(%rbp)
	movq	%rax, -616(%rbp)
Ltmp1076:
	.loc	49 227 13
	jmp	LBB101_16
LBB101_21:
Ltmp1077:
	.loc	42 2107 23
	movq	$0, -624(%rbp)
Ltmp1078:
	.file	50 "/Users/natalie/.cargo/registry/src/github.com-1ecc6299db9ec823/crossbeam-utils-0.8.14" "build.rs"
	.loc	50 1 1
	jmp	LBB101_13
LBB101_22:
	.loc	49 229 6
	movq	-624(%rbp), %rax
	movq	-616(%rbp), %rdx
	addq	$736, %rsp
	popq	%rbp
	retq
Ltmp1079:
Lfunc_end101:
	.cfi_endproc

	.p2align	4, 0x90
__ZN5alloc5slice29_$LT$impl$u20$$u5b$T$u5d$$GT$4join17hdb66559a31462be7E:
Lfunc_begin102:
	.file	51 "/rustc/2c8cc343237b8f7d5a3c3703e3a87f2eb2c54a74/library/alloc/src" "slice.rs"
	.loc	51 576 0
	.cfi_startproc
	pushq	%rbp
	.cfi_def_cfa_offset 16
	.cfi_offset %rbp, -16
	movq	%rsp, %rbp
	.cfi_def_cfa_register %rbp
	subq	$48, %rsp
	movq	%rdi, %rax
	movq	%rax, -40(%rbp)
	movq	%rsi, -32(%rbp)
	movq	%rdx, -24(%rbp)
	movq	%rcx, -16(%rbp)
	movq	%r8, -8(%rbp)
Ltmp1080:
	.loc	51 580 9 prologue_end
	callq	__ZN5alloc3str75_$LT$impl$u20$alloc..slice..Join$LT$$RF$str$GT$$u20$for$u20$$u5b$S$u5d$$GT$4join17hb0a76c5784fc8fb2E
	movq	-40(%rbp), %rax
	.loc	51 581 6
	addq	$48, %rsp
	popq	%rbp
	retq
Ltmp1081:
Lfunc_end102:
	.cfi_endproc

	.p2align	4, 0x90
__ZN5alloc7raw_vec11finish_grow17h734f2831b2a4653dE:
Lfunc_begin103:
	.loc	11 448 0
	.cfi_startproc
	pushq	%rbp
	.cfi_def_cfa_offset 16
	.cfi_offset %rbp, -16
	movq	%rsp, %rbp
	.cfi_def_cfa_register %rbp
	subq	$512, %rsp
	movq	%r8, -504(%rbp)
	movq	%rcx, -496(%rbp)
Ltmp1082:
	movq	%rdi, -488(%rbp)
	movq	%rdi, -480(%rbp)
	movq	%rsi, -240(%rbp)
	movq	%rdx, -232(%rbp)
Ltmp1083:
	movq	%r8, -224(%rbp)
Ltmp1084:
	.loc	11 457 22 prologue_end
	leaq	-432(%rbp), %rdi
	callq	__ZN4core6result19Result$LT$T$C$E$GT$7map_err17h66d7114ba69ae1ceE
Ltmp1085:
	.loc	42 2091 9
	cmpq	$0, -432(%rbp)
Ltmp1086:
	jne	LBB103_2
Ltmp1087:
	.loc	42 2092 16
	movq	-424(%rbp), %rcx
	movq	-416(%rbp), %rax
	movq	%rcx, -184(%rbp)
	movq	%rax, -176(%rbp)
Ltmp1088:
	.loc	42 2092 22 is_stmt 0
	movq	%rcx, -448(%rbp)
	movq	%rax, -440(%rbp)
	movq	$0, -456(%rbp)
Ltmp1089:
	.loc	42 2092 45
	jmp	LBB103_3
Ltmp1090:
LBB103_2:
	.loc	42 2093 17 is_stmt 1
	movq	-424(%rbp), %rcx
	movq	-416(%rbp), %rax
	movq	%rcx, -200(%rbp)
	movq	%rax, -192(%rbp)
Ltmp1091:
	.loc	42 2093 42 is_stmt 0
	movq	%rcx, -304(%rbp)
	movq	%rax, -296(%rbp)
	.loc	42 2093 23
	movq	-304(%rbp), %rcx
	movq	-296(%rbp), %rax
	movq	%rcx, -448(%rbp)
	movq	%rax, -440(%rbp)
	movq	$1, -456(%rbp)
Ltmp1092:
LBB103_3:
	.loc	11 457 22 is_stmt 1
	cmpq	$0, -456(%rbp)
	jne	LBB103_5
Ltmp1093:
	movq	-448(%rbp), %rcx
	movq	-440(%rbp), %rax
	movq	%rcx, -120(%rbp)
	movq	%rax, -112(%rbp)
Ltmp1094:
	.loc	11 457 22 is_stmt 0
	movq	%rcx, -472(%rbp)
	movq	%rax, -464(%rbp)
Ltmp1095:
	.loc	11 509 9 is_stmt 1
	movabsq	$-9223372036854775807, %rax
	movq	%rax, -368(%rbp)
Ltmp1096:
	.loc	42 2091 15
	movabsq	$-9223372036854775807, %rdx
	movl	$1, %eax
	xorl	%ecx, %ecx
	cmpq	%rdx, -368(%rbp)
	cmoveq	%rcx, %rax
	.loc	42 2091 9 is_stmt 0
	cmpq	$0, %rax
	je	LBB103_7
	jmp	LBB103_8
Ltmp1097:
LBB103_5:
	.loc	42 0 9
	movq	-488(%rbp), %rax
	.loc	11 457 62 is_stmt 1
	movq	-448(%rbp), %rdx
	movq	-440(%rbp), %rcx
	movq	%rdx, -168(%rbp)
	movq	%rcx, -160(%rbp)
Ltmp1098:
	.loc	11 457 62 is_stmt 0
	movq	%rdx, -408(%rbp)
	movq	%rcx, -400(%rbp)
Ltmp1099:
	.loc	42 2107 17 is_stmt 1
	movq	-408(%rbp), %rdx
	movq	-400(%rbp), %rcx
	movq	%rdx, -152(%rbp)
	movq	%rcx, -144(%rbp)
Ltmp1100:
	.loc	42 2107 38 is_stmt 0
	movq	%rdx, -136(%rbp)
	movq	%rcx, -128(%rbp)
Ltmp1101:
	.loc	14 117 9 is_stmt 1
	movq	%rdx, -288(%rbp)
	movq	%rcx, -280(%rbp)
Ltmp1102:
	.loc	42 2107 23
	movq	-288(%rbp), %rdx
	movq	-280(%rbp), %rcx
	movq	%rdx, 8(%rax)
	movq	%rcx, 16(%rax)
	movq	$1, (%rax)
Ltmp1103:
LBB103_6:
	.loc	11 473 2
	jmp	LBB103_12
Ltmp1104:
LBB103_7:
	.loc	42 2092 22
	movabsq	$-9223372036854775807, %rax
	movq	%rax, -384(%rbp)
Ltmp1105:
	.loc	42 2092 45 is_stmt 0
	jmp	LBB103_9
Ltmp1106:
LBB103_8:
	.loc	42 2093 17 is_stmt 1
	movq	-376(%rbp), %rcx
	movq	-368(%rbp), %rax
	movq	%rcx, -104(%rbp)
	movq	%rax, -96(%rbp)
Ltmp1107:
	.loc	42 2093 42 is_stmt 0
	movq	%rcx, -272(%rbp)
	movq	%rax, -264(%rbp)
	.loc	42 2093 23
	movq	-272(%rbp), %rcx
	movq	-264(%rbp), %rax
	movq	%rcx, -392(%rbp)
	movq	%rax, -384(%rbp)
Ltmp1108:
LBB103_9:
	.loc	11 459 5 is_stmt 1
	movabsq	$-9223372036854775807, %rdx
	movl	$1, %eax
	xorl	%ecx, %ecx
	cmpq	%rdx, -384(%rbp)
	cmoveq	%rcx, %rax
	cmpq	$0, %rax
	jne	LBB103_11
Ltmp1109:
	.loc	11 0 5 is_stmt 0
	movq	-496(%rbp), %rdx
Ltmp1110:
	.loc	11 461 25 is_stmt 1
	movl	$1, %eax
	xorl	%ecx, %ecx
	cmpq	$0, 16(%rdx)
	cmoveq	%rcx, %rax
	cmpq	$1, %rax
	je	LBB103_13
	jmp	LBB103_14
Ltmp1111:
LBB103_11:
	.loc	11 0 25 is_stmt 0
	movq	-488(%rbp), %rax
	.loc	11 459 35 is_stmt 1
	movq	-392(%rbp), %rdx
	movq	-384(%rbp), %rcx
	movq	%rdx, -88(%rbp)
	movq	%rcx, -80(%rbp)
Ltmp1112:
	.loc	11 459 35 is_stmt 0
	movq	%rdx, -360(%rbp)
	movq	%rcx, -352(%rbp)
Ltmp1113:
	.loc	42 2107 17 is_stmt 1
	movq	-360(%rbp), %rdx
	movq	-352(%rbp), %rcx
	movq	%rdx, -72(%rbp)
	movq	%rcx, -64(%rbp)
Ltmp1114:
	.loc	42 2107 38 is_stmt 0
	movq	%rdx, -56(%rbp)
	movq	%rcx, -48(%rbp)
	.loc	42 2107 23
	movq	%rdx, 8(%rax)
	movq	%rcx, 16(%rax)
	movq	$1, (%rax)
Ltmp1115:
	.loc	50 1 1 is_stmt 1
	jmp	LBB103_6
Ltmp1116:
LBB103_12:
	.loc	50 0 1 is_stmt 0
	movq	-480(%rbp), %rax
	.loc	11 473 2 is_stmt 1
	addq	$512, %rsp
	popq	%rbp
	retq
Ltmp1117:
LBB103_13:
	.loc	11 0 2 is_stmt 0
	movq	-504(%rbp), %rdi
	movq	-496(%rbp), %rax
Ltmp1118:
	.loc	11 461 31 is_stmt 1
	movq	(%rax), %rsi
	movq	%rsi, -40(%rbp)
	.loc	11 461 36 is_stmt 0
	movq	8(%rax), %rcx
	movq	16(%rax), %rax
	movq	%rcx, -328(%rbp)
	movq	%rax, -320(%rbp)
	leaq	-328(%rbp), %rax
	.loc	11 465 32 is_stmt 1
	movq	%rax, -32(%rbp)
Ltmp1119:
	.loc	32 140 9
	movq	-320(%rbp), %rax
	movq	%rax, -24(%rbp)
Ltmp1120:
	.loc	33 97 9
	movq	%rax, -256(%rbp)
	leaq	-472(%rbp), %rax
Ltmp1121:
	.loc	11 465 54
	movq	%rax, -16(%rbp)
Ltmp1122:
	.loc	32 140 9
	movq	-464(%rbp), %rax
	movq	%rax, -8(%rbp)
Ltmp1123:
	.loc	33 97 9
	movq	%rax, -248(%rbp)
Ltmp1124:
	.loc	11 466 29
	movq	-328(%rbp), %rdx
	movq	-320(%rbp), %rcx
	.loc	11 466 41 is_stmt 0
	movq	-472(%rbp), %r8
	movq	-464(%rbp), %r9
	.loc	11 466 13
	callq	__ZN63_$LT$alloc..alloc..Global$u20$as$u20$core..alloc..Allocator$GT$4grow17h89765ec2cbfe4281E
	movq	%rdx, -336(%rbp)
	movq	%rax, -344(%rbp)
Ltmp1125:
	.loc	11 461 18 is_stmt 1
	jmp	LBB103_15
Ltmp1126:
LBB103_14:
	.loc	11 0 18 is_stmt 0
	movq	-504(%rbp), %rdi
	.loc	11 469 24 is_stmt 1
	movq	-472(%rbp), %rsi
	movq	-464(%rbp), %rdx
	.loc	11 469 9 is_stmt 0
	callq	__ZN63_$LT$alloc..alloc..Global$u20$as$u20$core..alloc..Allocator$GT$8allocate17hb2878dadefc45450E
	movq	%rdx, -336(%rbp)
	movq	%rax, -344(%rbp)
Ltmp1127:
LBB103_15:
	.loc	11 0 9
	movq	-488(%rbp), %rdi
Ltmp1128:
	.loc	11 472 5 is_stmt 1
	movq	-344(%rbp), %rsi
	movq	-336(%rbp), %rdx
	.loc	11 472 20 is_stmt 0
	leaq	-472(%rbp), %rax
	movq	%rax, -312(%rbp)
	.loc	11 472 5
	movq	-312(%rbp), %rcx
	callq	__ZN4core6result19Result$LT$T$C$E$GT$7map_err17h3d73e177c38e776aE
Ltmp1129:
	.loc	11 473 2 is_stmt 1
	jmp	LBB103_12
Ltmp1130:
Lfunc_end103:
	.cfi_endproc

	.p2align	4, 0x90
__ZN5alloc7raw_vec11finish_grow28_$u7b$$u7b$closure$u7d$$u7d$17h0327ca5f939c3737E:
Lfunc_begin104:
	.loc	11 457 0
	.cfi_startproc
	pushq	%rbp
	.cfi_def_cfa_offset 16
	.cfi_offset %rbp, -16
	movq	%rsp, %rbp
	.cfi_def_cfa_register %rbp
	subq	$32, %rsp
Ltmp1131:
	.loc	11 457 45 prologue_end
	movq	$0, -24(%rbp)
	.loc	11 457 61 is_stmt 0
	movq	-32(%rbp), %rax
	movq	-24(%rbp), %rdx
	addq	$32, %rsp
	popq	%rbp
	retq
Ltmp1132:
Lfunc_end104:
	.cfi_endproc

	.p2align	4, 0x90
__ZN5alloc7raw_vec11finish_grow28_$u7b$$u7b$closure$u7d$$u7d$17hedd1f7c082c020f6E:
Lfunc_begin105:
	.loc	11 472 0 is_stmt 1
	.cfi_startproc
	pushq	%rbp
	.cfi_def_cfa_offset 16
	.cfi_offset %rbp, -16
	movq	%rsp, %rbp
	.cfi_def_cfa_register %rbp
	subq	$32, %rsp
	movq	%rdi, -32(%rbp)
Ltmp1133:
	.loc	11 472 45 prologue_end
	movq	-32(%rbp), %rax
	movq	(%rax), %rcx
	movq	8(%rax), %rax
	.loc	11 472 24 is_stmt 0
	movq	%rcx, -24(%rbp)
	movq	%rax, -16(%rbp)
	movq	-24(%rbp), %rdi
	movq	-16(%rbp), %rsi
	callq	__ZN50_$LT$T$u20$as$u20$core..convert..Into$LT$U$GT$$GT$4into17h6a1ebccb35bcb224E
	.loc	11 472 84
	addq	$32, %rsp
	popq	%rbp
	retq
Ltmp1134:
Lfunc_end105:
	.cfi_endproc

	.p2align	4, 0x90
__ZN5alloc7raw_vec14handle_reserve17he9c231635e715b60E:
Lfunc_begin106:
	.loc	11 487 0 is_stmt 1
	.cfi_startproc
	pushq	%rbp
	.cfi_def_cfa_offset 16
	.cfi_offset %rbp, -16
	movq	%rsp, %rbp
	.cfi_def_cfa_register %rbp
	subq	$48, %rsp
	movq	%rdi, -32(%rbp)
	movq	%rsi, -24(%rbp)
Ltmp1135:
	.loc	11 488 11 prologue_end
	callq	__ZN4core6result19Result$LT$T$C$E$GT$7map_err17h90f963f2e03ec697E
	movq	%rdx, -40(%rbp)
	movq	%rax, -48(%rbp)
	movabsq	$-9223372036854775807, %rdx
	movl	$1, %eax
	xorl	%ecx, %ecx
	cmpq	%rdx, -40(%rbp)
	cmoveq	%rcx, %rax
	.loc	11 488 5 is_stmt 0
	cmpq	$0, %rax
	jne	LBB106_2
	.loc	11 493 2 is_stmt 1
	addq	$48, %rsp
	popq	%rbp
	retq
LBB106_2:
	.loc	11 488 11
	movl	$1, %eax
	xorl	%ecx, %ecx
	cmpq	$0, -40(%rbp)
	cmoveq	%rcx, %rax
	.loc	11 488 5 is_stmt 0
	cmpq	$0, %rax
	jne	LBB106_4
	.loc	11 489 34 is_stmt 1
	callq	__ZN5alloc7raw_vec17capacity_overflow17h082ee8492f253a0eE
LBB106_4:
	.loc	11 490 26
	movq	-48(%rbp), %rdi
	movq	-40(%rbp), %rsi
	movq	%rdi, -16(%rbp)
	movq	%rsi, -8(%rbp)
Ltmp1136:
	.loc	11 490 43 is_stmt 0
	callq	__ZN5alloc5alloc18handle_alloc_error17hb5f6ff255f23ea4dE
Ltmp1137:
Lfunc_end106:
	.cfi_endproc

	.p2align	4, 0x90
__ZN5alloc7raw_vec14handle_reserve28_$u7b$$u7b$closure$u7d$$u7d$17hd4ffa49453879e44E:
Lfunc_begin107:
	.loc	11 488 0 is_stmt 1
	.cfi_startproc
	pushq	%rbp
	.cfi_def_cfa_offset 16
	.cfi_offset %rbp, -16
	movq	%rsp, %rbp
	.cfi_def_cfa_register %rbp
	subq	$72, %rsp
	movq	%rdi, -72(%rbp)
	movq	%rsi, -64(%rbp)
Ltmp1138:
	.loc	11 488 30 prologue_end
	leaq	-72(%rbp), %rax
	movq	%rax, -32(%rbp)
Ltmp1139:
	.loc	14 75 9
	leaq	-72(%rbp), %rax
	movq	%rax, -24(%rbp)
Ltmp1140:
	.loc	14 80 10
	movl	$1, %eax
	xorl	%ecx, %ecx
	cmpq	$0, -64(%rbp)
	cmoveq	%rcx, %rax
	cmpq	$0, %rax
	jne	LBB107_2
	movq	$0, -48(%rbp)
	jmp	LBB107_3
LBB107_2:
	.loc	14 94 9
	leaq	-72(%rbp), %rax
	movq	%rax, -16(%rbp)
Ltmp1141:
	.loc	14 94 9 is_stmt 0
	leaq	-72(%rbp), %rax
	movq	%rax, -8(%rbp)
Ltmp1142:
	.loc	32 36 16 is_stmt 1
	movq	-72(%rbp), %rcx
	movq	-64(%rbp), %rax
Ltmp1143:
	.loc	14 80 10
	movq	%rcx, -56(%rbp)
	movq	%rax, -48(%rbp)
Ltmp1144:
LBB107_3:
	.loc	11 488 38
	movq	-56(%rbp), %rax
	movq	-48(%rbp), %rdx
	addq	$72, %rsp
	popq	%rbp
	retq
Ltmp1145:
Lfunc_end107:
	.cfi_endproc

	.p2align	4, 0x90
__ZN5alloc7raw_vec19RawVec$LT$T$C$A$GT$11allocate_in17h72e9cfdf7487b43bE:
Lfunc_begin108:
	.loc	11 169 0
	.cfi_startproc
	.cfi_personality 155, _rust_eh_personality
	.cfi_lsda 16, Lexception13
	pushq	%rbp
	.cfi_def_cfa_offset 16
	.cfi_offset %rbp, -16
	movq	%rsp, %rbp
	.cfi_def_cfa_register %rbp
	subq	$384, %rsp
	movq	%rdi, -296(%rbp)
	movb	%sil, %al
	andb	$1, %al
	movb	%al, -281(%rbp)
	movq	%rdi, -168(%rbp)
Ltmp1161:
	.loc	11 171 12 prologue_end
	movb	$1, -177(%rbp)
	xorl	%eax, %eax
	testb	$1, %al
	jne	LBB108_2
	.loc	11 0 12 is_stmt 0
	movq	-296(%rbp), %rax
	.loc	11 171 25
	cmpq	$0, %rax
	sete	%al
	.loc	11 171 12
	andb	$1, %al
	movb	%al, -249(%rbp)
	jmp	LBB108_3
LBB108_2:
	movb	$1, -249(%rbp)
LBB108_3:
	testb	$1, -249(%rbp)
	jne	LBB108_5
	.loc	11 0 12
	movq	-296(%rbp), %rax
	.loc	11 176 51 is_stmt 1
	movq	%rax, -144(%rbp)
Ltmp1162:
	.loc	27 459 5
	movq	$1, -136(%rbp)
Ltmp1163:
	.loc	33 89 18
	movq	$1, -128(%rbp)
	movq	-128(%rbp), %rax
	movq	%rax, -304(%rbp)
	jmp	LBB108_10
Ltmp1164:
LBB108_5:
	.loc	11 172 26
	movb	$0, -177(%rbp)
Ltmp1158:
	.loc	11 172 13 is_stmt 0
	callq	__ZN5alloc7raw_vec19RawVec$LT$T$C$A$GT$6new_in17hb1ef584c066e08a2E
Ltmp1159:
	movq	%rdx, -320(%rbp)
	movq	%rax, -312(%rbp)
	jmp	LBB108_8
LBB108_6:
	.loc	11 202 5 is_stmt 1
	testb	$1, -177(%rbp)
	jne	LBB108_25
	jmp	LBB108_24
LBB108_7:
Ltmp1160:
	.loc	11 0 5 is_stmt 0
	movq	%rax, %rcx
	movl	%edx, %eax
	movq	%rcx, -160(%rbp)
	movl	%eax, -152(%rbp)
	jmp	LBB108_6
LBB108_8:
	movq	-320(%rbp), %rax
	movq	-312(%rbp), %rcx
	.loc	11 172 13 is_stmt 1
	movq	%rcx, -272(%rbp)
	movq	%rax, -264(%rbp)
LBB108_9:
	.loc	11 202 6
	movq	-272(%rbp), %rax
	movq	-264(%rbp), %rdx
	addq	$384, %rsp
	popq	%rbp
	retq
LBB108_10:
Ltmp1146:
	.loc	11 0 6 is_stmt 0
	movq	-296(%rbp), %rdx
	movq	-304(%rbp), %rsi
	movl	$1, %edi
Ltmp1165:
	.loc	32 438 16 is_stmt 1
	callq	__ZN4core5alloc6layout6Layout5array5inner17hced92133ccec7f8eE
Ltmp1147:
	movq	%rdx, -336(%rbp)
	movq	%rax, -328(%rbp)
	jmp	LBB108_11
LBB108_11:
	.loc	32 0 16 is_stmt 0
	movq	-336(%rbp), %rax
	movq	-328(%rbp), %rcx
	.loc	32 438 16
	movq	%rcx, -248(%rbp)
	movq	%rax, -240(%rbp)
Ltmp1166:
	.loc	11 176 32 is_stmt 1
	xorl	%eax, %eax
	movl	$1, %ecx
	cmpq	$0, -240(%rbp)
	cmoveq	%rcx, %rax
	.loc	11 176 26 is_stmt 0
	cmpq	$0, %rax
	jne	LBB108_13
	.loc	11 177 20 is_stmt 1
	movq	-248(%rbp), %rcx
	movq	%rcx, -352(%rbp)
	movq	-240(%rbp), %rax
	movq	%rax, -344(%rbp)
	movq	%rcx, -120(%rbp)
	movq	%rax, -112(%rbp)
Ltmp1167:
	.loc	11 177 31 is_stmt 0
	movq	%rcx, -104(%rbp)
	movq	%rax, -96(%rbp)
Ltmp1168:
	.loc	11 509 9 is_stmt 1
	movabsq	$-9223372036854775807, %rax
	movq	%rax, -224(%rbp)
Ltmp1169:
	.loc	11 180 19
	movabsq	$-9223372036854775807, %rdx
	movl	$1, %eax
	xorl	%ecx, %ecx
	cmpq	%rdx, -224(%rbp)
	cmoveq	%rcx, %rax
	.loc	11 180 13 is_stmt 0
	cmpq	$0, %rax
	je	LBB108_15
	jmp	LBB108_16
Ltmp1170:
LBB108_13:
Ltmp1148:
	.loc	11 178 27 is_stmt 1
	callq	__ZN5alloc7raw_vec17capacity_overflow17h082ee8492f253a0eE
Ltmp1149:
	jmp	LBB108_14
LBB108_14:
	.loc	11 0 27 is_stmt 0
	ud2
LBB108_15:
Ltmp1171:
	.loc	11 184 32 is_stmt 1
	movb	-281(%rbp), %al
	andb	$1, %al
	movzbl	%al, %eax
	.loc	11 184 26 is_stmt 0
	cmpq	$0, %rax
	je	LBB108_17
	jmp	LBB108_18
LBB108_16:
Ltmp1150:
	.loc	11 182 27 is_stmt 1
	callq	__ZN5alloc7raw_vec17capacity_overflow17h082ee8492f253a0eE
Ltmp1151:
	jmp	LBB108_14
LBB108_17:
Ltmp1154:
	.loc	11 0 27 is_stmt 0
	movq	-344(%rbp), %rdx
	movq	-352(%rbp), %rsi
	leaq	-280(%rbp), %rdi
	.loc	11 185 45 is_stmt 1
	callq	__ZN63_$LT$alloc..alloc..Global$u20$as$u20$core..alloc..Allocator$GT$8allocate17hb2878dadefc45450E
Ltmp1155:
	movq	%rdx, -368(%rbp)
	movq	%rax, -360(%rbp)
	jmp	LBB108_21
LBB108_18:
Ltmp1152:
	.loc	11 0 45 is_stmt 0
	movq	-344(%rbp), %rdx
	movq	-352(%rbp), %rsi
	leaq	-280(%rbp), %rdi
	.loc	11 186 38 is_stmt 1
	callq	__ZN63_$LT$alloc..alloc..Global$u20$as$u20$core..alloc..Allocator$GT$15allocate_zeroed17h3f82bc6599c67a9aE
Ltmp1153:
	movq	%rdx, -384(%rbp)
	movq	%rax, -376(%rbp)
	jmp	LBB108_19
LBB108_19:
	.loc	11 0 38 is_stmt 0
	movq	-384(%rbp), %rax
	movq	-376(%rbp), %rcx
	.loc	11 186 38
	movq	%rcx, -216(%rbp)
	movq	%rax, -208(%rbp)
LBB108_20:
Ltmp1172:
	.loc	11 188 29 is_stmt 1
	movq	-216(%rbp), %rdx
	xorl	%eax, %eax
	movl	$1, %ecx
	cmpq	$0, %rdx
	cmoveq	%rcx, %rax
	.loc	11 188 23 is_stmt 0
	cmpq	$0, %rax
	je	LBB108_22
	jmp	LBB108_23
Ltmp1173:
LBB108_21:
	.loc	11 0 23
	movq	-368(%rbp), %rax
	movq	-360(%rbp), %rcx
	.loc	11 185 45 is_stmt 1
	movq	%rcx, -216(%rbp)
	movq	%rax, -208(%rbp)
	.loc	11 185 66 is_stmt 0
	jmp	LBB108_20
LBB108_22:
	.loc	11 0 66
	movq	-296(%rbp), %rax
Ltmp1174:
	.loc	11 189 20 is_stmt 1
	movq	-216(%rbp), %rcx
	movq	-208(%rbp), %rdx
	movq	%rcx, -88(%rbp)
	movq	%rdx, -80(%rbp)
Ltmp1175:
	.loc	11 189 28 is_stmt 0
	movq	%rcx, -72(%rbp)
	movq	%rdx, -64(%rbp)
Ltmp1176:
	.loc	11 197 53 is_stmt 1
	movq	%rcx, -56(%rbp)
	movq	%rdx, -48(%rbp)
Ltmp1177:
	.loc	13 450 41
	movq	%rcx, -40(%rbp)
	movq	%rdx, -32(%rbp)
	movq	%rcx, -24(%rbp)
Ltmp1178:
	.loc	13 201 13
	movq	%rcx, -192(%rbp)
Ltmp1179:
	.loc	13 326 9
	movq	-192(%rbp), %rcx
	movq	%rcx, -16(%rbp)
Ltmp1180:
	.loc	12 87 59
	movq	%rcx, -8(%rbp)
Ltmp1181:
	.loc	13 201 13
	movq	%rcx, -176(%rbp)
Ltmp1182:
	.loc	12 87 18
	movq	-176(%rbp), %rcx
	movq	%rcx, -200(%rbp)
Ltmp1183:
	.loc	11 196 13
	movq	-200(%rbp), %rcx
	movq	%rcx, -264(%rbp)
	movq	%rax, -272(%rbp)
Ltmp1184:
	.loc	11 171 9
	jmp	LBB108_9
LBB108_23:
Ltmp1156:
	.loc	11 0 9 is_stmt 0
	movq	-344(%rbp), %rsi
	movq	-352(%rbp), %rdi
Ltmp1185:
	.loc	11 190 27 is_stmt 1
	callq	__ZN5alloc5alloc18handle_alloc_error17hb5f6ff255f23ea4dE
Ltmp1157:
	jmp	LBB108_14
Ltmp1186:
LBB108_24:
	.loc	11 169 5
	movq	-160(%rbp), %rdi
	callq	__Unwind_Resume
LBB108_25:
	.loc	11 202 5
	jmp	LBB108_24
Ltmp1187:
Lfunc_end108:
	.cfi_endproc
	.section	__TEXT,__gcc_except_tab
	.p2align	2
GCC_except_table108:
Lexception13:
	.byte	255
	.byte	255
	.byte	1
	.uleb128 Lcst_end13-Lcst_begin13
Lcst_begin13:
	.uleb128 Ltmp1158-Lfunc_begin108
	.uleb128 Ltmp1157-Ltmp1158
	.uleb128 Ltmp1160-Lfunc_begin108
	.byte	0
	.uleb128 Ltmp1157-Lfunc_begin108
	.uleb128 Lfunc_end108-Ltmp1157
	.byte	0
	.byte	0
Lcst_end13:
	.p2align	2

	.section	__TEXT,__text,regular,pure_instructions
	.p2align	4, 0x90
__ZN5alloc7raw_vec19RawVec$LT$T$C$A$GT$11allocate_in17h730149a92dda4bd6E:
Lfunc_begin109:
	.loc	11 169 0
	.cfi_startproc
	.cfi_personality 155, _rust_eh_personality
	.cfi_lsda 16, Lexception14
	pushq	%rbp
	.cfi_def_cfa_offset 16
	.cfi_offset %rbp, -16
	movq	%rsp, %rbp
	.cfi_def_cfa_register %rbp
	subq	$384, %rsp
	movq	%rdi, -296(%rbp)
	movb	%sil, %al
	andb	$1, %al
	movb	%al, -281(%rbp)
	movq	%rdi, -168(%rbp)
Ltmp1203:
	.loc	11 171 12 prologue_end
	movb	$1, -177(%rbp)
	xorl	%eax, %eax
	testb	$1, %al
	jne	LBB109_2
	.loc	11 0 12 is_stmt 0
	movq	-296(%rbp), %rax
	.loc	11 171 25
	cmpq	$0, %rax
	sete	%al
	.loc	11 171 12
	andb	$1, %al
	movb	%al, -249(%rbp)
	jmp	LBB109_3
LBB109_2:
	movb	$1, -249(%rbp)
LBB109_3:
	testb	$1, -249(%rbp)
	jne	LBB109_5
	.loc	11 0 12
	movq	-296(%rbp), %rax
	.loc	11 176 51 is_stmt 1
	movq	%rax, -144(%rbp)
Ltmp1204:
	.loc	27 459 5
	movq	$8, -136(%rbp)
Ltmp1205:
	.loc	33 89 18
	movq	$8, -128(%rbp)
	movq	-128(%rbp), %rax
	movq	%rax, -304(%rbp)
	jmp	LBB109_10
Ltmp1206:
LBB109_5:
	.loc	11 172 26
	movb	$0, -177(%rbp)
Ltmp1200:
	.loc	11 172 13 is_stmt 0
	callq	__ZN5alloc7raw_vec19RawVec$LT$T$C$A$GT$6new_in17hda4fd4221ee8d16fE
Ltmp1201:
	movq	%rdx, -320(%rbp)
	movq	%rax, -312(%rbp)
	jmp	LBB109_8
LBB109_6:
	.loc	11 202 5 is_stmt 1
	testb	$1, -177(%rbp)
	jne	LBB109_25
	jmp	LBB109_24
LBB109_7:
Ltmp1202:
	.loc	11 0 5 is_stmt 0
	movq	%rax, %rcx
	movl	%edx, %eax
	movq	%rcx, -160(%rbp)
	movl	%eax, -152(%rbp)
	jmp	LBB109_6
LBB109_8:
	movq	-320(%rbp), %rax
	movq	-312(%rbp), %rcx
	.loc	11 172 13 is_stmt 1
	movq	%rcx, -272(%rbp)
	movq	%rax, -264(%rbp)
LBB109_9:
	.loc	11 202 6
	movq	-272(%rbp), %rax
	movq	-264(%rbp), %rdx
	addq	$384, %rsp
	popq	%rbp
	retq
LBB109_10:
Ltmp1188:
	.loc	11 0 6 is_stmt 0
	movq	-296(%rbp), %rdx
	movq	-304(%rbp), %rsi
	movl	$16, %edi
Ltmp1207:
	.loc	32 438 16 is_stmt 1
	callq	__ZN4core5alloc6layout6Layout5array5inner17hced92133ccec7f8eE
Ltmp1189:
	movq	%rdx, -336(%rbp)
	movq	%rax, -328(%rbp)
	jmp	LBB109_11
LBB109_11:
	.loc	32 0 16 is_stmt 0
	movq	-336(%rbp), %rax
	movq	-328(%rbp), %rcx
	.loc	32 438 16
	movq	%rcx, -248(%rbp)
	movq	%rax, -240(%rbp)
Ltmp1208:
	.loc	11 176 32 is_stmt 1
	xorl	%eax, %eax
	movl	$1, %ecx
	cmpq	$0, -240(%rbp)
	cmoveq	%rcx, %rax
	.loc	11 176 26 is_stmt 0
	cmpq	$0, %rax
	jne	LBB109_13
	.loc	11 177 20 is_stmt 1
	movq	-248(%rbp), %rcx
	movq	%rcx, -352(%rbp)
	movq	-240(%rbp), %rax
	movq	%rax, -344(%rbp)
	movq	%rcx, -120(%rbp)
	movq	%rax, -112(%rbp)
Ltmp1209:
	.loc	11 177 31 is_stmt 0
	movq	%rcx, -104(%rbp)
	movq	%rax, -96(%rbp)
Ltmp1210:
	.loc	11 509 9 is_stmt 1
	movabsq	$-9223372036854775807, %rax
	movq	%rax, -224(%rbp)
Ltmp1211:
	.loc	11 180 19
	movabsq	$-9223372036854775807, %rdx
	movl	$1, %eax
	xorl	%ecx, %ecx
	cmpq	%rdx, -224(%rbp)
	cmoveq	%rcx, %rax
	.loc	11 180 13 is_stmt 0
	cmpq	$0, %rax
	je	LBB109_15
	jmp	LBB109_16
Ltmp1212:
LBB109_13:
Ltmp1190:
	.loc	11 178 27 is_stmt 1
	callq	__ZN5alloc7raw_vec17capacity_overflow17h082ee8492f253a0eE
Ltmp1191:
	jmp	LBB109_14
LBB109_14:
	.loc	11 0 27 is_stmt 0
	ud2
LBB109_15:
Ltmp1213:
	.loc	11 184 32 is_stmt 1
	movb	-281(%rbp), %al
	andb	$1, %al
	movzbl	%al, %eax
	.loc	11 184 26 is_stmt 0
	cmpq	$0, %rax
	je	LBB109_17
	jmp	LBB109_18
LBB109_16:
Ltmp1192:
	.loc	11 182 27 is_stmt 1
	callq	__ZN5alloc7raw_vec17capacity_overflow17h082ee8492f253a0eE
Ltmp1193:
	jmp	LBB109_14
LBB109_17:
Ltmp1196:
	.loc	11 0 27 is_stmt 0
	movq	-344(%rbp), %rdx
	movq	-352(%rbp), %rsi
	leaq	-280(%rbp), %rdi
	.loc	11 185 45 is_stmt 1
	callq	__ZN63_$LT$alloc..alloc..Global$u20$as$u20$core..alloc..Allocator$GT$8allocate17hb2878dadefc45450E
Ltmp1197:
	movq	%rdx, -368(%rbp)
	movq	%rax, -360(%rbp)
	jmp	LBB109_21
LBB109_18:
Ltmp1194:
	.loc	11 0 45 is_stmt 0
	movq	-344(%rbp), %rdx
	movq	-352(%rbp), %rsi
	leaq	-280(%rbp), %rdi
	.loc	11 186 38 is_stmt 1
	callq	__ZN63_$LT$alloc..alloc..Global$u20$as$u20$core..alloc..Allocator$GT$15allocate_zeroed17h3f82bc6599c67a9aE
Ltmp1195:
	movq	%rdx, -384(%rbp)
	movq	%rax, -376(%rbp)
	jmp	LBB109_19
LBB109_19:
	.loc	11 0 38 is_stmt 0
	movq	-384(%rbp), %rax
	movq	-376(%rbp), %rcx
	.loc	11 186 38
	movq	%rcx, -216(%rbp)
	movq	%rax, -208(%rbp)
LBB109_20:
Ltmp1214:
	.loc	11 188 29 is_stmt 1
	movq	-216(%rbp), %rdx
	xorl	%eax, %eax
	movl	$1, %ecx
	cmpq	$0, %rdx
	cmoveq	%rcx, %rax
	.loc	11 188 23 is_stmt 0
	cmpq	$0, %rax
	je	LBB109_22
	jmp	LBB109_23
Ltmp1215:
LBB109_21:
	.loc	11 0 23
	movq	-368(%rbp), %rax
	movq	-360(%rbp), %rcx
	.loc	11 185 45 is_stmt 1
	movq	%rcx, -216(%rbp)
	movq	%rax, -208(%rbp)
	.loc	11 185 66 is_stmt 0
	jmp	LBB109_20
LBB109_22:
	.loc	11 0 66
	movq	-296(%rbp), %rax
Ltmp1216:
	.loc	11 189 20 is_stmt 1
	movq	-216(%rbp), %rcx
	movq	-208(%rbp), %rdx
	movq	%rcx, -88(%rbp)
	movq	%rdx, -80(%rbp)
Ltmp1217:
	.loc	11 189 28 is_stmt 0
	movq	%rcx, -72(%rbp)
	movq	%rdx, -64(%rbp)
Ltmp1218:
	.loc	11 197 53 is_stmt 1
	movq	%rcx, -56(%rbp)
	movq	%rdx, -48(%rbp)
Ltmp1219:
	.loc	13 450 41
	movq	%rcx, -40(%rbp)
	movq	%rdx, -32(%rbp)
	movq	%rcx, -24(%rbp)
Ltmp1220:
	.loc	13 201 13
	movq	%rcx, -192(%rbp)
Ltmp1221:
	.loc	13 326 9
	movq	-192(%rbp), %rcx
	movq	%rcx, -16(%rbp)
Ltmp1222:
	.loc	12 87 59
	movq	%rcx, -8(%rbp)
Ltmp1223:
	.loc	13 201 13
	movq	%rcx, -176(%rbp)
Ltmp1224:
	.loc	12 87 18
	movq	-176(%rbp), %rcx
	movq	%rcx, -200(%rbp)
Ltmp1225:
	.loc	11 196 13
	movq	-200(%rbp), %rcx
	movq	%rcx, -264(%rbp)
	movq	%rax, -272(%rbp)
Ltmp1226:
	.loc	11 171 9
	jmp	LBB109_9
LBB109_23:
Ltmp1198:
	.loc	11 0 9 is_stmt 0
	movq	-344(%rbp), %rsi
	movq	-352(%rbp), %rdi
Ltmp1227:
	.loc	11 190 27 is_stmt 1
	callq	__ZN5alloc5alloc18handle_alloc_error17hb5f6ff255f23ea4dE
Ltmp1199:
	jmp	LBB109_14
Ltmp1228:
LBB109_24:
	.loc	11 169 5
	movq	-160(%rbp), %rdi
	callq	__Unwind_Resume
LBB109_25:
	.loc	11 202 5
	jmp	LBB109_24
Ltmp1229:
Lfunc_end109:
	.cfi_endproc
	.section	__TEXT,__gcc_except_tab
	.p2align	2
GCC_except_table109:
Lexception14:
	.byte	255
	.byte	255
	.byte	1
	.uleb128 Lcst_end14-Lcst_begin14
Lcst_begin14:
	.uleb128 Ltmp1200-Lfunc_begin109
	.uleb128 Ltmp1199-Ltmp1200
	.uleb128 Ltmp1202-Lfunc_begin109
	.byte	0
	.uleb128 Ltmp1199-Lfunc_begin109
	.uleb128 Lfunc_end109-Ltmp1199
	.byte	0
	.byte	0
Lcst_end14:
	.p2align	2

	.section	__TEXT,__text,regular,pure_instructions
	.p2align	4, 0x90
__ZN5alloc7raw_vec19RawVec$LT$T$C$A$GT$13needs_to_grow17he01ad0c926db8f20E:
Lfunc_begin110:
	.loc	11 360 0
	.cfi_startproc
	pushq	%rbp
	.cfi_def_cfa_offset 16
	.cfi_offset %rbp, -16
	movq	%rsp, %rbp
	.cfi_def_cfa_register %rbp
	subq	$72, %rsp
	movq	%rdi, -72(%rbp)
	movq	%rsi, -64(%rbp)
	movq	%rdx, -56(%rbp)
	movq	%rdi, -40(%rbp)
	movq	%rsi, -32(%rbp)
	movq	%rdx, -24(%rbp)
Ltmp1230:
	.loc	11 361 22 prologue_end
	movq	%rdi, -16(%rbp)
Ltmp1231:
	.loc	11 232 12
	xorl	%eax, %eax
	testb	$1, %al
	jne	LBB110_2
	.loc	11 0 12 is_stmt 0
	movq	-72(%rbp), %rax
	.loc	11 232 44
	movq	(%rax), %rax
	movq	%rax, -48(%rbp)
	.loc	11 232 9
	jmp	LBB110_3
LBB110_2:
	.loc	11 232 24
	movq	$-1, -48(%rbp)
Ltmp1232:
LBB110_3:
	.loc	11 0 24
	movq	-56(%rbp), %rax
	movq	-64(%rbp), %rdx
	.loc	11 361 51 is_stmt 1
	movq	%rdx, -8(%rbp)
Ltmp1233:
	.loc	9 1203 38
	movq	-48(%rbp), %rcx
	.loc	9 1203 13 is_stmt 0
	subq	%rdx, %rcx
Ltmp1234:
	.loc	11 361 9 is_stmt 1
	cmpq	%rcx, %rax
	seta	%al
	.loc	11 362 6
	andb	$1, %al
	movzbl	%al, %eax
	addq	$72, %rsp
	popq	%rbp
	retq
Ltmp1235:
Lfunc_end110:
	.cfi_endproc

	.p2align	4, 0x90
__ZN5alloc7raw_vec19RawVec$LT$T$C$A$GT$13needs_to_grow17hfaf8109d62dd4afaE:
Lfunc_begin111:
	.loc	11 360 0
	.cfi_startproc
	pushq	%rbp
	.cfi_def_cfa_offset 16
	.cfi_offset %rbp, -16
	movq	%rsp, %rbp
	.cfi_def_cfa_register %rbp
	subq	$72, %rsp
	movq	%rdi, -72(%rbp)
	movq	%rsi, -64(%rbp)
	movq	%rdx, -56(%rbp)
	movq	%rdi, -40(%rbp)
	movq	%rsi, -32(%rbp)
	movq	%rdx, -24(%rbp)
Ltmp1236:
	.loc	11 361 22 prologue_end
	movq	%rdi, -16(%rbp)
Ltmp1237:
	.loc	11 232 12
	xorl	%eax, %eax
	testb	$1, %al
	jne	LBB111_2
	.loc	11 0 12 is_stmt 0
	movq	-72(%rbp), %rax
	.loc	11 232 44
	movq	(%rax), %rax
	movq	%rax, -48(%rbp)
	.loc	11 232 9
	jmp	LBB111_3
LBB111_2:
	.loc	11 232 24
	movq	$-1, -48(%rbp)
Ltmp1238:
LBB111_3:
	.loc	11 0 24
	movq	-56(%rbp), %rax
	movq	-64(%rbp), %rdx
	.loc	11 361 51 is_stmt 1
	movq	%rdx, -8(%rbp)
Ltmp1239:
	.loc	9 1203 38
	movq	-48(%rbp), %rcx
	.loc	9 1203 13 is_stmt 0
	subq	%rdx, %rcx
Ltmp1240:
	.loc	11 361 9 is_stmt 1
	cmpq	%rcx, %rax
	seta	%al
	.loc	11 362 6
	andb	$1, %al
	movzbl	%al, %eax
	addq	$72, %rsp
	popq	%rbp
	retq
Ltmp1241:
Lfunc_end111:
	.cfi_endproc

	.p2align	4, 0x90
__ZN5alloc7raw_vec19RawVec$LT$T$C$A$GT$14current_memory17he242310ffa0f8a88E:
Lfunc_begin112:
	.loc	11 240 0
	.cfi_startproc
	pushq	%rbp
	.cfi_def_cfa_offset 16
	.cfi_offset %rbp, -16
	movq	%rsp, %rbp
	.cfi_def_cfa_register %rbp
	subq	$176, %rsp
	movq	%rsi, -152(%rbp)
	movq	%rdi, -144(%rbp)
	movq	%rdi, -136(%rbp)
	movq	%rsi, -80(%rbp)
Ltmp1242:
	.loc	11 241 12 prologue_end
	xorl	%eax, %eax
	testb	$1, %al
	jne	LBB112_2
	.loc	11 0 12 is_stmt 0
	movq	-152(%rbp), %rax
	.loc	11 241 25
	cmpq	$0, (%rax)
	sete	%al
	.loc	11 241 12
	andb	$1, %al
	movb	%al, -121(%rbp)
	jmp	LBB112_3
LBB112_2:
	movb	$1, -121(%rbp)
LBB112_3:
	testb	$1, -121(%rbp)
	jne	LBB112_5
	.loc	11 0 12
	movq	-152(%rbp), %rax
	.loc	11 247 49 is_stmt 1
	movq	(%rax), %rdx
	movq	%rdx, -72(%rbp)
Ltmp1243:
	.loc	27 459 5
	movq	$1, -64(%rbp)
Ltmp1244:
	.loc	33 89 18
	movq	$1, -56(%rbp)
	movq	-56(%rbp), %rsi
Ltmp1245:
	.loc	32 438 16
	movl	$1, %edi
	callq	__ZN4core5alloc6layout6Layout5array5inner17hced92133ccec7f8eE
	movq	%rax, %rdi
	movq	%rdx, %rsi
Ltmp1246:
	.loc	11 247 30
	leaq	l___unnamed_18(%rip), %rdx
	callq	__ZN4core6result19Result$LT$T$C$E$GT$16unwrap_unchecked17hc398619ce0c4c647E
	movq	%rax, %rcx
	movq	-152(%rbp), %rax
	movq	%rcx, -168(%rbp)
	movq	%rdx, -160(%rbp)
	movq	%rcx, -48(%rbp)
	movq	%rdx, -40(%rbp)
Ltmp1247:
	.loc	11 248 23
	movq	8(%rax), %rax
	movq	%rax, -32(%rbp)
Ltmp1248:
	.loc	12 137 22
	movq	%rax, -24(%rbp)
Ltmp1249:
	.loc	13 450 41
	movq	%rax, -16(%rbp)
	movq	%rax, -8(%rbp)
Ltmp1250:
	.loc	13 201 13
	movq	%rax, -88(%rbp)
Ltmp1251:
	.loc	12 191 18
	movq	-88(%rbp), %rax
	.loc	12 191 9 is_stmt 0
	movq	%rax, -96(%rbp)
Ltmp1252:
	.loc	11 248 23 is_stmt 1
	movq	-96(%rbp), %rdi
	callq	__ZN50_$LT$T$u20$as$u20$core..convert..Into$LT$U$GT$$GT$4into17h3e332cff80e5741fE
	movq	-168(%rbp), %rcx
	movq	-160(%rbp), %rdx
	movq	%rax, %rsi
	movq	-144(%rbp), %rax
	.loc	11 248 22 is_stmt 0
	movq	%rsi, -120(%rbp)
	movq	%rcx, -112(%rbp)
	movq	%rdx, -104(%rbp)
	.loc	11 248 17
	movq	-120(%rbp), %rcx
	movq	%rcx, (%rax)
	movq	-112(%rbp), %rcx
	movq	%rcx, 8(%rax)
	movq	-104(%rbp), %rcx
	movq	%rcx, 16(%rax)
Ltmp1253:
	.loc	11 241 9 is_stmt 1
	jmp	LBB112_6
LBB112_5:
	.loc	11 0 9 is_stmt 0
	movq	-144(%rbp), %rax
	.loc	11 242 13 is_stmt 1
	movq	$0, 16(%rax)
LBB112_6:
	.loc	11 0 13 is_stmt 0
	movq	-136(%rbp), %rax
	.loc	11 251 6 is_stmt 1
	addq	$176, %rsp
	popq	%rbp
	retq
Ltmp1254:
Lfunc_end112:
	.cfi_endproc

	.p2align	4, 0x90
__ZN5alloc7raw_vec19RawVec$LT$T$C$A$GT$14current_memory17he24a65a82896ed2fE:
Lfunc_begin113:
	.loc	11 240 0
	.cfi_startproc
	pushq	%rbp
	.cfi_def_cfa_offset 16
	.cfi_offset %rbp, -16
	movq	%rsp, %rbp
	.cfi_def_cfa_register %rbp
	subq	$176, %rsp
	movq	%rsi, -152(%rbp)
	movq	%rdi, -144(%rbp)
	movq	%rdi, -136(%rbp)
	movq	%rsi, -80(%rbp)
Ltmp1255:
	.loc	11 241 12 prologue_end
	xorl	%eax, %eax
	testb	$1, %al
	jne	LBB113_2
	.loc	11 0 12 is_stmt 0
	movq	-152(%rbp), %rax
	.loc	11 241 25
	cmpq	$0, (%rax)
	sete	%al
	.loc	11 241 12
	andb	$1, %al
	movb	%al, -121(%rbp)
	jmp	LBB113_3
LBB113_2:
	movb	$1, -121(%rbp)
LBB113_3:
	testb	$1, -121(%rbp)
	jne	LBB113_5
	.loc	11 0 12
	movq	-152(%rbp), %rax
	.loc	11 247 49 is_stmt 1
	movq	(%rax), %rdx
	movq	%rdx, -72(%rbp)
Ltmp1256:
	.loc	27 459 5
	movq	$8, -64(%rbp)
Ltmp1257:
	.loc	33 89 18
	movq	$8, -56(%rbp)
	movq	-56(%rbp), %rsi
Ltmp1258:
	.loc	32 438 16
	movl	$16, %edi
	callq	__ZN4core5alloc6layout6Layout5array5inner17hced92133ccec7f8eE
	movq	%rax, %rdi
	movq	%rdx, %rsi
Ltmp1259:
	.loc	11 247 30
	leaq	l___unnamed_18(%rip), %rdx
	callq	__ZN4core6result19Result$LT$T$C$E$GT$16unwrap_unchecked17hc398619ce0c4c647E
	movq	%rax, %rcx
	movq	-152(%rbp), %rax
	movq	%rcx, -168(%rbp)
	movq	%rdx, -160(%rbp)
	movq	%rcx, -48(%rbp)
	movq	%rdx, -40(%rbp)
Ltmp1260:
	.loc	11 248 23
	movq	8(%rax), %rax
	movq	%rax, -32(%rbp)
Ltmp1261:
	.loc	12 137 22
	movq	%rax, -24(%rbp)
Ltmp1262:
	.loc	13 450 41
	movq	%rax, -16(%rbp)
	movq	%rax, -8(%rbp)
Ltmp1263:
	.loc	13 201 13
	movq	%rax, -88(%rbp)
Ltmp1264:
	.loc	12 191 18
	movq	-88(%rbp), %rax
	.loc	12 191 9 is_stmt 0
	movq	%rax, -96(%rbp)
Ltmp1265:
	.loc	11 248 23 is_stmt 1
	movq	-96(%rbp), %rdi
	callq	__ZN50_$LT$T$u20$as$u20$core..convert..Into$LT$U$GT$$GT$4into17h3e332cff80e5741fE
	movq	-168(%rbp), %rcx
	movq	-160(%rbp), %rdx
	movq	%rax, %rsi
	movq	-144(%rbp), %rax
	.loc	11 248 22 is_stmt 0
	movq	%rsi, -120(%rbp)
	movq	%rcx, -112(%rbp)
	movq	%rdx, -104(%rbp)
	.loc	11 248 17
	movq	-120(%rbp), %rcx
	movq	%rcx, (%rax)
	movq	-112(%rbp), %rcx
	movq	%rcx, 8(%rax)
	movq	-104(%rbp), %rcx
	movq	%rcx, 16(%rax)
Ltmp1266:
	.loc	11 241 9 is_stmt 1
	jmp	LBB113_6
LBB113_5:
	.loc	11 0 9 is_stmt 0
	movq	-144(%rbp), %rax
	.loc	11 242 13 is_stmt 1
	movq	$0, 16(%rax)
LBB113_6:
	.loc	11 0 13 is_stmt 0
	movq	-136(%rbp), %rax
	.loc	11 251 6 is_stmt 1
	addq	$176, %rsp
	popq	%rbp
	retq
Ltmp1267:
Lfunc_end113:
	.cfi_endproc

	.p2align	4, 0x90
__ZN5alloc7raw_vec19RawVec$LT$T$C$A$GT$14grow_amortized17h44fd1c50d8f94381E:
Lfunc_begin114:
	.loc	11 379 0
	.cfi_startproc
	pushq	%rbp
	.cfi_def_cfa_offset 16
	.cfi_offset %rbp, -16
	movq	%rsp, %rbp
	.cfi_def_cfa_register %rbp
	subq	$656, %rsp
	movq	%rdi, -624(%rbp)
	movq	%rsi, -616(%rbp)
	movq	%rdx, -608(%rbp)
	movq	%rdi, -352(%rbp)
	movq	%rsi, -344(%rbp)
	movq	%rdx, -336(%rbp)
Ltmp1268:
	.loc	11 383 12 prologue_end
	xorl	%eax, %eax
	testb	$1, %al
	jne	LBB114_2
	.loc	11 0 12 is_stmt 0
	movq	-608(%rbp), %rsi
	movq	-616(%rbp), %rdi
	.loc	11 390 28 is_stmt 1
	callq	__ZN4core3num23_$LT$impl$u20$usize$GT$11checked_add17hc342af7aaffd4a54E
	movq	%rdx, -528(%rbp)
	movq	%rax, -536(%rbp)
	.loc	11 390 62 is_stmt 0
	movq	$0, -512(%rbp)
Ltmp1269:
	.loc	41 1096 9 is_stmt 1
	cmpq	$0, -536(%rbp)
	je	LBB114_4
	jmp	LBB114_5
Ltmp1270:
LBB114_2:
	.loc	11 386 24
	movq	$0, -576(%rbp)
	movq	-584(%rbp), %rdi
	movq	-576(%rbp), %rsi
	callq	__ZN50_$LT$T$u20$as$u20$core..convert..Into$LT$U$GT$$GT$4into17h6a1ebccb35bcb224E
	.loc	11 386 20 is_stmt 0
	movq	%rax, -600(%rbp)
	movq	%rdx, -592(%rbp)
LBB114_3:
	.loc	11 403 6 is_stmt 1
	movq	-600(%rbp), %rax
	movq	-592(%rbp), %rdx
	addq	$656, %rsp
	popq	%rbp
	retq
LBB114_4:
Ltmp1271:
	.loc	41 1098 25
	movq	-520(%rbp), %rcx
	movq	-512(%rbp), %rax
	.loc	41 1098 21 is_stmt 0
	movq	%rcx, -552(%rbp)
	movq	%rax, -544(%rbp)
	.loc	41 1098 28
	jmp	LBB114_6
LBB114_5:
	.loc	41 1097 18 is_stmt 1
	movq	-528(%rbp), %rax
	movq	%rax, -328(%rbp)
Ltmp1272:
	.loc	41 1097 24 is_stmt 0
	movq	%rax, -552(%rbp)
	movabsq	$-9223372036854775807, %rax
	movq	%rax, -544(%rbp)
Ltmp1273:
LBB114_6:
	.loc	42 2091 15 is_stmt 1
	movabsq	$-9223372036854775807, %rdx
	movl	$1, %eax
	xorl	%ecx, %ecx
	cmpq	%rdx, -544(%rbp)
	cmoveq	%rcx, %rax
	.loc	42 2091 9 is_stmt 0
	cmpq	$0, %rax
	jne	LBB114_8
	.loc	42 2092 16 is_stmt 1
	movq	-552(%rbp), %rax
	movq	%rax, -304(%rbp)
Ltmp1274:
	.loc	42 2092 22 is_stmt 0
	movq	%rax, -568(%rbp)
	movabsq	$-9223372036854775807, %rax
	movq	%rax, -560(%rbp)
Ltmp1275:
	.loc	42 2092 45
	jmp	LBB114_9
LBB114_8:
	.loc	42 2093 17 is_stmt 1
	movq	-552(%rbp), %rcx
	movq	-544(%rbp), %rax
	movq	%rcx, -320(%rbp)
	movq	%rax, -312(%rbp)
Ltmp1276:
	.loc	42 2093 42 is_stmt 0
	movq	%rcx, -400(%rbp)
	movq	%rax, -392(%rbp)
	.loc	42 2093 23
	movq	-400(%rbp), %rcx
	movq	-392(%rbp), %rax
	movq	%rcx, -568(%rbp)
	movq	%rax, -560(%rbp)
Ltmp1277:
LBB114_9:
	.loc	11 390 28 is_stmt 1
	movabsq	$-9223372036854775807, %rdx
	movl	$1, %eax
	xorl	%ecx, %ecx
	cmpq	%rdx, -560(%rbp)
	cmoveq	%rcx, %rax
	cmpq	$0, %rax
	jne	LBB114_11
	.loc	11 0 28 is_stmt 0
	movq	-624(%rbp), %rax
	.loc	11 390 28
	movq	-568(%rbp), %rsi
	movq	%rsi, -248(%rbp)
Ltmp1278:
	.loc	11 390 28
	movq	%rsi, -240(%rbp)
Ltmp1279:
	.loc	11 394 28 is_stmt 1
	movq	(%rax), %rdi
	shlq	$1, %rdi
	movq	%rdi, -232(%rbp)
	.loc	11 394 42 is_stmt 0
	movq	%rsi, -224(%rbp)
Ltmp1280:
	.loc	10 1276 5 is_stmt 1
	movq	%rdi, -216(%rbp)
	.loc	10 1276 12 is_stmt 0
	movq	%rsi, -208(%rbp)
Ltmp1281:
	.loc	10 803 13 is_stmt 1
	callq	__ZN4core3cmp6max_by17heffad1b120908224E
	movq	%rax, %rsi
	movq	%rsi, -200(%rbp)
Ltmp1282:
	.loc	11 395 52
	movq	%rsi, -192(%rbp)
	.loc	11 395 19 is_stmt 0
	movq	$8, -184(%rbp)
Ltmp1283:
	.loc	10 1276 5 is_stmt 1
	movq	$8, -176(%rbp)
	.loc	10 1276 12 is_stmt 0
	movq	%rsi, -168(%rbp)
Ltmp1284:
	.loc	10 803 13 is_stmt 1
	movl	$8, %edi
	callq	__ZN4core3cmp6max_by17heffad1b120908224E
	movq	%rax, %rdx
	movq	%rdx, -648(%rbp)
	movq	%rdx, -160(%rbp)
Ltmp1285:
	.loc	11 397 45
	movq	%rdx, -152(%rbp)
Ltmp1286:
	.loc	27 459 5
	movq	$1, -144(%rbp)
Ltmp1287:
	.loc	33 89 18
	movq	$1, -136(%rbp)
	movq	-136(%rbp), %rsi
Ltmp1288:
	.loc	32 438 16
	movl	$1, %edi
	callq	__ZN4core5alloc6layout6Layout5array5inner17hced92133ccec7f8eE
	movq	-624(%rbp), %rsi
	movq	%rax, -640(%rbp)
	movq	%rdx, -632(%rbp)
	movq	%rax, -128(%rbp)
	movq	%rdx, -120(%rbp)
Ltmp1289:
	.loc	11 400 43
	leaq	-440(%rbp), %rdi
	callq	__ZN5alloc7raw_vec19RawVec$LT$T$C$A$GT$14current_memory17he242310ffa0f8a88E
	movq	-640(%rbp), %rsi
	movq	-632(%rbp), %rdx
	movq	-624(%rbp), %r8
	.loc	11 400 19 is_stmt 0
	leaq	-464(%rbp), %rdi
	leaq	-440(%rbp), %rcx
	callq	__ZN5alloc7raw_vec11finish_grow17h734f2831b2a4653dE
Ltmp1290:
	.loc	42 2091 9 is_stmt 1
	cmpq	$0, -464(%rbp)
	je	LBB114_13
	jmp	LBB114_14
Ltmp1291:
LBB114_11:
	.loc	11 390 79
	movq	-568(%rbp), %rcx
	movq	-560(%rbp), %rax
	movq	%rcx, -296(%rbp)
	movq	%rax, -288(%rbp)
Ltmp1292:
	.loc	11 390 79 is_stmt 0
	movq	%rcx, -504(%rbp)
	movq	%rax, -496(%rbp)
Ltmp1293:
	.loc	42 2107 17 is_stmt 1
	movq	-504(%rbp), %rcx
	movq	-496(%rbp), %rax
	movq	%rcx, -280(%rbp)
	movq	%rax, -272(%rbp)
Ltmp1294:
	.loc	42 2107 38 is_stmt 0
	movq	%rcx, -264(%rbp)
	movq	%rax, -256(%rbp)
Ltmp1295:
	.loc	14 117 9 is_stmt 1
	movq	%rcx, -384(%rbp)
	movq	%rax, -376(%rbp)
Ltmp1296:
	.loc	42 2107 23
	movq	-384(%rbp), %rcx
	movq	-376(%rbp), %rax
	movq	%rcx, -600(%rbp)
	movq	%rax, -592(%rbp)
Ltmp1297:
LBB114_12:
	.loc	50 1 1
	jmp	LBB114_3
LBB114_13:
Ltmp1298:
	.loc	42 2092 16
	movq	-456(%rbp), %rcx
	movq	-448(%rbp), %rax
	movq	%rcx, -96(%rbp)
	movq	%rax, -88(%rbp)
Ltmp1299:
	.loc	42 2092 22 is_stmt 0
	movq	%rcx, -480(%rbp)
	movq	%rax, -472(%rbp)
	movq	$0, -488(%rbp)
Ltmp1300:
	.loc	42 2092 45
	jmp	LBB114_15
LBB114_14:
	.loc	42 2093 17 is_stmt 1
	movq	-456(%rbp), %rcx
	movq	-448(%rbp), %rax
	movq	%rcx, -112(%rbp)
	movq	%rax, -104(%rbp)
Ltmp1301:
	.loc	42 2093 42 is_stmt 0
	movq	%rcx, -368(%rbp)
	movq	%rax, -360(%rbp)
	.loc	42 2093 23
	movq	-368(%rbp), %rcx
	movq	-360(%rbp), %rax
	movq	%rcx, -480(%rbp)
	movq	%rax, -472(%rbp)
	movq	$1, -488(%rbp)
Ltmp1302:
LBB114_15:
	.loc	11 400 19 is_stmt 1
	cmpq	$0, -488(%rbp)
	jne	LBB114_17
	.loc	11 0 19 is_stmt 0
	movq	-648(%rbp), %rcx
	movq	-624(%rbp), %rdi
	.loc	11 400 19
	movq	-480(%rbp), %rsi
	movq	-472(%rbp), %rdx
	movq	%rsi, -32(%rbp)
	movq	%rdx, -24(%rbp)
Ltmp1303:
	.loc	11 400 19
	movq	%rsi, -16(%rbp)
	movq	%rdx, -8(%rbp)
Ltmp1304:
	.loc	11 401 9 is_stmt 1
	callq	__ZN5alloc7raw_vec19RawVec$LT$T$C$A$GT$15set_ptr_and_cap17hf105046af25359a1E
	.loc	11 402 9
	movabsq	$-9223372036854775807, %rax
	movq	%rax, -592(%rbp)
Ltmp1305:
	.loc	11 403 6
	jmp	LBB114_3
LBB114_17:
Ltmp1306:
	.loc	11 400 82
	movq	-480(%rbp), %rcx
	movq	-472(%rbp), %rax
	movq	%rcx, -80(%rbp)
	movq	%rax, -72(%rbp)
Ltmp1307:
	.loc	11 400 82 is_stmt 0
	movq	%rcx, -416(%rbp)
	movq	%rax, -408(%rbp)
Ltmp1308:
	.loc	42 2107 17 is_stmt 1
	movq	-416(%rbp), %rcx
	movq	-408(%rbp), %rax
	movq	%rcx, -64(%rbp)
	movq	%rax, -56(%rbp)
Ltmp1309:
	.loc	42 2107 38 is_stmt 0
	movq	%rcx, -48(%rbp)
	movq	%rax, -40(%rbp)
	.loc	42 2107 23
	movq	%rcx, -600(%rbp)
	movq	%rax, -592(%rbp)
Ltmp1310:
	.loc	50 1 1 is_stmt 1
	jmp	LBB114_12
Ltmp1311:
Lfunc_end114:
	.cfi_endproc

	.p2align	4, 0x90
__ZN5alloc7raw_vec19RawVec$LT$T$C$A$GT$14grow_amortized17ha65ed12268a98472E:
Lfunc_begin115:
	.loc	11 379 0
	.cfi_startproc
	pushq	%rbp
	.cfi_def_cfa_offset 16
	.cfi_offset %rbp, -16
	movq	%rsp, %rbp
	.cfi_def_cfa_register %rbp
	subq	$656, %rsp
	movq	%rdi, -624(%rbp)
	movq	%rsi, -616(%rbp)
	movq	%rdx, -608(%rbp)
	movq	%rdi, -352(%rbp)
	movq	%rsi, -344(%rbp)
	movq	%rdx, -336(%rbp)
Ltmp1312:
	.loc	11 383 12 prologue_end
	xorl	%eax, %eax
	testb	$1, %al
	jne	LBB115_2
	.loc	11 0 12 is_stmt 0
	movq	-608(%rbp), %rsi
	movq	-616(%rbp), %rdi
	.loc	11 390 28 is_stmt 1
	callq	__ZN4core3num23_$LT$impl$u20$usize$GT$11checked_add17hc342af7aaffd4a54E
	movq	%rdx, -528(%rbp)
	movq	%rax, -536(%rbp)
	.loc	11 390 62 is_stmt 0
	movq	$0, -512(%rbp)
Ltmp1313:
	.loc	41 1096 9 is_stmt 1
	cmpq	$0, -536(%rbp)
	je	LBB115_4
	jmp	LBB115_5
Ltmp1314:
LBB115_2:
	.loc	11 386 24
	movq	$0, -576(%rbp)
	movq	-584(%rbp), %rdi
	movq	-576(%rbp), %rsi
	callq	__ZN50_$LT$T$u20$as$u20$core..convert..Into$LT$U$GT$$GT$4into17h6a1ebccb35bcb224E
	.loc	11 386 20 is_stmt 0
	movq	%rax, -600(%rbp)
	movq	%rdx, -592(%rbp)
LBB115_3:
	.loc	11 403 6 is_stmt 1
	movq	-600(%rbp), %rax
	movq	-592(%rbp), %rdx
	addq	$656, %rsp
	popq	%rbp
	retq
LBB115_4:
Ltmp1315:
	.loc	41 1098 25
	movq	-520(%rbp), %rcx
	movq	-512(%rbp), %rax
	.loc	41 1098 21 is_stmt 0
	movq	%rcx, -552(%rbp)
	movq	%rax, -544(%rbp)
	.loc	41 1098 28
	jmp	LBB115_6
LBB115_5:
	.loc	41 1097 18 is_stmt 1
	movq	-528(%rbp), %rax
	movq	%rax, -328(%rbp)
Ltmp1316:
	.loc	41 1097 24 is_stmt 0
	movq	%rax, -552(%rbp)
	movabsq	$-9223372036854775807, %rax
	movq	%rax, -544(%rbp)
Ltmp1317:
LBB115_6:
	.loc	42 2091 15 is_stmt 1
	movabsq	$-9223372036854775807, %rdx
	movl	$1, %eax
	xorl	%ecx, %ecx
	cmpq	%rdx, -544(%rbp)
	cmoveq	%rcx, %rax
	.loc	42 2091 9 is_stmt 0
	cmpq	$0, %rax
	jne	LBB115_8
	.loc	42 2092 16 is_stmt 1
	movq	-552(%rbp), %rax
	movq	%rax, -304(%rbp)
Ltmp1318:
	.loc	42 2092 22 is_stmt 0
	movq	%rax, -568(%rbp)
	movabsq	$-9223372036854775807, %rax
	movq	%rax, -560(%rbp)
Ltmp1319:
	.loc	42 2092 45
	jmp	LBB115_9
LBB115_8:
	.loc	42 2093 17 is_stmt 1
	movq	-552(%rbp), %rcx
	movq	-544(%rbp), %rax
	movq	%rcx, -320(%rbp)
	movq	%rax, -312(%rbp)
Ltmp1320:
	.loc	42 2093 42 is_stmt 0
	movq	%rcx, -400(%rbp)
	movq	%rax, -392(%rbp)
	.loc	42 2093 23
	movq	-400(%rbp), %rcx
	movq	-392(%rbp), %rax
	movq	%rcx, -568(%rbp)
	movq	%rax, -560(%rbp)
Ltmp1321:
LBB115_9:
	.loc	11 390 28 is_stmt 1
	movabsq	$-9223372036854775807, %rdx
	movl	$1, %eax
	xorl	%ecx, %ecx
	cmpq	%rdx, -560(%rbp)
	cmoveq	%rcx, %rax
	cmpq	$0, %rax
	jne	LBB115_11
	.loc	11 0 28 is_stmt 0
	movq	-624(%rbp), %rax
	.loc	11 390 28
	movq	-568(%rbp), %rsi
	movq	%rsi, -248(%rbp)
Ltmp1322:
	.loc	11 390 28
	movq	%rsi, -240(%rbp)
Ltmp1323:
	.loc	11 394 28 is_stmt 1
	movq	(%rax), %rdi
	shlq	$1, %rdi
	movq	%rdi, -232(%rbp)
	.loc	11 394 42 is_stmt 0
	movq	%rsi, -224(%rbp)
Ltmp1324:
	.loc	10 1276 5 is_stmt 1
	movq	%rdi, -216(%rbp)
	.loc	10 1276 12 is_stmt 0
	movq	%rsi, -208(%rbp)
Ltmp1325:
	.loc	10 803 13 is_stmt 1
	callq	__ZN4core3cmp6max_by17heffad1b120908224E
	movq	%rax, %rsi
	movq	%rsi, -200(%rbp)
Ltmp1326:
	.loc	11 395 52
	movq	%rsi, -192(%rbp)
	.loc	11 395 19 is_stmt 0
	movq	$4, -184(%rbp)
Ltmp1327:
	.loc	10 1276 5 is_stmt 1
	movq	$4, -176(%rbp)
	.loc	10 1276 12 is_stmt 0
	movq	%rsi, -168(%rbp)
Ltmp1328:
	.loc	10 803 13 is_stmt 1
	movl	$4, %edi
	callq	__ZN4core3cmp6max_by17heffad1b120908224E
	movq	%rax, %rdx
	movq	%rdx, -648(%rbp)
	movq	%rdx, -160(%rbp)
Ltmp1329:
	.loc	11 397 45
	movq	%rdx, -152(%rbp)
Ltmp1330:
	.loc	27 459 5
	movq	$8, -144(%rbp)
Ltmp1331:
	.loc	33 89 18
	movq	$8, -136(%rbp)
	movq	-136(%rbp), %rsi
Ltmp1332:
	.loc	32 438 16
	movl	$16, %edi
	callq	__ZN4core5alloc6layout6Layout5array5inner17hced92133ccec7f8eE
	movq	-624(%rbp), %rsi
	movq	%rax, -640(%rbp)
	movq	%rdx, -632(%rbp)
	movq	%rax, -128(%rbp)
	movq	%rdx, -120(%rbp)
Ltmp1333:
	.loc	11 400 43
	leaq	-440(%rbp), %rdi
	callq	__ZN5alloc7raw_vec19RawVec$LT$T$C$A$GT$14current_memory17he24a65a82896ed2fE
	movq	-640(%rbp), %rsi
	movq	-632(%rbp), %rdx
	movq	-624(%rbp), %r8
	.loc	11 400 19 is_stmt 0
	leaq	-464(%rbp), %rdi
	leaq	-440(%rbp), %rcx
	callq	__ZN5alloc7raw_vec11finish_grow17h734f2831b2a4653dE
Ltmp1334:
	.loc	42 2091 9 is_stmt 1
	cmpq	$0, -464(%rbp)
	je	LBB115_13
	jmp	LBB115_14
Ltmp1335:
LBB115_11:
	.loc	11 390 79
	movq	-568(%rbp), %rcx
	movq	-560(%rbp), %rax
	movq	%rcx, -296(%rbp)
	movq	%rax, -288(%rbp)
Ltmp1336:
	.loc	11 390 79 is_stmt 0
	movq	%rcx, -504(%rbp)
	movq	%rax, -496(%rbp)
Ltmp1337:
	.loc	42 2107 17 is_stmt 1
	movq	-504(%rbp), %rcx
	movq	-496(%rbp), %rax
	movq	%rcx, -280(%rbp)
	movq	%rax, -272(%rbp)
Ltmp1338:
	.loc	42 2107 38 is_stmt 0
	movq	%rcx, -264(%rbp)
	movq	%rax, -256(%rbp)
Ltmp1339:
	.loc	14 117 9 is_stmt 1
	movq	%rcx, -384(%rbp)
	movq	%rax, -376(%rbp)
Ltmp1340:
	.loc	42 2107 23
	movq	-384(%rbp), %rcx
	movq	-376(%rbp), %rax
	movq	%rcx, -600(%rbp)
	movq	%rax, -592(%rbp)
Ltmp1341:
LBB115_12:
	.loc	50 1 1
	jmp	LBB115_3
LBB115_13:
Ltmp1342:
	.loc	42 2092 16
	movq	-456(%rbp), %rcx
	movq	-448(%rbp), %rax
	movq	%rcx, -96(%rbp)
	movq	%rax, -88(%rbp)
Ltmp1343:
	.loc	42 2092 22 is_stmt 0
	movq	%rcx, -480(%rbp)
	movq	%rax, -472(%rbp)
	movq	$0, -488(%rbp)
Ltmp1344:
	.loc	42 2092 45
	jmp	LBB115_15
LBB115_14:
	.loc	42 2093 17 is_stmt 1
	movq	-456(%rbp), %rcx
	movq	-448(%rbp), %rax
	movq	%rcx, -112(%rbp)
	movq	%rax, -104(%rbp)
Ltmp1345:
	.loc	42 2093 42 is_stmt 0
	movq	%rcx, -368(%rbp)
	movq	%rax, -360(%rbp)
	.loc	42 2093 23
	movq	-368(%rbp), %rcx
	movq	-360(%rbp), %rax
	movq	%rcx, -480(%rbp)
	movq	%rax, -472(%rbp)
	movq	$1, -488(%rbp)
Ltmp1346:
LBB115_15:
	.loc	11 400 19 is_stmt 1
	cmpq	$0, -488(%rbp)
	jne	LBB115_17
	.loc	11 0 19 is_stmt 0
	movq	-648(%rbp), %rcx
	movq	-624(%rbp), %rdi
	.loc	11 400 19
	movq	-480(%rbp), %rsi
	movq	-472(%rbp), %rdx
	movq	%rsi, -32(%rbp)
	movq	%rdx, -24(%rbp)
Ltmp1347:
	.loc	11 400 19
	movq	%rsi, -16(%rbp)
	movq	%rdx, -8(%rbp)
Ltmp1348:
	.loc	11 401 9 is_stmt 1
	callq	__ZN5alloc7raw_vec19RawVec$LT$T$C$A$GT$15set_ptr_and_cap17h0aafb4186a5f8cdeE
	.loc	11 402 9
	movabsq	$-9223372036854775807, %rax
	movq	%rax, -592(%rbp)
Ltmp1349:
	.loc	11 403 6
	jmp	LBB115_3
LBB115_17:
Ltmp1350:
	.loc	11 400 82
	movq	-480(%rbp), %rcx
	movq	-472(%rbp), %rax
	movq	%rcx, -80(%rbp)
	movq	%rax, -72(%rbp)
Ltmp1351:
	.loc	11 400 82 is_stmt 0
	movq	%rcx, -416(%rbp)
	movq	%rax, -408(%rbp)
Ltmp1352:
	.loc	42 2107 17 is_stmt 1
	movq	-416(%rbp), %rcx
	movq	-408(%rbp), %rax
	movq	%rcx, -64(%rbp)
	movq	%rax, -56(%rbp)
Ltmp1353:
	.loc	42 2107 38 is_stmt 0
	movq	%rcx, -48(%rbp)
	movq	%rax, -40(%rbp)
	.loc	42 2107 23
	movq	%rcx, -600(%rbp)
	movq	%rax, -592(%rbp)
Ltmp1354:
	.loc	50 1 1 is_stmt 1
	jmp	LBB115_12
Ltmp1355:
Lfunc_end115:
	.cfi_endproc

	.p2align	4, 0x90
__ZN5alloc7raw_vec19RawVec$LT$T$C$A$GT$15set_ptr_and_cap17h0aafb4186a5f8cdeE:
Lfunc_begin116:
	.loc	11 364 0
	.cfi_startproc
	pushq	%rbp
	.cfi_def_cfa_offset 16
	.cfi_offset %rbp, -16
	movq	%rsp, %rbp
	.cfi_def_cfa_register %rbp
	subq	$112, %rsp
	movq	%rdi, -88(%rbp)
	movq	%rsi, -80(%rbp)
	movq	%rdx, -72(%rbp)
	movq	%rcx, -64(%rbp)
Ltmp1356:
	.loc	11 368 51 prologue_end
	movq	%rsi, -56(%rbp)
	movq	%rdx, -48(%rbp)
Ltmp1357:
	.loc	13 450 41
	movq	%rsi, -40(%rbp)
	movq	%rdx, -32(%rbp)
	movq	%rsi, -24(%rbp)
Ltmp1358:
	.loc	13 201 13
	movq	%rsi, -104(%rbp)
Ltmp1359:
	.loc	13 326 9
	movq	-104(%rbp), %rax
	movq	%rax, -16(%rbp)
Ltmp1360:
	.loc	12 87 59
	movq	%rax, -8(%rbp)
Ltmp1361:
	.loc	13 201 13
	movq	%rax, -96(%rbp)
Ltmp1362:
	.loc	12 87 18
	movq	-96(%rbp), %rax
	movq	%rax, -112(%rbp)
Ltmp1363:
	.loc	11 368 9
	movq	-112(%rbp), %rax
	movq	%rax, 8(%rdi)
	.loc	11 369 9
	movq	%rcx, (%rdi)
	.loc	11 370 6
	addq	$112, %rsp
	popq	%rbp
	retq
Ltmp1364:
Lfunc_end116:
	.cfi_endproc

	.p2align	4, 0x90
__ZN5alloc7raw_vec19RawVec$LT$T$C$A$GT$15set_ptr_and_cap17hf105046af25359a1E:
Lfunc_begin117:
	.loc	11 364 0
	.cfi_startproc
	pushq	%rbp
	.cfi_def_cfa_offset 16
	.cfi_offset %rbp, -16
	movq	%rsp, %rbp
	.cfi_def_cfa_register %rbp
	subq	$112, %rsp
	movq	%rdi, -88(%rbp)
	movq	%rsi, -80(%rbp)
	movq	%rdx, -72(%rbp)
	movq	%rcx, -64(%rbp)
Ltmp1365:
	.loc	11 368 51 prologue_end
	movq	%rsi, -56(%rbp)
	movq	%rdx, -48(%rbp)
Ltmp1366:
	.loc	13 450 41
	movq	%rsi, -40(%rbp)
	movq	%rdx, -32(%rbp)
	movq	%rsi, -24(%rbp)
Ltmp1367:
	.loc	13 201 13
	movq	%rsi, -104(%rbp)
Ltmp1368:
	.loc	13 326 9
	movq	-104(%rbp), %rax
	movq	%rax, -16(%rbp)
Ltmp1369:
	.loc	12 87 59
	movq	%rax, -8(%rbp)
Ltmp1370:
	.loc	13 201 13
	movq	%rax, -96(%rbp)
Ltmp1371:
	.loc	12 87 18
	movq	-96(%rbp), %rax
	movq	%rax, -112(%rbp)
Ltmp1372:
	.loc	11 368 9
	movq	-112(%rbp), %rax
	movq	%rax, 8(%rdi)
	.loc	11 369 9
	movq	%rcx, (%rdi)
	.loc	11 370 6
	addq	$112, %rsp
	popq	%rbp
	retq
Ltmp1373:
Lfunc_end117:
	.cfi_endproc

	.p2align	4, 0x90
__ZN5alloc7raw_vec19RawVec$LT$T$C$A$GT$6new_in17hb1ef584c066e08a2E:
Lfunc_begin118:
	.loc	11 121 0
	.cfi_startproc
	pushq	%rbp
	.cfi_def_cfa_offset 16
	.cfi_offset %rbp, -16
	movq	%rsp, %rbp
	.cfi_def_cfa_register %rbp
	subq	$96, %rsp
Ltmp1374:
	.loc	27 459 5 prologue_end
	movq	$1, -48(%rbp)
Ltmp1375:
	.loc	4 599 14
	movq	$1, -40(%rbp)
	movq	-40(%rbp), %rax
	movq	%rax, -96(%rbp)
	movq	%rax, -32(%rbp)
Ltmp1376:
	.loc	4 0 14 is_stmt 0
	movq	-96(%rbp), %rax
Ltmp1377:
	.loc	13 97 36 is_stmt 1
	movq	%rax, -8(%rbp)
Ltmp1378:
	.loc	13 201 13
	movq	%rax, -64(%rbp)
Ltmp1379:
	.loc	12 191 18
	movq	-64(%rbp), %rax
	.loc	12 191 9 is_stmt 0
	movq	%rax, -72(%rbp)
Ltmp1380:
	.loc	11 123 9 is_stmt 1
	movq	-72(%rbp), %rax
	movq	%rax, -80(%rbp)
	movq	$0, -88(%rbp)
	.loc	11 124 6
	movq	-88(%rbp), %rax
	movq	-80(%rbp), %rdx
	addq	$96, %rsp
	popq	%rbp
	retq
Ltmp1381:
Lfunc_end118:
	.cfi_endproc

	.p2align	4, 0x90
__ZN5alloc7raw_vec19RawVec$LT$T$C$A$GT$6new_in17hda4fd4221ee8d16fE:
Lfunc_begin119:
	.loc	11 121 0
	.cfi_startproc
	pushq	%rbp
	.cfi_def_cfa_offset 16
	.cfi_offset %rbp, -16
	movq	%rsp, %rbp
	.cfi_def_cfa_register %rbp
	subq	$96, %rsp
Ltmp1382:
	.loc	27 459 5 prologue_end
	movq	$8, -48(%rbp)
Ltmp1383:
	.loc	4 599 14
	movq	$8, -40(%rbp)
	movq	-40(%rbp), %rax
	movq	%rax, -96(%rbp)
	movq	%rax, -32(%rbp)
Ltmp1384:
	.loc	4 0 14 is_stmt 0
	movq	-96(%rbp), %rax
Ltmp1385:
	.loc	13 97 36 is_stmt 1
	movq	%rax, -8(%rbp)
Ltmp1386:
	.loc	13 201 13
	movq	%rax, -64(%rbp)
Ltmp1387:
	.loc	12 191 18
	movq	-64(%rbp), %rax
	.loc	12 191 9 is_stmt 0
	movq	%rax, -72(%rbp)
Ltmp1388:
	.loc	11 123 9 is_stmt 1
	movq	-72(%rbp), %rax
	movq	%rax, -80(%rbp)
	movq	$0, -88(%rbp)
	.loc	11 124 6
	movq	-88(%rbp), %rax
	movq	-80(%rbp), %rdx
	addq	$96, %rsp
	popq	%rbp
	retq
Ltmp1389:
Lfunc_end119:
	.cfi_endproc

	.p2align	4, 0x90
__ZN5alloc7raw_vec19RawVec$LT$T$C$A$GT$7reserve17h8528df52e8221b59E:
Lfunc_begin120:
	.loc	11 274 0
	.cfi_startproc
	pushq	%rbp
	.cfi_def_cfa_offset 16
	.cfi_offset %rbp, -16
	movq	%rsp, %rbp
	.cfi_def_cfa_register %rbp
	subq	$48, %rsp
	movq	%rdi, -48(%rbp)
	movq	%rsi, -40(%rbp)
	movq	%rdx, -32(%rbp)
	movq	%rdi, -24(%rbp)
	movq	%rsi, -16(%rbp)
	movq	%rdx, -8(%rbp)
Ltmp1390:
	.loc	11 288 12 prologue_end
	callq	__ZN5alloc7raw_vec19RawVec$LT$T$C$A$GT$13needs_to_grow17he01ad0c926db8f20E
	testb	$1, %al
	jne	LBB120_2
LBB120_1:
	.loc	11 291 6
	addq	$48, %rsp
	popq	%rbp
	retq
LBB120_2:
	.loc	11 0 6 is_stmt 0
	movq	-32(%rbp), %rdx
	movq	-40(%rbp), %rsi
	movq	-48(%rbp), %rdi
	.loc	11 289 13 is_stmt 1
	callq	__ZN5alloc7raw_vec19RawVec$LT$T$C$A$GT$7reserve21do_reserve_and_handle17hba95d810a1996ab9E
	.loc	11 288 9
	jmp	LBB120_1
Ltmp1391:
Lfunc_end120:
	.cfi_endproc

	.p2align	4, 0x90
__ZN5alloc7raw_vec19RawVec$LT$T$C$A$GT$7reserve17ha86244f62e6bbd81E:
Lfunc_begin121:
	.loc	11 274 0
	.cfi_startproc
	pushq	%rbp
	.cfi_def_cfa_offset 16
	.cfi_offset %rbp, -16
	movq	%rsp, %rbp
	.cfi_def_cfa_register %rbp
	subq	$48, %rsp
	movq	%rdi, -48(%rbp)
	movq	%rsi, -40(%rbp)
	movq	%rdx, -32(%rbp)
	movq	%rdi, -24(%rbp)
	movq	%rsi, -16(%rbp)
	movq	%rdx, -8(%rbp)
Ltmp1392:
	.loc	11 288 12 prologue_end
	callq	__ZN5alloc7raw_vec19RawVec$LT$T$C$A$GT$13needs_to_grow17hfaf8109d62dd4afaE
	testb	$1, %al
	jne	LBB121_2
LBB121_1:
	.loc	11 291 6
	addq	$48, %rsp
	popq	%rbp
	retq
LBB121_2:
	.loc	11 0 6 is_stmt 0
	movq	-32(%rbp), %rdx
	movq	-40(%rbp), %rsi
	movq	-48(%rbp), %rdi
	.loc	11 289 13 is_stmt 1
	callq	__ZN5alloc7raw_vec19RawVec$LT$T$C$A$GT$7reserve21do_reserve_and_handle17h4e692e068248d704E
	.loc	11 288 9
	jmp	LBB121_1
Ltmp1393:
Lfunc_end121:
	.cfi_endproc

	.p2align	4, 0x90
__ZN5alloc7raw_vec19RawVec$LT$T$C$A$GT$7reserve21do_reserve_and_handle17h4e692e068248d704E:
Lfunc_begin122:
	.loc	11 280 0
	.cfi_startproc
	pushq	%rbp
	.cfi_def_cfa_offset 16
	.cfi_offset %rbp, -16
	movq	%rsp, %rbp
	.cfi_def_cfa_register %rbp
	subq	$32, %rsp
	movq	%rdi, -24(%rbp)
	movq	%rsi, -16(%rbp)
	movq	%rdx, -8(%rbp)
Ltmp1394:
	.loc	11 285 28 prologue_end
	callq	__ZN5alloc7raw_vec19RawVec$LT$T$C$A$GT$14grow_amortized17h44fd1c50d8f94381E
	movq	%rax, %rdi
	movq	%rdx, %rsi
	.loc	11 285 13 is_stmt 0
	callq	__ZN5alloc7raw_vec14handle_reserve17he9c231635e715b60E
	.loc	11 286 10 is_stmt 1
	addq	$32, %rsp
	popq	%rbp
	retq
Ltmp1395:
Lfunc_end122:
	.cfi_endproc

	.p2align	4, 0x90
__ZN5alloc7raw_vec19RawVec$LT$T$C$A$GT$7reserve21do_reserve_and_handle17hba95d810a1996ab9E:
Lfunc_begin123:
	.loc	11 280 0
	.cfi_startproc
	pushq	%rbp
	.cfi_def_cfa_offset 16
	.cfi_offset %rbp, -16
	movq	%rsp, %rbp
	.cfi_def_cfa_register %rbp
	subq	$32, %rsp
	movq	%rdi, -24(%rbp)
	movq	%rsi, -16(%rbp)
	movq	%rdx, -8(%rbp)
Ltmp1396:
	.loc	11 285 28 prologue_end
	callq	__ZN5alloc7raw_vec19RawVec$LT$T$C$A$GT$14grow_amortized17ha65ed12268a98472E
	movq	%rax, %rdi
	movq	%rdx, %rsi
	.loc	11 285 13 is_stmt 0
	callq	__ZN5alloc7raw_vec14handle_reserve17he9c231635e715b60E
	.loc	11 286 10 is_stmt 1
	addq	$32, %rsp
	popq	%rbp
	retq
Ltmp1397:
Lfunc_end123:
	.cfi_endproc

	.p2align	4, 0x90
__ZN63_$LT$I$u20$as$u20$core..iter..traits..collect..IntoIterator$GT$9into_iter17h0aeff2f4e131c291E:
Lfunc_begin124:
	.file	52 "/rustc/2c8cc343237b8f7d5a3c3703e3a87f2eb2c54a74/library/core/src/iter/traits" "collect.rs"
	.loc	52 272 0
	.cfi_startproc
	pushq	%rbp
	.cfi_def_cfa_offset 16
	.cfi_offset %rbp, -16
	movq	%rsp, %rbp
	.cfi_def_cfa_register %rbp
	subq	$16, %rsp
	movq	%rdi, %rax
	movq	%rax, -8(%rbp)
Ltmp1398:
	.loc	52 273 9 prologue_end
	movl	$72, %edx
	callq	_memcpy
Ltmp1399:
	.loc	52 0 9 is_stmt 0
	movq	-8(%rbp), %rax
	.loc	52 274 6 is_stmt 1
	addq	$16, %rsp
	popq	%rbp
	retq
Ltmp1400:
Lfunc_end124:
	.cfi_endproc

	.p2align	4, 0x90
__ZN63_$LT$alloc..alloc..Global$u20$as$u20$core..alloc..Allocator$GT$10deallocate17h1355adbdd4725853E:
Lfunc_begin125:
	.loc	49 246 0
	.cfi_startproc
	pushq	%rbp
	.cfi_def_cfa_offset 16
	.cfi_offset %rbp, -16
	movq	%rsp, %rbp
	.cfi_def_cfa_register %rbp
	subq	$112, %rsp
	movq	%rsi, -112(%rbp)
	movq	%rdx, -104(%rbp)
	movq	%rcx, -96(%rbp)
	movq	%rdi, -64(%rbp)
	movq	%rsi, -56(%rbp)
Ltmp1401:
	.loc	49 247 12 prologue_end
	leaq	-104(%rbp), %rax
	movq	%rax, -48(%rbp)
	cmpq	$0, -104(%rbp)
	jne	LBB125_2
	.loc	49 247 9 is_stmt 0
	jmp	LBB125_3
LBB125_2:
	.loc	49 0 9
	movq	-112(%rbp), %rdi
	.loc	49 250 30 is_stmt 1
	movq	%rdi, -40(%rbp)
Ltmp1402:
	.loc	13 326 9
	movq	%rdi, -32(%rbp)
Ltmp1403:
	.loc	49 250 44
	movq	-104(%rbp), %rcx
	movq	-96(%rbp), %rax
	movq	%rcx, -88(%rbp)
	movq	%rax, -80(%rbp)
Ltmp1404:
	.loc	49 113 34
	leaq	-88(%rbp), %rax
	movq	%rax, -24(%rbp)
Ltmp1405:
	.loc	32 129 9
	movq	-88(%rbp), %rsi
Ltmp1406:
	.loc	49 113 49
	leaq	-88(%rbp), %rax
	movq	%rax, -16(%rbp)
Ltmp1407:
	.loc	32 140 9
	movq	-80(%rbp), %rax
	movq	%rax, -8(%rbp)
Ltmp1408:
	.loc	33 97 9
	movq	%rax, -72(%rbp)
	movq	-72(%rbp), %rdx
Ltmp1409:
	.loc	49 113 14
	callq	___rust_dealloc
Ltmp1410:
LBB125_3:
	.loc	49 252 6
	addq	$112, %rsp
	popq	%rbp
	retq
Ltmp1411:
Lfunc_end125:
	.cfi_endproc

	.p2align	4, 0x90
__ZN63_$LT$alloc..alloc..Global$u20$as$u20$core..alloc..Allocator$GT$15allocate_zeroed17h3f82bc6599c67a9aE:
Lfunc_begin126:
	.loc	49 241 0
	.cfi_startproc
	pushq	%rbp
	.cfi_def_cfa_offset 16
	.cfi_offset %rbp, -16
	movq	%rsp, %rbp
	.cfi_def_cfa_register %rbp
	subq	$32, %rsp
	movq	%rdi, -24(%rbp)
	movq	%rsi, -16(%rbp)
	movq	%rdx, -8(%rbp)
	movl	$1, %ecx
Ltmp1412:
	.loc	49 242 9 prologue_end
	callq	__ZN5alloc5alloc6Global10alloc_impl17h2d500a986b3305bdE
	.loc	49 243 6
	addq	$32, %rsp
	popq	%rbp
	retq
Ltmp1413:
Lfunc_end126:
	.cfi_endproc

	.p2align	4, 0x90
__ZN63_$LT$alloc..alloc..Global$u20$as$u20$core..alloc..Allocator$GT$4grow17h89765ec2cbfe4281E:
Lfunc_begin127:
	.loc	49 255 0
	.cfi_startproc
	pushq	%rbp
	.cfi_def_cfa_offset 16
	.cfi_offset %rbp, -16
	movq	%rsp, %rbp
	.cfi_def_cfa_register %rbp
	subq	$64, %rsp
	movq	%rdi, -48(%rbp)
	movq	%rsi, -40(%rbp)
	movq	%rdx, -32(%rbp)
	movq	%rcx, -24(%rbp)
	movq	%r8, -16(%rbp)
	movq	%r9, -8(%rbp)
Ltmp1414:
	.loc	49 262 18 prologue_end
	movq	%rsp, %rax
	movl	$0, (%rax)
	callq	__ZN5alloc5alloc6Global9grow_impl17h57bd39c9ac573cb4E
	.loc	49 263 6
	addq	$64, %rsp
	popq	%rbp
	retq
Ltmp1415:
Lfunc_end127:
	.cfi_endproc

	.p2align	4, 0x90
__ZN63_$LT$alloc..alloc..Global$u20$as$u20$core..alloc..Allocator$GT$8allocate17hb2878dadefc45450E:
Lfunc_begin128:
	.loc	49 236 0
	.cfi_startproc
	pushq	%rbp
	.cfi_def_cfa_offset 16
	.cfi_offset %rbp, -16
	movq	%rsp, %rbp
	.cfi_def_cfa_register %rbp
	subq	$32, %rsp
	movq	%rdi, -24(%rbp)
	movq	%rsi, -16(%rbp)
	movq	%rdx, -8(%rbp)
	xorl	%ecx, %ecx
Ltmp1416:
	.loc	49 237 9 prologue_end
	callq	__ZN5alloc5alloc6Global10alloc_impl17h2d500a986b3305bdE
	.loc	49 238 6
	addq	$32, %rsp
	popq	%rbp
	retq
Ltmp1417:
Lfunc_end128:
	.cfi_endproc

	.p2align	4, 0x90
__ZN65_$LT$alloc..string..String$u20$as$u20$core..ops..deref..Deref$GT$5deref17hd055de392c061112E:
Lfunc_begin129:
	.loc	48 2459 0
	.cfi_startproc
	pushq	%rbp
	.cfi_def_cfa_offset 16
	.cfi_offset %rbp, -16
	movq	%rsp, %rbp
	.cfi_def_cfa_register %rbp
	subq	$48, %rsp
	movq	%rdi, -40(%rbp)
Ltmp1418:
	.loc	48 2460 43 prologue_end
	callq	__ZN72_$LT$alloc..vec..Vec$LT$T$C$A$GT$$u20$as$u20$core..ops..deref..Deref$GT$5deref17hb0852575872bc178E
	movq	%rax, -32(%rbp)
	movq	%rdx, -24(%rbp)
Ltmp1419:
	.file	53 "/rustc/2c8cc343237b8f7d5a3c3703e3a87f2eb2c54a74/library/core/src/str" "converts.rs"
	.loc	53 173 14
	movq	%rax, -16(%rbp)
	movq	%rdx, -8(%rbp)
	movq	-16(%rbp), %rax
	movq	-8(%rbp), %rdx
Ltmp1420:
	.loc	48 2461 6
	addq	$48, %rsp
	popq	%rbp
	retq
Ltmp1421:
Lfunc_end129:
	.cfi_endproc

	.p2align	4, 0x90
__ZN70_$LT$alloc..vec..Vec$LT$T$C$A$GT$$u20$as$u20$core..ops..drop..Drop$GT$4drop17h654d6e948fa50ca0E:
Lfunc_begin130:
	.loc	8 3054 0
	.cfi_startproc
	pushq	%rbp
	.cfi_def_cfa_offset 16
	.cfi_offset %rbp, -16
	movq	%rsp, %rbp
	.cfi_def_cfa_register %rbp
	subq	$160, %rsp
	movq	%rdi, -120(%rbp)
Ltmp1422:
	.loc	8 3059 62 prologue_end
	movq	%rdi, -112(%rbp)
Ltmp1423:
	.loc	8 1280 19
	movq	%rdi, -104(%rbp)
Ltmp1424:
	.loc	11 224 9
	movq	8(%rdi), %rcx
	movq	%rcx, -96(%rbp)
Ltmp1425:
	.loc	12 104 9
	movq	%rcx, -88(%rbp)
Ltmp1426:
	.loc	13 326 9
	movq	%rcx, -80(%rbp)
Ltmp1427:
	.loc	8 1282 21
	movq	%rcx, -72(%rbp)
Ltmp1428:
	.loc	6 52 36
	movq	%rcx, -160(%rbp)
	.loc	6 52 18 is_stmt 0
	movq	-160(%rbp), %rax
	movq	%rax, -64(%rbp)
Ltmp1429:
	.loc	6 38 13 is_stmt 1
	movq	%rax, -56(%rbp)
Ltmp1430:
	.loc	6 215 33
	movq	%rax, -48(%rbp)
	.loc	6 215 18 is_stmt 0
	movq	%rax, -40(%rbp)
Ltmp1431:
	.loc	8 3059 81 is_stmt 1
	movq	16(%rdi), %rax
	movq	%rax, -32(%rbp)
Ltmp1432:
	.loc	4 766 24
	movq	%rcx, -24(%rbp)
Ltmp1433:
	.loc	6 60 9
	movq	%rcx, -16(%rbp)
Ltmp1434:
	.loc	4 766 37
	movq	%rax, -8(%rbp)
Ltmp1435:
	.loc	5 135 36
	movq	%rcx, -136(%rbp)
	movq	%rax, -128(%rbp)
	.loc	5 135 14 is_stmt 0
	movq	-136(%rbp), %rcx
	movq	-128(%rbp), %rax
	movq	%rcx, -152(%rbp)
	movq	%rax, -144(%rbp)
Ltmp1436:
	.loc	8 3062 6 is_stmt 1
	addq	$160, %rsp
	popq	%rbp
	retq
Ltmp1437:
Lfunc_end130:
	.cfi_endproc

	.p2align	4, 0x90
__ZN70_$LT$alloc..vec..Vec$LT$T$C$A$GT$$u20$as$u20$core..ops..drop..Drop$GT$4drop17h681cbb5eea5c18d3E:
Lfunc_begin131:
	.loc	8 3054 0
	.cfi_startproc
	pushq	%rbp
	.cfi_def_cfa_offset 16
	.cfi_offset %rbp, -16
	movq	%rsp, %rbp
	.cfi_def_cfa_register %rbp
	subq	$160, %rsp
	movq	%rdi, -120(%rbp)
Ltmp1438:
	.loc	8 3059 62 prologue_end
	movq	%rdi, -112(%rbp)
Ltmp1439:
	.loc	8 1280 19
	movq	%rdi, -104(%rbp)
Ltmp1440:
	.loc	11 224 9
	movq	8(%rdi), %rcx
	movq	%rcx, -96(%rbp)
Ltmp1441:
	.loc	12 104 9
	movq	%rcx, -88(%rbp)
Ltmp1442:
	.loc	13 326 9
	movq	%rcx, -80(%rbp)
Ltmp1443:
	.loc	8 1282 21
	movq	%rcx, -72(%rbp)
Ltmp1444:
	.loc	6 52 36
	movq	%rcx, -160(%rbp)
	.loc	6 52 18 is_stmt 0
	movq	-160(%rbp), %rax
	movq	%rax, -64(%rbp)
Ltmp1445:
	.loc	6 38 13 is_stmt 1
	movq	%rax, -56(%rbp)
Ltmp1446:
	.loc	6 215 33
	movq	%rax, -48(%rbp)
	.loc	6 215 18 is_stmt 0
	movq	%rax, -40(%rbp)
Ltmp1447:
	.loc	8 3059 81 is_stmt 1
	movq	16(%rdi), %rax
	movq	%rax, -32(%rbp)
Ltmp1448:
	.loc	4 766 24
	movq	%rcx, -24(%rbp)
Ltmp1449:
	.loc	6 60 9
	movq	%rcx, -16(%rbp)
Ltmp1450:
	.loc	4 766 37
	movq	%rax, -8(%rbp)
Ltmp1451:
	.loc	5 135 36
	movq	%rcx, -136(%rbp)
	movq	%rax, -128(%rbp)
	.loc	5 135 14 is_stmt 0
	movq	-136(%rbp), %rcx
	movq	-128(%rbp), %rax
	movq	%rcx, -152(%rbp)
	movq	%rax, -144(%rbp)
Ltmp1452:
	.loc	8 3062 6 is_stmt 1
	addq	$160, %rsp
	popq	%rbp
	retq
Ltmp1453:
Lfunc_end131:
	.cfi_endproc

	.p2align	4, 0x90
__ZN70_$LT$core..option..Option$LT$T$GT$$u20$as$u20$core..cmp..PartialEq$GT$2eq17h6990e637ac9c9d19E:
Lfunc_begin132:
	.loc	41 2088 0
	.cfi_startproc
	pushq	%rbp
	.cfi_def_cfa_offset 16
	.cfi_offset %rbp, -16
	movq	%rsp, %rbp
	.cfi_def_cfa_register %rbp
	subq	$16, %rsp
	movq	%rdi, -16(%rbp)
	movq	%rsi, -8(%rbp)
Ltmp1454:
	.loc	41 2089 9 prologue_end
	callq	__ZN55_$LT$T$u20$as$u20$core..option..SpecOptionPartialEq$GT$2eq17h4d262383f5aff7b7E
	.loc	41 2090 6
	andb	$1, %al
	movzbl	%al, %eax
	addq	$16, %rsp
	popq	%rbp
	retq
Ltmp1455:
Lfunc_end132:
	.cfi_endproc

	.p2align	4, 0x90
__ZN72_$LT$alloc..vec..Vec$LT$T$C$A$GT$$u20$as$u20$core..ops..deref..Deref$GT$5deref17h869089438b83a176E:
Lfunc_begin133:
	.loc	8 2636 0
	.cfi_startproc
	pushq	%rbp
	.cfi_def_cfa_offset 16
	.cfi_offset %rbp, -16
	movq	%rsp, %rbp
	.cfi_def_cfa_register %rbp
	subq	$184, %rsp
	movq	%rdi, -144(%rbp)
Ltmp1456:
	.loc	8 2637 40 prologue_end
	movq	%rdi, -136(%rbp)
Ltmp1457:
	.loc	8 1243 19
	movq	%rdi, -128(%rbp)
Ltmp1458:
	.loc	11 224 9
	movq	8(%rdi), %rcx
	movq	%rcx, -120(%rbp)
Ltmp1459:
	.loc	12 104 9
	movq	%rcx, -112(%rbp)
Ltmp1460:
	.loc	13 326 9
	movq	%rcx, -104(%rbp)
Ltmp1461:
	.loc	8 1245 21
	movq	%rcx, -96(%rbp)
Ltmp1462:
	.loc	6 52 36
	movq	%rcx, -184(%rbp)
	.loc	6 52 18 is_stmt 0
	movq	-184(%rbp), %rax
	movq	%rax, -88(%rbp)
Ltmp1463:
	.loc	6 38 13 is_stmt 1
	movq	%rax, -80(%rbp)
Ltmp1464:
	.loc	6 215 33
	movq	%rax, -72(%rbp)
	.loc	6 215 18 is_stmt 0
	movq	%rax, -64(%rbp)
Ltmp1465:
	.loc	8 1247 9 is_stmt 1
	movq	%rcx, -56(%rbp)
Ltmp1466:
	.loc	8 2637 55
	movq	16(%rdi), %rax
	movq	%rax, -48(%rbp)
Ltmp1467:
	.loc	36 100 37
	movq	%rcx, -40(%rbp)
	.loc	36 100 43 is_stmt 0
	movq	%rax, -32(%rbp)
Ltmp1468:
	.loc	4 734 20 is_stmt 1
	movq	%rcx, -24(%rbp)
Ltmp1469:
	.loc	3 61 9
	movq	%rcx, -16(%rbp)
Ltmp1470:
	.loc	4 734 33
	movq	%rax, -8(%rbp)
Ltmp1471:
	.loc	5 118 36
	movq	%rcx, -160(%rbp)
	movq	%rax, -152(%rbp)
	.loc	5 118 14 is_stmt 0
	movq	-160(%rbp), %rcx
	movq	-152(%rbp), %rax
	movq	%rcx, -176(%rbp)
	movq	%rax, -168(%rbp)
	movq	-176(%rbp), %rax
	movq	-168(%rbp), %rdx
Ltmp1472:
	.loc	8 2638 6 is_stmt 1
	addq	$184, %rsp
	popq	%rbp
	retq
Ltmp1473:
Lfunc_end133:
	.cfi_endproc

	.p2align	4, 0x90
__ZN72_$LT$alloc..vec..Vec$LT$T$C$A$GT$$u20$as$u20$core..ops..deref..Deref$GT$5deref17hb0852575872bc178E:
Lfunc_begin134:
	.loc	8 2636 0
	.cfi_startproc
	pushq	%rbp
	.cfi_def_cfa_offset 16
	.cfi_offset %rbp, -16
	movq	%rsp, %rbp
	.cfi_def_cfa_register %rbp
	subq	$184, %rsp
	movq	%rdi, -144(%rbp)
Ltmp1474:
	.loc	8 2637 40 prologue_end
	movq	%rdi, -136(%rbp)
Ltmp1475:
	.loc	8 1243 19
	movq	%rdi, -128(%rbp)
Ltmp1476:
	.loc	11 224 9
	movq	8(%rdi), %rcx
	movq	%rcx, -120(%rbp)
Ltmp1477:
	.loc	12 104 9
	movq	%rcx, -112(%rbp)
Ltmp1478:
	.loc	13 326 9
	movq	%rcx, -104(%rbp)
Ltmp1479:
	.loc	8 1245 21
	movq	%rcx, -96(%rbp)
Ltmp1480:
	.loc	6 52 36
	movq	%rcx, -184(%rbp)
	.loc	6 52 18 is_stmt 0
	movq	-184(%rbp), %rax
	movq	%rax, -88(%rbp)
Ltmp1481:
	.loc	6 38 13 is_stmt 1
	movq	%rax, -80(%rbp)
Ltmp1482:
	.loc	6 215 33
	movq	%rax, -72(%rbp)
	.loc	6 215 18 is_stmt 0
	movq	%rax, -64(%rbp)
Ltmp1483:
	.loc	8 1247 9 is_stmt 1
	movq	%rcx, -56(%rbp)
Ltmp1484:
	.loc	8 2637 55
	movq	16(%rdi), %rax
	movq	%rax, -48(%rbp)
Ltmp1485:
	.loc	36 100 37
	movq	%rcx, -40(%rbp)
	.loc	36 100 43 is_stmt 0
	movq	%rax, -32(%rbp)
Ltmp1486:
	.loc	4 734 20 is_stmt 1
	movq	%rcx, -24(%rbp)
Ltmp1487:
	.loc	3 61 9
	movq	%rcx, -16(%rbp)
Ltmp1488:
	.loc	4 734 33
	movq	%rax, -8(%rbp)
Ltmp1489:
	.loc	5 118 36
	movq	%rcx, -160(%rbp)
	movq	%rax, -152(%rbp)
	.loc	5 118 14 is_stmt 0
	movq	-160(%rbp), %rcx
	movq	-152(%rbp), %rax
	movq	%rcx, -176(%rbp)
	movq	%rax, -168(%rbp)
	movq	-176(%rbp), %rax
	movq	-168(%rbp), %rdx
Ltmp1490:
	.loc	8 2638 6 is_stmt 1
	addq	$184, %rsp
	popq	%rbp
	retq
Ltmp1491:
Lfunc_end134:
	.cfi_endproc

	.p2align	4, 0x90
__ZN73_$LT$$u5b$A$u5d$$u20$as$u20$core..slice..cmp..SlicePartialEq$LT$B$GT$$GT$5equal17hedddfc45e24624f5E:
Lfunc_begin135:
	.loc	37 82 0
	.cfi_startproc
	pushq	%rbp
	.cfi_def_cfa_offset 16
	.cfi_offset %rbp, -16
	movq	%rsp, %rbp
	.cfi_def_cfa_register %rbp
	subq	$144, %rsp
	movq	%rdi, -136(%rbp)
	movq	%rsi, -128(%rbp)
	movq	%rdx, -120(%rbp)
	movq	%rcx, -112(%rbp)
	movq	%rdi, -96(%rbp)
	movq	%rsi, -88(%rbp)
	movq	%rdx, -80(%rbp)
	movq	%rcx, -72(%rbp)
Ltmp1492:
	.loc	37 83 12 prologue_end
	cmpq	%rcx, %rsi
	jne	LBB135_2
	.loc	37 0 12 is_stmt 0
	movq	-120(%rbp), %rsi
	movq	-136(%rbp), %rdi
	movq	-112(%rbp), %rax
	movq	-128(%rbp), %rcx
	.loc	37 90 41 is_stmt 1
	movq	%rdi, -64(%rbp)
	movq	%rcx, -56(%rbp)
Ltmp1493:
	.loc	27 338 14
	movq	%rcx, %rdx
	shlq	$0, %rdx
	movq	%rdx, -48(%rbp)
	movq	-48(%rbp), %rdx
	movq	%rdx, -40(%rbp)
Ltmp1494:
	.loc	37 91 20
	movq	%rdi, -32(%rbp)
	movq	%rcx, -24(%rbp)
	.loc	37 91 48 is_stmt 0
	movq	%rsi, -16(%rbp)
	movq	%rax, -8(%rbp)
	.loc	37 91 13
	callq	_memcmp
	cmpl	$0, %eax
	sete	%al
	andb	$1, %al
	movb	%al, -97(%rbp)
Ltmp1495:
	.loc	37 93 6 is_stmt 1
	jmp	LBB135_3
LBB135_2:
	.loc	37 84 20
	movb	$0, -97(%rbp)
LBB135_3:
	.loc	37 93 6
	movb	-97(%rbp), %al
	andb	$1, %al
	movzbl	%al, %eax
	addq	$144, %rsp
	popq	%rbp
	retq
Ltmp1496:
Lfunc_end135:
	.cfi_endproc

	.p2align	4, 0x90
__ZN75_$LT$alloc..vec..Vec$LT$T$C$A$GT$$u20$as$u20$core..ops..deref..DerefMut$GT$9deref_mut17h830f705b436b269cE:
Lfunc_begin136:
	.loc	8 2644 0
	.cfi_startproc
	pushq	%rbp
	.cfi_def_cfa_offset 16
	.cfi_offset %rbp, -16
	movq	%rsp, %rbp
	.cfi_def_cfa_register %rbp
	subq	$176, %rsp
	movq	%rdi, -136(%rbp)
Ltmp1497:
	.loc	8 2645 44 prologue_end
	movq	%rdi, -128(%rbp)
Ltmp1498:
	.loc	8 1280 19
	movq	%rdi, -120(%rbp)
Ltmp1499:
	.loc	11 224 9
	movq	8(%rdi), %rcx
	movq	%rcx, -112(%rbp)
Ltmp1500:
	.loc	12 104 9
	movq	%rcx, -104(%rbp)
Ltmp1501:
	.loc	13 326 9
	movq	%rcx, -96(%rbp)
Ltmp1502:
	.loc	8 1282 21
	movq	%rcx, -88(%rbp)
Ltmp1503:
	.loc	6 52 36
	movq	%rcx, -176(%rbp)
	.loc	6 52 18 is_stmt 0
	movq	-176(%rbp), %rax
	movq	%rax, -80(%rbp)
Ltmp1504:
	.loc	6 38 13 is_stmt 1
	movq	%rax, -72(%rbp)
Ltmp1505:
	.loc	6 215 33
	movq	%rax, -64(%rbp)
	.loc	6 215 18 is_stmt 0
	movq	%rax, -56(%rbp)
Ltmp1506:
	.loc	8 2645 63 is_stmt 1
	movq	16(%rdi), %rax
	movq	%rax, -48(%rbp)
Ltmp1507:
	.loc	36 145 45
	movq	%rcx, -40(%rbp)
	.loc	36 145 51 is_stmt 0
	movq	%rax, -32(%rbp)
Ltmp1508:
	.loc	4 766 24 is_stmt 1
	movq	%rcx, -24(%rbp)
Ltmp1509:
	.loc	6 60 9
	movq	%rcx, -16(%rbp)
Ltmp1510:
	.loc	4 766 37
	movq	%rax, -8(%rbp)
Ltmp1511:
	.loc	5 135 36
	movq	%rcx, -152(%rbp)
	movq	%rax, -144(%rbp)
	.loc	5 135 14 is_stmt 0
	movq	-152(%rbp), %rcx
	movq	-144(%rbp), %rax
	movq	%rcx, -168(%rbp)
	movq	%rax, -160(%rbp)
	movq	-168(%rbp), %rax
	movq	-160(%rbp), %rdx
Ltmp1512:
	.loc	8 2646 6 is_stmt 1
	addq	$176, %rsp
	popq	%rbp
	retq
Ltmp1513:
Lfunc_end136:
	.cfi_endproc

	.p2align	4, 0x90
__ZN75_$LT$core..option..Option$LT$T$GT$$u20$as$u20$core..ops..try_trait..Try$GT$11from_output17h7d0e362c8c3f43d2E:
Lfunc_begin137:
	.loc	41 2401 0
	.cfi_startproc
	pushq	%rbp
	.cfi_def_cfa_offset 16
	.cfi_offset %rbp, -16
	movq	%rsp, %rbp
	.cfi_def_cfa_register %rbp
	subq	$24, %rsp
	movq	%rdi, -8(%rbp)
Ltmp1514:
	.loc	41 2402 9 prologue_end
	movq	%rdi, -16(%rbp)
	movq	$1, -24(%rbp)
	.loc	41 2403 6
	movq	-24(%rbp), %rax
	movq	-16(%rbp), %rdx
	addq	$24, %rsp
	popq	%rbp
	retq
Ltmp1515:
Lfunc_end137:
	.cfi_endproc

	.p2align	4, 0x90
__ZN75_$LT$core..option..Option$LT$T$GT$$u20$as$u20$core..ops..try_trait..Try$GT$6branch17hb0c7c4e63a39cad0E:
Lfunc_begin138:
	.loc	41 2406 0
	.cfi_startproc
	pushq	%rbp
	.cfi_def_cfa_offset 16
	.cfi_offset %rbp, -16
	movq	%rsp, %rbp
	.cfi_def_cfa_register %rbp
	subq	$40, %rsp
	movq	%rdi, -40(%rbp)
	movq	%rsi, -32(%rbp)
Ltmp1516:
	.loc	41 2407 9 prologue_end
	cmpq	$0, -40(%rbp)
	jne	LBB138_2
	.loc	41 2409 21
	movq	$1, -24(%rbp)
	.loc	41 2409 44 is_stmt 0
	jmp	LBB138_3
LBB138_2:
	.loc	41 2408 18 is_stmt 1
	movq	-32(%rbp), %rax
	movq	%rax, -8(%rbp)
Ltmp1517:
	.loc	41 2408 24 is_stmt 0
	movq	%rax, -16(%rbp)
	movq	$0, -24(%rbp)
Ltmp1518:
LBB138_3:
	.loc	41 2411 6 is_stmt 1
	movq	-24(%rbp), %rax
	movq	-16(%rbp), %rdx
	addq	$40, %rsp
	popq	%rbp
	retq
Ltmp1519:
Lfunc_end138:
	.cfi_endproc

	.p2align	4, 0x90
__ZN75_$LT$usize$u20$as$u20$core..slice..index..SliceIndex$LT$$u5b$T$u5d$$GT$$GT$3get17h24480e8eb0cb3b01E:
Lfunc_begin139:
	.loc	2 217 0
	.cfi_startproc
	pushq	%rbp
	.cfi_def_cfa_offset 16
	.cfi_offset %rbp, -16
	movq	%rsp, %rbp
	.cfi_def_cfa_register %rbp
	subq	$136, %rsp
	movq	%rdi, -136(%rbp)
	movq	%rsi, -128(%rbp)
	movq	%rdx, -120(%rbp)
	movq	%rdi, -104(%rbp)
	movq	%rsi, -96(%rbp)
	movq	%rdx, -88(%rbp)
Ltmp1520:
	.loc	2 219 12 prologue_end
	cmpq	%rdx, %rdi
	jb	LBB139_2
	.loc	2 219 87 is_stmt 0
	movq	$0, -112(%rbp)
	.loc	2 219 9
	jmp	LBB139_3
LBB139_2:
	.loc	2 0 9
	movq	-128(%rbp), %rax
	movq	-136(%rbp), %rcx
	movq	-120(%rbp), %rdx
	.loc	2 219 49
	movq	%rcx, -80(%rbp)
	.loc	2 219 68
	movq	%rax, -72(%rbp)
	movq	%rdx, -64(%rbp)
Ltmp1521:
	.loc	2 240 13 is_stmt 1
	movq	%rax, -56(%rbp)
	movq	%rdx, -48(%rbp)
Ltmp1522:
	.loc	3 1650 9
	movq	%rax, -40(%rbp)
Ltmp1523:
	.loc	2 240 32
	movq	%rcx, -32(%rbp)
Ltmp1524:
	.loc	3 932 18
	movq	%rax, -24(%rbp)
	.loc	3 932 30 is_stmt 0
	movq	%rcx, -16(%rbp)
Ltmp1525:
	.loc	3 473 18 is_stmt 1
	shlq	$4, %rcx
	addq	%rcx, %rax
	movq	%rax, -8(%rbp)
	movq	-8(%rbp), %rax
Ltmp1526:
	.loc	2 219 42
	movq	%rax, -112(%rbp)
LBB139_3:
	.loc	2 220 6
	movq	-112(%rbp), %rax
