	.section	__TEXT,__text,regular,pure_instructions
	.macosx_version_min 10, 7
	.p2align	4, 0x90
__ZN104_$LT$core..ops..control_flow..ControlFlow$LT$B$C$C$GT$$u20$as$u20$core..ops..try_trait..FromResidual$GT$13from_residual17hc292706893408e8fE:
Lfunc_begin0:
	.file	1 "/rustc/2c8cc343237b8f7d5a3c3703e3a87f2eb2c54a74/library/core/src/ops" "control_flow.rs"
	.loc	1 123 0
	.cfi_startproc
	pushq	%rbp
	.cfi_def_cfa_offset 16
	.cfi_offset %rbp, -16
	movq	%rsp, %rbp
	.cfi_def_cfa_register %rbp
	subq	$32, %rsp
	movq	%rdi, -32(%rbp)
Ltmp0:
	.loc	1 125 32 prologue_end
	movq	-32(%rbp), %rax
	movq	%rax, -8(%rbp)
Ltmp1:
	.loc	1 125 38 is_stmt 0
	movq	%rax, -16(%rbp)
	movq	$1, -24(%rbp)
Ltmp2:
	.loc	1 127 6 is_stmt 1
	movq	-24(%rbp), %rax
	movq	-16(%rbp), %rdx
	addq	$32, %rsp
	popq	%rbp
	retq
Ltmp3:
Lfunc_end0:
	.cfi_endproc

	.p2align	4, 0x90
__ZN104_$LT$core..ops..control_flow..ControlFlow$LT$B$C$C$GT$$u20$as$u20$core..ops..try_trait..FromResidual$GT$13from_residual17he89cd1f0bfecdda8E:
Lfunc_begin1:
	.loc	1 123 0
	.cfi_startproc
	pushq	%rbp
	.cfi_def_cfa_offset 16
	.cfi_offset %rbp, -16
	movq	%rsp, %rbp
	.cfi_def_cfa_register %rbp
	subq	$24, %rsp
Ltmp4:
	.loc	1 125 38 prologue_end
	movb	$1, -17(%rbp)
Ltmp5:
	.loc	1 127 6
	movb	-17(%rbp), %al
	andb	$1, %al
	movzbl	%al, %eax
	addq	$24, %rsp
	popq	%rbp
	retq
Ltmp6:
Lfunc_end1:
	.cfi_endproc

	.p2align	4, 0x90
__ZN106_$LT$core..ops..range..Range$LT$usize$GT$$u20$as$u20$core..slice..index..SliceIndex$LT$$u5b$T$u5d$$GT$$GT$13get_unchecked17h88cb10938717fcc3E:
Lfunc_begin2:
	.file	2 "/rustc/2c8cc343237b8f7d5a3c3703e3a87f2eb2c54a74/library/core/src/slice" "index.rs"
	.loc	2 373 0
	.cfi_startproc
	pushq	%rbp
	.cfi_def_cfa_offset 16
	.cfi_offset %rbp, -16
	movq	%rsp, %rbp
	.cfi_def_cfa_register %rbp
	subq	$160, %rsp
	movq	%rdi, -128(%rbp)
	movq	%rsi, -120(%rbp)
	movq	%rdx, -112(%rbp)
	movq	%rcx, -104(%rbp)
Ltmp7:
	.loc	2 386 39 prologue_end
	movq	%rdx, -96(%rbp)
	movq	%rcx, -88(%rbp)
Ltmp8:
	.file	3 "/rustc/2c8cc343237b8f7d5a3c3703e3a87f2eb2c54a74/library/core/src/ptr" "const_ptr.rs"
	.loc	3 1650 9
	movq	%rdx, -80(%rbp)
Ltmp9:
	.loc	2 386 58
	movq	%rdi, -72(%rbp)
Ltmp10:
	.loc	3 932 18
	movq	%rdx, -64(%rbp)
	.loc	3 932 30 is_stmt 0
	movq	%rdi, -56(%rbp)
Ltmp11:
	.loc	3 473 18 is_stmt 1
	addq	%rdi, %rdx
	movq	%rdx, -48(%rbp)
	movq	-48(%rbp), %rax
	movq	%rax, -40(%rbp)
Ltmp12:
	.loc	2 386 71
	subq	%rdi, %rsi
	movq	%rsi, -32(%rbp)
Ltmp13:
	.file	4 "/rustc/2c8cc343237b8f7d5a3c3703e3a87f2eb2c54a74/library/core/src/ptr" "mod.rs"
	.loc	4 734 20
	movq	%rax, -24(%rbp)
Ltmp14:
	.loc	3 61 9
	movq	%rax, -16(%rbp)
Ltmp15:
	.loc	4 734 33
	movq	%rsi, -8(%rbp)
Ltmp16:
	.file	5 "/rustc/2c8cc343237b8f7d5a3c3703e3a87f2eb2c54a74/library/core/src/ptr" "metadata.rs"
	.loc	5 118 36
	movq	%rax, -144(%rbp)
	movq	%rsi, -136(%rbp)
	.loc	5 118 14 is_stmt 0
	movq	-144(%rbp), %rcx
	movq	-136(%rbp), %rax
	movq	%rcx, -160(%rbp)
	movq	%rax, -152(%rbp)
	movq	-160(%rbp), %rax
	movq	-152(%rbp), %rdx
Ltmp17:
	.loc	2 388 6 is_stmt 1
	addq	$160, %rsp
	popq	%rbp
	retq
Ltmp18:
Lfunc_end2:
	.cfi_endproc

	.p2align	4, 0x90
__ZN106_$LT$core..ops..range..Range$LT$usize$GT$$u20$as$u20$core..slice..index..SliceIndex$LT$$u5b$T$u5d$$GT$$GT$17get_unchecked_mut17h4ef808f0127fa17eE:
Lfunc_begin3:
	.loc	2 391 0
	.cfi_startproc
	pushq	%rbp
	.cfi_def_cfa_offset 16
	.cfi_offset %rbp, -16
	movq	%rsp, %rbp
	.cfi_def_cfa_register %rbp
	subq	$160, %rsp
	movq	%rdi, -128(%rbp)
	movq	%rsi, -120(%rbp)
	movq	%rdx, -112(%rbp)
	movq	%rcx, -104(%rbp)
Ltmp19:
	.loc	2 400 43 prologue_end
	movq	%rdx, -96(%rbp)
	movq	%rcx, -88(%rbp)
Ltmp20:
	.file	6 "/rustc/2c8cc343237b8f7d5a3c3703e3a87f2eb2c54a74/library/core/src/ptr" "mut_ptr.rs"
	.loc	6 2037 9
	movq	%rdx, -80(%rbp)
Ltmp21:
	.loc	2 400 66
	movq	%rdi, -72(%rbp)
Ltmp22:
	.loc	6 1034 18
	movq	%rdx, -64(%rbp)
	.loc	6 1034 30 is_stmt 0
	movq	%rdi, -56(%rbp)
Ltmp23:
	.loc	6 487 18 is_stmt 1
	addq	%rdi, %rdx
	movq	%rdx, -48(%rbp)
	movq	-48(%rbp), %rax
	movq	%rax, -40(%rbp)
Ltmp24:
	.loc	2 400 79
	subq	%rdi, %rsi
	movq	%rsi, -32(%rbp)
Ltmp25:
	.loc	4 766 24
	movq	%rax, -24(%rbp)
Ltmp26:
	.loc	6 60 9
	movq	%rax, -16(%rbp)
Ltmp27:
	.loc	4 766 37
	movq	%rsi, -8(%rbp)
Ltmp28:
	.loc	5 135 36
	movq	%rax, -144(%rbp)
	movq	%rsi, -136(%rbp)
	.loc	5 135 14 is_stmt 0
	movq	-144(%rbp), %rcx
	movq	-136(%rbp), %rax
	movq	%rcx, -160(%rbp)
	movq	%rax, -152(%rbp)
	movq	-160(%rbp), %rax
	movq	-152(%rbp), %rdx
Ltmp29:
	.loc	2 402 6 is_stmt 1
	addq	$160, %rsp
	popq	%rbp
	retq
Ltmp30:
Lfunc_end3:
	.cfi_endproc

	.p2align	4, 0x90
__ZN106_$LT$core..ops..range..Range$LT$usize$GT$$u20$as$u20$core..slice..index..SliceIndex$LT$$u5b$T$u5d$$GT$$GT$3get17ha9ea632765c34b4aE:
Lfunc_begin4:
	.loc	2 353 0
	.cfi_startproc
	pushq	%rbp
	.cfi_def_cfa_offset 16
	.cfi_offset %rbp, -16
	movq	%rsp, %rbp
	.cfi_def_cfa_register %rbp
	subq	$96, %rsp
	movq	%rdi, -88(%rbp)
	movq	%rsi, -80(%rbp)
	movq	%rdx, -72(%rbp)
	movq	%rcx, -64(%rbp)
	movq	%rdi, -32(%rbp)
	movq	%rsi, -24(%rbp)
	movq	%rdx, -16(%rbp)
	movq	%rcx, -8(%rbp)
Ltmp31:
	.loc	2 354 12 prologue_end
	cmpq	%rsi, %rdi
	ja	LBB4_2
	.loc	2 0 12 is_stmt 0
	movq	-80(%rbp), %rax
	movq	-64(%rbp), %rcx
	.loc	2 354 37
	cmpq	%rcx, %rax
	seta	%al
	.loc	2 354 12
	andb	$1, %al
	movb	%al, -33(%rbp)
	jmp	LBB4_3
LBB4_2:
	movb	$1, -33(%rbp)
LBB4_3:
	testb	$1, -33(%rbp)
	jne	LBB4_5
	.loc	2 0 12
	movq	-64(%rbp), %rcx
	movq	-72(%rbp), %rdx
	movq	-80(%rbp), %rsi
	movq	-88(%rbp), %rdi
	.loc	2 358 29 is_stmt 1
	callq	__ZN106_$LT$core..ops..range..Range$LT$usize$GT$$u20$as$u20$core..slice..index..SliceIndex$LT$$u5b$T$u5d$$GT$$GT$13get_unchecked17h88cb10938717fcc3E
	.loc	2 358 22 is_stmt 0
	movq	%rax, -56(%rbp)
	movq	%rdx, -48(%rbp)
	.loc	2 354 9 is_stmt 1
	jmp	LBB4_6
LBB4_5:
	.loc	2 355 13
	movq	$0, -56(%rbp)
LBB4_6:
	.loc	2 360 6
	movq	-56(%rbp), %rax
	movq	-48(%rbp), %rdx
	addq	$96, %rsp
	popq	%rbp
	retq
Ltmp32:
Lfunc_end4:
	.cfi_endproc

	.p2align	4, 0x90
__ZN106_$LT$core..ops..range..Range$LT$usize$GT$$u20$as$u20$core..slice..index..SliceIndex$LT$$u5b$T$u5d$$GT$$GT$5index17he0cd84564df62fb8E:
Lfunc_begin5:
	.loc	2 405 0
	.cfi_startproc
	pushq	%rbp
	.cfi_def_cfa_offset 16
	.cfi_offset %rbp, -16
	movq	%rsp, %rbp
	.cfi_def_cfa_register %rbp
	subq	$80, %rsp
	movq	%rdi, -72(%rbp)
	movq	%rsi, -64(%rbp)
	movq	%rdx, -56(%rbp)
	movq	%rcx, -48(%rbp)
	movq	%r8, -40(%rbp)
	movq	%rdi, -32(%rbp)
	movq	%rsi, -24(%rbp)
	movq	%rdx, -16(%rbp)
	movq	%rcx, -8(%rbp)
Ltmp33:
	.loc	2 406 12 prologue_end
	cmpq	%rsi, %rdi
	ja	LBB5_2
	.loc	2 0 12 is_stmt 0
	movq	-64(%rbp), %rax
	movq	-48(%rbp), %rcx
	.loc	2 408 19 is_stmt 1
	cmpq	%rcx, %rax
	ja	LBB5_4
	jmp	LBB5_3
LBB5_2:
	.loc	2 0 19 is_stmt 0
	movq	-40(%rbp), %rdx
	movq	-64(%rbp), %rsi
	movq	-72(%rbp), %rdi
	.loc	2 407 13 is_stmt 1
	callq	__ZN4core5slice5index22slice_index_order_fail17h0d8f800a07d5f26eE
LBB5_3:
	.loc	2 0 13 is_stmt 0
	movq	-48(%rbp), %rcx
	movq	-56(%rbp), %rdx
	movq	-64(%rbp), %rsi
	movq	-72(%rbp), %rdi
	.loc	2 412 20 is_stmt 1
	callq	__ZN106_$LT$core..ops..range..Range$LT$usize$GT$$u20$as$u20$core..slice..index..SliceIndex$LT$$u5b$T$u5d$$GT$$GT$13get_unchecked17h88cb10938717fcc3E
	.loc	2 413 6
	addq	$80, %rsp
	popq	%rbp
	retq
LBB5_4:
	.loc	2 0 6 is_stmt 0
	movq	-40(%rbp), %rdx
	movq	-48(%rbp), %rsi
	movq	-64(%rbp), %rdi
	.loc	2 409 13 is_stmt 1
	callq	__ZN4core5slice5index24slice_end_index_len_fail17hc921cb2f1513645aE
Ltmp34:
Lfunc_end5:
	.cfi_endproc

	.p2align	4, 0x90
__ZN106_$LT$core..ops..range..Range$LT$usize$GT$$u20$as$u20$core..slice..index..SliceIndex$LT$$u5b$T$u5d$$GT$$GT$9index_mut17h300d1708029c32e0E:
Lfunc_begin6:
	.loc	2 416 0
	.cfi_startproc
	pushq	%rbp
	.cfi_def_cfa_offset 16
	.cfi_offset %rbp, -16
	movq	%rsp, %rbp
	.cfi_def_cfa_register %rbp
	subq	$80, %rsp
	movq	%rdi, -72(%rbp)
	movq	%rsi, -64(%rbp)
	movq	%rdx, -56(%rbp)
	movq	%rcx, -48(%rbp)
	movq	%r8, -40(%rbp)
	movq	%rdi, -32(%rbp)
	movq	%rsi, -24(%rbp)
	movq	%rdx, -16(%rbp)
	movq	%rcx, -8(%rbp)
Ltmp35:
	.loc	2 417 12 prologue_end
	cmpq	%rsi, %rdi
	ja	LBB6_2
	.loc	2 0 12 is_stmt 0
	movq	-64(%rbp), %rax
	movq	-48(%rbp), %rcx
	.loc	2 419 19 is_stmt 1
	cmpq	%rcx, %rax
	ja	LBB6_4
	jmp	LBB6_3
LBB6_2:
	.loc	2 0 19 is_stmt 0
	movq	-40(%rbp), %rdx
	movq	-64(%rbp), %rsi
	movq	-72(%rbp), %rdi
	.loc	2 418 13 is_stmt 1
	callq	__ZN4core5slice5index22slice_index_order_fail17h0d8f800a07d5f26eE
LBB6_3:
	.loc	2 0 13 is_stmt 0
	movq	-48(%rbp), %rcx
	movq	-56(%rbp), %rdx
	movq	-64(%rbp), %rsi
	movq	-72(%rbp), %rdi
	.loc	2 423 24 is_stmt 1
	callq	__ZN106_$LT$core..ops..range..Range$LT$usize$GT$$u20$as$u20$core..slice..index..SliceIndex$LT$$u5b$T$u5d$$GT$$GT$17get_unchecked_mut17h4ef808f0127fa17eE
	.loc	2 424 6
	addq	$80, %rsp
	popq	%rbp
	retq
LBB6_4:
	.loc	2 0 6 is_stmt 0
	movq	-40(%rbp), %rdx
	movq	-48(%rbp), %rsi
	movq	-64(%rbp), %rdi
	.loc	2 420 13 is_stmt 1
	callq	__ZN4core5slice5index24slice_end_index_len_fail17hc921cb2f1513645aE
Ltmp36:
Lfunc_end6:
	.cfi_endproc

	.p2align	4, 0x90
__ZN110_$LT$core..ops..range..RangeFrom$LT$usize$GT$$u20$as$u20$core..slice..index..SliceIndex$LT$$u5b$T$u5d$$GT$$GT$5index17h7431057b8e79af9cE:
Lfunc_begin7:
	.loc	2 493 0
	.cfi_startproc
	pushq	%rbp
	.cfi_def_cfa_offset 16
	.cfi_offset %rbp, -16
	movq	%rsp, %rbp
	.cfi_def_cfa_register %rbp
	subq	$144, %rsp
	movq	%rdi, -144(%rbp)
	movq	%rsi, -136(%rbp)
	movq	%rdx, -128(%rbp)
	movq	%rcx, -120(%rbp)
	movq	%rdi, -80(%rbp)
	movq	%rsi, -72(%rbp)
	movq	%rdx, -64(%rbp)
Ltmp37:
	.loc	2 494 12 prologue_end
	cmpq	%rdx, %rdi
	ja	LBB7_2
	.loc	2 0 12 is_stmt 0
	movq	-128(%rbp), %rcx
	movq	-136(%rbp), %rdx
	movq	-144(%rbp), %rsi
	.loc	2 498 20 is_stmt 1
	movq	%rsi, -56(%rbp)
	.loc	2 498 39 is_stmt 0
	movq	%rdx, -48(%rbp)
	movq	%rcx, -40(%rbp)
Ltmp38:
	.loc	2 483 31 is_stmt 1
	movq	%rdx, -32(%rbp)
	movq	%rcx, -24(%rbp)
Ltmp39:
	.loc	3 1630 18
	movq	%rdx, -16(%rbp)
	movq	%rcx, -8(%rbp)
Ltmp40:
	.loc	5 98 14
	movq	%rdx, -96(%rbp)
	movq	%rcx, -88(%rbp)
	movq	-88(%rbp), %rax
Ltmp41:
	.loc	2 483 18
	movq	%rsi, -112(%rbp)
	movq	%rax, -104(%rbp)
	movq	-112(%rbp), %rdi
	movq	-104(%rbp), %rsi
	callq	__ZN106_$LT$core..ops..range..Range$LT$usize$GT$$u20$as$u20$core..slice..index..SliceIndex$LT$$u5b$T$u5d$$GT$$GT$13get_unchecked17h88cb10938717fcc3E
Ltmp42:
	.loc	2 499 6
	addq	$144, %rsp
	popq	%rbp
	retq
LBB7_2:
	.loc	2 0 6 is_stmt 0
	movq	-120(%rbp), %rdx
	movq	-128(%rbp), %rsi
	movq	-144(%rbp), %rdi
	.loc	2 495 13 is_stmt 1
	callq	__ZN4core5slice5index26slice_start_index_len_fail17h9d301bb51ec3e351E
Ltmp43:
Lfunc_end7:
	.cfi_endproc

	.p2align	4, 0x90
__ZN111_$LT$core..iter..adapters..zip..Zip$LT$A$C$B$GT$$u20$as$u20$core..iter..adapters..zip..ZipImpl$LT$A$C$B$GT$$GT$3new17h50c4598207280dcaE:
Lfunc_begin8:
	.file	7 "/rustc/2c8cc343237b8f7d5a3c3703e3a87f2eb2c54a74/library/core/src/iter/adapters" "zip.rs"
	.loc	7 262 0
	.cfi_startproc
	.cfi_personality 155, _rust_eh_personality
	.cfi_lsda 16, Lexception0
	pushq	%rbp
	.cfi_def_cfa_offset 16
	.cfi_offset %rbp, -16
	movq	%rsp, %rbp
	.cfi_def_cfa_register %rbp
	subq	$144, %rsp
	movq	%rdi, -120(%rbp)
	movq	%rdi, -112(%rbp)
	movq	%rsi, -96(%rbp)
	movq	%rdx, -88(%rbp)
	movq	%rcx, -80(%rbp)
	movq	%r8, -72(%rbp)
Ltmp44:
	leaq	-96(%rbp), %rdi
Ltmp51:
	.loc	7 263 21 prologue_end
	callq	__ZN4core4iter8adapters3zip27TrustedRandomAccessNoCoerce4size17he482a14fc9f2812fE
Ltmp45:
	movq	%rax, -104(%rbp)
	jmp	LBB8_3
LBB8_1:
	.loc	7 262 5
	movq	-64(%rbp), %rdi
	callq	__Unwind_Resume
LBB8_2:
Ltmp50:
	.loc	7 0 5 is_stmt 0
	movq	%rax, %rcx
	movl	%edx, %eax
	movq	%rcx, -64(%rbp)
	movl	%eax, -56(%rbp)
	jmp	LBB8_1
LBB8_3:
	movq	-104(%rbp), %rax
	.loc	7 263 21 is_stmt 1
	movq	%rax, -48(%rbp)
Ltmp52:
	.loc	7 264 28
	movq	%rax, -40(%rbp)
Ltmp46:
	leaq	-80(%rbp), %rdi
	.loc	7 264 35 is_stmt 0
	callq	__ZN4core4iter8adapters3zip27TrustedRandomAccessNoCoerce4size17he482a14fc9f2812fE
Ltmp47:
	movq	%rax, -128(%rbp)
	jmp	LBB8_4
LBB8_4:
	.loc	7 0 35
	movq	-128(%rbp), %rsi
	movq	-104(%rbp), %rdi
	.loc	7 264 35
	movq	%rsi, -32(%rbp)
Ltmp53:
	.file	8 "/rustc/2c8cc343237b8f7d5a3c3703e3a87f2eb2c54a74/library/core/src" "cmp.rs"
	.loc	8 1185 5 is_stmt 1
	movq	%rdi, -24(%rbp)
	.loc	8 1185 12 is_stmt 0
	movq	%rsi, -16(%rbp)
Ltmp48:
Ltmp54:
	.loc	8 833 13 is_stmt 1
	callq	__ZN4core3cmp6min_by17h0205f983a4d285a8E
Ltmp49:
	movq	%rax, -136(%rbp)
	jmp	LBB8_5
LBB8_5:
	.loc	8 0 13 is_stmt 0
	movq	-112(%rbp), %rax
	movq	-120(%rbp), %rcx
	movq	-104(%rbp), %rdx
	movq	-136(%rbp), %rsi
	.loc	8 833 13
	movq	%rsi, -8(%rbp)
Ltmp55:
	.loc	7 265 15 is_stmt 1
	movq	-96(%rbp), %r10
	movq	-88(%rbp), %r9
	.loc	7 265 18 is_stmt 0
	movq	-80(%rbp), %r8
	movq	-72(%rbp), %rdi
	.loc	7 265 9
	movq	%r10, (%rcx)
	movq	%r9, 8(%rcx)
	movq	%r8, 16(%rcx)
	movq	%rdi, 24(%rcx)
	movq	$0, 32(%rcx)
	movq	%rsi, 40(%rcx)
	movq	%rdx, 48(%rcx)
Ltmp56:
	.loc	7 266 6 is_stmt 1
	addq	$144, %rsp
	popq	%rbp
	retq
Ltmp57:
Lfunc_end8:
	.cfi_endproc
	.section	__TEXT,__gcc_except_tab
	.p2align	2
GCC_except_table8:
Lexception0:
	.byte	255
	.byte	255
	.byte	1
	.uleb128 Lcst_end0-Lcst_begin0
Lcst_begin0:
	.uleb128 Ltmp44-Lfunc_begin8
	.uleb128 Ltmp45-Ltmp44
	.uleb128 Ltmp50-Lfunc_begin8
	.byte	0
	.uleb128 Ltmp45-Lfunc_begin8
	.uleb128 Ltmp46-Ltmp45
	.byte	0
	.byte	0
	.uleb128 Ltmp46-Lfunc_begin8
	.uleb128 Ltmp49-Ltmp46
	.uleb128 Ltmp50-Lfunc_begin8
	.byte	0
Lcst_end0:
	.p2align	2

	.section	__TEXT,__text,regular,pure_instructions
	.p2align	4, 0x90
__ZN111_$LT$core..iter..adapters..zip..Zip$LT$A$C$B$GT$$u20$as$u20$core..iter..adapters..zip..ZipImpl$LT$A$C$B$GT$$GT$4next17he4efef0642294678E:
Lfunc_begin9:
	.loc	7 269 0
	.cfi_startproc
	.cfi_personality 155, _rust_eh_personality
	.cfi_lsda 16, Lexception1
	pushq	%rbp
	.cfi_def_cfa_offset 16
	.cfi_offset %rbp, -16
	movq	%rsp, %rbp
	.cfi_def_cfa_register %rbp
	subq	$112, %rsp
	movq	%rdi, -88(%rbp)
	movq	%rdi, -40(%rbp)
Ltmp61:
	.loc	7 270 12 prologue_end
	movq	32(%rdi), %rax
	cmpq	40(%rdi), %rax
	jb	LBB9_2
	.loc	7 279 19
	xorl	%eax, %eax
	testb	$1, %al
	jne	LBB9_8
	jmp	LBB9_7
LBB9_2:
	.loc	7 0 19 is_stmt 0
	movq	-88(%rbp), %rdi
	.loc	7 271 21 is_stmt 1
	movq	32(%rdi), %rsi
	movq	%rsi, -112(%rbp)
	movq	%rsi, -32(%rbp)
Ltmp62:
	.loc	7 274 13
	movq	32(%rdi), %rax
	incq	%rax
	movq	%rax, 32(%rdi)
	.loc	7 277 23
	callq	__ZN91_$LT$core..slice..iter..Iter$LT$T$GT$$u20$as$u20$core..iter..traits..iterator..Iterator$GT$24__iterator_get_unchecked17hdf962d0c04d53dc9E
	movq	-88(%rbp), %rdi
	movq	-112(%rbp), %rsi
	movq	%rax, -104(%rbp)
	.loc	7 277 59 is_stmt 0
	addq	$16, %rdi
Ltmp58:
	callq	__ZN91_$LT$core..slice..iter..Iter$LT$T$GT$$u20$as$u20$core..iter..traits..iterator..Iterator$GT$24__iterator_get_unchecked17hdf962d0c04d53dc9E
Ltmp59:
	movq	%rax, -96(%rbp)
	jmp	LBB9_5
Ltmp63:
LBB9_3:
	.loc	7 269 5 is_stmt 1
	movq	-24(%rbp), %rdi
	callq	__Unwind_Resume
LBB9_4:
Ltmp60:
	.loc	7 0 5 is_stmt 0
	movq	%rax, %rcx
	movl	%edx, %eax
	movq	%rcx, -24(%rbp)
	movl	%eax, -16(%rbp)
	jmp	LBB9_3
LBB9_5:
	movq	-96(%rbp), %rax
	movq	-104(%rbp), %rcx
Ltmp64:
	.loc	7 277 22 is_stmt 1
	movq	%rcx, -64(%rbp)
	movq	%rax, -56(%rbp)
	.loc	7 277 17 is_stmt 0
	movq	-64(%rbp), %rcx
	movq	-56(%rbp), %rax
	movq	%rcx, -80(%rbp)
	movq	%rax, -72(%rbp)
Ltmp65:
LBB9_6:
	.loc	7 293 6 is_stmt 1
	movq	-80(%rbp), %rax
	movq	-72(%rbp), %rdx
	addq	$112, %rsp
	popq	%rbp
	retq
LBB9_7:
	.loc	7 279 19
	movb	$0, -41(%rbp)
	jmp	LBB9_9
LBB9_8:
	.loc	7 0 19 is_stmt 0
	movq	-88(%rbp), %rcx
	.loc	7 279 46
	movq	32(%rcx), %rax
	cmpq	48(%rcx), %rax
	setb	%al
	.loc	7 279 19
	andb	$1, %al
	movb	%al, -41(%rbp)
LBB9_9:
	testb	$1, -41(%rbp)
	jne	LBB9_11
	.loc	7 291 13 is_stmt 1
	movq	$0, -80(%rbp)
	.loc	7 279 16
	jmp	LBB9_12
LBB9_11:
	.loc	7 0 16 is_stmt 0
	movq	-88(%rbp), %rdi
	.loc	7 280 21 is_stmt 1
	movq	32(%rdi), %rsi
	movq	%rsi, -8(%rbp)
Ltmp66:
	.loc	7 282 13
	movq	32(%rdi), %rax
	addq	$1, %rax
	movq	%rax, 32(%rdi)
	.loc	7 283 13
	movq	40(%rdi), %rax
	addq	$1, %rax
	movq	%rax, 40(%rdi)
	.loc	7 287 17
	callq	__ZN91_$LT$core..slice..iter..Iter$LT$T$GT$$u20$as$u20$core..iter..traits..iterator..Iterator$GT$24__iterator_get_unchecked17hdf962d0c04d53dc9E
	.loc	7 289 13
	movq	$0, -80(%rbp)
Ltmp67:
LBB9_12:
	.loc	7 270 9
	jmp	LBB9_6
Ltmp68:
Lfunc_end9:
	.cfi_endproc
	.section	__TEXT,__gcc_except_tab
	.p2align	2
GCC_except_table9:
Lexception1:
	.byte	255
	.byte	255
	.byte	1
	.uleb128 Lcst_end1-Lcst_begin1
Lcst_begin1:
	.uleb128 Lfunc_begin9-Lfunc_begin9
	.uleb128 Ltmp58-Lfunc_begin9
	.byte	0
	.byte	0
	.uleb128 Ltmp58-Lfunc_begin9
	.uleb128 Ltmp59-Ltmp58
	.uleb128 Ltmp60-Lfunc_begin9
	.byte	0
	.uleb128 Ltmp59-Lfunc_begin9
	.uleb128 Lfunc_end9-Ltmp59
	.byte	0
	.byte	0
Lcst_end1:
	.p2align	2

	.section	__TEXT,__text,regular,pure_instructions
	.p2align	4, 0x90
__ZN114_$LT$core..core_simd..masks..Mask$LT$T$C$16_usize$GT$$u20$as$u20$core..core_simd..masks..to_bitmask..ToBitMask$GT$10to_bitmask17h857c091087078263E:
Lfunc_begin10:
	.file	9 "/rustc/2c8cc343237b8f7d5a3c3703e3a87f2eb2c54a74/library/core/src/../../portable-simd/crates/core_simd/src/masks" "to_bitmask.rs"
	.loc	9 51 0
	.cfi_startproc
	pushq	%rbp
	.cfi_def_cfa_offset 16
	.cfi_offset %rbp, -16
	movq	%rsp, %rbp
	.cfi_def_cfa_register %rbp
	subq	$32, %rsp
Ltmp69:
	.loc	9 52 17 prologue_end
	movaps	(%rdi), %xmm0
	movaps	%xmm0, -32(%rbp)
Ltmp70:
	.file	10 "/rustc/2c8cc343237b8f7d5a3c3703e3a87f2eb2c54a74/library/core/src/../../portable-simd/crates/core_simd/src/masks" "full_masks.rs"
	.loc	10 213 35
	pmovmskb	%xmm0, %eax
	movw	%ax, -2(%rbp)
	movw	-2(%rbp), %ax
Ltmp71:
	.loc	9 53 14
	addq	$32, %rsp
	popq	%rbp
	retq
Ltmp72:
Lfunc_end10:
	.cfi_endproc

	.p2align	4, 0x90
__ZN116_$LT$core..core_simd..vector..Simd$LT$T$C$_$GT$$u20$as$u20$core..convert..From$LT$$u5b$T$u3b$$u20$LANES$u5d$$GT$$GT$4from17h324fdd64931aa290E:
Lfunc_begin11:
	.file	11 "/rustc/2c8cc343237b8f7d5a3c3703e3a87f2eb2c54a74/library/core/src/../../portable-simd/crates/core_simd/src" "vector.rs"
	.loc	11 627 0
	.cfi_startproc
	pushq	%rbp
	.cfi_def_cfa_offset 16
	.cfi_offset %rbp, -16
	movq	%rsp, %rbp
	.cfi_def_cfa_register %rbp
	subq	$3, %rsp
	movb	%sil, %cl
	movq	%rdi, %rax
	movb	%cl, -2(%rbp)
	movb	-2(%rbp), %cl
	movb	%cl, -3(%rbp)
Ltmp73:
	.loc	11 628 14 prologue_end
	movb	-3(%rbp), %cl
	movb	%cl, -1(%rbp)
	.loc	11 628 9 is_stmt 0
	movb	-1(%rbp), %cl
	movb	%cl, (%rdi)
	.loc	11 629 6 is_stmt 1
	addq	$3, %rsp
	popq	%rbp
	retq
Ltmp74:
Lfunc_end11:
	.cfi_endproc

	.p2align	4, 0x90
__ZN119_$LT$alloc..collections..btree..map..BTreeMap$LT$K$C$V$C$A$GT$$u20$as$u20$core..iter..traits..collect..IntoIterator$GT$9into_iter17hdd6702400ccf8423E:
Lfunc_begin12:
	.file	12 "/rustc/2c8cc343237b8f7d5a3c3703e3a87f2eb2c54a74/library/alloc/src/collections/btree" "map.rs"
	.loc	12 1615 0
	.cfi_startproc
	pushq	%rbp
	.cfi_def_cfa_offset 16
	.cfi_offset %rbp, -16
	movq	%rsp, %rbp
	.cfi_def_cfa_register %rbp
	subq	$480, %rsp
	movq	%rdi, -464(%rbp)
	movq	%rdi, -456(%rbp)
Ltmp75:
	.loc	12 1616 40 prologue_end
	movq	16(%rsi), %rax
	movq	%rax, -408(%rbp)
	movq	(%rsi), %rax
	movq	8(%rsi), %rcx
	movq	%rcx, -416(%rbp)
	movq	%rax, -424(%rbp)
Ltmp76:
	.file	13 "/rustc/2c8cc343237b8f7d5a3c3703e3a87f2eb2c54a74/library/core/src/mem" "manually_drop.rs"
	.loc	13 71 24
	movq	-408(%rbp), %rax
	movq	%rax, -176(%rbp)
	movq	-424(%rbp), %rax
	movq	-416(%rbp), %rcx
	movq	%rcx, -184(%rbp)
	movq	%rax, -192(%rbp)
	.loc	13 71 9 is_stmt 0
	movq	-176(%rbp), %rax
	movq	%rax, -432(%rbp)
	movq	-192(%rbp), %rax
	movq	-184(%rbp), %rcx
	movq	%rcx, -440(%rbp)
	movq	%rax, -448(%rbp)
	leaq	-448(%rbp), %rdi
Ltmp77:
	.loc	12 1617 29 is_stmt 1
	movq	%rdi, -104(%rbp)
	movq	%rdi, -96(%rbp)
Ltmp78:
	.file	14 "/rustc/2c8cc343237b8f7d5a3c3703e3a87f2eb2c54a74/library/core/src" "option.rs"
	.loc	14 1623 28
	movq	$0, -160(%rbp)
	.loc	14 1623 9 is_stmt 0
	movq	-168(%rbp), %rsi
Ltmp79:
	movq	-160(%rbp), %rdx
	callq	__ZN4core3mem7replace17he8b4de169acf8bf9E
	movq	%rdx, -392(%rbp)
	movq	%rax, -400(%rbp)
Ltmp80:
	.loc	12 1617 16 is_stmt 1
	movq	-392(%rbp), %rdx
	movl	$1, %eax
	xorl	%ecx, %ecx
	cmpq	$0, %rdx
	cmoveq	%rcx, %rax
	cmpq	$1, %rax
	jne	LBB12_2
Ltmp81:
	.loc	12 1617 21 is_stmt 0
	movq	-400(%rbp), %rdi
	movq	-392(%rbp), %rsi
	movq	%rdi, -56(%rbp)
	movq	%rsi, -48(%rbp)
	.loc	12 1618 30 is_stmt 1
	callq	__ZN5alloc11collections5btree4node76NodeRef$LT$alloc..collections..btree..node..marker..Owned$C$K$C$V$C$Type$GT$10into_dying17h5666fb7c44e76a9bE
	movq	%rax, %rsi
	leaq	-384(%rbp), %rdi
	callq	__ZN5alloc11collections5btree8navigate178_$LT$impl$u20$alloc..collections..btree..node..NodeRef$LT$alloc..collections..btree..node..marker..Dying$C$K$C$V$C$alloc..collections..btree..node..marker..LeafOrInternal$GT$$GT$10full_range17h93418ee324f73581E
Ltmp82:
	.loc	12 1621 24
	leaq	-320(%rbp), %rdi
	leaq	-384(%rbp), %rsi
	movl	$64, %edx
	callq	_memcpy
	movq	-464(%rbp), %rdi
	.loc	12 1622 25
	leaq	-448(%rbp), %rax
	movq	%rax, -40(%rbp)
	movq	-432(%rbp), %rax
	movq	%rax, -472(%rbp)
	.loc	12 1623 57
	leaq	-448(%rbp), %rax
	movq	%rax, -32(%rbp)
	.loc	12 1623 52 is_stmt 0
	leaq	-448(%rbp), %rax
	movq	%rax, -24(%rbp)
Ltmp83:
	.loc	13 113 28 is_stmt 1
	leaq	-448(%rbp), %rax
	movq	%rax, -16(%rbp)
Ltmp84:
	.loc	4 1157 34
	leaq	-152(%rbp), %rax
	movq	%rax, -8(%rbp)
Ltmp85:
	.loc	12 1620 13
	leaq	-320(%rbp), %rsi
	movl	$64, %edx
	callq	_memcpy
	movq	-472(%rbp), %rcx
	movq	-464(%rbp), %rax
	movq	%rcx, 64(%rax)
Ltmp86:
	.loc	12 1617 9
	jmp	LBB12_3
Ltmp87:
LBB12_2:
	.loc	12 1627 24
	leaq	-256(%rbp), %rdi
	callq	__ZN5alloc11collections5btree8navigate39LazyLeafRange$LT$BorrowType$C$K$C$V$GT$4none17h03c34d3767c5a4ceE
	movq	-464(%rbp), %rdi
	.loc	12 1629 57
	leaq	-448(%rbp), %rax
	movq	%rax, -88(%rbp)
	.loc	12 1629 52 is_stmt 0
	leaq	-448(%rbp), %rax
	movq	%rax, -80(%rbp)
Ltmp88:
	.loc	13 113 28 is_stmt 1
	leaq	-448(%rbp), %rax
	movq	%rax, -72(%rbp)
Ltmp89:
	.loc	4 1157 34
	leaq	-144(%rbp), %rax
	movq	%rax, -64(%rbp)
Ltmp90:
	.loc	12 1626 13
	leaq	-256(%rbp), %rsi
	movl	$64, %edx
	callq	_memcpy
	movq	-464(%rbp), %rax
	movq	$0, 64(%rax)
Ltmp91:
LBB12_3:
	.loc	12 0 13 is_stmt 0
	movq	-456(%rbp), %rax
	.loc	12 1632 6 is_stmt 1
	addq	$480, %rsp
	popq	%rbp
	retq
Ltmp92:
Lfunc_end12:
	.cfi_endproc

	.p2align	4, 0x90
__ZN119_$LT$core..ptr..non_null..NonNull$LT$T$GT$$u20$as$u20$core..convert..From$LT$core..ptr..unique..Unique$LT$T$GT$$GT$$GT$4from17h0c2e37f59bc30618E:
Lfunc_begin13:
	.file	15 "/rustc/2c8cc343237b8f7d5a3c3703e3a87f2eb2c54a74/library/core/src/ptr" "non_null.rs"
	.loc	15 765 0
	.cfi_startproc
	pushq	%rbp
	.cfi_def_cfa_offset 16
	.cfi_offset %rbp, -16
	movq	%rsp, %rbp
	.cfi_def_cfa_register %rbp
	subq	$40, %rsp
	movq	%rdi, -32(%rbp)
Ltmp93:
	.loc	15 768 41 prologue_end
	movq	%rdi, -24(%rbp)
Ltmp94:
	.file	16 "/rustc/2c8cc343237b8f7d5a3c3703e3a87f2eb2c54a74/library/core/src/ptr" "unique.rs"
	.loc	16 104 9
	movq	%rdi, -16(%rbp)
Ltmp95:
	.loc	15 326 9
	movq	%rdi, -8(%rbp)
Ltmp96:
	.loc	15 201 13
	movq	%rdi, -40(%rbp)
Ltmp97:
	.loc	15 769 6
	movq	-40(%rbp), %rax
	addq	$40, %rsp
	popq	%rbp
	retq
Ltmp98:
Lfunc_end13:
	.cfi_endproc

	.p2align	4, 0x90
__ZN174_$LT$$LT$alloc..collections..btree..map..IntoIter$LT$K$C$V$C$A$GT$$u20$as$u20$core..ops..drop..Drop$GT$..drop..DropGuard$LT$K$C$V$C$A$GT$$u20$as$u20$core..ops..drop..Drop$GT$4drop17h2eb7b5fde43be9bfE:
Lfunc_begin14:
	.loc	12 1641 0
	.cfi_startproc
	pushq	%rbp
	.cfi_def_cfa_offset 16
	.cfi_offset %rbp, -16
	movq	%rsp, %rbp
	.cfi_def_cfa_register %rbp
	subq	$96, %rsp
	movq	%rdi, -88(%rbp)
	movq	%rdi, -8(%rbp)
LBB14_1:
	movq	-88(%rbp), %rax
Ltmp99:
	.loc	12 1644 38 prologue_end
	movq	(%rax), %rsi
	leaq	-80(%rbp), %rdi
	callq	__ZN5alloc11collections5btree3map25IntoIter$LT$K$C$V$C$A$GT$10dying_next17hf0d108edd67a48baE
	.loc	12 1644 27 is_stmt 0
	movq	-72(%rbp), %rdx
	movl	$1, %eax
	xorl	%ecx, %ecx
	cmpq	$0, %rdx
	cmoveq	%rcx, %rax
	cmpq	$1, %rax
	jne	LBB14_3
	.loc	12 1644 32
	movq	-80(%rbp), %rax
	movq	%rax, -56(%rbp)
	movq	-72(%rbp), %rax
	movq	%rax, -48(%rbp)
	movq	-64(%rbp), %rax
	movq	%rax, -40(%rbp)
	.loc	12 1646 30 is_stmt 1
	movq	-56(%rbp), %rax
	movq	%rax, -32(%rbp)
	movq	-48(%rbp), %rax
	movq	%rax, -24(%rbp)
	movq	-40(%rbp), %rax
	movq	%rax, -16(%rbp)
	leaq	-32(%rbp), %rdi
	callq	__ZN5alloc11collections5btree4node173Handle$LT$alloc..collections..btree..node..NodeRef$LT$alloc..collections..btree..node..marker..Dying$C$K$C$V$C$NodeType$GT$$C$alloc..collections..btree..node..marker..KV$GT$12drop_key_val17hc613269fe7bc2b3aE
Ltmp100:
	.loc	12 1644 17
	jmp	LBB14_1
LBB14_3:
	.loc	12 1648 14
	addq	$96, %rsp
	popq	%rbp
	retq
Ltmp101:
Lfunc_end14:
	.cfi_endproc

	.p2align	4, 0x90
__ZN3std10sys_common9backtrace28__rust_begin_short_backtrace17h79c9898f8ced4cf7E:
Lfunc_begin15:
	.file	17 "/rustc/2c8cc343237b8f7d5a3c3703e3a87f2eb2c54a74/library/std/src/sys_common" "backtrace.rs"
	.loc	17 117 0
	.cfi_startproc
	pushq	%rbp
	.cfi_def_cfa_offset 16
	.cfi_offset %rbp, -16
	movq	%rsp, %rbp
	.cfi_def_cfa_register %rbp
	subq	$48, %rsp
	movq	%rdi, -32(%rbp)
Ltmp102:
	.loc	17 121 18 prologue_end
	callq	__ZN4core3ops8function6FnOnce9call_once17h7553e764a7a05929E
Ltmp103:
	.file	18 "/rustc/2c8cc343237b8f7d5a3c3703e3a87f2eb2c54a74/library/core/src" "hint.rs"
	.loc	18 295 5
	## InlineAsm Start
	## InlineAsm End
Ltmp104:
	.loc	17 127 2
	addq	$48, %rsp
	popq	%rbp
	retq
Ltmp105:
Lfunc_end15:
	.cfi_endproc

	.p2align	4, 0x90
__ZN3std2io5error14repr_bitpacked11decode_repr17h8dbcc709e7add4f6E:
Lfunc_begin16:
	.file	19 "/rustc/2c8cc343237b8f7d5a3c3703e3a87f2eb2c54a74/library/std/src/io/error" "repr_bitpacked.rs"
	.loc	19 246 0
	.cfi_startproc
	.cfi_personality 155, _rust_eh_personality
	.cfi_lsda 16, Lexception2
	pushq	%rbp
	.cfi_def_cfa_offset 16
	.cfi_offset %rbp, -16
	movq	%rsp, %rbp
	.cfi_def_cfa_register %rbp
	subq	$320, %rsp
	movq	%rsi, -272(%rbp)
	movq	%rdi, -264(%rbp)
	movq	%rdi, -256(%rbp)
	movq	%rsi, -184(%rbp)
Ltmp115:
	.loc	19 250 9 prologue_end
	movb	$1, -201(%rbp)
	.loc	19 250 16 is_stmt 0
	movq	%rsi, -160(%rbp)
Ltmp116:
	.loc	15 326 9 is_stmt 1
	movq	%rsi, -152(%rbp)
Ltmp117:
	.loc	6 215 33
	movq	%rsi, -144(%rbp)
	.loc	6 215 18 is_stmt 0
	movq	%rsi, -248(%rbp)
Ltmp118:
	.loc	19 251 11 is_stmt 1
	movq	-248(%rbp), %rax
	andl	$3, %eax
	movq	%rax, -280(%rbp)
	.loc	19 251 5 is_stmt 0
	subq	$3, %rax
	ja	LBB16_2
	.loc	19 0 5
	movq	-280(%rbp), %rax
	leaq	LJTI16_0(%rip), %rcx
	movslq	(%rcx,%rax,4), %rax
	addq	%rcx, %rax
	jmpq	*%rax
LBB16_2:
Ltmp112:
	.loc	19 280 13 is_stmt 1
	leaq	l___unnamed_2(%rip), %rdi
	leaq	l___unnamed_3(%rip), %rdx
	movl	$40, %esi
	callq	__ZN4core9panicking5panic17hc1bc45270cf64b03E
Ltmp113:
	jmp	LBB16_9
LBB16_3:
	.loc	19 0 13 is_stmt 0
	movq	-264(%rbp), %rax
	.loc	19 253 26 is_stmt 1
	movq	-248(%rbp), %rcx
	.loc	19 253 24 is_stmt 0
	sarq	$32, %rcx
	movl	%ecx, -4(%rbp)
Ltmp119:
	.loc	19 254 13 is_stmt 1
	movl	%ecx, 4(%rax)
	movb	$0, (%rax)
Ltmp120:
	.loc	19 255 9
	jmp	LBB16_12
LBB16_4:
	.loc	19 257 30
	movl	-244(%rbp), %edi
	.loc	19 257 29 is_stmt 0
	movl	%edi, -12(%rbp)
Ltmp108:
Ltmp121:
	.loc	19 258 24 is_stmt 1
	callq	__ZN3std2io5error14repr_bitpacked14kind_from_prim17h2294cb1eb5899eb9E
Ltmp109:
	movb	%al, -281(%rbp)
	jmp	LBB16_13
Ltmp122:
LBB16_5:
	.loc	19 0 24 is_stmt 0
	movq	-264(%rbp), %rax
	movq	-272(%rbp), %rcx
	.loc	19 270 58 is_stmt 1
	movq	%rcx, -40(%rbp)
Ltmp123:
	.loc	15 450 41
	movq	%rcx, -32(%rbp)
	movq	%rcx, -24(%rbp)
Ltmp124:
	.loc	15 201 13
	movq	%rcx, -224(%rbp)
Ltmp125:
	.loc	15 326 9
	movq	-224(%rbp), %rcx
Ltmp126:
	.loc	19 270 31
	movq	%rcx, 8(%rax)
	movb	$2, (%rax)
	.loc	19 270 94 is_stmt 0
	jmp	LBB16_12
LBB16_6:
	.loc	19 0 94
	movq	-272(%rbp), %rax
	.loc	19 275 26 is_stmt 1
	movq	%rax, -120(%rbp)
Ltmp127:
	.loc	15 326 9
	movq	%rax, -112(%rbp)
Ltmp128:
	.loc	6 1300 9
	movq	%rax, -104(%rbp)
Ltmp129:
	.loc	6 60 9
	movq	%rax, -96(%rbp)
Ltmp130:
	.loc	6 1282 9
	movq	%rax, -88(%rbp)
Ltmp131:
	.loc	6 568 18
	addq	$-1, %rax
	movq	%rax, -80(%rbp)
	movq	-80(%rbp), %rax
	movq	%rax, -296(%rbp)
	jmp	LBB16_10
Ltmp132:
LBB16_7:
	.loc	19 283 1
	testb	$1, -201(%rbp)
	jne	LBB16_19
	jmp	LBB16_18
LBB16_8:
Ltmp114:
	.loc	19 0 1 is_stmt 0
	movq	%rax, %rcx
	movl	%edx, %eax
	movq	%rcx, -136(%rbp)
	movl	%eax, -128(%rbp)
	jmp	LBB16_7
LBB16_9:
	ud2
LBB16_10:
	movq	-296(%rbp), %rax
Ltmp133:
	.loc	6 568 18 is_stmt 1
	movq	%rax, -72(%rbp)
Ltmp134:
	.loc	6 99 33
	movq	%rax, -64(%rbp)
Ltmp135:
	.loc	5 135 36
	movq	%rax, -192(%rbp)
	.loc	5 135 14 is_stmt 0
	movq	-192(%rbp), %rax
	movq	%rax, -200(%rbp)
	movq	-200(%rbp), %rax
	movq	%rax, -56(%rbp)
Ltmp136:
	.loc	6 60 9 is_stmt 1
	movq	%rax, -48(%rbp)
Ltmp137:
	.loc	19 276 31
	movb	$0, -201(%rbp)
	movq	%rax, -216(%rbp)
	movq	-216(%rbp), %rdi
Ltmp106:
	callq	__ZN78_$LT$std..io..error..repr_bitpacked..Repr$u20$as$u20$core..ops..drop..Drop$GT$4drop28_$u7b$$u7b$closure$u7d$$u7d$17h166eb9b844420e43E
Ltmp107:
	movq	%rax, -304(%rbp)
	jmp	LBB16_11
LBB16_11:
	.loc	19 0 31 is_stmt 0
	movq	-264(%rbp), %rax
	movq	-304(%rbp), %rcx
	.loc	19 276 13
	movq	%rcx, 8(%rax)
	movb	$3, (%rax)
Ltmp138:
LBB16_12:
	.loc	19 283 1 is_stmt 1
	testb	$1, -201(%rbp)
	jne	LBB16_21
	jmp	LBB16_20
LBB16_13:
	.loc	19 0 1 is_stmt 0
	movb	-281(%rbp), %al
Ltmp139:
	.loc	19 258 24 is_stmt 1
	movb	%al, -233(%rbp)
	.loc	19 258 65 is_stmt 0
	leaq	-248(%rbp), %rax
	movq	%rax, -232(%rbp)
Ltmp140:
	.loc	14 871 15 is_stmt 1
	movl	$1, %eax
	xorl	%ecx, %ecx
	cmpb	$41, -233(%rbp)
	cmoveq	%rcx, %rax
	.loc	14 871 9 is_stmt 0
	cmpq	$0, %rax
	jne	LBB16_15
	.loc	14 873 21 is_stmt 1
	movq	-232(%rbp), %rdi
Ltmp110:
	callq	__ZN3std2io5error14repr_bitpacked11decode_repr28_$u7b$$u7b$closure$u7d$$u7d$17hff67229b1fb8b4eaE
Ltmp111:
	movb	%al, -305(%rbp)
	jmp	LBB16_17
LBB16_15:
	.loc	14 872 18
	movb	-233(%rbp), %al
	movb	%al, -5(%rbp)
Ltmp141:
	.loc	14 872 24 is_stmt 0
	movb	%al, -234(%rbp)
Ltmp142:
LBB16_16:
	.loc	14 0 24
	movq	-264(%rbp), %rax
Ltmp143:
	.loc	19 268 31 is_stmt 1
	movb	-234(%rbp), %cl
	.loc	19 268 13 is_stmt 0
	movb	%cl, 1(%rax)
	movb	$1, (%rax)
Ltmp144:
	.loc	19 269 9 is_stmt 1
	jmp	LBB16_12
LBB16_17:
	.loc	19 0 9 is_stmt 0
	movb	-305(%rbp), %al
Ltmp145:
	.loc	14 873 21 is_stmt 1
	movb	%al, -234(%rbp)
	.loc	14 873 23 is_stmt 0
	jmp	LBB16_16
Ltmp146:
LBB16_18:
	.loc	19 246 1 is_stmt 1
	movq	-136(%rbp), %rdi
	callq	__Unwind_Resume
LBB16_19:
	.loc	19 283 1
	jmp	LBB16_18
LBB16_20:
	.loc	19 0 1 is_stmt 0
	movq	-256(%rbp), %rax
	.loc	19 283 2
	addq	$320, %rsp
	popq	%rbp
	retq
LBB16_21:
	.loc	19 283 1
	jmp	LBB16_20
Ltmp147:
Lfunc_end16:
	.cfi_endproc
	.p2align	2, 0x90
	.data_region jt32
.set L16_0_set_5, LBB16_5-LJTI16_0
.set L16_0_set_6, LBB16_6-LJTI16_0
.set L16_0_set_3, LBB16_3-LJTI16_0
.set L16_0_set_4, LBB16_4-LJTI16_0
LJTI16_0:
	.long	L16_0_set_5
	.long	L16_0_set_6
	.long	L16_0_set_3
	.long	L16_0_set_4
	.end_data_region
	.section	__TEXT,__gcc_except_tab
	.p2align	2
GCC_except_table16:
Lexception2:
	.byte	255
	.byte	255
	.byte	1
	.uleb128 Lcst_end2-Lcst_begin2
Lcst_begin2:
	.uleb128 Ltmp112-Lfunc_begin16
	.uleb128 Ltmp111-Ltmp112
	.uleb128 Ltmp114-Lfunc_begin16
	.byte	0
	.uleb128 Ltmp111-Lfunc_begin16
	.uleb128 Lfunc_end16-Ltmp111
	.byte	0
	.byte	0
Lcst_end2:
	.p2align	2

	.section	__TEXT,__text,regular,pure_instructions
	.p2align	4, 0x90
__ZN3std2io5error14repr_bitpacked11decode_repr28_$u7b$$u7b$closure$u7d$$u7d$17hff67229b1fb8b4eaE:
Lfunc_begin17:
	.loc	19 258 0 is_stmt 1
	.cfi_startproc
	pushq	%rbp
	.cfi_def_cfa_offset 16
	.cfi_offset %rbp, -16
	movq	%rsp, %rbp
	.cfi_def_cfa_register %rbp
	subq	$16, %rsp
	movq	%rdi, -16(%rbp)
Ltmp148:
	.loc	19 266 17 prologue_end
	callq	__ZN4core4hint21unreachable_unchecked17hb588242ab2a0069dE
Ltmp149:
Lfunc_end17:
	.cfi_endproc

	.p2align	4, 0x90
__ZN3std2io5error14repr_bitpacked14kind_from_prim17h2294cb1eb5899eb9E:
Lfunc_begin18:
	.loc	19 289 0
	.cfi_startproc
	pushq	%rbp
	.cfi_def_cfa_offset 16
	.cfi_offset %rbp, -16
	movq	%rsp, %rbp
	.cfi_def_cfa_register %rbp
	subq	$336, %rsp
	movl	%edi, -336(%rbp)
Ltmp150:
	.loc	19 302 5 prologue_end
	leaq	-336(%rbp), %rax
	movq	%rax, -328(%rbp)
	cmpl	$0, -336(%rbp)
	je	LBB18_2
	leaq	-336(%rbp), %rax
	movq	%rax, -320(%rbp)
	cmpl	$1, -336(%rbp)
	je	LBB18_5
	jmp	LBB18_4
LBB18_2:
Ltmp151:
	.loc	19 302 5 is_stmt 0
	movb	$0, -329(%rbp)
Ltmp152:
LBB18_3:
	.loc	19 345 2 is_stmt 1
	movb	-329(%rbp), %al
	addq	$336, %rsp
	popq	%rbp
	retq
LBB18_4:
	.loc	19 302 5
	leaq	-336(%rbp), %rax
	movq	%rax, -312(%rbp)
	cmpl	$2, -336(%rbp)
	je	LBB18_7
	jmp	LBB18_6
LBB18_5:
Ltmp153:
	.loc	19 302 5 is_stmt 0
	movb	$1, -329(%rbp)
Ltmp154:
	.loc	19 302 5
	jmp	LBB18_3
LBB18_6:
	leaq	-336(%rbp), %rax
	movq	%rax, -304(%rbp)
	cmpl	$3, -336(%rbp)
	je	LBB18_9
	jmp	LBB18_8
LBB18_7:
Ltmp155:
	.loc	19 302 5
	movb	$2, -329(%rbp)
Ltmp156:
	.loc	19 302 5
	jmp	LBB18_3
LBB18_8:
	leaq	-336(%rbp), %rax
	movq	%rax, -296(%rbp)
	cmpl	$4, -336(%rbp)
	je	LBB18_11
	jmp	LBB18_10
LBB18_9:
Ltmp157:
	.loc	19 302 5
	movb	$3, -329(%rbp)
Ltmp158:
	.loc	19 302 5
	jmp	LBB18_3
LBB18_10:
	leaq	-336(%rbp), %rax
	movq	%rax, -288(%rbp)
	cmpl	$5, -336(%rbp)
	je	LBB18_13
	jmp	LBB18_12
LBB18_11:
Ltmp159:
	.loc	19 302 5
	movb	$4, -329(%rbp)
Ltmp160:
	.loc	19 302 5
	jmp	LBB18_3
LBB18_12:
	leaq	-336(%rbp), %rax
	movq	%rax, -280(%rbp)
	cmpl	$6, -336(%rbp)
	je	LBB18_15
	jmp	LBB18_14
LBB18_13:
Ltmp161:
	.loc	19 302 5
	movb	$5, -329(%rbp)
Ltmp162:
	.loc	19 302 5
	jmp	LBB18_3
LBB18_14:
	leaq	-336(%rbp), %rax
	movq	%rax, -272(%rbp)
	cmpl	$7, -336(%rbp)
	je	LBB18_17
	jmp	LBB18_16
LBB18_15:
Ltmp163:
	.loc	19 302 5
	movb	$6, -329(%rbp)
Ltmp164:
	.loc	19 302 5
	jmp	LBB18_3
LBB18_16:
	leaq	-336(%rbp), %rax
	movq	%rax, -264(%rbp)
	cmpl	$8, -336(%rbp)
	je	LBB18_19
	jmp	LBB18_18
LBB18_17:
Ltmp165:
	.loc	19 302 5
	movb	$7, -329(%rbp)
Ltmp166:
	.loc	19 302 5
	jmp	LBB18_3
LBB18_18:
	leaq	-336(%rbp), %rax
	movq	%rax, -256(%rbp)
	cmpl	$9, -336(%rbp)
	je	LBB18_21
	jmp	LBB18_20
LBB18_19:
Ltmp167:
	.loc	19 302 5
	movb	$8, -329(%rbp)
Ltmp168:
	.loc	19 302 5
	jmp	LBB18_3
LBB18_20:
	leaq	-336(%rbp), %rax
	movq	%rax, -248(%rbp)
	cmpl	$10, -336(%rbp)
	je	LBB18_23
	jmp	LBB18_22
LBB18_21:
Ltmp169:
	.loc	19 302 5
	movb	$9, -329(%rbp)
Ltmp170:
	.loc	19 302 5
	jmp	LBB18_3
LBB18_22:
	leaq	-336(%rbp), %rax
	movq	%rax, -240(%rbp)
	cmpl	$11, -336(%rbp)
	je	LBB18_25
	jmp	LBB18_24
LBB18_23:
Ltmp171:
	.loc	19 302 5
	movb	$10, -329(%rbp)
Ltmp172:
	.loc	19 302 5
	jmp	LBB18_3
LBB18_24:
	leaq	-336(%rbp), %rax
	movq	%rax, -232(%rbp)
	cmpl	$12, -336(%rbp)
	je	LBB18_27
	jmp	LBB18_26
LBB18_25:
Ltmp173:
	.loc	19 302 5
	movb	$11, -329(%rbp)
Ltmp174:
	.loc	19 302 5
	jmp	LBB18_3
LBB18_26:
	leaq	-336(%rbp), %rax
	movq	%rax, -224(%rbp)
	cmpl	$13, -336(%rbp)
	je	LBB18_29
	jmp	LBB18_28
LBB18_27:
Ltmp175:
	.loc	19 302 5
	movb	$12, -329(%rbp)
Ltmp176:
	.loc	19 302 5
	jmp	LBB18_3
LBB18_28:
	leaq	-336(%rbp), %rax
	movq	%rax, -216(%rbp)
	cmpl	$14, -336(%rbp)
	je	LBB18_31
	jmp	LBB18_30
LBB18_29:
Ltmp177:
	.loc	19 302 5
	movb	$13, -329(%rbp)
Ltmp178:
	.loc	19 302 5
	jmp	LBB18_3
LBB18_30:
	leaq	-336(%rbp), %rax
	movq	%rax, -208(%rbp)
	cmpl	$15, -336(%rbp)
	je	LBB18_33
	jmp	LBB18_32
LBB18_31:
Ltmp179:
	.loc	19 302 5
	movb	$14, -329(%rbp)
Ltmp180:
	.loc	19 302 5
	jmp	LBB18_3
LBB18_32:
	leaq	-336(%rbp), %rax
	movq	%rax, -200(%rbp)
	cmpl	$16, -336(%rbp)
	je	LBB18_35
	jmp	LBB18_34
LBB18_33:
Ltmp181:
	.loc	19 302 5
	movb	$15, -329(%rbp)
Ltmp182:
	.loc	19 302 5
	jmp	LBB18_3
LBB18_34:
	leaq	-336(%rbp), %rax
	movq	%rax, -192(%rbp)
	cmpl	$17, -336(%rbp)
	je	LBB18_37
	jmp	LBB18_36
LBB18_35:
Ltmp183:
	.loc	19 302 5
	movb	$16, -329(%rbp)
Ltmp184:
	.loc	19 302 5
	jmp	LBB18_3
LBB18_36:
	leaq	-336(%rbp), %rax
	movq	%rax, -184(%rbp)
	cmpl	$18, -336(%rbp)
	je	LBB18_39
	jmp	LBB18_38
LBB18_37:
Ltmp185:
	.loc	19 302 5
	movb	$17, -329(%rbp)
Ltmp186:
	.loc	19 302 5
	jmp	LBB18_3
LBB18_38:
	leaq	-336(%rbp), %rax
	movq	%rax, -176(%rbp)
	cmpl	$19, -336(%rbp)
	je	LBB18_41
	jmp	LBB18_40
LBB18_39:
Ltmp187:
	.loc	19 302 5
	movb	$18, -329(%rbp)
Ltmp188:
	.loc	19 302 5
	jmp	LBB18_3
LBB18_40:
	leaq	-336(%rbp), %rax
	movq	%rax, -168(%rbp)
	cmpl	$20, -336(%rbp)
	je	LBB18_43
	jmp	LBB18_42
LBB18_41:
Ltmp189:
	.loc	19 302 5
	movb	$19, -329(%rbp)
Ltmp190:
	.loc	19 302 5
	jmp	LBB18_3
LBB18_42:
	leaq	-336(%rbp), %rax
	movq	%rax, -160(%rbp)
	cmpl	$21, -336(%rbp)
	je	LBB18_45
	jmp	LBB18_44
LBB18_43:
Ltmp191:
	.loc	19 302 5
	movb	$20, -329(%rbp)
Ltmp192:
	.loc	19 302 5
	jmp	LBB18_3
LBB18_44:
	leaq	-336(%rbp), %rax
	movq	%rax, -152(%rbp)
	cmpl	$22, -336(%rbp)
	je	LBB18_47
	jmp	LBB18_46
LBB18_45:
Ltmp193:
	.loc	19 302 5
	movb	$21, -329(%rbp)
Ltmp194:
	.loc	19 302 5
	jmp	LBB18_3
LBB18_46:
	leaq	-336(%rbp), %rax
	movq	%rax, -144(%rbp)
	cmpl	$23, -336(%rbp)
	je	LBB18_49
	jmp	LBB18_48
LBB18_47:
Ltmp195:
	.loc	19 302 5
	movb	$22, -329(%rbp)
Ltmp196:
	.loc	19 302 5
	jmp	LBB18_3
LBB18_48:
	leaq	-336(%rbp), %rax
	movq	%rax, -136(%rbp)
	cmpl	$24, -336(%rbp)
	je	LBB18_51
	jmp	LBB18_50
LBB18_49:
Ltmp197:
	.loc	19 302 5
	movb	$23, -329(%rbp)
Ltmp198:
	.loc	19 302 5
	jmp	LBB18_3
LBB18_50:
	leaq	-336(%rbp), %rax
	movq	%rax, -128(%rbp)
	cmpl	$25, -336(%rbp)
	je	LBB18_53
	jmp	LBB18_52
LBB18_51:
Ltmp199:
	.loc	19 302 5
	movb	$24, -329(%rbp)
Ltmp200:
	.loc	19 302 5
	jmp	LBB18_3
LBB18_52:
	leaq	-336(%rbp), %rax
	movq	%rax, -120(%rbp)
	cmpl	$26, -336(%rbp)
	je	LBB18_55
	jmp	LBB18_54
LBB18_53:
Ltmp201:
	.loc	19 302 5
	movb	$25, -329(%rbp)
Ltmp202:
	.loc	19 302 5
	jmp	LBB18_3
LBB18_54:
	leaq	-336(%rbp), %rax
	movq	%rax, -112(%rbp)
	cmpl	$27, -336(%rbp)
	je	LBB18_57
	jmp	LBB18_56
LBB18_55:
Ltmp203:
	.loc	19 302 5
	movb	$26, -329(%rbp)
Ltmp204:
	.loc	19 302 5
	jmp	LBB18_3
LBB18_56:
	leaq	-336(%rbp), %rax
	movq	%rax, -104(%rbp)
	cmpl	$28, -336(%rbp)
	je	LBB18_59
	jmp	LBB18_58
LBB18_57:
Ltmp205:
	.loc	19 302 5
	movb	$27, -329(%rbp)
Ltmp206:
	.loc	19 302 5
	jmp	LBB18_3
LBB18_58:
	leaq	-336(%rbp), %rax
	movq	%rax, -96(%rbp)
	cmpl	$29, -336(%rbp)
	je	LBB18_61
	jmp	LBB18_60
LBB18_59:
Ltmp207:
	.loc	19 302 5
	movb	$28, -329(%rbp)
Ltmp208:
	.loc	19 302 5
	jmp	LBB18_3
LBB18_60:
	leaq	-336(%rbp), %rax
	movq	%rax, -88(%rbp)
	cmpl	$30, -336(%rbp)
	je	LBB18_63
	jmp	LBB18_62
LBB18_61:
Ltmp209:
	.loc	19 302 5
	movb	$29, -329(%rbp)
Ltmp210:
	.loc	19 302 5
	jmp	LBB18_3
LBB18_62:
	leaq	-336(%rbp), %rax
	movq	%rax, -80(%rbp)
	cmpl	$31, -336(%rbp)
	je	LBB18_65
	jmp	LBB18_64
LBB18_63:
Ltmp211:
	.loc	19 302 5
	movb	$30, -329(%rbp)
Ltmp212:
	.loc	19 302 5
	jmp	LBB18_3
LBB18_64:
	leaq	-336(%rbp), %rax
	movq	%rax, -72(%rbp)
	cmpl	$32, -336(%rbp)
	je	LBB18_67
	jmp	LBB18_66
LBB18_65:
Ltmp213:
	.loc	19 302 5
	movb	$31, -329(%rbp)
Ltmp214:
	.loc	19 302 5
	jmp	LBB18_3
LBB18_66:
	leaq	-336(%rbp), %rax
	movq	%rax, -64(%rbp)
	cmpl	$33, -336(%rbp)
	je	LBB18_69
	jmp	LBB18_68
LBB18_67:
Ltmp215:
	.loc	19 302 5
	movb	$32, -329(%rbp)
Ltmp216:
	.loc	19 302 5
	jmp	LBB18_3
LBB18_68:
	leaq	-336(%rbp), %rax
	movq	%rax, -56(%rbp)
	cmpl	$34, -336(%rbp)
	je	LBB18_71
	jmp	LBB18_70
LBB18_69:
Ltmp217:
	.loc	19 302 5
	movb	$33, -329(%rbp)
Ltmp218:
	.loc	19 302 5
	jmp	LBB18_3
LBB18_70:
	leaq	-336(%rbp), %rax
	movq	%rax, -48(%rbp)
	cmpl	$35, -336(%rbp)
	je	LBB18_73
	jmp	LBB18_72
LBB18_71:
Ltmp219:
	.loc	19 302 5
	movb	$34, -329(%rbp)
Ltmp220:
	.loc	19 302 5
	jmp	LBB18_3
LBB18_72:
	leaq	-336(%rbp), %rax
	movq	%rax, -40(%rbp)
	cmpl	$39, -336(%rbp)
	je	LBB18_75
	jmp	LBB18_74
LBB18_73:
Ltmp221:
	.loc	19 302 5
	movb	$35, -329(%rbp)
Ltmp222:
	.loc	19 302 5
	jmp	LBB18_3
LBB18_74:
	leaq	-336(%rbp), %rax
	movq	%rax, -32(%rbp)
	cmpl	$37, -336(%rbp)
	je	LBB18_77
	jmp	LBB18_76
LBB18_75:
Ltmp223:
	.loc	19 302 5
	movb	$39, -329(%rbp)
Ltmp224:
	.loc	19 302 5
	jmp	LBB18_3
LBB18_76:
	leaq	-336(%rbp), %rax
	movq	%rax, -24(%rbp)
	cmpl	$36, -336(%rbp)
	je	LBB18_79
	jmp	LBB18_78
LBB18_77:
Ltmp225:
	.loc	19 302 5
	movb	$37, -329(%rbp)
Ltmp226:
	.loc	19 302 5
	jmp	LBB18_3
LBB18_78:
	leaq	-336(%rbp), %rax
	movq	%rax, -16(%rbp)
	cmpl	$38, -336(%rbp)
	je	LBB18_81
	jmp	LBB18_80
LBB18_79:
Ltmp227:
	.loc	19 302 5
	movb	$36, -329(%rbp)
Ltmp228:
	.loc	19 302 5
	jmp	LBB18_3
LBB18_80:
	leaq	-336(%rbp), %rax
	movq	%rax, -8(%rbp)
	cmpl	$40, -336(%rbp)
	je	LBB18_83
	jmp	LBB18_82
LBB18_81:
Ltmp229:
	.loc	19 302 5
	movb	$38, -329(%rbp)
Ltmp230:
	.loc	19 302 5
	jmp	LBB18_3
LBB18_82:
	movb	$41, -329(%rbp)
	jmp	LBB18_3
LBB18_83:
Ltmp231:
	.loc	19 302 5
	movb	$40, -329(%rbp)
Ltmp232:
	.loc	19 302 5
	jmp	LBB18_3
Ltmp233:
Lfunc_end18:
	.cfi_endproc

	.private_extern	__ZN3std2rt10lang_start17h1cc747e4c89b1484E
	.globl	__ZN3std2rt10lang_start17h1cc747e4c89b1484E
	.p2align	4, 0x90
__ZN3std2rt10lang_start17h1cc747e4c89b1484E:
Lfunc_begin19:
	.file	20 "/rustc/2c8cc343237b8f7d5a3c3703e3a87f2eb2c54a74/library/std/src" "rt.rs"
	.loc	20 159 0 is_stmt 1
	.cfi_startproc
	pushq	%rbp
	.cfi_def_cfa_offset 16
	.cfi_offset %rbp, -16
	movq	%rsp, %rbp
	.cfi_def_cfa_register %rbp
	subq	$64, %rsp
	movl	%ecx, %eax
	movq	%rdx, %rcx
	movq	%rsi, %rdx
	movq	%rdi, -40(%rbp)
	movq	%rdx, -32(%rbp)
	movq	%rcx, -24(%rbp)
	movb	%al, -9(%rbp)
Ltmp234:
	.loc	20 166 10 prologue_end
	movq	%rdi, -48(%rbp)
	.loc	20 165 17
	leaq	-48(%rbp), %rdi
	leaq	l___unnamed_1(%rip), %rsi
	movzbl	%al, %r8d
	callq	__ZN3std2rt19lang_start_internal17h72dc55d09e0a2397E
	movq	%rax, -56(%rbp)
	.loc	20 165 12 is_stmt 0
	movq	-56(%rbp), %rax
	movq	%rax, -8(%rbp)
	.loc	20 172 2 is_stmt 1
	addq	$64, %rsp
	popq	%rbp
	retq
Ltmp235:
Lfunc_end19:
	.cfi_endproc

	.p2align	4, 0x90
__ZN3std2rt10lang_start28_$u7b$$u7b$closure$u7d$$u7d$17h97aa83efe67e9025E:
Lfunc_begin20:
	.loc	20 166 0
	.cfi_startproc
	pushq	%rbp
	.cfi_def_cfa_offset 16
	.cfi_offset %rbp, -16
	movq	%rsp, %rbp
	.cfi_def_cfa_register %rbp
	subq	$32, %rsp
	movq	%rdi, -16(%rbp)
Ltmp236:
	.loc	20 166 77 prologue_end
	movq	(%rdi), %rdi
	.loc	20 166 18 is_stmt 0
	callq	__ZN3std10sys_common9backtrace28__rust_begin_short_backtrace17h79c9898f8ced4cf7E
	callq	__ZN54_$LT$$LP$$RP$$u20$as$u20$std..process..Termination$GT$6report17hc8d36e2a05377754E
	movb	%al, -17(%rbp)
Ltmp237:
	.file	21 "/rustc/2c8cc343237b8f7d5a3c3703e3a87f2eb2c54a74/library/std/src" "process.rs"
	.loc	21 1820 9 is_stmt 1
	leaq	-17(%rbp), %rax
	movq	%rax, -8(%rbp)
Ltmp238:
	.file	22 "/rustc/2c8cc343237b8f7d5a3c3703e3a87f2eb2c54a74/library/std/src/sys/unix/process" "process_common.rs"
	.loc	22 594 9
	movzbl	-17(%rbp), %eax
Ltmp239:
	.loc	20 166 100
	addq	$32, %rsp
	popq	%rbp
	retq
Ltmp240:
Lfunc_end20:
	.cfi_endproc

	.p2align	4, 0x90
__ZN3std3env6var_os17h7847fba6e37bae85E:
Lfunc_begin21:
	.file	23 "/rustc/2c8cc343237b8f7d5a3c3703e3a87f2eb2c54a74/library/std/src" "env.rs"
	.loc	23 268 0
	.cfi_startproc
	.cfi_personality 155, _rust_eh_personality
	.cfi_lsda 16, Lexception3
	pushq	%rbp
	.cfi_def_cfa_offset 16
	.cfi_offset %rbp, -16
	movq	%rsp, %rbp
	.cfi_def_cfa_register %rbp
	subq	$64, %rsp
	movq	%rdi, -64(%rbp)
	movq	%rdi, -56(%rbp)
	movq	%rsi, -32(%rbp)
	movq	%rdx, -24(%rbp)
Ltmp241:
	leaq	-32(%rbp), %rdi
Ltmp246:
	.loc	23 269 13 prologue_end
	callq	__ZN55_$LT$$RF$T$u20$as$u20$core..convert..AsRef$LT$U$GT$$GT$6as_ref17he9e6aa42a6915e98E
Ltmp242:
	movq	%rdx, -48(%rbp)
	movq	%rax, -40(%rbp)
	jmp	LBB21_3
LBB21_1:
	.loc	23 268 1
	movq	-16(%rbp), %rdi
	callq	__Unwind_Resume
LBB21_2:
Ltmp245:
	.loc	23 0 1 is_stmt 0
	movq	%rax, %rcx
	movl	%edx, %eax
	movq	%rcx, -16(%rbp)
	movl	%eax, -8(%rbp)
	jmp	LBB21_1
LBB21_3:
Ltmp243:
	movq	-48(%rbp), %rdx
	movq	-40(%rbp), %rsi
	movq	-64(%rbp), %rdi
	.loc	23 269 5 is_stmt 1
	callq	__ZN3std3env7_var_os17h71e71f6d7accb7a3E
Ltmp244:
	jmp	LBB21_4
LBB21_4:
	.loc	23 0 5 is_stmt 0
	movq	-56(%rbp), %rax
	.loc	23 270 2 is_stmt 1
	addq	$64, %rsp
	popq	%rbp
	retq
Ltmp247:
Lfunc_end21:
	.cfi_endproc
	.section	__TEXT,__gcc_except_tab
	.p2align	2
GCC_except_table21:
Lexception3:
	.byte	255
	.byte	255
	.byte	1
	.uleb128 Lcst_end3-Lcst_begin3
Lcst_begin3:
	.uleb128 Ltmp241-Lfunc_begin21
	.uleb128 Ltmp242-Ltmp241
	.uleb128 Ltmp245-Lfunc_begin21
	.byte	0
	.uleb128 Ltmp242-Lfunc_begin21
	.uleb128 Ltmp243-Ltmp242
	.byte	0
	.byte	0
	.uleb128 Ltmp243-Lfunc_begin21
	.uleb128 Ltmp244-Ltmp243
	.uleb128 Ltmp245-Lfunc_begin21
	.byte	0
Lcst_end3:
	.p2align	2

	.section	__TEXT,__text,regular,pure_instructions
	.p2align	4, 0x90
__ZN3std3ffi6os_str85_$LT$impl$u20$core..convert..AsRef$LT$std..ffi..os_str..OsStr$GT$$u20$for$u20$str$GT$6as_ref17ha3aff30d3e378cd3E:
Lfunc_begin22:
	.file	24 "/rustc/2c8cc343237b8f7d5a3c3703e3a87f2eb2c54a74/library/std/src/ffi" "os_str.rs"
	.loc	24 1321 0
	.cfi_startproc
	pushq	%rbp
	.cfi_def_cfa_offset 16
	.cfi_offset %rbp, -16
	movq	%rsp, %rbp
	.cfi_def_cfa_register %rbp
	subq	$112, %rsp
	movq	%rdi, -112(%rbp)
	movq	%rsi, -104(%rbp)
Ltmp248:
	.loc	24 1322 43 prologue_end
	movq	%rdi, -96(%rbp)
	movq	%rsi, -88(%rbp)
Ltmp249:
	.file	25 "/rustc/2c8cc343237b8f7d5a3c3703e3a87f2eb2c54a74/library/std/src/sys/unix" "os_str.rs"
	.loc	25 201 30
	movq	%rdi, -80(%rbp)
	movq	%rsi, -72(%rbp)
Ltmp250:
	.file	26 "/rustc/2c8cc343237b8f7d5a3c3703e3a87f2eb2c54a74/library/core/src/str" "mod.rs"
	.loc	26 327 18
	movq	%rdi, -64(%rbp)
	movq	%rsi, -56(%rbp)
	movq	-64(%rbp), %rcx
	movq	-56(%rbp), %rax
Ltmp251:
	.loc	25 201 30
	movq	%rcx, -48(%rbp)
	movq	%rax, -40(%rbp)
Ltmp252:
	.loc	25 196 18
	movq	%rcx, -32(%rbp)
	movq	%rax, -24(%rbp)
	movq	-32(%rbp), %rax
	movq	-24(%rbp), %rdx
Ltmp253:
	.loc	24 1322 27
	movq	%rax, -16(%rbp)
	movq	%rdx, -8(%rbp)
	.loc	24 1323 6
	addq	$112, %rsp
	popq	%rbp
	retq
Ltmp254:
Lfunc_end22:
	.cfi_endproc

	.p2align	4, 0x90
__ZN3std7process7Command3arg17hcd280227e3bea666E:
Lfunc_begin23:
	.loc	21 607 0
	.cfi_startproc
	.cfi_personality 155, _rust_eh_personality
	.cfi_lsda 16, Lexception4
	pushq	%rbp
	.cfi_def_cfa_offset 16
	.cfi_offset %rbp, -16
	movq	%rsp, %rbp
	.cfi_def_cfa_register %rbp
	subq	$64, %rsp
	movq	%rdi, -64(%rbp)
	movq	%rsi, -40(%rbp)
	movq	%rdx, -32(%rbp)
	movq	%rdi, -24(%rbp)
Ltmp255:
	leaq	-40(%rbp), %rdi
Ltmp260:
	.loc	21 608 24 prologue_end
	callq	__ZN55_$LT$$RF$T$u20$as$u20$core..convert..AsRef$LT$U$GT$$GT$6as_ref17he9e6aa42a6915e98E
Ltmp256:
	movq	%rdx, -56(%rbp)
	movq	%rax, -48(%rbp)
	jmp	LBB23_3
LBB23_1:
	.loc	21 607 5
	movq	-16(%rbp), %rdi
	callq	__Unwind_Resume
LBB23_2:
Ltmp259:
	.loc	21 0 5 is_stmt 0
	movq	%rax, %rcx
	movl	%edx, %eax
	movq	%rcx, -16(%rbp)
	movl	%eax, -8(%rbp)
	jmp	LBB23_1
LBB23_3:
Ltmp257:
	movq	-56(%rbp), %rdx
	movq	-48(%rbp), %rsi
	movq	-64(%rbp), %rdi
	.loc	21 608 9 is_stmt 1
	callq	__ZN3std3sys4unix7process14process_common7Command3arg17hdfe06f44e19d0682E
Ltmp258:
	jmp	LBB23_4
LBB23_4:
	.loc	21 0 9 is_stmt 0
	movq	-64(%rbp), %rax
	.loc	21 610 6 is_stmt 1
	addq	$64, %rsp
	popq	%rbp
	retq
Ltmp261:
Lfunc_end23:
	.cfi_endproc
	.section	__TEXT,__gcc_except_tab
	.p2align	2
GCC_except_table23:
Lexception4:
	.byte	255
	.byte	255
	.byte	1
	.uleb128 Lcst_end4-Lcst_begin4
Lcst_begin4:
	.uleb128 Ltmp255-Lfunc_begin23
	.uleb128 Ltmp256-Ltmp255
	.uleb128 Ltmp259-Lfunc_begin23
	.byte	0
	.uleb128 Ltmp256-Lfunc_begin23
	.uleb128 Ltmp257-Ltmp256
	.byte	0
	.byte	0
	.uleb128 Ltmp257-Lfunc_begin23
	.uleb128 Ltmp258-Ltmp257
	.uleb128 Ltmp259-Lfunc_begin23
	.byte	0
Lcst_end4:
	.p2align	2

	.section	__TEXT,__text,regular,pure_instructions
	.p2align	4, 0x90
__ZN3std7process7Command3new17hfd01196fa23cca0fE:
Lfunc_begin24:
	.loc	21 561 0
	.cfi_startproc
	.cfi_personality 155, _rust_eh_personality
	.cfi_lsda 16, Lexception5
	pushq	%rbp
	.cfi_def_cfa_offset 16
	.cfi_offset %rbp, -16
	movq	%rsp, %rbp
	.cfi_def_cfa_register %rbp
	subq	$272, %rsp
	movq	%rsi, -264(%rbp)
Ltmp270:
	movq	%rdi, %rax
	movq	-264(%rbp), %rdi
	movq	%rax, -256(%rbp)
	movq	%rax, -248(%rbp)
Ltmp262:
Ltmp271:
	.loc	21 562 44 prologue_end
	callq	__ZN98_$LT$std..ffi..os_str..OsString$u20$as$u20$core..convert..AsRef$LT$std..ffi..os_str..OsStr$GT$$GT$6as_ref17h0a0e9ff628c8f95dE
Ltmp263:
	movq	%rdx, -240(%rbp)
	movq	%rax, -232(%rbp)
	jmp	LBB24_3
Ltmp272:
LBB24_1:
Ltmp267:
	.loc	21 0 44 is_stmt 0
	movq	-264(%rbp), %rdi
	.loc	21 563 5 is_stmt 1
	callq	__ZN4core3ptr47drop_in_place$LT$std..ffi..os_str..OsString$GT$17h286f5e16167a5f28E
Ltmp268:
	jmp	LBB24_6
Ltmp273:
LBB24_2:
Ltmp266:
	.loc	21 0 5 is_stmt 0
	movq	%rax, %rcx
	movl	%edx, %eax
	movq	%rcx, -16(%rbp)
	movl	%eax, -8(%rbp)
	jmp	LBB24_1
Ltmp274:
LBB24_3:
Ltmp264:
	movq	-240(%rbp), %rdx
	movq	-232(%rbp), %rsi
	leaq	-224(%rbp), %rdi
	.loc	21 562 26 is_stmt 1
	callq	__ZN3std3sys4unix7process14process_common7Command3new17hbc75e5b02e009ba8E
Ltmp265:
	jmp	LBB24_4
Ltmp275:
LBB24_4:
	.loc	21 0 26 is_stmt 0
	movq	-256(%rbp), %rdi
	.loc	21 562 9
	leaq	-224(%rbp), %rsi
	movl	$208, %edx
	callq	_memcpy
	movq	-264(%rbp), %rdi
	.loc	21 563 5 is_stmt 1
	callq	__ZN4core3ptr47drop_in_place$LT$std..ffi..os_str..OsString$GT$17h286f5e16167a5f28E
	movq	-248(%rbp), %rax
	.loc	21 563 6 is_stmt 0
	addq	$272, %rsp
	popq	%rbp
	retq
Ltmp276:
LBB24_5:
Ltmp269:
	.loc	21 561 5 is_stmt 1
	callq	__ZN4core9panicking19panic_cannot_unwind17h1fbca7e1d7f56ae1E
Ltmp277:
LBB24_6:
	movq	-16(%rbp), %rdi
	callq	__Unwind_Resume
Ltmp278:
Lfunc_end24:
	.cfi_endproc
	.section	__TEXT,__gcc_except_tab
	.p2align	2
GCC_except_table24:
Lexception5:
	.byte	255
	.byte	255
	.byte	1
	.uleb128 Lcst_end5-Lcst_begin5
Lcst_begin5:
	.uleb128 Ltmp262-Lfunc_begin24
	.uleb128 Ltmp263-Ltmp262
	.uleb128 Ltmp266-Lfunc_begin24
	.byte	0
	.uleb128 Ltmp267-Lfunc_begin24
	.uleb128 Ltmp268-Ltmp267
	.uleb128 Ltmp269-Lfunc_begin24
	.byte	0
	.uleb128 Ltmp264-Lfunc_begin24
	.uleb128 Ltmp265-Ltmp264
	.uleb128 Ltmp266-Lfunc_begin24
	.byte	0
	.uleb128 Ltmp265-Lfunc_begin24
	.uleb128 Lfunc_end24-Ltmp265
	.byte	0
	.byte	0
Lcst_end5:
	.p2align	2

	.section	__TEXT,__text,regular,pure_instructions
	.p2align	4, 0x90
__ZN49_$LT$usize$u20$as$u20$core..iter..range..Step$GT$17forward_unchecked17h4f221508bd9278b9E:
Lfunc_begin25:
	.file	27 "/rustc/2c8cc343237b8f7d5a3c3703e3a87f2eb2c54a74/library/core/src/iter" "range.rs"
	.loc	27 189 0
	.cfi_startproc
	pushq	%rbp
	.cfi_def_cfa_offset 16
	.cfi_offset %rbp, -16
	movq	%rsp, %rbp
	.cfi_def_cfa_register %rbp
	subq	$40, %rsp
	movq	%rdi, -40(%rbp)
	movq	%rsi, -32(%rbp)
Ltmp279:
	.loc	27 191 22 prologue_end
	movq	%rdi, -24(%rbp)
	.loc	27 191 42 is_stmt 0
	movq	%rsi, -16(%rbp)
Ltmp280:
	.file	28 "/rustc/2c8cc343237b8f7d5a3c3703e3a87f2eb2c54a74/library/core/src/num" "uint_macros.rs"
	.loc	28 470 22 is_stmt 1
	addq	%rsi, %rdi
	movq	%rdi, -8(%rbp)
	movq	-8(%rbp), %rax
Ltmp281:
	.loc	27 192 10
	addq	$40, %rsp
	popq	%rbp
	retq
Ltmp282:
Lfunc_end25:
	.cfi_endproc

	.p2align	4, 0x90
__ZN49_$LT$usize$u20$as$u20$core..iter..range..Step$GT$18backward_unchecked17h99715965ddeb8eeeE:
Lfunc_begin26:
	.loc	27 195 0
	.cfi_startproc
	pushq	%rbp
	.cfi_def_cfa_offset 16
	.cfi_offset %rbp, -16
	movq	%rsp, %rbp
	.cfi_def_cfa_register %rbp
	subq	$40, %rsp
	movq	%rdi, -40(%rbp)
	movq	%rsi, -32(%rbp)
Ltmp283:
	.loc	27 197 22 prologue_end
	movq	%rdi, -24(%rbp)
	.loc	27 197 42 is_stmt 0
	movq	%rsi, -16(%rbp)
Ltmp284:
	.loc	28 539 22 is_stmt 1
	subq	%rsi, %rdi
	movq	%rdi, -8(%rbp)
	movq	-8(%rbp), %rax
Ltmp285:
	.loc	27 198 10
	addq	$40, %rsp
	popq	%rbp
	retq
Ltmp286:
Lfunc_end26:
	.cfi_endproc

	.p2align	4, 0x90
__ZN4core3cmp5impls50_$LT$impl$u20$core..cmp..Ord$u20$for$u20$usize$GT$3cmp17h8cafc4a400c3c592E:
Lfunc_begin27:
	.loc	8 1454 0
	.cfi_startproc
	pushq	%rbp
	.cfi_def_cfa_offset 16
	.cfi_offset %rbp, -16
	movq	%rsp, %rbp
	.cfi_def_cfa_register %rbp
	subq	$40, %rsp
	movq	%rdi, -40(%rbp)
	movq	%rsi, -32(%rbp)
	movq	%rdi, -16(%rbp)
	movq	%rsi, -8(%rbp)
Ltmp287:
	.loc	8 1457 24 prologue_end
	movq	(%rdi), %rax
	cmpq	(%rsi), %rax
	jb	LBB27_2
	.loc	8 0 24 is_stmt 0
	movq	-32(%rbp), %rcx
	movq	-40(%rbp), %rax
	.loc	8 1458 29 is_stmt 1
	movq	(%rax), %rax
	cmpq	(%rcx), %rax
	je	LBB27_5
	jmp	LBB27_4
LBB27_2:
	.loc	8 1457 41
	movb	$-1, -17(%rbp)
LBB27_3:
	.loc	8 1460 18
	movb	-17(%rbp), %al
	addq	$40, %rsp
	popq	%rbp
	retq
LBB27_4:
	.loc	8 1459 28
	movb	$1, -17(%rbp)
	.loc	8 1458 26
	jmp	LBB27_6
LBB27_5:
	.loc	8 1458 47 is_stmt 0
	movb	$0, -17(%rbp)
LBB27_6:
	.loc	8 1457 21 is_stmt 1
	jmp	LBB27_3
Ltmp288:
Lfunc_end27:
	.cfi_endproc

	.p2align	4, 0x90
__ZN4core3cmp5impls57_$LT$impl$u20$core..cmp..PartialOrd$u20$for$u20$usize$GT$2lt17hd9da18f162bcc2c2E:
Lfunc_begin28:
	.loc	8 1441 0
	.cfi_startproc
	pushq	%rbp
	.cfi_def_cfa_offset 16
	.cfi_offset %rbp, -16
	movq	%rsp, %rbp
	.cfi_def_cfa_register %rbp
	subq	$16, %rsp
	movq	%rdi, -16(%rbp)
	movq	%rsi, -8(%rbp)
Ltmp289:
	.loc	8 1441 52 prologue_end
	movq	(%rdi), %rax
	cmpq	(%rsi), %rax
	setb	%al
	.loc	8 1441 72 is_stmt 0
	andb	$1, %al
	movzbl	%al, %eax
	addq	$16, %rsp
	popq	%rbp
	retq
Ltmp290:
Lfunc_end28:
	.cfi_endproc

	.p2align	4, 0x90
__ZN4core3cmp5impls59_$LT$impl$u20$core..cmp..PartialEq$u20$for$u20$$LP$$RP$$GT$2eq17had5571e8d91e1a3aE:
Lfunc_begin29:
	.loc	8 1363 0 is_stmt 1
	.cfi_startproc
	pushq	%rbp
	.cfi_def_cfa_offset 16
	.cfi_offset %rbp, -16
	movq	%rsp, %rbp
	.cfi_def_cfa_register %rbp
	subq	$16, %rsp
	movq	%rdi, -16(%rbp)
	movq	%rsi, -8(%rbp)
Ltmp291:
	.loc	8 1365 10 prologue_end
	movb	$1, %al
	andb	$1, %al
	movzbl	%al, %eax
	addq	$16, %rsp
	popq	%rbp
	retq
Ltmp292:
Lfunc_end29:
	.cfi_endproc

	.p2align	4, 0x90
__ZN4core3cmp5impls69_$LT$impl$u20$core..cmp..PartialEq$LT$$RF$B$GT$$u20$for$u20$$RF$A$GT$2eq17he433b7af07f79849E:
Lfunc_begin30:
	.loc	8 1530 0
	.cfi_startproc
	pushq	%rbp
	.cfi_def_cfa_offset 16
	.cfi_offset %rbp, -16
	movq	%rsp, %rbp
	.cfi_def_cfa_register %rbp
	subq	$16, %rsp
	movq	%rsi, %rax
	movq	%rdi, %rcx
	movq	%rcx, -16(%rbp)
	movq	%rax, -8(%rbp)
Ltmp293:
	.loc	8 1531 27 prologue_end
	movq	(%rcx), %rdi
	movq	8(%rcx), %rsi
	.loc	8 1531 34 is_stmt 0
	movq	(%rax), %rdx
	movq	8(%rax), %rcx
	.loc	8 1531 13
	callq	__ZN4core3str6traits54_$LT$impl$u20$core..cmp..PartialEq$u20$for$u20$str$GT$2eq17h0af93ccf84171080E
	.loc	8 1532 10 is_stmt 1
	andb	$1, %al
	movzbl	%al, %eax
	addq	$16, %rsp
	popq	%rbp
	retq
Ltmp294:
Lfunc_end30:
	.cfi_endproc

	.p2align	4, 0x90
__ZN4core3cmp6max_by17h5ca17a86d2767e9eE:
Lfunc_begin31:
	.loc	8 1295 0
	.cfi_startproc
	.cfi_personality 155, _rust_eh_personality
	.cfi_lsda 16, Lexception6
	pushq	%rbp
	.cfi_def_cfa_offset 16
	.cfi_offset %rbp, -16
	movq	%rsp, %rbp
	.cfi_def_cfa_register %rbp
	subq	$96, %rsp
	movq	%rdi, -80(%rbp)
	movq	%rsi, -72(%rbp)
Ltmp298:
	.loc	8 1300 11 prologue_end
	movb	$1, -25(%rbp)
	movb	$1, -26(%rbp)
	leaq	-80(%rbp), %rax
	movq	%rax, -48(%rbp)
	leaq	-72(%rbp), %rax
	movq	%rax, -40(%rbp)
	movq	-48(%rbp), %rdi
	movq	-40(%rbp), %rsi
Ltmp295:
	callq	__ZN4core3ops8function6FnOnce9call_once17h6494a6d12487dbbaE
Ltmp296:
	movb	%al, -81(%rbp)
	jmp	LBB31_3
LBB31_1:
	.loc	8 1304 1
	jmp	LBB31_4
LBB31_2:
Ltmp297:
	.loc	8 0 1 is_stmt 0
	movq	%rax, %rcx
	movl	%edx, %eax
	movq	%rcx, -16(%rbp)
	movl	%eax, -8(%rbp)
	jmp	LBB31_1
LBB31_3:
	movb	-81(%rbp), %al
	.loc	8 1300 11 is_stmt 1
	movb	%al, -49(%rbp)
	movb	-49(%rbp), %al
	.loc	8 1300 5 is_stmt 0
	incb	%al
	subb	$2, %al
	jb	LBB31_6
	jmp	LBB31_15
LBB31_15:
	jmp	LBB31_7
LBB31_4:
	.loc	8 1304 1 is_stmt 1
	testb	$1, -25(%rbp)
	jne	LBB31_12
	jmp	LBB31_11
	.loc	8 1300 11
	ud2
LBB31_6:
	.loc	8 1301 45
	movb	$0, -26(%rbp)
	movq	-72(%rbp), %rax
	movq	%rax, -64(%rbp)
	jmp	LBB31_8
LBB31_7:
	.loc	8 1302 30
	movb	$0, -25(%rbp)
	movq	-80(%rbp), %rax
	movq	%rax, -64(%rbp)
LBB31_8:
	.loc	8 1304 1
	testb	$1, -26(%rbp)
	jne	LBB31_10
LBB31_9:
	testb	$1, -25(%rbp)
	jne	LBB31_14
	jmp	LBB31_13
LBB31_10:
	jmp	LBB31_9
LBB31_11:
	.loc	8 1295 1
	movq	-16(%rbp), %rdi
	callq	__Unwind_Resume
LBB31_12:
	.loc	8 1304 1
	jmp	LBB31_11
LBB31_13:
	.loc	8 1304 2 is_stmt 0
	movq	-64(%rbp), %rax
	addq	$96, %rsp
	popq	%rbp
	retq
LBB31_14:
	.loc	8 1304 1
	jmp	LBB31_13
Ltmp299:
Lfunc_end31:
	.cfi_endproc
	.section	__TEXT,__gcc_except_tab
	.p2align	2
GCC_except_table31:
Lexception6:
	.byte	255
	.byte	255
	.byte	1
	.uleb128 Lcst_end6-Lcst_begin6
Lcst_begin6:
	.uleb128 Ltmp295-Lfunc_begin31
	.uleb128 Ltmp296-Ltmp295
	.uleb128 Ltmp297-Lfunc_begin31
	.byte	0
	.uleb128 Ltmp296-Lfunc_begin31
	.uleb128 Lfunc_end31-Ltmp296
	.byte	0
	.byte	0
Lcst_end6:
	.p2align	2

	.section	__TEXT,__text,regular,pure_instructions
	.p2align	4, 0x90
__ZN4core3cmp6min_by17h0205f983a4d285a8E:
Lfunc_begin32:
	.loc	8 1204 0 is_stmt 1
	.cfi_startproc
	.cfi_personality 155, _rust_eh_personality
	.cfi_lsda 16, Lexception7
	pushq	%rbp
	.cfi_def_cfa_offset 16
	.cfi_offset %rbp, -16
	movq	%rsp, %rbp
	.cfi_def_cfa_register %rbp
	subq	$96, %rsp
	movq	%rdi, -80(%rbp)
	movq	%rsi, -72(%rbp)
Ltmp303:
	.loc	8 1209 11 prologue_end
	movb	$1, -25(%rbp)
	movb	$1, -26(%rbp)
	leaq	-80(%rbp), %rax
	movq	%rax, -48(%rbp)
	leaq	-72(%rbp), %rax
	movq	%rax, -40(%rbp)
	movq	-48(%rbp), %rdi
	movq	-40(%rbp), %rsi
Ltmp300:
	callq	__ZN4core3ops8function6FnOnce9call_once17h6494a6d12487dbbaE
Ltmp301:
	movb	%al, -81(%rbp)
	jmp	LBB32_3
LBB32_1:
	.loc	8 1213 1
	jmp	LBB32_4
LBB32_2:
Ltmp302:
	.loc	8 0 1 is_stmt 0
	movq	%rax, %rcx
	movl	%edx, %eax
	movq	%rcx, -16(%rbp)
	movl	%eax, -8(%rbp)
	jmp	LBB32_1
LBB32_3:
	movb	-81(%rbp), %al
	.loc	8 1209 11 is_stmt 1
	movb	%al, -49(%rbp)
	movb	-49(%rbp), %al
	.loc	8 1209 5 is_stmt 0
	incb	%al
	subb	$2, %al
	jb	LBB32_6
	jmp	LBB32_15
LBB32_15:
	jmp	LBB32_7
LBB32_4:
	.loc	8 1213 1 is_stmt 1
	testb	$1, -25(%rbp)
	jne	LBB32_12
	jmp	LBB32_11
	.loc	8 1209 11
	ud2
LBB32_6:
	.loc	8 1210 45
	movb	$0, -25(%rbp)
	movq	-80(%rbp), %rax
	movq	%rax, -64(%rbp)
	jmp	LBB32_8
LBB32_7:
	.loc	8 1211 30
	movb	$0, -26(%rbp)
	movq	-72(%rbp), %rax
	movq	%rax, -64(%rbp)
LBB32_8:
	.loc	8 1213 1
	testb	$1, -26(%rbp)
	jne	LBB32_10
LBB32_9:
	testb	$1, -25(%rbp)
	jne	LBB32_14
	jmp	LBB32_13
LBB32_10:
	jmp	LBB32_9
LBB32_11:
	.loc	8 1204 1
	movq	-16(%rbp), %rdi
	callq	__Unwind_Resume
LBB32_12:
	.loc	8 1213 1
	jmp	LBB32_11
LBB32_13:
	.loc	8 1213 2 is_stmt 0
	movq	-64(%rbp), %rax
	addq	$96, %rsp
	popq	%rbp
	retq
LBB32_14:
	.loc	8 1213 1
	jmp	LBB32_13
Ltmp304:
Lfunc_end32:
	.cfi_endproc
	.section	__TEXT,__gcc_except_tab
	.p2align	2
GCC_except_table32:
Lexception7:
	.byte	255
	.byte	255
	.byte	1
	.uleb128 Lcst_end7-Lcst_begin7
Lcst_begin7:
	.uleb128 Ltmp300-Lfunc_begin32
	.uleb128 Ltmp301-Ltmp300
	.uleb128 Ltmp302-Lfunc_begin32
	.byte	0
	.uleb128 Ltmp301-Lfunc_begin32
	.uleb128 Lfunc_end32-Ltmp301
	.byte	0
	.byte	0
Lcst_end7:
	.p2align	2

	.section	__TEXT,__text,regular,pure_instructions
	.p2align	4, 0x90
__ZN4core3cmp9PartialEq2ne17haac1dd01be96ca86E:
Lfunc_begin33:
	.loc	8 227 0 is_stmt 1
	.cfi_startproc
	pushq	%rbp
	.cfi_def_cfa_offset 16
	.cfi_offset %rbp, -16
	movq	%rsp, %rbp
	.cfi_def_cfa_register %rbp
	subq	$16, %rsp
	movq	%rdi, -16(%rbp)
	movq	%rsi, -8(%rbp)
Ltmp305:
	.loc	8 228 10 prologue_end
	callq	__ZN70_$LT$core..option..Option$LT$T$GT$$u20$as$u20$core..cmp..PartialEq$GT$2eq17h0f5b6014ada8d436E
	.loc	8 228 9 is_stmt 0
	xorb	$-1, %al
	.loc	8 229 6 is_stmt 1
	andb	$1, %al
	movzbl	%al, %eax
	addq	$16, %rsp
	popq	%rbp
	retq
Ltmp306:
Lfunc_end33:
	.cfi_endproc

	.p2align	4, 0x90
__ZN4core3fmt9Arguments6new_v117hcecd45c754d3bfd4E:
Lfunc_begin34:
	.file	29 "/rustc/2c8cc343237b8f7d5a3c3703e3a87f2eb2c54a74/library/core/src/fmt" "mod.rs"
	.loc	29 399 0
	.cfi_startproc
	pushq	%rbp
	.cfi_def_cfa_offset 16
	.cfi_offset %rbp, -16
	movq	%rsp, %rbp
	.cfi_def_cfa_register %rbp
	subq	$160, %rsp
	movq	%r8, -152(%rbp)
	movq	%rcx, -144(%rbp)
	movq	%rdx, -136(%rbp)
	movq	%rsi, -128(%rbp)
	movq	%rdi, -120(%rbp)
	movq	%rdi, -112(%rbp)
	movq	%rsi, -32(%rbp)
	movq	%rdx, -24(%rbp)
	movq	%rcx, -16(%rbp)
	movq	%r8, -8(%rbp)
Ltmp307:
	.loc	29 400 12 prologue_end
	cmpq	%r8, %rdx
	jb	LBB34_2
	.loc	29 0 12 is_stmt 0
	movq	-136(%rbp), %rax
	movq	-152(%rbp), %rcx
	.loc	29 400 56
	addq	$1, %rcx
	.loc	29 400 41
	cmpq	%rcx, %rax
	seta	%al
	.loc	29 400 12
	andb	$1, %al
	movb	%al, -97(%rbp)
	jmp	LBB34_3
LBB34_2:
	movb	$1, -97(%rbp)
LBB34_3:
	testb	$1, -97(%rbp)
	jne	LBB34_5
	.loc	29 0 12
	movq	-112(%rbp), %rax
	movq	-120(%rbp), %rcx
	movq	-152(%rbp), %rdx
	movq	-144(%rbp), %rsi
	movq	-136(%rbp), %rdi
	movq	-128(%rbp), %r8
	.loc	29 403 34 is_stmt 1
	movq	$0, -48(%rbp)
	.loc	29 403 9 is_stmt 0
	movq	%r8, 16(%rcx)
	movq	%rdi, 24(%rcx)
	movq	-48(%rbp), %r8
	movq	-40(%rbp), %rdi
	movq	%r8, (%rcx)
	movq	%rdi, 8(%rcx)
	movq	%rsi, 32(%rcx)
	movq	%rdx, 40(%rcx)
	.loc	29 404 6 is_stmt 1
	addq	$160, %rsp
	popq	%rbp
	retq
LBB34_5:
	.loc	29 401 13
	leaq	l___unnamed_4(%rip), %rsi
	leaq	l___unnamed_5(%rip), %rcx
	xorl	%eax, %eax
	movl	%eax, %r8d
	leaq	-96(%rbp), %rdi
	movq	%rdi, -160(%rbp)
	movl	$1, %edx
	callq	__ZN4core3fmt9Arguments6new_v117hcecd45c754d3bfd4E
	movq	-160(%rbp), %rdi
	leaq	l___unnamed_6(%rip), %rsi
	callq	__ZN4core9panicking9panic_fmt17h9b5d807e24bcaaedE
Ltmp308:
Lfunc_end34:
	.cfi_endproc

	.p2align	4, 0x90
__ZN4core3mem12maybe_uninit20MaybeUninit$LT$T$GT$16assume_init_drop17h5a144c4f8da4f046E:
Lfunc_begin35:
	.file	30 "/rustc/2c8cc343237b8f7d5a3c3703e3a87f2eb2c54a74/library/core/src/mem" "maybe_uninit.rs"
	.loc	30 724 0
	.cfi_startproc
	pushq	%rbp
	.cfi_def_cfa_offset 16
	.cfi_offset %rbp, -16
	movq	%rsp, %rbp
	.cfi_def_cfa_register %rbp
	subq	$16, %rsp
	movq	%rdi, -16(%rbp)
Ltmp309:
	.loc	30 728 37 prologue_end
	movq	%rdi, -8(%rbp)
	.loc	30 728 18 is_stmt 0
	callq	__ZN4core3ptr47drop_in_place$LT$std..ffi..os_str..OsString$GT$17h286f5e16167a5f28E
	.loc	30 729 6 is_stmt 1
	addq	$16, %rsp
	popq	%rbp
	retq
Ltmp310:
Lfunc_end35:
	.cfi_endproc

	.p2align	4, 0x90
__ZN4core3mem12maybe_uninit20MaybeUninit$LT$T$GT$16assume_init_drop17h768cbff0a3a31383E:
Lfunc_begin36:
	.loc	30 724 0
	.cfi_startproc
	pushq	%rbp
	.cfi_def_cfa_offset 16
	.cfi_offset %rbp, -16
	movq	%rsp, %rbp
	.cfi_def_cfa_register %rbp
	subq	$16, %rsp
	movq	%rdi, -16(%rbp)
Ltmp311:
	.loc	30 728 37 prologue_end
	movq	%rdi, -8(%rbp)
	.loc	30 728 18 is_stmt 0
	callq	__ZN4core3ptr75drop_in_place$LT$core..option..Option$LT$std..ffi..os_str..OsString$GT$$GT$17h09ee66e79cac4464E
	.loc	30 729 6 is_stmt 1
	addq	$16, %rsp
	popq	%rbp
	retq
Ltmp312:
Lfunc_end36:
	.cfi_endproc

	.p2align	4, 0x90
__ZN4core3mem7replace17h0ab4d5fb5f4c1ebcE:
Lfunc_begin37:
	.file	31 "/rustc/2c8cc343237b8f7d5a3c3703e3a87f2eb2c54a74/library/core/src/mem" "mod.rs"
	.loc	31 905 0
	.cfi_startproc
	pushq	%rbp
	.cfi_def_cfa_offset 16
	.cfi_offset %rbp, -16
	movq	%rsp, %rbp
	.cfi_def_cfa_register %rbp
	subq	$120, %rsp
	movq	%rdi, -120(%rbp)
	movq	%rsi, -112(%rbp)
	movq	%rdi, -80(%rbp)
	movq	%rsi, -72(%rbp)
Ltmp313:
	.loc	31 910 32 prologue_end
	movq	%rdi, -64(%rbp)
Ltmp314:
	.loc	4 1157 34
	leaq	-88(%rbp), %rax
	movq	%rax, -56(%rbp)
	.loc	4 1157 9 is_stmt 0
	movq	(%rdi), %rax
	movq	%rax, -88(%rbp)
	.loc	4 1158 9 is_stmt 1
	movq	-88(%rbp), %rax
	movq	%rax, -104(%rbp)
	movq	%rax, -48(%rbp)
	.loc	4 0 9 is_stmt 0
	movq	-104(%rbp), %rax
	movq	-120(%rbp), %rcx
	movq	-112(%rbp), %rdx
Ltmp315:
	.loc	30 627 38 is_stmt 1
	movq	%rax, -24(%rbp)
Ltmp316:
	.loc	13 89 9
	movq	%rax, -16(%rbp)
Ltmp317:
	.loc	31 911 20
	movq	%rcx, -8(%rbp)
	.loc	31 911 26 is_stmt 0
	movq	%rdx, -96(%rbp)
Ltmp318:
	.loc	4 1354 9 is_stmt 1
	movq	-96(%rbp), %rdx
	movq	%rdx, (%rcx)
Ltmp319:
	.loc	31 914 2
	addq	$120, %rsp
	popq	%rbp
	retq
Ltmp320:
Lfunc_end37:
	.cfi_endproc

	.p2align	4, 0x90
__ZN4core3mem7replace17h4e7ce5647912b581E:
Lfunc_begin38:
	.loc	31 905 0
	.cfi_startproc
	pushq	%rbp
	.cfi_def_cfa_offset 16
	.cfi_offset %rbp, -16
	movq	%rsp, %rbp
	.cfi_def_cfa_register %rbp
	subq	$208, %rsp
	movq	%rdx, -208(%rbp)
Ltmp321:
	movq	%rsi, -200(%rbp)
	movq	%rdi, -192(%rbp)
	movq	%rdi, -184(%rbp)
	movq	%rsi, -48(%rbp)
Ltmp322:
	.loc	31 910 32 prologue_end
	movq	%rsi, -40(%rbp)
Ltmp323:
	.loc	4 1157 34
	leaq	-144(%rbp), %rax
	movq	%rax, -32(%rbp)
	.loc	4 1157 9 is_stmt 0
	movq	(%rsi), %rax
	movq	%rax, -144(%rbp)
	movq	8(%rsi), %rax
	movq	%rax, -136(%rbp)
	movq	16(%rsi), %rax
	movq	%rax, -128(%rbp)
	movq	24(%rsi), %rax
	movq	%rax, -120(%rbp)
	.loc	4 1158 9 is_stmt 1
	movq	-144(%rbp), %rax
	movq	%rax, -112(%rbp)
	movq	-136(%rbp), %rax
	movq	%rax, -104(%rbp)
	movq	-128(%rbp), %rax
	movq	%rax, -96(%rbp)
	movq	-120(%rbp), %rax
	movq	%rax, -88(%rbp)
Ltmp324:
	.loc	4 0 9 is_stmt 0
	movq	-184(%rbp), %rax
	movq	-200(%rbp), %rcx
	movq	-208(%rbp), %rdx
	movq	-192(%rbp), %rsi
Ltmp325:
	.loc	30 627 38 is_stmt 1
	movq	-112(%rbp), %rdi
	movq	%rdi, -80(%rbp)
	movq	-104(%rbp), %rdi
	movq	%rdi, -72(%rbp)
	movq	-96(%rbp), %rdi
	movq	%rdi, -64(%rbp)
	movq	-88(%rbp), %rdi
	movq	%rdi, -56(%rbp)
Ltmp326:
	.loc	13 89 9
	movq	-80(%rbp), %rdi
	movq	%rdi, (%rsi)
	movq	-72(%rbp), %rdi
	movq	%rdi, 8(%rsi)
	movq	-64(%rbp), %rdi
	movq	%rdi, 16(%rsi)
	movq	-56(%rbp), %rdi
	movq	%rdi, 24(%rsi)
Ltmp327:
	.loc	31 911 20
	movq	%rcx, -8(%rbp)
	.loc	31 911 26 is_stmt 0
	movq	(%rdx), %rsi
	movq	%rsi, -176(%rbp)
	movq	8(%rdx), %rsi
	movq	%rsi, -168(%rbp)
	movq	16(%rdx), %rsi
	movq	%rsi, -160(%rbp)
	movq	24(%rdx), %rdx
	movq	%rdx, -152(%rbp)
Ltmp328:
	.loc	4 1354 9 is_stmt 1
	movq	-176(%rbp), %rdx
	movq	%rdx, (%rcx)
	movq	-168(%rbp), %rdx
	movq	%rdx, 8(%rcx)
	movq	-160(%rbp), %rdx
	movq	%rdx, 16(%rcx)
	movq	-152(%rbp), %rdx
	movq	%rdx, 24(%rcx)
Ltmp329:
	.loc	31 914 2
	addq	$208, %rsp
	popq	%rbp
	retq
Ltmp330:
Lfunc_end38:
	.cfi_endproc

	.p2align	4, 0x90
__ZN4core3mem7replace17he8b4de169acf8bf9E:
Lfunc_begin39:
	.loc	31 905 0
	.cfi_startproc
	pushq	%rbp
	.cfi_def_cfa_offset 16
	.cfi_offset %rbp, -16
	movq	%rsp, %rbp
	.cfi_def_cfa_register %rbp
	subq	$184, %rsp
	movq	%rdi, -184(%rbp)
	movq	%rsi, -176(%rbp)
	movq	%rdx, -168(%rbp)
	movq	%rdi, -112(%rbp)
	movq	%rsi, -104(%rbp)
	movq	%rdx, -96(%rbp)
Ltmp331:
	.loc	31 910 32 prologue_end
	movq	%rdi, -88(%rbp)
Ltmp332:
	.loc	4 1157 34
	leaq	-128(%rbp), %rax
	movq	%rax, -80(%rbp)
	.loc	4 1157 9 is_stmt 0
	movq	(%rdi), %rax
	movq	%rax, -128(%rbp)
	movq	8(%rdi), %rax
	movq	%rax, -120(%rbp)
	.loc	4 1158 9 is_stmt 1
	movq	-128(%rbp), %rcx
	movq	%rcx, -160(%rbp)
	movq	-120(%rbp), %rax
	movq	%rax, -152(%rbp)
	movq	%rcx, -72(%rbp)
	movq	%rax, -64(%rbp)
	.loc	4 0 9 is_stmt 0
	movq	-152(%rbp), %rdx
	movq	-160(%rbp), %rax
	movq	-184(%rbp), %rcx
	movq	-168(%rbp), %rsi
	movq	-176(%rbp), %rdi
Ltmp333:
	.loc	30 627 38 is_stmt 1
	movq	%rax, -40(%rbp)
	movq	%rdx, -32(%rbp)
Ltmp334:
	.loc	13 89 9
	movq	%rax, -24(%rbp)
	movq	%rdx, -16(%rbp)
Ltmp335:
	.loc	31 911 20
	movq	%rcx, -8(%rbp)
	.loc	31 911 26 is_stmt 0
	movq	%rdi, -144(%rbp)
	movq	%rsi, -136(%rbp)
Ltmp336:
	.loc	4 1354 9 is_stmt 1
	movq	-144(%rbp), %rsi
	movq	-136(%rbp), %rdi
	movq	%rdi, 8(%rcx)
	movq	%rsi, (%rcx)
Ltmp337:
	.loc	31 914 2
	addq	$184, %rsp
	popq	%rbp
	retq
Ltmp338:
Lfunc_end39:
	.cfi_endproc

	.p2align	4, 0x90
__ZN4core3ops8function6FnOnce40call_once$u7b$$u7b$vtable.shim$u7d$$u7d$17h262c722cfa0cc623E:
Lfunc_begin40:
	.file	32 "/rustc/2c8cc343237b8f7d5a3c3703e3a87f2eb2c54a74/library/core/src/ops" "function.rs"
	.loc	32 250 0
	.cfi_startproc
	pushq	%rbp
	.cfi_def_cfa_offset 16
	.cfi_offset %rbp, -16
	movq	%rsp, %rbp
	.cfi_def_cfa_register %rbp
	subq	$16, %rsp
	movq	%rdi, -8(%rbp)
Ltmp339:
	.loc	32 250 5 prologue_end
	movq	(%rdi), %rdi
	callq	__ZN4core3ops8function6FnOnce9call_once17h5a3b6d204fec298aE
	addq	$16, %rsp
	popq	%rbp
	retq
Ltmp340:
Lfunc_end40:
	.cfi_endproc

	.p2align	4, 0x90
__ZN4core3ops8function6FnOnce9call_once17h5a3b6d204fec298aE:
Lfunc_begin41:
	.loc	32 250 0
	.cfi_startproc
	.cfi_personality 155, _rust_eh_personality
	.cfi_lsda 16, Lexception8
	pushq	%rbp
	.cfi_def_cfa_offset 16
	.cfi_offset %rbp, -16
	movq	%rsp, %rbp
	.cfi_def_cfa_register %rbp
	subq	$48, %rsp
	movq	%rdi, -32(%rbp)
Ltmp341:
	leaq	-32(%rbp), %rdi
Ltmp344:
	.loc	32 250 5 prologue_end
	callq	__ZN3std2rt10lang_start28_$u7b$$u7b$closure$u7d$$u7d$17h97aa83efe67e9025E
Ltmp342:
	movl	%eax, -36(%rbp)
	jmp	LBB41_3
LBB41_1:
	movq	-16(%rbp), %rdi
	callq	__Unwind_Resume
LBB41_2:
Ltmp343:
	.loc	32 0 5 is_stmt 0
	movq	%rax, %rcx
	movl	%edx, %eax
	movq	%rcx, -16(%rbp)
	movl	%eax, -8(%rbp)
	jmp	LBB41_1
LBB41_3:
	movl	-36(%rbp), %eax
	.loc	32 250 5
	addq	$48, %rsp
	popq	%rbp
	retq
Ltmp345:
Lfunc_end41:
	.cfi_endproc
	.section	__TEXT,__gcc_except_tab
	.p2align	2
GCC_except_table41:
Lexception8:
	.byte	255
	.byte	255
	.byte	1
	.uleb128 Lcst_end8-Lcst_begin8
Lcst_begin8:
	.uleb128 Ltmp341-Lfunc_begin41
	.uleb128 Ltmp342-Ltmp341
	.uleb128 Ltmp343-Lfunc_begin41
	.byte	0
	.uleb128 Ltmp342-Lfunc_begin41
	.uleb128 Lfunc_end41-Ltmp342
	.byte	0
	.byte	0
Lcst_end8:
	.p2align	2

	.section	__TEXT,__text,regular,pure_instructions
	.p2align	4, 0x90
__ZN4core3ops8function6FnOnce9call_once17h6494a6d12487dbbaE:
Lfunc_begin42:
	.loc	32 250 0 is_stmt 1
	.cfi_startproc
	pushq	%rbp
	.cfi_def_cfa_offset 16
	.cfi_offset %rbp, -16
	movq	%rsp, %rbp
	.cfi_def_cfa_register %rbp
	subq	$32, %rsp
	movq	%rdi, -24(%rbp)
	movq	%rsi, -16(%rbp)
Ltmp346:
	.loc	32 250 5 prologue_end
	movq	-24(%rbp), %rdi
	movq	-16(%rbp), %rsi
	callq	__ZN4core3cmp5impls50_$LT$impl$u20$core..cmp..Ord$u20$for$u20$usize$GT$3cmp17h8cafc4a400c3c592E
	addq	$32, %rsp
	popq	%rbp
	retq
Ltmp347:
Lfunc_end42:
	.cfi_endproc

	.p2align	4, 0x90
__ZN4core3ops8function6FnOnce9call_once17h7553e764a7a05929E:
Lfunc_begin43:
	.loc	32 250 0
	.cfi_startproc
	pushq	%rbp
	.cfi_def_cfa_offset 16
	.cfi_offset %rbp, -16
	movq	%rsp, %rbp
	.cfi_def_cfa_register %rbp
	subq	$16, %rsp
	movq	%rdi, -8(%rbp)
Ltmp348:
	.loc	32 250 5 prologue_end
	callq	*%rdi
	addq	$16, %rsp
	popq	%rbp
	retq
Ltmp349:
Lfunc_end43:
	.cfi_endproc

	.p2align	4, 0x90
__ZN4core3ptr101drop_in_place$LT$std..io..error..ErrorData$LT$alloc..boxed..Box$LT$std..io..error..Custom$GT$$GT$$GT$17hd336eb27ec32ca85E:
Lfunc_begin44:
	.loc	4 490 0
	.cfi_startproc
	pushq	%rbp
	.cfi_def_cfa_offset 16
	.cfi_offset %rbp, -16
	movq	%rsp, %rbp
	.cfi_def_cfa_register %rbp
	subq	$16, %rsp
	movq	%rdi, -16(%rbp)
	movq	%rdi, -8(%rbp)
Ltmp350:
	.loc	4 490 1 prologue_end
	movb	(%rdi), %al
	subb	$3, %al
	jb	LBB44_2
	jmp	LBB44_1
LBB44_1:
	.loc	4 0 1 is_stmt 0
	movq	-16(%rbp), %rdi
	.loc	4 490 1
	addq	$8, %rdi
	callq	__ZN4core3ptr68drop_in_place$LT$alloc..boxed..Box$LT$std..io..error..Custom$GT$$GT$17hc85fe95bece768faE
LBB44_2:
	addq	$16, %rsp
	popq	%rbp
	retq
Ltmp351:
Lfunc_end44:
	.cfi_endproc

	.p2align	4, 0x90
__ZN4core3ptr118drop_in_place$LT$alloc..boxed..Box$LT$dyn$u20$core..error..Error$u2b$core..marker..Send$u2b$core..marker..Sync$GT$$GT$17h0b1b3499127bf44eE:
Lfunc_begin45:
	.loc	4 490 0 is_stmt 1
	.cfi_startproc
	.cfi_personality 155, _rust_eh_personality
	.cfi_lsda 16, Lexception9
	pushq	%rbp
	.cfi_def_cfa_offset 16
	.cfi_offset %rbp, -16
	movq	%rsp, %rbp
	.cfi_def_cfa_register %rbp
	subq	$32, %rsp
	movq	%rdi, %rax
	movq	%rax, -32(%rbp)
	movq	%rax, -24(%rbp)
Ltmp358:
	.loc	4 490 1 prologue_end
	movq	(%rax), %rdi
	movq	8(%rax), %rax
	movq	(%rax), %rax
Ltmp352:
	callq	*%rax
Ltmp353:
	jmp	LBB45_3
LBB45_1:
	.loc	4 0 1 is_stmt 0
	movq	-32(%rbp), %rax
	.loc	4 490 1
	movq	(%rax), %rdi
	movq	8(%rax), %rsi
Ltmp355:
	callq	__ZN5alloc5alloc8box_free17hbd20a4559a4878d4E
Ltmp356:
	jmp	LBB45_5
LBB45_2:
Ltmp354:
	.loc	4 0 1
	movq	%rax, %rcx
	movl	%edx, %eax
	movq	%rcx, -16(%rbp)
	movl	%eax, -8(%rbp)
	jmp	LBB45_1
LBB45_3:
	movq	-32(%rbp), %rax
	.loc	4 490 1
	movq	(%rax), %rdi
	movq	8(%rax), %rsi
	callq	__ZN5alloc5alloc8box_free17hbd20a4559a4878d4E
	addq	$32, %rsp
	popq	%rbp
	retq
LBB45_4:
Ltmp357:
	callq	__ZN4core9panicking19panic_cannot_unwind17h1fbca7e1d7f56ae1E
LBB45_5:
	movq	-16(%rbp), %rdi
	callq	__Unwind_Resume
Ltmp359:
Lfunc_end45:
	.cfi_endproc
	.section	__TEXT,__gcc_except_tab
	.p2align	2
GCC_except_table45:
Lexception9:
	.byte	255
	.byte	255
	.byte	1
	.uleb128 Lcst_end9-Lcst_begin9
Lcst_begin9:
	.uleb128 Ltmp352-Lfunc_begin45
	.uleb128 Ltmp353-Ltmp352
	.uleb128 Ltmp354-Lfunc_begin45
	.byte	0
	.uleb128 Ltmp355-Lfunc_begin45
	.uleb128 Ltmp356-Ltmp355
	.uleb128 Ltmp357-Lfunc_begin45
	.byte	0
	.uleb128 Ltmp356-Lfunc_begin45
	.uleb128 Lfunc_end45-Ltmp356
	.byte	0
	.byte	0
Lcst_end9:
	.p2align	2

	.section	__TEXT,__text,regular,pure_instructions
	.p2align	4, 0x90
__ZN4core3ptr152drop_in_place$LT$alloc..collections..btree..map..BTreeMap$LT$std..ffi..os_str..OsString$C$core..option..Option$LT$std..ffi..os_str..OsString$GT$$GT$$GT$17he9a7cb4eaeaa5e1fE:
Lfunc_begin46:
	.loc	4 490 0 is_stmt 1
	.cfi_startproc
	pushq	%rbp
	.cfi_def_cfa_offset 16
	.cfi_offset %rbp, -16
	movq	%rsp, %rbp
	.cfi_def_cfa_register %rbp
	subq	$16, %rsp
	movq	%rdi, -8(%rbp)
Ltmp360:
	.loc	4 490 1 prologue_end
	callq	__ZN99_$LT$alloc..collections..btree..map..BTreeMap$LT$K$C$V$C$A$GT$$u20$as$u20$core..ops..drop..Drop$GT$4drop17hae3f9296c121f39cE
	addq	$16, %rsp
	popq	%rbp
	retq
Ltmp361:
Lfunc_end46:
	.cfi_endproc

	.p2align	4, 0x90
__ZN4core3ptr152drop_in_place$LT$alloc..collections..btree..map..IntoIter$LT$std..ffi..os_str..OsString$C$core..option..Option$LT$std..ffi..os_str..OsString$GT$$GT$$GT$17h410aed38deded58bE:
Lfunc_begin47:
	.loc	4 490 0
	.cfi_startproc
	pushq	%rbp
	.cfi_def_cfa_offset 16
	.cfi_offset %rbp, -16
	movq	%rsp, %rbp
	.cfi_def_cfa_register %rbp
	subq	$16, %rsp
	movq	%rdi, -8(%rbp)
Ltmp362:
	.loc	4 490 1 prologue_end
	callq	__ZN99_$LT$alloc..collections..btree..map..IntoIter$LT$K$C$V$C$A$GT$$u20$as$u20$core..ops..drop..Drop$GT$4drop17h93e3d6dab73e075bE
	addq	$16, %rsp
	popq	%rbp
	retq
Ltmp363:
Lfunc_end47:
	.cfi_endproc

	.p2align	4, 0x90
__ZN4core3ptr203drop_in_place$LT$dyn$u20$core..ops..function..FnMut$LT$$LP$$RP$$GT$$u2b$Output$u20$$u3d$$u20$core..result..Result$LT$$LP$$RP$$C$std..io..error..Error$GT$$u2b$core..marker..Send$u2b$core..marker..Sync$GT$17h7386f41f11c5bf7eE:
Lfunc_begin48:
	.loc	4 490 0
	.cfi_startproc
	pushq	%rbp
	.cfi_def_cfa_offset 16
	.cfi_offset %rbp, -16
	movq	%rsp, %rbp
	.cfi_def_cfa_register %rbp
	subq	$16, %rsp
	movq	%rdi, -16(%rbp)
	movq	%rsi, -8(%rbp)
Ltmp364:
	.loc	4 490 1 prologue_end
	callq	*(%rsi)
	addq	$16, %rsp
	popq	%rbp
	retq
Ltmp365:
Lfunc_end48:
	.cfi_endproc

	.p2align	4, 0x90
__ZN4core3ptr228drop_in_place$LT$alloc..boxed..Box$LT$dyn$u20$core..ops..function..FnMut$LT$$LP$$RP$$GT$$u2b$Output$u20$$u3d$$u20$core..result..Result$LT$$LP$$RP$$C$std..io..error..Error$GT$$u2b$core..marker..Send$u2b$core..marker..Sync$GT$$GT$17ha128e9e46adc0271E:
Lfunc_begin49:
	.loc	4 490 0
	.cfi_startproc
	.cfi_personality 155, _rust_eh_personality
	.cfi_lsda 16, Lexception10
	pushq	%rbp
	.cfi_def_cfa_offset 16
	.cfi_offset %rbp, -16
	movq	%rsp, %rbp
	.cfi_def_cfa_register %rbp
	subq	$32, %rsp
	movq	%rdi, %rax
	movq	%rax, -32(%rbp)
	movq	%rax, -24(%rbp)
Ltmp372:
	.loc	4 490 1 prologue_end
	movq	(%rax), %rdi
	movq	8(%rax), %rax
	movq	(%rax), %rax
Ltmp366:
	callq	*%rax
Ltmp367:
	jmp	LBB49_3
LBB49_1:
	.loc	4 0 1 is_stmt 0
	movq	-32(%rbp), %rax
	.loc	4 490 1
	movq	(%rax), %rdi
	movq	8(%rax), %rsi
Ltmp369:
	callq	__ZN5alloc5alloc8box_free17h985f12e51e5b1a16E
Ltmp370:
	jmp	LBB49_5
LBB49_2:
Ltmp368:
	.loc	4 0 1
	movq	%rax, %rcx
	movl	%edx, %eax
	movq	%rcx, -16(%rbp)
	movl	%eax, -8(%rbp)
	jmp	LBB49_1
LBB49_3:
	movq	-32(%rbp), %rax
	.loc	4 490 1
	movq	(%rax), %rdi
	movq	8(%rax), %rsi
	callq	__ZN5alloc5alloc8box_free17h985f12e51e5b1a16E
	addq	$32, %rsp
	popq	%rbp
	retq
LBB49_4:
Ltmp371:
	callq	__ZN4core9panicking19panic_cannot_unwind17h1fbca7e1d7f56ae1E
LBB49_5:
	movq	-16(%rbp), %rdi
	callq	__Unwind_Resume
Ltmp373:
Lfunc_end49:
	.cfi_endproc
	.section	__TEXT,__gcc_except_tab
	.p2align	2
GCC_except_table49:
Lexception10:
	.byte	255
	.byte	255
	.byte	1
	.uleb128 Lcst_end10-Lcst_begin10
Lcst_begin10:
	.uleb128 Ltmp366-Lfunc_begin49
	.uleb128 Ltmp367-Ltmp366
	.uleb128 Ltmp368-Lfunc_begin49
	.byte	0
	.uleb128 Ltmp369-Lfunc_begin49
	.uleb128 Ltmp370-Ltmp369
	.uleb128 Ltmp371-Lfunc_begin49
	.byte	0
	.uleb128 Ltmp370-Lfunc_begin49
	.uleb128 Lfunc_end49-Ltmp370
	.byte	0
	.byte	0
Lcst_end10:
	.p2align	2

	.section	__TEXT,__text,regular,pure_instructions
	.p2align	4, 0x90
__ZN4core3ptr238drop_in_place$LT$$u5b$alloc..boxed..Box$LT$dyn$u20$core..ops..function..FnMut$LT$$LP$$RP$$GT$$u2b$Output$u20$$u3d$$u20$core..result..Result$LT$$LP$$RP$$C$std..io..error..Error$GT$$u2b$core..marker..Send$u2b$core..marker..Sync$GT$$u5d$$GT$17h239daad4d61cc768E:
Lfunc_begin50:
	.loc	4 490 0 is_stmt 1
	.cfi_startproc
	.cfi_personality 155, _rust_eh_personality
	.cfi_lsda 16, Lexception11
	pushq	%rbp
	.cfi_def_cfa_offset 16
	.cfi_offset %rbp, -16
	movq	%rsp, %rbp
	.cfi_def_cfa_register %rbp
	subq	$80, %rsp
	movq	%rdi, -64(%rbp)
	movq	%rsi, -56(%rbp)
	movq	%rdi, -32(%rbp)
	movq	%rsi, -24(%rbp)
Ltmp385:
	.loc	4 490 1 prologue_end
	xorl	%eax, %eax
	testb	$1, %al
	jne	LBB50_1
	jmp	LBB50_2
LBB50_1:
	movq	$0, -48(%rbp)
	jmp	LBB50_11
LBB50_2:
	.loc	4 0 1 is_stmt 0
	movq	-56(%rbp), %rax
	movq	-64(%rbp), %rcx
	.loc	4 490 1
	movq	%rcx, -40(%rbp)
	shlq	$4, %rax
	addq	-40(%rbp), %rax
	movq	%rax, -72(%rbp)
LBB50_3:
	.loc	4 0 1
	movq	-72(%rbp), %rax
	.loc	4 490 1
	cmpq	%rax, -40(%rbp)
	je	LBB50_5
	movq	-40(%rbp), %rdi
	movq	%rdi, %rax
	addq	$16, %rax
	movq	%rax, -40(%rbp)
Ltmp374:
	callq	__ZN4core3ptr228drop_in_place$LT$alloc..boxed..Box$LT$dyn$u20$core..ops..function..FnMut$LT$$LP$$RP$$GT$$u2b$Output$u20$$u3d$$u20$core..result..Result$LT$$LP$$RP$$C$std..io..error..Error$GT$$u2b$core..marker..Send$u2b$core..marker..Sync$GT$$GT$17ha128e9e46adc0271E
Ltmp375:
	jmp	LBB50_3
LBB50_5:
	addq	$80, %rsp
	popq	%rbp
	retq
LBB50_6:
	.loc	4 0 1
	movq	-72(%rbp), %rax
	.loc	4 490 1
	cmpq	%rax, -40(%rbp)
	je	LBB50_9
	jmp	LBB50_8
LBB50_7:
Ltmp376:
	.loc	4 0 1
	movq	%rax, %rcx
	movl	%edx, %eax
	movq	%rcx, -16(%rbp)
	movl	%eax, -8(%rbp)
	jmp	LBB50_6
LBB50_8:
	.loc	4 490 1
	movq	-40(%rbp), %rdi
	movq	%rdi, %rax
	addq	$16, %rax
	movq	%rax, -40(%rbp)
Ltmp377:
	callq	__ZN4core3ptr228drop_in_place$LT$alloc..boxed..Box$LT$dyn$u20$core..ops..function..FnMut$LT$$LP$$RP$$GT$$u2b$Output$u20$$u3d$$u20$core..result..Result$LT$$LP$$RP$$C$std..io..error..Error$GT$$u2b$core..marker..Send$u2b$core..marker..Sync$GT$$GT$17ha128e9e46adc0271E
Ltmp378:
	jmp	LBB50_6
LBB50_9:
	movq	-16(%rbp), %rdi
	callq	__Unwind_Resume
LBB50_10:
Ltmp384:
	callq	__ZN4core9panicking19panic_cannot_unwind17h1fbca7e1d7f56ae1E
LBB50_11:
	.loc	4 0 1
	movq	-56(%rbp), %rax
	.loc	4 490 1
	cmpq	%rax, -48(%rbp)
	je	LBB50_5
	.loc	4 0 1
	movq	-64(%rbp), %rdi
	.loc	4 490 1
	movq	-48(%rbp), %rax
	movq	%rax, %rcx
	shlq	$4, %rcx
	addq	%rcx, %rdi
	incq	%rax
	movq	%rax, -48(%rbp)
Ltmp379:
	callq	__ZN4core3ptr228drop_in_place$LT$alloc..boxed..Box$LT$dyn$u20$core..ops..function..FnMut$LT$$LP$$RP$$GT$$u2b$Output$u20$$u3d$$u20$core..result..Result$LT$$LP$$RP$$C$std..io..error..Error$GT$$u2b$core..marker..Send$u2b$core..marker..Sync$GT$$GT$17ha128e9e46adc0271E
Ltmp380:
	jmp	LBB50_11
LBB50_13:
	.loc	4 0 1
	movq	-56(%rbp), %rax
	.loc	4 490 1
	cmpq	%rax, -48(%rbp)
	je	LBB50_9
	jmp	LBB50_15
LBB50_14:
Ltmp381:
	.loc	4 0 1
	movq	%rax, %rcx
	movl	%edx, %eax
	movq	%rcx, -16(%rbp)
	movl	%eax, -8(%rbp)
	jmp	LBB50_13
LBB50_15:
	movq	-64(%rbp), %rdi
	.loc	4 490 1
	movq	-48(%rbp), %rax
	movq	%rax, %rcx
	shlq	$4, %rcx
	addq	%rcx, %rdi
	incq	%rax
	movq	%rax, -48(%rbp)
Ltmp382:
	callq	__ZN4core3ptr228drop_in_place$LT$alloc..boxed..Box$LT$dyn$u20$core..ops..function..FnMut$LT$$LP$$RP$$GT$$u2b$Output$u20$$u3d$$u20$core..result..Result$LT$$LP$$RP$$C$std..io..error..Error$GT$$u2b$core..marker..Send$u2b$core..marker..Sync$GT$$GT$17ha128e9e46adc0271E
Ltmp383:
	jmp	LBB50_13
Ltmp386:
Lfunc_end50:
	.cfi_endproc
	.section	__TEXT,__gcc_except_tab
	.p2align	2
GCC_except_table50:
Lexception11:
	.byte	255
	.byte	255
	.byte	1
	.uleb128 Lcst_end11-Lcst_begin11
Lcst_begin11:
	.uleb128 Ltmp374-Lfunc_begin50
	.uleb128 Ltmp375-Ltmp374
	.uleb128 Ltmp376-Lfunc_begin50
	.byte	0
	.uleb128 Ltmp377-Lfunc_begin50
	.uleb128 Ltmp378-Ltmp377
	.uleb128 Ltmp384-Lfunc_begin50
	.byte	0
	.uleb128 Ltmp378-Lfunc_begin50
	.uleb128 Ltmp379-Ltmp378
	.byte	0
	.byte	0
	.uleb128 Ltmp379-Lfunc_begin50
	.uleb128 Ltmp380-Ltmp379
	.uleb128 Ltmp381-Lfunc_begin50
	.byte	0
	.uleb128 Ltmp382-Lfunc_begin50
	.uleb128 Ltmp383-Ltmp382
	.uleb128 Ltmp384-Lfunc_begin50
	.byte	0
Lcst_end11:
	.p2align	2

	.section	__TEXT,__text,regular,pure_instructions
	.p2align	4, 0x90
__ZN4core3ptr250drop_in_place$LT$$LT$alloc..collections..btree..map..IntoIter$LT$K$C$V$C$A$GT$$u20$as$u20$core..ops..drop..Drop$GT$..drop..DropGuard$LT$std..ffi..os_str..OsString$C$core..option..Option$LT$std..ffi..os_str..OsString$GT$$C$alloc..alloc..Global$GT$$GT$17hc446bb96bee9b9a6E:
Lfunc_begin51:
	.loc	4 490 0 is_stmt 1
	.cfi_startproc
	pushq	%rbp
	.cfi_def_cfa_offset 16
	.cfi_offset %rbp, -16
	movq	%rsp, %rbp
	.cfi_def_cfa_register %rbp
	subq	$16, %rsp
	movq	%rdi, -8(%rbp)
Ltmp387:
	.loc	4 490 1 prologue_end
	callq	__ZN174_$LT$$LT$alloc..collections..btree..map..IntoIter$LT$K$C$V$C$A$GT$$u20$as$u20$core..ops..drop..Drop$GT$..drop..DropGuard$LT$K$C$V$C$A$GT$$u20$as$u20$core..ops..drop..Drop$GT$4drop17h2eb7b5fde43be9bfE
	addq	$16, %rsp
	popq	%rbp
	retq
Ltmp388:
Lfunc_end51:
	.cfi_endproc

	.p2align	4, 0x90
__ZN4core3ptr251drop_in_place$LT$alloc..vec..Vec$LT$alloc..boxed..Box$LT$dyn$u20$core..ops..function..FnMut$LT$$LP$$RP$$GT$$u2b$Output$u20$$u3d$$u20$core..result..Result$LT$$LP$$RP$$C$std..io..error..Error$GT$$u2b$core..marker..Send$u2b$core..marker..Sync$GT$$GT$$GT$17h8e02f5f2dff9d1bcE:
Lfunc_begin52:
	.loc	4 490 0
	.cfi_startproc
	.cfi_personality 155, _rust_eh_personality
	.cfi_lsda 16, Lexception12
	pushq	%rbp
	.cfi_def_cfa_offset 16
	.cfi_offset %rbp, -16
	movq	%rsp, %rbp
	.cfi_def_cfa_register %rbp
	subq	$32, %rsp
	movq	%rdi, -32(%rbp)
	movq	%rdi, -24(%rbp)
Ltmp389:
Ltmp395:
	.loc	4 490 1 prologue_end
	callq	__ZN70_$LT$alloc..vec..Vec$LT$T$C$A$GT$$u20$as$u20$core..ops..drop..Drop$GT$4drop17hab4e3d78d9e948c7E
Ltmp390:
	jmp	LBB52_3
LBB52_1:
Ltmp392:
	.loc	4 0 1 is_stmt 0
	movq	-32(%rbp), %rdi
	.loc	4 490 1
	callq	__ZN4core3ptr258drop_in_place$LT$alloc..raw_vec..RawVec$LT$alloc..boxed..Box$LT$dyn$u20$core..ops..function..FnMut$LT$$LP$$RP$$GT$$u2b$Output$u20$$u3d$$u20$core..result..Result$LT$$LP$$RP$$C$std..io..error..Error$GT$$u2b$core..marker..Send$u2b$core..marker..Sync$GT$$GT$$GT$17hc38b1b565ccd72b5E
Ltmp393:
	jmp	LBB52_5
LBB52_2:
Ltmp391:
	.loc	4 0 1
	movq	%rax, %rcx
	movl	%edx, %eax
	movq	%rcx, -16(%rbp)
	movl	%eax, -8(%rbp)
	jmp	LBB52_1
LBB52_3:
	movq	-32(%rbp), %rdi
	.loc	4 490 1
	callq	__ZN4core3ptr258drop_in_place$LT$alloc..raw_vec..RawVec$LT$alloc..boxed..Box$LT$dyn$u20$core..ops..function..FnMut$LT$$LP$$RP$$GT$$u2b$Output$u20$$u3d$$u20$core..result..Result$LT$$LP$$RP$$C$std..io..error..Error$GT$$u2b$core..marker..Send$u2b$core..marker..Sync$GT$$GT$$GT$17hc38b1b565ccd72b5E
	addq	$32, %rsp
	popq	%rbp
	retq
LBB52_4:
Ltmp394:
	callq	__ZN4core9panicking19panic_cannot_unwind17h1fbca7e1d7f56ae1E
LBB52_5:
	movq	-16(%rbp), %rdi
	callq	__Unwind_Resume
Ltmp396:
Lfunc_end52:
	.cfi_endproc
	.section	__TEXT,__gcc_except_tab
	.p2align	2
GCC_except_table52:
Lexception12:
	.byte	255
	.byte	255
	.byte	1
	.uleb128 Lcst_end12-Lcst_begin12
Lcst_begin12:
	.uleb128 Ltmp389-Lfunc_begin52
	.uleb128 Ltmp390-Ltmp389
	.uleb128 Ltmp391-Lfunc_begin52
	.byte	0
	.uleb128 Ltmp392-Lfunc_begin52
	.uleb128 Ltmp393-Ltmp392
	.uleb128 Ltmp394-Lfunc_begin52
	.byte	0
	.uleb128 Ltmp393-Lfunc_begin52
	.uleb128 Lfunc_end52-Ltmp393
	.byte	0
	.byte	0
Lcst_end12:
	.p2align	2

	.section	__TEXT,__text,regular,pure_instructions
	.p2align	4, 0x90
__ZN4core3ptr258drop_in_place$LT$alloc..raw_vec..RawVec$LT$alloc..boxed..Box$LT$dyn$u20$core..ops..function..FnMut$LT$$LP$$RP$$GT$$u2b$Output$u20$$u3d$$u20$core..result..Result$LT$$LP$$RP$$C$std..io..error..Error$GT$$u2b$core..marker..Send$u2b$core..marker..Sync$GT$$GT$$GT$17hc38b1b565ccd72b5E:
Lfunc_begin53:
	.loc	4 490 0 is_stmt 1
	.cfi_startproc
	pushq	%rbp
	.cfi_def_cfa_offset 16
	.cfi_offset %rbp, -16
	movq	%rsp, %rbp
	.cfi_def_cfa_register %rbp
	subq	$16, %rsp
	movq	%rdi, -8(%rbp)
Ltmp397:
	.loc	4 490 1 prologue_end
	callq	__ZN77_$LT$alloc..raw_vec..RawVec$LT$T$C$A$GT$$u20$as$u20$core..ops..drop..Drop$GT$4drop17h2600f61b5b86e46dE
	addq	$16, %rsp
	popq	%rbp
	retq
Ltmp398:
Lfunc_end53:
	.cfi_endproc

	.p2align	4, 0x90
__ZN4core3ptr41drop_in_place$LT$std..process..Output$GT$17hb89257a0c11ac50bE:
Lfunc_begin54:
	.loc	4 490 0
	.cfi_startproc
	.cfi_personality 155, _rust_eh_personality
	.cfi_lsda 16, Lexception13
	pushq	%rbp
	.cfi_def_cfa_offset 16
	.cfi_offset %rbp, -16
	movq	%rsp, %rbp
	.cfi_def_cfa_register %rbp
	subq	$32, %rsp
	movq	%rdi, -32(%rbp)
	movq	%rdi, -24(%rbp)
Ltmp399:
Ltmp405:
	.loc	4 490 1 prologue_end
	callq	__ZN4core3ptr46drop_in_place$LT$alloc..vec..Vec$LT$u8$GT$$GT$17h4a03082c2ad65b99E
Ltmp400:
	jmp	LBB54_3
LBB54_1:
	.loc	4 0 1 is_stmt 0
	movq	-32(%rbp), %rdi
	.loc	4 490 1
	addq	$24, %rdi
Ltmp402:
	callq	__ZN4core3ptr46drop_in_place$LT$alloc..vec..Vec$LT$u8$GT$$GT$17h4a03082c2ad65b99E
Ltmp403:
	jmp	LBB54_5
LBB54_2:
Ltmp401:
	.loc	4 0 1
	movq	%rax, %rcx
	movl	%edx, %eax
	movq	%rcx, -16(%rbp)
	movl	%eax, -8(%rbp)
	jmp	LBB54_1
LBB54_3:
	movq	-32(%rbp), %rdi
	.loc	4 490 1
	addq	$24, %rdi
	callq	__ZN4core3ptr46drop_in_place$LT$alloc..vec..Vec$LT$u8$GT$$GT$17h4a03082c2ad65b99E
	addq	$32, %rsp
	popq	%rbp
	retq
LBB54_4:
Ltmp404:
	callq	__ZN4core9panicking19panic_cannot_unwind17h1fbca7e1d7f56ae1E
LBB54_5:
	movq	-16(%rbp), %rdi
	callq	__Unwind_Resume
Ltmp406:
Lfunc_end54:
	.cfi_endproc
	.section	__TEXT,__gcc_except_tab
	.p2align	2
GCC_except_table54:
Lexception13:
	.byte	255
	.byte	255
	.byte	1
	.uleb128 Lcst_end13-Lcst_begin13
Lcst_begin13:
	.uleb128 Ltmp399-Lfunc_begin54
	.uleb128 Ltmp400-Ltmp399
	.uleb128 Ltmp401-Lfunc_begin54
	.byte	0
	.uleb128 Ltmp402-Lfunc_begin54
	.uleb128 Ltmp403-Ltmp402
	.uleb128 Ltmp404-Lfunc_begin54
	.byte	0
	.uleb128 Ltmp403-Lfunc_begin54
	.uleb128 Lfunc_end54-Ltmp403
	.byte	0
	.byte	0
Lcst_end13:
	.p2align	2

	.section	__TEXT,__text,regular,pure_instructions
	.p2align	4, 0x90
__ZN4core3ptr42drop_in_place$LT$std..io..error..Error$GT$17ha28ea3586c9391faE:
Lfunc_begin55:
	.loc	4 490 0 is_stmt 1
	.cfi_startproc
	pushq	%rbp
	.cfi_def_cfa_offset 16
	.cfi_offset %rbp, -16
	movq	%rsp, %rbp
	.cfi_def_cfa_register %rbp
	subq	$16, %rsp
	movq	%rdi, -8(%rbp)
Ltmp407:
	.loc	4 490 1 prologue_end
	callq	__ZN4core3ptr57drop_in_place$LT$std..io..error..repr_bitpacked..Repr$GT$17h03b8794fbe245b90E
	addq	$16, %rsp
	popq	%rbp
	retq
Ltmp408:
Lfunc_end55:
	.cfi_endproc

	.p2align	4, 0x90
__ZN4core3ptr42drop_in_place$LT$std..process..Command$GT$17hf4088d1edf3163f1E:
Lfunc_begin56:
	.loc	4 490 0
	.cfi_startproc
	pushq	%rbp
	.cfi_def_cfa_offset 16
	.cfi_offset %rbp, -16
	movq	%rsp, %rbp
	.cfi_def_cfa_register %rbp
	subq	$16, %rsp
	movq	%rdi, -8(%rbp)
Ltmp409:
	.loc	4 490 1 prologue_end
	callq	__ZN4core3ptr69drop_in_place$LT$std..sys..unix..process..process_common..Command$GT$17hf7e1ce1b0f523ca5E
	addq	$16, %rsp
	popq	%rbp
	retq
Ltmp410:
Lfunc_end56:
	.cfi_endproc

	.p2align	4, 0x90
__ZN4core3ptr43drop_in_place$LT$std..io..error..Custom$GT$17h2bc4174b0e07bf1aE:
Lfunc_begin57:
	.loc	4 490 0
	.cfi_startproc
	pushq	%rbp
	.cfi_def_cfa_offset 16
	.cfi_offset %rbp, -16
	movq	%rsp, %rbp
	.cfi_def_cfa_register %rbp
	subq	$16, %rsp
	movq	%rdi, -8(%rbp)
Ltmp411:
	.loc	4 490 1 prologue_end
	callq	__ZN4core3ptr118drop_in_place$LT$alloc..boxed..Box$LT$dyn$u20$core..error..Error$u2b$core..marker..Send$u2b$core..marker..Sync$GT$$GT$17h0b1b3499127bf44eE
	addq	$16, %rsp
	popq	%rbp
	retq
Ltmp412:
Lfunc_end57:
	.cfi_endproc

	.p2align	4, 0x90
__ZN4core3ptr46drop_in_place$LT$alloc..vec..Vec$LT$u8$GT$$GT$17h4a03082c2ad65b99E:
Lfunc_begin58:
	.loc	4 490 0
	.cfi_startproc
	.cfi_personality 155, _rust_eh_personality
	.cfi_lsda 16, Lexception14
	pushq	%rbp
	.cfi_def_cfa_offset 16
	.cfi_offset %rbp, -16
	movq	%rsp, %rbp
	.cfi_def_cfa_register %rbp
	subq	$32, %rsp
	movq	%rdi, -32(%rbp)
	movq	%rdi, -24(%rbp)
Ltmp413:
Ltmp419:
	.loc	4 490 1 prologue_end
	callq	__ZN70_$LT$alloc..vec..Vec$LT$T$C$A$GT$$u20$as$u20$core..ops..drop..Drop$GT$4drop17hb150aadeb24602b6E
Ltmp414:
	jmp	LBB58_3
LBB58_1:
Ltmp416:
	.loc	4 0 1 is_stmt 0
	movq	-32(%rbp), %rdi
	.loc	4 490 1
	callq	__ZN4core3ptr53drop_in_place$LT$alloc..raw_vec..RawVec$LT$u8$GT$$GT$17hd86f1884c1c5ee82E
Ltmp417:
	jmp	LBB58_5
LBB58_2:
Ltmp415:
	.loc	4 0 1
	movq	%rax, %rcx
	movl	%edx, %eax
	movq	%rcx, -16(%rbp)
	movl	%eax, -8(%rbp)
	jmp	LBB58_1
LBB58_3:
	movq	-32(%rbp), %rdi
	.loc	4 490 1
	callq	__ZN4core3ptr53drop_in_place$LT$alloc..raw_vec..RawVec$LT$u8$GT$$GT$17hd86f1884c1c5ee82E
	addq	$32, %rsp
	popq	%rbp
	retq
LBB58_4:
Ltmp418:
	callq	__ZN4core9panicking19panic_cannot_unwind17h1fbca7e1d7f56ae1E
LBB58_5:
	movq	-16(%rbp), %rdi
	callq	__Unwind_Resume
Ltmp420:
Lfunc_end58:
	.cfi_endproc
	.section	__TEXT,__gcc_except_tab
	.p2align	2
GCC_except_table58:
Lexception14:
	.byte	255
	.byte	255
	.byte	1
	.uleb128 Lcst_end14-Lcst_begin14
Lcst_begin14:
	.uleb128 Ltmp413-Lfunc_begin58
	.uleb128 Ltmp414-Ltmp413
	.uleb128 Ltmp415-Lfunc_begin58
	.byte	0
	.uleb128 Ltmp416-Lfunc_begin58
	.uleb128 Ltmp417-Ltmp416
	.uleb128 Ltmp418-Lfunc_begin58
	.byte	0
	.uleb128 Ltmp417-Lfunc_begin58
	.uleb128 Lfunc_end58-Ltmp417
	.byte	0
	.byte	0
Lcst_end14:
	.p2align	2

	.section	__TEXT,__text,regular,pure_instructions
	.p2align	4, 0x90
__ZN4core3ptr47drop_in_place$LT$alloc..ffi..c_str..CString$GT$17h6ec16e6fca96cd1eE:
Lfunc_begin59:
	.loc	4 490 0 is_stmt 1
	.cfi_startproc
	.cfi_personality 155, _rust_eh_personality
	.cfi_lsda 16, Lexception15
	pushq	%rbp
	.cfi_def_cfa_offset 16
	.cfi_offset %rbp, -16
	movq	%rsp, %rbp
	.cfi_def_cfa_register %rbp
	subq	$32, %rsp
	movq	%rdi, -32(%rbp)
	movq	%rdi, -24(%rbp)
Ltmp421:
Ltmp427:
	.loc	4 490 1 prologue_end
	callq	__ZN68_$LT$alloc..ffi..c_str..CString$u20$as$u20$core..ops..drop..Drop$GT$4drop17hf79b5fac660289a7E
Ltmp422:
	jmp	LBB59_3
LBB59_1:
Ltmp424:
	.loc	4 0 1 is_stmt 0
	movq	-32(%rbp), %rdi
	.loc	4 490 1
	callq	__ZN4core3ptr58drop_in_place$LT$alloc..boxed..Box$LT$$u5b$u8$u5d$$GT$$GT$17hc6a62075ad4cbd9eE
Ltmp425:
	jmp	LBB59_5
LBB59_2:
Ltmp423:
	.loc	4 0 1
	movq	%rax, %rcx
	movl	%edx, %eax
	movq	%rcx, -16(%rbp)
	movl	%eax, -8(%rbp)
	jmp	LBB59_1
LBB59_3:
	movq	-32(%rbp), %rdi
	.loc	4 490 1
	callq	__ZN4core3ptr58drop_in_place$LT$alloc..boxed..Box$LT$$u5b$u8$u5d$$GT$$GT$17hc6a62075ad4cbd9eE
	addq	$32, %rsp
	popq	%rbp
	retq
LBB59_4:
Ltmp426:
	callq	__ZN4core9panicking19panic_cannot_unwind17h1fbca7e1d7f56ae1E
LBB59_5:
	movq	-16(%rbp), %rdi
	callq	__Unwind_Resume
Ltmp428:
Lfunc_end59:
	.cfi_endproc
	.section	__TEXT,__gcc_except_tab
	.p2align	2
GCC_except_table59:
Lexception15:
	.byte	255
	.byte	255
	.byte	1
	.uleb128 Lcst_end15-Lcst_begin15
Lcst_begin15:
	.uleb128 Ltmp421-Lfunc_begin59
	.uleb128 Ltmp422-Ltmp421
	.uleb128 Ltmp423-Lfunc_begin59
	.byte	0
	.uleb128 Ltmp424-Lfunc_begin59
	.uleb128 Ltmp425-Ltmp424
	.uleb128 Ltmp426-Lfunc_begin59
	.byte	0
	.uleb128 Ltmp425-Lfunc_begin59
	.uleb128 Lfunc_end59-Ltmp425
	.byte	0
	.byte	0
Lcst_end15:
	.p2align	2

	.section	__TEXT,__text,regular,pure_instructions
	.p2align	4, 0x90
__ZN4core3ptr47drop_in_place$LT$std..ffi..os_str..OsString$GT$17h286f5e16167a5f28E:
Lfunc_begin60:
	.loc	4 490 0 is_stmt 1
	.cfi_startproc
	pushq	%rbp
	.cfi_def_cfa_offset 16
	.cfi_offset %rbp, -16
	movq	%rsp, %rbp
	.cfi_def_cfa_register %rbp
	subq	$16, %rsp
	movq	%rdi, -8(%rbp)
Ltmp429:
	.loc	4 490 1 prologue_end
	callq	__ZN4core3ptr48drop_in_place$LT$std..sys..unix..os_str..Buf$GT$17h579dc86327e630fcE
	addq	$16, %rsp
	popq	%rbp
	retq
Ltmp430:
Lfunc_end60:
	.cfi_endproc

	.p2align	4, 0x90
__ZN4core3ptr48drop_in_place$LT$std..os..fd..owned..OwnedFd$GT$17hcbb77e165c6c265dE:
Lfunc_begin61:
	.loc	4 490 0
	.cfi_startproc
	pushq	%rbp
	.cfi_def_cfa_offset 16
	.cfi_offset %rbp, -16
	movq	%rsp, %rbp
	.cfi_def_cfa_register %rbp
	subq	$16, %rsp
	movq	%rdi, -8(%rbp)
Ltmp431:
	.loc	4 490 1 prologue_end
	callq	__ZN69_$LT$std..os..fd..owned..OwnedFd$u20$as$u20$core..ops..drop..Drop$GT$4drop17h45ce8e11e62e55cfE
	addq	$16, %rsp
	popq	%rbp
	retq
Ltmp432:
Lfunc_end61:
	.cfi_endproc

	.p2align	4, 0x90
__ZN4core3ptr48drop_in_place$LT$std..sys..unix..os_str..Buf$GT$17h579dc86327e630fcE:
Lfunc_begin62:
	.loc	4 490 0
	.cfi_startproc
	pushq	%rbp
	.cfi_def_cfa_offset 16
	.cfi_offset %rbp, -16
	movq	%rsp, %rbp
	.cfi_def_cfa_register %rbp
	subq	$16, %rsp
	movq	%rdi, -8(%rbp)
Ltmp433:
	.loc	4 490 1 prologue_end
	callq	__ZN4core3ptr46drop_in_place$LT$alloc..vec..Vec$LT$u8$GT$$GT$17h4a03082c2ad65b99E
	addq	$16, %rsp
	popq	%rbp
	retq
Ltmp434:
Lfunc_end62:
	.cfi_endproc

	.p2align	4, 0x90
__ZN4core3ptr49drop_in_place$LT$std..sys..unix..fd..FileDesc$GT$17h9a41f15731ca2e16E:
Lfunc_begin63:
	.loc	4 490 0
	.cfi_startproc
	pushq	%rbp
	.cfi_def_cfa_offset 16
	.cfi_offset %rbp, -16
	movq	%rsp, %rbp
	.cfi_def_cfa_register %rbp
	subq	$16, %rsp
	movq	%rdi, -8(%rbp)
Ltmp435:
	.loc	4 490 1 prologue_end
	callq	__ZN4core3ptr48drop_in_place$LT$std..os..fd..owned..OwnedFd$GT$17hcbb77e165c6c265dE
	addq	$16, %rsp
	popq	%rbp
	retq
Ltmp436:
Lfunc_end63:
	.cfi_endproc

	.p2align	4, 0x90
__ZN4core3ptr53drop_in_place$LT$alloc..raw_vec..RawVec$LT$u8$GT$$GT$17hd86f1884c1c5ee82E:
Lfunc_begin64:
	.loc	4 490 0
	.cfi_startproc
	pushq	%rbp
	.cfi_def_cfa_offset 16
	.cfi_offset %rbp, -16
	movq	%rsp, %rbp
	.cfi_def_cfa_register %rbp
	subq	$16, %rsp
	movq	%rdi, -8(%rbp)
Ltmp437:
	.loc	4 490 1 prologue_end
	callq	__ZN77_$LT$alloc..raw_vec..RawVec$LT$T$C$A$GT$$u20$as$u20$core..ops..drop..Drop$GT$4drop17h290e51cd07529d15E
	addq	$16, %rsp
	popq	%rbp
	retq
Ltmp438:
Lfunc_end64:
	.cfi_endproc

	.p2align	4, 0x90
__ZN4core3ptr57drop_in_place$LT$$u5b$alloc..ffi..c_str..CString$u5d$$GT$17h248ff086d6b47bf4E:
Lfunc_begin65:
	.loc	4 490 0
	.cfi_startproc
	.cfi_personality 155, _rust_eh_personality
	.cfi_lsda 16, Lexception16
	pushq	%rbp
	.cfi_def_cfa_offset 16
	.cfi_offset %rbp, -16
	movq	%rsp, %rbp
	.cfi_def_cfa_register %rbp
	subq	$80, %rsp
	movq	%rdi, -64(%rbp)
	movq	%rsi, -56(%rbp)
	movq	%rdi, -32(%rbp)
	movq	%rsi, -24(%rbp)
Ltmp450:
	.loc	4 490 1 prologue_end
	xorl	%eax, %eax
	testb	$1, %al
	jne	LBB65_1
	jmp	LBB65_2
LBB65_1:
	movq	$0, -48(%rbp)
	jmp	LBB65_11
LBB65_2:
	.loc	4 0 1 is_stmt 0
	movq	-56(%rbp), %rax
	movq	-64(%rbp), %rcx
	.loc	4 490 1
	movq	%rcx, -40(%rbp)
	shlq	$4, %rax
	addq	-40(%rbp), %rax
	movq	%rax, -72(%rbp)
LBB65_3:
	.loc	4 0 1
	movq	-72(%rbp), %rax
	.loc	4 490 1
	cmpq	%rax, -40(%rbp)
	je	LBB65_5
	movq	-40(%rbp), %rdi
	movq	%rdi, %rax
	addq	$16, %rax
	movq	%rax, -40(%rbp)
Ltmp439:
	callq	__ZN4core3ptr47drop_in_place$LT$alloc..ffi..c_str..CString$GT$17h6ec16e6fca96cd1eE
Ltmp440:
	jmp	LBB65_3
LBB65_5:
	addq	$80, %rsp
	popq	%rbp
	retq
LBB65_6:
	.loc	4 0 1
	movq	-72(%rbp), %rax
	.loc	4 490 1
	cmpq	%rax, -40(%rbp)
	je	LBB65_9
	jmp	LBB65_8
LBB65_7:
Ltmp441:
	.loc	4 0 1
	movq	%rax, %rcx
	movl	%edx, %eax
	movq	%rcx, -16(%rbp)
	movl	%eax, -8(%rbp)
	jmp	LBB65_6
LBB65_8:
	.loc	4 490 1
	movq	-40(%rbp), %rdi
	movq	%rdi, %rax
	addq	$16, %rax
	movq	%rax, -40(%rbp)
Ltmp442:
	callq	__ZN4core3ptr47drop_in_place$LT$alloc..ffi..c_str..CString$GT$17h6ec16e6fca96cd1eE
Ltmp443:
	jmp	LBB65_6
LBB65_9:
	movq	-16(%rbp), %rdi
	callq	__Unwind_Resume
LBB65_10:
Ltmp449:
	callq	__ZN4core9panicking19panic_cannot_unwind17h1fbca7e1d7f56ae1E
LBB65_11:
	.loc	4 0 1
	movq	-56(%rbp), %rax
	.loc	4 490 1
	cmpq	%rax, -48(%rbp)
	je	LBB65_5
	.loc	4 0 1
	movq	-64(%rbp), %rdi
	.loc	4 490 1
	movq	-48(%rbp), %rax
	movq	%rax, %rcx
	shlq	$4, %rcx
	addq	%rcx, %rdi
	incq	%rax
	movq	%rax, -48(%rbp)
Ltmp444:
	callq	__ZN4core3ptr47drop_in_place$LT$alloc..ffi..c_str..CString$GT$17h6ec16e6fca96cd1eE
Ltmp445:
	jmp	LBB65_11
LBB65_13:
	.loc	4 0 1
	movq	-56(%rbp), %rax
	.loc	4 490 1
	cmpq	%rax, -48(%rbp)
	je	LBB65_9
	jmp	LBB65_15
LBB65_14:
Ltmp446:
	.loc	4 0 1
	movq	%rax, %rcx
	movl	%edx, %eax
	movq	%rcx, -16(%rbp)
	movl	%eax, -8(%rbp)
	jmp	LBB65_13
LBB65_15:
	movq	-64(%rbp), %rdi
	.loc	4 490 1
	movq	-48(%rbp), %rax
	movq	%rax, %rcx
	shlq	$4, %rcx
	addq	%rcx, %rdi
	incq	%rax
	movq	%rax, -48(%rbp)
Ltmp447:
	callq	__ZN4core3ptr47drop_in_place$LT$alloc..ffi..c_str..CString$GT$17h6ec16e6fca96cd1eE
Ltmp448:
	jmp	LBB65_13
Ltmp451:
Lfunc_end65:
	.cfi_endproc
	.section	__TEXT,__gcc_except_tab
	.p2align	2
GCC_except_table65:
Lexception16:
	.byte	255
	.byte	255
	.byte	1
	.uleb128 Lcst_end16-Lcst_begin16
Lcst_begin16:
	.uleb128 Ltmp439-Lfunc_begin65
	.uleb128 Ltmp440-Ltmp439
	.uleb128 Ltmp441-Lfunc_begin65
	.byte	0
	.uleb128 Ltmp442-Lfunc_begin65
	.uleb128 Ltmp443-Ltmp442
	.uleb128 Ltmp449-Lfunc_begin65
	.byte	0
	.uleb128 Ltmp443-Lfunc_begin65
	.uleb128 Ltmp444-Ltmp443
	.byte	0
	.byte	0
	.uleb128 Ltmp444-Lfunc_begin65
	.uleb128 Ltmp445-Ltmp444
	.uleb128 Ltmp446-Lfunc_begin65
	.byte	0
	.uleb128 Ltmp447-Lfunc_begin65
	.uleb128 Ltmp448-Ltmp447
	.uleb128 Ltmp449-Lfunc_begin65
	.byte	0
Lcst_end16:
	.p2align	2

	.section	__TEXT,__text,regular,pure_instructions
	.p2align	4, 0x90
__ZN4core3ptr57drop_in_place$LT$std..io..error..repr_bitpacked..Repr$GT$17h03b8794fbe245b90E:
Lfunc_begin66:
	.loc	4 490 0 is_stmt 1
	.cfi_startproc
	pushq	%rbp
	.cfi_def_cfa_offset 16
	.cfi_offset %rbp, -16
	movq	%rsp, %rbp
	.cfi_def_cfa_register %rbp
	subq	$16, %rsp
	movq	%rdi, -8(%rbp)
Ltmp452:
	.loc	4 490 1 prologue_end
	callq	__ZN78_$LT$std..io..error..repr_bitpacked..Repr$u20$as$u20$core..ops..drop..Drop$GT$4drop17h7f9b42e6e0bb7a31E
	addq	$16, %rsp
	popq	%rbp
	retq
Ltmp453:
Lfunc_end66:
	.cfi_endproc

	.p2align	4, 0x90
__ZN4core3ptr57drop_in_place$LT$std..sys_common..process..CommandEnv$GT$17h00d72a1f1f737397E:
Lfunc_begin67:
	.loc	4 490 0
	.cfi_startproc
	pushq	%rbp
	.cfi_def_cfa_offset 16
	.cfi_offset %rbp, -16
	movq	%rsp, %rbp
	.cfi_def_cfa_register %rbp
	subq	$16, %rsp
	movq	%rdi, -8(%rbp)
Ltmp454:
	.loc	4 490 1 prologue_end
	callq	__ZN4core3ptr152drop_in_place$LT$alloc..collections..btree..map..BTreeMap$LT$std..ffi..os_str..OsString$C$core..option..Option$LT$std..ffi..os_str..OsString$GT$$GT$$GT$17he9a7cb4eaeaa5e1fE
	addq	$16, %rsp
	popq	%rbp
	retq
Ltmp455:
Lfunc_end67:
	.cfi_endproc

	.p2align	4, 0x90
__ZN4core3ptr58drop_in_place$LT$alloc..boxed..Box$LT$$u5b$u8$u5d$$GT$$GT$17hc6a62075ad4cbd9eE:
Lfunc_begin68:
	.loc	4 490 0
	.cfi_startproc
	pushq	%rbp
	.cfi_def_cfa_offset 16
	.cfi_offset %rbp, -16
	movq	%rsp, %rbp
	.cfi_def_cfa_register %rbp
	subq	$32, %rsp
	movq	%rdi, -32(%rbp)
	movq	%rdi, -24(%rbp)
	movq	-32(%rbp), %rax
Ltmp456:
	.loc	4 490 1 prologue_end
	movq	(%rax), %rdi
	movq	8(%rax), %rsi
	callq	__ZN5alloc5alloc8box_free17h2df85c1780fe02ddE
	addq	$32, %rsp
	popq	%rbp
	retq
Ltmp457:
Lfunc_end68:
	.cfi_endproc

	.p2align	4, 0x90
__ZN4core3ptr59drop_in_place$LT$alloc..boxed..Box$LT$$u5b$u32$u5d$$GT$$GT$17h3a75fcfeee7a0becE:
Lfunc_begin69:
	.loc	4 490 0
	.cfi_startproc
	pushq	%rbp
	.cfi_def_cfa_offset 16
	.cfi_offset %rbp, -16
	movq	%rsp, %rbp
	.cfi_def_cfa_register %rbp
	subq	$32, %rsp
	movq	%rdi, -32(%rbp)
	movq	%rdi, -24(%rbp)
	movq	-32(%rbp), %rax
Ltmp458:
	.loc	4 490 1 prologue_end
	movq	(%rax), %rdi
	movq	8(%rax), %rsi
	callq	__ZN5alloc5alloc8box_free17h2f64b151a48e45ceE
	addq	$32, %rsp
	popq	%rbp
	retq
Ltmp459:
Lfunc_end69:
	.cfi_endproc

	.p2align	4, 0x90
__ZN4core3ptr60drop_in_place$LT$alloc..vec..Vec$LT$$BP$const$u20$i8$GT$$GT$17h8d2e84747540dee7E:
Lfunc_begin70:
	.loc	4 490 0
	.cfi_startproc
	.cfi_personality 155, _rust_eh_personality
	.cfi_lsda 16, Lexception17
	pushq	%rbp
	.cfi_def_cfa_offset 16
	.cfi_offset %rbp, -16
	movq	%rsp, %rbp
	.cfi_def_cfa_register %rbp
	subq	$32, %rsp
	movq	%rdi, -32(%rbp)
	movq	%rdi, -24(%rbp)
Ltmp460:
Ltmp466:
	.loc	4 490 1 prologue_end
	callq	__ZN70_$LT$alloc..vec..Vec$LT$T$C$A$GT$$u20$as$u20$core..ops..drop..Drop$GT$4drop17h65d2462bdf68e110E
Ltmp461:
	jmp	LBB70_3
LBB70_1:
Ltmp463:
	.loc	4 0 1 is_stmt 0
	movq	-32(%rbp), %rdi
	.loc	4 490 1
	callq	__ZN4core3ptr67drop_in_place$LT$alloc..raw_vec..RawVec$LT$$BP$const$u20$i8$GT$$GT$17hfdc4ef7807b5ed84E
Ltmp464:
	jmp	LBB70_5
LBB70_2:
Ltmp462:
	.loc	4 0 1
	movq	%rax, %rcx
	movl	%edx, %eax
	movq	%rcx, -16(%rbp)
	movl	%eax, -8(%rbp)
	jmp	LBB70_1
LBB70_3:
	movq	-32(%rbp), %rdi
	.loc	4 490 1
	callq	__ZN4core3ptr67drop_in_place$LT$alloc..raw_vec..RawVec$LT$$BP$const$u20$i8$GT$$GT$17hfdc4ef7807b5ed84E
	addq	$32, %rsp
	popq	%rbp
	retq
LBB70_4:
Ltmp465:
	callq	__ZN4core9panicking19panic_cannot_unwind17h1fbca7e1d7f56ae1E
LBB70_5:
	movq	-16(%rbp), %rdi
	callq	__Unwind_Resume
Ltmp467:
Lfunc_end70:
	.cfi_endproc
	.section	__TEXT,__gcc_except_tab
	.p2align	2
GCC_except_table70:
Lexception17:
	.byte	255
	.byte	255
	.byte	1
	.uleb128 Lcst_end17-Lcst_begin17
Lcst_begin17:
	.uleb128 Ltmp460-Lfunc_begin70
	.uleb128 Ltmp461-Ltmp460
	.uleb128 Ltmp462-Lfunc_begin70
	.byte	0
	.uleb128 Ltmp463-Lfunc_begin70
	.uleb128 Ltmp464-Ltmp463
	.uleb128 Ltmp465-Lfunc_begin70
	.byte	0
	.uleb128 Ltmp464-Lfunc_begin70
	.uleb128 Lfunc_end70-Ltmp464
	.byte	0
	.byte	0
Lcst_end17:
	.p2align	2

	.section	__TEXT,__text,regular,pure_instructions
	.p2align	4, 0x90
__ZN4core3ptr66drop_in_place$LT$std..sys..unix..process..process_common..Argv$GT$17hcf784ba13d3a3c55E:
Lfunc_begin71:
	.loc	4 490 0 is_stmt 1
	.cfi_startproc
	pushq	%rbp
	.cfi_def_cfa_offset 16
	.cfi_offset %rbp, -16
	movq	%rsp, %rbp
	.cfi_def_cfa_register %rbp
	subq	$16, %rsp
	movq	%rdi, -8(%rbp)
Ltmp468:
	.loc	4 490 1 prologue_end
	callq	__ZN4core3ptr60drop_in_place$LT$alloc..vec..Vec$LT$$BP$const$u20$i8$GT$$GT$17h8d2e84747540dee7E
	addq	$16, %rsp
	popq	%rbp
	retq
Ltmp469:
Lfunc_end71:
	.cfi_endproc

	.p2align	4, 0x90
__ZN4core3ptr67drop_in_place$LT$alloc..raw_vec..RawVec$LT$$BP$const$u20$i8$GT$$GT$17hfdc4ef7807b5ed84E:
Lfunc_begin72:
	.loc	4 490 0
	.cfi_startproc
	pushq	%rbp
	.cfi_def_cfa_offset 16
	.cfi_offset %rbp, -16
	movq	%rsp, %rbp
	.cfi_def_cfa_register %rbp
	subq	$16, %rsp
	movq	%rdi, -8(%rbp)
Ltmp470:
	.loc	4 490 1 prologue_end
	callq	__ZN77_$LT$alloc..raw_vec..RawVec$LT$T$C$A$GT$$u20$as$u20$core..ops..drop..Drop$GT$4drop17h77af77d87bb2936dE
	addq	$16, %rsp
	popq	%rbp
	retq
Ltmp471:
Lfunc_end72:
	.cfi_endproc

	.p2align	4, 0x90
__ZN4core3ptr67drop_in_place$LT$std..sys..unix..process..process_common..Stdio$GT$17hf73965d3f1881c67E:
Lfunc_begin73:
	.loc	4 490 0
	.cfi_startproc
	pushq	%rbp
	.cfi_def_cfa_offset 16
	.cfi_offset %rbp, -16
	movq	%rsp, %rbp
	.cfi_def_cfa_register %rbp
	subq	$16, %rsp
	movq	%rdi, -16(%rbp)
	movq	%rdi, -8(%rbp)
Ltmp472:
	.loc	4 490 1 prologue_end
	movl	(%rdi), %eax
	subl	$3, %eax
	jb	LBB73_2
	jmp	LBB73_1
LBB73_1:
	.loc	4 0 1 is_stmt 0
	movq	-16(%rbp), %rdi
	.loc	4 490 1
	addq	$4, %rdi
	callq	__ZN4core3ptr49drop_in_place$LT$std..sys..unix..fd..FileDesc$GT$17h9a41f15731ca2e16E
LBB73_2:
	addq	$16, %rsp
	popq	%rbp
	retq
Ltmp473:
Lfunc_end73:
	.cfi_endproc

	.p2align	4, 0x90
__ZN4core3ptr68drop_in_place$LT$alloc..boxed..Box$LT$std..io..error..Custom$GT$$GT$17hc85fe95bece768faE:
Lfunc_begin74:
	.loc	4 490 0 is_stmt 1
	.cfi_startproc
	.cfi_personality 155, _rust_eh_personality
	.cfi_lsda 16, Lexception18
	pushq	%rbp
	.cfi_def_cfa_offset 16
	.cfi_offset %rbp, -16
	movq	%rsp, %rbp
	.cfi_def_cfa_register %rbp
	subq	$32, %rsp
	movq	%rdi, -32(%rbp)
	movq	%rdi, -24(%rbp)
Ltmp480:
	.loc	4 490 1 prologue_end
	movq	(%rdi), %rdi
Ltmp474:
	callq	__ZN4core3ptr43drop_in_place$LT$std..io..error..Custom$GT$17h2bc4174b0e07bf1aE
Ltmp475:
	jmp	LBB74_3
LBB74_1:
	.loc	4 0 1 is_stmt 0
	movq	-32(%rbp), %rax
	.loc	4 490 1
	movq	(%rax), %rdi
Ltmp477:
	callq	__ZN5alloc5alloc8box_free17he8c6e513db7634f1E
Ltmp478:
	jmp	LBB74_5
LBB74_2:
Ltmp476:
	.loc	4 0 1
	movq	%rax, %rcx
	movl	%edx, %eax
	movq	%rcx, -16(%rbp)
	movl	%eax, -8(%rbp)
	jmp	LBB74_1
LBB74_3:
	movq	-32(%rbp), %rax
	.loc	4 490 1
	movq	(%rax), %rdi
	callq	__ZN5alloc5alloc8box_free17he8c6e513db7634f1E
	addq	$32, %rsp
	popq	%rbp
	retq
LBB74_4:
Ltmp479:
	callq	__ZN4core9panicking19panic_cannot_unwind17h1fbca7e1d7f56ae1E
LBB74_5:
	movq	-16(%rbp), %rdi
	callq	__Unwind_Resume
Ltmp481:
Lfunc_end74:
	.cfi_endproc
	.section	__TEXT,__gcc_except_tab
	.p2align	2
GCC_except_table74:
Lexception18:
	.byte	255
	.byte	255
	.byte	1
	.uleb128 Lcst_end18-Lcst_begin18
Lcst_begin18:
	.uleb128 Ltmp474-Lfunc_begin74
	.uleb128 Ltmp475-Ltmp474
	.uleb128 Ltmp476-Lfunc_begin74
	.byte	0
	.uleb128 Ltmp477-Lfunc_begin74
	.uleb128 Ltmp478-Ltmp477
	.uleb128 Ltmp479-Lfunc_begin74
	.byte	0
	.uleb128 Ltmp478-Lfunc_begin74
	.uleb128 Lfunc_end74-Ltmp478
	.byte	0
	.byte	0
Lcst_end18:
	.p2align	2

	.section	__TEXT,__text,regular,pure_instructions
	.p2align	4, 0x90
__ZN4core3ptr69drop_in_place$LT$std..sys..unix..process..process_common..Command$GT$17hf7e1ce1b0f523ca5E:
Lfunc_begin75:
	.loc	4 490 0 is_stmt 1
	.cfi_startproc
	.cfi_personality 155, _rust_eh_personality
	.cfi_lsda 16, Lexception19
	pushq	%rbp
	.cfi_def_cfa_offset 16
	.cfi_offset %rbp, -16
	movq	%rsp, %rbp
	.cfi_def_cfa_register %rbp
	subq	$32, %rsp
	movq	%rdi, -32(%rbp)
	movq	%rdi, -24(%rbp)
Ltmp528:
	.loc	4 490 1 prologue_end
	addq	$64, %rdi
Ltmp482:
	callq	__ZN4core3ptr47drop_in_place$LT$alloc..ffi..c_str..CString$GT$17h6ec16e6fca96cd1eE
Ltmp483:
	jmp	LBB75_3
LBB75_1:
	.loc	4 0 1 is_stmt 0
	movq	-32(%rbp), %rdi
	.loc	4 490 1
	addq	$80, %rdi
Ltmp485:
	callq	__ZN4core3ptr70drop_in_place$LT$alloc..vec..Vec$LT$alloc..ffi..c_str..CString$GT$$GT$17hbfe575e54151653dE
Ltmp486:
	jmp	LBB75_5
LBB75_2:
Ltmp484:
	.loc	4 0 1
	movq	%rax, %rcx
	movl	%edx, %eax
	movq	%rcx, -16(%rbp)
	movl	%eax, -8(%rbp)
	jmp	LBB75_1
LBB75_3:
	movq	-32(%rbp), %rdi
	.loc	4 490 1
	addq	$80, %rdi
Ltmp487:
	callq	__ZN4core3ptr70drop_in_place$LT$alloc..vec..Vec$LT$alloc..ffi..c_str..CString$GT$$GT$17hbfe575e54151653dE
Ltmp488:
	jmp	LBB75_7
LBB75_4:
Ltmp527:
	callq	__ZN4core9panicking19panic_cannot_unwind17h1fbca7e1d7f56ae1E
LBB75_5:
	.loc	4 0 1
	movq	-32(%rbp), %rdi
	.loc	4 490 1
	addq	$104, %rdi
Ltmp490:
	callq	__ZN4core3ptr66drop_in_place$LT$std..sys..unix..process..process_common..Argv$GT$17hcf784ba13d3a3c55E
Ltmp491:
	jmp	LBB75_8
LBB75_6:
Ltmp489:
	.loc	4 0 1
	movq	%rax, %rcx
	movl	%edx, %eax
	movq	%rcx, -16(%rbp)
	movl	%eax, -8(%rbp)
	jmp	LBB75_5
LBB75_7:
	movq	-32(%rbp), %rdi
	.loc	4 490 1
	addq	$104, %rdi
Ltmp492:
	callq	__ZN4core3ptr66drop_in_place$LT$std..sys..unix..process..process_common..Argv$GT$17hcf784ba13d3a3c55E
Ltmp493:
	jmp	LBB75_10
LBB75_8:
Ltmp495:
	.loc	4 0 1
	movq	-32(%rbp), %rdi
	.loc	4 490 1
	callq	__ZN4core3ptr57drop_in_place$LT$std..sys_common..process..CommandEnv$GT$17h00d72a1f1f737397E
Ltmp496:
	jmp	LBB75_11
LBB75_9:
Ltmp494:
	.loc	4 0 1
	movq	%rax, %rcx
	movl	%edx, %eax
	movq	%rcx, -16(%rbp)
	movl	%eax, -8(%rbp)
	jmp	LBB75_8
LBB75_10:
Ltmp497:
	movq	-32(%rbp), %rdi
	.loc	4 490 1
	callq	__ZN4core3ptr57drop_in_place$LT$std..sys_common..process..CommandEnv$GT$17h00d72a1f1f737397E
Ltmp498:
	jmp	LBB75_13
LBB75_11:
	.loc	4 0 1
	movq	-32(%rbp), %rdi
	.loc	4 490 1
	addq	$32, %rdi
Ltmp500:
	callq	__ZN4core3ptr75drop_in_place$LT$core..option..Option$LT$alloc..ffi..c_str..CString$GT$$GT$17hce6d9568f1d9371dE
Ltmp501:
	jmp	LBB75_14
LBB75_12:
Ltmp499:
	.loc	4 0 1
	movq	%rax, %rcx
	movl	%edx, %eax
	movq	%rcx, -16(%rbp)
	movl	%eax, -8(%rbp)
	jmp	LBB75_11
LBB75_13:
	movq	-32(%rbp), %rdi
	.loc	4 490 1
	addq	$32, %rdi
Ltmp502:
	callq	__ZN4core3ptr75drop_in_place$LT$core..option..Option$LT$alloc..ffi..c_str..CString$GT$$GT$17hce6d9568f1d9371dE
Ltmp503:
	jmp	LBB75_16
LBB75_14:
	.loc	4 0 1
	movq	-32(%rbp), %rdi
	.loc	4 490 1
	subq	$-128, %rdi
Ltmp505:
	callq	__ZN4core3ptr251drop_in_place$LT$alloc..vec..Vec$LT$alloc..boxed..Box$LT$dyn$u20$core..ops..function..FnMut$LT$$LP$$RP$$GT$$u2b$Output$u20$$u3d$$u20$core..result..Result$LT$$LP$$RP$$C$std..io..error..Error$GT$$u2b$core..marker..Send$u2b$core..marker..Sync$GT$$GT$$GT$17h8e02f5f2dff9d1bcE
Ltmp506:
	jmp	LBB75_17
LBB75_15:
Ltmp504:
	.loc	4 0 1
	movq	%rax, %rcx
	movl	%edx, %eax
	movq	%rcx, -16(%rbp)
	movl	%eax, -8(%rbp)
	jmp	LBB75_14
LBB75_16:
	movq	-32(%rbp), %rdi
	.loc	4 490 1
	subq	$-128, %rdi
Ltmp507:
	callq	__ZN4core3ptr251drop_in_place$LT$alloc..vec..Vec$LT$alloc..boxed..Box$LT$dyn$u20$core..ops..function..FnMut$LT$$LP$$RP$$GT$$u2b$Output$u20$$u3d$$u20$core..result..Result$LT$$LP$$RP$$C$std..io..error..Error$GT$$u2b$core..marker..Send$u2b$core..marker..Sync$GT$$GT$$GT$17h8e02f5f2dff9d1bcE
Ltmp508:
	jmp	LBB75_19
LBB75_17:
	.loc	4 0 1
	movq	-32(%rbp), %rdi
	.loc	4 490 1
	addq	$48, %rdi
Ltmp510:
	callq	__ZN4core3ptr87drop_in_place$LT$core..option..Option$LT$alloc..boxed..Box$LT$$u5b$u32$u5d$$GT$$GT$$GT$17ha3df63f01c396e5eE
Ltmp511:
	jmp	LBB75_20
LBB75_18:
Ltmp509:
	.loc	4 0 1
	movq	%rax, %rcx
	movl	%edx, %eax
	movq	%rcx, -16(%rbp)
	movl	%eax, -8(%rbp)
	jmp	LBB75_17
LBB75_19:
	movq	-32(%rbp), %rdi
	.loc	4 490 1
	addq	$48, %rdi
Ltmp512:
	callq	__ZN4core3ptr87drop_in_place$LT$core..option..Option$LT$alloc..boxed..Box$LT$$u5b$u32$u5d$$GT$$GT$$GT$17ha3df63f01c396e5eE
Ltmp513:
	jmp	LBB75_22
LBB75_20:
	.loc	4 0 1
	movq	-32(%rbp), %rdi
	.loc	4 490 1
	addq	$152, %rdi
Ltmp515:
	callq	__ZN4core3ptr95drop_in_place$LT$core..option..Option$LT$std..sys..unix..process..process_common..Stdio$GT$$GT$17h1c718cbb7b766ba2E
Ltmp516:
	jmp	LBB75_23
LBB75_21:
Ltmp514:
	.loc	4 0 1
	movq	%rax, %rcx
	movl	%edx, %eax
	movq	%rcx, -16(%rbp)
	movl	%eax, -8(%rbp)
	jmp	LBB75_20
LBB75_22:
	movq	-32(%rbp), %rdi
	.loc	4 490 1
	addq	$152, %rdi
Ltmp517:
	callq	__ZN4core3ptr95drop_in_place$LT$core..option..Option$LT$std..sys..unix..process..process_common..Stdio$GT$$GT$17h1c718cbb7b766ba2E
Ltmp518:
	jmp	LBB75_25
LBB75_23:
	.loc	4 0 1
	movq	-32(%rbp), %rdi
	.loc	4 490 1
	addq	$160, %rdi
Ltmp520:
	callq	__ZN4core3ptr95drop_in_place$LT$core..option..Option$LT$std..sys..unix..process..process_common..Stdio$GT$$GT$17h1c718cbb7b766ba2E
Ltmp521:
	jmp	LBB75_26
LBB75_24:
Ltmp519:
	.loc	4 0 1
	movq	%rax, %rcx
	movl	%edx, %eax
	movq	%rcx, -16(%rbp)
	movl	%eax, -8(%rbp)
	jmp	LBB75_23
LBB75_25:
	movq	-32(%rbp), %rdi
	.loc	4 490 1
	addq	$160, %rdi
Ltmp522:
	callq	__ZN4core3ptr95drop_in_place$LT$core..option..Option$LT$std..sys..unix..process..process_common..Stdio$GT$$GT$17h1c718cbb7b766ba2E
Ltmp523:
	jmp	LBB75_28
LBB75_26:
	.loc	4 0 1
	movq	-32(%rbp), %rdi
	.loc	4 490 1
	addq	$168, %rdi
Ltmp525:
	callq	__ZN4core3ptr95drop_in_place$LT$core..option..Option$LT$std..sys..unix..process..process_common..Stdio$GT$$GT$17h1c718cbb7b766ba2E
Ltmp526:
	jmp	LBB75_29
LBB75_27:
Ltmp524:
	.loc	4 0 1
	movq	%rax, %rcx
	movl	%edx, %eax
	movq	%rcx, -16(%rbp)
	movl	%eax, -8(%rbp)
	jmp	LBB75_26
LBB75_28:
	movq	-32(%rbp), %rdi
	.loc	4 490 1
	addq	$168, %rdi
	callq	__ZN4core3ptr95drop_in_place$LT$core..option..Option$LT$std..sys..unix..process..process_common..Stdio$GT$$GT$17h1c718cbb7b766ba2E
	addq	$32, %rsp
	popq	%rbp
	retq
LBB75_29:
	movq	-16(%rbp), %rdi
	callq	__Unwind_Resume
Ltmp529:
Lfunc_end75:
	.cfi_endproc
	.section	__TEXT,__gcc_except_tab
	.p2align	2
GCC_except_table75:
Lexception19:
	.byte	255
	.byte	255
	.byte	1
	.uleb128 Lcst_end19-Lcst_begin19
Lcst_begin19:
	.uleb128 Ltmp482-Lfunc_begin75
	.uleb128 Ltmp483-Ltmp482
	.uleb128 Ltmp484-Lfunc_begin75
	.byte	0
	.uleb128 Ltmp485-Lfunc_begin75
	.uleb128 Ltmp486-Ltmp485
	.uleb128 Ltmp527-Lfunc_begin75
	.byte	0
	.uleb128 Ltmp487-Lfunc_begin75
	.uleb128 Ltmp488-Ltmp487
	.uleb128 Ltmp489-Lfunc_begin75
	.byte	0
	.uleb128 Ltmp490-Lfunc_begin75
	.uleb128 Ltmp491-Ltmp490
	.uleb128 Ltmp527-Lfunc_begin75
	.byte	0
	.uleb128 Ltmp492-Lfunc_begin75
	.uleb128 Ltmp493-Ltmp492
	.uleb128 Ltmp494-Lfunc_begin75
	.byte	0
	.uleb128 Ltmp495-Lfunc_begin75
	.uleb128 Ltmp496-Ltmp495
	.uleb128 Ltmp527-Lfunc_begin75
	.byte	0
	.uleb128 Ltmp497-Lfunc_begin75
	.uleb128 Ltmp498-Ltmp497
	.uleb128 Ltmp499-Lfunc_begin75
	.byte	0
	.uleb128 Ltmp500-Lfunc_begin75
	.uleb128 Ltmp501-Ltmp500
	.uleb128 Ltmp527-Lfunc_begin75
	.byte	0
	.uleb128 Ltmp502-Lfunc_begin75
	.uleb128 Ltmp503-Ltmp502
	.uleb128 Ltmp504-Lfunc_begin75
	.byte	0
	.uleb128 Ltmp505-Lfunc_begin75
	.uleb128 Ltmp506-Ltmp505
	.uleb128 Ltmp527-Lfunc_begin75
	.byte	0
	.uleb128 Ltmp507-Lfunc_begin75
	.uleb128 Ltmp508-Ltmp507
	.uleb128 Ltmp509-Lfunc_begin75
	.byte	0
	.uleb128 Ltmp510-Lfunc_begin75
	.uleb128 Ltmp511-Ltmp510
	.uleb128 Ltmp527-Lfunc_begin75
	.byte	0
	.uleb128 Ltmp512-Lfunc_begin75
	.uleb128 Ltmp513-Ltmp512
	.uleb128 Ltmp514-Lfunc_begin75
	.byte	0
	.uleb128 Ltmp515-Lfunc_begin75
	.uleb128 Ltmp516-Ltmp515
	.uleb128 Ltmp527-Lfunc_begin75
	.byte	0
	.uleb128 Ltmp517-Lfunc_begin75
	.uleb128 Ltmp518-Ltmp517
	.uleb128 Ltmp519-Lfunc_begin75
	.byte	0
	.uleb128 Ltmp520-Lfunc_begin75
	.uleb128 Ltmp521-Ltmp520
	.uleb128 Ltmp527-Lfunc_begin75
	.byte	0
	.uleb128 Ltmp522-Lfunc_begin75
	.uleb128 Ltmp523-Ltmp522
	.uleb128 Ltmp524-Lfunc_begin75
	.byte	0
	.uleb128 Ltmp525-Lfunc_begin75
	.uleb128 Ltmp526-Ltmp525
	.uleb128 Ltmp527-Lfunc_begin75
	.byte	0
	.uleb128 Ltmp526-Lfunc_begin75
	.uleb128 Lfunc_end75-Ltmp526
	.byte	0
	.byte	0
Lcst_end19:
	.p2align	2

	.section	__TEXT,__text,regular,pure_instructions
	.p2align	4, 0x90
__ZN4core3ptr70drop_in_place$LT$alloc..vec..Vec$LT$alloc..ffi..c_str..CString$GT$$GT$17hbfe575e54151653dE:
Lfunc_begin76:
	.loc	4 490 0 is_stmt 1
	.cfi_startproc
	.cfi_personality 155, _rust_eh_personality
	.cfi_lsda 16, Lexception20
	pushq	%rbp
	.cfi_def_cfa_offset 16
	.cfi_offset %rbp, -16
	movq	%rsp, %rbp
	.cfi_def_cfa_register %rbp
	subq	$32, %rsp
	movq	%rdi, -32(%rbp)
	movq	%rdi, -24(%rbp)
Ltmp530:
Ltmp536:
	.loc	4 490 1 prologue_end
	callq	__ZN70_$LT$alloc..vec..Vec$LT$T$C$A$GT$$u20$as$u20$core..ops..drop..Drop$GT$4drop17hca527ec3000bbdefE
Ltmp531:
	jmp	LBB76_3
LBB76_1:
Ltmp533:
	.loc	4 0 1 is_stmt 0
	movq	-32(%rbp), %rdi
	.loc	4 490 1
	callq	__ZN4core3ptr77drop_in_place$LT$alloc..raw_vec..RawVec$LT$alloc..ffi..c_str..CString$GT$$GT$17ha9728199c80eab3dE
Ltmp534:
	jmp	LBB76_5
LBB76_2:
Ltmp532:
	.loc	4 0 1
	movq	%rax, %rcx
	movl	%edx, %eax
	movq	%rcx, -16(%rbp)
	movl	%eax, -8(%rbp)
	jmp	LBB76_1
LBB76_3:
	movq	-32(%rbp), %rdi
	.loc	4 490 1
	callq	__ZN4core3ptr77drop_in_place$LT$alloc..raw_vec..RawVec$LT$alloc..ffi..c_str..CString$GT$$GT$17ha9728199c80eab3dE
	addq	$32, %rsp
	popq	%rbp
	retq
LBB76_4:
Ltmp535:
	callq	__ZN4core9panicking19panic_cannot_unwind17h1fbca7e1d7f56ae1E
LBB76_5:
	movq	-16(%rbp), %rdi
	callq	__Unwind_Resume
Ltmp537:
Lfunc_end76:
	.cfi_endproc
	.section	__TEXT,__gcc_except_tab
	.p2align	2
GCC_except_table76:
Lexception20:
	.byte	255
	.byte	255
	.byte	1
	.uleb128 Lcst_end20-Lcst_begin20
Lcst_begin20:
	.uleb128 Ltmp530-Lfunc_begin76
	.uleb128 Ltmp531-Ltmp530
	.uleb128 Ltmp532-Lfunc_begin76
	.byte	0
	.uleb128 Ltmp533-Lfunc_begin76
	.uleb128 Ltmp534-Ltmp533
	.uleb128 Ltmp535-Lfunc_begin76
	.byte	0
	.uleb128 Ltmp534-Lfunc_begin76
	.uleb128 Lfunc_end76-Ltmp534
	.byte	0
	.byte	0
Lcst_end20:
	.p2align	2

	.section	__TEXT,__text,regular,pure_instructions
	.p2align	4, 0x90
__ZN4core3ptr72drop_in_place$LT$alloc..collections..btree..mem..replace..PanicGuard$GT$17hc523efec93080395E:
Lfunc_begin77:
	.loc	4 490 0 is_stmt 1
	.cfi_startproc
	pushq	%rbp
	.cfi_def_cfa_offset 16
	.cfi_offset %rbp, -16
	movq	%rsp, %rbp
	.cfi_def_cfa_register %rbp
	subq	$16, %rsp
	movq	%rdi, -8(%rbp)
Ltmp538:
	.loc	4 490 1 prologue_end
	callq	__ZN93_$LT$alloc..collections..btree..mem..replace..PanicGuard$u20$as$u20$core..ops..drop..Drop$GT$4drop17hd8f71405b84037e0E
	addq	$16, %rsp
	popq	%rbp
	retq
Ltmp539:
Lfunc_end77:
	.cfi_endproc

	.p2align	4, 0x90
__ZN4core3ptr75drop_in_place$LT$core..option..Option$LT$alloc..ffi..c_str..CString$GT$$GT$17hce6d9568f1d9371dE:
Lfunc_begin78:
	.loc	4 490 0
	.cfi_startproc
	pushq	%rbp
	.cfi_def_cfa_offset 16
	.cfi_offset %rbp, -16
	movq	%rsp, %rbp
	.cfi_def_cfa_register %rbp
	subq	$16, %rsp
	movq	%rdi, -16(%rbp)
	movq	%rdi, -8(%rbp)
Ltmp540:
	.loc	4 490 1 prologue_end
	movq	(%rdi), %rdx
	movl	$1, %eax
	xorl	%ecx, %ecx
	cmpq	$0, %rdx
	cmoveq	%rcx, %rax
	cmpq	$0, %rax
	jne	LBB78_2
LBB78_1:
	addq	$16, %rsp
	popq	%rbp
	retq
LBB78_2:
	.loc	4 0 1 is_stmt 0
	movq	-16(%rbp), %rdi
	.loc	4 490 1
	callq	__ZN4core3ptr47drop_in_place$LT$alloc..ffi..c_str..CString$GT$17h6ec16e6fca96cd1eE
	jmp	LBB78_1
Ltmp541:
Lfunc_end78:
	.cfi_endproc

	.p2align	4, 0x90
__ZN4core3ptr75drop_in_place$LT$core..option..Option$LT$std..ffi..os_str..OsString$GT$$GT$17h09ee66e79cac4464E:
Lfunc_begin79:
	.loc	4 490 0 is_stmt 1
	.cfi_startproc
	pushq	%rbp
	.cfi_def_cfa_offset 16
	.cfi_offset %rbp, -16
	movq	%rsp, %rbp
	.cfi_def_cfa_register %rbp
	subq	$16, %rsp
	movq	%rdi, -16(%rbp)
	movq	%rdi, -8(%rbp)
Ltmp542:
	.loc	4 490 1 prologue_end
	movq	8(%rdi), %rdx
	movl	$1, %eax
	xorl	%ecx, %ecx
	cmpq	$0, %rdx
	cmoveq	%rcx, %rax
	cmpq	$0, %rax
	jne	LBB79_2
LBB79_1:
	addq	$16, %rsp
	popq	%rbp
	retq
LBB79_2:
	.loc	4 0 1 is_stmt 0
	movq	-16(%rbp), %rdi
	.loc	4 490 1
	callq	__ZN4core3ptr47drop_in_place$LT$std..ffi..os_str..OsString$GT$17h286f5e16167a5f28E
	jmp	LBB79_1
Ltmp543:
Lfunc_end79:
	.cfi_endproc

	.p2align	4, 0x90
__ZN4core3ptr77drop_in_place$LT$alloc..raw_vec..RawVec$LT$alloc..ffi..c_str..CString$GT$$GT$17ha9728199c80eab3dE:
Lfunc_begin80:
	.loc	4 490 0 is_stmt 1
	.cfi_startproc
	pushq	%rbp
	.cfi_def_cfa_offset 16
	.cfi_offset %rbp, -16
	movq	%rsp, %rbp
	.cfi_def_cfa_register %rbp
	subq	$16, %rsp
	movq	%rdi, -8(%rbp)
Ltmp544:
	.loc	4 490 1 prologue_end
	callq	__ZN77_$LT$alloc..raw_vec..RawVec$LT$T$C$A$GT$$u20$as$u20$core..ops..drop..Drop$GT$4drop17h6202b72272f66c55E
	addq	$16, %rsp
	popq	%rbp
	retq
Ltmp545:
Lfunc_end80:
	.cfi_endproc

	.p2align	4, 0x90
__ZN4core3ptr85drop_in_place$LT$std..rt..lang_start$LT$$LP$$RP$$GT$..$u7b$$u7b$closure$u7d$$u7d$$GT$17h9d50aeeb7aa2b819E:
Lfunc_begin81:
	.loc	4 490 0
	.cfi_startproc
	pushq	%rbp
	.cfi_def_cfa_offset 16
	.cfi_offset %rbp, -16
	movq	%rsp, %rbp
	.cfi_def_cfa_register %rbp
	pushq	%rax
	movq	%rdi, -8(%rbp)
Ltmp546:
	.loc	4 490 1 prologue_end
	addq	$8, %rsp
	popq	%rbp
	retq
Ltmp547:
Lfunc_end81:
	.cfi_endproc

	.p2align	4, 0x90
__ZN4core3ptr87drop_in_place$LT$core..option..Option$LT$alloc..boxed..Box$LT$$u5b$u32$u5d$$GT$$GT$$GT$17ha3df63f01c396e5eE:
Lfunc_begin82:
	.loc	4 490 0
	.cfi_startproc
	pushq	%rbp
	.cfi_def_cfa_offset 16
	.cfi_offset %rbp, -16
	movq	%rsp, %rbp
	.cfi_def_cfa_register %rbp
	subq	$16, %rsp
	movq	%rdi, -16(%rbp)
	movq	%rdi, -8(%rbp)
Ltmp548:
	.loc	4 490 1 prologue_end
	movq	(%rdi), %rdx
	movl	$1, %eax
	xorl	%ecx, %ecx
	cmpq	$0, %rdx
	cmoveq	%rcx, %rax
	cmpq	$0, %rax
	jne	LBB82_2
LBB82_1:
	addq	$16, %rsp
	popq	%rbp
	retq
LBB82_2:
	.loc	4 0 1 is_stmt 0
	movq	-16(%rbp), %rdi
	.loc	4 490 1
	callq	__ZN4core3ptr59drop_in_place$LT$alloc..boxed..Box$LT$$u5b$u32$u5d$$GT$$GT$17h3a75fcfeee7a0becE
	jmp	LBB82_1
Ltmp549:
Lfunc_end82:
	.cfi_endproc

	.p2align	4, 0x90
__ZN4core3ptr93drop_in_place$LT$dyn$u20$core..error..Error$u2b$core..marker..Send$u2b$core..marker..Sync$GT$17h0c3588b9cc666ca1E:
Lfunc_begin83:
	.loc	4 490 0 is_stmt 1
	.cfi_startproc
	pushq	%rbp
	.cfi_def_cfa_offset 16
	.cfi_offset %rbp, -16
	movq	%rsp, %rbp
	.cfi_def_cfa_register %rbp
	subq	$16, %rsp
	movq	%rdi, -16(%rbp)
	movq	%rsi, -8(%rbp)
Ltmp550:
	.loc	4 490 1 prologue_end
	callq	*(%rsi)
	addq	$16, %rsp
	popq	%rbp
	retq
Ltmp551:
Lfunc_end83:
	.cfi_endproc

	.p2align	4, 0x90
__ZN4core3ptr95drop_in_place$LT$core..option..Option$LT$std..sys..unix..process..process_common..Stdio$GT$$GT$17h1c718cbb7b766ba2E:
Lfunc_begin84:
	.loc	4 490 0
	.cfi_startproc
	pushq	%rbp
	.cfi_def_cfa_offset 16
	.cfi_offset %rbp, -16
	movq	%rsp, %rbp
	.cfi_def_cfa_register %rbp
	subq	$16, %rsp
	movq	%rdi, -16(%rbp)
	movq	%rdi, -8(%rbp)
Ltmp552:
	.loc	4 490 1 prologue_end
	movl	$1, %eax
	xorl	%ecx, %ecx
	cmpl	$4, (%rdi)
	cmoveq	%rcx, %rax
	cmpq	$0, %rax
	jne	LBB84_2
LBB84_1:
	addq	$16, %rsp
	popq	%rbp
	retq
LBB84_2:
	.loc	4 0 1 is_stmt 0
	movq	-16(%rbp), %rdi
	.loc	4 490 1
	callq	__ZN4core3ptr67drop_in_place$LT$std..sys..unix..process..process_common..Stdio$GT$17hf73965d3f1881c67E
	jmp	LBB84_1
Ltmp553:
Lfunc_end84:
	.cfi_endproc

	.p2align	4, 0x90
__ZN4core3ptr9const_ptr33_$LT$impl$u20$$BP$const$u20$T$GT$7sub_ptr17h7ff04efb7396e6efE:
Lfunc_begin85:
	.loc	3 791 0 is_stmt 1
	.cfi_startproc
	pushq	%rbp
	.cfi_def_cfa_offset 16
	.cfi_offset %rbp, -16
	movq	%rsp, %rbp
	.cfi_def_cfa_register %rbp
	subq	$64, %rsp
	movq	%rdi, -56(%rbp)
	movq	%rsi, -48(%rbp)
	movq	%rdi, -32(%rbp)
	movq	%rsi, -24(%rbp)
Ltmp554:
	.loc	31 309 5 prologue_end
	movq	$1, -16(%rbp)
Ltmp555:
	.loc	3 806 17
	movb	$1, %al
	testb	$1, %al
	jne	LBB85_2
	movb	$0, -33(%rbp)
	jmp	LBB85_3
LBB85_2:
	movb	$1, -33(%rbp)
LBB85_3:
	.loc	3 806 9 is_stmt 0
	movb	-33(%rbp), %al
	xorb	$-1, %al
	testb	$1, %al
	jne	LBB85_5
	.loc	3 0 9
	movq	-48(%rbp), %rcx
	movq	-56(%rbp), %rax
	.loc	3 808 18 is_stmt 1
	subq	%rcx, %rax
	shrq	$0, %rax
	movq	%rax, -8(%rbp)
	movq	-8(%rbp), %rax
Ltmp556:
	.loc	3 809 6
	addq	$64, %rsp
	popq	%rbp
	retq
LBB85_5:
Ltmp557:
	.loc	3 806 9
	leaq	l___unnamed_7(%rip), %rdi
	leaq	l___unnamed_8(%rip), %rdx
	movl	$73, %esi
	callq	__ZN4core9panicking5panic17hc1bc45270cf64b03E
Ltmp558:
Lfunc_end85:
	.cfi_endproc

	.p2align	4, 0x90
__ZN4core3str11validations15next_code_point17he04a67ec0144bc0eE:
Lfunc_begin86:
	.file	33 "/rustc/2c8cc343237b8f7d5a3c3703e3a87f2eb2c54a74/library/core/src/str" "validations.rs"
	.loc	33 36 0
	.cfi_startproc
	pushq	%rbp
	.cfi_def_cfa_offset 16
	.cfi_offset %rbp, -16
	movq	%rsp, %rbp
	.cfi_def_cfa_register %rbp
	subq	$144, %rsp
	movq	%rdi, -128(%rbp)
	movq	%rdi, -88(%rbp)
Ltmp559:
	.loc	33 38 14 prologue_end
	callq	__ZN91_$LT$core..slice..iter..Iter$LT$T$GT$$u20$as$u20$core..iter..traits..iterator..Iterator$GT$4next17hcf9ea7bb719e06acE
	movq	%rax, -104(%rbp)
Ltmp560:
	.loc	14 2407 15
	movq	-104(%rbp), %rdx
	movl	$1, %eax
	xorl	%ecx, %ecx
	cmpq	$0, %rdx
	cmoveq	%rcx, %rax
	.loc	14 2407 9 is_stmt 0
	cmpq	$0, %rax
	jne	LBB86_2
	.loc	14 2409 21 is_stmt 1
	movq	$0, -112(%rbp)
	.loc	14 2409 44 is_stmt 0
	jmp	LBB86_3
LBB86_2:
	.loc	14 2408 18 is_stmt 1
	movq	-104(%rbp), %rax
	movq	%rax, -64(%rbp)
Ltmp561:
	.loc	14 2408 24 is_stmt 0
	movq	%rax, -112(%rbp)
Ltmp562:
LBB86_3:
	.loc	33 38 14 is_stmt 1
	movq	-112(%rbp), %rdx
	xorl	%eax, %eax
	movl	$1, %ecx
	cmpq	$0, %rdx
	cmoveq	%rcx, %rax
	cmpq	$0, %rax
	jne	LBB86_5
	movq	-112(%rbp), %rax
	movq	%rax, -56(%rbp)
	.loc	33 38 13 is_stmt 0
	movb	(%rax), %al
	movb	%al, -129(%rbp)
	movb	%al, -42(%rbp)
Ltmp563:
	.loc	33 39 8 is_stmt 1
	cmpb	$-128, %al
	jb	LBB86_8
	jmp	LBB86_7
Ltmp564:
LBB86_5:
	.loc	14 2420 21
	movl	$0, -120(%rbp)
Ltmp565:
LBB86_6:
	.loc	33 70 2
	jmp	LBB86_9
LBB86_7:
	.loc	33 0 2 is_stmt 0
	movb	-129(%rbp), %al
	movq	-128(%rbp), %rdi
Ltmp566:
	.loc	33 46 32 is_stmt 1
	movb	%al, -41(%rbp)
Ltmp567:
	.loc	33 12 5
	andb	$31, %al
	movzbl	%al, %eax
	movl	%eax, -136(%rbp)
	movl	%eax, -40(%rbp)
Ltmp568:
	.loc	33 49 23
	callq	__ZN91_$LT$core..slice..iter..Iter$LT$T$GT$$u20$as$u20$core..iter..traits..iterator..Iterator$GT$4next17hcf9ea7bb719e06acE
	movq	%rax, %rdi
	leaq	l___unnamed_9(%rip), %rsi
	callq	__ZN4core6option15Option$LT$T$GT$16unwrap_unchecked17h5d25bf1a73efd46aE
	movl	-136(%rbp), %ecx
	movq	%rax, %rdx
	movb	-129(%rbp), %al
	.loc	33 49 22 is_stmt 0
	movb	(%rdx), %dl
	movb	%dl, -130(%rbp)
	movb	%dl, -33(%rbp)
Ltmp569:
	.loc	33 50 37 is_stmt 1
	movl	%ecx, -32(%rbp)
	.loc	33 50 43 is_stmt 0
	movb	%dl, -26(%rbp)
Ltmp570:
	.loc	33 18 5 is_stmt 1
	shll	$6, %ecx
	.loc	33 18 17 is_stmt 0
	andb	$63, %dl
	movzbl	%dl, %edx
	.loc	33 18 5
	orl	%edx, %ecx
	movl	%ecx, -92(%rbp)
Ltmp571:
	.loc	33 51 8 is_stmt 1
	cmpb	$-32, %al
	jae	LBB86_11
	jmp	LBB86_10
Ltmp572:
LBB86_8:
	.loc	33 0 8 is_stmt 0
	movb	-129(%rbp), %al
	.loc	33 40 21 is_stmt 1
	movzbl	%al, %eax
	.loc	33 40 16 is_stmt 0
	movl	%eax, -116(%rbp)
	movl	$1, -120(%rbp)
	.file	34 "/Users/natalie/.cargo/registry/src/github.com-1ecc6299db9ec823/syn-1.0.103" "build.rs"
	.loc	34 1 1 is_stmt 1
	jmp	LBB86_6
Ltmp573:
LBB86_9:
	.loc	33 70 2
	movl	-120(%rbp), %eax
	movl	-116(%rbp), %edx
	addq	$144, %rsp
	popq	%rbp
	retq
LBB86_10:
Ltmp574:
	.loc	33 69 10
	movl	-92(%rbp), %eax
	.loc	33 69 5 is_stmt 0
	movl	%eax, -116(%rbp)
	movl	$1, -120(%rbp)
Ltmp575:
	.loc	33 70 2 is_stmt 1
	jmp	LBB86_9
LBB86_11:
	.loc	33 0 2 is_stmt 0
	movq	-128(%rbp), %rdi
Ltmp576:
	.loc	33 56 27 is_stmt 1
	callq	__ZN91_$LT$core..slice..iter..Iter$LT$T$GT$$u20$as$u20$core..iter..traits..iterator..Iterator$GT$4next17hcf9ea7bb719e06acE
	movq	%rax, %rdi
	leaq	l___unnamed_10(%rip), %rsi
	callq	__ZN4core6option15Option$LT$T$GT$16unwrap_unchecked17h5d25bf1a73efd46aE
	movb	-130(%rbp), %dl
	movl	-136(%rbp), %ecx
	movq	%rax, %rsi
	movb	-129(%rbp), %al
	.loc	33 56 26 is_stmt 0
	movb	(%rsi), %sil
	movb	%sil, -25(%rbp)
Ltmp577:
	.loc	33 57 38 is_stmt 1
	andb	$63, %dl
	movzbl	%dl, %edx
	movl	%edx, -24(%rbp)
	.loc	33 57 62 is_stmt 0
	movb	%sil, -17(%rbp)
Ltmp578:
	.loc	33 18 5 is_stmt 1
	shll	$6, %edx
	.loc	33 18 17 is_stmt 0
	andb	$63, %sil
	movzbl	%sil, %esi
	.loc	33 18 5
	orl	%esi, %edx
	movl	%edx, -140(%rbp)
	movl	%edx, -16(%rbp)
Ltmp579:
	.loc	33 58 14 is_stmt 1
	shll	$12, %ecx
	.loc	33 58 9 is_stmt 0
	orl	%edx, %ecx
	movl	%ecx, -92(%rbp)
	.loc	33 59 12 is_stmt 1
	cmpb	$-16, %al
	jae	LBB86_13
Ltmp580:
LBB86_12:
	.loc	33 51 5
	jmp	LBB86_10
LBB86_13:
	.loc	33 0 5 is_stmt 0
	movq	-128(%rbp), %rdi
Ltmp581:
	.loc	33 64 31 is_stmt 1
	callq	__ZN91_$LT$core..slice..iter..Iter$LT$T$GT$$u20$as$u20$core..iter..traits..iterator..Iterator$GT$4next17hcf9ea7bb719e06acE
	movq	%rax, %rdi
	leaq	l___unnamed_11(%rip), %rsi
	callq	__ZN4core6option15Option$LT$T$GT$16unwrap_unchecked17h5d25bf1a73efd46aE
	movl	-140(%rbp), %ecx
	movq	%rax, %rdx
	movl	-136(%rbp), %eax
	.loc	33 64 30 is_stmt 0
	movb	(%rdx), %dl
	movb	%dl, -9(%rbp)
Ltmp582:
	.loc	33 65 18 is_stmt 1
	andl	$7, %eax
	shll	$18, %eax
	.loc	33 65 56 is_stmt 0
	movl	%ecx, -8(%rbp)
	.loc	33 65 61
	movb	%dl, -1(%rbp)
Ltmp583:
	.loc	33 18 5 is_stmt 1
	shll	$6, %ecx
	.loc	33 18 17 is_stmt 0
	andb	$63, %dl
	movzbl	%dl, %edx
	.loc	33 18 5
	orl	%edx, %ecx
Ltmp584:
	.loc	33 65 13 is_stmt 1
	orl	%ecx, %eax
	movl	%eax, -92(%rbp)
Ltmp585:
	.loc	33 59 9
	jmp	LBB86_12
Ltmp586:
Lfunc_end86:
	.cfi_endproc

	.p2align	4, 0x90
__ZN4core3str21_$LT$impl$u20$str$GT$16is_char_boundary17ha1072730be0d4300E:
Lfunc_begin87:
	.loc	26 211 0
	.cfi_startproc
	pushq	%rbp
	.cfi_def_cfa_offset 16
	.cfi_offset %rbp, -16
	movq	%rsp, %rbp
	.cfi_def_cfa_register %rbp
	subq	$176, %rsp
	movq	%rdi, -176(%rbp)
	movq	%rsi, -168(%rbp)
	movq	%rdx, -160(%rbp)
	movq	%rdi, -136(%rbp)
	movq	%rsi, -128(%rbp)
	movq	%rdx, -120(%rbp)
Ltmp587:
	.loc	26 216 12 prologue_end
	cmpq	$0, %rdx
	jne	LBB87_2
	.loc	26 217 20
	movb	$1, -145(%rbp)
	.loc	26 234 6
	jmp	LBB87_6
LBB87_2:
	.loc	26 0 6 is_stmt 0
	movq	-160(%rbp), %rdi
	movq	-168(%rbp), %rax
	movq	-176(%rbp), %rcx
	.loc	26 220 15 is_stmt 1
	movq	%rcx, -112(%rbp)
	movq	%rax, -104(%rbp)
Ltmp588:
	.loc	26 327 18
	movq	%rcx, -96(%rbp)
	movq	%rax, -88(%rbp)
	movq	-96(%rbp), %rsi
	movq	-88(%rbp), %rdx
Ltmp589:
	.loc	26 220 15
	movq	%rsi, -80(%rbp)
	movq	%rdx, -72(%rbp)
	.loc	26 220 35 is_stmt 0
	movq	%rdi, -64(%rbp)
Ltmp590:
	.file	35 "/rustc/2c8cc343237b8f7d5a3c3703e3a87f2eb2c54a74/library/core/src/slice" "mod.rs"
	.loc	35 343 9 is_stmt 1
	callq	__ZN75_$LT$usize$u20$as$u20$core..slice..index..SliceIndex$LT$$u5b$T$u5d$$GT$$GT$3get17h94f19cb7d6a18055E
	movq	%rax, -144(%rbp)
Ltmp591:
	.loc	26 220 15
	movq	-144(%rbp), %rdx
	movl	$1, %eax
	xorl	%ecx, %ecx
	cmpq	$0, %rdx
	cmoveq	%rcx, %rax
	.loc	26 220 9 is_stmt 0
	cmpq	$0, %rax
	jne	LBB87_4
	.loc	26 0 9
	movq	-160(%rbp), %rax
	movq	-168(%rbp), %rcx
	movq	-176(%rbp), %rdx
	.loc	26 230 30 is_stmt 1
	movq	%rdx, -48(%rbp)
	movq	%rcx, -40(%rbp)
Ltmp592:
	.loc	26 160 9
	movq	%rdx, -32(%rbp)
	movq	%rcx, -24(%rbp)
Ltmp593:
	.loc	26 327 18
	movq	%rdx, -16(%rbp)
	movq	%rcx, -8(%rbp)
Ltmp594:
	.loc	26 230 21
	cmpq	-8(%rbp), %rax
	sete	%al
	andb	$1, %al
	movb	%al, -145(%rbp)
	.loc	26 230 39 is_stmt 0
	jmp	LBB87_5
LBB87_4:
	.loc	26 232 19 is_stmt 1
	movq	-144(%rbp), %rax
	movb	(%rax), %al
	movb	%al, -50(%rbp)
Ltmp595:
	.loc	26 232 25 is_stmt 0
	movb	%al, -49(%rbp)
Ltmp596:
	.file	36 "/rustc/2c8cc343237b8f7d5a3c3703e3a87f2eb2c54a74/library/core/src/num" "mod.rs"
	.loc	36 885 9 is_stmt 1
	cmpb	$-64, %al
	setge	%al
	andb	$1, %al
	movb	%al, -145(%rbp)
Ltmp597:
LBB87_5:
	.loc	26 234 6
	jmp	LBB87_6
LBB87_6:
	movb	-145(%rbp), %al
	andb	$1, %al
	movzbl	%al, %eax
	addq	$176, %rsp
	popq	%rbp
	retq
Ltmp598:
Lfunc_end87:
	.cfi_endproc

	.p2align	4, 0x90
__ZN4core3str21_$LT$impl$u20$str$GT$5parse17h14d9a458068db881E:
Lfunc_begin88:
	.loc	26 2352 0
	.cfi_startproc
	pushq	%rbp
	.cfi_def_cfa_offset 16
	.cfi_offset %rbp, -16
	movq	%rsp, %rbp
	.cfi_def_cfa_register %rbp
	subq	$32, %rsp
	movq	%rdi, -24(%rbp)
	movq	%rsi, -16(%rbp)
Ltmp599:
	.loc	26 2353 9 prologue_end
	callq	__ZN4core3num60_$LT$impl$u20$core..str..traits..FromStr$u20$for$u20$u32$GT$8from_str17hc43530aba0d836a9E
	movq	%rax, -8(%rbp)
	movq	-8(%rbp), %rax
	movq	%rax, -32(%rbp)
	.loc	26 2354 6
	movq	-32(%rbp), %rax
	addq	$32, %rsp
	popq	%rbp
	retq
Ltmp600:
Lfunc_end88:
	.cfi_endproc

	.p2align	4, 0x90
__ZN4core3str21_$LT$impl$u20$str$GT$5split17h60d1191b8b6978b4E:
Lfunc_begin89:
	.loc	26 1341 0
	.cfi_startproc
	.cfi_personality 155, _rust_eh_personality
	.cfi_lsda 16, Lexception21
	pushq	%rbp
	.cfi_def_cfa_offset 16
	.cfi_offset %rbp, -16
	movq	%rsp, %rbp
	.cfi_def_cfa_register %rbp
	subq	$272, %rsp
	movl	%ecx, -260(%rbp)
	movq	%rdx, -256(%rbp)
	movq	%rsi, -248(%rbp)
	movq	%rdi, -240(%rbp)
	movq	%rdi, -232(%rbp)
	movq	%rsi, -88(%rbp)
	movq	%rdx, -80(%rbp)
	movl	%ecx, -68(%rbp)
Ltmp604:
	.loc	26 1342 15 prologue_end
	movb	$1, -89(%rbp)
	.loc	26 1344 18
	movq	%rsi, -64(%rbp)
	movq	%rdx, -56(%rbp)
Ltmp605:
	.loc	26 160 9
	movq	%rsi, -48(%rbp)
	movq	%rdx, -40(%rbp)
Ltmp606:
	.loc	26 327 18
	movq	%rsi, -32(%rbp)
	movq	%rdx, -24(%rbp)
	movq	-24(%rbp), %rax
	movq	%rax, -224(%rbp)
Ltmp607:
	.loc	26 0 18 is_stmt 0
	movq	-256(%rbp), %rcx
	movq	-248(%rbp), %rdx
	movl	-260(%rbp), %esi
	.loc	26 1345 22 is_stmt 1
	movb	$0, -89(%rbp)
Ltmp601:
	leaq	-144(%rbp), %rdi
	callq	__ZN52_$LT$char$u20$as$u20$core..str..pattern..Pattern$GT$13into_searcher17h43f86a94d5be2793E
Ltmp602:
	jmp	LBB89_4
LBB89_2:
	.loc	26 1349 5
	testb	$1, -89(%rbp)
	jne	LBB89_6
	jmp	LBB89_5
LBB89_3:
Ltmp603:
	.loc	26 0 5 is_stmt 0
	movq	%rax, %rcx
	movl	%edx, %eax
	movq	%rcx, -16(%rbp)
	movl	%eax, -8(%rbp)
	jmp	LBB89_2
LBB89_4:
	movq	-224(%rbp), %rax
	.loc	26 1342 15 is_stmt 1
	movq	$0, -168(%rbp)
	movq	%rax, -160(%rbp)
	leaq	-216(%rbp), %rdi
	leaq	-144(%rbp), %rsi
	movl	$48, %edx
	callq	_memcpy
	movq	-240(%rbp), %rdi
	movb	$1, -152(%rbp)
	movb	$0, -151(%rbp)
	.loc	26 1342 9 is_stmt 0
	leaq	-216(%rbp), %rsi
	movl	$72, %edx
	callq	_memcpy
	movq	-232(%rbp), %rax
	.loc	26 1349 6 is_stmt 1
	addq	$272, %rsp
	popq	%rbp
	retq
LBB89_5:
	.loc	26 1341 5
	movq	-16(%rbp), %rdi
	callq	__Unwind_Resume
LBB89_6:
	.loc	26 1349 5
	jmp	LBB89_5
Ltmp608:
Lfunc_end89:
	.cfi_endproc
	.section	__TEXT,__gcc_except_tab
	.p2align	2
GCC_except_table89:
Lexception21:
	.byte	255
	.byte	255
	.byte	1
	.uleb128 Lcst_end21-Lcst_begin21
Lcst_begin21:
	.uleb128 Ltmp601-Lfunc_begin89
	.uleb128 Ltmp602-Ltmp601
	.uleb128 Ltmp603-Lfunc_begin89
	.byte	0
	.uleb128 Ltmp602-Lfunc_begin89
	.uleb128 Lfunc_end89-Ltmp602
	.byte	0
	.byte	0
Lcst_end21:
	.p2align	2

	.section	__TEXT,__text,regular,pure_instructions
	.p2align	4, 0x90
__ZN4core3str21_$LT$impl$u20$str$GT$8contains17h8d6932c2c25c7f76E:
Lfunc_begin90:
	.loc	26 1070 0
	.cfi_startproc
	pushq	%rbp
	.cfi_def_cfa_offset 16
	.cfi_offset %rbp, -16
	movq	%rsp, %rbp
	.cfi_def_cfa_register %rbp
	subq	$48, %rsp
	movq	%rcx, -48(%rbp)
	movq	%rdx, -40(%rbp)
	movq	%rsi, %rcx
	movq	-48(%rbp), %rsi
	movq	%rdi, %rdx
	movq	-40(%rbp), %rdi
	movq	%rdx, -32(%rbp)
	movq	%rcx, -24(%rbp)
	movq	%rdi, -16(%rbp)
	movq	%rsi, -8(%rbp)
Ltmp609:
	.loc	26 1071 9 prologue_end
	callq	__ZN55_$LT$$RF$str$u20$as$u20$core..str..pattern..Pattern$GT$15is_contained_in17h68b3397ca36b0bc0E
	.loc	26 1072 6
	andb	$1, %al
	movzbl	%al, %eax
	addq	$48, %rsp
	popq	%rbp
	retq
Ltmp610:
Lfunc_end90:
	.cfi_endproc

	.p2align	4, 0x90
__ZN4core3str21_$LT$impl$u20$str$GT$9ends_with17ha7cb109fe618dc62E:
Lfunc_begin91:
	.loc	26 1122 0
	.cfi_startproc
	pushq	%rbp
	.cfi_def_cfa_offset 16
	.cfi_offset %rbp, -16
	movq	%rsp, %rbp
	.cfi_def_cfa_register %rbp
	subq	$48, %rsp
	movq	%rcx, -48(%rbp)
	movq	%rdx, -40(%rbp)
	movq	%rsi, %rcx
	movq	-48(%rbp), %rsi
	movq	%rdi, %rdx
	movq	-40(%rbp), %rdi
	movq	%rdx, -32(%rbp)
	movq	%rcx, -24(%rbp)
	movq	%rdi, -16(%rbp)
	movq	%rsi, -8(%rbp)
Ltmp611:
	.loc	26 1126 9 prologue_end
	callq	__ZN55_$LT$$RF$str$u20$as$u20$core..str..pattern..Pattern$GT$12is_suffix_of17h19ddcd96501074f8E
	.loc	26 1127 6
	andb	$1, %al
	movzbl	%al, %eax
	addq	$48, %rsp
	popq	%rbp
	retq
Ltmp612:
Lfunc_end91:
	.cfi_endproc

	.p2align	4, 0x90
__ZN4core3str4iter22SplitInternal$LT$P$GT$4next17h2c7032744c5f3f48E:
Lfunc_begin92:
	.file	37 "/rustc/2c8cc343237b8f7d5a3c3703e3a87f2eb2c54a74/library/core/src/str" "iter.rs"
	.loc	37 602 0
	.cfi_startproc
	pushq	%rbp
	.cfi_def_cfa_offset 16
	.cfi_offset %rbp, -16
	movq	%rsp, %rbp
	.cfi_def_cfa_register %rbp
	subq	$160, %rsp
	movq	%rdi, -136(%rbp)
	movq	%rdi, -72(%rbp)
Ltmp613:
	.loc	37 603 12 prologue_end
	testb	$1, 65(%rdi)
	jne	LBB92_2
	.loc	37 0 12 is_stmt 0
	movq	-136(%rbp), %rdi
	.loc	37 607 24 is_stmt 1
	callq	__ZN81_$LT$core..str..pattern..CharSearcher$u20$as$u20$core..str..pattern..Searcher$GT$8haystack17ha43ebf2d7c194662E
	movq	-136(%rbp), %rsi
	movq	%rax, -152(%rbp)
	movq	%rdx, -144(%rbp)
	movq	%rax, -64(%rbp)
	movq	%rdx, -56(%rbp)
Ltmp614:
	.loc	37 608 15
	leaq	-112(%rbp), %rdi
	callq	__ZN81_$LT$core..str..pattern..CharSearcher$u20$as$u20$core..str..pattern..Searcher$GT$10next_match17hbfd676a65685119bE
	.loc	37 608 9 is_stmt 0
	cmpq	$0, -112(%rbp)
	je	LBB92_4
	jmp	LBB92_5
Ltmp615:
LBB92_2:
	.loc	37 604 20 is_stmt 1
	movq	$0, -128(%rbp)
LBB92_3:
	.loc	37 617 6
	movq	-128(%rbp), %rax
	movq	-120(%rbp), %rdx
	addq	$160, %rsp
	popq	%rbp
	retq
LBB92_4:
	.loc	37 0 6 is_stmt 0
	movq	-136(%rbp), %rdi
Ltmp616:
	.loc	37 615 21 is_stmt 1
	callq	__ZN4core3str4iter22SplitInternal$LT$P$GT$7get_end17hb06a030203cbb73eE
	movq	%rdx, -120(%rbp)
	movq	%rax, -128(%rbp)
	.loc	37 615 34 is_stmt 0
	jmp	LBB92_6
LBB92_5:
	.loc	37 0 34
	movq	-136(%rbp), %rsi
	movq	-144(%rbp), %rcx
	movq	-152(%rbp), %rdx
	.loc	37 610 19 is_stmt 1
	movq	-104(%rbp), %rax
	movq	%rax, -48(%rbp)
	.loc	37 610 22 is_stmt 0
	movq	-96(%rbp), %rdi
	movq	%rdi, -160(%rbp)
	movq	%rdi, -40(%rbp)
Ltmp617:
	.loc	37 611 27 is_stmt 1
	movq	%rdx, -32(%rbp)
	movq	%rcx, -24(%rbp)
	.loc	37 611 50 is_stmt 0
	movq	48(%rsi), %rsi
	movq	%rsi, -88(%rbp)
	movq	%rax, -80(%rbp)
Ltmp618:
	.loc	26 511 20 is_stmt 1
	movq	-88(%rbp), %rdi
	movq	-80(%rbp), %rsi
	callq	__ZN4core3str6traits108_$LT$impl$u20$core..slice..index..SliceIndex$LT$str$GT$$u20$for$u20$core..ops..range..Range$LT$usize$GT$$GT$13get_unchecked17h2020ce5a572c539aE
	movq	-160(%rbp), %rsi
	movq	-136(%rbp), %rcx
	.loc	26 511 18 is_stmt 0
	movq	%rax, -16(%rbp)
	movq	%rdx, -8(%rbp)
Ltmp619:
	.loc	37 612 17 is_stmt 1
	movq	%rsi, 48(%rcx)
	.loc	37 613 17
	movq	%rax, -128(%rbp)
	movq	%rdx, -120(%rbp)
Ltmp620:
LBB92_6:
	.loc	37 617 6
	jmp	LBB92_3
Ltmp621:
Lfunc_end92:
	.cfi_endproc

	.p2align	4, 0x90
__ZN4core3str4iter22SplitInternal$LT$P$GT$7get_end17hb06a030203cbb73eE:
Lfunc_begin93:
	.loc	37 587 0
	.cfi_startproc
	pushq	%rbp
	.cfi_def_cfa_offset 16
	.cfi_offset %rbp, -16
	movq	%rsp, %rbp
	.cfi_def_cfa_register %rbp
	subq	$96, %rsp
	movq	%rdi, -88(%rbp)
	movq	%rdi, -40(%rbp)
Ltmp622:
	.loc	37 588 13 prologue_end
	movb	65(%rdi), %al
	.loc	37 588 12 is_stmt 0
	xorb	$-1, %al
	testb	$1, %al
	jne	LBB93_2
LBB93_1:
	.loc	37 598 9 is_stmt 1
	movq	$0, -80(%rbp)
	.loc	37 599 6
	jmp	LBB93_8
LBB93_2:
	.loc	37 0 6 is_stmt 0
	movq	-88(%rbp), %rax
	.loc	37 589 13 is_stmt 1
	movb	$1, 65(%rax)
	.loc	37 591 16
	testb	$1, 64(%rax)
	jne	LBB93_4
	.loc	37 0 16 is_stmt 0
	movq	-88(%rbp), %rcx
	.loc	37 591 45
	movq	56(%rcx), %rax
	subq	48(%rcx), %rax
	cmpq	$0, %rax
	seta	%al
	.loc	37 591 16
	andb	$1, %al
	movb	%al, -57(%rbp)
	jmp	LBB93_5
LBB93_4:
	movb	$1, -57(%rbp)
LBB93_5:
	testb	$1, -57(%rbp)
	jne	LBB93_7
	.loc	37 588 9 is_stmt 1
	jmp	LBB93_1
LBB93_7:
	.loc	37 0 9 is_stmt 0
	movq	-88(%rbp), %rdi
	.loc	37 593 39 is_stmt 1
	callq	__ZN81_$LT$core..str..pattern..CharSearcher$u20$as$u20$core..str..pattern..Searcher$GT$8haystack17ha43ebf2d7c194662E
	movq	%rax, %rcx
	movq	-88(%rbp), %rax
	movq	%rcx, -96(%rbp)
	movq	%rdx, %rcx
	movq	-96(%rbp), %rdx
	movq	%rdx, -32(%rbp)
	movq	%rcx, -24(%rbp)
	.loc	37 593 77 is_stmt 0
	movq	48(%rax), %rsi
	.loc	37 593 89
	movq	56(%rax), %rax
	.loc	37 593 77
	movq	%rsi, -56(%rbp)
	movq	%rax, -48(%rbp)
Ltmp623:
	.loc	26 511 20 is_stmt 1
	movq	-56(%rbp), %rdi
	movq	-48(%rbp), %rsi
	callq	__ZN4core3str6traits108_$LT$impl$u20$core..slice..index..SliceIndex$LT$str$GT$$u20$for$u20$core..ops..range..Range$LT$usize$GT$$GT$13get_unchecked17h2020ce5a572c539aE
	.loc	26 511 18 is_stmt 0
	movq	%rax, -16(%rbp)
	movq	%rdx, -8(%rbp)
Ltmp624:
	.loc	37 594 24 is_stmt 1
	movq	%rax, -80(%rbp)
	movq	%rdx, -72(%rbp)
Ltmp625:
LBB93_8:
	.loc	37 599 6
	movq	-80(%rbp), %rax
	movq	-72(%rbp), %rdx
	addq	$96, %rsp
	popq	%rbp
	retq
Ltmp626:
Lfunc_end93:
	.cfi_endproc

	.p2align	4, 0x90
__ZN4core3str6traits108_$LT$impl$u20$core..slice..index..SliceIndex$LT$str$GT$$u20$for$u20$core..ops..range..Range$LT$usize$GT$$GT$13get_unchecked17h2020ce5a572c539aE:
Lfunc_begin94:
	.file	38 "/rustc/2c8cc343237b8f7d5a3c3703e3a87f2eb2c54a74/library/core/src/str" "traits.rs"
	.loc	38 197 0
	.cfi_startproc
	pushq	%rbp
	.cfi_def_cfa_offset 16
	.cfi_offset %rbp, -16
	movq	%rsp, %rbp
	.cfi_def_cfa_register %rbp
	subq	$192, %rsp
	movq	%rdi, -160(%rbp)
	movq	%rsi, -152(%rbp)
	movq	%rdx, -144(%rbp)
	movq	%rcx, -136(%rbp)
Ltmp627:
	.loc	38 198 21 prologue_end
	movq	%rdx, -128(%rbp)
	movq	%rcx, -120(%rbp)
Ltmp628:
	.loc	38 201 28
	movq	%rdx, -112(%rbp)
	movq	%rcx, -104(%rbp)
Ltmp629:
	.loc	3 1650 9
	movq	%rdx, -96(%rbp)
Ltmp630:
	.loc	38 201 47
	movq	%rdi, -88(%rbp)
Ltmp631:
	.loc	3 932 18
	movq	%rdx, -80(%rbp)
	.loc	3 932 30 is_stmt 0
	movq	%rdi, -72(%rbp)
Ltmp632:
	.loc	3 473 18 is_stmt 1
	addq	%rdi, %rdx
	movq	%rdx, -64(%rbp)
	movq	-64(%rbp), %rax
	movq	%rax, -56(%rbp)
Ltmp633:
	.loc	38 202 19
	subq	%rdi, %rsi
	movq	%rsi, -48(%rbp)
Ltmp634:
	.loc	38 203 35
	movq	%rax, -40(%rbp)
	.loc	38 203 40 is_stmt 0
	movq	%rsi, -32(%rbp)
Ltmp635:
	.loc	4 734 20 is_stmt 1
	movq	%rax, -24(%rbp)
Ltmp636:
	.loc	3 61 9
	movq	%rax, -16(%rbp)
Ltmp637:
	.loc	4 734 33
	movq	%rsi, -8(%rbp)
Ltmp638:
	.loc	5 118 36
	movq	%rax, -176(%rbp)
	movq	%rsi, -168(%rbp)
	.loc	5 118 14 is_stmt 0
	movq	-176(%rbp), %rcx
	movq	-168(%rbp), %rax
	movq	%rcx, -192(%rbp)
	movq	%rax, -184(%rbp)
	movq	-192(%rbp), %rax
	movq	-184(%rbp), %rdx
Ltmp639:
	.loc	38 204 6 is_stmt 1
	addq	$192, %rsp
	popq	%rbp
	retq
Ltmp640:
Lfunc_end94:
	.cfi_endproc

	.p2align	4, 0x90
__ZN4core3str6traits112_$LT$impl$u20$core..slice..index..SliceIndex$LT$str$GT$$u20$for$u20$core..ops..range..RangeFrom$LT$usize$GT$$GT$13get_unchecked17he89e0d0a32cf0d0cE:
Lfunc_begin95:
	.loc	38 349 0
	.cfi_startproc
	pushq	%rbp
	.cfi_def_cfa_offset 16
	.cfi_offset %rbp, -16
	movq	%rsp, %rbp
	.cfi_def_cfa_register %rbp
	subq	$232, %rsp
	movq	%rdi, -184(%rbp)
	movq	%rsi, -176(%rbp)
	movq	%rdx, -168(%rbp)
Ltmp641:
	.loc	38 350 21 prologue_end
	movq	%rsi, -160(%rbp)
	movq	%rdx, -152(%rbp)
Ltmp642:
	.loc	38 353 28
	movq	%rsi, -144(%rbp)
	movq	%rdx, -136(%rbp)
Ltmp643:
	.loc	3 1650 9
	movq	%rsi, -128(%rbp)
Ltmp644:
	.loc	38 353 47
	movq	%rdi, -120(%rbp)
Ltmp645:
	.loc	3 932 18
	movq	%rsi, -112(%rbp)
	.loc	3 932 30 is_stmt 0
	movq	%rdi, -104(%rbp)
Ltmp646:
	.loc	3 473 18 is_stmt 1
	movq	%rsi, %rax
	addq	%rdi, %rax
	movq	%rax, -96(%rbp)
	movq	-96(%rbp), %rcx
	movq	%rcx, -88(%rbp)
Ltmp647:
	.loc	38 354 19
	movq	%rsi, -80(%rbp)
	movq	%rdx, -72(%rbp)
Ltmp648:
	.loc	3 1630 18
	movq	%rsi, -64(%rbp)
	movq	%rdx, -56(%rbp)
Ltmp649:
	.loc	5 98 14
	movq	%rsi, -232(%rbp)
	movq	%rdx, -224(%rbp)
	movq	-224(%rbp), %rax
Ltmp650:
	.loc	38 354 19
	subq	%rdi, %rax
	movq	%rax, -48(%rbp)
Ltmp651:
	.loc	38 355 35
	movq	%rcx, -40(%rbp)
	.loc	38 355 40 is_stmt 0
	movq	%rax, -32(%rbp)
Ltmp652:
	.loc	4 734 20 is_stmt 1
	movq	%rcx, -24(%rbp)
Ltmp653:
	.loc	3 61 9
	movq	%rcx, -16(%rbp)
Ltmp654:
	.loc	4 734 33
	movq	%rax, -8(%rbp)
Ltmp655:
	.loc	5 118 36
	movq	%rcx, -200(%rbp)
	movq	%rax, -192(%rbp)
	.loc	5 118 14 is_stmt 0
	movq	-200(%rbp), %rcx
	movq	-192(%rbp), %rax
	movq	%rcx, -216(%rbp)
	movq	%rax, -208(%rbp)
	movq	-216(%rbp), %rax
	movq	-208(%rbp), %rdx
Ltmp656:
	.loc	38 356 6 is_stmt 1
	addq	$232, %rsp
	popq	%rbp
	retq
Ltmp657:
Lfunc_end95:
	.cfi_endproc

	.p2align	4, 0x90
__ZN4core3str6traits112_$LT$impl$u20$core..slice..index..SliceIndex$LT$str$GT$$u20$for$u20$core..ops..range..RangeFrom$LT$usize$GT$$GT$3get17hb2c02817e24c7557E:
Lfunc_begin96:
	.loc	38 329 0
	.cfi_startproc
	pushq	%rbp
	.cfi_def_cfa_offset 16
	.cfi_offset %rbp, -16
	movq	%rsp, %rbp
	.cfi_def_cfa_register %rbp
	subq	$80, %rsp
	movq	%rdx, -80(%rbp)
	movq	%rsi, %rax
	movq	-80(%rbp), %rsi
	movq	%rax, -72(%rbp)
	movq	%rdi, %rdx
	movq	-72(%rbp), %rdi
	movq	%rdx, -64(%rbp)
	movq	%rdi, -56(%rbp)
	movq	%rsi, -48(%rbp)
	movq	%rdx, -24(%rbp)
	movq	%rdi, -16(%rbp)
	movq	%rsi, -8(%rbp)
Ltmp658:
	.loc	38 330 12 prologue_end
	callq	__ZN4core3str21_$LT$impl$u20$str$GT$16is_char_boundary17ha1072730be0d4300E
	testb	$1, %al
	jne	LBB96_2
	.loc	38 335 13
	movq	$0, -40(%rbp)
	.loc	38 330 9
	jmp	LBB96_3
LBB96_2:
	.loc	38 0 9 is_stmt 0
	movq	-48(%rbp), %rdx
	movq	-56(%rbp), %rsi
	movq	-64(%rbp), %rdi
	.loc	38 333 29 is_stmt 1
	callq	__ZN4core3str6traits112_$LT$impl$u20$core..slice..index..SliceIndex$LT$str$GT$$u20$for$u20$core..ops..range..RangeFrom$LT$usize$GT$$GT$13get_unchecked17he89e0d0a32cf0d0cE
	.loc	38 333 13 is_stmt 0
	movq	%rax, -40(%rbp)
	movq	%rdx, -32(%rbp)
LBB96_3:
	.loc	38 337 6 is_stmt 1
	movq	-40(%rbp), %rax
	movq	-32(%rbp), %rdx
	addq	$80, %rsp
	popq	%rbp
	retq
Ltmp659:
Lfunc_end96:
	.cfi_endproc

	.p2align	4, 0x90
__ZN4core3str6traits112_$LT$impl$u20$core..slice..index..SliceIndex$LT$str$GT$$u20$for$u20$core..ops..range..RangeFrom$LT$usize$GT$$GT$5index17h0febb46425070454E:
Lfunc_begin97:
	.loc	38 366 0
	.cfi_startproc
	pushq	%rbp
	.cfi_def_cfa_offset 16
	.cfi_offset %rbp, -16
	movq	%rsp, %rbp
	.cfi_def_cfa_register %rbp
	subq	$176, %rsp
	movq	%rsi, -176(%rbp)
	movq	%rdx, -168(%rbp)
	movq	%rcx, -160(%rbp)
	movq	%rdi, -104(%rbp)
	movq	%rsi, -96(%rbp)
	movq	%rdx, -88(%rbp)
Ltmp660:
	.loc	38 367 41 prologue_end
	movq	%rsi, -80(%rbp)
	movq	%rdx, -72(%rbp)
Ltmp661:
	.loc	26 160 9
	movq	%rsi, -64(%rbp)
	movq	%rdx, -56(%rbp)
Ltmp662:
	.loc	26 327 18
	movq	%rsi, -48(%rbp)
	movq	%rdx, -40(%rbp)
	movq	-40(%rbp), %rax
Ltmp663:
	.loc	38 367 28
	movq	%rdi, -136(%rbp)
	movq	%rax, -128(%rbp)
	.loc	38 367 14 is_stmt 0
	movq	-136(%rbp), %rax
	movq	%rax, -152(%rbp)
	movq	%rax, -32(%rbp)
	.loc	38 367 21
	movq	-128(%rbp), %rax
	movq	%rax, -144(%rbp)
	movq	%rax, -24(%rbp)
Ltmp664:
	.loc	38 368 15 is_stmt 1
	callq	__ZN4core3str6traits112_$LT$impl$u20$core..slice..index..SliceIndex$LT$str$GT$$u20$for$u20$core..ops..range..RangeFrom$LT$usize$GT$$GT$3get17hb2c02817e24c7557E
	movq	%rdx, -112(%rbp)
	movq	%rax, -120(%rbp)
	movq	-120(%rbp), %rdx
	movl	$1, %eax
	xorl	%ecx, %ecx
	cmpq	$0, %rdx
	cmoveq	%rcx, %rax
	.loc	38 368 9 is_stmt 0
	cmpq	$0, %rax
	jne	LBB97_2
	.loc	38 0 9
	movq	-160(%rbp), %r8
	movq	-144(%rbp), %rcx
	movq	-152(%rbp), %rdx
	movq	-168(%rbp), %rsi
	movq	-176(%rbp), %rdi
	.loc	38 370 21 is_stmt 1
	callq	__ZN4core3str16slice_error_fail17h13b85bf03fb2869bE
LBB97_2:
	.loc	38 369 18
	movq	-120(%rbp), %rax
	movq	-112(%rbp), %rdx
	movq	%rax, -16(%rbp)
	movq	%rdx, -8(%rbp)
Ltmp665:
	.loc	38 372 6
	addq	$176, %rsp
	popq	%rbp
	retq
Ltmp666:
Lfunc_end97:
	.cfi_endproc

	.p2align	4, 0x90
__ZN4core3str6traits54_$LT$impl$u20$core..cmp..PartialEq$u20$for$u20$str$GT$2eq17h0af93ccf84171080E:
Lfunc_begin98:
	.loc	38 28 0
	.cfi_startproc
	pushq	%rbp
	.cfi_def_cfa_offset 16
	.cfi_offset %rbp, -16
	movq	%rsp, %rbp
	.cfi_def_cfa_register %rbp
	subq	$112, %rsp
	movq	%rdi, -80(%rbp)
	movq	%rsi, -72(%rbp)
	movq	%rdx, -64(%rbp)
	movq	%rcx, -56(%rbp)
Ltmp667:
	.loc	38 29 9 prologue_end
	movq	%rdi, -48(%rbp)
	movq	%rsi, -40(%rbp)
Ltmp668:
	.loc	26 327 18
	movq	%rdi, -112(%rbp)
	movq	%rsi, -104(%rbp)
Ltmp669:
	.loc	38 29 9
	leaq	-112(%rbp), %rax
	movq	%rax, -32(%rbp)
	.loc	38 29 28 is_stmt 0
	movq	%rdx, -24(%rbp)
	movq	%rcx, -16(%rbp)
Ltmp670:
	.loc	26 327 18 is_stmt 1
	movq	%rdx, -96(%rbp)
	movq	%rcx, -88(%rbp)
Ltmp671:
	.loc	38 29 28
	leaq	-96(%rbp), %rax
	movq	%rax, -8(%rbp)
Ltmp672:
	.loc	8 1531 27
	movq	-112(%rbp), %rdi
	movq	-104(%rbp), %rsi
	.loc	8 1531 34 is_stmt 0
	movq	-96(%rbp), %rdx
	movq	-88(%rbp), %rcx
	.loc	8 1531 13
	callq	__ZN4core5slice3cmp81_$LT$impl$u20$core..cmp..PartialEq$LT$$u5b$B$u5d$$GT$$u20$for$u20$$u5b$A$u5d$$GT$2eq17hdaf75c64de00a2dcE
Ltmp673:
	.loc	38 30 6 is_stmt 1
	andb	$1, %al
	movzbl	%al, %eax
	addq	$112, %rsp
	popq	%rbp
	retq
Ltmp674:
Lfunc_end98:
	.cfi_endproc

	.p2align	4, 0x90
__ZN4core3str7pattern13simd_contains17h31f768bdb730163eE:
Lfunc_begin99:
	.file	39 "/rustc/2c8cc343237b8f7d5a3c3703e3a87f2eb2c54a74/library/core/src/str" "pattern.rs"
	.loc	39 1732 0
	.cfi_startproc
	pushq	%rbp
	.cfi_def_cfa_offset 16
	.cfi_offset %rbp, -16
	movq	%rsp, %rbp
	.cfi_def_cfa_register %rbp
	subq	$864, %rsp
	movq	%rdi, -248(%rbp)
	movq	%rsi, -240(%rbp)
	movq	%rdx, -232(%rbp)
	movq	%rcx, -224(%rbp)
Ltmp675:
	.loc	39 1733 18 prologue_end
	movq	%rdi, -216(%rbp)
	movq	%rsi, -208(%rbp)
Ltmp676:
	.loc	26 327 18
	movq	%rdi, -760(%rbp)
	movq	%rsi, -752(%rbp)
Ltmp677:
	.loc	39 1734 20
	movq	%rdx, -200(%rbp)
	movq	%rcx, -192(%rbp)
Ltmp678:
	.loc	26 327 18
	movq	%rdx, -184(%rbp)
	movq	%rcx, -176(%rbp)
	movq	-184(%rbp), %rcx
	movq	%rcx, -792(%rbp)
	movq	-176(%rbp), %rax
	movq	%rax, -784(%rbp)
	movq	%rcx, -168(%rbp)
	movq	%rax, -160(%rbp)
Ltmp679:
	.loc	39 1743 23
	movq	-752(%rbp), %rcx
	movq	%rcx, -776(%rbp)
	xorl	%eax, %eax
	cmpq	%rcx, %rax
	setb	%al
	testb	$1, %al
	jne	LBB99_1
	jmp	LBB99_2
LBB99_1:
	movq	-760(%rbp), %rax
	movb	(%rax), %al
	movb	%al, -737(%rbp)
Ltmp680:
	.loc	39 1744 28
	movq	-752(%rbp), %rax
	subq	$1, %rax
	movq	%rax, -800(%rbp)
	movq	%rax, -152(%rbp)
Ltmp681:
	.loc	39 1747 34
	cmpq	$2, -752(%rbp)
	je	LBB99_3
	jmp	LBB99_4
Ltmp682:
LBB99_2:
	.loc	39 0 34 is_stmt 0
	movq	-776(%rbp), %rsi
	.loc	39 1743 23 is_stmt 1
	leaq	l___unnamed_12(%rip), %rdx
	xorl	%eax, %eax
	movl	%eax, %edi
	callq	__ZN4core9panicking18panic_bounds_check17hacb8a94866cda541E
LBB99_3:
Ltmp683:
	.loc	39 1750 9
	movq	$1, -736(%rbp)
	.loc	39 1747 31
	jmp	LBB99_11
LBB99_4:
	.loc	39 1753 42
	movq	-752(%rbp), %rax
	movq	%rax, -144(%rbp)
	xorl	%ecx, %ecx
Ltmp684:
	.loc	28 1070 13
	subq	$4, %rax
	cmovbq	%rcx, %rax
	movq	%rax, -136(%rbp)
	movq	-136(%rbp), %rcx
Ltmp685:
	.loc	39 1753 74
	movq	-752(%rbp), %rax
	.loc	39 1753 41 is_stmt 0
	movq	%rcx, -712(%rbp)
	movq	%rax, -704(%rbp)
	leaq	-712(%rbp), %rdi
	movq	%rdi, -128(%rbp)
	.loc	39 1753 94
	movq	-760(%rbp), %rcx
	movq	-752(%rbp), %rax
	movq	%rcx, -696(%rbp)
	movq	%rax, -688(%rbp)
	leaq	-737(%rbp), %rax
	movq	%rax, -680(%rbp)
Ltmp686:
	.file	40 "/rustc/2c8cc343237b8f7d5a3c3703e3a87f2eb2c54a74/library/core/src/iter/traits" "double_ended.rs"
	.loc	40 359 34 is_stmt 1
	movq	-680(%rbp), %rax
	movq	%rax, -272(%rbp)
	movq	-696(%rbp), %rax
	movq	-688(%rbp), %rcx
	movq	%rcx, -280(%rbp)
	movq	%rax, -288(%rbp)
Ltmp687:
	.loc	40 354 13
	movq	-272(%rbp), %rax
	movq	%rax, -296(%rbp)
	movq	-288(%rbp), %rax
	movq	-280(%rbp), %rcx
	movq	%rcx, -304(%rbp)
	movq	%rax, -312(%rbp)
	leaq	-312(%rbp), %rsi
Ltmp688:
	.loc	40 359 9
	callq	__ZN4core4iter6traits12double_ended19DoubleEndedIterator9try_rfold17hd03afa0ff0e7d45aE
	movq	%rdx, -320(%rbp)
	movq	%rax, -328(%rbp)
Ltmp689:
	.loc	1 184 9
	cmpq	$0, -328(%rbp)
	jne	LBB99_6
	.loc	1 185 42
	movq	$0, -728(%rbp)
	jmp	LBB99_7
LBB99_6:
	.loc	1 186 32
	movq	-320(%rbp), %rax
	movq	%rax, -120(%rbp)
Ltmp690:
	.loc	1 186 38 is_stmt 0
	movq	%rax, -720(%rbp)
	movq	$1, -728(%rbp)
Ltmp691:
LBB99_7:
	.loc	39 1753 13 is_stmt 1
	cmpq	$1, -728(%rbp)
	jne	LBB99_9
	.loc	39 1753 18 is_stmt 0
	movq	-720(%rbp), %rax
	movq	%rax, -112(%rbp)
Ltmp692:
	.loc	39 1758 9 is_stmt 1
	movq	%rax, -736(%rbp)
Ltmp693:
	.loc	39 1747 31
	jmp	LBB99_11
LBB99_9:
	.loc	39 1756 20
	movb	$2, -761(%rbp)
Ltmp694:
LBB99_10:
	.loc	39 1851 2
	jmp	LBB99_14
LBB99_11:
	.loc	39 0 2 is_stmt 0
	movq	-784(%rbp), %rax
	movq	-800(%rbp), %rcx
Ltmp695:
	.loc	39 1762 25 is_stmt 1
	addq	$16, %rcx
	.loc	39 1762 8 is_stmt 0
	cmpq	%rcx, %rax
	jb	LBB99_13
	.loc	39 1766 30 is_stmt 1
	leaq	-640(%rbp), %rdi
	movzbl	-737(%rbp), %esi
	callq	__ZN4core9core_simd6vector17Simd$LT$T$C$_$GT$5splat17he5d0be3bf240f513E
Ltmp696:
	.loc	39 1767 51
	movq	-736(%rbp), %rax
	movq	%rax, -816(%rbp)
	.loc	39 1767 44 is_stmt 0
	movq	-752(%rbp), %rcx
	movq	%rcx, -808(%rbp)
	cmpq	%rcx, %rax
	setb	%al
	testb	$1, %al
	jne	LBB99_15
	jmp	LBB99_16
Ltmp697:
LBB99_13:
	.loc	39 0 44
	movq	-784(%rbp), %rdx
	movq	-792(%rbp), %rsi
	.loc	39 1763 38 is_stmt 1
	movq	-752(%rbp), %rcx
	.loc	39 1763 21 is_stmt 0
	leaq	-672(%rbp), %rdi
	callq	__ZN4core5slice29_$LT$impl$u20$$u5b$T$u5d$$GT$7windows17heb72760a1eeaee4cE
	leaq	-672(%rbp), %rax
	movq	%rax, -104(%rbp)
	.loc	39 1763 56
	leaq	-760(%rbp), %rax
	movq	%rax, -648(%rbp)
Ltmp698:
	.file	41 "/rustc/2c8cc343237b8f7d5a3c3703e3a87f2eb2c54a74/library/core/src/iter/traits" "iterator.rs"
	.loc	41 2661 33 is_stmt 1
	movq	-648(%rbp), %rax
	movq	%rax, -96(%rbp)
Ltmp699:
	.loc	41 2656 13
	movq	%rax, -256(%rbp)
Ltmp700:
	.loc	41 2661 9
	movq	-256(%rbp), %rsi
	leaq	-672(%rbp), %rdi
	callq	__ZN4core4iter6traits8iterator8Iterator8try_fold17h83a7c945b3ef9599E
	andb	$1, %al
	movb	%al, -257(%rbp)
	leaq	-257(%rbp), %rdi
	leaq	l___unnamed_13(%rip), %rsi
	callq	__ZN90_$LT$core..ops..control_flow..ControlFlow$LT$B$C$C$GT$$u20$as$u20$core..cmp..PartialEq$GT$2eq17h49ecd45ddb0716a3E
Ltmp701:
	.loc	39 1763 16
	andb	$1, %al
	movb	%al, -761(%rbp)
	.loc	34 1 1
	jmp	LBB99_10
Ltmp702:
LBB99_14:
	.loc	39 1851 2
	movb	-761(%rbp), %al
	addq	$864, %rsp
	popq	%rbp
	retq
LBB99_15:
	.loc	39 0 2 is_stmt 0
	movq	-816(%rbp), %rcx
Ltmp703:
	.loc	39 1767 44 is_stmt 1
	movq	-760(%rbp), %rax
	.loc	39 1767 31 is_stmt 0
	leaq	-624(%rbp), %rdi
	movzbl	(%rax,%rcx), %esi
	callq	__ZN4core9core_simd6vector17Simd$LT$T$C$_$GT$5splat17he5d0be3bf240f513E
Ltmp704:
	.loc	39 1770 27 is_stmt 1
	movq	-760(%rbp), %rsi
	movq	-752(%rbp), %rdx
	movq	%rsi, -88(%rbp)
	movq	%rdx, -80(%rbp)
Ltmp705:
	.loc	2 18 9
	movl	$1, %edi
	leaq	l___unnamed_14(%rip), %rcx
	callq	__ZN110_$LT$core..ops..range..RangeFrom$LT$usize$GT$$u20$as$u20$core..slice..index..SliceIndex$LT$$u5b$T$u5d$$GT$$GT$5index17h7431057b8e79af9cE
	movq	-792(%rbp), %rcx
	movq	%rax, %rsi
	movq	-784(%rbp), %rax
Ltmp706:
	.loc	39 1770 26
	movq	%rsi, -72(%rbp)
	movq	%rdx, -64(%rbp)
Ltmp707:
	.loc	39 1774 5
	movq	%rcx, -600(%rbp)
	movq	%rax, -592(%rbp)
	movq	%rsi, -584(%rbp)
	movq	%rdx, -576(%rbp)
Ltmp708:
	.loc	39 1798 22
	movq	%rcx, -568(%rbp)
	movq	%rax, -560(%rbp)
	leaq	-736(%rbp), %rax
	movq	%rax, -552(%rbp)
	leaq	-640(%rbp), %rax
	movq	%rax, -544(%rbp)
	leaq	-624(%rbp), %rax
	movq	%rax, -536(%rbp)
Ltmp709:
	.loc	39 1814 17
	movq	$0, -528(%rbp)
Ltmp710:
	.loc	39 1815 22
	movb	$0, -514(%rbp)
Ltmp711:
	.loc	39 1819 5
	jmp	LBB99_17
Ltmp712:
LBB99_16:
	.loc	39 0 5 is_stmt 0
	movq	-808(%rbp), %rsi
	movq	-816(%rbp), %rdi
	.loc	39 1767 44 is_stmt 1
	leaq	l___unnamed_15(%rip), %rdx
	callq	__ZN4core9panicking18panic_bounds_check17hacb8a94866cda541E
LBB99_17:
	.loc	39 0 44 is_stmt 0
	movq	-784(%rbp), %rcx
	movq	-800(%rbp), %rax
Ltmp713:
	.loc	39 1819 11 is_stmt 1
	addq	-528(%rbp), %rax
	addq	$64, %rax
	cmpq	%rcx, %rax
	jb	LBB99_19
	movb	$0, -513(%rbp)
	jmp	LBB99_20
LBB99_19:
	.loc	39 1819 77 is_stmt 0
	movb	-514(%rbp), %al
	.loc	39 1819 76
	xorb	$-1, %al
	.loc	39 1819 11
	andb	$1, %al
	movb	%al, -513(%rbp)
LBB99_20:
	testb	$1, -513(%rbp)
	jne	LBB99_22
	.loc	39 1832 5 is_stmt 1
	jmp	LBB99_35
LBB99_22:
	.loc	39 1820 25
	leaq	-512(%rbp), %rdi
	xorl	%esi, %esi
	movl	$8, %edx
	callq	_memset
Ltmp714:
	.loc	39 1821 18
	movq	$0, -504(%rbp)
	movq	$4, -496(%rbp)
Ltmp715:
	.file	42 "/rustc/2c8cc343237b8f7d5a3c3703e3a87f2eb2c54a74/library/core/src/iter/traits" "collect.rs"
	.loc	42 273 9
	movq	-504(%rbp), %rcx
	movq	-496(%rbp), %rax
Ltmp716:
	.loc	39 1821 18
	movq	%rcx, -488(%rbp)
	movq	%rax, -480(%rbp)
LBB99_23:
	.loc	39 0 18 is_stmt 0
	leaq	-488(%rbp), %rdi
Ltmp717:
	.loc	39 1821 18
	movq	%rdi, -56(%rbp)
Ltmp718:
	.loc	27 711 9 is_stmt 1
	callq	__ZN89_$LT$core..ops..range..Range$LT$T$GT$$u20$as$u20$core..iter..range..RangeIteratorImpl$GT$9spec_next17hd74ede41c523d677E
	movq	%rdx, -464(%rbp)
	movq	%rax, -472(%rbp)
Ltmp719:
	.loc	39 1821 18
	cmpq	$0, -472(%rbp)
	jne	LBB99_25
Ltmp720:
	.loc	39 1824 18
	movq	$0, -448(%rbp)
	movq	$4, -440(%rbp)
Ltmp721:
	.loc	42 273 9
	movq	-448(%rbp), %rcx
	movq	-440(%rbp), %rax
Ltmp722:
	.loc	39 1824 18
	movq	%rcx, -432(%rbp)
	movq	%rax, -424(%rbp)
Ltmp723:
	.loc	39 1824 9 is_stmt 0
	jmp	LBB99_28
Ltmp724:
LBB99_25:
	.loc	39 1821 13 is_stmt 1
	movq	-464(%rbp), %rcx
	movq	%rcx, -832(%rbp)
	movq	%rcx, -48(%rbp)
Ltmp725:
	.loc	39 1822 35
	movq	-528(%rbp), %rax
	.loc	39 1822 39 is_stmt 0
	shlq	$4, %rcx
	.loc	39 1822 35
	addq	%rcx, %rax
	.loc	39 1822 24
	movq	%rax, -456(%rbp)
	movq	-456(%rbp), %rsi
	leaq	-568(%rbp), %rdi
	callq	__ZN4core3str7pattern13simd_contains28_$u7b$$u7b$closure$u7d$$u7d$17ha0da918f4095b486E
	movw	%ax, %cx
	movq	-832(%rbp), %rax
	movw	%cx, -818(%rbp)
	.loc	39 1822 13
	cmpq	$4, %rax
	setb	%al
	testb	$1, %al
	jne	LBB99_26
	jmp	LBB99_27
LBB99_26:
	.loc	39 0 13
	movq	-832(%rbp), %rax
	movw	-818(%rbp), %cx
	.loc	39 1822 13
	movw	%cx, -512(%rbp,%rax,2)
Ltmp726:
	.loc	39 1821 9 is_stmt 1
	jmp	LBB99_23
LBB99_27:
	.loc	39 0 9 is_stmt 0
	movq	-832(%rbp), %rdi
Ltmp727:
	.loc	39 1822 13 is_stmt 1
	leaq	l___unnamed_16(%rip), %rdx
	movl	$4, %esi
	callq	__ZN4core9panicking18panic_bounds_check17hacb8a94866cda541E
Ltmp728:
LBB99_28:
	.loc	39 0 13 is_stmt 0
	leaq	-432(%rbp), %rdi
Ltmp729:
	.loc	39 1824 18 is_stmt 1
	movq	%rdi, -40(%rbp)
Ltmp730:
	.loc	27 711 9
	callq	__ZN89_$LT$core..ops..range..Range$LT$T$GT$$u20$as$u20$core..iter..range..RangeIteratorImpl$GT$9spec_next17hd74ede41c523d677E
	movq	%rdx, -408(%rbp)
	movq	%rax, -416(%rbp)
Ltmp731:
	.loc	39 1824 18
	cmpq	$0, -416(%rbp)
	jne	LBB99_30
Ltmp732:
	.loc	39 1830 9
	movq	-528(%rbp), %rax
	addq	$64, %rax
	movq	%rax, -528(%rbp)
Ltmp733:
	.loc	39 1819 5
	jmp	LBB99_17
LBB99_30:
Ltmp734:
	.loc	39 1824 13
	movq	-408(%rbp), %rax
	movq	%rax, -840(%rbp)
	movq	%rax, -32(%rbp)
Ltmp735:
	.loc	39 1825 24
	cmpq	$4, %rax
	setb	%al
	testb	$1, %al
	jne	LBB99_31
	jmp	LBB99_32
LBB99_31:
	.loc	39 0 24 is_stmt 0
	movq	-840(%rbp), %rax
	.loc	39 1825 24
	movw	-512(%rbp,%rax,2), %ax
	movw	%ax, -842(%rbp)
	movw	%ax, -20(%rbp)
Ltmp736:
	.loc	39 1826 16 is_stmt 1
	cmpw	$0, %ax
	je	LBB99_33
	jmp	LBB99_34
Ltmp737:
LBB99_32:
	.loc	39 0 16 is_stmt 0
	movq	-840(%rbp), %rdi
	.loc	39 1825 24 is_stmt 1
	leaq	l___unnamed_17(%rip), %rdx
	movl	$4, %esi
	callq	__ZN4core9panicking18panic_bounds_check17hacb8a94866cda541E
Ltmp738:
LBB99_33:
	.loc	39 1824 9
	jmp	LBB99_28
LBB99_34:
	.loc	39 0 9 is_stmt 0
	movw	-842(%rbp), %cx
	movq	-840(%rbp), %rax
Ltmp739:
	.loc	39 1827 38 is_stmt 1
	movq	-528(%rbp), %rdx
	.loc	39 1827 42 is_stmt 0
	shlq	$4, %rax
	.loc	39 1827 38
	addq	%rax, %rdx
	.loc	39 1827 66
	movb	-514(%rbp), %al
	.loc	39 1827 27
	movq	%rdx, -400(%rbp)
	movw	%cx, -392(%rbp)
	andb	$1, %al
	movb	%al, -390(%rbp)
	movq	-400(%rbp), %rsi
	movw	-392(%rbp), %cx
	movb	-390(%rbp), %al
	leaq	-600(%rbp), %rdi
	andb	$1, %al
	movzwl	%cx, %edx
	movzbl	%al, %ecx
	callq	__ZN4core3str7pattern13simd_contains28_$u7b$$u7b$closure$u7d$$u7d$17he1f1a65a2b806c0cE
	movb	%al, %cl
	.loc	39 1827 17
	movb	-514(%rbp), %al
	orb	%cl, %al
	andb	$1, %al
	movb	%al, -514(%rbp)
	.loc	39 1826 13 is_stmt 1
	jmp	LBB99_33
Ltmp740:
LBB99_35:
	.loc	39 0 13 is_stmt 0
	movq	-784(%rbp), %rcx
	movq	-800(%rbp), %rax
	.loc	39 1832 11 is_stmt 1
	addq	-528(%rbp), %rax
	addq	$16, %rax
	cmpq	%rcx, %rax
	jb	LBB99_37
	movb	$0, -377(%rbp)
	jmp	LBB99_38
LBB99_37:
	.loc	39 1832 68 is_stmt 0
	movb	-514(%rbp), %al
	.loc	39 1832 67
	xorb	$-1, %al
	.loc	39 1832 11
	andb	$1, %al
	movb	%al, -377(%rbp)
LBB99_38:
	testb	$1, -377(%rbp)
	jne	LBB99_40
	.loc	39 0 11
	movq	-800(%rbp), %rcx
	movq	-784(%rbp), %rax
	.loc	39 1844 13 is_stmt 1
	subq	%rcx, %rax
	subq	$16, %rax
	movq	%rax, -856(%rbp)
	movq	%rax, -16(%rbp)
Ltmp741:
	.loc	39 1845 16
	movq	%rax, -352(%rbp)
	movq	-352(%rbp), %rsi
	leaq	-568(%rbp), %rdi
	callq	__ZN4core3str7pattern13simd_contains28_$u7b$$u7b$closure$u7d$$u7d$17ha0da918f4095b486E
	movw	%ax, -844(%rbp)
	movw	%ax, -2(%rbp)
Ltmp742:
	.loc	39 1846 8
	cmpw	$0, %ax
	je	LBB99_43
	jmp	LBB99_44
Ltmp743:
LBB99_40:
	.loc	39 1833 31
	movq	-528(%rbp), %rax
	.loc	39 1833 20 is_stmt 0
	movq	%rax, -376(%rbp)
	movq	-376(%rbp), %rsi
	leaq	-568(%rbp), %rdi
	callq	__ZN4core3str7pattern13simd_contains28_$u7b$$u7b$closure$u7d$$u7d$17ha0da918f4095b486E
	movw	%ax, -858(%rbp)
	movw	%ax, -18(%rbp)
Ltmp744:
	.loc	39 1834 12 is_stmt 1
	cmpw	$0, %ax
	jne	LBB99_42
LBB99_41:
	.loc	39 1837 9
	movq	-528(%rbp), %rax
	addq	$16, %rax
	movq	%rax, -528(%rbp)
Ltmp745:
	.loc	39 1832 5
	jmp	LBB99_35
LBB99_42:
	.loc	39 0 5 is_stmt 0
	movw	-858(%rbp), %cx
Ltmp746:
	.loc	39 1835 34 is_stmt 1
	movq	-528(%rbp), %rdx
	.loc	39 1835 43 is_stmt 0
	movb	-514(%rbp), %al
	.loc	39 1835 23
	movq	%rdx, -368(%rbp)
	movw	%cx, -360(%rbp)
	andb	$1, %al
	movb	%al, -358(%rbp)
	movq	-368(%rbp), %rsi
	movw	-360(%rbp), %cx
	movb	-358(%rbp), %al
	leaq	-600(%rbp), %rdi
	andb	$1, %al
	movzwl	%cx, %edx
	movzbl	%al, %ecx
	callq	__ZN4core3str7pattern13simd_contains28_$u7b$$u7b$closure$u7d$$u7d$17he1f1a65a2b806c0cE
	movb	%al, %cl
	.loc	39 1835 13
	movb	-514(%rbp), %al
	orb	%cl, %al
	andb	$1, %al
	movb	%al, -514(%rbp)
	.loc	39 1834 9 is_stmt 1
	jmp	LBB99_41
Ltmp747:
LBB99_43:
	.loc	39 1850 10
	movb	-514(%rbp), %al
	.loc	39 1850 5 is_stmt 0
	andb	$1, %al
	movb	%al, -761(%rbp)
Ltmp748:
	.loc	39 1851 2 is_stmt 1
	jmp	LBB99_14
LBB99_44:
	.loc	39 0 2 is_stmt 0
	movw	-844(%rbp), %cx
	movq	-856(%rbp), %rdx
Ltmp749:
	.loc	39 1847 39 is_stmt 1
	movb	-514(%rbp), %al
	.loc	39 1847 19 is_stmt 0
	movq	%rdx, -344(%rbp)
	movw	%cx, -336(%rbp)
	andb	$1, %al
	movb	%al, -334(%rbp)
	movq	-344(%rbp), %rsi
	movw	-336(%rbp), %cx
	movb	-334(%rbp), %al
	leaq	-600(%rbp), %rdi
	andb	$1, %al
	movzwl	%cx, %edx
	movzbl	%al, %ecx
	callq	__ZN4core3str7pattern13simd_contains28_$u7b$$u7b$closure$u7d$$u7d$17he1f1a65a2b806c0cE
	movb	%al, %cl
	.loc	39 1847 9
	movb	-514(%rbp), %al
	orb	%cl, %al
	andb	$1, %al
	movb	%al, -514(%rbp)
	.loc	39 1846 5 is_stmt 1
	jmp	LBB99_43
Ltmp750:
Lfunc_end99:
	.cfi_endproc

	.p2align	4, 0x90
__ZN4core3str7pattern13simd_contains28_$u7b$$u7b$closure$u7d$$u7d$17ha0da918f4095b486E:
Lfunc_begin100:
	.loc	39 1798 0
	.cfi_startproc
	pushq	%rbp
	.cfi_def_cfa_offset 16
	.cfi_offset %rbp, -16
	movq	%rsp, %rbp
	.cfi_def_cfa_register %rbp
	subq	$768, %rsp
	movq	%rdi, -632(%rbp)
	movq	%rsi, -624(%rbp)
Ltmp751:
	.loc	39 1801 33 prologue_end
	movq	(%rdi), %rax
	movq	8(%rdi), %rcx
	movq	%rax, -616(%rbp)
	movq	%rcx, -608(%rbp)
Ltmp752:
	.loc	35 477 9
	movq	%rax, -600(%rbp)
Ltmp753:
	.loc	39 1801 55
	movq	%rsi, -592(%rbp)
Ltmp754:
	.loc	3 932 18
	movq	%rax, -584(%rbp)
	.loc	3 932 30 is_stmt 0
	movq	%rsi, -576(%rbp)
Ltmp755:
	.loc	3 473 18 is_stmt 1
	addq	%rsi, %rax
	movq	%rax, -568(%rbp)
	movq	-568(%rbp), %rcx
	movq	%rcx, -560(%rbp)
Ltmp756:
	.loc	3 61 9
	movq	%rcx, -552(%rbp)
Ltmp757:
	.loc	3 1257 33
	movq	%rcx, -544(%rbp)
Ltmp758:
	.loc	4 1250 29
	movq	%rcx, -536(%rbp)
	leaq	-720(%rbp), %rax
	.loc	4 1250 47 is_stmt 0
	movq	%rax, -528(%rbp)
	movq	%rax, -520(%rbp)
Ltmp759:
	.file	43 "/rustc/2c8cc343237b8f7d5a3c3703e3a87f2eb2c54a74/library/core/src" "intrinsics.rs"
	.loc	43 2372 9 is_stmt 1
	movq	(%rcx), %rax
	movq	8(%rcx), %rcx
	movq	%rcx, -712(%rbp)
	movq	%rax, -720(%rbp)
Ltmp760:
	.loc	4 1251 9
	movaps	-720(%rbp), %xmm1
	movaps	%xmm1, -512(%rbp)
Ltmp761:
	.loc	30 627 38
	movaps	%xmm1, -496(%rbp)
Ltmp762:
	.loc	13 89 9
	movaps	%xmm1, -480(%rbp)
Ltmp763:
	.loc	39 1804 13
	movq	(%rdi), %rax
	movq	8(%rdi), %rcx
	movq	%rax, -464(%rbp)
	movq	%rcx, -456(%rbp)
Ltmp764:
	.loc	35 477 9
	movq	%rax, -448(%rbp)
Ltmp765:
	.loc	39 1804 35
	movq	%rsi, -440(%rbp)
Ltmp766:
	.loc	3 932 18
	movq	%rax, -432(%rbp)
	.loc	3 932 30 is_stmt 0
	movq	%rsi, -424(%rbp)
Ltmp767:
	.loc	3 473 18 is_stmt 1
	addq	%rsi, %rax
	movq	%rax, -416(%rbp)
	movq	-416(%rbp), %rax
	movq	%rax, -408(%rbp)
Ltmp768:
	.loc	39 1804 44
	movq	16(%rdi), %rcx
	movq	(%rcx), %rcx
	movq	%rcx, -400(%rbp)
Ltmp769:
	.loc	3 932 18
	movq	%rax, -392(%rbp)
	.loc	3 932 30 is_stmt 0
	movq	%rcx, -384(%rbp)
Ltmp770:
	.loc	3 473 18 is_stmt 1
	addq	%rcx, %rax
	movq	%rax, -376(%rbp)
	movq	-376(%rbp), %rcx
	movq	%rcx, -368(%rbp)
Ltmp771:
	.loc	3 61 9
	movq	%rcx, -360(%rbp)
Ltmp772:
	.loc	3 1257 33
	movq	%rcx, -352(%rbp)
Ltmp773:
	.loc	4 1250 29
	movq	%rcx, -344(%rbp)
	leaq	-704(%rbp), %rax
	.loc	4 1250 47 is_stmt 0
	movq	%rax, -336(%rbp)
	movq	%rax, -328(%rbp)
Ltmp774:
	.loc	43 2372 9 is_stmt 1
	movq	(%rcx), %rax
	movq	8(%rcx), %rcx
	movq	%rcx, -696(%rbp)
	movq	%rax, -704(%rbp)
Ltmp775:
	.loc	4 1251 9
	movaps	-704(%rbp), %xmm0
	movaps	%xmm0, -320(%rbp)
Ltmp776:
	.loc	30 627 38
	movaps	%xmm0, -304(%rbp)
Ltmp777:
	.loc	13 89 9
	movaps	%xmm0, -288(%rbp)
Ltmp778:
	.loc	39 1806 30
	movaps	%xmm1, -272(%rbp)
	.loc	39 1806 40 is_stmt 0
	movq	24(%rdi), %rax
	movaps	(%rax), %xmm2
	movaps	%xmm2, -256(%rbp)
Ltmp779:
	.file	44 "/rustc/2c8cc343237b8f7d5a3c3703e3a87f2eb2c54a74/library/core/src/../../portable-simd/crates/core_simd/src" "eq.rs"
	.loc	44 30 51 is_stmt 1
	pcmpeqb	%xmm2, %xmm1
	movaps	%xmm1, -240(%rbp)
	movaps	-240(%rbp), %xmm1
	movaps	%xmm1, -224(%rbp)
Ltmp780:
	.file	45 "/rustc/2c8cc343237b8f7d5a3c3703e3a87f2eb2c54a74/library/core/src/../../portable-simd/crates/core_simd/src" "masks.rs"
	.loc	45 164 59
	movaps	%xmm1, -208(%rbp)
Ltmp781:
	.loc	10 132 9
	movaps	%xmm1, -688(%rbp)
Ltmp782:
	.loc	45 164 18
	movaps	-688(%rbp), %xmm1
	movaps	%xmm1, -768(%rbp)
Ltmp783:
	.loc	39 1807 29
	movaps	%xmm0, -192(%rbp)
	.loc	39 1807 39 is_stmt 0
	movq	32(%rdi), %rax
	movaps	(%rax), %xmm1
	movaps	%xmm1, -176(%rbp)
Ltmp784:
	.loc	44 30 51 is_stmt 1
	pcmpeqb	%xmm1, %xmm0
	movdqa	%xmm0, -160(%rbp)
	movdqa	-160(%rbp), %xmm0
	movdqa	%xmm0, -144(%rbp)
Ltmp785:
	.loc	45 164 59
	movdqa	%xmm0, -128(%rbp)
Ltmp786:
	.loc	10 132 9
	movdqa	%xmm0, -672(%rbp)
Ltmp787:
	.loc	45 164 18
	movdqa	-672(%rbp), %xmm0
	movdqa	%xmm0, -752(%rbp)
Ltmp788:
	.loc	39 1808 20
	movdqa	-768(%rbp), %xmm0
	movdqa	%xmm0, -112(%rbp)
	.loc	39 1808 36 is_stmt 0
	movdqa	-752(%rbp), %xmm1
	movdqa	%xmm1, -96(%rbp)
Ltmp789:
	.loc	45 336 14 is_stmt 1
	movdqa	%xmm0, -80(%rbp)
	.loc	45 336 23 is_stmt 0
	movdqa	%xmm1, -64(%rbp)
Ltmp790:
	.loc	10 280 23 is_stmt 1
	pand	%xmm1, %xmm0
	movdqa	%xmm0, -48(%rbp)
	movdqa	-48(%rbp), %xmm0
	.loc	10 280 18 is_stmt 0
	movdqa	%xmm0, -656(%rbp)
Ltmp791:
	.loc	45 336 9 is_stmt 1
	movdqa	-656(%rbp), %xmm0
	movdqa	%xmm0, -736(%rbp)
Ltmp792:
	.loc	39 1809 20
	movdqa	-736(%rbp), %xmm0
	movdqa	%xmm0, -32(%rbp)
	leaq	-32(%rbp), %rdi
	callq	__ZN114_$LT$core..core_simd..masks..Mask$LT$T$C$16_usize$GT$$u20$as$u20$core..core_simd..masks..to_bitmask..ToBitMask$GT$10to_bitmask17h857c091087078263E
	movw	%ax, -2(%rbp)
Ltmp793:
	.loc	39 1812 6
	addq	$768, %rsp
	popq	%rbp
	retq
Ltmp794:
Lfunc_end100:
	.cfi_endproc

	.p2align	4, 0x90
__ZN4core3str7pattern13simd_contains28_$u7b$$u7b$closure$u7d$$u7d$17hb9c54bea20cd7151E:
Lfunc_begin101:
	.loc	39 1753 0
	.cfi_startproc
	pushq	%rbp
	.cfi_def_cfa_offset 16
	.cfi_offset %rbp, -16
	movq	%rsp, %rbp
	.cfi_def_cfa_register %rbp
	subq	$48, %rsp
	movq	%rdi, -48(%rbp)
	movq	%rdi, -24(%rbp)
	movq	%rsi, -16(%rbp)
Ltmp795:
	.loc	39 1753 96 prologue_end
	movq	(%rsi), %rax
	movq	%rax, -40(%rbp)
	movq	%rax, -8(%rbp)
Ltmp796:
	.loc	39 1753 101 is_stmt 0
	movq	8(%rdi), %rcx
	movq	%rcx, -32(%rbp)
	cmpq	%rcx, %rax
	setb	%al
	testb	$1, %al
	jne	LBB101_1
	jmp	LBB101_2
LBB101_1:
	.loc	39 0 101
	movq	-48(%rbp), %rcx
	movq	-40(%rbp), %rdx
	.loc	39 1753 101
	movq	(%rcx), %rax
	movb	(%rax,%rdx), %al
	.loc	39 1753 116
	movq	16(%rcx), %rcx
	.loc	39 1753 101
	cmpb	(%rcx), %al
	setne	%al
Ltmp797:
	.loc	39 1753 127
	andb	$1, %al
	movzbl	%al, %eax
	addq	$48, %rsp
	popq	%rbp
	retq
LBB101_2:
	.loc	39 0 127
	movq	-32(%rbp), %rsi
	movq	-40(%rbp), %rdi
Ltmp798:
	.loc	39 1753 101
	leaq	l___unnamed_18(%rip), %rdx
	callq	__ZN4core9panicking18panic_bounds_check17hacb8a94866cda541E
Ltmp799:
Lfunc_end101:
	.cfi_endproc

	.p2align	4, 0x90
__ZN4core3str7pattern13simd_contains28_$u7b$$u7b$closure$u7d$$u7d$17hbac9fbd782650269E:
Lfunc_begin102:
	.loc	39 1763 0 is_stmt 1
	.cfi_startproc
	pushq	%rbp
	.cfi_def_cfa_offset 16
	.cfi_offset %rbp, -16
	movq	%rsp, %rbp
	.cfi_def_cfa_register %rbp
	subq	$48, %rsp
	movq	%rsi, -40(%rbp)
	movq	%rdx, -32(%rbp)
	movq	%rdi, -24(%rbp)
Ltmp800:
	.loc	39 1763 60 prologue_end
	leaq	-40(%rbp), %rax
	movq	%rax, -16(%rbp)
	.loc	39 1763 65 is_stmt 0
	movq	(%rdi), %rax
	movq	%rax, -8(%rbp)
Ltmp801:
	.loc	8 1531 27 is_stmt 1
	movq	-40(%rbp), %rdi
	movq	-32(%rbp), %rsi
	.loc	8 1531 34 is_stmt 0
	movq	(%rax), %rdx
	movq	8(%rax), %rcx
	.loc	8 1531 13
	callq	__ZN4core5slice3cmp81_$LT$impl$u20$core..cmp..PartialEq$LT$$u5b$B$u5d$$GT$$u20$for$u20$$u5b$A$u5d$$GT$2eq17hdaf75c64de00a2dcE
Ltmp802:
	.loc	39 1763 71 is_stmt 1
	andb	$1, %al
	movzbl	%al, %eax
	addq	$48, %rsp
	popq	%rbp
	retq
Ltmp803:
Lfunc_end102:
	.cfi_endproc

	.p2align	4, 0x90
__ZN4core3str7pattern13simd_contains28_$u7b$$u7b$closure$u7d$$u7d$17he1f1a65a2b806c0cE:
Lfunc_begin103:
	.loc	39 1774 0
	.cfi_startproc
	pushq	%rbp
	.cfi_def_cfa_offset 16
	.cfi_offset %rbp, -16
	movq	%rsp, %rbp
	.cfi_def_cfa_register %rbp
	subq	$272, %rsp
	movq	%rsi, -256(%rbp)
	movq	%rdi, -248(%rbp)
	movb	%cl, %al
	movw	%dx, %cx
	movw	%cx, -238(%rbp)
	movq	%rdi, -168(%rbp)
	movq	%rsi, -160(%rbp)
	movw	%cx, -148(%rbp)
	movb	%al, %cl
	andb	$1, %cl
	movb	%cl, -145(%rbp)
Ltmp804:
	.loc	39 1775 12 prologue_end
	testb	$1, %al
	jne	LBB103_2
	.loc	39 0 12 is_stmt 0
	movw	-238(%rbp), %ax
	.loc	39 1780 24 is_stmt 1
	movw	%ax, -234(%rbp)
Ltmp805:
	.loc	39 1782 9
	jmp	LBB103_4
Ltmp806:
LBB103_2:
	.loc	39 1776 20
	movb	$0, -235(%rbp)
LBB103_3:
	.loc	39 1796 6
	movb	-235(%rbp), %al
	andb	$1, %al
	movzbl	%al, %eax
	addq	$272, %rsp
	popq	%rbp
	retq
LBB103_4:
Ltmp807:
	.loc	39 1782 15
	cmpw	$0, -234(%rbp)
	jne	LBB103_6
	.loc	39 1795 16
	movb	$0, -235(%rbp)
	.loc	39 1795 9 is_stmt 0
	jmp	LBB103_9
LBB103_6:
	.loc	39 0 9
	movq	-248(%rbp), %rcx
	movq	-256(%rbp), %rax
	.loc	39 1783 28 is_stmt 1
	movw	-234(%rbp), %dx
	movw	%dx, -144(%rbp)
Ltmp808:
	.loc	28 152 13
	bsfw	%dx, %dx
	movw	$16, %si
	cmovew	%si, %dx
	movw	%dx, -142(%rbp)
	movzwl	-142(%rbp), %edx
	movl	%edx, -268(%rbp)
	movl	%edx, -140(%rbp)
Ltmp809:
	.loc	39 1784 32
	movl	%edx, %edx
	.loc	39 1784 26 is_stmt 0
	addq	%rdx, %rax
	addq	$1, %rax
	movq	%rax, -136(%rbp)
Ltmp810:
	.loc	39 1788 27 is_stmt 1
	movq	(%rcx), %rdx
	movq	8(%rcx), %rcx
	movq	%rdx, -128(%rbp)
	movq	%rcx, -120(%rbp)
	.loc	39 1788 50 is_stmt 0
	movq	%rax, -232(%rbp)
Ltmp811:
	.loc	35 405 20 is_stmt 1
	movq	-232(%rbp), %rsi
	movq	%rsi, -112(%rbp)
	.loc	35 405 40 is_stmt 0
	movq	%rdx, -104(%rbp)
	movq	%rcx, -96(%rbp)
Ltmp812:
	.loc	2 483 31 is_stmt 1
	movq	%rdx, -88(%rbp)
	movq	%rcx, -80(%rbp)
Ltmp813:
	.loc	3 1630 18
	movq	%rdx, -72(%rbp)
	movq	%rcx, -64(%rbp)
Ltmp814:
	.loc	5 98 14
	movq	%rdx, -200(%rbp)
	movq	%rcx, -192(%rbp)
	movq	-192(%rbp), %rax
Ltmp815:
	.loc	2 483 18
	movq	%rsi, -216(%rbp)
	movq	%rax, -208(%rbp)
	movq	-216(%rbp), %rdi
	movq	-208(%rbp), %rsi
	callq	__ZN106_$LT$core..ops..range..Range$LT$usize$GT$$u20$as$u20$core..slice..index..SliceIndex$LT$$u5b$T$u5d$$GT$$GT$13get_unchecked17h88cb10938717fcc3E
	movq	%rax, %rcx
	movq	-248(%rbp), %rax
	movq	%rcx, -264(%rbp)
	movq	%rdx, %rcx
	movq	-264(%rbp), %rdx
Ltmp816:
	.loc	39 1788 27
	movq	%rdx, -56(%rbp)
	movq	%rcx, -48(%rbp)
	.loc	39 1788 76 is_stmt 0
	movq	24(%rax), %rax
	.loc	39 1788 74
	movq	%rax, -224(%rbp)
Ltmp817:
	.loc	35 405 20 is_stmt 1
	movq	-224(%rbp), %rax
	movq	%rax, -40(%rbp)
	.loc	35 405 40 is_stmt 0
	movq	%rdx, -32(%rbp)
	movq	%rcx, -24(%rbp)
Ltmp818:
	.loc	2 445 18 is_stmt 1
	movq	$0, -184(%rbp)
	movq	%rax, -176(%rbp)
	movq	-184(%rbp), %rdi
	movq	-176(%rbp), %rsi
	callq	__ZN106_$LT$core..ops..range..Range$LT$usize$GT$$u20$as$u20$core..slice..index..SliceIndex$LT$$u5b$T$u5d$$GT$$GT$13get_unchecked17h88cb10938717fcc3E
	movq	%rax, %rdi
	movq	-248(%rbp), %rax
	movq	%rdx, %rsi
Ltmp819:
	.loc	35 405 18
	movq	%rdi, -16(%rbp)
	movq	%rsi, -8(%rbp)
Ltmp820:
	.loc	39 1789 40
	movq	16(%rax), %rdx
	movq	24(%rax), %rcx
	.loc	39 1789 20 is_stmt 0
	callq	__ZN4core3str7pattern14small_slice_eq17he1a9a20830275de4E
	testb	$1, %al
	jne	LBB103_8
Ltmp821:
	.loc	39 0 20
	movl	-268(%rbp), %eax
	.loc	39 1793 22 is_stmt 1
	movw	%ax, %cx
	andw	$15, %cx
	movw	$1, %ax
	shlw	%cl, %ax
	.loc	39 1793 21 is_stmt 0
	xorw	$-1, %ax
	.loc	39 1793 13
	andw	-234(%rbp), %ax
	movw	%ax, -234(%rbp)
Ltmp822:
	.loc	39 1782 9 is_stmt 1
	jmp	LBB103_4
LBB103_8:
Ltmp823:
	.loc	39 1790 28
	movb	$1, -235(%rbp)
Ltmp824:
LBB103_9:
	.loc	34 1 1
	jmp	LBB103_3
Ltmp825:
Lfunc_end103:
	.cfi_endproc

	.p2align	4, 0x90
__ZN4core3str7pattern14TwoWaySearcher4next17h734b8203eaaa92c7E:
Lfunc_begin104:
	.loc	39 1411 0
	.cfi_startproc
	pushq	%rbp
	.cfi_def_cfa_offset 16
	.cfi_offset %rbp, -16
	movq	%rsp, %rbp
	.cfi_def_cfa_register %rbp
	subq	$480, %rsp
	movq	%r9, -416(%rbp)
	movq	%r8, -408(%rbp)
	movq	%rcx, -400(%rbp)
	movq	%rdx, -392(%rbp)
	movq	%rsi, -384(%rbp)
	movq	%rdi, -376(%rbp)
	movq	%rdi, -368(%rbp)
	movb	16(%rbp), %al
	movb	%al, -353(%rbp)
	movq	%rsi, -208(%rbp)
	movq	%rdx, -200(%rbp)
	movq	%rcx, -192(%rbp)
	movq	%r8, -184(%rbp)
	movq	%r9, -176(%rbp)
	andb	$1, %al
	movb	%al, -161(%rbp)
Ltmp826:
	.loc	39 1416 23 prologue_end
	movq	32(%rsi), %rax
	movq	%rax, -352(%rbp)
	movq	%rax, -160(%rbp)
Ltmp827:
	.loc	39 1417 27
	subq	$1, %r9
	movq	%r9, -344(%rbp)
	movq	%r9, -152(%rbp)
LBB104_1:
	.loc	39 0 27 is_stmt 0
	movq	-400(%rbp), %rdx
	movq	-392(%rbp), %rsi
	movq	-384(%rbp), %rax
	movq	-344(%rbp), %rdi
Ltmp828:
	.loc	39 1422 35 is_stmt 1
	movq	%rsi, -144(%rbp)
	movq	%rdx, -136(%rbp)
	.loc	39 1422 48 is_stmt 0
	addq	32(%rax), %rdi
	movq	%rdi, -128(%rbp)
Ltmp829:
	.loc	35 343 9 is_stmt 1
	callq	__ZN75_$LT$usize$u20$as$u20$core..slice..index..SliceIndex$LT$$u5b$T$u5d$$GT$$GT$3get17h94f19cb7d6a18055E
	movq	%rax, -336(%rbp)
Ltmp830:
	.loc	39 1422 35
	movq	-336(%rbp), %rdx
	movl	$1, %eax
	xorl	%ecx, %ecx
	cmpq	$0, %rdx
	cmoveq	%rcx, %rax
	.loc	39 1422 29 is_stmt 0
	cmpq	$0, %rax
	jne	LBB104_3
	.loc	39 0 29
	movq	-352(%rbp), %rsi
	movq	-376(%rbp), %rdi
	movq	-384(%rbp), %rax
	movq	-400(%rbp), %rcx
	.loc	39 1425 21 is_stmt 1
	movq	%rcx, 32(%rax)
	.loc	39 1426 50
	movq	32(%rax), %rdx
	.loc	39 1426 28 is_stmt 0
	callq	__ZN84_$LT$core..str..pattern..MatchOnly$u20$as$u20$core..str..pattern..TwoWayStrategy$GT$9rejecting17h932f94d22f9c0f4aE
	.loc	34 1 1 is_stmt 1
	jmp	LBB104_9
LBB104_3:
	.loc	39 1423 23
	movq	-336(%rbp), %rax
	movb	(%rax), %al
	movb	%al, -417(%rbp)
	movb	%al, -114(%rbp)
Ltmp831:
	.loc	39 1423 29 is_stmt 0
	movb	%al, -113(%rbp)
Ltmp832:
	.loc	39 1430 16 is_stmt 1
	callq	__ZN84_$LT$core..str..pattern..MatchOnly$u20$as$u20$core..str..pattern..TwoWayStrategy$GT$16use_early_reject17hc81431573d6e2501E
	testb	$1, %al
	jne	LBB104_5
	movb	$0, -321(%rbp)
	jmp	LBB104_6
LBB104_5:
	.loc	39 0 16 is_stmt 0
	movq	-352(%rbp), %rax
	movq	-384(%rbp), %rcx
	.loc	39 1430 41
	cmpq	32(%rcx), %rax
	setne	%al
	.loc	39 1430 16
	andb	$1, %al
	movb	%al, -321(%rbp)
LBB104_6:
	testb	$1, -321(%rbp)
	jne	LBB104_8
	.loc	39 0 16
	movb	-417(%rbp), %cl
	movq	-384(%rbp), %rax
	.loc	39 1435 17 is_stmt 1
	movq	%rax, -112(%rbp)
	.loc	39 1435 39 is_stmt 0
	movb	%cl, -97(%rbp)
Ltmp833:
	.loc	39 1402 10 is_stmt 1
	movq	24(%rax), %rax
	.loc	39 1402 27 is_stmt 0
	andb	$63, %cl
	.loc	39 1402 26
	movzbl	%cl, %ecx
	.loc	39 1402 9
	andq	$63, %rcx
	shrq	%cl, %rax
	andq	$1, %rax
	cmpq	$0, %rax
	setne	%al
Ltmp834:
	.loc	39 1435 16 is_stmt 1
	xorb	$-1, %al
	testb	$1, %al
	jne	LBB104_11
	jmp	LBB104_10
LBB104_8:
	.loc	39 0 16 is_stmt 0
	movq	-352(%rbp), %rsi
	movq	-376(%rbp), %rdi
	movq	-384(%rbp), %rax
	.loc	39 1431 46 is_stmt 1
	movq	32(%rax), %rdx
	.loc	39 1431 24 is_stmt 0
	callq	__ZN84_$LT$core..str..pattern..MatchOnly$u20$as$u20$core..str..pattern..TwoWayStrategy$GT$9rejecting17h932f94d22f9c0f4aE
Ltmp835:
LBB104_9:
	.loc	39 0 24
	movq	-368(%rbp), %rax
	.loc	39 1479 6 is_stmt 1
	addq	$480, %rsp
	popq	%rbp
	retq
LBB104_10:
	.loc	39 0 6 is_stmt 0
	movb	-353(%rbp), %al
Ltmp836:
	.loc	39 1445 20 is_stmt 1
	testb	$1, %al
	jne	LBB104_16
	jmp	LBB104_15
LBB104_11:
	.loc	39 0 20 is_stmt 0
	movb	-353(%rbp), %al
	movq	-384(%rbp), %rcx
	movq	-416(%rbp), %rdx
	.loc	39 1436 17 is_stmt 1
	addq	32(%rcx), %rdx
	movq	%rdx, 32(%rcx)
	.loc	39 1437 20
	xorb	$-1, %al
	testb	$1, %al
	jne	LBB104_13
LBB104_12:
	.loc	34 1 1
	jmp	LBB104_14
LBB104_13:
	.loc	34 0 1 is_stmt 0
	movq	-384(%rbp), %rax
	.loc	39 1438 21 is_stmt 1
	movq	$0, 48(%rax)
	.loc	39 1437 17
	jmp	LBB104_12
Ltmp837:
LBB104_14:
	.loc	34 1 1
	jmp	LBB104_1
LBB104_15:
	.loc	34 0 1 is_stmt 0
	movq	-384(%rbp), %rax
Ltmp838:
	.loc	39 1445 66 is_stmt 1
	movq	(%rax), %rdi
	movq	%rdi, -96(%rbp)
	.loc	39 1445 81 is_stmt 0
	movq	48(%rax), %rsi
	movq	%rsi, -88(%rbp)
Ltmp839:
	.loc	8 1276 5 is_stmt 1
	movq	%rdi, -80(%rbp)
	.loc	8 1276 12 is_stmt 0
	movq	%rsi, -72(%rbp)
Ltmp840:
	.loc	8 803 13 is_stmt 1
	callq	__ZN4core3cmp6max_by17h5ca17a86d2767e9eE
	movq	%rax, -320(%rbp)
Ltmp841:
	.loc	39 1445 17
	jmp	LBB104_17
LBB104_16:
	.loc	39 0 17 is_stmt 0
	movq	-384(%rbp), %rax
	.loc	39 1445 34
	movq	(%rax), %rax
	movq	%rax, -320(%rbp)
LBB104_17:
	.loc	39 0 34
	movq	-416(%rbp), %rax
Ltmp842:
	.loc	39 1446 22 is_stmt 1
	movq	-320(%rbp), %rcx
	movq	%rcx, -312(%rbp)
	movq	%rax, -304(%rbp)
Ltmp843:
	.loc	42 273 9
	movq	-312(%rbp), %rcx
	movq	-304(%rbp), %rax
Ltmp844:
	.loc	39 1446 22
	movq	%rcx, -296(%rbp)
	movq	%rax, -288(%rbp)
LBB104_18:
	.loc	39 0 22 is_stmt 0
	leaq	-296(%rbp), %rdi
Ltmp845:
	.loc	39 1446 22
	movq	%rdi, -64(%rbp)
Ltmp846:
	.loc	27 711 9 is_stmt 1
	callq	__ZN89_$LT$core..ops..range..Range$LT$T$GT$$u20$as$u20$core..iter..range..RangeIteratorImpl$GT$9spec_next17hd74ede41c523d677E
	movq	%rdx, -272(%rbp)
	movq	%rax, -280(%rbp)
Ltmp847:
	.loc	39 1446 22
	cmpq	$0, -280(%rbp)
	jne	LBB104_20
Ltmp848:
	.loc	39 0 22 is_stmt 0
	movb	-353(%rbp), %al
	.loc	39 1457 28 is_stmt 1
	testb	$1, %al
	jne	LBB104_31
	jmp	LBB104_30
LBB104_20:
	.loc	39 0 28 is_stmt 0
	movq	-416(%rbp), %rcx
Ltmp849:
	.loc	39 1446 17 is_stmt 1
	movq	-272(%rbp), %rax
	movq	%rax, -432(%rbp)
	movq	%rax, -56(%rbp)
Ltmp850:
	.loc	39 1447 20
	cmpq	%rcx, %rax
	setb	%al
	testb	$1, %al
	jne	LBB104_21
	jmp	LBB104_22
LBB104_21:
	.loc	39 0 20 is_stmt 0
	movq	-400(%rbp), %rcx
	movq	-384(%rbp), %rdx
	movq	-432(%rbp), %rax
	movq	-408(%rbp), %rsi
	.loc	39 1447 20
	movb	(%rsi,%rax), %sil
	movb	%sil, -441(%rbp)
	.loc	39 1447 42
	addq	32(%rdx), %rax
	movq	%rax, -440(%rbp)
	.loc	39 1447 33
	cmpq	%rcx, %rax
	setb	%al
	testb	$1, %al
	jne	LBB104_23
	jmp	LBB104_24
LBB104_22:
	.loc	39 0 33
	movq	-416(%rbp), %rsi
	movq	-432(%rbp), %rdi
	.loc	39 1447 20
	leaq	l___unnamed_19(%rip), %rdx
	callq	__ZN4core9panicking18panic_bounds_check17hacb8a94866cda541E
LBB104_23:
	.loc	39 0 20
	movb	-441(%rbp), %al
	movq	-392(%rbp), %rcx
	movq	-440(%rbp), %rdx
	.loc	39 1447 20
	cmpb	(%rcx,%rdx), %al
	jne	LBB104_26
	jmp	LBB104_25
LBB104_24:
	.loc	39 0 20
	movq	-400(%rbp), %rsi
	movq	-440(%rbp), %rdi
	.loc	39 1447 33
	leaq	l___unnamed_20(%rip), %rdx
	callq	__ZN4core9panicking18panic_bounds_check17hacb8a94866cda541E
Ltmp851:
LBB104_25:
	.loc	39 1446 13 is_stmt 1
	jmp	LBB104_18
LBB104_26:
	.loc	39 0 13 is_stmt 0
	movb	-353(%rbp), %al
	movq	-384(%rbp), %rcx
	movq	-432(%rbp), %rdx
Ltmp852:
	.loc	39 1448 38 is_stmt 1
	subq	(%rcx), %rdx
	addq	$1, %rdx
	.loc	39 1448 21 is_stmt 0
	addq	32(%rcx), %rdx
	movq	%rdx, 32(%rcx)
	.loc	39 1449 24 is_stmt 1
	xorb	$-1, %al
	testb	$1, %al
	jne	LBB104_28
Ltmp853:
LBB104_27:
	.loc	34 1 1
	jmp	LBB104_29
LBB104_28:
	.loc	34 0 1 is_stmt 0
	movq	-384(%rbp), %rax
Ltmp854:
	.loc	39 1450 25 is_stmt 1
	movq	$0, 48(%rax)
	.loc	39 1449 21
	jmp	LBB104_27
Ltmp855:
LBB104_29:
	.loc	34 1 1
	jmp	LBB104_14
LBB104_30:
	.loc	34 0 1 is_stmt 0
	movq	-384(%rbp), %rax
Ltmp856:
	.loc	39 1457 53 is_stmt 1
	movq	48(%rax), %rax
	movq	%rax, -264(%rbp)
	.loc	39 1457 25 is_stmt 0
	jmp	LBB104_32
LBB104_31:
	.loc	39 1457 42
	movq	$0, -264(%rbp)
LBB104_32:
	.loc	39 0 42
	movq	-384(%rbp), %rax
Ltmp857:
	.loc	39 1458 23 is_stmt 1
	movq	-264(%rbp), %rcx
	.loc	39 1458 30 is_stmt 0
	movq	(%rax), %rax
	.loc	39 1458 22
	movq	%rcx, -256(%rbp)
	movq	%rax, -248(%rbp)
Ltmp858:
	.loc	41 3183 18 is_stmt 1
	movq	-256(%rbp), %rdi
	movq	-248(%rbp), %rsi
	.loc	41 3183 9 is_stmt 0
	callq	__ZN4core4iter8adapters3rev12Rev$LT$T$GT$3new17hd5e629d143a140f8E
	movq	%rax, -48(%rbp)
	movq	%rdx, -40(%rbp)
Ltmp859:
	.loc	39 1458 22 is_stmt 1
	movq	%rax, -240(%rbp)
	movq	%rdx, -232(%rbp)
LBB104_33:
	.loc	39 0 22 is_stmt 0
	leaq	-240(%rbp), %rdi
Ltmp860:
	.loc	39 1458 22
	movq	%rdi, -32(%rbp)
Ltmp861:
	.file	46 "/rustc/2c8cc343237b8f7d5a3c3703e3a87f2eb2c54a74/library/core/src/iter/adapters" "rev.rs"
	.loc	46 33 9 is_stmt 1
	movq	%rdi, -24(%rbp)
Ltmp862:
	.loc	27 819 9
	callq	__ZN89_$LT$core..ops..range..Range$LT$T$GT$$u20$as$u20$core..iter..range..RangeIteratorImpl$GT$14spec_next_back17haba380493f0e52e3E
	movq	%rdx, -216(%rbp)
	movq	%rax, -224(%rbp)
Ltmp863:
	.loc	39 1458 22
	cmpq	$0, -224(%rbp)
	jne	LBB104_35
Ltmp864:
	.loc	39 0 22 is_stmt 0
	movb	-353(%rbp), %al
	movq	-384(%rbp), %rcx
	movq	-416(%rbp), %rdx
	.loc	39 1469 29 is_stmt 1
	movq	32(%rcx), %rsi
	movq	%rsi, -456(%rbp)
	movq	%rsi, -8(%rbp)
Ltmp865:
	.loc	39 1472 13
	addq	32(%rcx), %rdx
	movq	%rdx, 32(%rcx)
	.loc	39 1473 16
	xorb	$-1, %al
	testb	$1, %al
	jne	LBB104_45
	jmp	LBB104_44
Ltmp866:
LBB104_35:
	.loc	39 0 16 is_stmt 0
	movq	-416(%rbp), %rcx
Ltmp867:
	.loc	39 1458 17 is_stmt 1
	movq	-216(%rbp), %rax
	movq	%rax, -464(%rbp)
	movq	%rax, -16(%rbp)
Ltmp868:
	.loc	39 1459 20
	cmpq	%rcx, %rax
	setb	%al
	testb	$1, %al
	jne	LBB104_36
	jmp	LBB104_37
LBB104_36:
	.loc	39 0 20 is_stmt 0
	movq	-400(%rbp), %rcx
	movq	-384(%rbp), %rdx
	movq	-464(%rbp), %rax
	movq	-408(%rbp), %rsi
	.loc	39 1459 20
	movb	(%rsi,%rax), %sil
	movb	%sil, -473(%rbp)
	.loc	39 1459 42
	addq	32(%rdx), %rax
	movq	%rax, -472(%rbp)
	.loc	39 1459 33
	cmpq	%rcx, %rax
	setb	%al
	testb	$1, %al
	jne	LBB104_38
	jmp	LBB104_39
LBB104_37:
	.loc	39 0 33
	movq	-416(%rbp), %rsi
	movq	-464(%rbp), %rdi
	.loc	39 1459 20
	leaq	l___unnamed_21(%rip), %rdx
	callq	__ZN4core9panicking18panic_bounds_check17hacb8a94866cda541E
LBB104_38:
	.loc	39 0 20
	movb	-473(%rbp), %al
	movq	-392(%rbp), %rcx
	movq	-472(%rbp), %rdx
	.loc	39 1459 20
	cmpb	(%rcx,%rdx), %al
	jne	LBB104_41
	jmp	LBB104_40
LBB104_39:
	.loc	39 0 20
	movq	-400(%rbp), %rsi
	movq	-472(%rbp), %rdi
	.loc	39 1459 33
	leaq	l___unnamed_22(%rip), %rdx
	callq	__ZN4core9panicking18panic_bounds_check17hacb8a94866cda541E
Ltmp869:
LBB104_40:
	.loc	39 1458 13 is_stmt 1
	jmp	LBB104_33
LBB104_41:
	.loc	39 0 13 is_stmt 0
	movb	-353(%rbp), %al
	movq	-384(%rbp), %rcx
Ltmp870:
	.loc	39 1460 38 is_stmt 1
	movq	16(%rcx), %rdx
	.loc	39 1460 21 is_stmt 0
	addq	32(%rcx), %rdx
	movq	%rdx, 32(%rcx)
	.loc	39 1461 24 is_stmt 1
	xorb	$-1, %al
	testb	$1, %al
	jne	LBB104_43
Ltmp871:
LBB104_42:
	.loc	34 1 1
	jmp	LBB104_29
LBB104_43:
	.loc	34 0 1 is_stmt 0
	movq	-384(%rbp), %rax
	movq	-416(%rbp), %rcx
Ltmp872:
	.loc	39 1462 25 is_stmt 1
	subq	16(%rax), %rcx
	movq	%rcx, 48(%rax)
	.loc	39 1461 21
	jmp	LBB104_42
Ltmp873:
LBB104_44:
	.loc	39 0 21 is_stmt 0
	movq	-456(%rbp), %rsi
	movq	-376(%rbp), %rdi
	movq	-416(%rbp), %rax
Ltmp874:
	.loc	39 1477 43 is_stmt 1
	movq	%rsi, %rdx
	addq	%rax, %rdx
	.loc	39 1477 20 is_stmt 0
	callq	__ZN84_$LT$core..str..pattern..MatchOnly$u20$as$u20$core..str..pattern..TwoWayStrategy$GT$8matching17h32428696eebe7a9fE
Ltmp875:
	.loc	34 1 1 is_stmt 1
	jmp	LBB104_9
LBB104_45:
	.loc	34 0 1 is_stmt 0
	movq	-384(%rbp), %rax
Ltmp876:
	.loc	39 1474 17 is_stmt 1
	movq	$0, 48(%rax)
	.loc	39 1473 13
	jmp	LBB104_44
Ltmp877:
Lfunc_end104:
	.cfi_endproc

	.p2align	4, 0x90
__ZN4core3str7pattern14TwoWaySearcher4next17heaf23bfe162841b5E:
Lfunc_begin105:
	.loc	39 1411 0
	.cfi_startproc
	pushq	%rbp
	.cfi_def_cfa_offset 16
	.cfi_offset %rbp, -16
	movq	%rsp, %rbp
	.cfi_def_cfa_register %rbp
	subq	$480, %rsp
	movq	%r9, -416(%rbp)
	movq	%r8, -408(%rbp)
	movq	%rcx, -400(%rbp)
	movq	%rdx, -392(%rbp)
	movq	%rsi, -384(%rbp)
	movq	%rdi, -376(%rbp)
	movq	%rdi, -368(%rbp)
	movb	16(%rbp), %al
	movb	%al, -353(%rbp)
	movq	%rsi, -208(%rbp)
	movq	%rdx, -200(%rbp)
	movq	%rcx, -192(%rbp)
	movq	%r8, -184(%rbp)
	movq	%r9, -176(%rbp)
	andb	$1, %al
	movb	%al, -161(%rbp)
Ltmp878:
	.loc	39 1416 23 prologue_end
	movq	32(%rsi), %rax
	movq	%rax, -352(%rbp)
	movq	%rax, -160(%rbp)
Ltmp879:
	.loc	39 1417 27
	subq	$1, %r9
	movq	%r9, -344(%rbp)
	movq	%r9, -152(%rbp)
LBB105_1:
	.loc	39 0 27 is_stmt 0
	movq	-400(%rbp), %rdx
	movq	-392(%rbp), %rsi
	movq	-384(%rbp), %rax
	movq	-344(%rbp), %rdi
Ltmp880:
	.loc	39 1422 35 is_stmt 1
	movq	%rsi, -144(%rbp)
	movq	%rdx, -136(%rbp)
	.loc	39 1422 48 is_stmt 0
	addq	32(%rax), %rdi
	movq	%rdi, -128(%rbp)
Ltmp881:
	.loc	35 343 9 is_stmt 1
	callq	__ZN75_$LT$usize$u20$as$u20$core..slice..index..SliceIndex$LT$$u5b$T$u5d$$GT$$GT$3get17h94f19cb7d6a18055E
	movq	%rax, -336(%rbp)
Ltmp882:
	.loc	39 1422 35
	movq	-336(%rbp), %rdx
	movl	$1, %eax
	xorl	%ecx, %ecx
	cmpq	$0, %rdx
	cmoveq	%rcx, %rax
	.loc	39 1422 29 is_stmt 0
	cmpq	$0, %rax
	jne	LBB105_3
	.loc	39 0 29
	movq	-352(%rbp), %rsi
	movq	-376(%rbp), %rdi
	movq	-384(%rbp), %rax
	movq	-400(%rbp), %rcx
	.loc	39 1425 21 is_stmt 1
	movq	%rcx, 32(%rax)
	.loc	39 1426 50
	movq	32(%rax), %rdx
	.loc	39 1426 28 is_stmt 0
	callq	__ZN89_$LT$core..str..pattern..RejectAndMatch$u20$as$u20$core..str..pattern..TwoWayStrategy$GT$9rejecting17h63ab15cc0a9e216cE
	.loc	34 1 1 is_stmt 1
	jmp	LBB105_9
LBB105_3:
	.loc	39 1423 23
	movq	-336(%rbp), %rax
	movb	(%rax), %al
	movb	%al, -417(%rbp)
	movb	%al, -114(%rbp)
Ltmp883:
	.loc	39 1423 29 is_stmt 0
	movb	%al, -113(%rbp)
Ltmp884:
	.loc	39 1430 16 is_stmt 1
	callq	__ZN89_$LT$core..str..pattern..RejectAndMatch$u20$as$u20$core..str..pattern..TwoWayStrategy$GT$16use_early_reject17h5240441151597cc8E
	testb	$1, %al
	jne	LBB105_5
	movb	$0, -321(%rbp)
	jmp	LBB105_6
LBB105_5:
	.loc	39 0 16 is_stmt 0
	movq	-352(%rbp), %rax
	movq	-384(%rbp), %rcx
	.loc	39 1430 41
	cmpq	32(%rcx), %rax
	setne	%al
	.loc	39 1430 16
	andb	$1, %al
	movb	%al, -321(%rbp)
LBB105_6:
	testb	$1, -321(%rbp)
	jne	LBB105_8
	.loc	39 0 16
	movb	-417(%rbp), %cl
	movq	-384(%rbp), %rax
	.loc	39 1435 17 is_stmt 1
	movq	%rax, -112(%rbp)
	.loc	39 1435 39 is_stmt 0
	movb	%cl, -97(%rbp)
Ltmp885:
	.loc	39 1402 10 is_stmt 1
	movq	24(%rax), %rax
	.loc	39 1402 27 is_stmt 0
	andb	$63, %cl
	.loc	39 1402 26
	movzbl	%cl, %ecx
	.loc	39 1402 9
	andq	$63, %rcx
	shrq	%cl, %rax
	andq	$1, %rax
	cmpq	$0, %rax
	setne	%al
Ltmp886:
	.loc	39 1435 16 is_stmt 1
	xorb	$-1, %al
	testb	$1, %al
	jne	LBB105_11
	jmp	LBB105_10
LBB105_8:
	.loc	39 0 16 is_stmt 0
	movq	-352(%rbp), %rsi
	movq	-376(%rbp), %rdi
	movq	-384(%rbp), %rax
	.loc	39 1431 46 is_stmt 1
	movq	32(%rax), %rdx
	.loc	39 1431 24 is_stmt 0
	callq	__ZN89_$LT$core..str..pattern..RejectAndMatch$u20$as$u20$core..str..pattern..TwoWayStrategy$GT$9rejecting17h63ab15cc0a9e216cE
Ltmp887:
LBB105_9:
	.loc	39 0 24
	movq	-368(%rbp), %rax
	.loc	39 1479 6 is_stmt 1
	addq	$480, %rsp
	popq	%rbp
	retq
LBB105_10:
	.loc	39 0 6 is_stmt 0
	movb	-353(%rbp), %al
Ltmp888:
	.loc	39 1445 20 is_stmt 1
	testb	$1, %al
	jne	LBB105_16
	jmp	LBB105_15
LBB105_11:
	.loc	39 0 20 is_stmt 0
	movb	-353(%rbp), %al
	movq	-384(%rbp), %rcx
	movq	-416(%rbp), %rdx
	.loc	39 1436 17 is_stmt 1
	addq	32(%rcx), %rdx
	movq	%rdx, 32(%rcx)
	.loc	39 1437 20
	xorb	$-1, %al
	testb	$1, %al
	jne	LBB105_13
LBB105_12:
	.loc	34 1 1
	jmp	LBB105_14
LBB105_13:
	.loc	34 0 1 is_stmt 0
	movq	-384(%rbp), %rax
	.loc	39 1438 21 is_stmt 1
	movq	$0, 48(%rax)
	.loc	39 1437 17
	jmp	LBB105_12
Ltmp889:
LBB105_14:
	.loc	34 1 1
	jmp	LBB105_1
LBB105_15:
	.loc	34 0 1 is_stmt 0
	movq	-384(%rbp), %rax
Ltmp890:
	.loc	39 1445 66 is_stmt 1
	movq	(%rax), %rdi
	movq	%rdi, -96(%rbp)
	.loc	39 1445 81 is_stmt 0
	movq	48(%rax), %rsi
	movq	%rsi, -88(%rbp)
Ltmp891:
	.loc	8 1276 5 is_stmt 1
	movq	%rdi, -80(%rbp)
	.loc	8 1276 12 is_stmt 0
	movq	%rsi, -72(%rbp)
Ltmp892:
	.loc	8 803 13 is_stmt 1
	callq	__ZN4core3cmp6max_by17h5ca17a86d2767e9eE
	movq	%rax, -320(%rbp)
Ltmp893:
	.loc	39 1445 17
	jmp	LBB105_17
LBB105_16:
	.loc	39 0 17 is_stmt 0
	movq	-384(%rbp), %rax
	.loc	39 1445 34
	movq	(%rax), %rax
	movq	%rax, -320(%rbp)
LBB105_17:
	.loc	39 0 34
	movq	-416(%rbp), %rax
Ltmp894:
	.loc	39 1446 22 is_stmt 1
	movq	-320(%rbp), %rcx
	movq	%rcx, -312(%rbp)
	movq	%rax, -304(%rbp)
Ltmp895:
	.loc	42 273 9
	movq	-312(%rbp), %rcx
	movq	-304(%rbp), %rax
Ltmp896:
	.loc	39 1446 22
	movq	%rcx, -296(%rbp)
	movq	%rax, -288(%rbp)
LBB105_18:
	.loc	39 0 22 is_stmt 0
	leaq	-296(%rbp), %rdi
Ltmp897:
	.loc	39 1446 22
	movq	%rdi, -64(%rbp)
Ltmp898:
	.loc	27 711 9 is_stmt 1
	callq	__ZN89_$LT$core..ops..range..Range$LT$T$GT$$u20$as$u20$core..iter..range..RangeIteratorImpl$GT$9spec_next17hd74ede41c523d677E
	movq	%rdx, -272(%rbp)
	movq	%rax, -280(%rbp)
Ltmp899:
	.loc	39 1446 22
	cmpq	$0, -280(%rbp)
	jne	LBB105_20
Ltmp900:
	.loc	39 0 22 is_stmt 0
	movb	-353(%rbp), %al
	.loc	39 1457 28 is_stmt 1
	testb	$1, %al
	jne	LBB105_31
	jmp	LBB105_30
LBB105_20:
	.loc	39 0 28 is_stmt 0
	movq	-416(%rbp), %rcx
Ltmp901:
	.loc	39 1446 17 is_stmt 1
	movq	-272(%rbp), %rax
	movq	%rax, -432(%rbp)
	movq	%rax, -56(%rbp)
Ltmp902:
	.loc	39 1447 20
	cmpq	%rcx, %rax
	setb	%al
	testb	$1, %al
	jne	LBB105_21
	jmp	LBB105_22
LBB105_21:
	.loc	39 0 20 is_stmt 0
	movq	-400(%rbp), %rcx
	movq	-384(%rbp), %rdx
	movq	-432(%rbp), %rax
	movq	-408(%rbp), %rsi
	.loc	39 1447 20
	movb	(%rsi,%rax), %sil
	movb	%sil, -441(%rbp)
	.loc	39 1447 42
	addq	32(%rdx), %rax
	movq	%rax, -440(%rbp)
	.loc	39 1447 33
	cmpq	%rcx, %rax
	setb	%al
	testb	$1, %al
	jne	LBB105_23
	jmp	LBB105_24
LBB105_22:
	.loc	39 0 33
	movq	-416(%rbp), %rsi
	movq	-432(%rbp), %rdi
	.loc	39 1447 20
	leaq	l___unnamed_19(%rip), %rdx
	callq	__ZN4core9panicking18panic_bounds_check17hacb8a94866cda541E
LBB105_23:
	.loc	39 0 20
	movb	-441(%rbp), %al
	movq	-392(%rbp), %rcx
	movq	-440(%rbp), %rdx
	.loc	39 1447 20
	cmpb	(%rcx,%rdx), %al
	jne	LBB105_26
	jmp	LBB105_25
LBB105_24:
	.loc	39 0 20
	movq	-400(%rbp), %rsi
	movq	-440(%rbp), %rdi
	.loc	39 1447 33
	leaq	l___unnamed_20(%rip), %rdx
	callq	__ZN4core9panicking18panic_bounds_check17hacb8a94866cda541E
Ltmp903:
LBB105_25:
	.loc	39 1446 13 is_stmt 1
	jmp	LBB105_18
LBB105_26:
	.loc	39 0 13 is_stmt 0
	movb	-353(%rbp), %al
	movq	-384(%rbp), %rcx
	movq	-432(%rbp), %rdx
Ltmp904:
	.loc	39 1448 38 is_stmt 1
	subq	(%rcx), %rdx
	addq	$1, %rdx
	.loc	39 1448 21 is_stmt 0
	addq	32(%rcx), %rdx
	movq	%rdx, 32(%rcx)
	.loc	39 1449 24 is_stmt 1
	xorb	$-1, %al
	testb	$1, %al
	jne	LBB105_28
Ltmp905:
LBB105_27:
	.loc	34 1 1
	jmp	LBB105_29
LBB105_28:
	.loc	34 0 1 is_stmt 0
	movq	-384(%rbp), %rax
Ltmp906:
	.loc	39 1450 25 is_stmt 1
	movq	$0, 48(%rax)
	.loc	39 1449 21
	jmp	LBB105_27
Ltmp907:
LBB105_29:
	.loc	34 1 1
	jmp	LBB105_14
LBB105_30:
	.loc	34 0 1 is_stmt 0
	movq	-384(%rbp), %rax
Ltmp908:
	.loc	39 1457 53 is_stmt 1
	movq	48(%rax), %rax
	movq	%rax, -264(%rbp)
	.loc	39 1457 25 is_stmt 0
	jmp	LBB105_32
LBB105_31:
	.loc	39 1457 42
	movq	$0, -264(%rbp)
LBB105_32:
	.loc	39 0 42
	movq	-384(%rbp), %rax
Ltmp909:
	.loc	39 1458 23 is_stmt 1
	movq	-264(%rbp), %rcx
	.loc	39 1458 30 is_stmt 0
	movq	(%rax), %rax
	.loc	39 1458 22
	movq	%rcx, -256(%rbp)
	movq	%rax, -248(%rbp)
Ltmp910:
	.loc	41 3183 18 is_stmt 1
	movq	-256(%rbp), %rdi
	movq	-248(%rbp), %rsi
	.loc	41 3183 9 is_stmt 0
	callq	__ZN4core4iter8adapters3rev12Rev$LT$T$GT$3new17hd5e629d143a140f8E
	movq	%rax, -48(%rbp)
	movq	%rdx, -40(%rbp)
Ltmp911:
	.loc	39 1458 22 is_stmt 1
	movq	%rax, -240(%rbp)
	movq	%rdx, -232(%rbp)
LBB105_33:
	.loc	39 0 22 is_stmt 0
	leaq	-240(%rbp), %rdi
Ltmp912:
	.loc	39 1458 22
	movq	%rdi, -32(%rbp)
Ltmp913:
	.loc	46 33 9 is_stmt 1
	movq	%rdi, -24(%rbp)
Ltmp914:
	.loc	27 819 9
	callq	__ZN89_$LT$core..ops..range..Range$LT$T$GT$$u20$as$u20$core..iter..range..RangeIteratorImpl$GT$14spec_next_back17haba380493f0e52e3E
	movq	%rdx, -216(%rbp)
	movq	%rax, -224(%rbp)
Ltmp915:
	.loc	39 1458 22
	cmpq	$0, -224(%rbp)
	jne	LBB105_35
Ltmp916:
	.loc	39 0 22 is_stmt 0
	movb	-353(%rbp), %al
	movq	-384(%rbp), %rcx
	movq	-416(%rbp), %rdx
	.loc	39 1469 29 is_stmt 1
	movq	32(%rcx), %rsi
	movq	%rsi, -456(%rbp)
	movq	%rsi, -8(%rbp)
Ltmp917:
	.loc	39 1472 13
	addq	32(%rcx), %rdx
	movq	%rdx, 32(%rcx)
	.loc	39 1473 16
	xorb	$-1, %al
	testb	$1, %al
	jne	LBB105_45
	jmp	LBB105_44
Ltmp918:
LBB105_35:
	.loc	39 0 16 is_stmt 0
	movq	-416(%rbp), %rcx
Ltmp919:
	.loc	39 1458 17 is_stmt 1
	movq	-216(%rbp), %rax
	movq	%rax, -464(%rbp)
	movq	%rax, -16(%rbp)
Ltmp920:
	.loc	39 1459 20
	cmpq	%rcx, %rax
	setb	%al
	testb	$1, %al
	jne	LBB105_36
	jmp	LBB105_37
LBB105_36:
	.loc	39 0 20 is_stmt 0
	movq	-400(%rbp), %rcx
	movq	-384(%rbp), %rdx
	movq	-464(%rbp), %rax
	movq	-408(%rbp), %rsi
	.loc	39 1459 20
	movb	(%rsi,%rax), %sil
	movb	%sil, -473(%rbp)
	.loc	39 1459 42
	addq	32(%rdx), %rax
	movq	%rax, -472(%rbp)
	.loc	39 1459 33
	cmpq	%rcx, %rax
	setb	%al
	testb	$1, %al
	jne	LBB105_38
	jmp	LBB105_39
LBB105_37:
	.loc	39 0 33
	movq	-416(%rbp), %rsi
	movq	-464(%rbp), %rdi
	.loc	39 1459 20
	leaq	l___unnamed_21(%rip), %rdx
	callq	__ZN4core9panicking18panic_bounds_check17hacb8a94866cda541E
LBB105_38:
	.loc	39 0 20
	movb	-473(%rbp), %al
	movq	-392(%rbp), %rcx
	movq	-472(%rbp), %rdx
	.loc	39 1459 20
	cmpb	(%rcx,%rdx), %al
	jne	LBB105_41
	jmp	LBB105_40
LBB105_39:
	.loc	39 0 20
	movq	-400(%rbp), %rsi
	movq	-472(%rbp), %rdi
	.loc	39 1459 33
	leaq	l___unnamed_22(%rip), %rdx
	callq	__ZN4core9panicking18panic_bounds_check17hacb8a94866cda541E
Ltmp921:
LBB105_40:
	.loc	39 1458 13 is_stmt 1
	jmp	LBB105_33
LBB105_41:
	.loc	39 0 13 is_stmt 0
	movb	-353(%rbp), %al
	movq	-384(%rbp), %rcx
Ltmp922:
	.loc	39 1460 38 is_stmt 1
	movq	16(%rcx), %rdx
	.loc	39 1460 21 is_stmt 0
	addq	32(%rcx), %rdx
	movq	%rdx, 32(%rcx)
	.loc	39 1461 24 is_stmt 1
	xorb	$-1, %al
	testb	$1, %al
	jne	LBB105_43
Ltmp923:
LBB105_42:
	.loc	34 1 1
	jmp	LBB105_29
LBB105_43:
	.loc	34 0 1 is_stmt 0
	movq	-384(%rbp), %rax
	movq	-416(%rbp), %rcx
Ltmp924:
	.loc	39 1462 25 is_stmt 1
	subq	16(%rax), %rcx
	movq	%rcx, 48(%rax)
	.loc	39 1461 21
	jmp	LBB105_42
Ltmp925:
LBB105_44:
	.loc	39 0 21 is_stmt 0
	movq	-456(%rbp), %rsi
	movq	-376(%rbp), %rdi
	movq	-416(%rbp), %rax
Ltmp926:
	.loc	39 1477 43 is_stmt 1
	movq	%rsi, %rdx
	addq	%rax, %rdx
	.loc	39 1477 20 is_stmt 0
	callq	__ZN89_$LT$core..str..pattern..RejectAndMatch$u20$as$u20$core..str..pattern..TwoWayStrategy$GT$8matching17hc588713bd2ef1bb4E
Ltmp927:
	.loc	34 1 1 is_stmt 1
	jmp	LBB105_9
LBB105_45:
	.loc	34 0 1 is_stmt 0
	movq	-384(%rbp), %rax
Ltmp928:
	.loc	39 1474 17 is_stmt 1
	movq	$0, 48(%rax)
	.loc	39 1473 13
	jmp	LBB105_44
Ltmp929:
Lfunc_end105:
	.cfi_endproc

	.p2align	4, 0x90
__ZN4core3str7pattern14small_slice_eq17he1a9a20830275de4E:
Lfunc_begin106:
	.loc	39 1863 0
	.cfi_startproc
	pushq	%rbp
	.cfi_def_cfa_offset 16
	.cfi_offset %rbp, -16
	movq	%rsp, %rbp
	.cfi_def_cfa_register %rbp
	subq	$768, %rsp
	movq	%rdi, -752(%rbp)
	movq	%rsi, -744(%rbp)
	movq	%rdx, -736(%rbp)
	movq	%rcx, -728(%rbp)
	movq	%rdi, -464(%rbp)
	movq	%rsi, -456(%rbp)
	movq	%rdx, -448(%rbp)
	movq	%rcx, -440(%rbp)
Ltmp930:
	.loc	39 1873 8 prologue_end
	cmpq	$4, %rsi
	jb	LBB106_2
	.loc	39 0 8 is_stmt 0
	movq	-728(%rbp), %rdx
	movq	-744(%rbp), %rcx
	movq	-736(%rbp), %rax
	movq	-752(%rbp), %rsi
	.loc	39 1905 33 is_stmt 1
	movq	%rsi, -400(%rbp)
	movq	%rcx, -392(%rbp)
	.loc	39 1905 45 is_stmt 0
	movq	%rax, -384(%rbp)
	movq	%rdx, -376(%rbp)
	.loc	39 1905 32
	movq	%rsi, -512(%rbp)
	movq	%rax, -504(%rbp)
	.loc	39 1905 14
	movq	-512(%rbp), %rax
	movq	%rax, -528(%rbp)
	.loc	39 1905 22
	movq	-504(%rbp), %rax
	movq	%rax, -520(%rbp)
Ltmp931:
	.loc	39 1906 31 is_stmt 1
	movq	-528(%rbp), %rax
	movq	%rax, -368(%rbp)
	.loc	39 1906 38 is_stmt 0
	subq	$4, %rcx
	movq	%rcx, -360(%rbp)
Ltmp932:
	.loc	3 932 18 is_stmt 1
	movq	%rax, -352(%rbp)
	.loc	3 932 30 is_stmt 0
	movq	%rcx, -344(%rbp)
Ltmp933:
	.loc	3 473 18 is_stmt 1
	addq	%rcx, %rax
	movq	%rax, -336(%rbp)
	movq	-336(%rbp), %rcx
Ltmp934:
	.loc	39 1906 52
	movq	-520(%rbp), %rax
	movq	%rax, -328(%rbp)
	.loc	39 1906 59 is_stmt 0
	subq	$4, %rdx
	movq	%rdx, -320(%rbp)
Ltmp935:
	.loc	3 932 18 is_stmt 1
	movq	%rax, -312(%rbp)
	.loc	3 932 30 is_stmt 0
	movq	%rdx, -304(%rbp)
Ltmp936:
	.loc	3 473 18 is_stmt 1
	addq	%rdx, %rax
	movq	%rax, -296(%rbp)
	movq	-296(%rbp), %rax
Ltmp937:
	.loc	39 1906 30
	movq	%rcx, -496(%rbp)
	movq	%rax, -488(%rbp)
	.loc	39 1906 14 is_stmt 0
	movq	-496(%rbp), %rax
	movq	%rax, -768(%rbp)
	movq	%rax, -288(%rbp)
	.loc	39 1906 21
	movq	-488(%rbp), %rax
	movq	%rax, -760(%rbp)
	movq	%rax, -280(%rbp)
Ltmp938:
	.loc	39 1907 9 is_stmt 1
	jmp	LBB106_10
Ltmp939:
LBB106_2:
	.loc	39 0 9 is_stmt 0
	movq	-744(%rbp), %rsi
	movq	-752(%rbp), %rdi
	.loc	39 1874 27 is_stmt 1
	movq	%rdi, -432(%rbp)
	movq	%rsi, -424(%rbp)
Ltmp940:
	.loc	35 742 9
	callq	__ZN4core5slice4iter13Iter$LT$T$GT$3new17h3705962b0e327af4E
	movq	-736(%rbp), %rcx
	movq	-728(%rbp), %r8
	movq	%rax, %rsi
Ltmp941:
	.loc	39 1874 27
	leaq	-656(%rbp), %rdi
	callq	__ZN4core4iter6traits8iterator8Iterator3zip17h7e070c22d485feffE
Ltmp942:
	.loc	42 273 9
	leaq	-712(%rbp), %rdi
	leaq	-656(%rbp), %rsi
	movl	$56, %edx
	callq	_memcpy
Ltmp943:
	.loc	39 1874 27
	leaq	-600(%rbp), %rdi
	leaq	-712(%rbp), %rsi
	movl	$56, %edx
	callq	_memcpy
LBB106_3:
	.loc	39 0 27 is_stmt 0
	leaq	-600(%rbp), %rdi
Ltmp944:
	.loc	39 1874 27
	movq	%rdi, -416(%rbp)
Ltmp945:
	.loc	7 84 9 is_stmt 1
	callq	__ZN111_$LT$core..iter..adapters..zip..Zip$LT$A$C$B$GT$$u20$as$u20$core..iter..adapters..zip..ZipImpl$LT$A$C$B$GT$$GT$4next17he4efef0642294678E
	movq	%rdx, -536(%rbp)
	movq	%rax, -544(%rbp)
Ltmp946:
	.loc	39 1874 27
	movq	-544(%rbp), %rdx
	movl	$1, %eax
	xorl	%ecx, %ecx
	cmpq	$0, %rdx
	cmoveq	%rcx, %rax
	cmpq	$0, %rax
	jne	LBB106_5
Ltmp947:
	.loc	39 1879 16
	movb	$1, -713(%rbp)
	.loc	39 1879 9 is_stmt 0
	jmp	LBB106_8
LBB106_5:
Ltmp948:
	.loc	39 1874 15 is_stmt 1
	movq	-544(%rbp), %rax
	movb	(%rax), %al
	movb	%al, -402(%rbp)
	.loc	39 1874 20 is_stmt 0
	movq	-536(%rbp), %rcx
	movb	(%rcx), %cl
	movb	%cl, -401(%rbp)
Ltmp949:
	.loc	39 1875 16 is_stmt 1
	cmpb	%cl, %al
	jne	LBB106_7
Ltmp950:
	.loc	39 1874 9
	jmp	LBB106_3
LBB106_7:
Ltmp951:
	.loc	39 1876 24
	movb	$0, -713(%rbp)
Ltmp952:
LBB106_8:
	.loc	34 1 1
	jmp	LBB106_9
LBB106_9:
	.loc	39 1920 2
	movb	-713(%rbp), %al
	andb	$1, %al
	movzbl	%al, %eax
	addq	$768, %rsp
	popq	%rbp
	retq
LBB106_10:
	.loc	39 0 2 is_stmt 0
	movq	-768(%rbp), %rax
Ltmp953:
	.loc	39 1907 15 is_stmt 1
	cmpq	%rax, -528(%rbp)
	jb	LBB106_12
	.loc	39 0 15 is_stmt 0
	movq	-760(%rbp), %rcx
	movq	-768(%rbp), %rax
	.loc	39 1916 18 is_stmt 1
	movq	%rax, -112(%rbp)
Ltmp954:
	.loc	3 1257 33
	movq	%rax, -104(%rbp)
Ltmp955:
	.loc	4 1250 29
	movq	%rax, -96(%rbp)
	.loc	4 1250 47 is_stmt 0
	leaq	-472(%rbp), %rdx
	movq	%rdx, -88(%rbp)
	leaq	-472(%rbp), %rdx
	movq	%rdx, -80(%rbp)
Ltmp956:
	.loc	43 2372 9 is_stmt 1
	movl	(%rax), %eax
	movl	%eax, -472(%rbp)
Ltmp957:
	.loc	4 1251 9
	movl	-472(%rbp), %eax
	movl	%eax, -68(%rbp)
Ltmp958:
	.loc	30 627 38
	movl	%eax, -64(%rbp)
Ltmp959:
	.loc	13 89 9
	movl	%eax, -60(%rbp)
Ltmp960:
	.loc	39 1917 18
	movq	%rcx, -56(%rbp)
Ltmp961:
	.loc	3 1257 33
	movq	%rcx, -48(%rbp)
Ltmp962:
	.loc	4 1250 29
	movq	%rcx, -40(%rbp)
	.loc	4 1250 47 is_stmt 0
	leaq	-468(%rbp), %rdx
	movq	%rdx, -32(%rbp)
	leaq	-468(%rbp), %rdx
	movq	%rdx, -24(%rbp)
Ltmp963:
	.loc	43 2372 9 is_stmt 1
	movl	(%rcx), %ecx
	movl	%ecx, -468(%rbp)
Ltmp964:
	.loc	4 1251 9
	movl	-468(%rbp), %ecx
	movl	%ecx, -12(%rbp)
Ltmp965:
	.loc	30 627 38
	movl	%ecx, -8(%rbp)
Ltmp966:
	.loc	13 89 9
	movl	%ecx, -4(%rbp)
Ltmp967:
	.loc	39 1918 9
	cmpl	%ecx, %eax
	sete	%al
	andb	$1, %al
	movb	%al, -713(%rbp)
Ltmp968:
	.loc	39 1920 2
	jmp	LBB106_9
LBB106_12:
Ltmp969:
	.loc	39 1908 23
	movq	-528(%rbp), %rax
	.loc	39 1908 22 is_stmt 0
	movq	%rax, -272(%rbp)
Ltmp970:
	.loc	3 1257 33 is_stmt 1
	movq	%rax, -264(%rbp)
Ltmp971:
	.loc	4 1250 29
	movq	%rax, -256(%rbp)
	.loc	4 1250 47 is_stmt 0
	leaq	-480(%rbp), %rcx
	movq	%rcx, -248(%rbp)
	leaq	-480(%rbp), %rcx
	movq	%rcx, -240(%rbp)
Ltmp972:
	.loc	43 2372 9 is_stmt 1
	movl	(%rax), %eax
	movl	%eax, -480(%rbp)
Ltmp973:
	.loc	4 1251 9
	movl	-480(%rbp), %eax
	movl	%eax, -228(%rbp)
Ltmp974:
	.loc	30 627 38
	movl	%eax, -224(%rbp)
Ltmp975:
	.loc	13 89 9
	movl	%eax, -220(%rbp)
Ltmp976:
	.loc	39 1909 23
	movq	-520(%rbp), %rcx
	.loc	39 1909 22 is_stmt 0
	movq	%rcx, -216(%rbp)
Ltmp977:
	.loc	3 1257 33 is_stmt 1
	movq	%rcx, -208(%rbp)
Ltmp978:
	.loc	4 1250 29
	movq	%rcx, -200(%rbp)
	.loc	4 1250 47 is_stmt 0
	leaq	-476(%rbp), %rdx
	movq	%rdx, -192(%rbp)
	leaq	-476(%rbp), %rdx
	movq	%rdx, -184(%rbp)
Ltmp979:
	.loc	43 2372 9 is_stmt 1
	movl	(%rcx), %ecx
	movl	%ecx, -476(%rbp)
Ltmp980:
	.loc	4 1251 9
	movl	-476(%rbp), %ecx
	movl	%ecx, -172(%rbp)
Ltmp981:
	.loc	30 627 38
	movl	%ecx, -168(%rbp)
Ltmp982:
	.loc	13 89 9
	movl	%ecx, -164(%rbp)
Ltmp983:
	.loc	39 1910 16
	cmpl	%ecx, %eax
	jne	LBB106_14
	.loc	39 1913 18
	movq	-528(%rbp), %rax
	movq	%rax, -160(%rbp)
Ltmp984:
	.loc	3 932 18
	movq	%rax, -152(%rbp)
Ltmp985:
	.loc	3 473 18
	addq	$4, %rax
	movq	%rax, -144(%rbp)
	movq	-144(%rbp), %rax
Ltmp986:
	.loc	39 1913 13
	movq	%rax, -528(%rbp)
	.loc	39 1914 18
	movq	-520(%rbp), %rax
	movq	%rax, -136(%rbp)
Ltmp987:
	.loc	3 932 18
	movq	%rax, -128(%rbp)
Ltmp988:
	.loc	3 473 18
	addq	$4, %rax
	movq	%rax, -120(%rbp)
	movq	-120(%rbp), %rax
Ltmp989:
	.loc	39 1914 13
	movq	%rax, -520(%rbp)
Ltmp990:
	.loc	39 1907 9
	jmp	LBB106_10
LBB106_14:
Ltmp991:
	.loc	39 1911 24
	movb	$0, -713(%rbp)
Ltmp992:
	.loc	34 1 1
	jmp	LBB106_9
Ltmp993:
Lfunc_end106:
	.cfi_endproc

	.p2align	4, 0x90
__ZN4core4char7methods15encode_utf8_raw17h690f06774b854465E:
Lfunc_begin107:
	.file	47 "/rustc/2c8cc343237b8f7d5a3c3703e3a87f2eb2c54a74/library/core/src/char" "methods.rs"
	.loc	47 1729 0
	.cfi_startproc
	pushq	%rbp
	.cfi_def_cfa_offset 16
	.cfi_offset %rbp, -16
	movq	%rsp, %rbp
	.cfi_def_cfa_register %rbp
	subq	$560, %rsp
	movq	%rsi, -544(%rbp)
	movq	%rdx, -536(%rbp)
	movl	%edi, -516(%rbp)
	movq	%rsi, -304(%rbp)
	movq	%rdx, -296(%rbp)
Ltmp994:
	.loc	47 1730 24 prologue_end
	movl	-516(%rbp), %edi
	.loc	47 1730 15 is_stmt 0
	callq	__ZN4core4char7methods8len_utf817h45e287870975bcceE
	movq	-544(%rbp), %rsi
	movq	-536(%rbp), %rdx
	movq	%rax, -512(%rbp)
Ltmp995:
	.loc	47 1731 12 is_stmt 1
	movq	-512(%rbp), %rax
	.loc	47 1731 22 is_stmt 0
	movq	%rsi, -272(%rbp)
	movq	%rdx, -264(%rbp)
Ltmp996:
	.loc	2 30 25 is_stmt 1
	movq	%rsi, -256(%rbp)
	movq	%rdx, -248(%rbp)
Ltmp997:
	.loc	47 1731 11
	movq	%rax, -504(%rbp)
	movq	%rsi, -496(%rbp)
	movq	%rdx, -488(%rbp)
	.loc	47 1731 5 is_stmt 0
	movq	-504(%rbp), %rax
	decq	%rax
	movq	%rax, -528(%rbp)
	subq	$3, %rax
	ja	LBB107_1
	.loc	47 0 5
	movq	-528(%rbp), %rax
	leaq	LJTI107_0(%rip), %rcx
	movslq	(%rcx,%rax,4), %rax
	addq	%rcx, %rax
	jmpq	*%rax
LBB107_1:
	movq	-536(%rbp), %rcx
	leaq	-512(%rbp), %rsi
	.loc	47 1750 14 is_stmt 1
	movq	%rsi, -120(%rbp)
Ltmp998:
	.loc	29 328 23
	movq	%rsi, -112(%rbp)
	.loc	29 328 26 is_stmt 0
	movq	__ZN4core3fmt3num3imp54_$LT$impl$u20$core..fmt..Display$u20$for$u20$usize$GT$3fmt17ha5c925fcd7ed33faE@GOTPCREL(%rip), %rax
	movq	%rax, -104(%rbp)
Ltmp999:
	.loc	29 347 42 is_stmt 1
	movq	%rax, -96(%rbp)
	movq	-96(%rbp), %rdx
	.loc	29 347 68 is_stmt 0
	movq	%rsi, -88(%rbp)
	movq	-88(%rbp), %rsi
	.loc	29 347 18
	movq	%rsi, -384(%rbp)
	movq	%rdx, -376(%rbp)
	leaq	-516(%rbp), %rsi
Ltmp1000:
	.loc	47 1750 14 is_stmt 1
	movq	%rsi, -80(%rbp)
Ltmp1001:
	.loc	29 328 23
	movq	%rsi, -72(%rbp)
	.loc	29 328 26 is_stmt 0
	movq	__ZN4core3fmt3num53_$LT$impl$u20$core..fmt..UpperHex$u20$for$u20$u32$GT$3fmt17ha96bbefe8f663d11E@GOTPCREL(%rip), %rdx
	movq	%rdx, -64(%rbp)
Ltmp1002:
	.loc	29 347 42 is_stmt 1
	movq	%rdx, -56(%rbp)
	movq	-56(%rbp), %rdx
	.loc	29 347 68 is_stmt 0
	movq	%rsi, -48(%rbp)
	movq	-48(%rbp), %rsi
	.loc	29 347 18
	movq	%rsi, -368(%rbp)
	movq	%rdx, -360(%rbp)
Ltmp1003:
	.loc	47 1754 13 is_stmt 1
	movq	%rcx, -336(%rbp)
	leaq	-336(%rbp), %rcx
	.loc	47 1750 14
	movq	%rcx, -40(%rbp)
Ltmp1004:
	.loc	29 328 23
	movq	%rcx, -32(%rbp)
	.loc	29 328 26 is_stmt 0
	movq	%rax, -24(%rbp)
Ltmp1005:
	.loc	29 347 42 is_stmt 1
	movq	%rax, -16(%rbp)
	movq	-16(%rbp), %rax
	.loc	29 347 68 is_stmt 0
	movq	%rcx, -8(%rbp)
	movq	-8(%rbp), %rcx
	.loc	29 347 18
	movq	%rcx, -352(%rbp)
	movq	%rax, -344(%rbp)
Ltmp1006:
	.loc	47 1750 14 is_stmt 1
	movq	-384(%rbp), %rcx
	movq	-376(%rbp), %rax
	movq	%rcx, -432(%rbp)
	movq	%rax, -424(%rbp)
	movq	-368(%rbp), %rcx
	movq	-360(%rbp), %rax
	movq	%rcx, -416(%rbp)
	movq	%rax, -408(%rbp)
	movq	-352(%rbp), %rcx
	movq	-344(%rbp), %rax
	movq	%rcx, -400(%rbp)
	movq	%rax, -392(%rbp)
	leaq	l___unnamed_23(%rip), %rsi
	leaq	-480(%rbp), %rdi
	movq	%rdi, -552(%rbp)
	leaq	-432(%rbp), %rcx
	movl	$3, %r8d
	movq	%r8, %rdx
	callq	__ZN4core3fmt9Arguments6new_v117hcecd45c754d3bfd4E
	movq	-552(%rbp), %rdi
	leaq	l___unnamed_24(%rip), %rsi
	callq	__ZN4core9panicking9panic_fmt17h9b5d807e24bcaaedE
LBB107_2:
	.loc	47 1732 13
	cmpq	$1, -488(%rbp)
	jae	LBB107_10
	jmp	LBB107_1
LBB107_3:
	.loc	47 1735 13
	cmpq	$2, -488(%rbp)
	jae	LBB107_9
	jmp	LBB107_1
LBB107_4:
	.loc	47 1739 13
	cmpq	$3, -488(%rbp)
	jae	LBB107_8
	jmp	LBB107_1
LBB107_5:
	.loc	47 1744 13
	cmpq	$4, -488(%rbp)
	jb	LBB107_1
	.loc	47 1744 14 is_stmt 0
	movq	-496(%rbp), %rsi
	movq	%rsi, -240(%rbp)
	.loc	47 1744 17
	movq	-496(%rbp), %rdx
	movq	%rdx, %rax
	addq	$1, %rax
	movq	%rax, -232(%rbp)
	.loc	47 1744 20
	movq	-496(%rbp), %rcx
	movq	%rcx, %rax
	addq	$2, %rax
	movq	%rax, -224(%rbp)
	.loc	47 1744 23
	movq	-496(%rbp), %rax
	movq	%rax, %rdi
	addq	$3, %rdi
	movq	%rdi, -216(%rbp)
Ltmp1007:
	.loc	47 1745 19 is_stmt 1
	movl	-516(%rbp), %edi
	shrl	$18, %edi
	.loc	47 1745 18 is_stmt 0
	andl	$7, %edi
	.loc	47 1745 13
	orb	$-16, %dil
	movb	%dil, (%rsi)
	.loc	47 1746 19 is_stmt 1
	movl	-516(%rbp), %esi
	shrl	$12, %esi
	.loc	47 1746 18 is_stmt 0
	andl	$63, %esi
	.loc	47 1746 13
	orb	$-128, %sil
	movb	%sil, 1(%rdx)
	.loc	47 1747 19 is_stmt 1
	movl	-516(%rbp), %edx
	shrl	$6, %edx
	.loc	47 1747 18 is_stmt 0
	andl	$63, %edx
	.loc	47 1747 13
	orb	$-128, %dl
	movb	%dl, 2(%rcx)
	.loc	47 1748 19 is_stmt 1
	movl	-516(%rbp), %ecx
	.loc	47 1748 18 is_stmt 0
	andl	$63, %ecx
	.loc	47 1748 13
	orb	$-128, %cl
	movb	%cl, 3(%rax)
Ltmp1008:
LBB107_7:
	.loc	47 0 13
	movq	-536(%rbp), %rcx
	movq	-544(%rbp), %rdx
	.loc	47 1757 10 is_stmt 1
	movq	%rdx, -160(%rbp)
	movq	%rcx, -152(%rbp)
	.loc	47 1757 16 is_stmt 0
	movq	-512(%rbp), %rax
	.loc	47 1757 14
	movq	%rax, -328(%rbp)
Ltmp1009:
	.loc	2 30 9 is_stmt 1
	movq	-328(%rbp), %rax
	movq	%rax, -144(%rbp)
	.loc	2 30 25 is_stmt 0
	movq	%rdx, -136(%rbp)
	movq	%rcx, -128(%rbp)
Ltmp1010:
	.loc	2 461 9 is_stmt 1
	movq	$0, -320(%rbp)
	movq	%rax, -312(%rbp)
	movq	-320(%rbp), %rdi
	movq	-312(%rbp), %rsi
	leaq	l___unnamed_25(%rip), %r8
	callq	__ZN106_$LT$core..ops..range..Range$LT$usize$GT$$u20$as$u20$core..slice..index..SliceIndex$LT$$u5b$T$u5d$$GT$$GT$9index_mut17h300d1708029c32e0E
Ltmp1011:
	.loc	47 1758 2
	addq	$560, %rsp
	popq	%rbp
	retq
LBB107_8:
Ltmp1012:
	.loc	47 1739 14
	movq	-496(%rbp), %rdx
	movq	%rdx, -208(%rbp)
	.loc	47 1739 17 is_stmt 0
	movq	-496(%rbp), %rcx
	movq	%rcx, %rax
	addq	$1, %rax
	movq	%rax, -200(%rbp)
	.loc	47 1739 20
	movq	-496(%rbp), %rax
	movq	%rax, %rsi
	addq	$2, %rsi
	movq	%rsi, -192(%rbp)
Ltmp1013:
	.loc	47 1740 19 is_stmt 1
	movl	-516(%rbp), %esi
	shrl	$12, %esi
	.loc	47 1740 18 is_stmt 0
	andl	$15, %esi
	.loc	47 1740 13
	orb	$-32, %sil
	movb	%sil, (%rdx)
	.loc	47 1741 19 is_stmt 1
	movl	-516(%rbp), %edx
	shrl	$6, %edx
	.loc	47 1741 18 is_stmt 0
	andl	$63, %edx
	.loc	47 1741 13
	orb	$-128, %dl
	movb	%dl, 1(%rcx)
	.loc	47 1742 19 is_stmt 1
	movl	-516(%rbp), %ecx
	.loc	47 1742 18 is_stmt 0
	andl	$63, %ecx
	.loc	47 1742 13
	orb	$-128, %cl
	movb	%cl, 2(%rax)
Ltmp1014:
	.loc	47 1743 9 is_stmt 1
	jmp	LBB107_7
LBB107_9:
	.loc	47 1735 14
	movq	-496(%rbp), %rcx
	movq	%rcx, -184(%rbp)
	.loc	47 1735 17 is_stmt 0
	movq	-496(%rbp), %rax
	movq	%rax, %rdx
	addq	$1, %rdx
	movq	%rdx, -176(%rbp)
Ltmp1015:
	.loc	47 1736 19 is_stmt 1
	movl	-516(%rbp), %edx
	shrl	$6, %edx
	.loc	47 1736 18 is_stmt 0
	andl	$31, %edx
	.loc	47 1736 13
	orb	$-64, %dl
	movb	%dl, (%rcx)
	.loc	47 1737 19 is_stmt 1
	movl	-516(%rbp), %ecx
	.loc	47 1737 18 is_stmt 0
	andl	$63, %ecx
	.loc	47 1737 13
	orb	$-128, %cl
	movb	%cl, 1(%rax)
Ltmp1016:
	.loc	47 1738 9 is_stmt 1
	jmp	LBB107_7
LBB107_10:
	.loc	47 1732 14
	movq	-496(%rbp), %rax
	movq	%rax, -168(%rbp)
Ltmp1017:
	.loc	47 1733 18
	movl	-516(%rbp), %ecx
	.loc	47 1733 13 is_stmt 0
	movb	%cl, (%rax)
Ltmp1018:
	.loc	47 1734 9 is_stmt 1
	jmp	LBB107_7
Ltmp1019:
Lfunc_end107:
	.cfi_endproc
	.p2align	2, 0x90
	.data_region jt32
.set L107_0_set_2, LBB107_2-LJTI107_0
.set L107_0_set_3, LBB107_3-LJTI107_0
.set L107_0_set_4, LBB107_4-LJTI107_0
.set L107_0_set_5, LBB107_5-LJTI107_0
LJTI107_0:
	.long	L107_0_set_2
	.long	L107_0_set_3
	.long	L107_0_set_4
	.long	L107_0_set_5
	.end_data_region

	.p2align	4, 0x90
__ZN4core4char7methods8len_utf817h45e287870975bcceE:
Lfunc_begin108:
	.loc	47 1701 0
	.cfi_startproc
	pushq	%rbp
	.cfi_def_cfa_offset 16
	.cfi_offset %rbp, -16
	movq	%rsp, %rbp
	.cfi_def_cfa_register %rbp
	subq	$24, %rsp
	movl	%edi, -20(%rbp)
	movl	%edi, -4(%rbp)
Ltmp1020:
	.loc	47 1702 8 prologue_end
	cmpl	$128, %edi
	jb	LBB108_2
	.loc	47 0 8 is_stmt 0
	movl	-20(%rbp), %eax
	.loc	47 1704 15 is_stmt 1
	cmpl	$2048, %eax
	jb	LBB108_5
	jmp	LBB108_4
LBB108_2:
	.loc	47 1703 9
	movq	$1, -16(%rbp)
LBB108_3:
	.loc	47 1711 2
	movq	-16(%rbp), %rax
	addq	$24, %rsp
	popq	%rbp
	retq
LBB108_4:
	.loc	47 0 2 is_stmt 0
	movl	-20(%rbp), %eax
	.loc	47 1706 15 is_stmt 1
	cmpl	$65536, %eax
	jb	LBB108_8
	jmp	LBB108_7
LBB108_5:
	.loc	47 1705 9
	movq	$2, -16(%rbp)
LBB108_6:
	.loc	47 1702 5
	jmp	LBB108_3
LBB108_7:
	.loc	47 1709 9
	movq	$4, -16(%rbp)
	.loc	47 1706 12
	jmp	LBB108_9
LBB108_8:
	.loc	47 1707 9
	movq	$3, -16(%rbp)
LBB108_9:
	.loc	47 1704 12
	jmp	LBB108_6
Ltmp1021:
Lfunc_end108:
	.cfi_endproc

	.p2align	4, 0x90
__ZN4core4hint21unreachable_unchecked17hb588242ab2a0069dE:
Lfunc_begin109:
	.loc	18 100 0
	.cfi_startproc
	pushq	%rbp
	.cfi_def_cfa_offset 16
	.cfi_offset %rbp, -16
	movq	%rsp, %rbp
	.cfi_def_cfa_register %rbp
Ltmp1022:
	.loc	18 104 9 prologue_end
	ud2
Ltmp1023:
Lfunc_end109:
	.cfi_endproc

	.p2align	4, 0x90
__ZN4core4iter5range116_$LT$impl$u20$core..iter..traits..double_ended..DoubleEndedIterator$u20$for$u20$core..ops..range..Range$LT$A$GT$$GT$9next_back17h868525bfa1ab7a77E:
Lfunc_begin110:
	.loc	27 818 0
	.cfi_startproc
	pushq	%rbp
	.cfi_def_cfa_offset 16
	.cfi_offset %rbp, -16
	movq	%rsp, %rbp
	.cfi_def_cfa_register %rbp
	subq	$16, %rsp
	movq	%rdi, -8(%rbp)
Ltmp1024:
	.loc	27 819 9 prologue_end
	callq	__ZN89_$LT$core..ops..range..Range$LT$T$GT$$u20$as$u20$core..iter..range..RangeIteratorImpl$GT$14spec_next_back17haba380493f0e52e3E
	.loc	27 820 6
	addq	$16, %rsp
	popq	%rbp
	retq
Ltmp1025:
Lfunc_end110:
	.cfi_endproc

	.p2align	4, 0x90
__ZN4core4iter6traits12double_ended19DoubleEndedIterator5rfind5check28_$u7b$$u7b$closure$u7d$$u7d$17hd52a2426c75db0cbE:
Lfunc_begin111:
	.loc	40 354 0
	.cfi_startproc
	.cfi_personality 155, _rust_eh_personality
	.cfi_lsda 16, Lexception22
	pushq	%rbp
	.cfi_def_cfa_offset 16
	.cfi_offset %rbp, -16
	movq	%rsp, %rbp
	.cfi_def_cfa_register %rbp
	subq	$80, %rsp
	movq	%rsi, -72(%rbp)
	movq	%rdi, -32(%rbp)
Ltmp1029:
	.loc	40 355 20 prologue_end
	movb	$1, -33(%rbp)
	leaq	-72(%rbp), %rax
	movq	%rax, -48(%rbp)
	movq	-48(%rbp), %rsi
Ltmp1026:
	callq	__ZN4core3str7pattern13simd_contains28_$u7b$$u7b$closure$u7d$$u7d$17hb9c54bea20cd7151E
Ltmp1027:
	movb	%al, -73(%rbp)
	jmp	LBB111_3
LBB111_1:
	.loc	40 354 13
	movq	-16(%rbp), %rdi
	callq	__Unwind_Resume
LBB111_2:
Ltmp1028:
	.loc	40 0 13 is_stmt 0
	movq	%rax, %rcx
	movl	%edx, %eax
	movq	%rcx, -16(%rbp)
	movl	%eax, -8(%rbp)
	jmp	LBB111_1
LBB111_3:
	movb	-73(%rbp), %al
	.loc	40 355 20 is_stmt 1
	testb	$1, %al
	jne	LBB111_5
	jmp	LBB111_4
LBB111_4:
	.loc	40 355 67 is_stmt 0
	movq	L___unnamed_26(%rip), %rcx
	movq	L___unnamed_26+8(%rip), %rax
	movq	%rcx, -64(%rbp)
	movq	%rax, -56(%rbp)
	.loc	40 355 17
	jmp	LBB111_6
LBB111_5:
	.loc	40 355 55
	movb	$0, -33(%rbp)
	movq	-72(%rbp), %rax
	.loc	40 355 36
	movq	%rax, -56(%rbp)
	movq	$1, -64(%rbp)
LBB111_6:
	.loc	40 356 13 is_stmt 1
	testb	$1, -33(%rbp)
	jne	LBB111_8
LBB111_7:
	.loc	40 356 14 is_stmt 0
	movq	-64(%rbp), %rax
	movq	-56(%rbp), %rdx
	addq	$80, %rsp
	popq	%rbp
	retq
LBB111_8:
	.loc	40 356 13
	jmp	LBB111_7
Ltmp1030:
Lfunc_end111:
	.cfi_endproc
	.section	__TEXT,__gcc_except_tab
	.p2align	2
GCC_except_table111:
Lexception22:
	.byte	255
	.byte	255
	.byte	1
	.uleb128 Lcst_end22-Lcst_begin22
Lcst_begin22:
	.uleb128 Ltmp1026-Lfunc_begin111
	.uleb128 Ltmp1027-Ltmp1026
	.uleb128 Ltmp1028-Lfunc_begin111
	.byte	0
	.uleb128 Ltmp1027-Lfunc_begin111
	.uleb128 Lfunc_end111-Ltmp1027
	.byte	0
	.byte	0
Lcst_end22:
	.p2align	2

	.section	__TEXT,__text,regular,pure_instructions
	.p2align	4, 0x90
__ZN4core4iter6traits12double_ended19DoubleEndedIterator9try_rfold17hd03afa0ff0e7d45aE:
Lfunc_begin112:
	.loc	40 221 0 is_stmt 1
	.cfi_startproc
	.cfi_personality 155, _rust_eh_personality
	.cfi_lsda 16, Lexception23
	pushq	%rbp
	.cfi_def_cfa_offset 16
	.cfi_offset %rbp, -16
	movq	%rsp, %rbp
	.cfi_def_cfa_register %rbp
	subq	$224, %rsp
	movq	%rdi, -144(%rbp)
	movq	%rsi, -136(%rbp)
Ltmp1042:
	movq	%rdi, -64(%rbp)
Ltmp1043:
	.loc	40 227 25 prologue_end
	movb	$1, -65(%rbp)
Ltmp1044:
LBB112_1:
Ltmp1031:
	.loc	40 0 25 is_stmt 0
	movq	-144(%rbp), %rdi
Ltmp1045:
	.loc	40 228 29 is_stmt 1
	callq	__ZN4core4iter5range116_$LT$impl$u20$core..iter..traits..double_ended..DoubleEndedIterator$u20$for$u20$core..ops..range..Range$LT$A$GT$$GT$9next_back17h868525bfa1ab7a77E
Ltmp1032:
	movq	%rdx, -160(%rbp)
	movq	%rax, -152(%rbp)
	jmp	LBB112_4
Ltmp1046:
LBB112_2:
	.loc	40 232 5
	testb	$1, -65(%rbp)
	jne	LBB112_16
	jmp	LBB112_15
Ltmp1047:
LBB112_3:
Ltmp1041:
	.loc	40 0 5 is_stmt 0
	movq	%rax, %rcx
	movl	%edx, %eax
	movq	%rcx, -32(%rbp)
	movl	%eax, -24(%rbp)
	jmp	LBB112_2
Ltmp1048:
LBB112_4:
	movq	-160(%rbp), %rax
	movq	-152(%rbp), %rcx
Ltmp1049:
	.loc	40 228 29 is_stmt 1
	movq	%rcx, -112(%rbp)
	movq	%rax, -104(%rbp)
	.loc	40 228 19 is_stmt 0
	cmpq	$1, -112(%rbp)
	jne	LBB112_6
Ltmp1050:
	.loc	40 0 19
	movq	-136(%rbp), %rdi
	.loc	40 228 24
	movq	-104(%rbp), %rax
	movq	%rax, -16(%rbp)
	.loc	40 229 23 is_stmt 1
	movb	$0, -65(%rbp)
	.loc	40 229 21 is_stmt 0
	movq	%rax, -80(%rbp)
	movq	-80(%rbp), %rsi
Ltmp1035:
	callq	__ZN4core4iter6traits12double_ended19DoubleEndedIterator5rfind5check28_$u7b$$u7b$closure$u7d$$u7d$17hd52a2426c75db0cbE
Ltmp1036:
	movq	%rdx, -176(%rbp)
	movq	%rax, -168(%rbp)
	jmp	LBB112_10
Ltmp1051:
LBB112_6:
	.loc	40 228 9 is_stmt 1
	jmp	LBB112_7
Ltmp1052:
LBB112_7:
	.loc	40 231 15
	movb	$0, -65(%rbp)
Ltmp1033:
	callq	__ZN95_$LT$core..ops..control_flow..ControlFlow$LT$B$C$C$GT$$u20$as$u20$core..ops..try_trait..Try$GT$11from_output17h6bb79e0ac77b7f70E
Ltmp1034:
	movq	%rdx, -192(%rbp)
	movq	%rax, -184(%rbp)
	jmp	LBB112_8
Ltmp1053:
LBB112_8:
	.loc	40 0 15 is_stmt 0
	movq	-192(%rbp), %rax
	movq	-184(%rbp), %rcx
	.loc	40 231 15
	movq	%rcx, -128(%rbp)
	movq	%rax, -120(%rbp)
Ltmp1054:
LBB112_9:
	.loc	40 232 6 is_stmt 1
	movq	-128(%rbp), %rax
	movq	-120(%rbp), %rdx
	addq	$224, %rsp
	popq	%rbp
	retq
Ltmp1055:
LBB112_10:
Ltmp1037:
	.loc	40 0 6 is_stmt 0
	movq	-176(%rbp), %rsi
	movq	-168(%rbp), %rdi
Ltmp1056:
	.loc	40 229 21 is_stmt 1
	callq	__ZN95_$LT$core..ops..control_flow..ControlFlow$LT$B$C$C$GT$$u20$as$u20$core..ops..try_trait..Try$GT$6branch17h84982cca2d63baaaE
Ltmp1038:
	movq	%rdx, -208(%rbp)
	movq	%rax, -200(%rbp)
	jmp	LBB112_11
Ltmp1057:
LBB112_11:
	.loc	40 0 21 is_stmt 0
	movq	-208(%rbp), %rax
	movq	-200(%rbp), %rcx
	.loc	40 229 21
	movq	%rcx, -96(%rbp)
	movq	%rax, -88(%rbp)
	cmpq	$0, -96(%rbp)
	jne	LBB112_13
Ltmp1058:
	.loc	40 229 13
	movb	$1, -65(%rbp)
Ltmp1059:
	.loc	40 228 9 is_stmt 1
	jmp	LBB112_1
Ltmp1060:
LBB112_13:
	.loc	40 229 32
	movq	-88(%rbp), %rdi
	movq	%rdi, -8(%rbp)
Ltmp1039:
Ltmp1061:
	.loc	40 229 21 is_stmt 0
	callq	__ZN104_$LT$core..ops..control_flow..ControlFlow$LT$B$C$C$GT$$u20$as$u20$core..ops..try_trait..FromResidual$GT$13from_residual17hc292706893408e8fE
Ltmp1040:
	movq	%rdx, -224(%rbp)
	movq	%rax, -216(%rbp)
	jmp	LBB112_14
Ltmp1062:
LBB112_14:
	.loc	40 0 21
	movq	-224(%rbp), %rax
	movq	-216(%rbp), %rcx
	.loc	40 229 21
	movq	%rcx, -128(%rbp)
	movq	%rax, -120(%rbp)
Ltmp1063:
	.loc	40 232 5 is_stmt 1
	jmp	LBB112_9
Ltmp1064:
LBB112_15:
	.loc	40 221 5
	movq	-32(%rbp), %rdi
	callq	__Unwind_Resume
Ltmp1065:
LBB112_16:
	.loc	40 232 5
	jmp	LBB112_15
Ltmp1066:
Lfunc_end112:
	.cfi_endproc
	.section	__TEXT,__gcc_except_tab
	.p2align	2
GCC_except_table112:
Lexception23:
	.byte	255
	.byte	255
	.byte	1
	.uleb128 Lcst_end23-Lcst_begin23
Lcst_begin23:
	.uleb128 Ltmp1031-Lfunc_begin112
	.uleb128 Ltmp1040-Ltmp1031
	.uleb128 Ltmp1041-Lfunc_begin112
	.byte	0
	.uleb128 Ltmp1040-Lfunc_begin112
	.uleb128 Lfunc_end112-Ltmp1040
	.byte	0
	.byte	0
Lcst_end23:
	.p2align	2

	.section	__TEXT,__text,regular,pure_instructions
	.p2align	4, 0x90
__ZN4core4iter6traits8iterator8Iterator3any5check28_$u7b$$u7b$closure$u7d$$u7d$17h522b18693ae7ae84E:
Lfunc_begin113:
	.loc	41 2656 0
	.cfi_startproc
	pushq	%rbp
	.cfi_def_cfa_offset 16
	.cfi_offset %rbp, -16
	movq	%rsp, %rbp
	.cfi_def_cfa_register %rbp
	subq	$64, %rsp
	movq	%rdi, -32(%rbp)
	movq	%rsi, -16(%rbp)
	movq	%rdx, -8(%rbp)
Ltmp1067:
	.loc	41 2657 20 prologue_end
	movq	%rsi, -48(%rbp)
	movq	%rdx, -40(%rbp)
	movq	-48(%rbp), %rsi
	movq	-40(%rbp), %rdx
	callq	__ZN4core3str7pattern13simd_contains28_$u7b$$u7b$closure$u7d$$u7d$17hbac9fbd782650269E
	testb	$1, %al
	jne	LBB113_2
	.loc	41 2657 55 is_stmt 0
	movb	$0, -49(%rbp)
	.loc	41 2657 17
	jmp	LBB113_3
LBB113_2:
	.loc	41 2657 27
	movb	$1, -49(%rbp)
LBB113_3:
	.loc	41 2658 14 is_stmt 1
	movb	-49(%rbp), %al
	andb	$1, %al
	movzbl	%al, %eax
	addq	$64, %rsp
	popq	%rbp
	retq
Ltmp1068:
Lfunc_end113:
	.cfi_endproc

	.p2align	4, 0x90
__ZN4core4iter6traits8iterator8Iterator3zip17h7e070c22d485feffE:
Lfunc_begin114:
	.loc	41 623 0
	.cfi_startproc
	.cfi_personality 155, _rust_eh_personality
	.cfi_lsda 16, Lexception24
	pushq	%rbp
	.cfi_def_cfa_offset 16
	.cfi_offset %rbp, -16
	movq	%rsp, %rbp
	.cfi_def_cfa_register %rbp
	subq	$128, %rsp
	movq	%r8, -112(%rbp)
	movq	%rcx, -96(%rbp)
	movq	%rdx, -120(%rbp)
	movq	%rsi, %rax
	movq	-112(%rbp), %rsi
	movq	%rax, -104(%rbp)
	movq	%rdi, %rcx
	movq	-96(%rbp), %rdi
	movq	%rcx, -88(%rbp)
	movq	%rcx, -80(%rbp)
	movq	%rax, -48(%rbp)
	movq	%rdx, -40(%rbp)
	movq	%rdi, -32(%rbp)
	movq	%rsi, -24(%rbp)
Ltmp1074:
	.loc	41 628 18 prologue_end
	movb	$1, -49(%rbp)
Ltmp1069:
	.loc	41 628 24 is_stmt 0
	callq	__ZN4core5slice4iter87_$LT$impl$u20$core..iter..traits..collect..IntoIterator$u20$for$u20$$RF$$u5b$T$u5d$$GT$9into_iter17h27847c4cd17f8908E
Ltmp1070:
	movq	%rdx, -72(%rbp)
	movq	%rax, -64(%rbp)
	jmp	LBB114_3
LBB114_1:
	.loc	41 628 41
	testb	$1, -49(%rbp)
	jne	LBB114_6
	jmp	LBB114_5
LBB114_2:
Ltmp1073:
	.loc	41 0 41
	movq	%rax, %rcx
	movl	%edx, %eax
	movq	%rcx, -16(%rbp)
	movl	%eax, -8(%rbp)
	jmp	LBB114_1
LBB114_3:
	movq	-72(%rbp), %r8
	movq	-64(%rbp), %rcx
	movq	-120(%rbp), %rdx
	movq	-104(%rbp), %rsi
	movq	-88(%rbp), %rdi
	.loc	41 628 9
	movb	$0, -49(%rbp)
Ltmp1071:
	callq	__ZN4core4iter8adapters3zip16Zip$LT$A$C$B$GT$3new17h6f99491c31f9be45E
Ltmp1072:
	jmp	LBB114_4
LBB114_4:
	.loc	41 0 9
	movq	-80(%rbp), %rax
	.loc	41 629 6 is_stmt 1
	addq	$128, %rsp
	popq	%rbp
	retq
LBB114_5:
	.loc	41 623 5
	movq	-16(%rbp), %rdi
	callq	__Unwind_Resume
LBB114_6:
	.loc	41 628 41
	jmp	LBB114_5
Ltmp1075:
Lfunc_end114:
	.cfi_endproc
	.section	__TEXT,__gcc_except_tab
	.p2align	2
GCC_except_table114:
Lexception24:
	.byte	255
	.byte	255
	.byte	1
	.uleb128 Lcst_end24-Lcst_begin24
Lcst_begin24:
	.uleb128 Ltmp1069-Lfunc_begin114
	.uleb128 Ltmp1072-Ltmp1069
	.uleb128 Ltmp1073-Lfunc_begin114
	.byte	0
	.uleb128 Ltmp1072-Lfunc_begin114
	.uleb128 Lfunc_end114-Ltmp1072
	.byte	0
	.byte	0
Lcst_end24:
	.p2align	2

	.section	__TEXT,__text,regular,pure_instructions
	.p2align	4, 0x90
__ZN4core4iter6traits8iterator8Iterator8try_fold17h83a7c945b3ef9599E:
Lfunc_begin115:
	.loc	41 2254 0
	.cfi_startproc
	.cfi_personality 155, _rust_eh_personality
	.cfi_lsda 16, Lexception25
	pushq	%rbp
	.cfi_def_cfa_offset 16
	.cfi_offset %rbp, -16
	movq	%rsp, %rbp
	.cfi_def_cfa_register %rbp
	subq	$176, %rsp
	movq	%rdi, -144(%rbp)
	movq	%rsi, -136(%rbp)
	movq	%rdi, -72(%rbp)
Ltmp1087:
	.loc	41 2260 25 prologue_end
	movb	$1, -73(%rbp)
LBB115_1:
Ltmp1076:
	.loc	41 0 25 is_stmt 0
	movq	-144(%rbp), %rdi
Ltmp1088:
	.loc	41 2261 29 is_stmt 1
	callq	__ZN94_$LT$core..slice..iter..Windows$LT$T$GT$$u20$as$u20$core..iter..traits..iterator..Iterator$GT$4next17h6cfc4cb1c8b834cbE
Ltmp1077:
	movq	%rdx, -160(%rbp)
	movq	%rax, -152(%rbp)
	jmp	LBB115_4
Ltmp1089:
LBB115_2:
	.loc	41 2265 5
	testb	$1, -73(%rbp)
	jne	LBB115_16
	jmp	LBB115_15
LBB115_3:
Ltmp1086:
	.loc	41 0 5 is_stmt 0
	movq	%rax, %rcx
	movl	%edx, %eax
	movq	%rcx, -32(%rbp)
	movl	%eax, -24(%rbp)
	jmp	LBB115_2
LBB115_4:
	movq	-160(%rbp), %rax
	movq	-152(%rbp), %rcx
Ltmp1090:
	.loc	41 2261 29 is_stmt 1
	movq	%rcx, -120(%rbp)
	movq	%rax, -112(%rbp)
	.loc	41 2261 19 is_stmt 0
	movq	-120(%rbp), %rdx
	movl	$1, %eax
	xorl	%ecx, %ecx
	cmpq	$0, %rdx
	cmoveq	%rcx, %rax
	cmpq	$1, %rax
	jne	LBB115_6
	.loc	41 2261 24
	movq	-120(%rbp), %rcx
	movq	-112(%rbp), %rax
	movq	%rcx, -16(%rbp)
	movq	%rax, -8(%rbp)
	.loc	41 2262 23 is_stmt 1
	movb	$0, -73(%rbp)
	.loc	41 2262 21 is_stmt 0
	movq	%rcx, -96(%rbp)
	movq	%rax, -88(%rbp)
	movq	-96(%rbp), %rsi
	movq	-88(%rbp), %rdx
Ltmp1080:
	leaq	-136(%rbp), %rdi
	callq	__ZN4core4iter6traits8iterator8Iterator3any5check28_$u7b$$u7b$closure$u7d$$u7d$17h522b18693ae7ae84E
Ltmp1081:
	movb	%al, -161(%rbp)
	jmp	LBB115_10
Ltmp1091:
LBB115_6:
	.loc	41 2261 9 is_stmt 1
	jmp	LBB115_7
LBB115_7:
	.loc	41 2264 15
	movb	$0, -73(%rbp)
Ltmp1078:
	callq	__ZN95_$LT$core..ops..control_flow..ControlFlow$LT$B$C$C$GT$$u20$as$u20$core..ops..try_trait..Try$GT$11from_output17he1ee3190b287d260E
Ltmp1079:
	movb	%al, -162(%rbp)
	jmp	LBB115_8
LBB115_8:
	.loc	41 0 15 is_stmt 0
	movb	-162(%rbp), %al
	.loc	41 2264 15
	andb	$1, %al
	movb	%al, -121(%rbp)
Ltmp1092:
LBB115_9:
	.loc	41 2265 6 is_stmt 1
	movb	-121(%rbp), %al
	andb	$1, %al
	movzbl	%al, %eax
	addq	$176, %rsp
	popq	%rbp
	retq
LBB115_10:
Ltmp1082:
	.loc	41 0 6 is_stmt 0
	movb	-161(%rbp), %al
Ltmp1093:
	.loc	41 2262 21 is_stmt 1
	movzbl	%al, %edi
	andl	$1, %edi
	callq	__ZN95_$LT$core..ops..control_flow..ControlFlow$LT$B$C$C$GT$$u20$as$u20$core..ops..try_trait..Try$GT$6branch17h0784ead5c6f90877E
Ltmp1083:
	movb	%al, -163(%rbp)
	jmp	LBB115_11
LBB115_11:
	.loc	41 0 21 is_stmt 0
	movb	-163(%rbp), %al
	.loc	41 2262 21
	andb	$1, %al
	movb	%al, -97(%rbp)
	movb	-97(%rbp), %al
	andb	$1, %al
	movzbl	%al, %eax
	cmpq	$0, %rax
	jne	LBB115_13
	.loc	41 2262 13
	movb	$1, -73(%rbp)
Ltmp1094:
	.loc	41 2261 9 is_stmt 1
	jmp	LBB115_1
LBB115_13:
Ltmp1084:
Ltmp1095:
	.loc	41 2262 21
	callq	__ZN104_$LT$core..ops..control_flow..ControlFlow$LT$B$C$C$GT$$u20$as$u20$core..ops..try_trait..FromResidual$GT$13from_residual17he89cd1f0bfecdda8E
Ltmp1085:
	movb	%al, -164(%rbp)
	jmp	LBB115_14
LBB115_14:
	.loc	41 0 21 is_stmt 0
	movb	-164(%rbp), %al
	.loc	41 2262 21
	andb	$1, %al
	movb	%al, -121(%rbp)
Ltmp1096:
	.loc	41 2265 5 is_stmt 1
	jmp	LBB115_9
LBB115_15:
	.loc	41 2254 5
	movq	-32(%rbp), %rdi
	callq	__Unwind_Resume
LBB115_16:
	.loc	41 2265 5
	jmp	LBB115_15
Ltmp1097:
Lfunc_end115:
	.cfi_endproc
	.section	__TEXT,__gcc_except_tab
	.p2align	2
GCC_except_table115:
Lexception25:
	.byte	255
	.byte	255
	.byte	1
	.uleb128 Lcst_end25-Lcst_begin25
Lcst_begin25:
	.uleb128 Ltmp1076-Lfunc_begin115
	.uleb128 Ltmp1085-Ltmp1076
	.uleb128 Ltmp1086-Lfunc_begin115
	.byte	0
	.uleb128 Ltmp1085-Lfunc_begin115
	.uleb128 Lfunc_end115-Ltmp1085
	.byte	0
	.byte	0
Lcst_end25:
	.p2align	2

	.section	__TEXT,__text,regular,pure_instructions
	.p2align	4, 0x90
__ZN4core4iter8adapters3rev12Rev$LT$T$GT$3new17hd5e629d143a140f8E:
Lfunc_begin116:
	.loc	46 19 0
	.cfi_startproc
	pushq	%rbp
	.cfi_def_cfa_offset 16
	.cfi_offset %rbp, -16
	movq	%rsp, %rbp
	.cfi_def_cfa_register %rbp
	subq	$32, %rsp
	movq	%rdi, -16(%rbp)
	movq	%rsi, -8(%rbp)
Ltmp1098:
	.loc	46 20 9 prologue_end
	movq	%rdi, -32(%rbp)
	movq	%rsi, -24(%rbp)
	.loc	46 21 6
	movq	-32(%rbp), %rax
	movq	-24(%rbp), %rdx
	addq	$32, %rsp
	popq	%rbp
	retq
Ltmp1099:
Lfunc_end116:
	.cfi_endproc

	.p2align	4, 0x90
__ZN4core4iter8adapters3zip16Zip$LT$A$C$B$GT$3new17h6f99491c31f9be45E:
Lfunc_begin117:
	.loc	7 22 0
	.cfi_startproc
	pushq	%rbp
	.cfi_def_cfa_offset 16
	.cfi_offset %rbp, -16
	movq	%rsp, %rbp
	.cfi_def_cfa_register %rbp
	subq	$48, %rsp
	movq	%rdi, %rax
	movq	%rax, -40(%rbp)
	movq	%rsi, -32(%rbp)
	movq	%rdx, -24(%rbp)
	movq	%rcx, -16(%rbp)
	movq	%r8, -8(%rbp)
Ltmp1100:
	.loc	7 23 9 prologue_end
	callq	__ZN111_$LT$core..iter..adapters..zip..Zip$LT$A$C$B$GT$$u20$as$u20$core..iter..adapters..zip..ZipImpl$LT$A$C$B$GT$$GT$3new17h50c4598207280dcaE
	movq	-40(%rbp), %rax
	.loc	7 24 6
	addq	$48, %rsp
	popq	%rbp
	retq
Ltmp1101:
Lfunc_end117:
	.cfi_endproc

	.p2align	4, 0x90
__ZN4core4iter8adapters3zip27TrustedRandomAccessNoCoerce4size17he482a14fc9f2812fE:
Lfunc_begin118:
	.loc	7 538 0
	.cfi_startproc
	pushq	%rbp
	.cfi_def_cfa_offset 16
	.cfi_offset %rbp, -16
	movq	%rsp, %rbp
	.cfi_def_cfa_register %rbp
	subq	$32, %rsp
	movq	%rdi, %rsi
	movq	%rsi, -8(%rbp)
Ltmp1102:
	.loc	7 542 9 prologue_end
	leaq	-32(%rbp), %rdi
	callq	__ZN91_$LT$core..slice..iter..Iter$LT$T$GT$$u20$as$u20$core..iter..traits..iterator..Iterator$GT$9size_hint17h98c7d48e268c0db7E
	movq	-32(%rbp), %rax
	.loc	7 543 6
	addq	$32, %rsp
	popq	%rbp
	retq
Ltmp1103:
Lfunc_end118:
	.cfi_endproc

	.p2align	4, 0x90
__ZN4core5alloc6layout10size_align17h455ea1a6d10a5442E:
Lfunc_begin119:
	.file	48 "/rustc/2c8cc343237b8f7d5a3c3703e3a87f2eb2c54a74/library/core/src/alloc" "layout.rs"
	.loc	48 19 0
	.cfi_startproc
	pushq	%rbp
	.cfi_def_cfa_offset 16
	.cfi_offset %rbp, -16
	movq	%rsp, %rbp
	.cfi_def_cfa_register %rbp
	subq	$16, %rsp
Ltmp1104:
	.loc	48 20 5 prologue_end
	movq	$544, -16(%rbp)
	movq	$8, -8(%rbp)
	.loc	48 21 2
	movq	-16(%rbp), %rax
	movq	-8(%rbp), %rdx
	addq	$16, %rsp
	popq	%rbp
	retq
Ltmp1105:
Lfunc_end119:
	.cfi_endproc

	.p2align	4, 0x90
__ZN4core5alloc6layout10size_align17hdc333c398a0c7f65E:
Lfunc_begin120:
	.loc	48 19 0
	.cfi_startproc
	pushq	%rbp
	.cfi_def_cfa_offset 16
	.cfi_offset %rbp, -16
	movq	%rsp, %rbp
	.cfi_def_cfa_register %rbp
	subq	$16, %rsp
Ltmp1106:
	.loc	48 20 5 prologue_end
	movq	$640, -16(%rbp)
	movq	$8, -8(%rbp)
	.loc	48 21 2
	movq	-16(%rbp), %rax
	movq	-8(%rbp), %rdx
	addq	$16, %rsp
	popq	%rbp
	retq
Ltmp1107:
Lfunc_end120:
	.cfi_endproc

	.p2align	4, 0x90
__ZN4core5alloc6layout6Layout5array5inner17h19a887c158b9295eE:
Lfunc_begin121:
	.loc	48 441 0
	.cfi_startproc
	pushq	%rbp
	.cfi_def_cfa_offset 16
	.cfi_offset %rbp, -16
	movq	%rsp, %rbp
	.cfi_def_cfa_register %rbp
	subq	$176, %rsp
	movq	%rdi, -168(%rbp)
	movq	%rsi, -160(%rbp)
	movq	%rdx, -152(%rbp)
	movq	%rdi, -88(%rbp)
	movq	%rsi, -80(%rbp)
	movq	%rdx, -72(%rbp)
Ltmp1108:
	.loc	48 452 16 prologue_end
	cmpq	$0, %rdi
	jne	LBB121_2
	movb	$0, -121(%rbp)
	jmp	LBB121_5
LBB121_2:
	.loc	48 0 16 is_stmt 0
	movq	-168(%rbp), %rax
	movq	-160(%rbp), %rcx
	.loc	48 452 68
	movq	%rcx, -64(%rbp)
Ltmp1109:
	.loc	48 93 32 is_stmt 1
	movq	%rcx, -56(%rbp)
Ltmp1110:
	.file	49 "/rustc/2c8cc343237b8f7d5a3c3703e3a87f2eb2c54a74/library/core/src/ptr" "alignment.rs"
	.loc	49 97 9
	movq	%rcx, -104(%rbp)
	movq	-104(%rbp), %rdx
Ltmp1111:
	.loc	48 93 31
	subq	$1, %rdx
	.loc	48 93 9 is_stmt 0
	movabsq	$9223372036854775807, %rcx
	subq	%rdx, %rcx
	movq	%rcx, -176(%rbp)
Ltmp1112:
	.loc	48 452 41 is_stmt 1
	cmpq	$0, %rax
	sete	%al
	testb	$1, %al
	jne	LBB121_4
	.loc	48 0 41 is_stmt 0
	movq	-168(%rbp), %rcx
	movq	-176(%rbp), %rax
	.loc	48 452 41
	xorl	%edx, %edx
	divq	%rcx
	movq	%rax, %rcx
	movq	-152(%rbp), %rax
	.loc	48 452 37
	cmpq	%rcx, %rax
	seta	%al
	.loc	48 452 16
	andb	$1, %al
	movb	%al, -121(%rbp)
	jmp	LBB121_5
LBB121_4:
	.loc	48 452 41
	leaq	_str.0(%rip), %rdi
	leaq	l___unnamed_27(%rip), %rdx
	movl	$25, %esi
	callq	__ZN4core9panicking5panic17hc1bc45270cf64b03E
LBB121_5:
	.loc	48 452 16
	testb	$1, -121(%rbp)
	jne	LBB121_7
	.loc	48 0 16
	movq	-160(%rbp), %rax
	movq	-152(%rbp), %rdx
	movq	-168(%rbp), %rcx
	.loc	48 456 30 is_stmt 1
	imulq	%rdx, %rcx
	movq	%rcx, -48(%rbp)
Ltmp1113:
	.loc	48 461 59
	movq	%rcx, -40(%rbp)
	.loc	48 461 71 is_stmt 0
	movq	%rax, -32(%rbp)
Ltmp1114:
	.loc	49 97 9 is_stmt 1
	movq	%rax, -96(%rbp)
	movq	-96(%rbp), %rax
	movq	%rax, -24(%rbp)
Ltmp1115:
	.loc	48 120 65
	movq	%rax, -16(%rbp)
Ltmp1116:
	.loc	49 89 18
	movq	%rax, -8(%rbp)
	movq	-8(%rbp), %rax
Ltmp1117:
	.loc	48 120 18
	movq	%rcx, -120(%rbp)
	movq	%rax, -112(%rbp)
Ltmp1118:
	.loc	48 461 22
	movq	-120(%rbp), %rcx
	movq	-112(%rbp), %rax
	movq	%rcx, -144(%rbp)
	movq	%rax, -136(%rbp)
Ltmp1119:
	.loc	48 462 10
	jmp	LBB121_8
LBB121_7:
	.loc	48 453 24
	movq	$0, -136(%rbp)
LBB121_8:
	.loc	48 462 10
	movq	-144(%rbp), %rax
	movq	-136(%rbp), %rdx
	addq	$176, %rsp
	popq	%rbp
	retq
Ltmp1120:
Lfunc_end121:
	.cfi_endproc

	.p2align	4, 0x90
__ZN4core5slice29_$LT$impl$u20$$u5b$T$u5d$$GT$7windows17heb72760a1eeaee4cE:
Lfunc_begin122:
	.loc	35 808 0
	.cfi_startproc
	pushq	%rbp
	.cfi_def_cfa_offset 16
	.cfi_offset %rbp, -16
	movq	%rsp, %rbp
	.cfi_def_cfa_register %rbp
	subq	$144, %rsp
	movq	%rcx, -136(%rbp)
	movq	%rdx, -128(%rbp)
	movq	%rsi, -120(%rbp)
	movq	%rdi, -112(%rbp)
	movq	%rdi, -104(%rbp)
	movq	%rsi, -80(%rbp)
	movq	%rdx, -72(%rbp)
	movq	%rcx, -64(%rbp)
Ltmp1121:
	.loc	35 809 38 prologue_end
	movq	%rcx, -56(%rbp)
Ltmp1122:
	.file	50 "/rustc/2c8cc343237b8f7d5a3c3703e3a87f2eb2c54a74/library/core/src/num" "nonzero.rs"
	.loc	50 73 24
	cmpq	$0, %rcx
	jne	LBB122_2
	.loc	50 77 25
	movq	$0, -96(%rbp)
	.loc	50 73 21
	jmp	LBB122_3
LBB122_2:
	.loc	50 0 21 is_stmt 0
	movq	-136(%rbp), %rax
	.loc	50 75 39 is_stmt 1
	movq	%rax, -88(%rbp)
	.loc	50 75 25 is_stmt 0
	movq	-88(%rbp), %rax
	movq	%rax, -96(%rbp)
Ltmp1123:
LBB122_3:
	.loc	35 809 51 is_stmt 1
	leaq	l___unnamed_28(%rip), %rax
	movq	%rax, -48(%rbp)
	movq	$12, -40(%rbp)
Ltmp1124:
	.loc	14 784 15
	movl	$1, %eax
	xorl	%ecx, %ecx
	cmpq	$0, -96(%rbp)
	cmoveq	%rcx, %rax
	.loc	14 784 9 is_stmt 0
	cmpq	$0, %rax
	jne	LBB122_5
	.loc	14 786 21 is_stmt 1
	leaq	l___unnamed_28(%rip), %rdi
	leaq	l___unnamed_29(%rip), %rdx
	movl	$12, %esi
	callq	__ZN4core6option13expect_failed17h5792a81bec0ff713E
LBB122_5:
	.loc	14 0 21 is_stmt 0
	movq	-104(%rbp), %rax
	movq	-112(%rbp), %rcx
	movq	-128(%rbp), %rsi
	movq	-120(%rbp), %rdi
	.loc	14 785 18 is_stmt 1
	movq	-96(%rbp), %rdx
	movq	%rdx, -32(%rbp)
Ltmp1125:
	.loc	35 810 22
	movq	%rdi, -24(%rbp)
	movq	%rsi, -16(%rbp)
	.loc	35 810 28 is_stmt 0
	movq	%rdx, -8(%rbp)
Ltmp1126:
	.file	51 "/rustc/2c8cc343237b8f7d5a3c3703e3a87f2eb2c54a74/library/core/src/slice" "iter.rs"
	.loc	51 1300 9 is_stmt 1
	movq	%rdi, (%rcx)
	movq	%rsi, 8(%rcx)
	movq	%rdx, 16(%rcx)
Ltmp1127:
	.loc	35 811 6
	addq	$144, %rsp
	popq	%rbp
	retq
Ltmp1128:
Lfunc_end122:
	.cfi_endproc

	.p2align	4, 0x90
__ZN4core5slice29_$LT$impl$u20$$u5b$T$u5d$$GT$9ends_with17h9c9d3a5f3dd997f2E:
Lfunc_begin123:
	.loc	35 2287 0
	.cfi_startproc
	pushq	%rbp
	.cfi_def_cfa_offset 16
	.cfi_offset %rbp, -16
	movq	%rsp, %rbp
	.cfi_def_cfa_register %rbp
	subq	$160, %rsp
	movq	%rdi, -160(%rbp)
	movq	%rsi, -152(%rbp)
	movq	%rdx, -128(%rbp)
	movq	%rcx, -120(%rbp)
	movq	%rdi, -64(%rbp)
	movq	%rsi, -56(%rbp)
Ltmp1129:
	.loc	35 2291 35 prologue_end
	movq	-120(%rbp), %rax
	.loc	35 2291 22 is_stmt 0
	movq	%rsi, -104(%rbp)
	movq	%rax, -96(%rbp)
	.loc	35 2291 14
	movq	-104(%rbp), %rax
	movq	%rax, -144(%rbp)
	movq	%rax, -48(%rbp)
	.loc	35 2291 17
	movq	-96(%rbp), %rcx
	movq	%rcx, -136(%rbp)
	movq	%rcx, -40(%rbp)
Ltmp1130:
	.loc	35 2292 9 is_stmt 1
	cmpq	%rcx, %rax
	jae	LBB123_2
	movb	$0, -105(%rbp)
	jmp	LBB123_3
LBB123_2:
	.loc	35 0 9 is_stmt 0
	movq	-152(%rbp), %rdx
	movq	-160(%rbp), %rsi
	movq	-136(%rbp), %rcx
	movq	-144(%rbp), %rax
	.loc	35 2292 19
	leaq	-128(%rbp), %rdi
	movq	%rdi, -32(%rbp)
	.loc	35 2292 30
	movq	%rsi, -24(%rbp)
	movq	%rdx, -16(%rbp)
	.loc	35 2292 35
	subq	%rcx, %rax
	movq	%rax, -72(%rbp)
Ltmp1131:
	.loc	2 18 9 is_stmt 1
	movq	-72(%rbp), %rdi
	leaq	l___unnamed_30(%rip), %rcx
	callq	__ZN110_$LT$core..ops..range..RangeFrom$LT$usize$GT$$u20$as$u20$core..slice..index..SliceIndex$LT$$u5b$T$u5d$$GT$$GT$5index17h7431057b8e79af9cE
Ltmp1132:
	.loc	35 2292 29
	movq	%rax, -88(%rbp)
	movq	%rdx, -80(%rbp)
	leaq	-88(%rbp), %rax
	movq	%rax, -8(%rbp)
Ltmp1133:
	.loc	8 1531 27
	movq	-128(%rbp), %rdi
	movq	-120(%rbp), %rsi
	.loc	8 1531 34 is_stmt 0
	movq	-88(%rbp), %rdx
	movq	-80(%rbp), %rcx
	.loc	8 1531 13
	callq	__ZN4core5slice3cmp81_$LT$impl$u20$core..cmp..PartialEq$LT$$u5b$B$u5d$$GT$$u20$for$u20$$u5b$A$u5d$$GT$2eq17hdaf75c64de00a2dcE
Ltmp1134:
	.loc	35 2292 9 is_stmt 1
	andb	$1, %al
	movb	%al, -105(%rbp)
Ltmp1135:
LBB123_3:
	.loc	35 2293 6
	movb	-105(%rbp), %al
	andb	$1, %al
	movzbl	%al, %eax
	addq	$160, %rsp
	popq	%rbp
	retq
Ltmp1136:
Lfunc_end123:
	.cfi_endproc

	.p2align	4, 0x90
__ZN4core5slice3cmp81_$LT$impl$u20$core..cmp..PartialEq$LT$$u5b$B$u5d$$GT$$u20$for$u20$$u5b$A$u5d$$GT$2eq17hdaf75c64de00a2dcE:
Lfunc_begin124:
	.file	52 "/rustc/2c8cc343237b8f7d5a3c3703e3a87f2eb2c54a74/library/core/src/slice" "cmp.rs"
	.loc	52 25 0
	.cfi_startproc
	pushq	%rbp
	.cfi_def_cfa_offset 16
	.cfi_offset %rbp, -16
	movq	%rsp, %rbp
	.cfi_def_cfa_register %rbp
	subq	$32, %rsp
	movq	%rdi, -32(%rbp)
	movq	%rsi, -24(%rbp)
	movq	%rdx, -16(%rbp)
	movq	%rcx, -8(%rbp)
Ltmp1137:
	.loc	52 26 9 prologue_end
	callq	__ZN73_$LT$$u5b$A$u5d$$u20$as$u20$core..slice..cmp..SlicePartialEq$LT$B$GT$$GT$5equal17h0fa2081ba0d2789aE
	.loc	52 27 6
	andb	$1, %al
	movzbl	%al, %eax
	addq	$32, %rsp
	popq	%rbp
	retq
Ltmp1138:
Lfunc_end124:
	.cfi_endproc

	.p2align	4, 0x90
__ZN4core5slice4iter13Iter$LT$T$GT$3new17h3705962b0e327af4E:
Lfunc_begin125:
	.loc	51 82 0
	.cfi_startproc
	pushq	%rbp
	.cfi_def_cfa_offset 16
	.cfi_offset %rbp, -16
	movq	%rsp, %rbp
	.cfi_def_cfa_register %rbp
	subq	$280, %rsp
	movq	%rdi, -280(%rbp)
	movq	%rsi, -272(%rbp)
	movq	%rdi, -208(%rbp)
	movq	%rsi, -200(%rbp)
Ltmp1139:
	.loc	51 83 19 prologue_end
	movq	%rdi, -184(%rbp)
	movq	%rsi, -176(%rbp)
Ltmp1140:
	.loc	35 477 9
	movq	%rdi, -168(%rbp)
Ltmp1141:
	.loc	51 86 21
	movq	%rdi, -160(%rbp)
Ltmp1142:
	.loc	3 53 36
	movq	%rdi, -232(%rbp)
	.loc	3 53 18 is_stmt 0
	movq	-232(%rbp), %rax
	movq	%rax, -152(%rbp)
Ltmp1143:
	.loc	3 39 13 is_stmt 1
	movq	%rax, -144(%rbp)
Ltmp1144:
	.loc	3 209 33
	movq	%rax, -136(%rbp)
	.loc	3 209 18 is_stmt 0
	movq	%rax, -128(%rbp)
Ltmp1145:
	.loc	51 89 20 is_stmt 1
	xorl	%eax, %eax
	testb	$1, %al
	jne	LBB125_2
	.loc	51 0 20 is_stmt 0
	movq	-272(%rbp), %rcx
	movq	-280(%rbp), %rax
	.loc	51 89 76
	movq	%rax, -40(%rbp)
	.loc	51 89 84
	movq	%rcx, -32(%rbp)
Ltmp1146:
	.loc	3 932 18 is_stmt 1
	movq	%rax, -24(%rbp)
	.loc	3 932 30 is_stmt 0
	movq	%rcx, -16(%rbp)
Ltmp1147:
	.loc	3 473 18 is_stmt 1
	addq	%rcx, %rax
	movq	%rax, -248(%rbp)
Ltmp1148:
	.loc	51 89 17
	jmp	LBB125_3
LBB125_2:
	.loc	51 0 17 is_stmt 0
	movq	-272(%rbp), %rcx
	movq	-280(%rbp), %rax
	.loc	51 89 32
	movq	%rax, -120(%rbp)
	.loc	51 89 54
	movq	%rcx, -112(%rbp)
Ltmp1149:
	.loc	3 1118 9 is_stmt 1
	movq	%rax, -104(%rbp)
Ltmp1150:
	.loc	3 61 9
	movq	%rax, -96(%rbp)
Ltmp1151:
	.loc	3 1118 40
	movq	%rcx, -88(%rbp)
Ltmp1152:
	.loc	3 1100 9
	movq	%rax, -80(%rbp)
	.loc	3 1100 30 is_stmt 0
	movq	%rcx, -72(%rbp)
Ltmp1153:
	.loc	3 555 18 is_stmt 1
	addq	%rcx, %rax
	movq	%rax, -64(%rbp)
	movq	-64(%rbp), %rax
	movq	%rax, -56(%rbp)
Ltmp1154:
	.loc	3 100 29
	movq	%rax, -48(%rbp)
Ltmp1155:
	.loc	5 118 36
	movq	%rax, -216(%rbp)
	.loc	5 118 14 is_stmt 0
	movq	-216(%rbp), %rax
	movq	%rax, -224(%rbp)
	movq	-224(%rbp), %rax
	movq	%rax, -248(%rbp)
Ltmp1156:
LBB125_3:
	.loc	5 0 14
	movq	-280(%rbp), %rax
Ltmp1157:
	.loc	51 91 48 is_stmt 1
	movq	%rax, -8(%rbp)
Ltmp1158:
	.loc	15 201 13
	movq	%rax, -240(%rbp)
Ltmp1159:
	.loc	51 91 64
	movq	-248(%rbp), %rax
	.loc	51 91 13 is_stmt 0
	movq	-240(%rbp), %rcx
	movq	%rcx, -256(%rbp)
	movq	%rax, -264(%rbp)
Ltmp1160:
	.loc	51 93 6 is_stmt 1
	movq	-264(%rbp), %rax
	movq	-256(%rbp), %rdx
	addq	$280, %rsp
	popq	%rbp
	retq
Ltmp1161:
Lfunc_end125:
	.cfi_endproc

	.p2align	4, 0x90
__ZN4core5slice4iter87_$LT$impl$u20$core..iter..traits..collect..IntoIterator$u20$for$u20$$RF$$u5b$T$u5d$$GT$9into_iter17h27847c4cd17f8908E:
Lfunc_begin126:
	.loc	51 23 0
	.cfi_startproc
	pushq	%rbp
	.cfi_def_cfa_offset 16
	.cfi_offset %rbp, -16
	movq	%rsp, %rbp
	.cfi_def_cfa_register %rbp
	subq	$32, %rsp
	movq	%rdi, -32(%rbp)
	movq	%rsi, -24(%rbp)
Ltmp1162:
	.loc	51 24 9 prologue_end
	movq	%rdi, -16(%rbp)
	movq	%rsi, -8(%rbp)
Ltmp1163:
	.loc	35 742 9
	callq	__ZN4core5slice4iter13Iter$LT$T$GT$3new17h3705962b0e327af4E
Ltmp1164:
	.loc	51 25 6
	addq	$32, %rsp
	popq	%rbp
	retq
Ltmp1165:
Lfunc_end126:
	.cfi_endproc

	.p2align	4, 0x90
__ZN4core5slice6memchr12memchr_naive17hf9a8638201dadac1E:
Lfunc_begin127:
	.file	53 "/rustc/2c8cc343237b8f7d5a3c3703e3a87f2eb2c54a74/library/core/src/slice" "memchr.rs"
	.loc	53 48 0
	.cfi_startproc
	pushq	%rbp
	.cfi_def_cfa_offset 16
	.cfi_offset %rbp, -16
	movq	%rsp, %rbp
	.cfi_def_cfa_register %rbp
	subq	$80, %rsp
	movq	%rdx, -72(%rbp)
	movq	%rsi, -64(%rbp)
	movb	%dil, %al
	movb	%al, -49(%rbp)
	movb	%al, -17(%rbp)
	movq	%rsi, -16(%rbp)
	movq	%rdx, -8(%rbp)
Ltmp1166:
	.loc	53 49 17 prologue_end
	movq	$0, -32(%rbp)
LBB127_1:
	.loc	53 0 17 is_stmt 0
	movq	-72(%rbp), %rax
Ltmp1167:
	.loc	53 52 11 is_stmt 1
	cmpq	%rax, -32(%rbp)
	jb	LBB127_3
	.loc	53 60 5
	movq	$0, -48(%rbp)
Ltmp1168:
	.loc	53 61 2
	jmp	LBB127_8
LBB127_3:
	.loc	53 0 2 is_stmt 0
	movq	-72(%rbp), %rcx
Ltmp1169:
	.loc	53 53 17 is_stmt 1
	movq	-32(%rbp), %rax
	movq	%rax, -80(%rbp)
	.loc	53 53 12 is_stmt 0
	cmpq	%rcx, %rax
	setb	%al
	testb	$1, %al
	jne	LBB127_4
	jmp	LBB127_5
LBB127_4:
	.loc	53 0 12
	movq	-64(%rbp), %rax
	movq	-80(%rbp), %rcx
	movb	-49(%rbp), %dl
	.loc	53 53 12
	cmpb	%dl, (%rax,%rcx)
	je	LBB127_7
	jmp	LBB127_6
LBB127_5:
	.loc	53 0 12
	movq	-72(%rbp), %rsi
	movq	-80(%rbp), %rdi
	.loc	53 53 12
	leaq	l___unnamed_31(%rip), %rdx
	callq	__ZN4core9panicking18panic_bounds_check17hacb8a94866cda541E
LBB127_6:
	.loc	53 57 9 is_stmt 1
	movq	-32(%rbp), %rax
	addq	$1, %rax
	movq	%rax, -32(%rbp)
	.loc	53 52 5
	jmp	LBB127_1
LBB127_7:
	.loc	53 54 25
	movq	-32(%rbp), %rax
	.loc	53 54 20 is_stmt 0
	movq	%rax, -40(%rbp)
	movq	$1, -48(%rbp)
Ltmp1170:
LBB127_8:
	.loc	53 61 2 is_stmt 1
	movq	-48(%rbp), %rax
	movq	-40(%rbp), %rdx
	addq	$80, %rsp
	popq	%rbp
	retq
Ltmp1171:
Lfunc_end127:
	.cfi_endproc

	.p2align	4, 0x90
__ZN4core5slice6memchr6memchr17hda014a9377b07a94E:
Lfunc_begin128:
	.loc	53 38 0
	.cfi_startproc
	pushq	%rbp
	.cfi_def_cfa_offset 16
	.cfi_offset %rbp, -16
	movq	%rsp, %rbp
	.cfi_def_cfa_register %rbp
	subq	$64, %rsp
	movq	%rdx, -64(%rbp)
	movq	%rsi, -56(%rbp)
	movb	%dil, %al
	movb	%al, -41(%rbp)
	movb	%al, -17(%rbp)
	movq	%rsi, -16(%rbp)
	movq	%rdx, -8(%rbp)
Ltmp1172:
	.loc	53 40 8 prologue_end
	cmpq	$16, %rdx
	jb	LBB128_2
	.loc	53 0 8 is_stmt 0
	movq	-64(%rbp), %rdx
	movq	-56(%rbp), %rsi
	movb	-41(%rbp), %al
	.loc	53 44 5 is_stmt 1
	movzbl	%al, %edi
	callq	__ZN4core5slice6memchr14memchr_aligned17h35d16807f0081d88E
	movq	%rdx, -32(%rbp)
	movq	%rax, -40(%rbp)
	.loc	53 45 2
	jmp	LBB128_3
LBB128_2:
	.loc	53 0 2 is_stmt 0
	movq	-64(%rbp), %rdx
	movq	-56(%rbp), %rsi
	movb	-41(%rbp), %al
	.loc	53 41 16 is_stmt 1
	movzbl	%al, %edi
	callq	__ZN4core5slice6memchr12memchr_naive17hf9a8638201dadac1E
	movq	%rdx, -32(%rbp)
	movq	%rax, -40(%rbp)
LBB128_3:
	.loc	53 45 2
	movq	-40(%rbp), %rax
	movq	-32(%rbp), %rdx
	addq	$64, %rsp
	popq	%rbp
	retq
Ltmp1173:
Lfunc_end128:
	.cfi_endproc

	.p2align	4, 0x90
__ZN4core6option15Option$LT$T$GT$16unwrap_unchecked17h5d25bf1a73efd46aE:
Lfunc_begin129:
	.loc	14 933 0
	.cfi_startproc
	.cfi_personality 155, _rust_eh_personality
	.cfi_lsda 16, Lexception26
	pushq	%rbp
	.cfi_def_cfa_offset 16
	.cfi_offset %rbp, -16
	movq	%rsp, %rbp
	.cfi_def_cfa_register %rbp
	subq	$32, %rsp
	movq	%rdi, -32(%rbp)
Ltmp1177:
	.loc	14 935 15 prologue_end
	movq	-32(%rbp), %rdx
	movl	$1, %eax
	xorl	%ecx, %ecx
	cmpq	$0, %rdx
	cmoveq	%rcx, %rax
	.loc	14 935 9 is_stmt 0
	cmpq	$0, %rax
	jne	LBB129_2
Ltmp1174:
	.loc	14 938 30 is_stmt 1
	callq	__ZN4core4hint21unreachable_unchecked17hb588242ab2a0069dE
Ltmp1175:
	jmp	LBB129_5
LBB129_2:
	.loc	14 936 18
	movq	-32(%rbp), %rax
	movq	%rax, -24(%rbp)
	.loc	14 940 6
	addq	$32, %rsp
	popq	%rbp
	retq
LBB129_3:
	.loc	14 940 5 is_stmt 0
	movq	-32(%rbp), %rdx
	movl	$1, %eax
	xorl	%ecx, %ecx
	cmpq	$0, %rdx
	cmoveq	%rcx, %rax
	cmpq	$1, %rax
	je	LBB129_6
	jmp	LBB129_7
LBB129_4:
Ltmp1176:
	.loc	14 0 5
	movq	%rax, %rcx
	movl	%edx, %eax
	movq	%rcx, -16(%rbp)
	movl	%eax, -8(%rbp)
	jmp	LBB129_3
LBB129_5:
	ud2
LBB129_6:
	.loc	14 940 5
	movb	$1, %al
	testb	$1, %al
	jne	LBB129_8
	jmp	LBB129_7
LBB129_7:
	.loc	14 933 5 is_stmt 1
	movq	-16(%rbp), %rdi
	callq	__Unwind_Resume
LBB129_8:
	.loc	14 940 5
	jmp	LBB129_7
Ltmp1178:
Lfunc_end129:
	.cfi_endproc
	.section	__TEXT,__gcc_except_tab
	.p2align	2
GCC_except_table129:
Lexception26:
	.byte	255
	.byte	255
	.byte	1
	.uleb128 Lcst_end26-Lcst_begin26
Lcst_begin26:
	.uleb128 Ltmp1174-Lfunc_begin129
	.uleb128 Ltmp1175-Ltmp1174
	.uleb128 Ltmp1176-Lfunc_begin129
	.byte	0
	.uleb128 Ltmp1175-Lfunc_begin129
	.uleb128 Lfunc_end129-Ltmp1175
	.byte	0
	.byte	0
Lcst_end26:
	.p2align	2

	.section	__TEXT,__text,regular,pure_instructions
	.p2align	4, 0x90
__ZN4core6option15Option$LT$T$GT$3map17h132c45c6d7138022E:
Lfunc_begin130:
	.loc	14 964 0
	.cfi_startproc
	pushq	%rbp
	.cfi_def_cfa_offset 16
	.cfi_offset %rbp, -16
	movq	%rsp, %rbp
	.cfi_def_cfa_register %rbp
	subq	$112, %rsp
	movq	%rcx, -104(%rbp)
	movq	%rdx, -96(%rbp)
	movq	%rdi, -88(%rbp)
	movq	%rdi, -80(%rbp)
	movq	%rsi, -72(%rbp)
	movq	%rdx, -24(%rbp)
	movq	%rcx, -16(%rbp)
Ltmp1179:
	.loc	14 969 15 prologue_end
	movb	$1, -25(%rbp)
	movq	-72(%rbp), %rdx
	movl	$1, %eax
	xorl	%ecx, %ecx
	cmpq	$0, %rdx
	cmoveq	%rcx, %rax
	.loc	14 969 9 is_stmt 0
	cmpq	$0, %rax
	jne	LBB130_2
	.loc	14 0 9
	movq	-88(%rbp), %rax
	.loc	14 971 21 is_stmt 1
	movq	$0, 8(%rax)
	jmp	LBB130_3
LBB130_2:
	.loc	14 0 21 is_stmt 0
	movq	-104(%rbp), %rdx
	movq	-96(%rbp), %rsi
	.loc	14 970 18 is_stmt 1
	movq	-72(%rbp), %rax
	movq	%rax, -8(%rbp)
Ltmp1180:
	.loc	14 970 29 is_stmt 0
	movb	$0, -25(%rbp)
	movq	%rax, -40(%rbp)
	movq	-40(%rbp), %rcx
	leaq	-64(%rbp), %rdi
	callq	__ZN5alloc11collections5btree4node40NodeRef$LT$BorrowType$C$K$C$V$C$Type$GT$6ascend28_$u7b$$u7b$closure$u7d$$u7d$17h8b5f1e92e4114449E
	movq	-88(%rbp), %rax
	.loc	14 970 24
	movq	-64(%rbp), %rcx
	movq	%rcx, (%rax)
	movq	-56(%rbp), %rcx
	movq	%rcx, 8(%rax)
	movq	-48(%rbp), %rcx
	movq	%rcx, 16(%rax)
Ltmp1181:
LBB130_3:
	.loc	14 973 5 is_stmt 1
	testb	$1, -25(%rbp)
	jne	LBB130_5
LBB130_4:
	.loc	14 0 5 is_stmt 0
	movq	-80(%rbp), %rax
	.loc	14 973 6
	addq	$112, %rsp
	popq	%rbp
	retq
LBB130_5:
	.loc	14 973 5
	jmp	LBB130_4
Ltmp1182:
Lfunc_end130:
	.cfi_endproc

	.p2align	4, 0x90
__ZN4core6option15Option$LT$T$GT$3map17h4a8394c43e735d68E:
Lfunc_begin131:
	.loc	14 964 0 is_stmt 1
	.cfi_startproc
	pushq	%rbp
	.cfi_def_cfa_offset 16
	.cfi_offset %rbp, -16
	movq	%rsp, %rbp
	.cfi_def_cfa_register %rbp
	subq	$32, %rsp
	movl	%edi, -32(%rbp)
	movl	%esi, -28(%rbp)
Ltmp1183:
	.loc	14 969 15 prologue_end
	movb	$1, -9(%rbp)
	movl	-32(%rbp), %eax
	.loc	14 969 9 is_stmt 0
	cmpq	$0, %rax
	jne	LBB131_2
	.loc	14 971 21 is_stmt 1
	movl	$1114112, -20(%rbp)
	jmp	LBB131_3
LBB131_2:
	.loc	14 970 18
	movl	-28(%rbp), %eax
	movl	%eax, -4(%rbp)
Ltmp1184:
	.loc	14 970 29 is_stmt 0
	movb	$0, -9(%rbp)
	movl	%eax, -16(%rbp)
	movl	-16(%rbp), %edi
	callq	__ZN81_$LT$core..str..iter..Chars$u20$as$u20$core..iter..traits..iterator..Iterator$GT$4next28_$u7b$$u7b$closure$u7d$$u7d$17hab8f2dbd05cd299aE
	.loc	14 970 24
	movl	%eax, -20(%rbp)
Ltmp1185:
LBB131_3:
	.loc	14 973 5 is_stmt 1
	testb	$1, -9(%rbp)
	jne	LBB131_5
LBB131_4:
	.loc	14 973 6 is_stmt 0
	movl	-20(%rbp), %eax
	addq	$32, %rsp
	popq	%rbp
	retq
LBB131_5:
	.loc	14 973 5
	jmp	LBB131_4
Ltmp1186:
Lfunc_end131:
	.cfi_endproc

	.p2align	4, 0x90
__ZN4core6result19Result$LT$T$C$E$GT$16unwrap_unchecked17hf168c2bbfe6bfae9E:
Lfunc_begin132:
	.file	54 "/rustc/2c8cc343237b8f7d5a3c3703e3a87f2eb2c54a74/library/core/src" "result.rs"
	.loc	54 1530 0 is_stmt 1
	.cfi_startproc
	.cfi_personality 155, _rust_eh_personality
	.cfi_lsda 16, Lexception27
	pushq	%rbp
	.cfi_def_cfa_offset 16
	.cfi_offset %rbp, -16
	movq	%rsp, %rbp
	.cfi_def_cfa_register %rbp
	subq	$64, %rsp
	movq	%rdi, -48(%rbp)
	movq	%rsi, -40(%rbp)
Ltmp1190:
	.loc	54 1532 15 prologue_end
	xorl	%eax, %eax
	movl	$1, %ecx
	cmpq	$0, -40(%rbp)
	cmoveq	%rcx, %rax
	.loc	54 1532 9 is_stmt 0
	cmpq	$0, %rax
	jne	LBB132_2
	.loc	54 1533 16 is_stmt 1
	movq	-48(%rbp), %rcx
	movq	%rcx, -64(%rbp)
	movq	-40(%rbp), %rax
	movq	%rax, -56(%rbp)
	movq	%rcx, -16(%rbp)
	movq	%rax, -8(%rbp)
	.loc	54 1537 5
	xorl	%eax, %eax
	movl	$1, %ecx
	cmpq	$0, -40(%rbp)
	cmoveq	%rcx, %rax
	cmpq	$0, %rax
	je	LBB132_10
	jmp	LBB132_11
LBB132_2:
Ltmp1187:
	.loc	54 1535 32
	callq	__ZN4core4hint21unreachable_unchecked17hb588242ab2a0069dE
Ltmp1188:
	jmp	LBB132_5
LBB132_3:
	.loc	54 1537 5
	xorl	%eax, %eax
	movl	$1, %ecx
	cmpq	$0, -40(%rbp)
	cmoveq	%rcx, %rax
	cmpq	$0, %rax
	je	LBB132_6
	jmp	LBB132_7
LBB132_4:
Ltmp1189:
	.loc	54 0 5 is_stmt 0
	movq	%rax, %rcx
	movl	%edx, %eax
	movq	%rcx, -32(%rbp)
	movl	%eax, -24(%rbp)
	jmp	LBB132_3
LBB132_5:
	ud2
LBB132_6:
	.loc	54 1537 5
	movb	$1, %al
	testb	$1, %al
	jne	LBB132_9
	jmp	LBB132_8
LBB132_7:
	jmp	LBB132_8
LBB132_8:
	.loc	54 1530 5 is_stmt 1
	movq	-32(%rbp), %rdi
	callq	__Unwind_Resume
LBB132_9:
	.loc	54 1537 5
	jmp	LBB132_8
LBB132_10:
	.loc	54 0 5 is_stmt 0
	movq	-56(%rbp), %rdx
	movq	-64(%rbp), %rax
	.loc	54 1537 6
	addq	$64, %rsp
	popq	%rbp
	retq
LBB132_11:
	.loc	54 1537 5
	jmp	LBB132_10
Ltmp1191:
Lfunc_end132:
	.cfi_endproc
	.section	__TEXT,__gcc_except_tab
	.p2align	2
GCC_except_table132:
Lexception27:
	.byte	255
	.byte	255
	.byte	1
	.uleb128 Lcst_end27-Lcst_begin27
Lcst_begin27:
	.uleb128 Ltmp1187-Lfunc_begin132
	.uleb128 Ltmp1188-Ltmp1187
	.uleb128 Ltmp1189-Lfunc_begin132
	.byte	0
	.uleb128 Ltmp1188-Lfunc_begin132
	.uleb128 Lfunc_end132-Ltmp1188
	.byte	0
	.byte	0
Lcst_end27:
	.p2align	2

	.section	__TEXT,__text,regular,pure_instructions
	.p2align	4, 0x90
__ZN4core6result19Result$LT$T$C$E$GT$2ok17h34f918adcfb1f72bE:
Lfunc_begin133:
	.loc	54 642 0 is_stmt 1
	.cfi_startproc
	pushq	%rbp
	.cfi_def_cfa_offset 16
	.cfi_offset %rbp, -16
	movq	%rsp, %rbp
	.cfi_def_cfa_register %rbp
	subq	$56, %rsp
	movq	%rdi, -56(%rbp)
Ltmp1192:
	.loc	54 646 9 prologue_end
	cmpq	$0, (%rdi)
Ltmp1193:
	jne	LBB133_2
Ltmp1194:
	.loc	54 0 9 is_stmt 0
	movq	-56(%rbp), %rax
	.loc	54 647 16 is_stmt 1
	movq	8(%rax), %rcx
	movq	16(%rax), %rax
	movq	%rcx, -16(%rbp)
	movq	%rax, -8(%rbp)
Ltmp1195:
	.loc	54 647 22 is_stmt 0
	movq	%rcx, -48(%rbp)
	movq	%rax, -40(%rbp)
Ltmp1196:
	.loc	54 647 28
	jmp	LBB133_3
Ltmp1197:
LBB133_2:
	.loc	54 0 28
	movq	-56(%rbp), %rax
	.loc	54 650 17 is_stmt 1
	movq	8(%rax), %rcx
	movq	%rcx, -32(%rbp)
	movq	16(%rax), %rax
	movq	%rax, -24(%rbp)
Ltmp1198:
	.loc	54 650 23 is_stmt 0
	movq	$0, -48(%rbp)
Ltmp1199:
LBB133_3:
	.loc	54 652 6 is_stmt 1
	movq	-48(%rbp), %rax
	movq	-40(%rbp), %rdx
	addq	$56, %rsp
	popq	%rbp
	retq
Ltmp1200:
Lfunc_end133:
	.cfi_endproc

	.p2align	4, 0x90
__ZN4core6result19Result$LT$T$C$E$GT$2ok17h5c0575ac63c91636E:
Lfunc_begin134:
	.loc	54 642 0
	.cfi_startproc
	pushq	%rbp
	.cfi_def_cfa_offset 16
	.cfi_offset %rbp, -16
	movq	%rsp, %rbp
	.cfi_def_cfa_register %rbp
	subq	$32, %rsp
	movq	%rdi, -24(%rbp)
	movq	-24(%rbp), %rax
	movq	%rax, -32(%rbp)
Ltmp1201:
	.loc	54 646 15 prologue_end
	movb	-32(%rbp), %al
	andb	$1, %al
	movzbl	%al, %eax
	.loc	54 646 9 is_stmt 0
	cmpq	$0, %rax
	jne	LBB134_2
	.loc	54 647 16 is_stmt 1
	movl	-28(%rbp), %eax
	movl	%eax, -4(%rbp)
Ltmp1202:
	.loc	54 647 22 is_stmt 0
	movl	%eax, -12(%rbp)
	movl	$1, -16(%rbp)
Ltmp1203:
	.loc	54 647 28
	jmp	LBB134_3
LBB134_2:
	.loc	54 650 17 is_stmt 1
	movb	-31(%rbp), %al
	movb	%al, -5(%rbp)
Ltmp1204:
	.loc	54 650 23 is_stmt 0
	movl	$0, -16(%rbp)
Ltmp1205:
LBB134_3:
	.loc	54 652 6 is_stmt 1
	movl	-16(%rbp), %eax
	movl	-12(%rbp), %edx
	addq	$32, %rsp
	popq	%rbp
	retq
Ltmp1206:
Lfunc_end134:
	.cfi_endproc

	.p2align	4, 0x90
__ZN4core6result19Result$LT$T$C$E$GT$2ok17h5d02cdb47088c23cE:
Lfunc_begin135:
	.loc	54 642 0
	.cfi_startproc
	pushq	%rbp
	.cfi_def_cfa_offset 16
	.cfi_offset %rbp, -16
	movq	%rsp, %rbp
	.cfi_def_cfa_register %rbp
	subq	$144, %rsp
	movq	%rsi, -144(%rbp)
Ltmp1207:
	movq	%rdi, -136(%rbp)
	movq	%rdi, -128(%rbp)
Ltmp1208:
	.loc	54 646 15 prologue_end
	movq	8(%rsi), %rdx
	xorl	%eax, %eax
	movl	$1, %ecx
	cmpq	$0, %rdx
	cmoveq	%rcx, %rax
	.loc	54 646 9 is_stmt 0
	cmpq	$0, %rax
Ltmp1209:
	jne	LBB135_2
Ltmp1210:
	.loc	54 0 9
	movq	-144(%rbp), %rsi
	.loc	54 647 16 is_stmt 1
	leaq	-120(%rbp), %rdi
	movl	$56, %edx
	callq	_memcpy
Ltmp1211:
	.loc	54 647 27 is_stmt 0
	leaq	-64(%rbp), %rdi
	leaq	-120(%rbp), %rsi
	movl	$56, %edx
	callq	_memcpy
	movq	-136(%rbp), %rdi
	.loc	54 647 22
	leaq	-64(%rbp), %rsi
	movl	$56, %edx
	callq	_memcpy
Ltmp1212:
	.loc	54 647 28
	jmp	LBB135_3
Ltmp1213:
LBB135_2:
	.loc	54 0 28
	movq	-136(%rbp), %rax
	movq	-144(%rbp), %rcx
	.loc	54 650 17 is_stmt 1
	movq	(%rcx), %rcx
	movq	%rcx, -8(%rbp)
Ltmp1214:
	.loc	54 650 23 is_stmt 0
	movq	$0, 8(%rax)
Ltmp1215:
	.loc	54 650 26
	leaq	-8(%rbp), %rdi
	callq	__ZN4core3ptr42drop_in_place$LT$std..io..error..Error$GT$17ha28ea3586c9391faE
Ltmp1216:
LBB135_3:
	.loc	54 0 26
	movq	-128(%rbp), %rax
	.loc	54 652 6 is_stmt 1
	addq	$144, %rsp
	popq	%rbp
	retq
Ltmp1217:
Lfunc_end135:
	.cfi_endproc

	.p2align	4, 0x90
__ZN4core9core_simd6vector17Simd$LT$T$C$_$GT$5splat17he5d0be3bf240f513E:
Lfunc_begin136:
	.loc	11 127 0
	.cfi_startproc
	pushq	%rbp
	.cfi_def_cfa_offset 16
	.cfi_offset %rbp, -16
	movq	%rsp, %rbp
	.cfi_def_cfa_register %rbp
	subq	$32, %rsp
	movq	%rdi, -24(%rbp)
	movb	%sil, %al
	movq	%rdi, -16(%rbp)
	movb	%al, -3(%rbp)
Ltmp1218:
	.loc	11 134 43 prologue_end
	movb	%al, -4(%rbp)
	.loc	11 134 24 is_stmt 0
	movzbl	-4(%rbp), %esi
	leaq	-2(%rbp), %rdi
	callq	__ZN116_$LT$core..core_simd..vector..Simd$LT$T$C$_$GT$$u20$as$u20$core..convert..From$LT$$u5b$T$u3b$$u20$LANES$u5d$$GT$$GT$4from17h324fdd64931aa290E
	movq	-24(%rbp), %rdi
	movq	-16(%rbp), %rax
Ltmp1219:
	.file	55 "/rustc/2c8cc343237b8f7d5a3c3703e3a87f2eb2c54a74/library/core/src/../../portable-simd/crates/core_simd/src" "swizzle.rs"
	.loc	55 101 18 is_stmt 1
	movzbl	-2(%rbp), %ecx
Ltmp1220:
	.loc	11 134 24
	movb	%cl, %dl
	movb	%dl, -1(%rbp)
Ltmp1221:
	.loc	55 101 18
	movd	%ecx, %xmm0
	xorps	%xmm1, %xmm1
	pshufb	%xmm1, %xmm0
	movdqa	%xmm0, (%rdi)
Ltmp1222:
	.loc	11 135 6
	addq	$32, %rsp
	popq	%rbp
	retq
Ltmp1223:
Lfunc_end136:
	.cfi_endproc

	.p2align	4, 0x90
__ZN50_$LT$T$u20$as$u20$core..convert..Into$LT$U$GT$$GT$4into17h33ae819125336cc6E:
Lfunc_begin137:
	.file	56 "/rustc/2c8cc343237b8f7d5a3c3703e3a87f2eb2c54a74/library/core/src/convert" "mod.rs"
	.loc	56 725 0
	.cfi_startproc
	pushq	%rbp
	.cfi_def_cfa_offset 16
	.cfi_offset %rbp, -16
	movq	%rsp, %rbp
	.cfi_def_cfa_register %rbp
	subq	$16, %rsp
	movq	%rdi, -8(%rbp)
Ltmp1224:
	.loc	56 726 9 prologue_end
	callq	__ZN119_$LT$core..ptr..non_null..NonNull$LT$T$GT$$u20$as$u20$core..convert..From$LT$core..ptr..unique..Unique$LT$T$GT$$GT$$GT$4from17h0c2e37f59bc30618E
	.loc	56 727 6
	addq	$16, %rsp
	popq	%rbp
	retq
Ltmp1225:
Lfunc_end137:
	.cfi_endproc

	.p2align	4, 0x90
__ZN52_$LT$char$u20$as$u20$core..str..pattern..Pattern$GT$13into_searcher17h43f86a94d5be2793E:
Lfunc_begin138:
	.loc	39 543 0
	.cfi_startproc
	pushq	%rbp
	.cfi_def_cfa_offset 16
	.cfi_offset %rbp, -16
	movq	%rsp, %rbp
	.cfi_def_cfa_register %rbp
	subq	$224, %rsp
	movq	%rcx, -208(%rbp)
	movq	%rdx, -216(%rbp)
	movl	%esi, -196(%rbp)
	movq	%rdi, -192(%rbp)
	movq	%rdi, -184(%rbp)
	movl	%esi, -164(%rbp)
	movq	%rdx, -160(%rbp)
	movq	%rcx, -152(%rbp)
Ltmp1226:
	.loc	39 544 32 prologue_end
	leaq	-172(%rbp), %rdi
	xorl	%esi, %esi
	movl	$4, %edx
	callq	_memset
	movl	-196(%rbp), %edi
Ltmp1227:
	.loc	39 545 25
	movl	%edi, -140(%rbp)
	.loc	39 545 42 is_stmt 0
	leaq	-172(%rbp), %rax
	movq	%rax, -136(%rbp)
	movq	$4, -128(%rbp)
Ltmp1228:
	.loc	47 663 42 is_stmt 1
	leaq	-172(%rbp), %rsi
	movl	$4, %edx
	callq	__ZN4core4char7methods15encode_utf8_raw17h690f06774b854465E
	movq	-216(%rbp), %r9
	movq	-208(%rbp), %r8
	movl	-196(%rbp), %esi
	movq	-192(%rbp), %rdi
	movq	%rax, %rcx
	movq	-184(%rbp), %rax
	movq	%rcx, -120(%rbp)
	movq	%rdx, -112(%rbp)
Ltmp1229:
	.loc	39 545 25
	movq	%rcx, -104(%rbp)
	movq	%rdx, -96(%rbp)
Ltmp1230:
	.loc	26 160 9
	movq	%rcx, -88(%rbp)
	movq	%rdx, -80(%rbp)
Ltmp1231:
	.loc	26 327 18
	movq	%rcx, -72(%rbp)
	movq	%rdx, -64(%rbp)
	movq	-64(%rbp), %rcx
Ltmp1232:
	.loc	26 160 9
	movq	%rcx, -56(%rbp)
Ltmp1233:
	.loc	39 549 26
	movq	%r9, -48(%rbp)
	movq	%r8, -40(%rbp)
Ltmp1234:
	.loc	26 160 9
	movq	%r9, -32(%rbp)
	movq	%r8, -24(%rbp)
Ltmp1235:
	.loc	26 327 18
	movq	%r9, -16(%rbp)
	movq	%r8, -8(%rbp)
	movq	-8(%rbp), %rdx
Ltmp1236:
	.loc	39 552 13
	movl	-172(%rbp), %r10d
	movl	%r10d, -168(%rbp)
	.loc	39 546 9
	movq	%r9, (%rdi)
	movq	%r8, 8(%rdi)
	movq	$0, 16(%rdi)
	movq	%rdx, 24(%rdi)
	movl	%esi, 44(%rdi)
	movq	%rcx, 32(%rdi)
	movl	-168(%rbp), %ecx
	movl	%ecx, 40(%rdi)
Ltmp1237:
	.loc	39 554 6
	addq	$224, %rsp
	popq	%rbp
	retq
Ltmp1238:
Lfunc_end138:
	.cfi_endproc

	.p2align	4, 0x90
__ZN54_$LT$$LP$$RP$$u20$as$u20$std..process..Termination$GT$6report17hc8d36e2a05377754E:
Lfunc_begin139:
	.loc	21 2182 0
	.cfi_startproc
	pushq	%rbp
	.cfi_def_cfa_offset 16
	.cfi_offset %rbp, -16
	movq	%rsp, %rbp
	.cfi_def_cfa_register %rbp
	pushq	%rax
Ltmp1239:
	.loc	21 2184 6 prologue_end
	xorl	%eax, %eax
	addq	$8, %rsp
	popq	%rbp
	retq
Ltmp1240:
Lfunc_end139:
	.cfi_endproc

	.p2align	4, 0x90
__ZN55_$LT$$RF$T$u20$as$u20$core..convert..AsRef$LT$U$GT$$GT$6as_ref17he9e6aa42a6915e98E:
Lfunc_begin140:
	.loc	56 667 0
	.cfi_startproc
	pushq	%rbp
	.cfi_def_cfa_offset 16
	.cfi_offset %rbp, -16
	movq	%rsp, %rbp
	.cfi_def_cfa_register %rbp
	subq	$16, %rsp
	movq	%rdi, %rax
	movq	%rax, -8(%rbp)
Ltmp1241:
	.loc	56 668 33 prologue_end
	movq	(%rax), %rdi
	movq	8(%rax), %rsi
	.loc	56 668 9 is_stmt 0
	callq	__ZN3std3ffi6os_str85_$LT$impl$u20$core..convert..AsRef$LT$std..ffi..os_str..OsStr$GT$$u20$for$u20$str$GT$6as_ref17ha3aff30d3e378cd3E
	.loc	56 669 6 is_stmt 1
	addq	$16, %rsp
	popq	%rbp
	retq
Ltmp1242:
Lfunc_end140:
	.cfi_endproc

	.p2align	4, 0x90
__ZN55_$LT$$RF$str$u20$as$u20$core..str..pattern..Pattern$GT$12is_suffix_of17h19ddcd96501074f8E:
Lfunc_begin141:
	.loc	39 989 0
	.cfi_startproc
	pushq	%rbp
	.cfi_def_cfa_offset 16
	.cfi_offset %rbp, -16
	movq	%rsp, %rbp
	.cfi_def_cfa_register %rbp
	subq	$112, %rsp
	movq	%rcx, -112(%rbp)
	movq	%rdx, %rax
	movq	-112(%rbp), %rdx
	movq	%rax, -104(%rbp)
	movq	%rsi, %rax
	movq	-104(%rbp), %rsi
	movq	%rdi, %rcx
	movq	%rcx, -96(%rbp)
	movq	%rax, -88(%rbp)
	movq	%rsi, -80(%rbp)
	movq	%rdx, -72(%rbp)
Ltmp1243:
	.loc	39 990 9 prologue_end
	movq	%rsi, -64(%rbp)
	movq	%rdx, -56(%rbp)
Ltmp1244:
	.loc	26 327 18
	movq	%rsi, -48(%rbp)
	movq	%rdx, -40(%rbp)
	movq	-48(%rbp), %rdi
	movq	-40(%rbp), %rsi
Ltmp1245:
	.loc	39 990 39
	movq	%rcx, -32(%rbp)
	movq	%rax, -24(%rbp)
Ltmp1246:
	.loc	26 327 18
	movq	%rcx, -16(%rbp)
	movq	%rax, -8(%rbp)
	movq	-16(%rbp), %rdx
	movq	-8(%rbp), %rcx
Ltmp1247:
	.loc	39 990 9
	callq	__ZN4core5slice29_$LT$impl$u20$$u5b$T$u5d$$GT$9ends_with17h9c9d3a5f3dd997f2E
	.loc	39 991 6
	andb	$1, %al
	movzbl	%al, %eax
	addq	$112, %rsp
	popq	%rbp
	retq
Ltmp1248:
Lfunc_end141:
	.cfi_endproc

	.p2align	4, 0x90
__ZN55_$LT$$RF$str$u20$as$u20$core..str..pattern..Pattern$GT$15is_contained_in17h68b3397ca36b0bc0E:
Lfunc_begin142:
	.loc	39 952 0
	.cfi_startproc
	pushq	%rbp
	.cfi_def_cfa_offset 16
	.cfi_offset %rbp, -16
	movq	%rsp, %rbp
	.cfi_def_cfa_register %rbp
	subq	$688, %rsp
	movq	%rdi, -648(%rbp)
	movq	%rsi, -640(%rbp)
	movq	%rdx, -632(%rbp)
	movq	%rcx, -624(%rbp)
Ltmp1249:
	.loc	39 953 12 prologue_end
	movq	-648(%rbp), %rcx
	movq	-640(%rbp), %rax
	movq	%rcx, -440(%rbp)
	movq	%rax, -432(%rbp)
Ltmp1250:
	.loc	26 160 9
	movq	%rcx, -424(%rbp)
	movq	%rax, -416(%rbp)
Ltmp1251:
	.loc	26 327 18
	movq	%rcx, -408(%rbp)
	movq	%rax, -400(%rbp)
Ltmp1252:
	.loc	39 953 12
	cmpq	$0, -400(%rbp)
	jne	LBB142_2
	.loc	39 954 20
	movb	$1, -610(%rbp)
	.loc	34 1 1
	jmp	LBB142_22
LBB142_2:
	.loc	39 957 15
	movq	-648(%rbp), %rcx
	movq	-640(%rbp), %rax
	movq	%rcx, -392(%rbp)
	movq	%rax, -384(%rbp)
Ltmp1253:
	.loc	26 160 9
	movq	%rcx, -376(%rbp)
	movq	%rax, -368(%rbp)
Ltmp1254:
	.loc	26 327 18
	movq	%rcx, -360(%rbp)
	movq	%rax, -352(%rbp)
	movq	-352(%rbp), %rax
Ltmp1255:
	.loc	26 160 9
	movq	%rax, -608(%rbp)
Ltmp1256:
	.loc	39 957 15
	leaq	-608(%rbp), %rax
	movq	%rax, -344(%rbp)
