	.section	__TEXT,__text,regular,pure_instructions
	.macosx_version_min 10, 7
	.p2align	4, 0x90
__ZN104_$LT$core..ops..control_flow..ControlFlow$LT$B$C$C$GT$$u20$as$u20$core..ops..try_trait..FromResidual$GT$13from_residual17h14480526ea4372f8E:
Lfunc_begin0:
	.file	1 "/rustc/2c8cc343237b8f7d5a3c3703e3a87f2eb2c54a74/library/core/src/ops" "control_flow.rs"
	.loc	1 123 0
	.cfi_startproc
	pushq	%rbp
	.cfi_def_cfa_offset 16
	.cfi_offset %rbp, -16
	movq	%rsp, %rbp
	.cfi_def_cfa_register %rbp
	subq	$24, %rsp
Ltmp0:
	.loc	1 125 38 prologue_end
	movb	$1, -17(%rbp)
Ltmp1:
	.loc	1 127 6
	movb	-17(%rbp), %al
	andb	$1, %al
	movzbl	%al, %eax
	addq	$24, %rsp
	popq	%rbp
	retq
Ltmp2:
Lfunc_end0:
	.cfi_endproc

	.p2align	4, 0x90
__ZN104_$LT$core..ops..control_flow..ControlFlow$LT$B$C$C$GT$$u20$as$u20$core..ops..try_trait..FromResidual$GT$13from_residual17h41375c86f47d9e8dE:
Lfunc_begin1:
	.loc	1 123 0
	.cfi_startproc
	pushq	%rbp
	.cfi_def_cfa_offset 16
	.cfi_offset %rbp, -16
	movq	%rsp, %rbp
	.cfi_def_cfa_register %rbp
	subq	$32, %rsp
	movq	%rdi, -32(%rbp)
Ltmp3:
	.loc	1 125 32 prologue_end
	movq	-32(%rbp), %rax
	movq	%rax, -8(%rbp)
Ltmp4:
	.loc	1 125 38 is_stmt 0
	movq	%rax, -16(%rbp)
	movq	$1, -24(%rbp)
Ltmp5:
	.loc	1 127 6 is_stmt 1
	movq	-24(%rbp), %rax
	movq	-16(%rbp), %rdx
	addq	$32, %rsp
	popq	%rbp
	retq
Ltmp6:
Lfunc_end1:
	.cfi_endproc

	.p2align	4, 0x90
__ZN106_$LT$core..ops..range..Range$LT$usize$GT$$u20$as$u20$core..slice..index..SliceIndex$LT$$u5b$T$u5d$$GT$$GT$13get_unchecked17h0a252a982f18917dE:
Lfunc_begin2:
	.file	2 "/rustc/2c8cc343237b8f7d5a3c3703e3a87f2eb2c54a74/library/core/src/slice" "index.rs"
	.loc	2 373 0
	.cfi_startproc
	pushq	%rbp
	.cfi_def_cfa_offset 16
	.cfi_offset %rbp, -16
	movq	%rsp, %rbp
	.cfi_def_cfa_register %rbp
	subq	$160, %rsp
	movq	%rdi, -128(%rbp)
	movq	%rsi, -120(%rbp)
	movq	%rdx, -112(%rbp)
	movq	%rcx, -104(%rbp)
Ltmp7:
	.loc	2 386 39 prologue_end
	movq	%rdx, -96(%rbp)
	movq	%rcx, -88(%rbp)
Ltmp8:
	.file	3 "/rustc/2c8cc343237b8f7d5a3c3703e3a87f2eb2c54a74/library/core/src/ptr" "const_ptr.rs"
	.loc	3 1650 9
	movq	%rdx, -80(%rbp)
Ltmp9:
	.loc	2 386 58
	movq	%rdi, -72(%rbp)
Ltmp10:
	.loc	3 932 18
	movq	%rdx, -64(%rbp)
	.loc	3 932 30 is_stmt 0
	movq	%rdi, -56(%rbp)
Ltmp11:
	.loc	3 473 18 is_stmt 1
	addq	%rdi, %rdx
	movq	%rdx, -48(%rbp)
	movq	-48(%rbp), %rax
	movq	%rax, -40(%rbp)
Ltmp12:
	.loc	2 386 71
	subq	%rdi, %rsi
	movq	%rsi, -32(%rbp)
Ltmp13:
	.file	4 "/rustc/2c8cc343237b8f7d5a3c3703e3a87f2eb2c54a74/library/core/src/ptr" "mod.rs"
	.loc	4 734 20
	movq	%rax, -24(%rbp)
Ltmp14:
	.loc	3 61 9
	movq	%rax, -16(%rbp)
Ltmp15:
	.loc	4 734 33
	movq	%rsi, -8(%rbp)
Ltmp16:
	.file	5 "/rustc/2c8cc343237b8f7d5a3c3703e3a87f2eb2c54a74/library/core/src/ptr" "metadata.rs"
	.loc	5 118 36
	movq	%rax, -144(%rbp)
	movq	%rsi, -136(%rbp)
	.loc	5 118 14 is_stmt 0
	movq	-144(%rbp), %rcx
	movq	-136(%rbp), %rax
	movq	%rcx, -160(%rbp)
	movq	%rax, -152(%rbp)
	movq	-160(%rbp), %rax
	movq	-152(%rbp), %rdx
Ltmp17:
	.loc	2 388 6 is_stmt 1
	addq	$160, %rsp
	popq	%rbp
	retq
Ltmp18:
Lfunc_end2:
	.cfi_endproc

	.p2align	4, 0x90
__ZN106_$LT$core..ops..range..Range$LT$usize$GT$$u20$as$u20$core..slice..index..SliceIndex$LT$$u5b$T$u5d$$GT$$GT$5index17h2d61c86448a035e2E:
Lfunc_begin3:
	.loc	2 405 0
	.cfi_startproc
	pushq	%rbp
	.cfi_def_cfa_offset 16
	.cfi_offset %rbp, -16
	movq	%rsp, %rbp
	.cfi_def_cfa_register %rbp
	subq	$80, %rsp
	movq	%rdi, -72(%rbp)
	movq	%rsi, -64(%rbp)
	movq	%rdx, -56(%rbp)
	movq	%rcx, -48(%rbp)
	movq	%r8, -40(%rbp)
	movq	%rdi, -32(%rbp)
	movq	%rsi, -24(%rbp)
	movq	%rdx, -16(%rbp)
	movq	%rcx, -8(%rbp)
Ltmp19:
	.loc	2 406 12 prologue_end
	cmpq	%rsi, %rdi
	ja	LBB3_2
	.loc	2 0 12 is_stmt 0
	movq	-64(%rbp), %rax
	movq	-48(%rbp), %rcx
	.loc	2 408 19 is_stmt 1
	cmpq	%rcx, %rax
	ja	LBB3_4
	jmp	LBB3_3
LBB3_2:
	.loc	2 0 19 is_stmt 0
	movq	-40(%rbp), %rdx
	movq	-64(%rbp), %rsi
	movq	-72(%rbp), %rdi
	.loc	2 407 13 is_stmt 1
	callq	__ZN4core5slice5index22slice_index_order_fail17h0d8f800a07d5f26eE
LBB3_3:
	.loc	2 0 13 is_stmt 0
	movq	-48(%rbp), %rcx
	movq	-56(%rbp), %rdx
	movq	-64(%rbp), %rsi
	movq	-72(%rbp), %rdi
	.loc	2 412 20 is_stmt 1
	callq	__ZN106_$LT$core..ops..range..Range$LT$usize$GT$$u20$as$u20$core..slice..index..SliceIndex$LT$$u5b$T$u5d$$GT$$GT$13get_unchecked17h0a252a982f18917dE
	.loc	2 413 6
	addq	$80, %rsp
	popq	%rbp
	retq
LBB3_4:
	.loc	2 0 6 is_stmt 0
	movq	-40(%rbp), %rdx
	movq	-48(%rbp), %rsi
	movq	-64(%rbp), %rdi
	.loc	2 409 13 is_stmt 1
	callq	__ZN4core5slice5index24slice_end_index_len_fail17hc921cb2f1513645aE
Ltmp20:
Lfunc_end3:
	.cfi_endproc

	.p2align	4, 0x90
__ZN110_$LT$core..ops..range..RangeFrom$LT$usize$GT$$u20$as$u20$core..slice..index..SliceIndex$LT$$u5b$T$u5d$$GT$$GT$5index17h4da5bfebcf8d91dcE:
Lfunc_begin4:
	.loc	2 493 0
	.cfi_startproc
	pushq	%rbp
	.cfi_def_cfa_offset 16
	.cfi_offset %rbp, -16
	movq	%rsp, %rbp
	.cfi_def_cfa_register %rbp
	subq	$144, %rsp
	movq	%rdi, -144(%rbp)
	movq	%rsi, -136(%rbp)
	movq	%rdx, -128(%rbp)
	movq	%rcx, -120(%rbp)
	movq	%rdi, -80(%rbp)
	movq	%rsi, -72(%rbp)
	movq	%rdx, -64(%rbp)
Ltmp21:
	.loc	2 494 12 prologue_end
	cmpq	%rdx, %rdi
	ja	LBB4_2
	.loc	2 0 12 is_stmt 0
	movq	-128(%rbp), %rcx
	movq	-136(%rbp), %rdx
	movq	-144(%rbp), %rsi
	.loc	2 498 20 is_stmt 1
	movq	%rsi, -56(%rbp)
	.loc	2 498 39 is_stmt 0
	movq	%rdx, -48(%rbp)
	movq	%rcx, -40(%rbp)
Ltmp22:
	.loc	2 483 31 is_stmt 1
	movq	%rdx, -32(%rbp)
	movq	%rcx, -24(%rbp)
Ltmp23:
	.loc	3 1630 18
	movq	%rdx, -16(%rbp)
	movq	%rcx, -8(%rbp)
Ltmp24:
	.loc	5 98 14
	movq	%rdx, -96(%rbp)
	movq	%rcx, -88(%rbp)
	movq	-88(%rbp), %rax
Ltmp25:
	.loc	2 483 18
	movq	%rsi, -112(%rbp)
	movq	%rax, -104(%rbp)
	movq	-112(%rbp), %rdi
	movq	-104(%rbp), %rsi
	callq	__ZN106_$LT$core..ops..range..Range$LT$usize$GT$$u20$as$u20$core..slice..index..SliceIndex$LT$$u5b$T$u5d$$GT$$GT$13get_unchecked17h0a252a982f18917dE
Ltmp26:
	.loc	2 499 6
	addq	$144, %rsp
	popq	%rbp
	retq
LBB4_2:
	.loc	2 0 6 is_stmt 0
	movq	-120(%rbp), %rdx
	movq	-128(%rbp), %rsi
	movq	-144(%rbp), %rdi
	.loc	2 495 13 is_stmt 1
	callq	__ZN4core5slice5index26slice_start_index_len_fail17h9d301bb51ec3e351E
Ltmp27:
Lfunc_end4:
	.cfi_endproc

	.p2align	4, 0x90
__ZN111_$LT$core..iter..adapters..zip..Zip$LT$A$C$B$GT$$u20$as$u20$core..iter..adapters..zip..ZipImpl$LT$A$C$B$GT$$GT$3new17h389e8705f5e0cd96E:
Lfunc_begin5:
	.file	6 "/rustc/2c8cc343237b8f7d5a3c3703e3a87f2eb2c54a74/library/core/src/iter/adapters" "zip.rs"
	.loc	6 262 0
	.cfi_startproc
	.cfi_personality 155, _rust_eh_personality
	.cfi_lsda 16, Lexception0
	pushq	%rbp
	.cfi_def_cfa_offset 16
	.cfi_offset %rbp, -16
	movq	%rsp, %rbp
	.cfi_def_cfa_register %rbp
	subq	$144, %rsp
	movq	%rdi, -120(%rbp)
	movq	%rdi, -112(%rbp)
	movq	%rsi, -96(%rbp)
	movq	%rdx, -88(%rbp)
	movq	%rcx, -80(%rbp)
	movq	%r8, -72(%rbp)
Ltmp28:
	leaq	-96(%rbp), %rdi
Ltmp35:
	.loc	6 263 21 prologue_end
	callq	__ZN4core4iter8adapters3zip27TrustedRandomAccessNoCoerce4size17hd5248a623e7b8b4aE
Ltmp29:
	movq	%rax, -104(%rbp)
	jmp	LBB5_3
LBB5_1:
	.loc	6 262 5
	movq	-64(%rbp), %rdi
	callq	__Unwind_Resume
LBB5_2:
Ltmp34:
	.loc	6 0 5 is_stmt 0
	movq	%rax, %rcx
	movl	%edx, %eax
	movq	%rcx, -64(%rbp)
	movl	%eax, -56(%rbp)
	jmp	LBB5_1
LBB5_3:
	movq	-104(%rbp), %rax
	.loc	6 263 21 is_stmt 1
	movq	%rax, -48(%rbp)
Ltmp36:
	.loc	6 264 28
	movq	%rax, -40(%rbp)
Ltmp30:
	leaq	-80(%rbp), %rdi
	.loc	6 264 35 is_stmt 0
	callq	__ZN4core4iter8adapters3zip27TrustedRandomAccessNoCoerce4size17hd5248a623e7b8b4aE
Ltmp31:
	movq	%rax, -128(%rbp)
	jmp	LBB5_4
LBB5_4:
	.loc	6 0 35
	movq	-128(%rbp), %rsi
	movq	-104(%rbp), %rdi
	.loc	6 264 35
	movq	%rsi, -32(%rbp)
Ltmp37:
	.file	7 "/rustc/2c8cc343237b8f7d5a3c3703e3a87f2eb2c54a74/library/core/src" "cmp.rs"
	.loc	7 1185 5 is_stmt 1
	movq	%rdi, -24(%rbp)
	.loc	7 1185 12 is_stmt 0
	movq	%rsi, -16(%rbp)
Ltmp32:
Ltmp38:
	.loc	7 833 13 is_stmt 1
	callq	__ZN4core3cmp6min_by17h546c764dd3e9c553E
Ltmp33:
	movq	%rax, -136(%rbp)
	jmp	LBB5_5
LBB5_5:
	.loc	7 0 13 is_stmt 0
	movq	-112(%rbp), %rax
	movq	-120(%rbp), %rcx
	movq	-104(%rbp), %rdx
	movq	-136(%rbp), %rsi
	.loc	7 833 13
	movq	%rsi, -8(%rbp)
Ltmp39:
	.loc	6 265 15 is_stmt 1
	movq	-96(%rbp), %r10
	movq	-88(%rbp), %r9
	.loc	6 265 18 is_stmt 0
	movq	-80(%rbp), %r8
	movq	-72(%rbp), %rdi
	.loc	6 265 9
	movq	%r10, (%rcx)
	movq	%r9, 8(%rcx)
	movq	%r8, 16(%rcx)
	movq	%rdi, 24(%rcx)
	movq	$0, 32(%rcx)
	movq	%rsi, 40(%rcx)
	movq	%rdx, 48(%rcx)
Ltmp40:
	.loc	6 266 6 is_stmt 1
	addq	$144, %rsp
	popq	%rbp
	retq
Ltmp41:
Lfunc_end5:
	.cfi_endproc
	.section	__TEXT,__gcc_except_tab
	.p2align	2
GCC_except_table5:
Lexception0:
	.byte	255
	.byte	255
	.byte	1
	.uleb128 Lcst_end0-Lcst_begin0
Lcst_begin0:
	.uleb128 Ltmp28-Lfunc_begin5
	.uleb128 Ltmp29-Ltmp28
	.uleb128 Ltmp34-Lfunc_begin5
	.byte	0
	.uleb128 Ltmp29-Lfunc_begin5
	.uleb128 Ltmp30-Ltmp29
	.byte	0
	.byte	0
	.uleb128 Ltmp30-Lfunc_begin5
	.uleb128 Ltmp33-Ltmp30
	.uleb128 Ltmp34-Lfunc_begin5
	.byte	0
Lcst_end0:
	.p2align	2

	.section	__TEXT,__text,regular,pure_instructions
	.p2align	4, 0x90
__ZN111_$LT$core..iter..adapters..zip..Zip$LT$A$C$B$GT$$u20$as$u20$core..iter..adapters..zip..ZipImpl$LT$A$C$B$GT$$GT$4next17hadfd3f714c0ff593E:
Lfunc_begin6:
	.loc	6 269 0
	.cfi_startproc
	.cfi_personality 155, _rust_eh_personality
	.cfi_lsda 16, Lexception1
	pushq	%rbp
	.cfi_def_cfa_offset 16
	.cfi_offset %rbp, -16
	movq	%rsp, %rbp
	.cfi_def_cfa_register %rbp
	subq	$112, %rsp
	movq	%rdi, -88(%rbp)
	movq	%rdi, -40(%rbp)
Ltmp45:
	.loc	6 270 12 prologue_end
	movq	32(%rdi), %rax
	cmpq	40(%rdi), %rax
	jb	LBB6_2
	.loc	6 279 19
	xorl	%eax, %eax
	testb	$1, %al
	jne	LBB6_8
	jmp	LBB6_7
LBB6_2:
	.loc	6 0 19 is_stmt 0
	movq	-88(%rbp), %rdi
	.loc	6 271 21 is_stmt 1
	movq	32(%rdi), %rsi
	movq	%rsi, -112(%rbp)
	movq	%rsi, -32(%rbp)
Ltmp46:
	.loc	6 274 13
	movq	32(%rdi), %rax
	incq	%rax
	movq	%rax, 32(%rdi)
	.loc	6 277 23
	callq	__ZN91_$LT$core..slice..iter..Iter$LT$T$GT$$u20$as$u20$core..iter..traits..iterator..Iterator$GT$24__iterator_get_unchecked17h78139e1841d01e08E
	movq	-88(%rbp), %rdi
	movq	-112(%rbp), %rsi
	movq	%rax, -104(%rbp)
	.loc	6 277 59 is_stmt 0
	addq	$16, %rdi
Ltmp42:
	callq	__ZN91_$LT$core..slice..iter..Iter$LT$T$GT$$u20$as$u20$core..iter..traits..iterator..Iterator$GT$24__iterator_get_unchecked17h78139e1841d01e08E
Ltmp43:
	movq	%rax, -96(%rbp)
	jmp	LBB6_5
Ltmp47:
LBB6_3:
	.loc	6 269 5 is_stmt 1
	movq	-24(%rbp), %rdi
	callq	__Unwind_Resume
LBB6_4:
Ltmp44:
	.loc	6 0 5 is_stmt 0
	movq	%rax, %rcx
	movl	%edx, %eax
	movq	%rcx, -24(%rbp)
	movl	%eax, -16(%rbp)
	jmp	LBB6_3
LBB6_5:
	movq	-96(%rbp), %rax
	movq	-104(%rbp), %rcx
Ltmp48:
	.loc	6 277 22 is_stmt 1
	movq	%rcx, -64(%rbp)
	movq	%rax, -56(%rbp)
	.loc	6 277 17 is_stmt 0
	movq	-64(%rbp), %rcx
	movq	-56(%rbp), %rax
	movq	%rcx, -80(%rbp)
	movq	%rax, -72(%rbp)
Ltmp49:
LBB6_6:
	.loc	6 293 6 is_stmt 1
	movq	-80(%rbp), %rax
	movq	-72(%rbp), %rdx
	addq	$112, %rsp
	popq	%rbp
	retq
LBB6_7:
	.loc	6 279 19
	movb	$0, -41(%rbp)
	jmp	LBB6_9
LBB6_8:
	.loc	6 0 19 is_stmt 0
	movq	-88(%rbp), %rcx
	.loc	6 279 46
	movq	32(%rcx), %rax
	cmpq	48(%rcx), %rax
	setb	%al
	.loc	6 279 19
	andb	$1, %al
	movb	%al, -41(%rbp)
LBB6_9:
	testb	$1, -41(%rbp)
	jne	LBB6_11
	.loc	6 291 13 is_stmt 1
	movq	$0, -80(%rbp)
	.loc	6 279 16
	jmp	LBB6_12
LBB6_11:
	.loc	6 0 16 is_stmt 0
	movq	-88(%rbp), %rdi
	.loc	6 280 21 is_stmt 1
	movq	32(%rdi), %rsi
	movq	%rsi, -8(%rbp)
Ltmp50:
	.loc	6 282 13
	movq	32(%rdi), %rax
	addq	$1, %rax
	movq	%rax, 32(%rdi)
	.loc	6 283 13
	movq	40(%rdi), %rax
	addq	$1, %rax
	movq	%rax, 40(%rdi)
	.loc	6 287 17
	callq	__ZN91_$LT$core..slice..iter..Iter$LT$T$GT$$u20$as$u20$core..iter..traits..iterator..Iterator$GT$24__iterator_get_unchecked17h78139e1841d01e08E
	.loc	6 289 13
	movq	$0, -80(%rbp)
Ltmp51:
LBB6_12:
	.loc	6 270 9
	jmp	LBB6_6
Ltmp52:
Lfunc_end6:
	.cfi_endproc
	.section	__TEXT,__gcc_except_tab
	.p2align	2
GCC_except_table6:
Lexception1:
	.byte	255
	.byte	255
	.byte	1
	.uleb128 Lcst_end1-Lcst_begin1
Lcst_begin1:
	.uleb128 Lfunc_begin6-Lfunc_begin6
	.uleb128 Ltmp42-Lfunc_begin6
	.byte	0
	.byte	0
	.uleb128 Ltmp42-Lfunc_begin6
	.uleb128 Ltmp43-Ltmp42
	.uleb128 Ltmp44-Lfunc_begin6
	.byte	0
	.uleb128 Ltmp43-Lfunc_begin6
	.uleb128 Lfunc_end6-Ltmp43
	.byte	0
	.byte	0
Lcst_end1:
	.p2align	2

	.section	__TEXT,__text,regular,pure_instructions
	.p2align	4, 0x90
__ZN114_$LT$core..core_simd..masks..Mask$LT$T$C$16_usize$GT$$u20$as$u20$core..core_simd..masks..to_bitmask..ToBitMask$GT$10to_bitmask17h76ffe4fbd9788331E:
Lfunc_begin7:
	.file	8 "/rustc/2c8cc343237b8f7d5a3c3703e3a87f2eb2c54a74/library/core/src/../../portable-simd/crates/core_simd/src/masks" "to_bitmask.rs"
	.loc	8 51 0
	.cfi_startproc
	pushq	%rbp
	.cfi_def_cfa_offset 16
	.cfi_offset %rbp, -16
	movq	%rsp, %rbp
	.cfi_def_cfa_register %rbp
	subq	$32, %rsp
Ltmp53:
	.loc	8 52 17 prologue_end
	movaps	(%rdi), %xmm0
	movaps	%xmm0, -32(%rbp)
Ltmp54:
	.file	9 "/rustc/2c8cc343237b8f7d5a3c3703e3a87f2eb2c54a74/library/core/src/../../portable-simd/crates/core_simd/src/masks" "full_masks.rs"
	.loc	9 213 35
	pmovmskb	%xmm0, %eax
	movw	%ax, -2(%rbp)
	movw	-2(%rbp), %ax
Ltmp55:
	.loc	8 53 14
	addq	$32, %rsp
	popq	%rbp
	retq
Ltmp56:
Lfunc_end7:
	.cfi_endproc

	.p2align	4, 0x90
__ZN116_$LT$core..core_simd..vector..Simd$LT$T$C$_$GT$$u20$as$u20$core..convert..From$LT$$u5b$T$u3b$$u20$LANES$u5d$$GT$$GT$4from17h4118c20719de8523E:
Lfunc_begin8:
	.file	10 "/rustc/2c8cc343237b8f7d5a3c3703e3a87f2eb2c54a74/library/core/src/../../portable-simd/crates/core_simd/src" "vector.rs"
	.loc	10 627 0
	.cfi_startproc
	pushq	%rbp
	.cfi_def_cfa_offset 16
	.cfi_offset %rbp, -16
	movq	%rsp, %rbp
	.cfi_def_cfa_register %rbp
	subq	$3, %rsp
	movb	%sil, %cl
	movq	%rdi, %rax
	movb	%cl, -2(%rbp)
	movb	-2(%rbp), %cl
	movb	%cl, -3(%rbp)
Ltmp57:
	.loc	10 628 14 prologue_end
	movb	-3(%rbp), %cl
	movb	%cl, -1(%rbp)
	.loc	10 628 9 is_stmt 0
	movb	-1(%rbp), %cl
	movb	%cl, (%rdi)
	.loc	10 629 6 is_stmt 1
	addq	$3, %rsp
	popq	%rbp
	retq
Ltmp58:
Lfunc_end8:
	.cfi_endproc

	.p2align	4, 0x90
__ZN119_$LT$core..ptr..non_null..NonNull$LT$T$GT$$u20$as$u20$core..convert..From$LT$core..ptr..unique..Unique$LT$T$GT$$GT$$GT$4from17hb477dcc1bab5299aE:
Lfunc_begin9:
	.file	11 "/rustc/2c8cc343237b8f7d5a3c3703e3a87f2eb2c54a74/library/core/src/ptr" "non_null.rs"
	.loc	11 765 0
	.cfi_startproc
	pushq	%rbp
	.cfi_def_cfa_offset 16
	.cfi_offset %rbp, -16
	movq	%rsp, %rbp
	.cfi_def_cfa_register %rbp
	subq	$40, %rsp
	movq	%rdi, -32(%rbp)
Ltmp59:
	.loc	11 768 41 prologue_end
	movq	%rdi, -24(%rbp)
Ltmp60:
	.file	12 "/rustc/2c8cc343237b8f7d5a3c3703e3a87f2eb2c54a74/library/core/src/ptr" "unique.rs"
	.loc	12 104 9
	movq	%rdi, -16(%rbp)
Ltmp61:
	.loc	11 326 9
	movq	%rdi, -8(%rbp)
Ltmp62:
	.loc	11 201 13
	movq	%rdi, -40(%rbp)
Ltmp63:
	.loc	11 769 6
	movq	-40(%rbp), %rax
	addq	$40, %rsp
	popq	%rbp
	retq
Ltmp64:
Lfunc_end9:
	.cfi_endproc

	.p2align	4, 0x90
__ZN3std10sys_common9backtrace28__rust_begin_short_backtrace17hcb668fde2384d90aE:
Lfunc_begin10:
	.file	13 "/rustc/2c8cc343237b8f7d5a3c3703e3a87f2eb2c54a74/library/std/src/sys_common" "backtrace.rs"
	.loc	13 117 0
	.cfi_startproc
	pushq	%rbp
	.cfi_def_cfa_offset 16
	.cfi_offset %rbp, -16
	movq	%rsp, %rbp
	.cfi_def_cfa_register %rbp
	subq	$48, %rsp
	movq	%rdi, -32(%rbp)
Ltmp65:
	.loc	13 121 18 prologue_end
	callq	__ZN4core3ops8function6FnOnce9call_once17h9c13c4446bd5727fE
Ltmp66:
	.file	14 "/rustc/2c8cc343237b8f7d5a3c3703e3a87f2eb2c54a74/library/core/src" "hint.rs"
	.loc	14 295 5
	## InlineAsm Start
	## InlineAsm End
Ltmp67:
	.loc	13 127 2
	addq	$48, %rsp
	popq	%rbp
	retq
Ltmp68:
Lfunc_end10:
	.cfi_endproc

	.private_extern	__ZN3std2rt10lang_start17hea12a48c4b3e23afE
	.globl	__ZN3std2rt10lang_start17hea12a48c4b3e23afE
	.p2align	4, 0x90
__ZN3std2rt10lang_start17hea12a48c4b3e23afE:
Lfunc_begin11:
	.file	15 "/rustc/2c8cc343237b8f7d5a3c3703e3a87f2eb2c54a74/library/std/src" "rt.rs"
	.loc	15 159 0
	.cfi_startproc
	pushq	%rbp
	.cfi_def_cfa_offset 16
	.cfi_offset %rbp, -16
	movq	%rsp, %rbp
	.cfi_def_cfa_register %rbp
	subq	$64, %rsp
	movl	%ecx, %eax
	movq	%rdx, %rcx
	movq	%rsi, %rdx
	movq	%rdi, -40(%rbp)
	movq	%rdx, -32(%rbp)
	movq	%rcx, -24(%rbp)
	movb	%al, -9(%rbp)
Ltmp69:
	.loc	15 166 10 prologue_end
	movq	%rdi, -48(%rbp)
	.loc	15 165 17
	leaq	-48(%rbp), %rdi
	leaq	l___unnamed_1(%rip), %rsi
	movzbl	%al, %r8d
	callq	__ZN3std2rt19lang_start_internal17h72dc55d09e0a2397E
	movq	%rax, -56(%rbp)
	.loc	15 165 12 is_stmt 0
	movq	-56(%rbp), %rax
	movq	%rax, -8(%rbp)
	.loc	15 172 2 is_stmt 1
	addq	$64, %rsp
	popq	%rbp
	retq
Ltmp70:
Lfunc_end11:
	.cfi_endproc

	.p2align	4, 0x90
__ZN3std2rt10lang_start28_$u7b$$u7b$closure$u7d$$u7d$17h5c0edd22600b7348E:
Lfunc_begin12:
	.loc	15 166 0
	.cfi_startproc
	pushq	%rbp
	.cfi_def_cfa_offset 16
	.cfi_offset %rbp, -16
	movq	%rsp, %rbp
	.cfi_def_cfa_register %rbp
	subq	$32, %rsp
	movq	%rdi, -16(%rbp)
Ltmp71:
	.loc	15 166 77 prologue_end
	movq	(%rdi), %rdi
	.loc	15 166 18 is_stmt 0
	callq	__ZN3std10sys_common9backtrace28__rust_begin_short_backtrace17hcb668fde2384d90aE
	callq	__ZN54_$LT$$LP$$RP$$u20$as$u20$std..process..Termination$GT$6report17h8497c489d52c6bd8E
	movb	%al, -17(%rbp)
Ltmp72:
	.file	16 "/rustc/2c8cc343237b8f7d5a3c3703e3a87f2eb2c54a74/library/std/src" "process.rs"
	.loc	16 1820 9 is_stmt 1
	leaq	-17(%rbp), %rax
	movq	%rax, -8(%rbp)
Ltmp73:
	.file	17 "/rustc/2c8cc343237b8f7d5a3c3703e3a87f2eb2c54a74/library/std/src/sys/unix/process" "process_common.rs"
	.loc	17 594 9
	movzbl	-17(%rbp), %eax
Ltmp74:
	.loc	15 166 100
	addq	$32, %rsp
	popq	%rbp
	retq
Ltmp75:
Lfunc_end12:
	.cfi_endproc

	.p2align	4, 0x90
__ZN3std3env3var17h1c0bafc9c283f20fE:
Lfunc_begin13:
	.file	18 "/rustc/2c8cc343237b8f7d5a3c3703e3a87f2eb2c54a74/library/std/src" "env.rs"
	.loc	18 227 0
	.cfi_startproc
	.cfi_personality 155, _rust_eh_personality
	.cfi_lsda 16, Lexception2
	pushq	%rbp
	.cfi_def_cfa_offset 16
	.cfi_offset %rbp, -16
	movq	%rsp, %rbp
	.cfi_def_cfa_register %rbp
	subq	$64, %rsp
	movq	%rdi, -64(%rbp)
	movq	%rdi, -56(%rbp)
	movq	%rsi, -32(%rbp)
	movq	%rdx, -24(%rbp)
Ltmp76:
	leaq	-32(%rbp), %rdi
Ltmp81:
	.loc	18 228 10 prologue_end
	callq	__ZN55_$LT$$RF$T$u20$as$u20$core..convert..AsRef$LT$U$GT$$GT$6as_ref17h3f14fc4431126014E
Ltmp77:
	movq	%rdx, -48(%rbp)
	movq	%rax, -40(%rbp)
	jmp	LBB13_3
LBB13_1:
	.loc	18 227 1
	movq	-16(%rbp), %rdi
	callq	__Unwind_Resume
LBB13_2:
Ltmp80:
	.loc	18 0 1 is_stmt 0
	movq	%rax, %rcx
	movl	%edx, %eax
	movq	%rcx, -16(%rbp)
	movl	%eax, -8(%rbp)
	jmp	LBB13_1
LBB13_3:
Ltmp78:
	movq	-48(%rbp), %rdx
	movq	-40(%rbp), %rsi
	movq	-64(%rbp), %rdi
	.loc	18 228 5 is_stmt 1
	callq	__ZN3std3env4_var17h3981769605209d03E
Ltmp79:
	jmp	LBB13_4
LBB13_4:
	.loc	18 0 5 is_stmt 0
	movq	-56(%rbp), %rax
	.loc	18 229 2 is_stmt 1
	addq	$64, %rsp
	popq	%rbp
	retq
Ltmp82:
Lfunc_end13:
	.cfi_endproc
	.section	__TEXT,__gcc_except_tab
	.p2align	2
GCC_except_table13:
Lexception2:
	.byte	255
	.byte	255
	.byte	1
	.uleb128 Lcst_end2-Lcst_begin2
Lcst_begin2:
	.uleb128 Ltmp76-Lfunc_begin13
	.uleb128 Ltmp77-Ltmp76
	.uleb128 Ltmp80-Lfunc_begin13
	.byte	0
	.uleb128 Ltmp77-Lfunc_begin13
	.uleb128 Ltmp78-Ltmp77
	.byte	0
	.byte	0
	.uleb128 Ltmp78-Lfunc_begin13
	.uleb128 Ltmp79-Ltmp78
	.uleb128 Ltmp80-Lfunc_begin13
	.byte	0
Lcst_end2:
	.p2align	2

	.section	__TEXT,__text,regular,pure_instructions
	.p2align	4, 0x90
__ZN3std3ffi6os_str85_$LT$impl$u20$core..convert..AsRef$LT$std..ffi..os_str..OsStr$GT$$u20$for$u20$str$GT$6as_ref17h86e3d376aada3eb0E:
Lfunc_begin14:
	.file	19 "/rustc/2c8cc343237b8f7d5a3c3703e3a87f2eb2c54a74/library/std/src/ffi" "os_str.rs"
	.loc	19 1321 0
	.cfi_startproc
	pushq	%rbp
	.cfi_def_cfa_offset 16
	.cfi_offset %rbp, -16
	movq	%rsp, %rbp
	.cfi_def_cfa_register %rbp
	subq	$112, %rsp
	movq	%rdi, -112(%rbp)
	movq	%rsi, -104(%rbp)
Ltmp83:
	.loc	19 1322 43 prologue_end
	movq	%rdi, -96(%rbp)
	movq	%rsi, -88(%rbp)
Ltmp84:
	.file	20 "/rustc/2c8cc343237b8f7d5a3c3703e3a87f2eb2c54a74/library/std/src/sys/unix" "os_str.rs"
	.loc	20 201 30
	movq	%rdi, -80(%rbp)
	movq	%rsi, -72(%rbp)
Ltmp85:
	.file	21 "/rustc/2c8cc343237b8f7d5a3c3703e3a87f2eb2c54a74/library/core/src/str" "mod.rs"
	.loc	21 327 18
	movq	%rdi, -64(%rbp)
	movq	%rsi, -56(%rbp)
	movq	-64(%rbp), %rcx
	movq	-56(%rbp), %rax
Ltmp86:
	.loc	20 201 30
	movq	%rcx, -48(%rbp)
	movq	%rax, -40(%rbp)
Ltmp87:
	.loc	20 196 18
	movq	%rcx, -32(%rbp)
	movq	%rax, -24(%rbp)
	movq	-32(%rbp), %rax
	movq	-24(%rbp), %rdx
Ltmp88:
	.loc	19 1322 27
	movq	%rax, -16(%rbp)
	movq	%rdx, -8(%rbp)
	.loc	19 1323 6
	addq	$112, %rsp
	popq	%rbp
	retq
Ltmp89:
Lfunc_end14:
	.cfi_endproc

	.p2align	4, 0x90
__ZN49_$LT$usize$u20$as$u20$core..iter..range..Step$GT$17forward_unchecked17h383dbd2842eb56d3E:
Lfunc_begin15:
	.file	22 "/rustc/2c8cc343237b8f7d5a3c3703e3a87f2eb2c54a74/library/core/src/iter" "range.rs"
	.loc	22 189 0
	.cfi_startproc
	pushq	%rbp
	.cfi_def_cfa_offset 16
	.cfi_offset %rbp, -16
	movq	%rsp, %rbp
	.cfi_def_cfa_register %rbp
	subq	$40, %rsp
	movq	%rdi, -40(%rbp)
	movq	%rsi, -32(%rbp)
Ltmp90:
	.loc	22 191 22 prologue_end
	movq	%rdi, -24(%rbp)
	.loc	22 191 42 is_stmt 0
	movq	%rsi, -16(%rbp)
Ltmp91:
	.file	23 "/rustc/2c8cc343237b8f7d5a3c3703e3a87f2eb2c54a74/library/core/src/num" "uint_macros.rs"
	.loc	23 470 22 is_stmt 1
	addq	%rsi, %rdi
	movq	%rdi, -8(%rbp)
	movq	-8(%rbp), %rax
Ltmp92:
	.loc	22 192 10
	addq	$40, %rsp
	popq	%rbp
	retq
Ltmp93:
Lfunc_end15:
	.cfi_endproc

	.p2align	4, 0x90
__ZN49_$LT$usize$u20$as$u20$core..iter..range..Step$GT$18backward_unchecked17he8e1cb6331cd98d1E:
Lfunc_begin16:
	.loc	22 195 0
	.cfi_startproc
	pushq	%rbp
	.cfi_def_cfa_offset 16
	.cfi_offset %rbp, -16
	movq	%rsp, %rbp
	.cfi_def_cfa_register %rbp
	subq	$40, %rsp
	movq	%rdi, -40(%rbp)
	movq	%rsi, -32(%rbp)
Ltmp94:
	.loc	22 197 22 prologue_end
	movq	%rdi, -24(%rbp)
	.loc	22 197 42 is_stmt 0
	movq	%rsi, -16(%rbp)
Ltmp95:
	.loc	23 539 22 is_stmt 1
	subq	%rsi, %rdi
	movq	%rdi, -8(%rbp)
	movq	-8(%rbp), %rax
Ltmp96:
	.loc	22 198 10
	addq	$40, %rsp
	popq	%rbp
	retq
Ltmp97:
Lfunc_end16:
	.cfi_endproc

	.p2align	4, 0x90
__ZN4core3cmp5impls50_$LT$impl$u20$core..cmp..Ord$u20$for$u20$usize$GT$3cmp17hc143166b01a0501bE:
Lfunc_begin17:
	.loc	7 1454 0
	.cfi_startproc
	pushq	%rbp
	.cfi_def_cfa_offset 16
	.cfi_offset %rbp, -16
	movq	%rsp, %rbp
	.cfi_def_cfa_register %rbp
	subq	$40, %rsp
	movq	%rdi, -40(%rbp)
	movq	%rsi, -32(%rbp)
	movq	%rdi, -16(%rbp)
	movq	%rsi, -8(%rbp)
Ltmp98:
	.loc	7 1457 24 prologue_end
	movq	(%rdi), %rax
	cmpq	(%rsi), %rax
	jb	LBB17_2
	.loc	7 0 24 is_stmt 0
	movq	-32(%rbp), %rcx
	movq	-40(%rbp), %rax
	.loc	7 1458 29 is_stmt 1
	movq	(%rax), %rax
	cmpq	(%rcx), %rax
	je	LBB17_5
	jmp	LBB17_4
LBB17_2:
	.loc	7 1457 41
	movb	$-1, -17(%rbp)
LBB17_3:
	.loc	7 1460 18
	movb	-17(%rbp), %al
	addq	$40, %rsp
	popq	%rbp
	retq
LBB17_4:
	.loc	7 1459 28
	movb	$1, -17(%rbp)
	.loc	7 1458 26
	jmp	LBB17_6
LBB17_5:
	.loc	7 1458 47 is_stmt 0
	movb	$0, -17(%rbp)
LBB17_6:
	.loc	7 1457 21 is_stmt 1
	jmp	LBB17_3
Ltmp99:
Lfunc_end17:
	.cfi_endproc

	.p2align	4, 0x90
__ZN4core3cmp5impls57_$LT$impl$u20$core..cmp..PartialOrd$u20$for$u20$usize$GT$2lt17hca4f390796bed90fE:
Lfunc_begin18:
	.loc	7 1441 0
	.cfi_startproc
	pushq	%rbp
	.cfi_def_cfa_offset 16
	.cfi_offset %rbp, -16
	movq	%rsp, %rbp
	.cfi_def_cfa_register %rbp
	subq	$16, %rsp
	movq	%rdi, -16(%rbp)
	movq	%rsi, -8(%rbp)
Ltmp100:
	.loc	7 1441 52 prologue_end
	movq	(%rdi), %rax
	cmpq	(%rsi), %rax
	setb	%al
	.loc	7 1441 72 is_stmt 0
	andb	$1, %al
	movzbl	%al, %eax
	addq	$16, %rsp
	popq	%rbp
	retq
Ltmp101:
Lfunc_end18:
	.cfi_endproc

	.p2align	4, 0x90
__ZN4core3cmp5impls59_$LT$impl$u20$core..cmp..PartialEq$u20$for$u20$$LP$$RP$$GT$2eq17h9e1d24e7f7b3d5d0E:
Lfunc_begin19:
	.loc	7 1363 0 is_stmt 1
	.cfi_startproc
	pushq	%rbp
	.cfi_def_cfa_offset 16
	.cfi_offset %rbp, -16
	movq	%rsp, %rbp
	.cfi_def_cfa_register %rbp
	subq	$16, %rsp
	movq	%rdi, -16(%rbp)
	movq	%rsi, -8(%rbp)
Ltmp102:
	.loc	7 1365 10 prologue_end
	movb	$1, %al
	andb	$1, %al
	movzbl	%al, %eax
	addq	$16, %rsp
	popq	%rbp
	retq
Ltmp103:
Lfunc_end19:
	.cfi_endproc

	.p2align	4, 0x90
__ZN4core3cmp6max_by17h2dd7cbca6f2054c9E:
Lfunc_begin20:
	.loc	7 1295 0
	.cfi_startproc
	.cfi_personality 155, _rust_eh_personality
	.cfi_lsda 16, Lexception3
	pushq	%rbp
	.cfi_def_cfa_offset 16
	.cfi_offset %rbp, -16
	movq	%rsp, %rbp
	.cfi_def_cfa_register %rbp
	subq	$96, %rsp
	movq	%rdi, -80(%rbp)
	movq	%rsi, -72(%rbp)
Ltmp107:
	.loc	7 1300 11 prologue_end
	movb	$1, -25(%rbp)
	movb	$1, -26(%rbp)
	leaq	-80(%rbp), %rax
	movq	%rax, -48(%rbp)
	leaq	-72(%rbp), %rax
	movq	%rax, -40(%rbp)
	movq	-48(%rbp), %rdi
	movq	-40(%rbp), %rsi
Ltmp104:
	callq	__ZN4core3ops8function6FnOnce9call_once17h4276f4f2dd9f802dE
Ltmp105:
	movb	%al, -81(%rbp)
	jmp	LBB20_3
LBB20_1:
	.loc	7 1304 1
	jmp	LBB20_4
LBB20_2:
Ltmp106:
	.loc	7 0 1 is_stmt 0
	movq	%rax, %rcx
	movl	%edx, %eax
	movq	%rcx, -16(%rbp)
	movl	%eax, -8(%rbp)
	jmp	LBB20_1
LBB20_3:
	movb	-81(%rbp), %al
	.loc	7 1300 11 is_stmt 1
	movb	%al, -49(%rbp)
	movb	-49(%rbp), %al
	.loc	7 1300 5 is_stmt 0
	incb	%al
	subb	$2, %al
	jb	LBB20_6
	jmp	LBB20_15
LBB20_15:
	jmp	LBB20_7
LBB20_4:
	.loc	7 1304 1 is_stmt 1
	testb	$1, -25(%rbp)
	jne	LBB20_12
	jmp	LBB20_11
	.loc	7 1300 11
	ud2
LBB20_6:
	.loc	7 1301 45
	movb	$0, -26(%rbp)
	movq	-72(%rbp), %rax
	movq	%rax, -64(%rbp)
	jmp	LBB20_8
LBB20_7:
	.loc	7 1302 30
	movb	$0, -25(%rbp)
	movq	-80(%rbp), %rax
	movq	%rax, -64(%rbp)
LBB20_8:
	.loc	7 1304 1
	testb	$1, -26(%rbp)
	jne	LBB20_10
LBB20_9:
	testb	$1, -25(%rbp)
	jne	LBB20_14
	jmp	LBB20_13
LBB20_10:
	jmp	LBB20_9
LBB20_11:
	.loc	7 1295 1
	movq	-16(%rbp), %rdi
	callq	__Unwind_Resume
LBB20_12:
	.loc	7 1304 1
	jmp	LBB20_11
LBB20_13:
	.loc	7 1304 2 is_stmt 0
	movq	-64(%rbp), %rax
	addq	$96, %rsp
	popq	%rbp
	retq
LBB20_14:
	.loc	7 1304 1
	jmp	LBB20_13
Ltmp108:
Lfunc_end20:
	.cfi_endproc
	.section	__TEXT,__gcc_except_tab
	.p2align	2
GCC_except_table20:
Lexception3:
	.byte	255
	.byte	255
	.byte	1
	.uleb128 Lcst_end3-Lcst_begin3
Lcst_begin3:
	.uleb128 Ltmp104-Lfunc_begin20
	.uleb128 Ltmp105-Ltmp104
	.uleb128 Ltmp106-Lfunc_begin20
	.byte	0
	.uleb128 Ltmp105-Lfunc_begin20
	.uleb128 Lfunc_end20-Ltmp105
	.byte	0
	.byte	0
Lcst_end3:
	.p2align	2

	.section	__TEXT,__text,regular,pure_instructions
	.p2align	4, 0x90
__ZN4core3cmp6min_by17h546c764dd3e9c553E:
Lfunc_begin21:
	.loc	7 1204 0 is_stmt 1
	.cfi_startproc
	.cfi_personality 155, _rust_eh_personality
	.cfi_lsda 16, Lexception4
	pushq	%rbp
	.cfi_def_cfa_offset 16
	.cfi_offset %rbp, -16
	movq	%rsp, %rbp
	.cfi_def_cfa_register %rbp
	subq	$96, %rsp
	movq	%rdi, -80(%rbp)
	movq	%rsi, -72(%rbp)
Ltmp112:
	.loc	7 1209 11 prologue_end
	movb	$1, -25(%rbp)
	movb	$1, -26(%rbp)
	leaq	-80(%rbp), %rax
	movq	%rax, -48(%rbp)
	leaq	-72(%rbp), %rax
	movq	%rax, -40(%rbp)
	movq	-48(%rbp), %rdi
	movq	-40(%rbp), %rsi
Ltmp109:
	callq	__ZN4core3ops8function6FnOnce9call_once17h4276f4f2dd9f802dE
Ltmp110:
	movb	%al, -81(%rbp)
	jmp	LBB21_3
LBB21_1:
	.loc	7 1213 1
	jmp	LBB21_4
LBB21_2:
Ltmp111:
	.loc	7 0 1 is_stmt 0
	movq	%rax, %rcx
	movl	%edx, %eax
	movq	%rcx, -16(%rbp)
	movl	%eax, -8(%rbp)
	jmp	LBB21_1
LBB21_3:
	movb	-81(%rbp), %al
	.loc	7 1209 11 is_stmt 1
	movb	%al, -49(%rbp)
	movb	-49(%rbp), %al
	.loc	7 1209 5 is_stmt 0
	incb	%al
	subb	$2, %al
	jb	LBB21_6
	jmp	LBB21_15
LBB21_15:
	jmp	LBB21_7
LBB21_4:
	.loc	7 1213 1 is_stmt 1
	testb	$1, -25(%rbp)
	jne	LBB21_12
	jmp	LBB21_11
	.loc	7 1209 11
	ud2
LBB21_6:
	.loc	7 1210 45
	movb	$0, -25(%rbp)
	movq	-80(%rbp), %rax
	movq	%rax, -64(%rbp)
	jmp	LBB21_8
LBB21_7:
	.loc	7 1211 30
	movb	$0, -26(%rbp)
	movq	-72(%rbp), %rax
	movq	%rax, -64(%rbp)
LBB21_8:
	.loc	7 1213 1
	testb	$1, -26(%rbp)
	jne	LBB21_10
LBB21_9:
	testb	$1, -25(%rbp)
	jne	LBB21_14
	jmp	LBB21_13
LBB21_10:
	jmp	LBB21_9
LBB21_11:
	.loc	7 1204 1
	movq	-16(%rbp), %rdi
	callq	__Unwind_Resume
LBB21_12:
	.loc	7 1213 1
	jmp	LBB21_11
LBB21_13:
	.loc	7 1213 2 is_stmt 0
	movq	-64(%rbp), %rax
	addq	$96, %rsp
	popq	%rbp
	retq
LBB21_14:
	.loc	7 1213 1
	jmp	LBB21_13
Ltmp113:
Lfunc_end21:
	.cfi_endproc
	.section	__TEXT,__gcc_except_tab
	.p2align	2
GCC_except_table21:
Lexception4:
	.byte	255
	.byte	255
	.byte	1
	.uleb128 Lcst_end4-Lcst_begin4
Lcst_begin4:
	.uleb128 Ltmp109-Lfunc_begin21
	.uleb128 Ltmp110-Ltmp109
	.uleb128 Ltmp111-Lfunc_begin21
	.byte	0
	.uleb128 Ltmp110-Lfunc_begin21
	.uleb128 Lfunc_end21-Ltmp110
	.byte	0
	.byte	0
Lcst_end4:
	.p2align	2

	.section	__TEXT,__text,regular,pure_instructions
	.p2align	4, 0x90
__ZN4core3fmt9Arguments6new_v117h392beafba1cfdcb2E:
Lfunc_begin22:
	.file	24 "/rustc/2c8cc343237b8f7d5a3c3703e3a87f2eb2c54a74/library/core/src/fmt" "mod.rs"
	.loc	24 399 0 is_stmt 1
	.cfi_startproc
	pushq	%rbp
	.cfi_def_cfa_offset 16
	.cfi_offset %rbp, -16
	movq	%rsp, %rbp
	.cfi_def_cfa_register %rbp
	subq	$160, %rsp
	movq	%r8, -152(%rbp)
	movq	%rcx, -144(%rbp)
	movq	%rdx, -136(%rbp)
	movq	%rsi, -128(%rbp)
	movq	%rdi, -120(%rbp)
	movq	%rdi, -112(%rbp)
	movq	%rsi, -32(%rbp)
	movq	%rdx, -24(%rbp)
	movq	%rcx, -16(%rbp)
	movq	%r8, -8(%rbp)
Ltmp114:
	.loc	24 400 12 prologue_end
	cmpq	%r8, %rdx
	jb	LBB22_2
	.loc	24 0 12 is_stmt 0
	movq	-136(%rbp), %rax
	movq	-152(%rbp), %rcx
	.loc	24 400 56
	addq	$1, %rcx
	.loc	24 400 41
	cmpq	%rcx, %rax
	seta	%al
	.loc	24 400 12
	andb	$1, %al
	movb	%al, -97(%rbp)
	jmp	LBB22_3
LBB22_2:
	movb	$1, -97(%rbp)
LBB22_3:
	testb	$1, -97(%rbp)
	jne	LBB22_5
	.loc	24 0 12
	movq	-112(%rbp), %rax
	movq	-120(%rbp), %rcx
	movq	-152(%rbp), %rdx
	movq	-144(%rbp), %rsi
	movq	-136(%rbp), %rdi
	movq	-128(%rbp), %r8
	.loc	24 403 34 is_stmt 1
	movq	$0, -48(%rbp)
	.loc	24 403 9 is_stmt 0
	movq	%r8, 16(%rcx)
	movq	%rdi, 24(%rcx)
	movq	-48(%rbp), %r8
	movq	-40(%rbp), %rdi
	movq	%r8, (%rcx)
	movq	%rdi, 8(%rcx)
	movq	%rsi, 32(%rcx)
	movq	%rdx, 40(%rcx)
	.loc	24 404 6 is_stmt 1
	addq	$160, %rsp
	popq	%rbp
	retq
LBB22_5:
	.loc	24 401 13
	leaq	l___unnamed_3(%rip), %rsi
	leaq	l___unnamed_4(%rip), %rcx
	xorl	%eax, %eax
	movl	%eax, %r8d
	leaq	-96(%rbp), %rdi
	movq	%rdi, -160(%rbp)
	movl	$1, %edx
	callq	__ZN4core3fmt9Arguments6new_v117h392beafba1cfdcb2E
	movq	-160(%rbp), %rdi
	leaq	l___unnamed_5(%rip), %rsi
	callq	__ZN4core9panicking9panic_fmt17h9b5d807e24bcaaedE
Ltmp115:
Lfunc_end22:
	.cfi_endproc

	.p2align	4, 0x90
__ZN4core3mem7replace17h27dfd37ea9c91f0eE:
Lfunc_begin23:
	.file	25 "/rustc/2c8cc343237b8f7d5a3c3703e3a87f2eb2c54a74/library/core/src/mem" "mod.rs"
	.loc	25 905 0
	.cfi_startproc
	pushq	%rbp
	.cfi_def_cfa_offset 16
	.cfi_offset %rbp, -16
	movq	%rsp, %rbp
	.cfi_def_cfa_register %rbp
	subq	$120, %rsp
	movq	%rdi, -120(%rbp)
	movq	%rsi, -112(%rbp)
	movq	%rdi, -80(%rbp)
	movq	%rsi, -72(%rbp)
Ltmp116:
	.loc	25 910 32 prologue_end
	movq	%rdi, -64(%rbp)
Ltmp117:
	.loc	4 1157 34
	leaq	-88(%rbp), %rax
	movq	%rax, -56(%rbp)
	.loc	4 1157 9 is_stmt 0
	movq	(%rdi), %rax
	movq	%rax, -88(%rbp)
	.loc	4 1158 9 is_stmt 1
	movq	-88(%rbp), %rax
	movq	%rax, -104(%rbp)
	movq	%rax, -48(%rbp)
	.loc	4 0 9 is_stmt 0
	movq	-104(%rbp), %rax
	movq	-120(%rbp), %rcx
	movq	-112(%rbp), %rdx
Ltmp118:
	.file	26 "/rustc/2c8cc343237b8f7d5a3c3703e3a87f2eb2c54a74/library/core/src/mem" "maybe_uninit.rs"
	.loc	26 627 38 is_stmt 1
	movq	%rax, -24(%rbp)
Ltmp119:
	.file	27 "/rustc/2c8cc343237b8f7d5a3c3703e3a87f2eb2c54a74/library/core/src/mem" "manually_drop.rs"
	.loc	27 89 9
	movq	%rax, -16(%rbp)
Ltmp120:
	.loc	25 911 20
	movq	%rcx, -8(%rbp)
	.loc	25 911 26 is_stmt 0
	movq	%rdx, -96(%rbp)
Ltmp121:
	.loc	4 1354 9 is_stmt 1
	movq	-96(%rbp), %rdx
	movq	%rdx, (%rcx)
Ltmp122:
	.loc	25 914 2
	addq	$120, %rsp
	popq	%rbp
	retq
Ltmp123:
Lfunc_end23:
	.cfi_endproc

	.p2align	4, 0x90
__ZN4core3ops8function6FnOnce40call_once$u7b$$u7b$vtable.shim$u7d$$u7d$17haeb425ed294eba5aE:
Lfunc_begin24:
	.file	28 "/rustc/2c8cc343237b8f7d5a3c3703e3a87f2eb2c54a74/library/core/src/ops" "function.rs"
	.loc	28 250 0
	.cfi_startproc
	pushq	%rbp
	.cfi_def_cfa_offset 16
	.cfi_offset %rbp, -16
	movq	%rsp, %rbp
	.cfi_def_cfa_register %rbp
	subq	$16, %rsp
	movq	%rdi, -8(%rbp)
Ltmp124:
	.loc	28 250 5 prologue_end
	movq	(%rdi), %rdi
	callq	__ZN4core3ops8function6FnOnce9call_once17h98ac1c4051fe5de3E
	addq	$16, %rsp
	popq	%rbp
	retq
Ltmp125:
Lfunc_end24:
	.cfi_endproc

	.p2align	4, 0x90
__ZN4core3ops8function6FnOnce9call_once17h4276f4f2dd9f802dE:
Lfunc_begin25:
	.loc	28 250 0
	.cfi_startproc
	pushq	%rbp
	.cfi_def_cfa_offset 16
	.cfi_offset %rbp, -16
	movq	%rsp, %rbp
	.cfi_def_cfa_register %rbp
	subq	$32, %rsp
	movq	%rdi, -24(%rbp)
	movq	%rsi, -16(%rbp)
Ltmp126:
	.loc	28 250 5 prologue_end
	movq	-24(%rbp), %rdi
	movq	-16(%rbp), %rsi
	callq	__ZN4core3cmp5impls50_$LT$impl$u20$core..cmp..Ord$u20$for$u20$usize$GT$3cmp17hc143166b01a0501bE
	addq	$32, %rsp
	popq	%rbp
	retq
Ltmp127:
Lfunc_end25:
	.cfi_endproc

	.p2align	4, 0x90
__ZN4core3ops8function6FnOnce9call_once17h98ac1c4051fe5de3E:
Lfunc_begin26:
	.loc	28 250 0
	.cfi_startproc
	.cfi_personality 155, _rust_eh_personality
	.cfi_lsda 16, Lexception5
	pushq	%rbp
	.cfi_def_cfa_offset 16
	.cfi_offset %rbp, -16
	movq	%rsp, %rbp
	.cfi_def_cfa_register %rbp
	subq	$48, %rsp
	movq	%rdi, -32(%rbp)
Ltmp128:
	leaq	-32(%rbp), %rdi
Ltmp131:
	.loc	28 250 5 prologue_end
	callq	__ZN3std2rt10lang_start28_$u7b$$u7b$closure$u7d$$u7d$17h5c0edd22600b7348E
Ltmp129:
	movl	%eax, -36(%rbp)
	jmp	LBB26_3
LBB26_1:
	movq	-16(%rbp), %rdi
	callq	__Unwind_Resume
LBB26_2:
Ltmp130:
	.loc	28 0 5 is_stmt 0
	movq	%rax, %rcx
	movl	%edx, %eax
	movq	%rcx, -16(%rbp)
	movl	%eax, -8(%rbp)
	jmp	LBB26_1
LBB26_3:
	movl	-36(%rbp), %eax
	.loc	28 250 5
	addq	$48, %rsp
	popq	%rbp
	retq
Ltmp132:
Lfunc_end26:
	.cfi_endproc
	.section	__TEXT,__gcc_except_tab
	.p2align	2
GCC_except_table26:
Lexception5:
	.byte	255
	.byte	255
	.byte	1
	.uleb128 Lcst_end5-Lcst_begin5
Lcst_begin5:
	.uleb128 Ltmp128-Lfunc_begin26
	.uleb128 Ltmp129-Ltmp128
	.uleb128 Ltmp130-Lfunc_begin26
	.byte	0
	.uleb128 Ltmp129-Lfunc_begin26
	.uleb128 Lfunc_end26-Ltmp129
	.byte	0
	.byte	0
Lcst_end5:
	.p2align	2

	.section	__TEXT,__text,regular,pure_instructions
	.p2align	4, 0x90
__ZN4core3ops8function6FnOnce9call_once17h9c13c4446bd5727fE:
Lfunc_begin27:
	.loc	28 250 0 is_stmt 1
	.cfi_startproc
	pushq	%rbp
	.cfi_def_cfa_offset 16
	.cfi_offset %rbp, -16
	movq	%rsp, %rbp
	.cfi_def_cfa_register %rbp
	subq	$16, %rsp
	movq	%rdi, -8(%rbp)
Ltmp133:
	.loc	28 250 5 prologue_end
	callq	*%rdi
	addq	$16, %rsp
	popq	%rbp
	retq
Ltmp134:
Lfunc_end27:
	.cfi_endproc

	.p2align	4, 0x90
__ZN4core3ptr39drop_in_place$LT$std..env..VarError$GT$17h8f2e936d7749f4feE:
Lfunc_begin28:
	.loc	4 490 0
	.cfi_startproc
	pushq	%rbp
	.cfi_def_cfa_offset 16
	.cfi_offset %rbp, -16
	movq	%rsp, %rbp
	.cfi_def_cfa_register %rbp
	subq	$16, %rsp
	movq	%rdi, -16(%rbp)
	movq	%rdi, -8(%rbp)
Ltmp135:
	.loc	4 490 1 prologue_end
	movq	8(%rdi), %rdx
	movl	$1, %eax
	xorl	%ecx, %ecx
	cmpq	$0, %rdx
	cmoveq	%rcx, %rax
	cmpq	$0, %rax
	jne	LBB28_2
LBB28_1:
	addq	$16, %rsp
	popq	%rbp
	retq
LBB28_2:
	.loc	4 0 1 is_stmt 0
	movq	-16(%rbp), %rdi
	.loc	4 490 1
	callq	__ZN4core3ptr47drop_in_place$LT$std..ffi..os_str..OsString$GT$17h247194f6d95a896dE
	jmp	LBB28_1
Ltmp136:
Lfunc_end28:
	.cfi_endproc

	.p2align	4, 0x90
__ZN4core3ptr42drop_in_place$LT$alloc..string..String$GT$17h1cbce4299fab7fddE:
Lfunc_begin29:
	.loc	4 490 0 is_stmt 1
	.cfi_startproc
	pushq	%rbp
	.cfi_def_cfa_offset 16
	.cfi_offset %rbp, -16
	movq	%rsp, %rbp
	.cfi_def_cfa_register %rbp
	subq	$16, %rsp
	movq	%rdi, -8(%rbp)
Ltmp137:
	.loc	4 490 1 prologue_end
	callq	__ZN4core3ptr46drop_in_place$LT$alloc..vec..Vec$LT$u8$GT$$GT$17hf39fc810abfc792aE
	addq	$16, %rsp
	popq	%rbp
	retq
Ltmp138:
Lfunc_end29:
	.cfi_endproc

	.p2align	4, 0x90
__ZN4core3ptr46drop_in_place$LT$alloc..vec..Vec$LT$u8$GT$$GT$17hf39fc810abfc792aE:
Lfunc_begin30:
	.loc	4 490 0
	.cfi_startproc
	.cfi_personality 155, _rust_eh_personality
	.cfi_lsda 16, Lexception6
	pushq	%rbp
	.cfi_def_cfa_offset 16
	.cfi_offset %rbp, -16
	movq	%rsp, %rbp
	.cfi_def_cfa_register %rbp
	subq	$32, %rsp
	movq	%rdi, -32(%rbp)
	movq	%rdi, -24(%rbp)
Ltmp139:
Ltmp145:
	.loc	4 490 1 prologue_end
	callq	__ZN70_$LT$alloc..vec..Vec$LT$T$C$A$GT$$u20$as$u20$core..ops..drop..Drop$GT$4drop17hf6d1c050604c5f09E
Ltmp140:
	jmp	LBB30_3
LBB30_1:
Ltmp142:
	.loc	4 0 1 is_stmt 0
	movq	-32(%rbp), %rdi
	.loc	4 490 1
	callq	__ZN4core3ptr53drop_in_place$LT$alloc..raw_vec..RawVec$LT$u8$GT$$GT$17h6988127bad0925ecE
Ltmp143:
	jmp	LBB30_5
LBB30_2:
Ltmp141:
	.loc	4 0 1
	movq	%rax, %rcx
	movl	%edx, %eax
	movq	%rcx, -16(%rbp)
	movl	%eax, -8(%rbp)
	jmp	LBB30_1
LBB30_3:
	movq	-32(%rbp), %rdi
	.loc	4 490 1
	callq	__ZN4core3ptr53drop_in_place$LT$alloc..raw_vec..RawVec$LT$u8$GT$$GT$17h6988127bad0925ecE
	addq	$32, %rsp
	popq	%rbp
	retq
LBB30_4:
Ltmp144:
	callq	__ZN4core9panicking19panic_cannot_unwind17h1fbca7e1d7f56ae1E
LBB30_5:
	movq	-16(%rbp), %rdi
	callq	__Unwind_Resume
Ltmp146:
Lfunc_end30:
	.cfi_endproc
	.section	__TEXT,__gcc_except_tab
	.p2align	2
GCC_except_table30:
Lexception6:
	.byte	255
	.byte	255
	.byte	1
	.uleb128 Lcst_end6-Lcst_begin6
Lcst_begin6:
	.uleb128 Ltmp139-Lfunc_begin30
	.uleb128 Ltmp140-Ltmp139
	.uleb128 Ltmp141-Lfunc_begin30
	.byte	0
	.uleb128 Ltmp142-Lfunc_begin30
	.uleb128 Ltmp143-Ltmp142
	.uleb128 Ltmp144-Lfunc_begin30
	.byte	0
	.uleb128 Ltmp143-Lfunc_begin30
	.uleb128 Lfunc_end30-Ltmp143
	.byte	0
	.byte	0
Lcst_end6:
	.p2align	2

	.section	__TEXT,__text,regular,pure_instructions
	.p2align	4, 0x90
__ZN4core3ptr47drop_in_place$LT$std..ffi..os_str..OsString$GT$17h247194f6d95a896dE:
Lfunc_begin31:
	.loc	4 490 0 is_stmt 1
	.cfi_startproc
	pushq	%rbp
	.cfi_def_cfa_offset 16
	.cfi_offset %rbp, -16
	movq	%rsp, %rbp
	.cfi_def_cfa_register %rbp
	subq	$16, %rsp
	movq	%rdi, -8(%rbp)
Ltmp147:
	.loc	4 490 1 prologue_end
	callq	__ZN4core3ptr48drop_in_place$LT$std..sys..unix..os_str..Buf$GT$17ha619e60347ce3675E
	addq	$16, %rsp
	popq	%rbp
	retq
Ltmp148:
Lfunc_end31:
	.cfi_endproc

	.p2align	4, 0x90
__ZN4core3ptr48drop_in_place$LT$std..sys..unix..os_str..Buf$GT$17ha619e60347ce3675E:
Lfunc_begin32:
	.loc	4 490 0
	.cfi_startproc
	pushq	%rbp
	.cfi_def_cfa_offset 16
	.cfi_offset %rbp, -16
	movq	%rsp, %rbp
	.cfi_def_cfa_register %rbp
	subq	$16, %rsp
	movq	%rdi, -8(%rbp)
Ltmp149:
	.loc	4 490 1 prologue_end
	callq	__ZN4core3ptr46drop_in_place$LT$alloc..vec..Vec$LT$u8$GT$$GT$17hf39fc810abfc792aE
	addq	$16, %rsp
	popq	%rbp
	retq
Ltmp150:
Lfunc_end32:
	.cfi_endproc

	.p2align	4, 0x90
__ZN4core3ptr53drop_in_place$LT$alloc..raw_vec..RawVec$LT$u8$GT$$GT$17h6988127bad0925ecE:
Lfunc_begin33:
	.loc	4 490 0
	.cfi_startproc
	pushq	%rbp
	.cfi_def_cfa_offset 16
	.cfi_offset %rbp, -16
	movq	%rsp, %rbp
	.cfi_def_cfa_register %rbp
	subq	$16, %rsp
	movq	%rdi, -8(%rbp)
Ltmp151:
	.loc	4 490 1 prologue_end
	callq	__ZN77_$LT$alloc..raw_vec..RawVec$LT$T$C$A$GT$$u20$as$u20$core..ops..drop..Drop$GT$4drop17hfbb27102880382c7E
	addq	$16, %rsp
	popq	%rbp
	retq
Ltmp152:
Lfunc_end33:
	.cfi_endproc

	.p2align	4, 0x90
__ZN4core3ptr85drop_in_place$LT$std..rt..lang_start$LT$$LP$$RP$$GT$..$u7b$$u7b$closure$u7d$$u7d$$GT$17h471010c1ccb7e4a3E:
Lfunc_begin34:
	.loc	4 490 0
	.cfi_startproc
	pushq	%rbp
	.cfi_def_cfa_offset 16
	.cfi_offset %rbp, -16
	movq	%rsp, %rbp
	.cfi_def_cfa_register %rbp
	pushq	%rax
	movq	%rdi, -8(%rbp)
Ltmp153:
	.loc	4 490 1 prologue_end
	addq	$8, %rsp
	popq	%rbp
	retq
Ltmp154:
Lfunc_end34:
	.cfi_endproc

	.p2align	4, 0x90
__ZN4core3ptr9const_ptr33_$LT$impl$u20$$BP$const$u20$T$GT$7sub_ptr17hcb685b81d17c34ddE:
Lfunc_begin35:
	.loc	3 791 0
	.cfi_startproc
	pushq	%rbp
	.cfi_def_cfa_offset 16
	.cfi_offset %rbp, -16
	movq	%rsp, %rbp
	.cfi_def_cfa_register %rbp
	subq	$64, %rsp
	movq	%rdi, -56(%rbp)
	movq	%rsi, -48(%rbp)
	movq	%rdi, -32(%rbp)
	movq	%rsi, -24(%rbp)
Ltmp155:
	.loc	25 309 5 prologue_end
	movq	$1, -16(%rbp)
Ltmp156:
	.loc	3 806 17
	movb	$1, %al
	testb	$1, %al
	jne	LBB35_2
	movb	$0, -33(%rbp)
	jmp	LBB35_3
LBB35_2:
	movb	$1, -33(%rbp)
LBB35_3:
	.loc	3 806 9 is_stmt 0
	movb	-33(%rbp), %al
	xorb	$-1, %al
	testb	$1, %al
	jne	LBB35_5
	.loc	3 0 9
	movq	-48(%rbp), %rcx
	movq	-56(%rbp), %rax
	.loc	3 808 18 is_stmt 1
	subq	%rcx, %rax
	shrq	$0, %rax
	movq	%rax, -8(%rbp)
	movq	-8(%rbp), %rax
Ltmp157:
	.loc	3 809 6
	addq	$64, %rsp
	popq	%rbp
	retq
LBB35_5:
Ltmp158:
	.loc	3 806 9
	leaq	l___unnamed_6(%rip), %rdi
	leaq	l___unnamed_7(%rip), %rdx
	movl	$73, %esi
	callq	__ZN4core9panicking5panic17hc1bc45270cf64b03E
Ltmp159:
Lfunc_end35:
	.cfi_endproc

	.p2align	4, 0x90
__ZN4core3str11validations15next_code_point17ha3077682e724808cE:
Lfunc_begin36:
	.file	29 "/rustc/2c8cc343237b8f7d5a3c3703e3a87f2eb2c54a74/library/core/src/str" "validations.rs"
	.loc	29 36 0
	.cfi_startproc
	pushq	%rbp
	.cfi_def_cfa_offset 16
	.cfi_offset %rbp, -16
	movq	%rsp, %rbp
	.cfi_def_cfa_register %rbp
	subq	$144, %rsp
	movq	%rdi, -128(%rbp)
	movq	%rdi, -88(%rbp)
Ltmp160:
	.loc	29 38 14 prologue_end
	callq	__ZN91_$LT$core..slice..iter..Iter$LT$T$GT$$u20$as$u20$core..iter..traits..iterator..Iterator$GT$4next17h1d234d0db133aac9E
	movq	%rax, -104(%rbp)
Ltmp161:
	.file	30 "/rustc/2c8cc343237b8f7d5a3c3703e3a87f2eb2c54a74/library/core/src" "option.rs"
	.loc	30 2407 15
	movq	-104(%rbp), %rdx
	movl	$1, %eax
	xorl	%ecx, %ecx
	cmpq	$0, %rdx
	cmoveq	%rcx, %rax
	.loc	30 2407 9 is_stmt 0
	cmpq	$0, %rax
	jne	LBB36_2
	.loc	30 2409 21 is_stmt 1
	movq	$0, -112(%rbp)
	.loc	30 2409 44 is_stmt 0
	jmp	LBB36_3
LBB36_2:
	.loc	30 2408 18 is_stmt 1
	movq	-104(%rbp), %rax
	movq	%rax, -64(%rbp)
Ltmp162:
	.loc	30 2408 24 is_stmt 0
	movq	%rax, -112(%rbp)
Ltmp163:
LBB36_3:
	.loc	29 38 14 is_stmt 1
	movq	-112(%rbp), %rdx
	xorl	%eax, %eax
	movl	$1, %ecx
	cmpq	$0, %rdx
	cmoveq	%rcx, %rax
	cmpq	$0, %rax
	jne	LBB36_5
	movq	-112(%rbp), %rax
	movq	%rax, -56(%rbp)
	.loc	29 38 13 is_stmt 0
	movb	(%rax), %al
	movb	%al, -129(%rbp)
	movb	%al, -42(%rbp)
Ltmp164:
	.loc	29 39 8 is_stmt 1
	cmpb	$-128, %al
	jb	LBB36_8
	jmp	LBB36_7
Ltmp165:
LBB36_5:
	.loc	30 2420 21
	movl	$0, -120(%rbp)
Ltmp166:
LBB36_6:
	.loc	29 70 2
	jmp	LBB36_9
LBB36_7:
	.loc	29 0 2 is_stmt 0
	movb	-129(%rbp), %al
	movq	-128(%rbp), %rdi
Ltmp167:
	.loc	29 46 32 is_stmt 1
	movb	%al, -41(%rbp)
Ltmp168:
	.loc	29 12 5
	andb	$31, %al
	movzbl	%al, %eax
	movl	%eax, -136(%rbp)
	movl	%eax, -40(%rbp)
Ltmp169:
	.loc	29 49 23
	callq	__ZN91_$LT$core..slice..iter..Iter$LT$T$GT$$u20$as$u20$core..iter..traits..iterator..Iterator$GT$4next17h1d234d0db133aac9E
	movq	%rax, %rdi
	leaq	l___unnamed_8(%rip), %rsi
	callq	__ZN4core6option15Option$LT$T$GT$16unwrap_unchecked17h0e6fa5ad7e17f2d2E
	movl	-136(%rbp), %ecx
	movq	%rax, %rdx
	movb	-129(%rbp), %al
	.loc	29 49 22 is_stmt 0
	movb	(%rdx), %dl
	movb	%dl, -130(%rbp)
	movb	%dl, -33(%rbp)
Ltmp170:
	.loc	29 50 37 is_stmt 1
	movl	%ecx, -32(%rbp)
	.loc	29 50 43 is_stmt 0
	movb	%dl, -26(%rbp)
Ltmp171:
	.loc	29 18 5 is_stmt 1
	shll	$6, %ecx
	.loc	29 18 17 is_stmt 0
	andb	$63, %dl
	movzbl	%dl, %edx
	.loc	29 18 5
	orl	%edx, %ecx
	movl	%ecx, -92(%rbp)
Ltmp172:
	.loc	29 51 8 is_stmt 1
	cmpb	$-32, %al
	jae	LBB36_11
	jmp	LBB36_10
Ltmp173:
LBB36_8:
	.loc	29 0 8 is_stmt 0
	movb	-129(%rbp), %al
	.loc	29 40 21 is_stmt 1
	movzbl	%al, %eax
	.loc	29 40 16 is_stmt 0
	movl	%eax, -116(%rbp)
	movl	$1, -120(%rbp)
	.file	31 "/Users/natalie/.cargo/registry/src/github.com-1ecc6299db9ec823/core-foundation-sys-0.8.3" "build.rs"
	.loc	31 1 1 is_stmt 1
	jmp	LBB36_6
Ltmp174:
LBB36_9:
	.loc	29 70 2
	movl	-120(%rbp), %eax
	movl	-116(%rbp), %edx
	addq	$144, %rsp
	popq	%rbp
	retq
LBB36_10:
Ltmp175:
	.loc	29 69 10
	movl	-92(%rbp), %eax
	.loc	29 69 5 is_stmt 0
	movl	%eax, -116(%rbp)
	movl	$1, -120(%rbp)
Ltmp176:
	.loc	29 70 2 is_stmt 1
	jmp	LBB36_9
LBB36_11:
	.loc	29 0 2 is_stmt 0
	movq	-128(%rbp), %rdi
Ltmp177:
	.loc	29 56 27 is_stmt 1
	callq	__ZN91_$LT$core..slice..iter..Iter$LT$T$GT$$u20$as$u20$core..iter..traits..iterator..Iterator$GT$4next17h1d234d0db133aac9E
	movq	%rax, %rdi
	leaq	l___unnamed_9(%rip), %rsi
	callq	__ZN4core6option15Option$LT$T$GT$16unwrap_unchecked17h0e6fa5ad7e17f2d2E
	movb	-130(%rbp), %dl
	movl	-136(%rbp), %ecx
	movq	%rax, %rsi
	movb	-129(%rbp), %al
	.loc	29 56 26 is_stmt 0
	movb	(%rsi), %sil
	movb	%sil, -25(%rbp)
Ltmp178:
	.loc	29 57 38 is_stmt 1
	andb	$63, %dl
	movzbl	%dl, %edx
	movl	%edx, -24(%rbp)
	.loc	29 57 62 is_stmt 0
	movb	%sil, -17(%rbp)
Ltmp179:
	.loc	29 18 5 is_stmt 1
	shll	$6, %edx
	.loc	29 18 17 is_stmt 0
	andb	$63, %sil
	movzbl	%sil, %esi
	.loc	29 18 5
	orl	%esi, %edx
	movl	%edx, -140(%rbp)
	movl	%edx, -16(%rbp)
Ltmp180:
	.loc	29 58 14 is_stmt 1
	shll	$12, %ecx
	.loc	29 58 9 is_stmt 0
	orl	%edx, %ecx
	movl	%ecx, -92(%rbp)
	.loc	29 59 12 is_stmt 1
	cmpb	$-16, %al
	jae	LBB36_13
Ltmp181:
LBB36_12:
	.loc	29 51 5
	jmp	LBB36_10
LBB36_13:
	.loc	29 0 5 is_stmt 0
	movq	-128(%rbp), %rdi
Ltmp182:
	.loc	29 64 31 is_stmt 1
	callq	__ZN91_$LT$core..slice..iter..Iter$LT$T$GT$$u20$as$u20$core..iter..traits..iterator..Iterator$GT$4next17h1d234d0db133aac9E
	movq	%rax, %rdi
	leaq	l___unnamed_10(%rip), %rsi
	callq	__ZN4core6option15Option$LT$T$GT$16unwrap_unchecked17h0e6fa5ad7e17f2d2E
	movl	-140(%rbp), %ecx
	movq	%rax, %rdx
	movl	-136(%rbp), %eax
	.loc	29 64 30 is_stmt 0
	movb	(%rdx), %dl
	movb	%dl, -9(%rbp)
Ltmp183:
	.loc	29 65 18 is_stmt 1
	andl	$7, %eax
	shll	$18, %eax
	.loc	29 65 56 is_stmt 0
	movl	%ecx, -8(%rbp)
	.loc	29 65 61
	movb	%dl, -1(%rbp)
Ltmp184:
	.loc	29 18 5 is_stmt 1
	shll	$6, %ecx
	.loc	29 18 17 is_stmt 0
	andb	$63, %dl
	movzbl	%dl, %edx
	.loc	29 18 5
	orl	%edx, %ecx
Ltmp185:
	.loc	29 65 13 is_stmt 1
	orl	%ecx, %eax
	movl	%eax, -92(%rbp)
Ltmp186:
	.loc	29 59 9
	jmp	LBB36_12
Ltmp187:
Lfunc_end36:
	.cfi_endproc

	.p2align	4, 0x90
__ZN4core3str21_$LT$impl$u20$str$GT$16is_char_boundary17h1ed5be412af349baE:
Lfunc_begin37:
	.loc	21 211 0
	.cfi_startproc
	pushq	%rbp
	.cfi_def_cfa_offset 16
	.cfi_offset %rbp, -16
	movq	%rsp, %rbp
	.cfi_def_cfa_register %rbp
	subq	$176, %rsp
	movq	%rdi, -176(%rbp)
	movq	%rsi, -168(%rbp)
	movq	%rdx, -160(%rbp)
	movq	%rdi, -136(%rbp)
	movq	%rsi, -128(%rbp)
	movq	%rdx, -120(%rbp)
Ltmp188:
	.loc	21 216 12 prologue_end
	cmpq	$0, %rdx
	jne	LBB37_2
	.loc	21 217 20
	movb	$1, -145(%rbp)
	.loc	21 234 6
	jmp	LBB37_6
LBB37_2:
	.loc	21 0 6 is_stmt 0
	movq	-160(%rbp), %rdi
	movq	-168(%rbp), %rax
	movq	-176(%rbp), %rcx
	.loc	21 220 15 is_stmt 1
	movq	%rcx, -112(%rbp)
	movq	%rax, -104(%rbp)
Ltmp189:
	.loc	21 327 18
	movq	%rcx, -96(%rbp)
	movq	%rax, -88(%rbp)
	movq	-96(%rbp), %rsi
	movq	-88(%rbp), %rdx
Ltmp190:
	.loc	21 220 15
	movq	%rsi, -80(%rbp)
	movq	%rdx, -72(%rbp)
	.loc	21 220 35 is_stmt 0
	movq	%rdi, -64(%rbp)
Ltmp191:
	.file	32 "/rustc/2c8cc343237b8f7d5a3c3703e3a87f2eb2c54a74/library/core/src/slice" "mod.rs"
	.loc	32 343 9 is_stmt 1
	callq	__ZN75_$LT$usize$u20$as$u20$core..slice..index..SliceIndex$LT$$u5b$T$u5d$$GT$$GT$3get17hfc1c0478e8c2d4f0E
	movq	%rax, -144(%rbp)
Ltmp192:
	.loc	21 220 15
	movq	-144(%rbp), %rdx
	movl	$1, %eax
	xorl	%ecx, %ecx
	cmpq	$0, %rdx
	cmoveq	%rcx, %rax
	.loc	21 220 9 is_stmt 0
	cmpq	$0, %rax
	jne	LBB37_4
	.loc	21 0 9
	movq	-160(%rbp), %rax
	movq	-168(%rbp), %rcx
	movq	-176(%rbp), %rdx
	.loc	21 230 30 is_stmt 1
	movq	%rdx, -48(%rbp)
	movq	%rcx, -40(%rbp)
Ltmp193:
	.loc	21 160 9
	movq	%rdx, -32(%rbp)
	movq	%rcx, -24(%rbp)
Ltmp194:
	.loc	21 327 18
	movq	%rdx, -16(%rbp)
	movq	%rcx, -8(%rbp)
Ltmp195:
	.loc	21 230 21
	cmpq	-8(%rbp), %rax
	sete	%al
	andb	$1, %al
	movb	%al, -145(%rbp)
	.loc	21 230 39 is_stmt 0
	jmp	LBB37_5
LBB37_4:
	.loc	21 232 19 is_stmt 1
	movq	-144(%rbp), %rax
	movb	(%rax), %al
	movb	%al, -50(%rbp)
Ltmp196:
	.loc	21 232 25 is_stmt 0
	movb	%al, -49(%rbp)
Ltmp197:
	.file	33 "/rustc/2c8cc343237b8f7d5a3c3703e3a87f2eb2c54a74/library/core/src/num" "mod.rs"
	.loc	33 885 9 is_stmt 1
	cmpb	$-64, %al
	setge	%al
	andb	$1, %al
	movb	%al, -145(%rbp)
Ltmp198:
LBB37_5:
	.loc	21 234 6
	jmp	LBB37_6
LBB37_6:
	movb	-145(%rbp), %al
	andb	$1, %al
	movzbl	%al, %eax
	addq	$176, %rsp
	popq	%rbp
	retq
Ltmp199:
Lfunc_end37:
	.cfi_endproc

	.p2align	4, 0x90
__ZN4core3str21_$LT$impl$u20$str$GT$8contains17hfef2859b8e4d2189E:
Lfunc_begin38:
	.loc	21 1070 0
	.cfi_startproc
	pushq	%rbp
	.cfi_def_cfa_offset 16
	.cfi_offset %rbp, -16
	movq	%rsp, %rbp
	.cfi_def_cfa_register %rbp
	subq	$48, %rsp
	movq	%rcx, -48(%rbp)
	movq	%rdx, -40(%rbp)
	movq	%rsi, %rcx
	movq	-48(%rbp), %rsi
	movq	%rdi, %rdx
	movq	-40(%rbp), %rdi
	movq	%rdx, -32(%rbp)
	movq	%rcx, -24(%rbp)
	movq	%rdi, -16(%rbp)
	movq	%rsi, -8(%rbp)
Ltmp200:
	.loc	21 1071 9 prologue_end
	callq	__ZN55_$LT$$RF$str$u20$as$u20$core..str..pattern..Pattern$GT$15is_contained_in17h55516c0fce23dd69E
	.loc	21 1072 6
	andb	$1, %al
	movzbl	%al, %eax
	addq	$48, %rsp
	popq	%rbp
	retq
Ltmp201:
Lfunc_end38:
	.cfi_endproc

	.p2align	4, 0x90
__ZN4core3str6traits112_$LT$impl$u20$core..slice..index..SliceIndex$LT$str$GT$$u20$for$u20$core..ops..range..RangeFrom$LT$usize$GT$$GT$13get_unchecked17h37854a7413a64575E:
Lfunc_begin39:
	.file	34 "/rustc/2c8cc343237b8f7d5a3c3703e3a87f2eb2c54a74/library/core/src/str" "traits.rs"
	.loc	34 349 0
	.cfi_startproc
	pushq	%rbp
	.cfi_def_cfa_offset 16
	.cfi_offset %rbp, -16
	movq	%rsp, %rbp
	.cfi_def_cfa_register %rbp
	subq	$232, %rsp
	movq	%rdi, -184(%rbp)
	movq	%rsi, -176(%rbp)
	movq	%rdx, -168(%rbp)
Ltmp202:
	.loc	34 350 21 prologue_end
	movq	%rsi, -160(%rbp)
	movq	%rdx, -152(%rbp)
Ltmp203:
	.loc	34 353 28
	movq	%rsi, -144(%rbp)
	movq	%rdx, -136(%rbp)
Ltmp204:
	.loc	3 1650 9
	movq	%rsi, -128(%rbp)
Ltmp205:
	.loc	34 353 47
	movq	%rdi, -120(%rbp)
Ltmp206:
	.loc	3 932 18
	movq	%rsi, -112(%rbp)
	.loc	3 932 30 is_stmt 0
	movq	%rdi, -104(%rbp)
Ltmp207:
	.loc	3 473 18 is_stmt 1
	movq	%rsi, %rax
	addq	%rdi, %rax
	movq	%rax, -96(%rbp)
	movq	-96(%rbp), %rcx
	movq	%rcx, -88(%rbp)
Ltmp208:
	.loc	34 354 19
	movq	%rsi, -80(%rbp)
	movq	%rdx, -72(%rbp)
Ltmp209:
	.loc	3 1630 18
	movq	%rsi, -64(%rbp)
	movq	%rdx, -56(%rbp)
Ltmp210:
	.loc	5 98 14
	movq	%rsi, -232(%rbp)
	movq	%rdx, -224(%rbp)
	movq	-224(%rbp), %rax
Ltmp211:
	.loc	34 354 19
	subq	%rdi, %rax
	movq	%rax, -48(%rbp)
Ltmp212:
	.loc	34 355 35
	movq	%rcx, -40(%rbp)
	.loc	34 355 40 is_stmt 0
	movq	%rax, -32(%rbp)
Ltmp213:
	.loc	4 734 20 is_stmt 1
	movq	%rcx, -24(%rbp)
Ltmp214:
	.loc	3 61 9
	movq	%rcx, -16(%rbp)
Ltmp215:
	.loc	4 734 33
	movq	%rax, -8(%rbp)
Ltmp216:
	.loc	5 118 36
	movq	%rcx, -200(%rbp)
	movq	%rax, -192(%rbp)
	.loc	5 118 14 is_stmt 0
	movq	-200(%rbp), %rcx
	movq	-192(%rbp), %rax
	movq	%rcx, -216(%rbp)
	movq	%rax, -208(%rbp)
	movq	-216(%rbp), %rax
	movq	-208(%rbp), %rdx
Ltmp217:
	.loc	34 356 6 is_stmt 1
	addq	$232, %rsp
	popq	%rbp
	retq
Ltmp218:
Lfunc_end39:
	.cfi_endproc

	.p2align	4, 0x90
__ZN4core3str6traits112_$LT$impl$u20$core..slice..index..SliceIndex$LT$str$GT$$u20$for$u20$core..ops..range..RangeFrom$LT$usize$GT$$GT$3get17haf2afed16ccf539fE:
Lfunc_begin40:
	.loc	34 329 0
	.cfi_startproc
	pushq	%rbp
	.cfi_def_cfa_offset 16
	.cfi_offset %rbp, -16
	movq	%rsp, %rbp
	.cfi_def_cfa_register %rbp
	subq	$80, %rsp
	movq	%rdx, -80(%rbp)
	movq	%rsi, %rax
	movq	-80(%rbp), %rsi
	movq	%rax, -72(%rbp)
	movq	%rdi, %rdx
	movq	-72(%rbp), %rdi
	movq	%rdx, -64(%rbp)
	movq	%rdi, -56(%rbp)
	movq	%rsi, -48(%rbp)
	movq	%rdx, -24(%rbp)
	movq	%rdi, -16(%rbp)
	movq	%rsi, -8(%rbp)
Ltmp219:
	.loc	34 330 12 prologue_end
	callq	__ZN4core3str21_$LT$impl$u20$str$GT$16is_char_boundary17h1ed5be412af349baE
	testb	$1, %al
	jne	LBB40_2
	.loc	34 335 13
	movq	$0, -40(%rbp)
	.loc	34 330 9
	jmp	LBB40_3
LBB40_2:
	.loc	34 0 9 is_stmt 0
	movq	-48(%rbp), %rdx
	movq	-56(%rbp), %rsi
	movq	-64(%rbp), %rdi
	.loc	34 333 29 is_stmt 1
	callq	__ZN4core3str6traits112_$LT$impl$u20$core..slice..index..SliceIndex$LT$str$GT$$u20$for$u20$core..ops..range..RangeFrom$LT$usize$GT$$GT$13get_unchecked17h37854a7413a64575E
	.loc	34 333 13 is_stmt 0
	movq	%rax, -40(%rbp)
	movq	%rdx, -32(%rbp)
LBB40_3:
	.loc	34 337 6 is_stmt 1
	movq	-40(%rbp), %rax
	movq	-32(%rbp), %rdx
	addq	$80, %rsp
	popq	%rbp
	retq
Ltmp220:
Lfunc_end40:
	.cfi_endproc

	.p2align	4, 0x90
__ZN4core3str6traits112_$LT$impl$u20$core..slice..index..SliceIndex$LT$str$GT$$u20$for$u20$core..ops..range..RangeFrom$LT$usize$GT$$GT$5index17h764ef039516d14e8E:
Lfunc_begin41:
	.loc	34 366 0
	.cfi_startproc
	pushq	%rbp
	.cfi_def_cfa_offset 16
	.cfi_offset %rbp, -16
	movq	%rsp, %rbp
	.cfi_def_cfa_register %rbp
	subq	$176, %rsp
	movq	%rsi, -176(%rbp)
	movq	%rdx, -168(%rbp)
	movq	%rcx, -160(%rbp)
	movq	%rdi, -104(%rbp)
	movq	%rsi, -96(%rbp)
	movq	%rdx, -88(%rbp)
Ltmp221:
	.loc	34 367 41 prologue_end
	movq	%rsi, -80(%rbp)
	movq	%rdx, -72(%rbp)
Ltmp222:
	.loc	21 160 9
	movq	%rsi, -64(%rbp)
	movq	%rdx, -56(%rbp)
Ltmp223:
	.loc	21 327 18
	movq	%rsi, -48(%rbp)
	movq	%rdx, -40(%rbp)
	movq	-40(%rbp), %rax
Ltmp224:
	.loc	34 367 28
	movq	%rdi, -136(%rbp)
	movq	%rax, -128(%rbp)
	.loc	34 367 14 is_stmt 0
	movq	-136(%rbp), %rax
	movq	%rax, -152(%rbp)
	movq	%rax, -32(%rbp)
	.loc	34 367 21
	movq	-128(%rbp), %rax
	movq	%rax, -144(%rbp)
	movq	%rax, -24(%rbp)
Ltmp225:
	.loc	34 368 15 is_stmt 1
	callq	__ZN4core3str6traits112_$LT$impl$u20$core..slice..index..SliceIndex$LT$str$GT$$u20$for$u20$core..ops..range..RangeFrom$LT$usize$GT$$GT$3get17haf2afed16ccf539fE
	movq	%rdx, -112(%rbp)
	movq	%rax, -120(%rbp)
	movq	-120(%rbp), %rdx
	movl	$1, %eax
	xorl	%ecx, %ecx
	cmpq	$0, %rdx
	cmoveq	%rcx, %rax
	.loc	34 368 9 is_stmt 0
	cmpq	$0, %rax
	jne	LBB41_2
	.loc	34 0 9
	movq	-160(%rbp), %r8
	movq	-144(%rbp), %rcx
	movq	-152(%rbp), %rdx
	movq	-168(%rbp), %rsi
	movq	-176(%rbp), %rdi
	.loc	34 370 21 is_stmt 1
	callq	__ZN4core3str16slice_error_fail17h13b85bf03fb2869bE
LBB41_2:
	.loc	34 369 18
	movq	-120(%rbp), %rax
	movq	-112(%rbp), %rdx
	movq	%rax, -16(%rbp)
	movq	%rdx, -8(%rbp)
Ltmp226:
	.loc	34 372 6
	addq	$176, %rsp
	popq	%rbp
	retq
Ltmp227:
Lfunc_end41:
	.cfi_endproc

	.p2align	4, 0x90
__ZN4core3str6traits54_$LT$impl$u20$core..cmp..PartialEq$u20$for$u20$str$GT$2eq17hda1a6f8af97842a1E:
Lfunc_begin42:
	.loc	34 28 0
	.cfi_startproc
	pushq	%rbp
	.cfi_def_cfa_offset 16
	.cfi_offset %rbp, -16
	movq	%rsp, %rbp
	.cfi_def_cfa_register %rbp
	subq	$112, %rsp
	movq	%rdi, -80(%rbp)
	movq	%rsi, -72(%rbp)
	movq	%rdx, -64(%rbp)
	movq	%rcx, -56(%rbp)
Ltmp228:
	.loc	34 29 9 prologue_end
	movq	%rdi, -48(%rbp)
	movq	%rsi, -40(%rbp)
Ltmp229:
	.loc	21 327 18
	movq	%rdi, -112(%rbp)
	movq	%rsi, -104(%rbp)
Ltmp230:
	.loc	34 29 9
	leaq	-112(%rbp), %rax
	movq	%rax, -32(%rbp)
	.loc	34 29 28 is_stmt 0
	movq	%rdx, -24(%rbp)
	movq	%rcx, -16(%rbp)
Ltmp231:
	.loc	21 327 18 is_stmt 1
	movq	%rdx, -96(%rbp)
	movq	%rcx, -88(%rbp)
Ltmp232:
	.loc	34 29 28
	leaq	-96(%rbp), %rax
	movq	%rax, -8(%rbp)
Ltmp233:
	.loc	7 1531 27
	movq	-112(%rbp), %rdi
	movq	-104(%rbp), %rsi
	.loc	7 1531 34 is_stmt 0
	movq	-96(%rbp), %rdx
	movq	-88(%rbp), %rcx
	.loc	7 1531 13
	callq	__ZN4core5slice3cmp81_$LT$impl$u20$core..cmp..PartialEq$LT$$u5b$B$u5d$$GT$$u20$for$u20$$u5b$A$u5d$$GT$2eq17h6299848b840bf54dE
Ltmp234:
	.loc	34 30 6 is_stmt 1
	andb	$1, %al
	movzbl	%al, %eax
	addq	$112, %rsp
	popq	%rbp
	retq
Ltmp235:
Lfunc_end42:
	.cfi_endproc

	.p2align	4, 0x90
__ZN4core3str7pattern13simd_contains17h43271ae1cbde0495E:
Lfunc_begin43:
	.file	35 "/rustc/2c8cc343237b8f7d5a3c3703e3a87f2eb2c54a74/library/core/src/str" "pattern.rs"
	.loc	35 1732 0
	.cfi_startproc
	pushq	%rbp
	.cfi_def_cfa_offset 16
	.cfi_offset %rbp, -16
	movq	%rsp, %rbp
	.cfi_def_cfa_register %rbp
	subq	$864, %rsp
	movq	%rdi, -248(%rbp)
	movq	%rsi, -240(%rbp)
	movq	%rdx, -232(%rbp)
	movq	%rcx, -224(%rbp)
Ltmp236:
	.loc	35 1733 18 prologue_end
	movq	%rdi, -216(%rbp)
	movq	%rsi, -208(%rbp)
Ltmp237:
	.loc	21 327 18
	movq	%rdi, -760(%rbp)
	movq	%rsi, -752(%rbp)
Ltmp238:
	.loc	35 1734 20
	movq	%rdx, -200(%rbp)
	movq	%rcx, -192(%rbp)
Ltmp239:
	.loc	21 327 18
	movq	%rdx, -184(%rbp)
	movq	%rcx, -176(%rbp)
	movq	-184(%rbp), %rcx
	movq	%rcx, -792(%rbp)
	movq	-176(%rbp), %rax
	movq	%rax, -784(%rbp)
	movq	%rcx, -168(%rbp)
	movq	%rax, -160(%rbp)
Ltmp240:
	.loc	35 1743 23
	movq	-752(%rbp), %rcx
	movq	%rcx, -776(%rbp)
	xorl	%eax, %eax
	cmpq	%rcx, %rax
	setb	%al
	testb	$1, %al
	jne	LBB43_1
	jmp	LBB43_2
LBB43_1:
	movq	-760(%rbp), %rax
	movb	(%rax), %al
	movb	%al, -737(%rbp)
Ltmp241:
	.loc	35 1744 28
	movq	-752(%rbp), %rax
	subq	$1, %rax
	movq	%rax, -800(%rbp)
	movq	%rax, -152(%rbp)
Ltmp242:
	.loc	35 1747 34
	cmpq	$2, -752(%rbp)
	je	LBB43_3
	jmp	LBB43_4
Ltmp243:
LBB43_2:
	.loc	35 0 34 is_stmt 0
	movq	-776(%rbp), %rsi
	.loc	35 1743 23 is_stmt 1
	leaq	l___unnamed_11(%rip), %rdx
	xorl	%eax, %eax
	movl	%eax, %edi
	callq	__ZN4core9panicking18panic_bounds_check17hacb8a94866cda541E
LBB43_3:
Ltmp244:
	.loc	35 1750 9
	movq	$1, -736(%rbp)
	.loc	35 1747 31
	jmp	LBB43_11
LBB43_4:
	.loc	35 1753 42
	movq	-752(%rbp), %rax
	movq	%rax, -144(%rbp)
	xorl	%ecx, %ecx
Ltmp245:
	.loc	23 1070 13
	subq	$4, %rax
	cmovbq	%rcx, %rax
	movq	%rax, -136(%rbp)
	movq	-136(%rbp), %rcx
Ltmp246:
	.loc	35 1753 74
	movq	-752(%rbp), %rax
	.loc	35 1753 41 is_stmt 0
	movq	%rcx, -712(%rbp)
	movq	%rax, -704(%rbp)
	leaq	-712(%rbp), %rdi
	movq	%rdi, -128(%rbp)
	.loc	35 1753 94
	movq	-760(%rbp), %rcx
	movq	-752(%rbp), %rax
	movq	%rcx, -696(%rbp)
	movq	%rax, -688(%rbp)
	leaq	-737(%rbp), %rax
	movq	%rax, -680(%rbp)
Ltmp247:
	.file	36 "/rustc/2c8cc343237b8f7d5a3c3703e3a87f2eb2c54a74/library/core/src/iter/traits" "double_ended.rs"
	.loc	36 359 34 is_stmt 1
	movq	-680(%rbp), %rax
	movq	%rax, -272(%rbp)
	movq	-696(%rbp), %rax
	movq	-688(%rbp), %rcx
	movq	%rcx, -280(%rbp)
	movq	%rax, -288(%rbp)
Ltmp248:
	.loc	36 354 13
	movq	-272(%rbp), %rax
	movq	%rax, -296(%rbp)
	movq	-288(%rbp), %rax
	movq	-280(%rbp), %rcx
	movq	%rcx, -304(%rbp)
	movq	%rax, -312(%rbp)
	leaq	-312(%rbp), %rsi
Ltmp249:
	.loc	36 359 9
	callq	__ZN4core4iter6traits12double_ended19DoubleEndedIterator9try_rfold17h0d1ec89563d43bceE
	movq	%rdx, -320(%rbp)
	movq	%rax, -328(%rbp)
Ltmp250:
	.loc	1 184 9
	cmpq	$0, -328(%rbp)
	jne	LBB43_6
	.loc	1 185 42
	movq	$0, -728(%rbp)
	jmp	LBB43_7
LBB43_6:
	.loc	1 186 32
	movq	-320(%rbp), %rax
	movq	%rax, -120(%rbp)
Ltmp251:
	.loc	1 186 38 is_stmt 0
	movq	%rax, -720(%rbp)
	movq	$1, -728(%rbp)
Ltmp252:
LBB43_7:
	.loc	35 1753 13 is_stmt 1
	cmpq	$1, -728(%rbp)
	jne	LBB43_9
	.loc	35 1753 18 is_stmt 0
	movq	-720(%rbp), %rax
	movq	%rax, -112(%rbp)
Ltmp253:
	.loc	35 1758 9 is_stmt 1
	movq	%rax, -736(%rbp)
Ltmp254:
	.loc	35 1747 31
	jmp	LBB43_11
LBB43_9:
	.loc	35 1756 20
	movb	$2, -761(%rbp)
Ltmp255:
LBB43_10:
	.loc	35 1851 2
	jmp	LBB43_14
LBB43_11:
	.loc	35 0 2 is_stmt 0
	movq	-784(%rbp), %rax
	movq	-800(%rbp), %rcx
Ltmp256:
	.loc	35 1762 25 is_stmt 1
	addq	$16, %rcx
	.loc	35 1762 8 is_stmt 0
	cmpq	%rcx, %rax
	jb	LBB43_13
	.loc	35 1766 30 is_stmt 1
	leaq	-640(%rbp), %rdi
	movzbl	-737(%rbp), %esi
	callq	__ZN4core9core_simd6vector17Simd$LT$T$C$_$GT$5splat17h4f87c9c61901e30dE
Ltmp257:
	.loc	35 1767 51
	movq	-736(%rbp), %rax
	movq	%rax, -816(%rbp)
	.loc	35 1767 44 is_stmt 0
	movq	-752(%rbp), %rcx
	movq	%rcx, -808(%rbp)
	cmpq	%rcx, %rax
	setb	%al
	testb	$1, %al
	jne	LBB43_15
	jmp	LBB43_16
Ltmp258:
LBB43_13:
	.loc	35 0 44
	movq	-784(%rbp), %rdx
	movq	-792(%rbp), %rsi
	.loc	35 1763 38 is_stmt 1
	movq	-752(%rbp), %rcx
	.loc	35 1763 21 is_stmt 0
	leaq	-672(%rbp), %rdi
	callq	__ZN4core5slice29_$LT$impl$u20$$u5b$T$u5d$$GT$7windows17h0652a93cb95c77dfE
	leaq	-672(%rbp), %rax
	movq	%rax, -104(%rbp)
	.loc	35 1763 56
	leaq	-760(%rbp), %rax
	movq	%rax, -648(%rbp)
Ltmp259:
	.file	37 "/rustc/2c8cc343237b8f7d5a3c3703e3a87f2eb2c54a74/library/core/src/iter/traits" "iterator.rs"
	.loc	37 2661 33 is_stmt 1
	movq	-648(%rbp), %rax
	movq	%rax, -96(%rbp)
Ltmp260:
	.loc	37 2656 13
	movq	%rax, -256(%rbp)
Ltmp261:
	.loc	37 2661 9
	movq	-256(%rbp), %rsi
	leaq	-672(%rbp), %rdi
	callq	__ZN4core4iter6traits8iterator8Iterator8try_fold17h11a45a5ccef350c6E
	andb	$1, %al
	movb	%al, -257(%rbp)
	leaq	-257(%rbp), %rdi
	leaq	l___unnamed_12(%rip), %rsi
	callq	__ZN90_$LT$core..ops..control_flow..ControlFlow$LT$B$C$C$GT$$u20$as$u20$core..cmp..PartialEq$GT$2eq17h83e206e504951e3dE
Ltmp262:
	.loc	35 1763 16
	andb	$1, %al
	movb	%al, -761(%rbp)
	.loc	31 1 1
	jmp	LBB43_10
Ltmp263:
LBB43_14:
	.loc	35 1851 2
	movb	-761(%rbp), %al
	addq	$864, %rsp
	popq	%rbp
	retq
LBB43_15:
	.loc	35 0 2 is_stmt 0
	movq	-816(%rbp), %rcx
Ltmp264:
	.loc	35 1767 44 is_stmt 1
	movq	-760(%rbp), %rax
	.loc	35 1767 31 is_stmt 0
	leaq	-624(%rbp), %rdi
	movzbl	(%rax,%rcx), %esi
	callq	__ZN4core9core_simd6vector17Simd$LT$T$C$_$GT$5splat17h4f87c9c61901e30dE
Ltmp265:
	.loc	35 1770 27 is_stmt 1
	movq	-760(%rbp), %rsi
	movq	-752(%rbp), %rdx
	movq	%rsi, -88(%rbp)
	movq	%rdx, -80(%rbp)
Ltmp266:
	.loc	2 18 9
	movl	$1, %edi
	leaq	l___unnamed_13(%rip), %rcx
	callq	__ZN110_$LT$core..ops..range..RangeFrom$LT$usize$GT$$u20$as$u20$core..slice..index..SliceIndex$LT$$u5b$T$u5d$$GT$$GT$5index17h4da5bfebcf8d91dcE
	movq	-792(%rbp), %rcx
	movq	%rax, %rsi
	movq	-784(%rbp), %rax
Ltmp267:
	.loc	35 1770 26
	movq	%rsi, -72(%rbp)
	movq	%rdx, -64(%rbp)
Ltmp268:
	.loc	35 1774 5
	movq	%rcx, -600(%rbp)
	movq	%rax, -592(%rbp)
	movq	%rsi, -584(%rbp)
	movq	%rdx, -576(%rbp)
Ltmp269:
	.loc	35 1798 22
	movq	%rcx, -568(%rbp)
	movq	%rax, -560(%rbp)
	leaq	-736(%rbp), %rax
	movq	%rax, -552(%rbp)
	leaq	-640(%rbp), %rax
	movq	%rax, -544(%rbp)
	leaq	-624(%rbp), %rax
	movq	%rax, -536(%rbp)
Ltmp270:
	.loc	35 1814 17
	movq	$0, -528(%rbp)
Ltmp271:
	.loc	35 1815 22
	movb	$0, -514(%rbp)
Ltmp272:
	.loc	35 1819 5
	jmp	LBB43_17
Ltmp273:
LBB43_16:
	.loc	35 0 5 is_stmt 0
	movq	-808(%rbp), %rsi
	movq	-816(%rbp), %rdi
	.loc	35 1767 44 is_stmt 1
	leaq	l___unnamed_14(%rip), %rdx
	callq	__ZN4core9panicking18panic_bounds_check17hacb8a94866cda541E
LBB43_17:
	.loc	35 0 44 is_stmt 0
	movq	-784(%rbp), %rcx
	movq	-800(%rbp), %rax
Ltmp274:
	.loc	35 1819 11 is_stmt 1
	addq	-528(%rbp), %rax
	addq	$64, %rax
	cmpq	%rcx, %rax
	jb	LBB43_19
	movb	$0, -513(%rbp)
	jmp	LBB43_20
LBB43_19:
	.loc	35 1819 77 is_stmt 0
	movb	-514(%rbp), %al
	.loc	35 1819 76
	xorb	$-1, %al
	.loc	35 1819 11
	andb	$1, %al
	movb	%al, -513(%rbp)
LBB43_20:
	testb	$1, -513(%rbp)
	jne	LBB43_22
	.loc	35 1832 5 is_stmt 1
	jmp	LBB43_35
LBB43_22:
	.loc	35 1820 25
	leaq	-512(%rbp), %rdi
	xorl	%esi, %esi
	movl	$8, %edx
	callq	_memset
Ltmp275:
	.loc	35 1821 18
	movq	$0, -504(%rbp)
	movq	$4, -496(%rbp)
Ltmp276:
	.file	38 "/rustc/2c8cc343237b8f7d5a3c3703e3a87f2eb2c54a74/library/core/src/iter/traits" "collect.rs"
	.loc	38 273 9
	movq	-504(%rbp), %rcx
	movq	-496(%rbp), %rax
Ltmp277:
	.loc	35 1821 18
	movq	%rcx, -488(%rbp)
	movq	%rax, -480(%rbp)
LBB43_23:
	.loc	35 0 18 is_stmt 0
	leaq	-488(%rbp), %rdi
Ltmp278:
	.loc	35 1821 18
	movq	%rdi, -56(%rbp)
Ltmp279:
	.loc	22 711 9 is_stmt 1
	callq	__ZN89_$LT$core..ops..range..Range$LT$T$GT$$u20$as$u20$core..iter..range..RangeIteratorImpl$GT$9spec_next17hc2aab68d9f85f671E
	movq	%rdx, -464(%rbp)
	movq	%rax, -472(%rbp)
Ltmp280:
	.loc	35 1821 18
	cmpq	$0, -472(%rbp)
	jne	LBB43_25
Ltmp281:
	.loc	35 1824 18
	movq	$0, -448(%rbp)
	movq	$4, -440(%rbp)
Ltmp282:
	.loc	38 273 9
	movq	-448(%rbp), %rcx
	movq	-440(%rbp), %rax
Ltmp283:
	.loc	35 1824 18
	movq	%rcx, -432(%rbp)
	movq	%rax, -424(%rbp)
Ltmp284:
	.loc	35 1824 9 is_stmt 0
	jmp	LBB43_28
Ltmp285:
LBB43_25:
	.loc	35 1821 13 is_stmt 1
	movq	-464(%rbp), %rcx
	movq	%rcx, -832(%rbp)
	movq	%rcx, -48(%rbp)
Ltmp286:
	.loc	35 1822 35
	movq	-528(%rbp), %rax
	.loc	35 1822 39 is_stmt 0
	shlq	$4, %rcx
	.loc	35 1822 35
	addq	%rcx, %rax
	.loc	35 1822 24
	movq	%rax, -456(%rbp)
	movq	-456(%rbp), %rsi
	leaq	-568(%rbp), %rdi
	callq	__ZN4core3str7pattern13simd_contains28_$u7b$$u7b$closure$u7d$$u7d$17hdde2b0cf5eb16bbeE
	movw	%ax, %cx
	movq	-832(%rbp), %rax
	movw	%cx, -818(%rbp)
	.loc	35 1822 13
	cmpq	$4, %rax
	setb	%al
	testb	$1, %al
	jne	LBB43_26
	jmp	LBB43_27
LBB43_26:
	.loc	35 0 13
	movq	-832(%rbp), %rax
	movw	-818(%rbp), %cx
	.loc	35 1822 13
	movw	%cx, -512(%rbp,%rax,2)
Ltmp287:
	.loc	35 1821 9 is_stmt 1
	jmp	LBB43_23
LBB43_27:
	.loc	35 0 9 is_stmt 0
	movq	-832(%rbp), %rdi
Ltmp288:
	.loc	35 1822 13 is_stmt 1
	leaq	l___unnamed_15(%rip), %rdx
	movl	$4, %esi
	callq	__ZN4core9panicking18panic_bounds_check17hacb8a94866cda541E
Ltmp289:
LBB43_28:
	.loc	35 0 13 is_stmt 0
	leaq	-432(%rbp), %rdi
Ltmp290:
	.loc	35 1824 18 is_stmt 1
	movq	%rdi, -40(%rbp)
Ltmp291:
	.loc	22 711 9
	callq	__ZN89_$LT$core..ops..range..Range$LT$T$GT$$u20$as$u20$core..iter..range..RangeIteratorImpl$GT$9spec_next17hc2aab68d9f85f671E
	movq	%rdx, -408(%rbp)
	movq	%rax, -416(%rbp)
Ltmp292:
	.loc	35 1824 18
	cmpq	$0, -416(%rbp)
	jne	LBB43_30
Ltmp293:
	.loc	35 1830 9
	movq	-528(%rbp), %rax
	addq	$64, %rax
	movq	%rax, -528(%rbp)
Ltmp294:
	.loc	35 1819 5
	jmp	LBB43_17
LBB43_30:
Ltmp295:
	.loc	35 1824 13
	movq	-408(%rbp), %rax
	movq	%rax, -840(%rbp)
	movq	%rax, -32(%rbp)
Ltmp296:
	.loc	35 1825 24
	cmpq	$4, %rax
	setb	%al
	testb	$1, %al
	jne	LBB43_31
	jmp	LBB43_32
LBB43_31:
	.loc	35 0 24 is_stmt 0
	movq	-840(%rbp), %rax
	.loc	35 1825 24
	movw	-512(%rbp,%rax,2), %ax
	movw	%ax, -842(%rbp)
	movw	%ax, -20(%rbp)
Ltmp297:
	.loc	35 1826 16 is_stmt 1
	cmpw	$0, %ax
	je	LBB43_33
	jmp	LBB43_34
Ltmp298:
LBB43_32:
	.loc	35 0 16 is_stmt 0
	movq	-840(%rbp), %rdi
	.loc	35 1825 24 is_stmt 1
	leaq	l___unnamed_16(%rip), %rdx
	movl	$4, %esi
	callq	__ZN4core9panicking18panic_bounds_check17hacb8a94866cda541E
Ltmp299:
LBB43_33:
	.loc	35 1824 9
	jmp	LBB43_28
LBB43_34:
	.loc	35 0 9 is_stmt 0
	movw	-842(%rbp), %cx
	movq	-840(%rbp), %rax
Ltmp300:
	.loc	35 1827 38 is_stmt 1
	movq	-528(%rbp), %rdx
	.loc	35 1827 42 is_stmt 0
	shlq	$4, %rax
	.loc	35 1827 38
	addq	%rax, %rdx
	.loc	35 1827 66
	movb	-514(%rbp), %al
	.loc	35 1827 27
	movq	%rdx, -400(%rbp)
	movw	%cx, -392(%rbp)
	andb	$1, %al
	movb	%al, -390(%rbp)
	movq	-400(%rbp), %rsi
	movw	-392(%rbp), %cx
	movb	-390(%rbp), %al
	leaq	-600(%rbp), %rdi
	andb	$1, %al
	movzwl	%cx, %edx
	movzbl	%al, %ecx
	callq	__ZN4core3str7pattern13simd_contains28_$u7b$$u7b$closure$u7d$$u7d$17h3ea42846c6e869e4E
	movb	%al, %cl
	.loc	35 1827 17
	movb	-514(%rbp), %al
	orb	%cl, %al
	andb	$1, %al
	movb	%al, -514(%rbp)
	.loc	35 1826 13 is_stmt 1
	jmp	LBB43_33
Ltmp301:
LBB43_35:
	.loc	35 0 13 is_stmt 0
	movq	-784(%rbp), %rcx
	movq	-800(%rbp), %rax
	.loc	35 1832 11 is_stmt 1
	addq	-528(%rbp), %rax
	addq	$16, %rax
	cmpq	%rcx, %rax
	jb	LBB43_37
	movb	$0, -377(%rbp)
	jmp	LBB43_38
LBB43_37:
	.loc	35 1832 68 is_stmt 0
	movb	-514(%rbp), %al
	.loc	35 1832 67
	xorb	$-1, %al
	.loc	35 1832 11
	andb	$1, %al
	movb	%al, -377(%rbp)
LBB43_38:
	testb	$1, -377(%rbp)
	jne	LBB43_40
	.loc	35 0 11
	movq	-800(%rbp), %rcx
	movq	-784(%rbp), %rax
	.loc	35 1844 13 is_stmt 1
	subq	%rcx, %rax
	subq	$16, %rax
	movq	%rax, -856(%rbp)
	movq	%rax, -16(%rbp)
Ltmp302:
	.loc	35 1845 16
	movq	%rax, -352(%rbp)
	movq	-352(%rbp), %rsi
	leaq	-568(%rbp), %rdi
	callq	__ZN4core3str7pattern13simd_contains28_$u7b$$u7b$closure$u7d$$u7d$17hdde2b0cf5eb16bbeE
	movw	%ax, -844(%rbp)
	movw	%ax, -2(%rbp)
Ltmp303:
	.loc	35 1846 8
	cmpw	$0, %ax
	je	LBB43_43
	jmp	LBB43_44
Ltmp304:
LBB43_40:
	.loc	35 1833 31
	movq	-528(%rbp), %rax
	.loc	35 1833 20 is_stmt 0
	movq	%rax, -376(%rbp)
	movq	-376(%rbp), %rsi
	leaq	-568(%rbp), %rdi
	callq	__ZN4core3str7pattern13simd_contains28_$u7b$$u7b$closure$u7d$$u7d$17hdde2b0cf5eb16bbeE
	movw	%ax, -858(%rbp)
	movw	%ax, -18(%rbp)
Ltmp305:
	.loc	35 1834 12 is_stmt 1
	cmpw	$0, %ax
	jne	LBB43_42
LBB43_41:
	.loc	35 1837 9
	movq	-528(%rbp), %rax
	addq	$16, %rax
	movq	%rax, -528(%rbp)
Ltmp306:
	.loc	35 1832 5
	jmp	LBB43_35
LBB43_42:
	.loc	35 0 5 is_stmt 0
	movw	-858(%rbp), %cx
Ltmp307:
	.loc	35 1835 34 is_stmt 1
	movq	-528(%rbp), %rdx
	.loc	35 1835 43 is_stmt 0
	movb	-514(%rbp), %al
	.loc	35 1835 23
	movq	%rdx, -368(%rbp)
	movw	%cx, -360(%rbp)
	andb	$1, %al
	movb	%al, -358(%rbp)
	movq	-368(%rbp), %rsi
	movw	-360(%rbp), %cx
	movb	-358(%rbp), %al
	leaq	-600(%rbp), %rdi
	andb	$1, %al
	movzwl	%cx, %edx
	movzbl	%al, %ecx
	callq	__ZN4core3str7pattern13simd_contains28_$u7b$$u7b$closure$u7d$$u7d$17h3ea42846c6e869e4E
	movb	%al, %cl
	.loc	35 1835 13
	movb	-514(%rbp), %al
	orb	%cl, %al
	andb	$1, %al
	movb	%al, -514(%rbp)
	.loc	35 1834 9 is_stmt 1
	jmp	LBB43_41
Ltmp308:
LBB43_43:
	.loc	35 1850 10
	movb	-514(%rbp), %al
	.loc	35 1850 5 is_stmt 0
	andb	$1, %al
	movb	%al, -761(%rbp)
Ltmp309:
	.loc	35 1851 2 is_stmt 1
	jmp	LBB43_14
LBB43_44:
	.loc	35 0 2 is_stmt 0
	movw	-844(%rbp), %cx
	movq	-856(%rbp), %rdx
Ltmp310:
	.loc	35 1847 39 is_stmt 1
	movb	-514(%rbp), %al
	.loc	35 1847 19 is_stmt 0
	movq	%rdx, -344(%rbp)
	movw	%cx, -336(%rbp)
	andb	$1, %al
	movb	%al, -334(%rbp)
	movq	-344(%rbp), %rsi
	movw	-336(%rbp), %cx
	movb	-334(%rbp), %al
	leaq	-600(%rbp), %rdi
	andb	$1, %al
	movzwl	%cx, %edx
	movzbl	%al, %ecx
	callq	__ZN4core3str7pattern13simd_contains28_$u7b$$u7b$closure$u7d$$u7d$17h3ea42846c6e869e4E
	movb	%al, %cl
	.loc	35 1847 9
	movb	-514(%rbp), %al
	orb	%cl, %al
	andb	$1, %al
	movb	%al, -514(%rbp)
	.loc	35 1846 5 is_stmt 1
	jmp	LBB43_43
Ltmp311:
Lfunc_end43:
	.cfi_endproc

	.p2align	4, 0x90
__ZN4core3str7pattern13simd_contains28_$u7b$$u7b$closure$u7d$$u7d$17h3ea42846c6e869e4E:
Lfunc_begin44:
	.loc	35 1774 0
	.cfi_startproc
	pushq	%rbp
	.cfi_def_cfa_offset 16
	.cfi_offset %rbp, -16
	movq	%rsp, %rbp
	.cfi_def_cfa_register %rbp
	subq	$272, %rsp
	movq	%rsi, -256(%rbp)
	movq	%rdi, -248(%rbp)
	movb	%cl, %al
	movw	%dx, %cx
	movw	%cx, -238(%rbp)
	movq	%rdi, -168(%rbp)
	movq	%rsi, -160(%rbp)
	movw	%cx, -148(%rbp)
	movb	%al, %cl
	andb	$1, %cl
	movb	%cl, -145(%rbp)
Ltmp312:
	.loc	35 1775 12 prologue_end
	testb	$1, %al
	jne	LBB44_2
	.loc	35 0 12 is_stmt 0
	movw	-238(%rbp), %ax
	.loc	35 1780 24 is_stmt 1
	movw	%ax, -234(%rbp)
Ltmp313:
	.loc	35 1782 9
	jmp	LBB44_4
Ltmp314:
LBB44_2:
	.loc	35 1776 20
	movb	$0, -235(%rbp)
LBB44_3:
	.loc	35 1796 6
	movb	-235(%rbp), %al
	andb	$1, %al
	movzbl	%al, %eax
	addq	$272, %rsp
	popq	%rbp
	retq
LBB44_4:
Ltmp315:
	.loc	35 1782 15
	cmpw	$0, -234(%rbp)
	jne	LBB44_6
	.loc	35 1795 16
	movb	$0, -235(%rbp)
	.loc	35 1795 9 is_stmt 0
	jmp	LBB44_9
LBB44_6:
	.loc	35 0 9
	movq	-248(%rbp), %rcx
	movq	-256(%rbp), %rax
	.loc	35 1783 28 is_stmt 1
	movw	-234(%rbp), %dx
	movw	%dx, -144(%rbp)
Ltmp316:
	.loc	23 152 13
	bsfw	%dx, %dx
	movw	$16, %si
	cmovew	%si, %dx
	movw	%dx, -142(%rbp)
	movzwl	-142(%rbp), %edx
	movl	%edx, -268(%rbp)
	movl	%edx, -140(%rbp)
Ltmp317:
	.loc	35 1784 32
	movl	%edx, %edx
	.loc	35 1784 26 is_stmt 0
	addq	%rdx, %rax
	addq	$1, %rax
	movq	%rax, -136(%rbp)
Ltmp318:
	.loc	35 1788 27 is_stmt 1
	movq	(%rcx), %rdx
	movq	8(%rcx), %rcx
	movq	%rdx, -128(%rbp)
	movq	%rcx, -120(%rbp)
	.loc	35 1788 50 is_stmt 0
	movq	%rax, -232(%rbp)
Ltmp319:
	.loc	32 405 20 is_stmt 1
	movq	-232(%rbp), %rsi
	movq	%rsi, -112(%rbp)
	.loc	32 405 40 is_stmt 0
	movq	%rdx, -104(%rbp)
	movq	%rcx, -96(%rbp)
Ltmp320:
	.loc	2 483 31 is_stmt 1
	movq	%rdx, -88(%rbp)
	movq	%rcx, -80(%rbp)
Ltmp321:
	.loc	3 1630 18
	movq	%rdx, -72(%rbp)
	movq	%rcx, -64(%rbp)
Ltmp322:
	.loc	5 98 14
	movq	%rdx, -200(%rbp)
	movq	%rcx, -192(%rbp)
	movq	-192(%rbp), %rax
Ltmp323:
	.loc	2 483 18
	movq	%rsi, -216(%rbp)
	movq	%rax, -208(%rbp)
	movq	-216(%rbp), %rdi
	movq	-208(%rbp), %rsi
	callq	__ZN106_$LT$core..ops..range..Range$LT$usize$GT$$u20$as$u20$core..slice..index..SliceIndex$LT$$u5b$T$u5d$$GT$$GT$13get_unchecked17h0a252a982f18917dE
	movq	%rax, %rcx
	movq	-248(%rbp), %rax
	movq	%rcx, -264(%rbp)
	movq	%rdx, %rcx
	movq	-264(%rbp), %rdx
Ltmp324:
	.loc	35 1788 27
	movq	%rdx, -56(%rbp)
	movq	%rcx, -48(%rbp)
	.loc	35 1788 76 is_stmt 0
	movq	24(%rax), %rax
	.loc	35 1788 74
	movq	%rax, -224(%rbp)
Ltmp325:
	.loc	32 405 20 is_stmt 1
	movq	-224(%rbp), %rax
	movq	%rax, -40(%rbp)
	.loc	32 405 40 is_stmt 0
	movq	%rdx, -32(%rbp)
	movq	%rcx, -24(%rbp)
Ltmp326:
	.loc	2 445 18 is_stmt 1
	movq	$0, -184(%rbp)
	movq	%rax, -176(%rbp)
	movq	-184(%rbp), %rdi
	movq	-176(%rbp), %rsi
	callq	__ZN106_$LT$core..ops..range..Range$LT$usize$GT$$u20$as$u20$core..slice..index..SliceIndex$LT$$u5b$T$u5d$$GT$$GT$13get_unchecked17h0a252a982f18917dE
	movq	%rax, %rdi
	movq	-248(%rbp), %rax
	movq	%rdx, %rsi
Ltmp327:
	.loc	32 405 18
	movq	%rdi, -16(%rbp)
	movq	%rsi, -8(%rbp)
Ltmp328:
	.loc	35 1789 40
	movq	16(%rax), %rdx
	movq	24(%rax), %rcx
	.loc	35 1789 20 is_stmt 0
	callq	__ZN4core3str7pattern14small_slice_eq17hbfcf5b2a9236f2daE
	testb	$1, %al
	jne	LBB44_8
Ltmp329:
	.loc	35 0 20
	movl	-268(%rbp), %eax
	.loc	35 1793 22 is_stmt 1
	movw	%ax, %cx
	andw	$15, %cx
	movw	$1, %ax
	shlw	%cl, %ax
	.loc	35 1793 21 is_stmt 0
	xorw	$-1, %ax
	.loc	35 1793 13
	andw	-234(%rbp), %ax
	movw	%ax, -234(%rbp)
Ltmp330:
	.loc	35 1782 9 is_stmt 1
	jmp	LBB44_4
LBB44_8:
Ltmp331:
	.loc	35 1790 28
	movb	$1, -235(%rbp)
Ltmp332:
LBB44_9:
	.loc	31 1 1
	jmp	LBB44_3
Ltmp333:
Lfunc_end44:
	.cfi_endproc

	.p2align	4, 0x90
__ZN4core3str7pattern13simd_contains28_$u7b$$u7b$closure$u7d$$u7d$17hd431cc39f87a1d22E:
Lfunc_begin45:
	.loc	35 1753 0
	.cfi_startproc
	pushq	%rbp
	.cfi_def_cfa_offset 16
	.cfi_offset %rbp, -16
	movq	%rsp, %rbp
	.cfi_def_cfa_register %rbp
	subq	$48, %rsp
	movq	%rdi, -48(%rbp)
	movq	%rdi, -24(%rbp)
	movq	%rsi, -16(%rbp)
Ltmp334:
	.loc	35 1753 96 prologue_end
	movq	(%rsi), %rax
	movq	%rax, -40(%rbp)
	movq	%rax, -8(%rbp)
Ltmp335:
	.loc	35 1753 101 is_stmt 0
	movq	8(%rdi), %rcx
	movq	%rcx, -32(%rbp)
	cmpq	%rcx, %rax
	setb	%al
	testb	$1, %al
	jne	LBB45_1
	jmp	LBB45_2
LBB45_1:
	.loc	35 0 101
	movq	-48(%rbp), %rcx
	movq	-40(%rbp), %rdx
	.loc	35 1753 101
	movq	(%rcx), %rax
	movb	(%rax,%rdx), %al
	.loc	35 1753 116
	movq	16(%rcx), %rcx
	.loc	35 1753 101
	cmpb	(%rcx), %al
	setne	%al
Ltmp336:
	.loc	35 1753 127
	andb	$1, %al
	movzbl	%al, %eax
	addq	$48, %rsp
	popq	%rbp
	retq
LBB45_2:
	.loc	35 0 127
	movq	-32(%rbp), %rsi
	movq	-40(%rbp), %rdi
Ltmp337:
	.loc	35 1753 101
	leaq	l___unnamed_17(%rip), %rdx
	callq	__ZN4core9panicking18panic_bounds_check17hacb8a94866cda541E
Ltmp338:
Lfunc_end45:
	.cfi_endproc

	.p2align	4, 0x90
__ZN4core3str7pattern13simd_contains28_$u7b$$u7b$closure$u7d$$u7d$17hdde2b0cf5eb16bbeE:
Lfunc_begin46:
	.loc	35 1798 0 is_stmt 1
	.cfi_startproc
	pushq	%rbp
	.cfi_def_cfa_offset 16
	.cfi_offset %rbp, -16
	movq	%rsp, %rbp
	.cfi_def_cfa_register %rbp
	subq	$768, %rsp
	movq	%rdi, -632(%rbp)
	movq	%rsi, -624(%rbp)
Ltmp339:
	.loc	35 1801 33 prologue_end
	movq	(%rdi), %rax
	movq	8(%rdi), %rcx
	movq	%rax, -616(%rbp)
	movq	%rcx, -608(%rbp)
Ltmp340:
	.loc	32 477 9
	movq	%rax, -600(%rbp)
Ltmp341:
	.loc	35 1801 55
	movq	%rsi, -592(%rbp)
Ltmp342:
	.loc	3 932 18
	movq	%rax, -584(%rbp)
	.loc	3 932 30 is_stmt 0
	movq	%rsi, -576(%rbp)
Ltmp343:
	.loc	3 473 18 is_stmt 1
	addq	%rsi, %rax
	movq	%rax, -568(%rbp)
	movq	-568(%rbp), %rcx
	movq	%rcx, -560(%rbp)
Ltmp344:
	.loc	3 61 9
	movq	%rcx, -552(%rbp)
Ltmp345:
	.loc	3 1257 33
	movq	%rcx, -544(%rbp)
Ltmp346:
	.loc	4 1250 29
	movq	%rcx, -536(%rbp)
	leaq	-720(%rbp), %rax
	.loc	4 1250 47 is_stmt 0
	movq	%rax, -528(%rbp)
	movq	%rax, -520(%rbp)
Ltmp347:
	.file	39 "/rustc/2c8cc343237b8f7d5a3c3703e3a87f2eb2c54a74/library/core/src" "intrinsics.rs"
	.loc	39 2372 9 is_stmt 1
	movq	(%rcx), %rax
	movq	8(%rcx), %rcx
	movq	%rcx, -712(%rbp)
	movq	%rax, -720(%rbp)
Ltmp348:
	.loc	4 1251 9
	movaps	-720(%rbp), %xmm1
	movaps	%xmm1, -512(%rbp)
Ltmp349:
	.loc	26 627 38
	movaps	%xmm1, -496(%rbp)
Ltmp350:
	.loc	27 89 9
	movaps	%xmm1, -480(%rbp)
Ltmp351:
	.loc	35 1804 13
	movq	(%rdi), %rax
	movq	8(%rdi), %rcx
	movq	%rax, -464(%rbp)
	movq	%rcx, -456(%rbp)
Ltmp352:
	.loc	32 477 9
	movq	%rax, -448(%rbp)
Ltmp353:
	.loc	35 1804 35
	movq	%rsi, -440(%rbp)
Ltmp354:
	.loc	3 932 18
	movq	%rax, -432(%rbp)
	.loc	3 932 30 is_stmt 0
	movq	%rsi, -424(%rbp)
Ltmp355:
	.loc	3 473 18 is_stmt 1
	addq	%rsi, %rax
	movq	%rax, -416(%rbp)
	movq	-416(%rbp), %rax
	movq	%rax, -408(%rbp)
Ltmp356:
	.loc	35 1804 44
	movq	16(%rdi), %rcx
	movq	(%rcx), %rcx
	movq	%rcx, -400(%rbp)
Ltmp357:
	.loc	3 932 18
	movq	%rax, -392(%rbp)
	.loc	3 932 30 is_stmt 0
	movq	%rcx, -384(%rbp)
Ltmp358:
	.loc	3 473 18 is_stmt 1
	addq	%rcx, %rax
	movq	%rax, -376(%rbp)
	movq	-376(%rbp), %rcx
	movq	%rcx, -368(%rbp)
Ltmp359:
	.loc	3 61 9
	movq	%rcx, -360(%rbp)
Ltmp360:
	.loc	3 1257 33
	movq	%rcx, -352(%rbp)
Ltmp361:
	.loc	4 1250 29
	movq	%rcx, -344(%rbp)
	leaq	-704(%rbp), %rax
	.loc	4 1250 47 is_stmt 0
	movq	%rax, -336(%rbp)
	movq	%rax, -328(%rbp)
Ltmp362:
	.loc	39 2372 9 is_stmt 1
	movq	(%rcx), %rax
	movq	8(%rcx), %rcx
	movq	%rcx, -696(%rbp)
	movq	%rax, -704(%rbp)
Ltmp363:
	.loc	4 1251 9
	movaps	-704(%rbp), %xmm0
	movaps	%xmm0, -320(%rbp)
Ltmp364:
	.loc	26 627 38
	movaps	%xmm0, -304(%rbp)
Ltmp365:
	.loc	27 89 9
	movaps	%xmm0, -288(%rbp)
Ltmp366:
	.loc	35 1806 30
	movaps	%xmm1, -272(%rbp)
	.loc	35 1806 40 is_stmt 0
	movq	24(%rdi), %rax
	movaps	(%rax), %xmm2
	movaps	%xmm2, -256(%rbp)
Ltmp367:
	.file	40 "/rustc/2c8cc343237b8f7d5a3c3703e3a87f2eb2c54a74/library/core/src/../../portable-simd/crates/core_simd/src" "eq.rs"
	.loc	40 30 51 is_stmt 1
	pcmpeqb	%xmm2, %xmm1
	movaps	%xmm1, -240(%rbp)
	movaps	-240(%rbp), %xmm1
	movaps	%xmm1, -224(%rbp)
Ltmp368:
	.file	41 "/rustc/2c8cc343237b8f7d5a3c3703e3a87f2eb2c54a74/library/core/src/../../portable-simd/crates/core_simd/src" "masks.rs"
	.loc	41 164 59
	movaps	%xmm1, -208(%rbp)
Ltmp369:
	.loc	9 132 9
	movaps	%xmm1, -688(%rbp)
Ltmp370:
	.loc	41 164 18
	movaps	-688(%rbp), %xmm1
	movaps	%xmm1, -768(%rbp)
Ltmp371:
	.loc	35 1807 29
	movaps	%xmm0, -192(%rbp)
	.loc	35 1807 39 is_stmt 0
	movq	32(%rdi), %rax
	movaps	(%rax), %xmm1
	movaps	%xmm1, -176(%rbp)
Ltmp372:
	.loc	40 30 51 is_stmt 1
	pcmpeqb	%xmm1, %xmm0
	movdqa	%xmm0, -160(%rbp)
	movdqa	-160(%rbp), %xmm0
	movdqa	%xmm0, -144(%rbp)
Ltmp373:
	.loc	41 164 59
	movdqa	%xmm0, -128(%rbp)
Ltmp374:
	.loc	9 132 9
	movdqa	%xmm0, -672(%rbp)
Ltmp375:
	.loc	41 164 18
	movdqa	-672(%rbp), %xmm0
	movdqa	%xmm0, -752(%rbp)
Ltmp376:
	.loc	35 1808 20
	movdqa	-768(%rbp), %xmm0
	movdqa	%xmm0, -112(%rbp)
	.loc	35 1808 36 is_stmt 0
	movdqa	-752(%rbp), %xmm1
	movdqa	%xmm1, -96(%rbp)
Ltmp377:
	.loc	41 336 14 is_stmt 1
	movdqa	%xmm0, -80(%rbp)
	.loc	41 336 23 is_stmt 0
	movdqa	%xmm1, -64(%rbp)
Ltmp378:
	.loc	9 280 23 is_stmt 1
	pand	%xmm1, %xmm0
	movdqa	%xmm0, -48(%rbp)
	movdqa	-48(%rbp), %xmm0
	.loc	9 280 18 is_stmt 0
	movdqa	%xmm0, -656(%rbp)
Ltmp379:
	.loc	41 336 9 is_stmt 1
	movdqa	-656(%rbp), %xmm0
	movdqa	%xmm0, -736(%rbp)
Ltmp380:
	.loc	35 1809 20
	movdqa	-736(%rbp), %xmm0
	movdqa	%xmm0, -32(%rbp)
	leaq	-32(%rbp), %rdi
	callq	__ZN114_$LT$core..core_simd..masks..Mask$LT$T$C$16_usize$GT$$u20$as$u20$core..core_simd..masks..to_bitmask..ToBitMask$GT$10to_bitmask17h76ffe4fbd9788331E
	movw	%ax, -2(%rbp)
Ltmp381:
	.loc	35 1812 6
	addq	$768, %rsp
	popq	%rbp
	retq
Ltmp382:
Lfunc_end46:
	.cfi_endproc

	.p2align	4, 0x90
__ZN4core3str7pattern13simd_contains28_$u7b$$u7b$closure$u7d$$u7d$17hf954107f4d89d2edE:
Lfunc_begin47:
	.loc	35 1763 0
	.cfi_startproc
	pushq	%rbp
	.cfi_def_cfa_offset 16
	.cfi_offset %rbp, -16
	movq	%rsp, %rbp
	.cfi_def_cfa_register %rbp
	subq	$48, %rsp
	movq	%rsi, -40(%rbp)
	movq	%rdx, -32(%rbp)
	movq	%rdi, -24(%rbp)
Ltmp383:
	.loc	35 1763 60 prologue_end
	leaq	-40(%rbp), %rax
	movq	%rax, -16(%rbp)
	.loc	35 1763 65 is_stmt 0
	movq	(%rdi), %rax
	movq	%rax, -8(%rbp)
Ltmp384:
	.loc	7 1531 27 is_stmt 1
	movq	-40(%rbp), %rdi
	movq	-32(%rbp), %rsi
	.loc	7 1531 34 is_stmt 0
	movq	(%rax), %rdx
	movq	8(%rax), %rcx
	.loc	7 1531 13
	callq	__ZN4core5slice3cmp81_$LT$impl$u20$core..cmp..PartialEq$LT$$u5b$B$u5d$$GT$$u20$for$u20$$u5b$A$u5d$$GT$2eq17h6299848b840bf54dE
Ltmp385:
	.loc	35 1763 71 is_stmt 1
	andb	$1, %al
	movzbl	%al, %eax
	addq	$48, %rsp
	popq	%rbp
	retq
Ltmp386:
Lfunc_end47:
	.cfi_endproc

	.p2align	4, 0x90
__ZN4core3str7pattern14TwoWaySearcher4next17h8f0228c47897afd6E:
Lfunc_begin48:
	.loc	35 1411 0
	.cfi_startproc
	pushq	%rbp
	.cfi_def_cfa_offset 16
	.cfi_offset %rbp, -16
	movq	%rsp, %rbp
	.cfi_def_cfa_register %rbp
	subq	$480, %rsp
	movq	%r9, -416(%rbp)
	movq	%r8, -408(%rbp)
	movq	%rcx, -400(%rbp)
	movq	%rdx, -392(%rbp)
	movq	%rsi, -384(%rbp)
	movq	%rdi, -376(%rbp)
	movq	%rdi, -368(%rbp)
	movb	16(%rbp), %al
	movb	%al, -353(%rbp)
	movq	%rsi, -208(%rbp)
	movq	%rdx, -200(%rbp)
	movq	%rcx, -192(%rbp)
	movq	%r8, -184(%rbp)
	movq	%r9, -176(%rbp)
	andb	$1, %al
	movb	%al, -161(%rbp)
Ltmp387:
	.loc	35 1416 23 prologue_end
	movq	32(%rsi), %rax
	movq	%rax, -352(%rbp)
	movq	%rax, -160(%rbp)
Ltmp388:
	.loc	35 1417 27
	subq	$1, %r9
	movq	%r9, -344(%rbp)
	movq	%r9, -152(%rbp)
LBB48_1:
	.loc	35 0 27 is_stmt 0
	movq	-400(%rbp), %rdx
	movq	-392(%rbp), %rsi
	movq	-384(%rbp), %rax
	movq	-344(%rbp), %rdi
Ltmp389:
	.loc	35 1422 35 is_stmt 1
	movq	%rsi, -144(%rbp)
	movq	%rdx, -136(%rbp)
	.loc	35 1422 48 is_stmt 0
	addq	32(%rax), %rdi
	movq	%rdi, -128(%rbp)
Ltmp390:
	.loc	32 343 9 is_stmt 1
	callq	__ZN75_$LT$usize$u20$as$u20$core..slice..index..SliceIndex$LT$$u5b$T$u5d$$GT$$GT$3get17hfc1c0478e8c2d4f0E
	movq	%rax, -336(%rbp)
Ltmp391:
	.loc	35 1422 35
	movq	-336(%rbp), %rdx
	movl	$1, %eax
	xorl	%ecx, %ecx
	cmpq	$0, %rdx
	cmoveq	%rcx, %rax
	.loc	35 1422 29 is_stmt 0
	cmpq	$0, %rax
	jne	LBB48_3
	.loc	35 0 29
	movq	-352(%rbp), %rsi
	movq	-376(%rbp), %rdi
	movq	-384(%rbp), %rax
	movq	-400(%rbp), %rcx
	.loc	35 1425 21 is_stmt 1
	movq	%rcx, 32(%rax)
	.loc	35 1426 50
	movq	32(%rax), %rdx
	.loc	35 1426 28 is_stmt 0
	callq	__ZN84_$LT$core..str..pattern..MatchOnly$u20$as$u20$core..str..pattern..TwoWayStrategy$GT$9rejecting17h5acee277b5bf5629E
	.loc	31 1 1 is_stmt 1
	jmp	LBB48_9
LBB48_3:
	.loc	35 1423 23
	movq	-336(%rbp), %rax
	movb	(%rax), %al
	movb	%al, -417(%rbp)
	movb	%al, -114(%rbp)
Ltmp392:
	.loc	35 1423 29 is_stmt 0
	movb	%al, -113(%rbp)
Ltmp393:
	.loc	35 1430 16 is_stmt 1
	callq	__ZN84_$LT$core..str..pattern..MatchOnly$u20$as$u20$core..str..pattern..TwoWayStrategy$GT$16use_early_reject17hc18c3079a5a3f1feE
	testb	$1, %al
	jne	LBB48_5
	movb	$0, -321(%rbp)
	jmp	LBB48_6
LBB48_5:
	.loc	35 0 16 is_stmt 0
	movq	-352(%rbp), %rax
	movq	-384(%rbp), %rcx
	.loc	35 1430 41
	cmpq	32(%rcx), %rax
	setne	%al
	.loc	35 1430 16
	andb	$1, %al
	movb	%al, -321(%rbp)
LBB48_6:
	testb	$1, -321(%rbp)
	jne	LBB48_8
	.loc	35 0 16
	movb	-417(%rbp), %cl
	movq	-384(%rbp), %rax
	.loc	35 1435 17 is_stmt 1
	movq	%rax, -112(%rbp)
	.loc	35 1435 39 is_stmt 0
	movb	%cl, -97(%rbp)
Ltmp394:
	.loc	35 1402 10 is_stmt 1
	movq	24(%rax), %rax
	.loc	35 1402 27 is_stmt 0
	andb	$63, %cl
	.loc	35 1402 26
	movzbl	%cl, %ecx
	.loc	35 1402 9
	andq	$63, %rcx
	shrq	%cl, %rax
	andq	$1, %rax
	cmpq	$0, %rax
	setne	%al
Ltmp395:
	.loc	35 1435 16 is_stmt 1
	xorb	$-1, %al
	testb	$1, %al
	jne	LBB48_11
	jmp	LBB48_10
LBB48_8:
	.loc	35 0 16 is_stmt 0
	movq	-352(%rbp), %rsi
	movq	-376(%rbp), %rdi
	movq	-384(%rbp), %rax
	.loc	35 1431 46 is_stmt 1
	movq	32(%rax), %rdx
	.loc	35 1431 24 is_stmt 0
	callq	__ZN84_$LT$core..str..pattern..MatchOnly$u20$as$u20$core..str..pattern..TwoWayStrategy$GT$9rejecting17h5acee277b5bf5629E
Ltmp396:
LBB48_9:
	.loc	35 0 24
	movq	-368(%rbp), %rax
	.loc	35 1479 6 is_stmt 1
	addq	$480, %rsp
	popq	%rbp
	retq
LBB48_10:
	.loc	35 0 6 is_stmt 0
	movb	-353(%rbp), %al
Ltmp397:
	.loc	35 1445 20 is_stmt 1
	testb	$1, %al
	jne	LBB48_16
	jmp	LBB48_15
LBB48_11:
	.loc	35 0 20 is_stmt 0
	movb	-353(%rbp), %al
	movq	-384(%rbp), %rcx
	movq	-416(%rbp), %rdx
	.loc	35 1436 17 is_stmt 1
	addq	32(%rcx), %rdx
	movq	%rdx, 32(%rcx)
	.loc	35 1437 20
	xorb	$-1, %al
	testb	$1, %al
	jne	LBB48_13
LBB48_12:
	.loc	31 1 1
	jmp	LBB48_14
LBB48_13:
	.loc	31 0 1 is_stmt 0
	movq	-384(%rbp), %rax
	.loc	35 1438 21 is_stmt 1
	movq	$0, 48(%rax)
	.loc	35 1437 17
	jmp	LBB48_12
Ltmp398:
LBB48_14:
	.loc	31 1 1
	jmp	LBB48_1
LBB48_15:
	.loc	31 0 1 is_stmt 0
	movq	-384(%rbp), %rax
Ltmp399:
	.loc	35 1445 66 is_stmt 1
	movq	(%rax), %rdi
	movq	%rdi, -96(%rbp)
	.loc	35 1445 81 is_stmt 0
	movq	48(%rax), %rsi
	movq	%rsi, -88(%rbp)
Ltmp400:
	.loc	7 1276 5 is_stmt 1
	movq	%rdi, -80(%rbp)
	.loc	7 1276 12 is_stmt 0
	movq	%rsi, -72(%rbp)
Ltmp401:
	.loc	7 803 13 is_stmt 1
	callq	__ZN4core3cmp6max_by17h2dd7cbca6f2054c9E
	movq	%rax, -320(%rbp)
Ltmp402:
	.loc	35 1445 17
	jmp	LBB48_17
LBB48_16:
	.loc	35 0 17 is_stmt 0
	movq	-384(%rbp), %rax
	.loc	35 1445 34
	movq	(%rax), %rax
	movq	%rax, -320(%rbp)
LBB48_17:
	.loc	35 0 34
	movq	-416(%rbp), %rax
Ltmp403:
	.loc	35 1446 22 is_stmt 1
	movq	-320(%rbp), %rcx
	movq	%rcx, -312(%rbp)
	movq	%rax, -304(%rbp)
Ltmp404:
	.loc	38 273 9
	movq	-312(%rbp), %rcx
	movq	-304(%rbp), %rax
Ltmp405:
	.loc	35 1446 22
	movq	%rcx, -296(%rbp)
	movq	%rax, -288(%rbp)
LBB48_18:
	.loc	35 0 22 is_stmt 0
	leaq	-296(%rbp), %rdi
Ltmp406:
	.loc	35 1446 22
	movq	%rdi, -64(%rbp)
Ltmp407:
	.loc	22 711 9 is_stmt 1
	callq	__ZN89_$LT$core..ops..range..Range$LT$T$GT$$u20$as$u20$core..iter..range..RangeIteratorImpl$GT$9spec_next17hc2aab68d9f85f671E
	movq	%rdx, -272(%rbp)
	movq	%rax, -280(%rbp)
Ltmp408:
	.loc	35 1446 22
	cmpq	$0, -280(%rbp)
	jne	LBB48_20
Ltmp409:
	.loc	35 0 22 is_stmt 0
	movb	-353(%rbp), %al
	.loc	35 1457 28 is_stmt 1
	testb	$1, %al
	jne	LBB48_31
	jmp	LBB48_30
LBB48_20:
	.loc	35 0 28 is_stmt 0
	movq	-416(%rbp), %rcx
Ltmp410:
	.loc	35 1446 17 is_stmt 1
	movq	-272(%rbp), %rax
	movq	%rax, -432(%rbp)
	movq	%rax, -56(%rbp)
Ltmp411:
	.loc	35 1447 20
	cmpq	%rcx, %rax
	setb	%al
	testb	$1, %al
	jne	LBB48_21
	jmp	LBB48_22
LBB48_21:
	.loc	35 0 20 is_stmt 0
	movq	-400(%rbp), %rcx
	movq	-384(%rbp), %rdx
	movq	-432(%rbp), %rax
	movq	-408(%rbp), %rsi
	.loc	35 1447 20
	movb	(%rsi,%rax), %sil
	movb	%sil, -441(%rbp)
	.loc	35 1447 42
	addq	32(%rdx), %rax
	movq	%rax, -440(%rbp)
	.loc	35 1447 33
	cmpq	%rcx, %rax
	setb	%al
	testb	$1, %al
	jne	LBB48_23
	jmp	LBB48_24
LBB48_22:
	.loc	35 0 33
	movq	-416(%rbp), %rsi
	movq	-432(%rbp), %rdi
	.loc	35 1447 20
	leaq	l___unnamed_18(%rip), %rdx
	callq	__ZN4core9panicking18panic_bounds_check17hacb8a94866cda541E
LBB48_23:
	.loc	35 0 20
	movb	-441(%rbp), %al
	movq	-392(%rbp), %rcx
	movq	-440(%rbp), %rdx
	.loc	35 1447 20
	cmpb	(%rcx,%rdx), %al
	jne	LBB48_26
	jmp	LBB48_25
LBB48_24:
	.loc	35 0 20
	movq	-400(%rbp), %rsi
	movq	-440(%rbp), %rdi
	.loc	35 1447 33
	leaq	l___unnamed_19(%rip), %rdx
	callq	__ZN4core9panicking18panic_bounds_check17hacb8a94866cda541E
Ltmp412:
LBB48_25:
	.loc	35 1446 13 is_stmt 1
	jmp	LBB48_18
LBB48_26:
	.loc	35 0 13 is_stmt 0
	movb	-353(%rbp), %al
	movq	-384(%rbp), %rcx
	movq	-432(%rbp), %rdx
Ltmp413:
	.loc	35 1448 38 is_stmt 1
	subq	(%rcx), %rdx
	addq	$1, %rdx
	.loc	35 1448 21 is_stmt 0
	addq	32(%rcx), %rdx
	movq	%rdx, 32(%rcx)
	.loc	35 1449 24 is_stmt 1
	xorb	$-1, %al
	testb	$1, %al
	jne	LBB48_28
Ltmp414:
LBB48_27:
	.loc	31 1 1
	jmp	LBB48_29
LBB48_28:
	.loc	31 0 1 is_stmt 0
	movq	-384(%rbp), %rax
Ltmp415:
	.loc	35 1450 25 is_stmt 1
	movq	$0, 48(%rax)
	.loc	35 1449 21
	jmp	LBB48_27
Ltmp416:
LBB48_29:
	.loc	31 1 1
	jmp	LBB48_14
LBB48_30:
	.loc	31 0 1 is_stmt 0
	movq	-384(%rbp), %rax
Ltmp417:
	.loc	35 1457 53 is_stmt 1
	movq	48(%rax), %rax
	movq	%rax, -264(%rbp)
	.loc	35 1457 25 is_stmt 0
	jmp	LBB48_32
LBB48_31:
	.loc	35 1457 42
	movq	$0, -264(%rbp)
LBB48_32:
	.loc	35 0 42
	movq	-384(%rbp), %rax
Ltmp418:
	.loc	35 1458 23 is_stmt 1
	movq	-264(%rbp), %rcx
	.loc	35 1458 30 is_stmt 0
	movq	(%rax), %rax
	.loc	35 1458 22
	movq	%rcx, -256(%rbp)
	movq	%rax, -248(%rbp)
Ltmp419:
	.loc	37 3183 18 is_stmt 1
	movq	-256(%rbp), %rdi
	movq	-248(%rbp), %rsi
	.loc	37 3183 9 is_stmt 0
	callq	__ZN4core4iter8adapters3rev12Rev$LT$T$GT$3new17h85a718eaf4f1e737E
	movq	%rax, -48(%rbp)
	movq	%rdx, -40(%rbp)
Ltmp420:
	.loc	35 1458 22 is_stmt 1
	movq	%rax, -240(%rbp)
	movq	%rdx, -232(%rbp)
LBB48_33:
	.loc	35 0 22 is_stmt 0
	leaq	-240(%rbp), %rdi
Ltmp421:
	.loc	35 1458 22
	movq	%rdi, -32(%rbp)
Ltmp422:
	.file	42 "/rustc/2c8cc343237b8f7d5a3c3703e3a87f2eb2c54a74/library/core/src/iter/adapters" "rev.rs"
	.loc	42 33 9 is_stmt 1
	movq	%rdi, -24(%rbp)
Ltmp423:
	.loc	22 819 9
	callq	__ZN89_$LT$core..ops..range..Range$LT$T$GT$$u20$as$u20$core..iter..range..RangeIteratorImpl$GT$14spec_next_back17hf5348e5d2378f47eE
	movq	%rdx, -216(%rbp)
	movq	%rax, -224(%rbp)
Ltmp424:
	.loc	35 1458 22
	cmpq	$0, -224(%rbp)
	jne	LBB48_35
Ltmp425:
	.loc	35 0 22 is_stmt 0
	movb	-353(%rbp), %al
	movq	-384(%rbp), %rcx
	movq	-416(%rbp), %rdx
	.loc	35 1469 29 is_stmt 1
	movq	32(%rcx), %rsi
	movq	%rsi, -456(%rbp)
	movq	%rsi, -8(%rbp)
Ltmp426:
	.loc	35 1472 13
	addq	32(%rcx), %rdx
	movq	%rdx, 32(%rcx)
	.loc	35 1473 16
	xorb	$-1, %al
	testb	$1, %al
	jne	LBB48_45
	jmp	LBB48_44
Ltmp427:
LBB48_35:
	.loc	35 0 16 is_stmt 0
	movq	-416(%rbp), %rcx
Ltmp428:
	.loc	35 1458 17 is_stmt 1
	movq	-216(%rbp), %rax
	movq	%rax, -464(%rbp)
	movq	%rax, -16(%rbp)
Ltmp429:
	.loc	35 1459 20
	cmpq	%rcx, %rax
	setb	%al
	testb	$1, %al
	jne	LBB48_36
	jmp	LBB48_37
LBB48_36:
	.loc	35 0 20 is_stmt 0
	movq	-400(%rbp), %rcx
	movq	-384(%rbp), %rdx
	movq	-464(%rbp), %rax
	movq	-408(%rbp), %rsi
	.loc	35 1459 20
	movb	(%rsi,%rax), %sil
	movb	%sil, -473(%rbp)
	.loc	35 1459 42
	addq	32(%rdx), %rax
	movq	%rax, -472(%rbp)
	.loc	35 1459 33
	cmpq	%rcx, %rax
	setb	%al
	testb	$1, %al
	jne	LBB48_38
	jmp	LBB48_39
LBB48_37:
	.loc	35 0 33
	movq	-416(%rbp), %rsi
	movq	-464(%rbp), %rdi
	.loc	35 1459 20
	leaq	l___unnamed_20(%rip), %rdx
	callq	__ZN4core9panicking18panic_bounds_check17hacb8a94866cda541E
LBB48_38:
	.loc	35 0 20
	movb	-473(%rbp), %al
	movq	-392(%rbp), %rcx
	movq	-472(%rbp), %rdx
	.loc	35 1459 20
	cmpb	(%rcx,%rdx), %al
	jne	LBB48_41
	jmp	LBB48_40
LBB48_39:
	.loc	35 0 20
	movq	-400(%rbp), %rsi
	movq	-472(%rbp), %rdi
	.loc	35 1459 33
	leaq	l___unnamed_21(%rip), %rdx
	callq	__ZN4core9panicking18panic_bounds_check17hacb8a94866cda541E
Ltmp430:
LBB48_40:
	.loc	35 1458 13 is_stmt 1
	jmp	LBB48_33
LBB48_41:
	.loc	35 0 13 is_stmt 0
	movb	-353(%rbp), %al
	movq	-384(%rbp), %rcx
Ltmp431:
	.loc	35 1460 38 is_stmt 1
	movq	16(%rcx), %rdx
	.loc	35 1460 21 is_stmt 0
	addq	32(%rcx), %rdx
	movq	%rdx, 32(%rcx)
	.loc	35 1461 24 is_stmt 1
	xorb	$-1, %al
	testb	$1, %al
	jne	LBB48_43
Ltmp432:
LBB48_42:
	.loc	31 1 1
	jmp	LBB48_29
LBB48_43:
	.loc	31 0 1 is_stmt 0
	movq	-384(%rbp), %rax
	movq	-416(%rbp), %rcx
Ltmp433:
	.loc	35 1462 25 is_stmt 1
	subq	16(%rax), %rcx
	movq	%rcx, 48(%rax)
	.loc	35 1461 21
	jmp	LBB48_42
Ltmp434:
LBB48_44:
	.loc	35 0 21 is_stmt 0
	movq	-456(%rbp), %rsi
	movq	-376(%rbp), %rdi
	movq	-416(%rbp), %rax
Ltmp435:
	.loc	35 1477 43 is_stmt 1
	movq	%rsi, %rdx
	addq	%rax, %rdx
	.loc	35 1477 20 is_stmt 0
	callq	__ZN84_$LT$core..str..pattern..MatchOnly$u20$as$u20$core..str..pattern..TwoWayStrategy$GT$8matching17h6e81e169f6da67f8E
Ltmp436:
	.loc	31 1 1 is_stmt 1
	jmp	LBB48_9
LBB48_45:
	.loc	31 0 1 is_stmt 0
	movq	-384(%rbp), %rax
Ltmp437:
	.loc	35 1474 17 is_stmt 1
	movq	$0, 48(%rax)
	.loc	35 1473 13
	jmp	LBB48_44
Ltmp438:
Lfunc_end48:
	.cfi_endproc

	.p2align	4, 0x90
__ZN4core3str7pattern14TwoWaySearcher4next17hb6b5207ea4cd8106E:
Lfunc_begin49:
	.loc	35 1411 0
	.cfi_startproc
	pushq	%rbp
	.cfi_def_cfa_offset 16
	.cfi_offset %rbp, -16
	movq	%rsp, %rbp
	.cfi_def_cfa_register %rbp
	subq	$480, %rsp
	movq	%r9, -416(%rbp)
	movq	%r8, -408(%rbp)
	movq	%rcx, -400(%rbp)
	movq	%rdx, -392(%rbp)
	movq	%rsi, -384(%rbp)
	movq	%rdi, -376(%rbp)
	movq	%rdi, -368(%rbp)
	movb	16(%rbp), %al
	movb	%al, -353(%rbp)
	movq	%rsi, -208(%rbp)
	movq	%rdx, -200(%rbp)
	movq	%rcx, -192(%rbp)
	movq	%r8, -184(%rbp)
	movq	%r9, -176(%rbp)
	andb	$1, %al
	movb	%al, -161(%rbp)
Ltmp439:
	.loc	35 1416 23 prologue_end
	movq	32(%rsi), %rax
	movq	%rax, -352(%rbp)
	movq	%rax, -160(%rbp)
Ltmp440:
	.loc	35 1417 27
	subq	$1, %r9
	movq	%r9, -344(%rbp)
	movq	%r9, -152(%rbp)
LBB49_1:
	.loc	35 0 27 is_stmt 0
	movq	-400(%rbp), %rdx
	movq	-392(%rbp), %rsi
	movq	-384(%rbp), %rax
	movq	-344(%rbp), %rdi
Ltmp441:
	.loc	35 1422 35 is_stmt 1
	movq	%rsi, -144(%rbp)
	movq	%rdx, -136(%rbp)
	.loc	35 1422 48 is_stmt 0
	addq	32(%rax), %rdi
	movq	%rdi, -128(%rbp)
Ltmp442:
	.loc	32 343 9 is_stmt 1
	callq	__ZN75_$LT$usize$u20$as$u20$core..slice..index..SliceIndex$LT$$u5b$T$u5d$$GT$$GT$3get17hfc1c0478e8c2d4f0E
	movq	%rax, -336(%rbp)
Ltmp443:
	.loc	35 1422 35
	movq	-336(%rbp), %rdx
	movl	$1, %eax
	xorl	%ecx, %ecx
	cmpq	$0, %rdx
	cmoveq	%rcx, %rax
	.loc	35 1422 29 is_stmt 0
	cmpq	$0, %rax
	jne	LBB49_3
	.loc	35 0 29
	movq	-352(%rbp), %rsi
	movq	-376(%rbp), %rdi
	movq	-384(%rbp), %rax
	movq	-400(%rbp), %rcx
	.loc	35 1425 21 is_stmt 1
	movq	%rcx, 32(%rax)
	.loc	35 1426 50
	movq	32(%rax), %rdx
	.loc	35 1426 28 is_stmt 0
	callq	__ZN89_$LT$core..str..pattern..RejectAndMatch$u20$as$u20$core..str..pattern..TwoWayStrategy$GT$9rejecting17h00ae9c0d27012931E
	.loc	31 1 1 is_stmt 1
	jmp	LBB49_9
LBB49_3:
	.loc	35 1423 23
	movq	-336(%rbp), %rax
	movb	(%rax), %al
	movb	%al, -417(%rbp)
	movb	%al, -114(%rbp)
Ltmp444:
	.loc	35 1423 29 is_stmt 0
	movb	%al, -113(%rbp)
Ltmp445:
	.loc	35 1430 16 is_stmt 1
	callq	__ZN89_$LT$core..str..pattern..RejectAndMatch$u20$as$u20$core..str..pattern..TwoWayStrategy$GT$16use_early_reject17hb5acd2564e55e0a1E
	testb	$1, %al
	jne	LBB49_5
	movb	$0, -321(%rbp)
	jmp	LBB49_6
LBB49_5:
	.loc	35 0 16 is_stmt 0
	movq	-352(%rbp), %rax
	movq	-384(%rbp), %rcx
	.loc	35 1430 41
	cmpq	32(%rcx), %rax
	setne	%al
	.loc	35 1430 16
	andb	$1, %al
	movb	%al, -321(%rbp)
LBB49_6:
	testb	$1, -321(%rbp)
	jne	LBB49_8
	.loc	35 0 16
	movb	-417(%rbp), %cl
	movq	-384(%rbp), %rax
	.loc	35 1435 17 is_stmt 1
	movq	%rax, -112(%rbp)
	.loc	35 1435 39 is_stmt 0
	movb	%cl, -97(%rbp)
Ltmp446:
	.loc	35 1402 10 is_stmt 1
	movq	24(%rax), %rax
	.loc	35 1402 27 is_stmt 0
	andb	$63, %cl
	.loc	35 1402 26
	movzbl	%cl, %ecx
	.loc	35 1402 9
	andq	$63, %rcx
	shrq	%cl, %rax
	andq	$1, %rax
	cmpq	$0, %rax
	setne	%al
Ltmp447:
	.loc	35 1435 16 is_stmt 1
	xorb	$-1, %al
	testb	$1, %al
	jne	LBB49_11
	jmp	LBB49_10
LBB49_8:
	.loc	35 0 16 is_stmt 0
	movq	-352(%rbp), %rsi
	movq	-376(%rbp), %rdi
	movq	-384(%rbp), %rax
	.loc	35 1431 46 is_stmt 1
	movq	32(%rax), %rdx
	.loc	35 1431 24 is_stmt 0
	callq	__ZN89_$LT$core..str..pattern..RejectAndMatch$u20$as$u20$core..str..pattern..TwoWayStrategy$GT$9rejecting17h00ae9c0d27012931E
Ltmp448:
LBB49_9:
	.loc	35 0 24
	movq	-368(%rbp), %rax
	.loc	35 1479 6 is_stmt 1
	addq	$480, %rsp
	popq	%rbp
	retq
LBB49_10:
	.loc	35 0 6 is_stmt 0
	movb	-353(%rbp), %al
Ltmp449:
	.loc	35 1445 20 is_stmt 1
	testb	$1, %al
	jne	LBB49_16
	jmp	LBB49_15
LBB49_11:
	.loc	35 0 20 is_stmt 0
	movb	-353(%rbp), %al
	movq	-384(%rbp), %rcx
	movq	-416(%rbp), %rdx
	.loc	35 1436 17 is_stmt 1
	addq	32(%rcx), %rdx
	movq	%rdx, 32(%rcx)
	.loc	35 1437 20
	xorb	$-1, %al
	testb	$1, %al
	jne	LBB49_13
LBB49_12:
	.loc	31 1 1
	jmp	LBB49_14
LBB49_13:
	.loc	31 0 1 is_stmt 0
	movq	-384(%rbp), %rax
	.loc	35 1438 21 is_stmt 1
	movq	$0, 48(%rax)
	.loc	35 1437 17
	jmp	LBB49_12
Ltmp450:
LBB49_14:
	.loc	31 1 1
	jmp	LBB49_1
LBB49_15:
	.loc	31 0 1 is_stmt 0
	movq	-384(%rbp), %rax
Ltmp451:
	.loc	35 1445 66 is_stmt 1
	movq	(%rax), %rdi
	movq	%rdi, -96(%rbp)
	.loc	35 1445 81 is_stmt 0
	movq	48(%rax), %rsi
	movq	%rsi, -88(%rbp)
Ltmp452:
	.loc	7 1276 5 is_stmt 1
	movq	%rdi, -80(%rbp)
	.loc	7 1276 12 is_stmt 0
	movq	%rsi, -72(%rbp)
Ltmp453:
	.loc	7 803 13 is_stmt 1
	callq	__ZN4core3cmp6max_by17h2dd7cbca6f2054c9E
	movq	%rax, -320(%rbp)
Ltmp454:
	.loc	35 1445 17
	jmp	LBB49_17
LBB49_16:
	.loc	35 0 17 is_stmt 0
	movq	-384(%rbp), %rax
	.loc	35 1445 34
	movq	(%rax), %rax
	movq	%rax, -320(%rbp)
LBB49_17:
	.loc	35 0 34
	movq	-416(%rbp), %rax
Ltmp455:
	.loc	35 1446 22 is_stmt 1
	movq	-320(%rbp), %rcx
	movq	%rcx, -312(%rbp)
	movq	%rax, -304(%rbp)
Ltmp456:
	.loc	38 273 9
	movq	-312(%rbp), %rcx
	movq	-304(%rbp), %rax
Ltmp457:
	.loc	35 1446 22
	movq	%rcx, -296(%rbp)
	movq	%rax, -288(%rbp)
LBB49_18:
	.loc	35 0 22 is_stmt 0
	leaq	-296(%rbp), %rdi
Ltmp458:
	.loc	35 1446 22
	movq	%rdi, -64(%rbp)
Ltmp459:
	.loc	22 711 9 is_stmt 1
	callq	__ZN89_$LT$core..ops..range..Range$LT$T$GT$$u20$as$u20$core..iter..range..RangeIteratorImpl$GT$9spec_next17hc2aab68d9f85f671E
	movq	%rdx, -272(%rbp)
	movq	%rax, -280(%rbp)
Ltmp460:
	.loc	35 1446 22
	cmpq	$0, -280(%rbp)
	jne	LBB49_20
Ltmp461:
	.loc	35 0 22 is_stmt 0
	movb	-353(%rbp), %al
	.loc	35 1457 28 is_stmt 1
	testb	$1, %al
	jne	LBB49_31
	jmp	LBB49_30
LBB49_20:
	.loc	35 0 28 is_stmt 0
	movq	-416(%rbp), %rcx
Ltmp462:
	.loc	35 1446 17 is_stmt 1
	movq	-272(%rbp), %rax
	movq	%rax, -432(%rbp)
	movq	%rax, -56(%rbp)
Ltmp463:
	.loc	35 1447 20
	cmpq	%rcx, %rax
	setb	%al
	testb	$1, %al
	jne	LBB49_21
	jmp	LBB49_22
LBB49_21:
	.loc	35 0 20 is_stmt 0
	movq	-400(%rbp), %rcx
	movq	-384(%rbp), %rdx
	movq	-432(%rbp), %rax
	movq	-408(%rbp), %rsi
	.loc	35 1447 20
	movb	(%rsi,%rax), %sil
	movb	%sil, -441(%rbp)
	.loc	35 1447 42
	addq	32(%rdx), %rax
	movq	%rax, -440(%rbp)
	.loc	35 1447 33
	cmpq	%rcx, %rax
	setb	%al
	testb	$1, %al
	jne	LBB49_23
	jmp	LBB49_24
LBB49_22:
	.loc	35 0 33
	movq	-416(%rbp), %rsi
	movq	-432(%rbp), %rdi
	.loc	35 1447 20
	leaq	l___unnamed_18(%rip), %rdx
	callq	__ZN4core9panicking18panic_bounds_check17hacb8a94866cda541E
LBB49_23:
	.loc	35 0 20
	movb	-441(%rbp), %al
	movq	-392(%rbp), %rcx
	movq	-440(%rbp), %rdx
	.loc	35 1447 20
	cmpb	(%rcx,%rdx), %al
	jne	LBB49_26
	jmp	LBB49_25
LBB49_24:
	.loc	35 0 20
	movq	-400(%rbp), %rsi
	movq	-440(%rbp), %rdi
	.loc	35 1447 33
	leaq	l___unnamed_19(%rip), %rdx
	callq	__ZN4core9panicking18panic_bounds_check17hacb8a94866cda541E
Ltmp464:
LBB49_25:
	.loc	35 1446 13 is_stmt 1
	jmp	LBB49_18
LBB49_26:
	.loc	35 0 13 is_stmt 0
	movb	-353(%rbp), %al
	movq	-384(%rbp), %rcx
	movq	-432(%rbp), %rdx
Ltmp465:
	.loc	35 1448 38 is_stmt 1
	subq	(%rcx), %rdx
	addq	$1, %rdx
	.loc	35 1448 21 is_stmt 0
	addq	32(%rcx), %rdx
	movq	%rdx, 32(%rcx)
	.loc	35 1449 24 is_stmt 1
	xorb	$-1, %al
	testb	$1, %al
	jne	LBB49_28
Ltmp466:
LBB49_27:
	.loc	31 1 1
	jmp	LBB49_29
LBB49_28:
	.loc	31 0 1 is_stmt 0
	movq	-384(%rbp), %rax
Ltmp467:
	.loc	35 1450 25 is_stmt 1
	movq	$0, 48(%rax)
	.loc	35 1449 21
	jmp	LBB49_27
Ltmp468:
LBB49_29:
	.loc	31 1 1
	jmp	LBB49_14
LBB49_30:
	.loc	31 0 1 is_stmt 0
	movq	-384(%rbp), %rax
Ltmp469:
	.loc	35 1457 53 is_stmt 1
	movq	48(%rax), %rax
	movq	%rax, -264(%rbp)
	.loc	35 1457 25 is_stmt 0
	jmp	LBB49_32
LBB49_31:
	.loc	35 1457 42
	movq	$0, -264(%rbp)
LBB49_32:
	.loc	35 0 42
	movq	-384(%rbp), %rax
Ltmp470:
	.loc	35 1458 23 is_stmt 1
	movq	-264(%rbp), %rcx
	.loc	35 1458 30 is_stmt 0
	movq	(%rax), %rax
	.loc	35 1458 22
	movq	%rcx, -256(%rbp)
	movq	%rax, -248(%rbp)
Ltmp471:
	.loc	37 3183 18 is_stmt 1
	movq	-256(%rbp), %rdi
	movq	-248(%rbp), %rsi
	.loc	37 3183 9 is_stmt 0
	callq	__ZN4core4iter8adapters3rev12Rev$LT$T$GT$3new17h85a718eaf4f1e737E
	movq	%rax, -48(%rbp)
	movq	%rdx, -40(%rbp)
Ltmp472:
	.loc	35 1458 22 is_stmt 1
	movq	%rax, -240(%rbp)
	movq	%rdx, -232(%rbp)
LBB49_33:
	.loc	35 0 22 is_stmt 0
	leaq	-240(%rbp), %rdi
Ltmp473:
	.loc	35 1458 22
	movq	%rdi, -32(%rbp)
Ltmp474:
	.loc	42 33 9 is_stmt 1
	movq	%rdi, -24(%rbp)
Ltmp475:
	.loc	22 819 9
	callq	__ZN89_$LT$core..ops..range..Range$LT$T$GT$$u20$as$u20$core..iter..range..RangeIteratorImpl$GT$14spec_next_back17hf5348e5d2378f47eE
	movq	%rdx, -216(%rbp)
	movq	%rax, -224(%rbp)
Ltmp476:
	.loc	35 1458 22
	cmpq	$0, -224(%rbp)
	jne	LBB49_35
Ltmp477:
	.loc	35 0 22 is_stmt 0
	movb	-353(%rbp), %al
	movq	-384(%rbp), %rcx
	movq	-416(%rbp), %rdx
	.loc	35 1469 29 is_stmt 1
	movq	32(%rcx), %rsi
	movq	%rsi, -456(%rbp)
	movq	%rsi, -8(%rbp)
Ltmp478:
	.loc	35 1472 13
	addq	32(%rcx), %rdx
	movq	%rdx, 32(%rcx)
	.loc	35 1473 16
	xorb	$-1, %al
	testb	$1, %al
	jne	LBB49_45
	jmp	LBB49_44
Ltmp479:
LBB49_35:
	.loc	35 0 16 is_stmt 0
	movq	-416(%rbp), %rcx
Ltmp480:
	.loc	35 1458 17 is_stmt 1
	movq	-216(%rbp), %rax
	movq	%rax, -464(%rbp)
	movq	%rax, -16(%rbp)
Ltmp481:
	.loc	35 1459 20
	cmpq	%rcx, %rax
	setb	%al
	testb	$1, %al
	jne	LBB49_36
	jmp	LBB49_37
LBB49_36:
	.loc	35 0 20 is_stmt 0
	movq	-400(%rbp), %rcx
	movq	-384(%rbp), %rdx
	movq	-464(%rbp), %rax
	movq	-408(%rbp), %rsi
	.loc	35 1459 20
	movb	(%rsi,%rax), %sil
	movb	%sil, -473(%rbp)
	.loc	35 1459 42
	addq	32(%rdx), %rax
	movq	%rax, -472(%rbp)
	.loc	35 1459 33
	cmpq	%rcx, %rax
	setb	%al
	testb	$1, %al
	jne	LBB49_38
	jmp	LBB49_39
LBB49_37:
	.loc	35 0 33
	movq	-416(%rbp), %rsi
	movq	-464(%rbp), %rdi
	.loc	35 1459 20
	leaq	l___unnamed_20(%rip), %rdx
	callq	__ZN4core9panicking18panic_bounds_check17hacb8a94866cda541E
LBB49_38:
	.loc	35 0 20
	movb	-473(%rbp), %al
	movq	-392(%rbp), %rcx
	movq	-472(%rbp), %rdx
	.loc	35 1459 20
	cmpb	(%rcx,%rdx), %al
	jne	LBB49_41
	jmp	LBB49_40
LBB49_39:
	.loc	35 0 20
	movq	-400(%rbp), %rsi
	movq	-472(%rbp), %rdi
	.loc	35 1459 33
	leaq	l___unnamed_21(%rip), %rdx
	callq	__ZN4core9panicking18panic_bounds_check17hacb8a94866cda541E
Ltmp482:
LBB49_40:
	.loc	35 1458 13 is_stmt 1
	jmp	LBB49_33
LBB49_41:
	.loc	35 0 13 is_stmt 0
	movb	-353(%rbp), %al
	movq	-384(%rbp), %rcx
Ltmp483:
	.loc	35 1460 38 is_stmt 1
	movq	16(%rcx), %rdx
	.loc	35 1460 21 is_stmt 0
	addq	32(%rcx), %rdx
	movq	%rdx, 32(%rcx)
	.loc	35 1461 24 is_stmt 1
	xorb	$-1, %al
	testb	$1, %al
	jne	LBB49_43
Ltmp484:
LBB49_42:
	.loc	31 1 1
	jmp	LBB49_29
LBB49_43:
	.loc	31 0 1 is_stmt 0
	movq	-384(%rbp), %rax
	movq	-416(%rbp), %rcx
Ltmp485:
	.loc	35 1462 25 is_stmt 1
	subq	16(%rax), %rcx
	movq	%rcx, 48(%rax)
	.loc	35 1461 21
	jmp	LBB49_42
Ltmp486:
LBB49_44:
	.loc	35 0 21 is_stmt 0
	movq	-456(%rbp), %rsi
	movq	-376(%rbp), %rdi
	movq	-416(%rbp), %rax
Ltmp487:
	.loc	35 1477 43 is_stmt 1
	movq	%rsi, %rdx
	addq	%rax, %rdx
	.loc	35 1477 20 is_stmt 0
	callq	__ZN89_$LT$core..str..pattern..RejectAndMatch$u20$as$u20$core..str..pattern..TwoWayStrategy$GT$8matching17ha3d26376b2e0869dE
Ltmp488:
	.loc	31 1 1 is_stmt 1
	jmp	LBB49_9
LBB49_45:
	.loc	31 0 1 is_stmt 0
	movq	-384(%rbp), %rax
Ltmp489:
	.loc	35 1474 17 is_stmt 1
	movq	$0, 48(%rax)
	.loc	35 1473 13
	jmp	LBB49_44
Ltmp490:
Lfunc_end49:
	.cfi_endproc

	.p2align	4, 0x90
__ZN4core3str7pattern14small_slice_eq17hbfcf5b2a9236f2daE:
Lfunc_begin50:
	.loc	35 1863 0
	.cfi_startproc
	pushq	%rbp
	.cfi_def_cfa_offset 16
	.cfi_offset %rbp, -16
	movq	%rsp, %rbp
	.cfi_def_cfa_register %rbp
	subq	$768, %rsp
	movq	%rdi, -752(%rbp)
	movq	%rsi, -744(%rbp)
	movq	%rdx, -736(%rbp)
	movq	%rcx, -728(%rbp)
	movq	%rdi, -464(%rbp)
	movq	%rsi, -456(%rbp)
	movq	%rdx, -448(%rbp)
	movq	%rcx, -440(%rbp)
Ltmp491:
	.loc	35 1873 8 prologue_end
	cmpq	$4, %rsi
	jb	LBB50_2
	.loc	35 0 8 is_stmt 0
	movq	-728(%rbp), %rdx
	movq	-744(%rbp), %rcx
	movq	-736(%rbp), %rax
	movq	-752(%rbp), %rsi
	.loc	35 1905 33 is_stmt 1
	movq	%rsi, -400(%rbp)
	movq	%rcx, -392(%rbp)
	.loc	35 1905 45 is_stmt 0
	movq	%rax, -384(%rbp)
	movq	%rdx, -376(%rbp)
	.loc	35 1905 32
	movq	%rsi, -512(%rbp)
	movq	%rax, -504(%rbp)
	.loc	35 1905 14
	movq	-512(%rbp), %rax
	movq	%rax, -528(%rbp)
	.loc	35 1905 22
	movq	-504(%rbp), %rax
	movq	%rax, -520(%rbp)
Ltmp492:
	.loc	35 1906 31 is_stmt 1
	movq	-528(%rbp), %rax
	movq	%rax, -368(%rbp)
	.loc	35 1906 38 is_stmt 0
	subq	$4, %rcx
	movq	%rcx, -360(%rbp)
Ltmp493:
	.loc	3 932 18 is_stmt 1
	movq	%rax, -352(%rbp)
	.loc	3 932 30 is_stmt 0
	movq	%rcx, -344(%rbp)
Ltmp494:
	.loc	3 473 18 is_stmt 1
	addq	%rcx, %rax
	movq	%rax, -336(%rbp)
	movq	-336(%rbp), %rcx
Ltmp495:
	.loc	35 1906 52
	movq	-520(%rbp), %rax
	movq	%rax, -328(%rbp)
	.loc	35 1906 59 is_stmt 0
	subq	$4, %rdx
	movq	%rdx, -320(%rbp)
Ltmp496:
	.loc	3 932 18 is_stmt 1
	movq	%rax, -312(%rbp)
	.loc	3 932 30 is_stmt 0
	movq	%rdx, -304(%rbp)
Ltmp497:
	.loc	3 473 18 is_stmt 1
	addq	%rdx, %rax
	movq	%rax, -296(%rbp)
	movq	-296(%rbp), %rax
Ltmp498:
	.loc	35 1906 30
	movq	%rcx, -496(%rbp)
	movq	%rax, -488(%rbp)
	.loc	35 1906 14 is_stmt 0
	movq	-496(%rbp), %rax
	movq	%rax, -768(%rbp)
	movq	%rax, -288(%rbp)
	.loc	35 1906 21
	movq	-488(%rbp), %rax
	movq	%rax, -760(%rbp)
	movq	%rax, -280(%rbp)
Ltmp499:
	.loc	35 1907 9 is_stmt 1
	jmp	LBB50_10
Ltmp500:
LBB50_2:
	.loc	35 0 9 is_stmt 0
	movq	-744(%rbp), %rsi
	movq	-752(%rbp), %rdi
	.loc	35 1874 27 is_stmt 1
	movq	%rdi, -432(%rbp)
	movq	%rsi, -424(%rbp)
Ltmp501:
	.loc	32 742 9
	callq	__ZN4core5slice4iter13Iter$LT$T$GT$3new17hec07d39c212b13efE
	movq	-736(%rbp), %rcx
	movq	-728(%rbp), %r8
	movq	%rax, %rsi
Ltmp502:
	.loc	35 1874 27
	leaq	-656(%rbp), %rdi
	callq	__ZN4core4iter6traits8iterator8Iterator3zip17h7d594725a623fbb0E
Ltmp503:
	.loc	38 273 9
	leaq	-712(%rbp), %rdi
	leaq	-656(%rbp), %rsi
	movl	$56, %edx
	callq	_memcpy
Ltmp504:
	.loc	35 1874 27
	leaq	-600(%rbp), %rdi
	leaq	-712(%rbp), %rsi
	movl	$56, %edx
	callq	_memcpy
LBB50_3:
	.loc	35 0 27 is_stmt 0
	leaq	-600(%rbp), %rdi
Ltmp505:
	.loc	35 1874 27
	movq	%rdi, -416(%rbp)
Ltmp506:
	.loc	6 84 9 is_stmt 1
	callq	__ZN111_$LT$core..iter..adapters..zip..Zip$LT$A$C$B$GT$$u20$as$u20$core..iter..adapters..zip..ZipImpl$LT$A$C$B$GT$$GT$4next17hadfd3f714c0ff593E
	movq	%rdx, -536(%rbp)
	movq	%rax, -544(%rbp)
Ltmp507:
	.loc	35 1874 27
	movq	-544(%rbp), %rdx
	movl	$1, %eax
	xorl	%ecx, %ecx
	cmpq	$0, %rdx
	cmoveq	%rcx, %rax
	cmpq	$0, %rax
	jne	LBB50_5
Ltmp508:
	.loc	35 1879 16
	movb	$1, -713(%rbp)
	.loc	35 1879 9 is_stmt 0
	jmp	LBB50_8
LBB50_5:
Ltmp509:
	.loc	35 1874 15 is_stmt 1
	movq	-544(%rbp), %rax
	movb	(%rax), %al
	movb	%al, -402(%rbp)
	.loc	35 1874 20 is_stmt 0
	movq	-536(%rbp), %rcx
	movb	(%rcx), %cl
	movb	%cl, -401(%rbp)
Ltmp510:
	.loc	35 1875 16 is_stmt 1
	cmpb	%cl, %al
	jne	LBB50_7
Ltmp511:
	.loc	35 1874 9
	jmp	LBB50_3
LBB50_7:
Ltmp512:
	.loc	35 1876 24
	movb	$0, -713(%rbp)
Ltmp513:
LBB50_8:
	.loc	31 1 1
	jmp	LBB50_9
LBB50_9:
	.loc	35 1920 2
	movb	-713(%rbp), %al
	andb	$1, %al
	movzbl	%al, %eax
	addq	$768, %rsp
	popq	%rbp
	retq
LBB50_10:
	.loc	35 0 2 is_stmt 0
	movq	-768(%rbp), %rax
Ltmp514:
	.loc	35 1907 15 is_stmt 1
	cmpq	%rax, -528(%rbp)
	jb	LBB50_12
	.loc	35 0 15 is_stmt 0
	movq	-760(%rbp), %rcx
	movq	-768(%rbp), %rax
	.loc	35 1916 18 is_stmt 1
	movq	%rax, -112(%rbp)
Ltmp515:
	.loc	3 1257 33
	movq	%rax, -104(%rbp)
Ltmp516:
	.loc	4 1250 29
	movq	%rax, -96(%rbp)
	.loc	4 1250 47 is_stmt 0
	leaq	-472(%rbp), %rdx
	movq	%rdx, -88(%rbp)
	leaq	-472(%rbp), %rdx
	movq	%rdx, -80(%rbp)
Ltmp517:
	.loc	39 2372 9 is_stmt 1
	movl	(%rax), %eax
	movl	%eax, -472(%rbp)
Ltmp518:
	.loc	4 1251 9
	movl	-472(%rbp), %eax
	movl	%eax, -68(%rbp)
Ltmp519:
	.loc	26 627 38
	movl	%eax, -64(%rbp)
Ltmp520:
	.loc	27 89 9
	movl	%eax, -60(%rbp)
Ltmp521:
	.loc	35 1917 18
	movq	%rcx, -56(%rbp)
Ltmp522:
	.loc	3 1257 33
	movq	%rcx, -48(%rbp)
Ltmp523:
	.loc	4 1250 29
	movq	%rcx, -40(%rbp)
	.loc	4 1250 47 is_stmt 0
	leaq	-468(%rbp), %rdx
	movq	%rdx, -32(%rbp)
	leaq	-468(%rbp), %rdx
	movq	%rdx, -24(%rbp)
Ltmp524:
	.loc	39 2372 9 is_stmt 1
	movl	(%rcx), %ecx
	movl	%ecx, -468(%rbp)
Ltmp525:
	.loc	4 1251 9
	movl	-468(%rbp), %ecx
	movl	%ecx, -12(%rbp)
Ltmp526:
	.loc	26 627 38
	movl	%ecx, -8(%rbp)
Ltmp527:
	.loc	27 89 9
	movl	%ecx, -4(%rbp)
Ltmp528:
	.loc	35 1918 9
	cmpl	%ecx, %eax
	sete	%al
	andb	$1, %al
	movb	%al, -713(%rbp)
Ltmp529:
	.loc	35 1920 2
	jmp	LBB50_9
LBB50_12:
Ltmp530:
	.loc	35 1908 23
	movq	-528(%rbp), %rax
	.loc	35 1908 22 is_stmt 0
	movq	%rax, -272(%rbp)
Ltmp531:
	.loc	3 1257 33 is_stmt 1
	movq	%rax, -264(%rbp)
Ltmp532:
	.loc	4 1250 29
	movq	%rax, -256(%rbp)
	.loc	4 1250 47 is_stmt 0
	leaq	-480(%rbp), %rcx
	movq	%rcx, -248(%rbp)
	leaq	-480(%rbp), %rcx
	movq	%rcx, -240(%rbp)
Ltmp533:
	.loc	39 2372 9 is_stmt 1
	movl	(%rax), %eax
	movl	%eax, -480(%rbp)
Ltmp534:
	.loc	4 1251 9
	movl	-480(%rbp), %eax
	movl	%eax, -228(%rbp)
Ltmp535:
	.loc	26 627 38
	movl	%eax, -224(%rbp)
Ltmp536:
	.loc	27 89 9
	movl	%eax, -220(%rbp)
Ltmp537:
	.loc	35 1909 23
	movq	-520(%rbp), %rcx
	.loc	35 1909 22 is_stmt 0
	movq	%rcx, -216(%rbp)
Ltmp538:
	.loc	3 1257 33 is_stmt 1
	movq	%rcx, -208(%rbp)
Ltmp539:
	.loc	4 1250 29
	movq	%rcx, -200(%rbp)
	.loc	4 1250 47 is_stmt 0
	leaq	-476(%rbp), %rdx
	movq	%rdx, -192(%rbp)
	leaq	-476(%rbp), %rdx
	movq	%rdx, -184(%rbp)
Ltmp540:
	.loc	39 2372 9 is_stmt 1
	movl	(%rcx), %ecx
	movl	%ecx, -476(%rbp)
Ltmp541:
	.loc	4 1251 9
	movl	-476(%rbp), %ecx
	movl	%ecx, -172(%rbp)
Ltmp542:
	.loc	26 627 38
	movl	%ecx, -168(%rbp)
Ltmp543:
	.loc	27 89 9
	movl	%ecx, -164(%rbp)
Ltmp544:
	.loc	35 1910 16
	cmpl	%ecx, %eax
	jne	LBB50_14
	.loc	35 1913 18
	movq	-528(%rbp), %rax
	movq	%rax, -160(%rbp)
Ltmp545:
	.loc	3 932 18
	movq	%rax, -152(%rbp)
Ltmp546:
	.loc	3 473 18
	addq	$4, %rax
	movq	%rax, -144(%rbp)
	movq	-144(%rbp), %rax
Ltmp547:
	.loc	35 1913 13
	movq	%rax, -528(%rbp)
	.loc	35 1914 18
	movq	-520(%rbp), %rax
	movq	%rax, -136(%rbp)
Ltmp548:
	.loc	3 932 18
	movq	%rax, -128(%rbp)
Ltmp549:
	.loc	3 473 18
	addq	$4, %rax
	movq	%rax, -120(%rbp)
	movq	-120(%rbp), %rax
Ltmp550:
	.loc	35 1914 13
	movq	%rax, -520(%rbp)
Ltmp551:
	.loc	35 1907 9
	jmp	LBB50_10
LBB50_14:
Ltmp552:
	.loc	35 1911 24
	movb	$0, -713(%rbp)
Ltmp553:
	.loc	31 1 1
	jmp	LBB50_9
Ltmp554:
Lfunc_end50:
	.cfi_endproc

	.p2align	4, 0x90
__ZN4core4char7methods8len_utf817h1467b5d2fa2def4bE:
Lfunc_begin51:
	.file	43 "/rustc/2c8cc343237b8f7d5a3c3703e3a87f2eb2c54a74/library/core/src/char" "methods.rs"
	.loc	43 1701 0
	.cfi_startproc
	pushq	%rbp
	.cfi_def_cfa_offset 16
	.cfi_offset %rbp, -16
	movq	%rsp, %rbp
	.cfi_def_cfa_register %rbp
	subq	$24, %rsp
	movl	%edi, -20(%rbp)
	movl	%edi, -4(%rbp)
Ltmp555:
	.loc	43 1702 8 prologue_end
	cmpl	$128, %edi
	jb	LBB51_2
	.loc	43 0 8 is_stmt 0
	movl	-20(%rbp), %eax
	.loc	43 1704 15 is_stmt 1
	cmpl	$2048, %eax
	jb	LBB51_5
	jmp	LBB51_4
LBB51_2:
	.loc	43 1703 9
	movq	$1, -16(%rbp)
LBB51_3:
	.loc	43 1711 2
	movq	-16(%rbp), %rax
	addq	$24, %rsp
	popq	%rbp
	retq
LBB51_4:
	.loc	43 0 2 is_stmt 0
	movl	-20(%rbp), %eax
	.loc	43 1706 15 is_stmt 1
	cmpl	$65536, %eax
	jb	LBB51_8
	jmp	LBB51_7
LBB51_5:
	.loc	43 1705 9
	movq	$2, -16(%rbp)
LBB51_6:
	.loc	43 1702 5
	jmp	LBB51_3
LBB51_7:
	.loc	43 1709 9
	movq	$4, -16(%rbp)
	.loc	43 1706 12
	jmp	LBB51_9
LBB51_8:
	.loc	43 1707 9
	movq	$3, -16(%rbp)
LBB51_9:
	.loc	43 1704 12
	jmp	LBB51_6
Ltmp556:
Lfunc_end51:
	.cfi_endproc

	.p2align	4, 0x90
__ZN4core4hint21unreachable_unchecked17he0ba51bc6b30f0b2E:
Lfunc_begin52:
	.loc	14 100 0
	.cfi_startproc
	pushq	%rbp
	.cfi_def_cfa_offset 16
	.cfi_offset %rbp, -16
	movq	%rsp, %rbp
	.cfi_def_cfa_register %rbp
Ltmp557:
	.loc	14 104 9 prologue_end
	ud2
Ltmp558:
Lfunc_end52:
	.cfi_endproc

	.p2align	4, 0x90
__ZN4core4iter5range116_$LT$impl$u20$core..iter..traits..double_ended..DoubleEndedIterator$u20$for$u20$core..ops..range..Range$LT$A$GT$$GT$9next_back17h22854fc15e12bf9dE:
Lfunc_begin53:
	.loc	22 818 0
	.cfi_startproc
	pushq	%rbp
	.cfi_def_cfa_offset 16
	.cfi_offset %rbp, -16
	movq	%rsp, %rbp
	.cfi_def_cfa_register %rbp
	subq	$16, %rsp
	movq	%rdi, -8(%rbp)
Ltmp559:
	.loc	22 819 9 prologue_end
	callq	__ZN89_$LT$core..ops..range..Range$LT$T$GT$$u20$as$u20$core..iter..range..RangeIteratorImpl$GT$14spec_next_back17hf5348e5d2378f47eE
	.loc	22 820 6
	addq	$16, %rsp
	popq	%rbp
	retq
Ltmp560:
Lfunc_end53:
	.cfi_endproc

	.p2align	4, 0x90
__ZN4core4iter6traits12double_ended19DoubleEndedIterator5rfind5check28_$u7b$$u7b$closure$u7d$$u7d$17h117ac2794c8eaf42E:
Lfunc_begin54:
	.loc	36 354 0
	.cfi_startproc
	.cfi_personality 155, _rust_eh_personality
	.cfi_lsda 16, Lexception7
	pushq	%rbp
	.cfi_def_cfa_offset 16
	.cfi_offset %rbp, -16
	movq	%rsp, %rbp
	.cfi_def_cfa_register %rbp
	subq	$80, %rsp
	movq	%rsi, -72(%rbp)
	movq	%rdi, -32(%rbp)
Ltmp564:
	.loc	36 355 20 prologue_end
	movb	$1, -33(%rbp)
	leaq	-72(%rbp), %rax
	movq	%rax, -48(%rbp)
	movq	-48(%rbp), %rsi
Ltmp561:
	callq	__ZN4core3str7pattern13simd_contains28_$u7b$$u7b$closure$u7d$$u7d$17hd431cc39f87a1d22E
Ltmp562:
	movb	%al, -73(%rbp)
	jmp	LBB54_3
LBB54_1:
	.loc	36 354 13
	movq	-16(%rbp), %rdi
	callq	__Unwind_Resume
LBB54_2:
Ltmp563:
	.loc	36 0 13 is_stmt 0
	movq	%rax, %rcx
	movl	%edx, %eax
	movq	%rcx, -16(%rbp)
	movl	%eax, -8(%rbp)
	jmp	LBB54_1
LBB54_3:
	movb	-73(%rbp), %al
	.loc	36 355 20 is_stmt 1
	testb	$1, %al
	jne	LBB54_5
	jmp	LBB54_4
LBB54_4:
	.loc	36 355 67 is_stmt 0
	movq	L___unnamed_22(%rip), %rcx
	movq	L___unnamed_22+8(%rip), %rax
	movq	%rcx, -64(%rbp)
	movq	%rax, -56(%rbp)
	.loc	36 355 17
	jmp	LBB54_6
LBB54_5:
	.loc	36 355 55
	movb	$0, -33(%rbp)
	movq	-72(%rbp), %rax
	.loc	36 355 36
	movq	%rax, -56(%rbp)
	movq	$1, -64(%rbp)
LBB54_6:
	.loc	36 356 13 is_stmt 1
	testb	$1, -33(%rbp)
	jne	LBB54_8
LBB54_7:
	.loc	36 356 14 is_stmt 0
	movq	-64(%rbp), %rax
	movq	-56(%rbp), %rdx
	addq	$80, %rsp
	popq	%rbp
	retq
LBB54_8:
	.loc	36 356 13
	jmp	LBB54_7
Ltmp565:
Lfunc_end54:
	.cfi_endproc
	.section	__TEXT,__gcc_except_tab
	.p2align	2
GCC_except_table54:
Lexception7:
	.byte	255
	.byte	255
	.byte	1
	.uleb128 Lcst_end7-Lcst_begin7
Lcst_begin7:
	.uleb128 Ltmp561-Lfunc_begin54
	.uleb128 Ltmp562-Ltmp561
	.uleb128 Ltmp563-Lfunc_begin54
	.byte	0
	.uleb128 Ltmp562-Lfunc_begin54
	.uleb128 Lfunc_end54-Ltmp562
	.byte	0
	.byte	0
Lcst_end7:
	.p2align	2

	.section	__TEXT,__text,regular,pure_instructions
	.p2align	4, 0x90
__ZN4core4iter6traits12double_ended19DoubleEndedIterator9try_rfold17h0d1ec89563d43bceE:
Lfunc_begin55:
	.loc	36 221 0 is_stmt 1
	.cfi_startproc
	.cfi_personality 155, _rust_eh_personality
	.cfi_lsda 16, Lexception8
	pushq	%rbp
	.cfi_def_cfa_offset 16
	.cfi_offset %rbp, -16
	movq	%rsp, %rbp
	.cfi_def_cfa_register %rbp
	subq	$224, %rsp
	movq	%rdi, -144(%rbp)
	movq	%rsi, -136(%rbp)
Ltmp577:
	movq	%rdi, -64(%rbp)
Ltmp578:
	.loc	36 227 25 prologue_end
	movb	$1, -65(%rbp)
Ltmp579:
LBB55_1:
Ltmp566:
	.loc	36 0 25 is_stmt 0
	movq	-144(%rbp), %rdi
Ltmp580:
	.loc	36 228 29 is_stmt 1
	callq	__ZN4core4iter5range116_$LT$impl$u20$core..iter..traits..double_ended..DoubleEndedIterator$u20$for$u20$core..ops..range..Range$LT$A$GT$$GT$9next_back17h22854fc15e12bf9dE
Ltmp567:
	movq	%rdx, -160(%rbp)
	movq	%rax, -152(%rbp)
	jmp	LBB55_4
Ltmp581:
LBB55_2:
	.loc	36 232 5
	testb	$1, -65(%rbp)
	jne	LBB55_16
	jmp	LBB55_15
Ltmp582:
LBB55_3:
Ltmp576:
	.loc	36 0 5 is_stmt 0
	movq	%rax, %rcx
	movl	%edx, %eax
	movq	%rcx, -32(%rbp)
	movl	%eax, -24(%rbp)
	jmp	LBB55_2
Ltmp583:
LBB55_4:
	movq	-160(%rbp), %rax
	movq	-152(%rbp), %rcx
Ltmp584:
	.loc	36 228 29 is_stmt 1
	movq	%rcx, -112(%rbp)
	movq	%rax, -104(%rbp)
	.loc	36 228 19 is_stmt 0
	cmpq	$1, -112(%rbp)
	jne	LBB55_6
Ltmp585:
	.loc	36 0 19
	movq	-136(%rbp), %rdi
	.loc	36 228 24
	movq	-104(%rbp), %rax
	movq	%rax, -16(%rbp)
	.loc	36 229 23 is_stmt 1
	movb	$0, -65(%rbp)
	.loc	36 229 21 is_stmt 0
	movq	%rax, -80(%rbp)
	movq	-80(%rbp), %rsi
Ltmp570:
	callq	__ZN4core4iter6traits12double_ended19DoubleEndedIterator5rfind5check28_$u7b$$u7b$closure$u7d$$u7d$17h117ac2794c8eaf42E
Ltmp571:
	movq	%rdx, -176(%rbp)
	movq	%rax, -168(%rbp)
	jmp	LBB55_10
Ltmp586:
LBB55_6:
	.loc	36 228 9 is_stmt 1
	jmp	LBB55_7
Ltmp587:
LBB55_7:
	.loc	36 231 15
	movb	$0, -65(%rbp)
Ltmp568:
	callq	__ZN95_$LT$core..ops..control_flow..ControlFlow$LT$B$C$C$GT$$u20$as$u20$core..ops..try_trait..Try$GT$11from_output17hfe43cf83661e09d3E
Ltmp569:
	movq	%rdx, -192(%rbp)
	movq	%rax, -184(%rbp)
	jmp	LBB55_8
Ltmp588:
LBB55_8:
	.loc	36 0 15 is_stmt 0
	movq	-192(%rbp), %rax
	movq	-184(%rbp), %rcx
	.loc	36 231 15
	movq	%rcx, -128(%rbp)
	movq	%rax, -120(%rbp)
Ltmp589:
LBB55_9:
	.loc	36 232 6 is_stmt 1
	movq	-128(%rbp), %rax
	movq	-120(%rbp), %rdx
	addq	$224, %rsp
	popq	%rbp
	retq
Ltmp590:
LBB55_10:
Ltmp572:
	.loc	36 0 6 is_stmt 0
	movq	-176(%rbp), %rsi
	movq	-168(%rbp), %rdi
Ltmp591:
	.loc	36 229 21 is_stmt 1
	callq	__ZN95_$LT$core..ops..control_flow..ControlFlow$LT$B$C$C$GT$$u20$as$u20$core..ops..try_trait..Try$GT$6branch17hb413037448dbbf6cE
Ltmp573:
	movq	%rdx, -208(%rbp)
	movq	%rax, -200(%rbp)
	jmp	LBB55_11
Ltmp592:
LBB55_11:
	.loc	36 0 21 is_stmt 0
	movq	-208(%rbp), %rax
	movq	-200(%rbp), %rcx
	.loc	36 229 21
	movq	%rcx, -96(%rbp)
	movq	%rax, -88(%rbp)
	cmpq	$0, -96(%rbp)
	jne	LBB55_13
Ltmp593:
	.loc	36 229 13
	movb	$1, -65(%rbp)
Ltmp594:
	.loc	36 228 9 is_stmt 1
	jmp	LBB55_1
Ltmp595:
LBB55_13:
	.loc	36 229 32
	movq	-88(%rbp), %rdi
	movq	%rdi, -8(%rbp)
Ltmp574:
Ltmp596:
	.loc	36 229 21 is_stmt 0
	callq	__ZN104_$LT$core..ops..control_flow..ControlFlow$LT$B$C$C$GT$$u20$as$u20$core..ops..try_trait..FromResidual$GT$13from_residual17h41375c86f47d9e8dE
Ltmp575:
	movq	%rdx, -224(%rbp)
	movq	%rax, -216(%rbp)
	jmp	LBB55_14
Ltmp597:
LBB55_14:
	.loc	36 0 21
	movq	-224(%rbp), %rax
	movq	-216(%rbp), %rcx
	.loc	36 229 21
	movq	%rcx, -128(%rbp)
	movq	%rax, -120(%rbp)
Ltmp598:
	.loc	36 232 5 is_stmt 1
	jmp	LBB55_9
Ltmp599:
LBB55_15:
	.loc	36 221 5
	movq	-32(%rbp), %rdi
	callq	__Unwind_Resume
Ltmp600:
LBB55_16:
	.loc	36 232 5
	jmp	LBB55_15
Ltmp601:
Lfunc_end55:
	.cfi_endproc
	.section	__TEXT,__gcc_except_tab
	.p2align	2
GCC_except_table55:
Lexception8:
	.byte	255
	.byte	255
	.byte	1
	.uleb128 Lcst_end8-Lcst_begin8
Lcst_begin8:
	.uleb128 Ltmp566-Lfunc_begin55
	.uleb128 Ltmp575-Ltmp566
	.uleb128 Ltmp576-Lfunc_begin55
	.byte	0
	.uleb128 Ltmp575-Lfunc_begin55
	.uleb128 Lfunc_end55-Ltmp575
	.byte	0
	.byte	0
Lcst_end8:
	.p2align	2

	.section	__TEXT,__text,regular,pure_instructions
	.p2align	4, 0x90
__ZN4core4iter6traits8iterator8Iterator3any5check28_$u7b$$u7b$closure$u7d$$u7d$17hd2da4f7f8167d35fE:
Lfunc_begin56:
	.loc	37 2656 0
	.cfi_startproc
	pushq	%rbp
	.cfi_def_cfa_offset 16
	.cfi_offset %rbp, -16
	movq	%rsp, %rbp
	.cfi_def_cfa_register %rbp
	subq	$64, %rsp
	movq	%rdi, -32(%rbp)
	movq	%rsi, -16(%rbp)
	movq	%rdx, -8(%rbp)
Ltmp602:
	.loc	37 2657 20 prologue_end
	movq	%rsi, -48(%rbp)
	movq	%rdx, -40(%rbp)
	movq	-48(%rbp), %rsi
	movq	-40(%rbp), %rdx
	callq	__ZN4core3str7pattern13simd_contains28_$u7b$$u7b$closure$u7d$$u7d$17hf954107f4d89d2edE
	testb	$1, %al
	jne	LBB56_2
	.loc	37 2657 55 is_stmt 0
	movb	$0, -49(%rbp)
	.loc	37 2657 17
	jmp	LBB56_3
LBB56_2:
	.loc	37 2657 27
	movb	$1, -49(%rbp)
LBB56_3:
	.loc	37 2658 14 is_stmt 1
	movb	-49(%rbp), %al
	andb	$1, %al
	movzbl	%al, %eax
	addq	$64, %rsp
	popq	%rbp
	retq
Ltmp603:
Lfunc_end56:
	.cfi_endproc

	.p2align	4, 0x90
__ZN4core4iter6traits8iterator8Iterator3zip17h7d594725a623fbb0E:
Lfunc_begin57:
	.loc	37 623 0
	.cfi_startproc
	.cfi_personality 155, _rust_eh_personality
	.cfi_lsda 16, Lexception9
	pushq	%rbp
	.cfi_def_cfa_offset 16
	.cfi_offset %rbp, -16
	movq	%rsp, %rbp
	.cfi_def_cfa_register %rbp
	subq	$128, %rsp
	movq	%r8, -112(%rbp)
	movq	%rcx, -96(%rbp)
	movq	%rdx, -120(%rbp)
	movq	%rsi, %rax
	movq	-112(%rbp), %rsi
	movq	%rax, -104(%rbp)
	movq	%rdi, %rcx
	movq	-96(%rbp), %rdi
	movq	%rcx, -88(%rbp)
	movq	%rcx, -80(%rbp)
	movq	%rax, -48(%rbp)
	movq	%rdx, -40(%rbp)
	movq	%rdi, -32(%rbp)
	movq	%rsi, -24(%rbp)
Ltmp609:
	.loc	37 628 18 prologue_end
	movb	$1, -49(%rbp)
Ltmp604:
	.loc	37 628 24 is_stmt 0
	callq	__ZN4core5slice4iter87_$LT$impl$u20$core..iter..traits..collect..IntoIterator$u20$for$u20$$RF$$u5b$T$u5d$$GT$9into_iter17h3b1f6240c873f958E
Ltmp605:
	movq	%rdx, -72(%rbp)
	movq	%rax, -64(%rbp)
	jmp	LBB57_3
LBB57_1:
	.loc	37 628 41
	testb	$1, -49(%rbp)
	jne	LBB57_6
	jmp	LBB57_5
LBB57_2:
Ltmp608:
	.loc	37 0 41
	movq	%rax, %rcx
	movl	%edx, %eax
	movq	%rcx, -16(%rbp)
	movl	%eax, -8(%rbp)
	jmp	LBB57_1
LBB57_3:
	movq	-72(%rbp), %r8
	movq	-64(%rbp), %rcx
	movq	-120(%rbp), %rdx
	movq	-104(%rbp), %rsi
	movq	-88(%rbp), %rdi
	.loc	37 628 9
	movb	$0, -49(%rbp)
Ltmp606:
	callq	__ZN4core4iter8adapters3zip16Zip$LT$A$C$B$GT$3new17h8b583c1a97c4ed48E
Ltmp607:
	jmp	LBB57_4
LBB57_4:
	.loc	37 0 9
	movq	-80(%rbp), %rax
	.loc	37 629 6 is_stmt 1
	addq	$128, %rsp
	popq	%rbp
	retq
LBB57_5:
	.loc	37 623 5
	movq	-16(%rbp), %rdi
	callq	__Unwind_Resume
LBB57_6:
	.loc	37 628 41
	jmp	LBB57_5
Ltmp610:
Lfunc_end57:
	.cfi_endproc
	.section	__TEXT,__gcc_except_tab
	.p2align	2
GCC_except_table57:
Lexception9:
	.byte	255
	.byte	255
	.byte	1
	.uleb128 Lcst_end9-Lcst_begin9
Lcst_begin9:
	.uleb128 Ltmp604-Lfunc_begin57
	.uleb128 Ltmp607-Ltmp604
	.uleb128 Ltmp608-Lfunc_begin57
	.byte	0
	.uleb128 Ltmp607-Lfunc_begin57
	.uleb128 Lfunc_end57-Ltmp607
	.byte	0
	.byte	0
Lcst_end9:
	.p2align	2

	.section	__TEXT,__text,regular,pure_instructions
	.p2align	4, 0x90
__ZN4core4iter6traits8iterator8Iterator8try_fold17h11a45a5ccef350c6E:
Lfunc_begin58:
	.loc	37 2254 0
	.cfi_startproc
	.cfi_personality 155, _rust_eh_personality
	.cfi_lsda 16, Lexception10
	pushq	%rbp
	.cfi_def_cfa_offset 16
	.cfi_offset %rbp, -16
	movq	%rsp, %rbp
	.cfi_def_cfa_register %rbp
	subq	$176, %rsp
	movq	%rdi, -144(%rbp)
	movq	%rsi, -136(%rbp)
	movq	%rdi, -72(%rbp)
Ltmp622:
	.loc	37 2260 25 prologue_end
	movb	$1, -73(%rbp)
LBB58_1:
Ltmp611:
	.loc	37 0 25 is_stmt 0
	movq	-144(%rbp), %rdi
Ltmp623:
	.loc	37 2261 29 is_stmt 1
	callq	__ZN94_$LT$core..slice..iter..Windows$LT$T$GT$$u20$as$u20$core..iter..traits..iterator..Iterator$GT$4next17hb8a2a3ef2427952dE
Ltmp612:
	movq	%rdx, -160(%rbp)
	movq	%rax, -152(%rbp)
	jmp	LBB58_4
Ltmp624:
LBB58_2:
	.loc	37 2265 5
	testb	$1, -73(%rbp)
	jne	LBB58_16
	jmp	LBB58_15
LBB58_3:
Ltmp621:
	.loc	37 0 5 is_stmt 0
	movq	%rax, %rcx
	movl	%edx, %eax
	movq	%rcx, -32(%rbp)
	movl	%eax, -24(%rbp)
	jmp	LBB58_2
LBB58_4:
	movq	-160(%rbp), %rax
	movq	-152(%rbp), %rcx
Ltmp625:
	.loc	37 2261 29 is_stmt 1
	movq	%rcx, -120(%rbp)
	movq	%rax, -112(%rbp)
	.loc	37 2261 19 is_stmt 0
	movq	-120(%rbp), %rdx
	movl	$1, %eax
	xorl	%ecx, %ecx
	cmpq	$0, %rdx
	cmoveq	%rcx, %rax
	cmpq	$1, %rax
	jne	LBB58_6
	.loc	37 2261 24
	movq	-120(%rbp), %rcx
	movq	-112(%rbp), %rax
	movq	%rcx, -16(%rbp)
	movq	%rax, -8(%rbp)
	.loc	37 2262 23 is_stmt 1
	movb	$0, -73(%rbp)
	.loc	37 2262 21 is_stmt 0
	movq	%rcx, -96(%rbp)
	movq	%rax, -88(%rbp)
	movq	-96(%rbp), %rsi
	movq	-88(%rbp), %rdx
Ltmp615:
	leaq	-136(%rbp), %rdi
	callq	__ZN4core4iter6traits8iterator8Iterator3any5check28_$u7b$$u7b$closure$u7d$$u7d$17hd2da4f7f8167d35fE
Ltmp616:
	movb	%al, -161(%rbp)
	jmp	LBB58_10
Ltmp626:
LBB58_6:
	.loc	37 2261 9 is_stmt 1
	jmp	LBB58_7
LBB58_7:
	.loc	37 2264 15
	movb	$0, -73(%rbp)
Ltmp613:
	callq	__ZN95_$LT$core..ops..control_flow..ControlFlow$LT$B$C$C$GT$$u20$as$u20$core..ops..try_trait..Try$GT$11from_output17he82081d2c0282f5bE
Ltmp614:
	movb	%al, -162(%rbp)
	jmp	LBB58_8
LBB58_8:
	.loc	37 0 15 is_stmt 0
	movb	-162(%rbp), %al
	.loc	37 2264 15
	andb	$1, %al
	movb	%al, -121(%rbp)
Ltmp627:
LBB58_9:
	.loc	37 2265 6 is_stmt 1
	movb	-121(%rbp), %al
	andb	$1, %al
	movzbl	%al, %eax
	addq	$176, %rsp
	popq	%rbp
	retq
LBB58_10:
Ltmp617:
	.loc	37 0 6 is_stmt 0
	movb	-161(%rbp), %al
Ltmp628:
	.loc	37 2262 21 is_stmt 1
	movzbl	%al, %edi
	andl	$1, %edi
	callq	__ZN95_$LT$core..ops..control_flow..ControlFlow$LT$B$C$C$GT$$u20$as$u20$core..ops..try_trait..Try$GT$6branch17h2fa601f75d38cb8aE
Ltmp618:
	movb	%al, -163(%rbp)
	jmp	LBB58_11
LBB58_11:
	.loc	37 0 21 is_stmt 0
	movb	-163(%rbp), %al
	.loc	37 2262 21
	andb	$1, %al
	movb	%al, -97(%rbp)
	movb	-97(%rbp), %al
	andb	$1, %al
	movzbl	%al, %eax
	cmpq	$0, %rax
	jne	LBB58_13
	.loc	37 2262 13
	movb	$1, -73(%rbp)
Ltmp629:
	.loc	37 2261 9 is_stmt 1
	jmp	LBB58_1
LBB58_13:
Ltmp619:
Ltmp630:
	.loc	37 2262 21
	callq	__ZN104_$LT$core..ops..control_flow..ControlFlow$LT$B$C$C$GT$$u20$as$u20$core..ops..try_trait..FromResidual$GT$13from_residual17h14480526ea4372f8E
Ltmp620:
	movb	%al, -164(%rbp)
	jmp	LBB58_14
LBB58_14:
	.loc	37 0 21 is_stmt 0
	movb	-164(%rbp), %al
	.loc	37 2262 21
	andb	$1, %al
	movb	%al, -121(%rbp)
Ltmp631:
	.loc	37 2265 5 is_stmt 1
	jmp	LBB58_9
LBB58_15:
	.loc	37 2254 5
	movq	-32(%rbp), %rdi
	callq	__Unwind_Resume
LBB58_16:
	.loc	37 2265 5
	jmp	LBB58_15
Ltmp632:
Lfunc_end58:
	.cfi_endproc
	.section	__TEXT,__gcc_except_tab
	.p2align	2
GCC_except_table58:
Lexception10:
	.byte	255
	.byte	255
	.byte	1
	.uleb128 Lcst_end10-Lcst_begin10
Lcst_begin10:
	.uleb128 Ltmp611-Lfunc_begin58
	.uleb128 Ltmp620-Ltmp611
	.uleb128 Ltmp621-Lfunc_begin58
	.byte	0
	.uleb128 Ltmp620-Lfunc_begin58
	.uleb128 Lfunc_end58-Ltmp620
	.byte	0
	.byte	0
Lcst_end10:
	.p2align	2

	.section	__TEXT,__text,regular,pure_instructions
	.p2align	4, 0x90
__ZN4core4iter8adapters3rev12Rev$LT$T$GT$3new17h85a718eaf4f1e737E:
Lfunc_begin59:
	.loc	42 19 0
	.cfi_startproc
	pushq	%rbp
	.cfi_def_cfa_offset 16
	.cfi_offset %rbp, -16
	movq	%rsp, %rbp
	.cfi_def_cfa_register %rbp
	subq	$32, %rsp
	movq	%rdi, -16(%rbp)
	movq	%rsi, -8(%rbp)
Ltmp633:
	.loc	42 20 9 prologue_end
	movq	%rdi, -32(%rbp)
	movq	%rsi, -24(%rbp)
	.loc	42 21 6
	movq	-32(%rbp), %rax
	movq	-24(%rbp), %rdx
	addq	$32, %rsp
	popq	%rbp
	retq
Ltmp634:
Lfunc_end59:
	.cfi_endproc

	.p2align	4, 0x90
__ZN4core4iter8adapters3zip16Zip$LT$A$C$B$GT$3new17h8b583c1a97c4ed48E:
Lfunc_begin60:
	.loc	6 22 0
	.cfi_startproc
	pushq	%rbp
	.cfi_def_cfa_offset 16
	.cfi_offset %rbp, -16
	movq	%rsp, %rbp
	.cfi_def_cfa_register %rbp
	subq	$48, %rsp
	movq	%rdi, %rax
	movq	%rax, -40(%rbp)
	movq	%rsi, -32(%rbp)
	movq	%rdx, -24(%rbp)
	movq	%rcx, -16(%rbp)
	movq	%r8, -8(%rbp)
Ltmp635:
	.loc	6 23 9 prologue_end
	callq	__ZN111_$LT$core..iter..adapters..zip..Zip$LT$A$C$B$GT$$u20$as$u20$core..iter..adapters..zip..ZipImpl$LT$A$C$B$GT$$GT$3new17h389e8705f5e0cd96E
	movq	-40(%rbp), %rax
	.loc	6 24 6
	addq	$48, %rsp
	popq	%rbp
	retq
Ltmp636:
Lfunc_end60:
	.cfi_endproc

	.p2align	4, 0x90
__ZN4core4iter8adapters3zip27TrustedRandomAccessNoCoerce4size17hd5248a623e7b8b4aE:
Lfunc_begin61:
	.loc	6 538 0
	.cfi_startproc
	pushq	%rbp
	.cfi_def_cfa_offset 16
	.cfi_offset %rbp, -16
	movq	%rsp, %rbp
	.cfi_def_cfa_register %rbp
	subq	$32, %rsp
	movq	%rdi, %rsi
	movq	%rsi, -8(%rbp)
Ltmp637:
	.loc	6 542 9 prologue_end
	leaq	-32(%rbp), %rdi
	callq	__ZN91_$LT$core..slice..iter..Iter$LT$T$GT$$u20$as$u20$core..iter..traits..iterator..Iterator$GT$9size_hint17hedc990a48f078b3eE
	movq	-32(%rbp), %rax
	.loc	6 543 6
	addq	$32, %rsp
	popq	%rbp
	retq
Ltmp638:
Lfunc_end61:
	.cfi_endproc

	.p2align	4, 0x90
__ZN4core5alloc6layout6Layout5array5inner17hd914df0da7796346E:
Lfunc_begin62:
	.file	44 "/rustc/2c8cc343237b8f7d5a3c3703e3a87f2eb2c54a74/library/core/src/alloc" "layout.rs"
	.loc	44 441 0
	.cfi_startproc
	pushq	%rbp
	.cfi_def_cfa_offset 16
	.cfi_offset %rbp, -16
	movq	%rsp, %rbp
	.cfi_def_cfa_register %rbp
	subq	$176, %rsp
	movq	%rdi, -168(%rbp)
	movq	%rsi, -160(%rbp)
	movq	%rdx, -152(%rbp)
	movq	%rdi, -88(%rbp)
	movq	%rsi, -80(%rbp)
	movq	%rdx, -72(%rbp)
Ltmp639:
	.loc	44 452 16 prologue_end
	cmpq	$0, %rdi
	jne	LBB62_2
	movb	$0, -121(%rbp)
	jmp	LBB62_5
LBB62_2:
	.loc	44 0 16 is_stmt 0
	movq	-168(%rbp), %rax
	movq	-160(%rbp), %rcx
	.loc	44 452 68
	movq	%rcx, -64(%rbp)
Ltmp640:
	.loc	44 93 32 is_stmt 1
	movq	%rcx, -56(%rbp)
Ltmp641:
	.file	45 "/rustc/2c8cc343237b8f7d5a3c3703e3a87f2eb2c54a74/library/core/src/ptr" "alignment.rs"
	.loc	45 97 9
	movq	%rcx, -104(%rbp)
	movq	-104(%rbp), %rdx
Ltmp642:
	.loc	44 93 31
	subq	$1, %rdx
	.loc	44 93 9 is_stmt 0
	movabsq	$9223372036854775807, %rcx
	subq	%rdx, %rcx
	movq	%rcx, -176(%rbp)
Ltmp643:
	.loc	44 452 41 is_stmt 1
	cmpq	$0, %rax
	sete	%al
	testb	$1, %al
	jne	LBB62_4
	.loc	44 0 41 is_stmt 0
	movq	-168(%rbp), %rcx
	movq	-176(%rbp), %rax
	.loc	44 452 41
	xorl	%edx, %edx
	divq	%rcx
	movq	%rax, %rcx
	movq	-152(%rbp), %rax
	.loc	44 452 37
	cmpq	%rcx, %rax
	seta	%al
	.loc	44 452 16
	andb	$1, %al
	movb	%al, -121(%rbp)
	jmp	LBB62_5
LBB62_4:
	.loc	44 452 41
	leaq	_str.0(%rip), %rdi
	leaq	l___unnamed_23(%rip), %rdx
	movl	$25, %esi
	callq	__ZN4core9panicking5panic17hc1bc45270cf64b03E
LBB62_5:
	.loc	44 452 16
	testb	$1, -121(%rbp)
	jne	LBB62_7
	.loc	44 0 16
	movq	-160(%rbp), %rax
	movq	-152(%rbp), %rdx
	movq	-168(%rbp), %rcx
	.loc	44 456 30 is_stmt 1
	imulq	%rdx, %rcx
	movq	%rcx, -48(%rbp)
Ltmp644:
	.loc	44 461 59
	movq	%rcx, -40(%rbp)
	.loc	44 461 71 is_stmt 0
	movq	%rax, -32(%rbp)
Ltmp645:
	.loc	45 97 9 is_stmt 1
	movq	%rax, -96(%rbp)
	movq	-96(%rbp), %rax
	movq	%rax, -24(%rbp)
Ltmp646:
	.loc	44 120 65
	movq	%rax, -16(%rbp)
Ltmp647:
	.loc	45 89 18
	movq	%rax, -8(%rbp)
	movq	-8(%rbp), %rax
Ltmp648:
	.loc	44 120 18
	movq	%rcx, -120(%rbp)
	movq	%rax, -112(%rbp)
Ltmp649:
	.loc	44 461 22
	movq	-120(%rbp), %rcx
	movq	-112(%rbp), %rax
	movq	%rcx, -144(%rbp)
	movq	%rax, -136(%rbp)
Ltmp650:
	.loc	44 462 10
	jmp	LBB62_8
LBB62_7:
	.loc	44 453 24
	movq	$0, -136(%rbp)
LBB62_8:
	.loc	44 462 10
	movq	-144(%rbp), %rax
	movq	-136(%rbp), %rdx
	addq	$176, %rsp
	popq	%rbp
	retq
Ltmp651:
Lfunc_end62:
	.cfi_endproc

	.p2align	4, 0x90
__ZN4core5slice29_$LT$impl$u20$$u5b$T$u5d$$GT$7windows17h0652a93cb95c77dfE:
Lfunc_begin63:
	.loc	32 808 0
	.cfi_startproc
	pushq	%rbp
	.cfi_def_cfa_offset 16
	.cfi_offset %rbp, -16
	movq	%rsp, %rbp
	.cfi_def_cfa_register %rbp
	subq	$144, %rsp
	movq	%rcx, -136(%rbp)
	movq	%rdx, -128(%rbp)
	movq	%rsi, -120(%rbp)
	movq	%rdi, -112(%rbp)
	movq	%rdi, -104(%rbp)
	movq	%rsi, -80(%rbp)
	movq	%rdx, -72(%rbp)
	movq	%rcx, -64(%rbp)
Ltmp652:
	.loc	32 809 38 prologue_end
	movq	%rcx, -56(%rbp)
Ltmp653:
	.file	46 "/rustc/2c8cc343237b8f7d5a3c3703e3a87f2eb2c54a74/library/core/src/num" "nonzero.rs"
	.loc	46 73 24
	cmpq	$0, %rcx
	jne	LBB63_2
	.loc	46 77 25
	movq	$0, -96(%rbp)
	.loc	46 73 21
	jmp	LBB63_3
LBB63_2:
	.loc	46 0 21 is_stmt 0
	movq	-136(%rbp), %rax
	.loc	46 75 39 is_stmt 1
	movq	%rax, -88(%rbp)
	.loc	46 75 25 is_stmt 0
	movq	-88(%rbp), %rax
	movq	%rax, -96(%rbp)
Ltmp654:
LBB63_3:
	.loc	32 809 51 is_stmt 1
	leaq	l___unnamed_24(%rip), %rax
	movq	%rax, -48(%rbp)
	movq	$12, -40(%rbp)
Ltmp655:
	.loc	30 784 15
	movl	$1, %eax
	xorl	%ecx, %ecx
	cmpq	$0, -96(%rbp)
	cmoveq	%rcx, %rax
	.loc	30 784 9 is_stmt 0
	cmpq	$0, %rax
	jne	LBB63_5
	.loc	30 786 21 is_stmt 1
	leaq	l___unnamed_24(%rip), %rdi
	leaq	l___unnamed_25(%rip), %rdx
	movl	$12, %esi
	callq	__ZN4core6option13expect_failed17h5792a81bec0ff713E
LBB63_5:
	.loc	30 0 21 is_stmt 0
	movq	-104(%rbp), %rax
	movq	-112(%rbp), %rcx
	movq	-128(%rbp), %rsi
	movq	-120(%rbp), %rdi
	.loc	30 785 18 is_stmt 1
	movq	-96(%rbp), %rdx
	movq	%rdx, -32(%rbp)
Ltmp656:
	.loc	32 810 22
	movq	%rdi, -24(%rbp)
	movq	%rsi, -16(%rbp)
	.loc	32 810 28 is_stmt 0
	movq	%rdx, -8(%rbp)
Ltmp657:
	.file	47 "/rustc/2c8cc343237b8f7d5a3c3703e3a87f2eb2c54a74/library/core/src/slice" "iter.rs"
	.loc	47 1300 9 is_stmt 1
	movq	%rdi, (%rcx)
	movq	%rsi, 8(%rcx)
	movq	%rdx, 16(%rcx)
Ltmp658:
	.loc	32 811 6
	addq	$144, %rsp
	popq	%rbp
	retq
Ltmp659:
Lfunc_end63:
	.cfi_endproc

	.p2align	4, 0x90
__ZN4core5slice3cmp81_$LT$impl$u20$core..cmp..PartialEq$LT$$u5b$B$u5d$$GT$$u20$for$u20$$u5b$A$u5d$$GT$2eq17h6299848b840bf54dE:
Lfunc_begin64:
	.file	48 "/rustc/2c8cc343237b8f7d5a3c3703e3a87f2eb2c54a74/library/core/src/slice" "cmp.rs"
	.loc	48 25 0
	.cfi_startproc
	pushq	%rbp
	.cfi_def_cfa_offset 16
	.cfi_offset %rbp, -16
	movq	%rsp, %rbp
	.cfi_def_cfa_register %rbp
	subq	$32, %rsp
	movq	%rdi, -32(%rbp)
	movq	%rsi, -24(%rbp)
	movq	%rdx, -16(%rbp)
	movq	%rcx, -8(%rbp)
Ltmp660:
	.loc	48 26 9 prologue_end
	callq	__ZN73_$LT$$u5b$A$u5d$$u20$as$u20$core..slice..cmp..SlicePartialEq$LT$B$GT$$GT$5equal17h2e464d293381b9b8E
	.loc	48 27 6
	andb	$1, %al
	movzbl	%al, %eax
	addq	$32, %rsp
	popq	%rbp
	retq
Ltmp661:
Lfunc_end64:
	.cfi_endproc

	.p2align	4, 0x90
__ZN4core5slice4iter13Iter$LT$T$GT$3new17hec07d39c212b13efE:
Lfunc_begin65:
	.loc	47 82 0
	.cfi_startproc
	pushq	%rbp
	.cfi_def_cfa_offset 16
	.cfi_offset %rbp, -16
	movq	%rsp, %rbp
	.cfi_def_cfa_register %rbp
	subq	$280, %rsp
	movq	%rdi, -280(%rbp)
	movq	%rsi, -272(%rbp)
	movq	%rdi, -208(%rbp)
	movq	%rsi, -200(%rbp)
Ltmp662:
	.loc	47 83 19 prologue_end
	movq	%rdi, -184(%rbp)
	movq	%rsi, -176(%rbp)
Ltmp663:
	.loc	32 477 9
	movq	%rdi, -168(%rbp)
Ltmp664:
	.loc	47 86 21
	movq	%rdi, -160(%rbp)
Ltmp665:
	.loc	3 53 36
	movq	%rdi, -232(%rbp)
	.loc	3 53 18 is_stmt 0
	movq	-232(%rbp), %rax
	movq	%rax, -152(%rbp)
Ltmp666:
	.loc	3 39 13 is_stmt 1
	movq	%rax, -144(%rbp)
Ltmp667:
	.loc	3 209 33
	movq	%rax, -136(%rbp)
	.loc	3 209 18 is_stmt 0
	movq	%rax, -128(%rbp)
Ltmp668:
	.loc	47 89 20 is_stmt 1
	xorl	%eax, %eax
	testb	$1, %al
	jne	LBB65_2
	.loc	47 0 20 is_stmt 0
	movq	-272(%rbp), %rcx
	movq	-280(%rbp), %rax
	.loc	47 89 76
	movq	%rax, -40(%rbp)
	.loc	47 89 84
	movq	%rcx, -32(%rbp)
Ltmp669:
	.loc	3 932 18 is_stmt 1
	movq	%rax, -24(%rbp)
	.loc	3 932 30 is_stmt 0
	movq	%rcx, -16(%rbp)
Ltmp670:
	.loc	3 473 18 is_stmt 1
	addq	%rcx, %rax
	movq	%rax, -248(%rbp)
Ltmp671:
	.loc	47 89 17
	jmp	LBB65_3
LBB65_2:
	.loc	47 0 17 is_stmt 0
	movq	-272(%rbp), %rcx
	movq	-280(%rbp), %rax
	.loc	47 89 32
	movq	%rax, -120(%rbp)
	.loc	47 89 54
	movq	%rcx, -112(%rbp)
Ltmp672:
	.loc	3 1118 9 is_stmt 1
	movq	%rax, -104(%rbp)
Ltmp673:
	.loc	3 61 9
	movq	%rax, -96(%rbp)
Ltmp674:
	.loc	3 1118 40
	movq	%rcx, -88(%rbp)
Ltmp675:
	.loc	3 1100 9
	movq	%rax, -80(%rbp)
	.loc	3 1100 30 is_stmt 0
	movq	%rcx, -72(%rbp)
Ltmp676:
	.loc	3 555 18 is_stmt 1
	addq	%rcx, %rax
	movq	%rax, -64(%rbp)
	movq	-64(%rbp), %rax
	movq	%rax, -56(%rbp)
Ltmp677:
	.loc	3 100 29
	movq	%rax, -48(%rbp)
Ltmp678:
	.loc	5 118 36
	movq	%rax, -216(%rbp)
	.loc	5 118 14 is_stmt 0
	movq	-216(%rbp), %rax
	movq	%rax, -224(%rbp)
	movq	-224(%rbp), %rax
	movq	%rax, -248(%rbp)
Ltmp679:
LBB65_3:
	.loc	5 0 14
	movq	-280(%rbp), %rax
Ltmp680:
	.loc	47 91 48 is_stmt 1
	movq	%rax, -8(%rbp)
Ltmp681:
	.loc	11 201 13
	movq	%rax, -240(%rbp)
Ltmp682:
	.loc	47 91 64
	movq	-248(%rbp), %rax
	.loc	47 91 13 is_stmt 0
	movq	-240(%rbp), %rcx
	movq	%rcx, -256(%rbp)
	movq	%rax, -264(%rbp)
Ltmp683:
	.loc	47 93 6 is_stmt 1
	movq	-264(%rbp), %rax
	movq	-256(%rbp), %rdx
	addq	$280, %rsp
	popq	%rbp
	retq
Ltmp684:
Lfunc_end65:
	.cfi_endproc

	.p2align	4, 0x90
__ZN4core5slice4iter87_$LT$impl$u20$core..iter..traits..collect..IntoIterator$u20$for$u20$$RF$$u5b$T$u5d$$GT$9into_iter17h3b1f6240c873f958E:
Lfunc_begin66:
	.loc	47 23 0
	.cfi_startproc
	pushq	%rbp
	.cfi_def_cfa_offset 16
	.cfi_offset %rbp, -16
	movq	%rsp, %rbp
	.cfi_def_cfa_register %rbp
	subq	$32, %rsp
	movq	%rdi, -32(%rbp)
	movq	%rsi, -24(%rbp)
Ltmp685:
	.loc	47 24 9 prologue_end
	movq	%rdi, -16(%rbp)
	movq	%rsi, -8(%rbp)
Ltmp686:
	.loc	32 742 9
	callq	__ZN4core5slice4iter13Iter$LT$T$GT$3new17hec07d39c212b13efE
Ltmp687:
	.loc	47 25 6
	addq	$32, %rsp
	popq	%rbp
	retq
Ltmp688:
Lfunc_end66:
	.cfi_endproc

	.p2align	4, 0x90
__ZN4core5slice6memchr12memchr_naive17ha7663c9d818b79c2E:
Lfunc_begin67:
	.file	49 "/rustc/2c8cc343237b8f7d5a3c3703e3a87f2eb2c54a74/library/core/src/slice" "memchr.rs"
	.loc	49 48 0
	.cfi_startproc
	pushq	%rbp
	.cfi_def_cfa_offset 16
	.cfi_offset %rbp, -16
	movq	%rsp, %rbp
	.cfi_def_cfa_register %rbp
	subq	$80, %rsp
	movq	%rdx, -72(%rbp)
	movq	%rsi, -64(%rbp)
	movb	%dil, %al
	movb	%al, -49(%rbp)
	movb	%al, -17(%rbp)
	movq	%rsi, -16(%rbp)
	movq	%rdx, -8(%rbp)
Ltmp689:
	.loc	49 49 17 prologue_end
	movq	$0, -32(%rbp)
LBB67_1:
	.loc	49 0 17 is_stmt 0
	movq	-72(%rbp), %rax
Ltmp690:
	.loc	49 52 11 is_stmt 1
	cmpq	%rax, -32(%rbp)
	jb	LBB67_3
	.loc	49 60 5
	movq	$0, -48(%rbp)
Ltmp691:
	.loc	49 61 2
	jmp	LBB67_8
LBB67_3:
	.loc	49 0 2 is_stmt 0
	movq	-72(%rbp), %rcx
Ltmp692:
	.loc	49 53 17 is_stmt 1
	movq	-32(%rbp), %rax
	movq	%rax, -80(%rbp)
	.loc	49 53 12 is_stmt 0
	cmpq	%rcx, %rax
	setb	%al
	testb	$1, %al
	jne	LBB67_4
	jmp	LBB67_5
LBB67_4:
	.loc	49 0 12
	movq	-64(%rbp), %rax
	movq	-80(%rbp), %rcx
	movb	-49(%rbp), %dl
	.loc	49 53 12
	cmpb	%dl, (%rax,%rcx)
	je	LBB67_7
	jmp	LBB67_6
LBB67_5:
	.loc	49 0 12
	movq	-72(%rbp), %rsi
	movq	-80(%rbp), %rdi
	.loc	49 53 12
	leaq	l___unnamed_26(%rip), %rdx
	callq	__ZN4core9panicking18panic_bounds_check17hacb8a94866cda541E
LBB67_6:
	.loc	49 57 9 is_stmt 1
	movq	-32(%rbp), %rax
	addq	$1, %rax
	movq	%rax, -32(%rbp)
	.loc	49 52 5
	jmp	LBB67_1
LBB67_7:
	.loc	49 54 25
	movq	-32(%rbp), %rax
	.loc	49 54 20 is_stmt 0
	movq	%rax, -40(%rbp)
	movq	$1, -48(%rbp)
Ltmp693:
LBB67_8:
	.loc	49 61 2 is_stmt 1
	movq	-48(%rbp), %rax
	movq	-40(%rbp), %rdx
	addq	$80, %rsp
	popq	%rbp
	retq
Ltmp694:
Lfunc_end67:
	.cfi_endproc

	.p2align	4, 0x90
__ZN4core5slice6memchr6memchr17h17a6a398d46149d7E:
Lfunc_begin68:
	.loc	49 38 0
	.cfi_startproc
	pushq	%rbp
	.cfi_def_cfa_offset 16
	.cfi_offset %rbp, -16
	movq	%rsp, %rbp
	.cfi_def_cfa_register %rbp
	subq	$64, %rsp
	movq	%rdx, -64(%rbp)
	movq	%rsi, -56(%rbp)
	movb	%dil, %al
	movb	%al, -41(%rbp)
	movb	%al, -17(%rbp)
	movq	%rsi, -16(%rbp)
	movq	%rdx, -8(%rbp)
Ltmp695:
	.loc	49 40 8 prologue_end
	cmpq	$16, %rdx
	jb	LBB68_2
	.loc	49 0 8 is_stmt 0
	movq	-64(%rbp), %rdx
	movq	-56(%rbp), %rsi
	movb	-41(%rbp), %al
	.loc	49 44 5 is_stmt 1
	movzbl	%al, %edi
	callq	__ZN4core5slice6memchr14memchr_aligned17h35d16807f0081d88E
	movq	%rdx, -32(%rbp)
	movq	%rax, -40(%rbp)
	.loc	49 45 2
	jmp	LBB68_3
LBB68_2:
	.loc	49 0 2 is_stmt 0
	movq	-64(%rbp), %rdx
	movq	-56(%rbp), %rsi
	movb	-41(%rbp), %al
	.loc	49 41 16 is_stmt 1
	movzbl	%al, %edi
	callq	__ZN4core5slice6memchr12memchr_naive17ha7663c9d818b79c2E
	movq	%rdx, -32(%rbp)
	movq	%rax, -40(%rbp)
LBB68_3:
	.loc	49 45 2
	movq	-40(%rbp), %rax
	movq	-32(%rbp), %rdx
	addq	$64, %rsp
	popq	%rbp
	retq
Ltmp696:
Lfunc_end68:
	.cfi_endproc

	.p2align	4, 0x90
__ZN4core6option15Option$LT$T$GT$16unwrap_unchecked17h0e6fa5ad7e17f2d2E:
Lfunc_begin69:
	.loc	30 933 0
	.cfi_startproc
	.cfi_personality 155, _rust_eh_personality
	.cfi_lsda 16, Lexception11
	pushq	%rbp
	.cfi_def_cfa_offset 16
	.cfi_offset %rbp, -16
	movq	%rsp, %rbp
	.cfi_def_cfa_register %rbp
	subq	$32, %rsp
	movq	%rdi, -32(%rbp)
Ltmp700:
	.loc	30 935 15 prologue_end
	movq	-32(%rbp), %rdx
	movl	$1, %eax
	xorl	%ecx, %ecx
	cmpq	$0, %rdx
	cmoveq	%rcx, %rax
	.loc	30 935 9 is_stmt 0
	cmpq	$0, %rax
	jne	LBB69_2
Ltmp697:
	.loc	30 938 30 is_stmt 1
	callq	__ZN4core4hint21unreachable_unchecked17he0ba51bc6b30f0b2E
Ltmp698:
	jmp	LBB69_5
LBB69_2:
	.loc	30 936 18
	movq	-32(%rbp), %rax
	movq	%rax, -24(%rbp)
	.loc	30 940 6
	addq	$32, %rsp
	popq	%rbp
	retq
LBB69_3:
	.loc	30 940 5 is_stmt 0
	movq	-32(%rbp), %rdx
	movl	$1, %eax
	xorl	%ecx, %ecx
	cmpq	$0, %rdx
	cmoveq	%rcx, %rax
	cmpq	$1, %rax
	je	LBB69_6
	jmp	LBB69_7
LBB69_4:
Ltmp699:
	.loc	30 0 5
	movq	%rax, %rcx
	movl	%edx, %eax
	movq	%rcx, -16(%rbp)
	movl	%eax, -8(%rbp)
	jmp	LBB69_3
LBB69_5:
	ud2
LBB69_6:
	.loc	30 940 5
	movb	$1, %al
	testb	$1, %al
	jne	LBB69_8
	jmp	LBB69_7
LBB69_7:
	.loc	30 933 5 is_stmt 1
	movq	-16(%rbp), %rdi
	callq	__Unwind_Resume
LBB69_8:
	.loc	30 940 5
	jmp	LBB69_7
Ltmp701:
Lfunc_end69:
	.cfi_endproc
	.section	__TEXT,__gcc_except_tab
	.p2align	2
GCC_except_table69:
Lexception11:
	.byte	255
	.byte	255
	.byte	1
	.uleb128 Lcst_end11-Lcst_begin11
Lcst_begin11:
	.uleb128 Ltmp697-Lfunc_begin69
	.uleb128 Ltmp698-Ltmp697
	.uleb128 Ltmp699-Lfunc_begin69
	.byte	0
	.uleb128 Ltmp698-Lfunc_begin69
	.uleb128 Lfunc_end69-Ltmp698
	.byte	0
	.byte	0
Lcst_end11:
	.p2align	2

	.section	__TEXT,__text,regular,pure_instructions
	.p2align	4, 0x90
__ZN4core6option15Option$LT$T$GT$3map17hea620a88874793a7E:
Lfunc_begin70:
	.loc	30 964 0
	.cfi_startproc
	pushq	%rbp
	.cfi_def_cfa_offset 16
	.cfi_offset %rbp, -16
	movq	%rsp, %rbp
	.cfi_def_cfa_register %rbp
	subq	$32, %rsp
	movl	%edi, -32(%rbp)
	movl	%esi, -28(%rbp)
Ltmp702:
	.loc	30 969 15 prologue_end
	movb	$1, -9(%rbp)
	movl	-32(%rbp), %eax
	.loc	30 969 9 is_stmt 0
	cmpq	$0, %rax
	jne	LBB70_2
	.loc	30 971 21 is_stmt 1
	movl	$1114112, -20(%rbp)
	jmp	LBB70_3
LBB70_2:
	.loc	30 970 18
	movl	-28(%rbp), %eax
	movl	%eax, -4(%rbp)
Ltmp703:
	.loc	30 970 29 is_stmt 0
	movb	$0, -9(%rbp)
	movl	%eax, -16(%rbp)
	movl	-16(%rbp), %edi
	callq	__ZN81_$LT$core..str..iter..Chars$u20$as$u20$core..iter..traits..iterator..Iterator$GT$4next28_$u7b$$u7b$closure$u7d$$u7d$17h8a8a5b3bad291f91E
	.loc	30 970 24
	movl	%eax, -20(%rbp)
Ltmp704:
LBB70_3:
	.loc	30 973 5 is_stmt 1
	testb	$1, -9(%rbp)
	jne	LBB70_5
LBB70_4:
	.loc	30 973 6 is_stmt 0
	movl	-20(%rbp), %eax
	addq	$32, %rsp
	popq	%rbp
	retq
LBB70_5:
	.loc	30 973 5
	jmp	LBB70_4
Ltmp705:
Lfunc_end70:
	.cfi_endproc

	.p2align	4, 0x90
__ZN4core6result19Result$LT$T$C$E$GT$16unwrap_unchecked17ha5c33824ea63b3faE:
Lfunc_begin71:
	.file	50 "/rustc/2c8cc343237b8f7d5a3c3703e3a87f2eb2c54a74/library/core/src" "result.rs"
	.loc	50 1530 0 is_stmt 1
	.cfi_startproc
	.cfi_personality 155, _rust_eh_personality
	.cfi_lsda 16, Lexception12
	pushq	%rbp
	.cfi_def_cfa_offset 16
	.cfi_offset %rbp, -16
	movq	%rsp, %rbp
	.cfi_def_cfa_register %rbp
	subq	$64, %rsp
	movq	%rdi, -48(%rbp)
	movq	%rsi, -40(%rbp)
Ltmp709:
	.loc	50 1532 15 prologue_end
	xorl	%eax, %eax
	movl	$1, %ecx
	cmpq	$0, -40(%rbp)
	cmoveq	%rcx, %rax
	.loc	50 1532 9 is_stmt 0
	cmpq	$0, %rax
	jne	LBB71_2
	.loc	50 1533 16 is_stmt 1
	movq	-48(%rbp), %rcx
	movq	%rcx, -64(%rbp)
	movq	-40(%rbp), %rax
	movq	%rax, -56(%rbp)
	movq	%rcx, -16(%rbp)
	movq	%rax, -8(%rbp)
	.loc	50 1537 5
	xorl	%eax, %eax
	movl	$1, %ecx
	cmpq	$0, -40(%rbp)
	cmoveq	%rcx, %rax
	cmpq	$0, %rax
	je	LBB71_10
	jmp	LBB71_11
LBB71_2:
Ltmp706:
	.loc	50 1535 32
	callq	__ZN4core4hint21unreachable_unchecked17he0ba51bc6b30f0b2E
Ltmp707:
	jmp	LBB71_5
LBB71_3:
	.loc	50 1537 5
	xorl	%eax, %eax
	movl	$1, %ecx
	cmpq	$0, -40(%rbp)
	cmoveq	%rcx, %rax
	cmpq	$0, %rax
	je	LBB71_6
	jmp	LBB71_7
LBB71_4:
Ltmp708:
	.loc	50 0 5 is_stmt 0
	movq	%rax, %rcx
	movl	%edx, %eax
	movq	%rcx, -32(%rbp)
	movl	%eax, -24(%rbp)
	jmp	LBB71_3
LBB71_5:
	ud2
LBB71_6:
	.loc	50 1537 5
	movb	$1, %al
	testb	$1, %al
	jne	LBB71_9
	jmp	LBB71_8
LBB71_7:
	jmp	LBB71_8
LBB71_8:
	.loc	50 1530 5 is_stmt 1
	movq	-32(%rbp), %rdi
	callq	__Unwind_Resume
LBB71_9:
	.loc	50 1537 5
	jmp	LBB71_8
LBB71_10:
	.loc	50 0 5 is_stmt 0
	movq	-56(%rbp), %rdx
	movq	-64(%rbp), %rax
	.loc	50 1537 6
	addq	$64, %rsp
	popq	%rbp
	retq
LBB71_11:
	.loc	50 1537 5
	jmp	LBB71_10
Ltmp710:
Lfunc_end71:
	.cfi_endproc
	.section	__TEXT,__gcc_except_tab
	.p2align	2
GCC_except_table71:
Lexception12:
	.byte	255
	.byte	255
	.byte	1
	.uleb128 Lcst_end12-Lcst_begin12
Lcst_begin12:
	.uleb128 Ltmp706-Lfunc_begin71
	.uleb128 Ltmp707-Ltmp706
	.uleb128 Ltmp708-Lfunc_begin71
	.byte	0
	.uleb128 Ltmp707-Lfunc_begin71
	.uleb128 Lfunc_end71-Ltmp707
	.byte	0
	.byte	0
Lcst_end12:
	.p2align	2

	.section	__TEXT,__text,regular,pure_instructions
	.p2align	4, 0x90
__ZN4core6result19Result$LT$T$C$E$GT$6unwrap17h51d030231569055cE:
Lfunc_begin72:
	.loc	50 1106 0 is_stmt 1
	.cfi_startproc
	.cfi_personality 155, _rust_eh_personality
	.cfi_lsda 16, Lexception13
	pushq	%rbp
	.cfi_def_cfa_offset 16
	.cfi_offset %rbp, -16
	movq	%rsp, %rbp
	.cfi_def_cfa_register %rbp
	subq	$80, %rsp
	movq	%rdx, -72(%rbp)
	movq	%rsi, -64(%rbp)
Ltmp717:
	movq	%rdi, -56(%rbp)
Ltmp718:
	movq	%rdi, -48(%rbp)
Ltmp719:
	.loc	50 1110 9 prologue_end
	cmpq	$0, (%rsi)
Ltmp720:
	jne	LBB72_2
Ltmp721:
	.loc	50 0 9 is_stmt 0
	movq	-48(%rbp), %rax
	movq	-56(%rbp), %rcx
	movq	-64(%rbp), %rdx
	.loc	50 1111 16 is_stmt 1
	movq	8(%rdx), %rsi
	movq	%rsi, (%rcx)
	movq	16(%rdx), %rsi
	movq	%rsi, 8(%rcx)
	movq	24(%rdx), %rdx
	movq	%rdx, 16(%rcx)
	.loc	50 1114 6
	addq	$80, %rsp
	popq	%rbp
	retq
Ltmp722:
LBB72_2:
	.loc	50 0 6 is_stmt 0
	movq	-72(%rbp), %r8
	movq	-64(%rbp), %rcx
	.loc	50 1112 17 is_stmt 1
	movq	24(%rcx), %rax
	movq	%rax, -24(%rbp)
	movq	8(%rcx), %rax
	movq	16(%rcx), %rcx
	movq	%rcx, -32(%rbp)
	movq	%rax, -40(%rbp)
Ltmp711:
Ltmp723:
	.loc	50 1112 23 is_stmt 0
	leaq	l___unnamed_27(%rip), %rdi
	leaq	l___unnamed_2(%rip), %rcx
	movl	$43, %esi
	leaq	-40(%rbp), %rdx
	callq	__ZN4core6result13unwrap_failed17h533573e6d3b6061cE
Ltmp712:
	jmp	LBB72_5
Ltmp724:
LBB72_3:
Ltmp714:
	.loc	50 0 23
	leaq	-40(%rbp), %rdi
	.loc	50 1112 86
	callq	__ZN4core3ptr39drop_in_place$LT$std..env..VarError$GT$17h8f2e936d7749f4feE
Ltmp715:
	jmp	LBB72_7
Ltmp725:
LBB72_4:
Ltmp713:
	.loc	50 0 86
	movq	%rax, %rcx
	movl	%edx, %eax
	movq	%rcx, -16(%rbp)
	movl	%eax, -8(%rbp)
	jmp	LBB72_3
Ltmp726:
LBB72_5:
	ud2
Ltmp727:
LBB72_6:
Ltmp716:
	.loc	50 1106 5 is_stmt 1
	callq	__ZN4core9panicking19panic_cannot_unwind17h1fbca7e1d7f56ae1E
Ltmp728:
LBB72_7:
	movq	-16(%rbp), %rdi
	callq	__Unwind_Resume
Ltmp729:
Lfunc_end72:
	.cfi_endproc
	.section	__TEXT,__gcc_except_tab
	.p2align	2
GCC_except_table72:
Lexception13:
	.byte	255
	.byte	255
	.byte	1
	.uleb128 Lcst_end13-Lcst_begin13
Lcst_begin13:
	.uleb128 Ltmp711-Lfunc_begin72
	.uleb128 Ltmp712-Ltmp711
	.uleb128 Ltmp713-Lfunc_begin72
	.byte	0
	.uleb128 Ltmp714-Lfunc_begin72
	.uleb128 Ltmp715-Ltmp714
	.uleb128 Ltmp716-Lfunc_begin72
	.byte	0
	.uleb128 Ltmp715-Lfunc_begin72
	.uleb128 Lfunc_end72-Ltmp715
	.byte	0
	.byte	0
Lcst_end13:
	.p2align	2

	.section	__TEXT,__text,regular,pure_instructions
	.p2align	4, 0x90
__ZN4core9core_simd6vector17Simd$LT$T$C$_$GT$5splat17h4f87c9c61901e30dE:
Lfunc_begin73:
	.loc	10 127 0
	.cfi_startproc
	pushq	%rbp
	.cfi_def_cfa_offset 16
	.cfi_offset %rbp, -16
	movq	%rsp, %rbp
	.cfi_def_cfa_register %rbp
	subq	$32, %rsp
	movq	%rdi, -24(%rbp)
	movb	%sil, %al
	movq	%rdi, -16(%rbp)
	movb	%al, -3(%rbp)
Ltmp730:
	.loc	10 134 43 prologue_end
	movb	%al, -4(%rbp)
	.loc	10 134 24 is_stmt 0
	movzbl	-4(%rbp), %esi
	leaq	-2(%rbp), %rdi
	callq	__ZN116_$LT$core..core_simd..vector..Simd$LT$T$C$_$GT$$u20$as$u20$core..convert..From$LT$$u5b$T$u3b$$u20$LANES$u5d$$GT$$GT$4from17h4118c20719de8523E
	movq	-24(%rbp), %rdi
	movq	-16(%rbp), %rax
Ltmp731:
	.file	51 "/rustc/2c8cc343237b8f7d5a3c3703e3a87f2eb2c54a74/library/core/src/../../portable-simd/crates/core_simd/src" "swizzle.rs"
	.loc	51 101 18 is_stmt 1
	movzbl	-2(%rbp), %ecx
Ltmp732:
	.loc	10 134 24
	movb	%cl, %dl
	movb	%dl, -1(%rbp)
Ltmp733:
	.loc	51 101 18
	movd	%ecx, %xmm0
	xorps	%xmm1, %xmm1
	pshufb	%xmm1, %xmm0
	movdqa	%xmm0, (%rdi)
Ltmp734:
	.loc	10 135 6
	addq	$32, %rsp
	popq	%rbp
	retq
Ltmp735:
Lfunc_end73:
	.cfi_endproc

	.p2align	4, 0x90
__ZN50_$LT$T$u20$as$u20$core..convert..Into$LT$U$GT$$GT$4into17hca5655efff74255fE:
Lfunc_begin74:
	.file	52 "/rustc/2c8cc343237b8f7d5a3c3703e3a87f2eb2c54a74/library/core/src/convert" "mod.rs"
	.loc	52 725 0
	.cfi_startproc
	pushq	%rbp
	.cfi_def_cfa_offset 16
	.cfi_offset %rbp, -16
	movq	%rsp, %rbp
	.cfi_def_cfa_register %rbp
	subq	$16, %rsp
	movq	%rdi, -8(%rbp)
Ltmp736:
	.loc	52 726 9 prologue_end
	callq	__ZN119_$LT$core..ptr..non_null..NonNull$LT$T$GT$$u20$as$u20$core..convert..From$LT$core..ptr..unique..Unique$LT$T$GT$$GT$$GT$4from17hb477dcc1bab5299aE
	.loc	52 727 6
	addq	$16, %rsp
	popq	%rbp
	retq
Ltmp737:
Lfunc_end74:
	.cfi_endproc

	.p2align	4, 0x90
__ZN54_$LT$$LP$$RP$$u20$as$u20$std..process..Termination$GT$6report17h8497c489d52c6bd8E:
Lfunc_begin75:
	.loc	16 2182 0
	.cfi_startproc
	pushq	%rbp
	.cfi_def_cfa_offset 16
	.cfi_offset %rbp, -16
	movq	%rsp, %rbp
	.cfi_def_cfa_register %rbp
	pushq	%rax
Ltmp738:
	.loc	16 2184 6 prologue_end
	xorl	%eax, %eax
	addq	$8, %rsp
	popq	%rbp
	retq
Ltmp739:
Lfunc_end75:
	.cfi_endproc

	.p2align	4, 0x90
__ZN55_$LT$$RF$T$u20$as$u20$core..convert..AsRef$LT$U$GT$$GT$6as_ref17h3f14fc4431126014E:
Lfunc_begin76:
	.loc	52 667 0
	.cfi_startproc
	pushq	%rbp
	.cfi_def_cfa_offset 16
	.cfi_offset %rbp, -16
	movq	%rsp, %rbp
	.cfi_def_cfa_register %rbp
	subq	$16, %rsp
	movq	%rdi, %rax
	movq	%rax, -8(%rbp)
Ltmp740:
	.loc	52 668 33 prologue_end
	movq	(%rax), %rdi
	movq	8(%rax), %rsi
	.loc	52 668 9 is_stmt 0
	callq	__ZN3std3ffi6os_str85_$LT$impl$u20$core..convert..AsRef$LT$std..ffi..os_str..OsStr$GT$$u20$for$u20$str$GT$6as_ref17h86e3d376aada3eb0E
	.loc	52 669 6 is_stmt 1
	addq	$16, %rsp
	popq	%rbp
	retq
Ltmp741:
Lfunc_end76:
	.cfi_endproc

	.p2align	4, 0x90
__ZN55_$LT$$RF$str$u20$as$u20$core..str..pattern..Pattern$GT$15is_contained_in17h55516c0fce23dd69E:
Lfunc_begin77:
	.loc	35 952 0
	.cfi_startproc
	pushq	%rbp
	.cfi_def_cfa_offset 16
	.cfi_offset %rbp, -16
	movq	%rsp, %rbp
	.cfi_def_cfa_register %rbp
	subq	$688, %rsp
	movq	%rdi, -648(%rbp)
	movq	%rsi, -640(%rbp)
	movq	%rdx, -632(%rbp)
	movq	%rcx, -624(%rbp)
Ltmp742:
	.loc	35 953 12 prologue_end
	movq	-648(%rbp), %rcx
	movq	-640(%rbp), %rax
	movq	%rcx, -440(%rbp)
	movq	%rax, -432(%rbp)
Ltmp743:
	.loc	21 160 9
	movq	%rcx, -424(%rbp)
	movq	%rax, -416(%rbp)
Ltmp744:
	.loc	21 327 18
	movq	%rcx, -408(%rbp)
	movq	%rax, -400(%rbp)
Ltmp745:
	.loc	35 953 12
	cmpq	$0, -400(%rbp)
	jne	LBB77_2
	.loc	35 954 20
	movb	$1, -610(%rbp)
	.loc	31 1 1
	jmp	LBB77_22
LBB77_2:
	.loc	35 957 15
	movq	-648(%rbp), %rcx
	movq	-640(%rbp), %rax
	movq	%rcx, -392(%rbp)
	movq	%rax, -384(%rbp)
Ltmp746:
	.loc	21 160 9
	movq	%rcx, -376(%rbp)
	movq	%rax, -368(%rbp)
Ltmp747:
	.loc	21 327 18
	movq	%rcx, -360(%rbp)
	movq	%rax, -352(%rbp)
	movq	-352(%rbp), %rax
Ltmp748:
	.loc	21 160 9
	movq	%rax, -608(%rbp)
Ltmp749:
	.loc	35 957 15
	leaq	-608(%rbp), %rax
	movq	%rax, -344(%rbp)
	.loc	35 957 31 is_stmt 0
	movq	-632(%rbp), %rcx
	movq	-624(%rbp), %rax
	movq	%rcx, -336(%rbp)
	movq	%rax, -328(%rbp)
Ltmp750:
	.loc	21 160 9 is_stmt 1
	movq	%rcx, -320(%rbp)
	movq	%rax, -312(%rbp)
Ltmp751:
	.loc	21 327 18
	movq	%rcx, -304(%rbp)
	movq	%rax, -296(%rbp)
	movq	-296(%rbp), %rax
Ltmp752:
	.loc	21 160 9
	movq	%rax, -600(%rbp)
Ltmp753:
	.loc	35 957 30
	leaq	-600(%rbp), %rax
	movq	%rax, -288(%rbp)
Ltmp754:
	.loc	7 1457 24
	movq	-608(%rbp), %rax
	cmpq	-600(%rbp), %rax
	jb	LBB77_4
	.loc	7 1458 29
	movq	-608(%rbp), %rax
	cmpq	-600(%rbp), %rax
	je	LBB77_7
	jmp	LBB77_6
LBB77_4:
	.loc	7 1457 41
	movb	$-1, -609(%rbp)
Ltmp755:
LBB77_5:
	.loc	35 957 9
	cmpb	$-1, -609(%rbp)
	je	LBB77_9
	jmp	LBB77_10
LBB77_6:
Ltmp756:
	.loc	7 1459 28
	movb	$1, -609(%rbp)
	.loc	7 1458 26
	jmp	LBB77_8
LBB77_7:
	.loc	7 1458 47 is_stmt 0
	movb	$0, -609(%rbp)
LBB77_8:
	.loc	7 1457 21 is_stmt 1
	jmp	LBB77_5
Ltmp757:
LBB77_9:
	.loc	35 959 20
	movq	-648(%rbp), %rcx
	movq	-640(%rbp), %rax
	movq	%rcx, -264(%rbp)
	movq	%rax, -256(%rbp)
Ltmp758:
	.loc	21 160 9
	movq	%rcx, -248(%rbp)
	movq	%rax, -240(%rbp)
Ltmp759:
	.loc	21 327 18
	movq	%rcx, -232(%rbp)
	movq	%rax, -224(%rbp)
Ltmp760:
	.loc	35 959 20
	cmpq	$1, -224(%rbp)
	je	LBB77_12
	jmp	LBB77_13
LBB77_10:
	.loc	35 972 18
	leaq	-648(%rbp), %rax
	movq	%rax, -280(%rbp)
	.loc	35 972 26 is_stmt 0
	leaq	-632(%rbp), %rax
	movq	%rax, -272(%rbp)
Ltmp761:
	.loc	7 1531 27 is_stmt 1
	movq	-648(%rbp), %rdi
	movq	-640(%rbp), %rsi
	.loc	7 1531 34 is_stmt 0
	movq	-632(%rbp), %rdx
	movq	-624(%rbp), %rcx
	.loc	7 1531 13
	callq	__ZN4core3str6traits54_$LT$impl$u20$core..cmp..PartialEq$u20$for$u20$str$GT$2eq17hda1a6f8af97842a1E
	andb	$1, %al
	movb	%al, -610(%rbp)
Ltmp762:
LBB77_11:
	.loc	35 974 6 is_stmt 1
	jmp	LBB77_22
LBB77_12:
	.loc	35 960 28
	movq	-632(%rbp), %rcx
	movq	-624(%rbp), %rax
	movq	%rcx, -120(%rbp)
	movq	%rax, -112(%rbp)
Ltmp763:
	.loc	21 327 18
	movq	%rcx, -104(%rbp)
	movq	%rax, -96(%rbp)
	movq	-104(%rbp), %rcx
	movq	%rcx, -680(%rbp)
	movq	-96(%rbp), %rax
	movq	%rax, -672(%rbp)
Ltmp764:
	.loc	35 960 28
	movq	%rcx, -88(%rbp)
	movq	%rax, -80(%rbp)
	.loc	35 960 58 is_stmt 0
	movq	-648(%rbp), %rcx
	movq	-640(%rbp), %rax
	movq	%rcx, -72(%rbp)
	movq	%rax, -64(%rbp)
Ltmp765:
	.loc	21 327 18 is_stmt 1
	movq	%rcx, -56(%rbp)
	movq	%rax, -48(%rbp)
	movq	-56(%rbp), %rax
	movq	%rax, -664(%rbp)
	movq	-48(%rbp), %rcx
	movq	%rcx, -656(%rbp)
Ltmp766:
	.loc	35 960 58
	xorl	%eax, %eax
	cmpq	%rcx, %rax
	setb	%al
	testb	$1, %al
	jne	LBB77_23
	jmp	LBB77_24
LBB77_13:
	.loc	35 964 20
	movq	-648(%rbp), %rcx
	movq	-640(%rbp), %rax
	movq	%rcx, -216(%rbp)
	movq	%rax, -208(%rbp)
Ltmp767:
	.loc	21 160 9
	movq	%rcx, -200(%rbp)
	movq	%rax, -192(%rbp)
Ltmp768:
	.loc	21 327 18
	movq	%rcx, -184(%rbp)
	movq	%rax, -176(%rbp)
Ltmp769:
	.loc	35 964 20
	cmpq	$32, -176(%rbp)
	jbe	LBB77_15
LBB77_14:
	.loc	35 970 17
	movq	-648(%rbp), %rcx
	movq	-640(%rbp), %r8
	movq	%rcx, -160(%rbp)
	movq	%r8, -152(%rbp)
	.loc	35 970 36 is_stmt 0
	movq	-632(%rbp), %rsi
	movq	-624(%rbp), %rdx
	movq	%rsi, -144(%rbp)
	movq	%rdx, -136(%rbp)
Ltmp770:
	.loc	35 941 9 is_stmt 1
	leaq	-560(%rbp), %rdi
	callq	__ZN4core3str7pattern11StrSearcher3new17hc12e66730a7a2525E
Ltmp771:
	.loc	35 970 17
	leaq	-584(%rbp), %rdi
	leaq	-560(%rbp), %rsi
	callq	__ZN80_$LT$core..str..pattern..StrSearcher$u20$as$u20$core..str..pattern..Searcher$GT$10next_match17h91549cfb12bafa03E
	leaq	-584(%rbp), %rax
	movq	%rax, -128(%rbp)
Ltmp772:
	.file	53 "/rustc/2c8cc343237b8f7d5a3c3703e3a87f2eb2c54a74/library/core/src/macros" "mod.rs"
	.loc	53 344 9
	cmpq	$1, -584(%rbp)
	je	LBB77_19
	jmp	LBB77_20
Ltmp773:
LBB77_15:
	.loc	35 965 57
	movq	-648(%rbp), %rdi
	movq	-640(%rbp), %rsi
	.loc	35 965 63 is_stmt 0
	movq	-632(%rbp), %rdx
	movq	-624(%rbp), %rcx
	.loc	35 965 43
	callq	__ZN4core3str7pattern13simd_contains17h43271ae1cbde0495E
	movb	%al, -585(%rbp)
	.loc	35 965 28
	movl	$1, %eax
	xorl	%ecx, %ecx
	cmpb	$2, -585(%rbp)
	cmoveq	%rcx, %rax
	cmpq	$1, %rax
	jne	LBB77_17
	.loc	35 965 33
	movb	-585(%rbp), %al
	movb	%al, %cl
	andb	$1, %cl
	movb	%cl, -161(%rbp)
	.loc	35 966 32 is_stmt 1
	andb	$1, %al
	movb	%al, -610(%rbp)
Ltmp774:
	.loc	31 1 1
	jmp	LBB77_18
LBB77_17:
	.loc	35 964 17
	jmp	LBB77_14
LBB77_18:
	.loc	31 1 1
	jmp	LBB77_22
LBB77_19:
Ltmp775:
	.loc	53 345 48
	movb	$1, -610(%rbp)
	jmp	LBB77_21
LBB77_20:
	.loc	53 346 18
	movb	$0, -610(%rbp)
Ltmp776:
LBB77_21:
	.loc	35 971 13
	jmp	LBB77_11
LBB77_22:
	.loc	35 974 6
	movb	-610(%rbp), %al
	andb	$1, %al
	movzbl	%al, %eax
	addq	$688, %rsp
	popq	%rbp
	retq
LBB77_23:
	.loc	35 0 6 is_stmt 0
	movq	-672(%rbp), %rdx
	movq	-680(%rbp), %rsi
	movq	-664(%rbp), %rax
	.loc	35 960 57 is_stmt 1
	movq	%rax, -40(%rbp)
Ltmp777:
	.loc	32 2232 44
	movq	%rax, -32(%rbp)
	.loc	32 2232 47 is_stmt 0
	movq	%rsi, -24(%rbp)
	movq	%rdx, -16(%rbp)
Ltmp778:
	.loc	48 245 9 is_stmt 1
	movzbl	(%rax), %edi
	callq	__ZN4core5slice6memchr6memchr17h17a6a398d46149d7E
	movq	%rdx, -448(%rbp)
	movq	%rax, -456(%rbp)
	leaq	-456(%rbp), %rax
	movq	%rax, -8(%rbp)
Ltmp779:
	.loc	53 344 9
	cmpq	$1, -456(%rbp)
	je	LBB77_25
	jmp	LBB77_26
Ltmp780:
LBB77_24:
	.loc	53 0 9 is_stmt 0
	movq	-656(%rbp), %rsi
	.loc	35 960 58 is_stmt 1
	leaq	l___unnamed_28(%rip), %rdx
	xorl	%eax, %eax
	movl	%eax, %edi
	callq	__ZN4core9panicking18panic_bounds_check17hacb8a94866cda541E
LBB77_25:
Ltmp781:
	.loc	53 345 48
	movb	$1, -610(%rbp)
	jmp	LBB77_27
LBB77_26:
	.loc	53 346 18
	movb	$0, -610(%rbp)
Ltmp782:
LBB77_27:
	.loc	31 1 1
	jmp	LBB77_18
Ltmp783:
Lfunc_end77:
	.cfi_endproc

	.p2align	4, 0x90
__ZN5alloc7raw_vec19RawVec$LT$T$C$A$GT$14current_memory17hf477b653d823d435E:
Lfunc_begin78:
	.file	54 "/rustc/2c8cc343237b8f7d5a3c3703e3a87f2eb2c54a74/library/alloc/src" "raw_vec.rs"
	.loc	54 240 0
	.cfi_startproc
	pushq	%rbp
	.cfi_def_cfa_offset 16
	.cfi_offset %rbp, -16
	movq	%rsp, %rbp
	.cfi_def_cfa_register %rbp
	subq	$176, %rsp
	movq	%rsi, -152(%rbp)
	movq	%rdi, -144(%rbp)
	movq	%rdi, -136(%rbp)
	movq	%rsi, -80(%rbp)
Ltmp784:
	.loc	54 241 12 prologue_end
	xorl	%eax, %eax
	testb	$1, %al
	jne	LBB78_2
	.loc	54 0 12 is_stmt 0
	movq	-152(%rbp), %rax
	.loc	54 241 25
	cmpq	$0, (%rax)
	sete	%al
	.loc	54 241 12
	andb	$1, %al
	movb	%al, -121(%rbp)
	jmp	LBB78_3
LBB78_2:
	movb	$1, -121(%rbp)
LBB78_3:
	testb	$1, -121(%rbp)
	jne	LBB78_5
	.loc	54 0 12
	movq	-152(%rbp), %rax
	.loc	54 247 49 is_stmt 1
	movq	(%rax), %rdx
	movq	%rdx, -72(%rbp)
Ltmp785:
	.loc	25 459 5
	movq	$1, -64(%rbp)
Ltmp786:
	.loc	45 89 18
	movq	$1, -56(%rbp)
	movq	-56(%rbp), %rsi
Ltmp787:
	.loc	44 438 16
	movl	$1, %edi
	callq	__ZN4core5alloc6layout6Layout5array5inner17hd914df0da7796346E
	movq	%rax, %rdi
	movq	%rdx, %rsi
Ltmp788:
	.loc	54 247 30
	leaq	l___unnamed_29(%rip), %rdx
	callq	__ZN4core6result19Result$LT$T$C$E$GT$16unwrap_unchecked17ha5c33824ea63b3faE
	movq	%rax, %rcx
	movq	-152(%rbp), %rax
	movq	%rcx, -168(%rbp)
	movq	%rdx, -160(%rbp)
	movq	%rcx, -48(%rbp)
	movq	%rdx, -40(%rbp)
Ltmp789:
	.loc	54 248 23
	movq	8(%rax), %rax
	movq	%rax, -32(%rbp)
Ltmp790:
	.loc	12 137 22
	movq	%rax, -24(%rbp)
Ltmp791:
	.loc	11 450 41
	movq	%rax, -16(%rbp)
	movq	%rax, -8(%rbp)
Ltmp792:
	.loc	11 201 13
	movq	%rax, -88(%rbp)
Ltmp793:
	.loc	12 191 18
	movq	-88(%rbp), %rax
	.loc	12 191 9 is_stmt 0
	movq	%rax, -96(%rbp)
Ltmp794:
	.loc	54 248 23 is_stmt 1
	movq	-96(%rbp), %rdi
	callq	__ZN50_$LT$T$u20$as$u20$core..convert..Into$LT$U$GT$$GT$4into17hca5655efff74255fE
	movq	-168(%rbp), %rcx
	movq	-160(%rbp), %rdx
	movq	%rax, %rsi
	movq	-144(%rbp), %rax
	.loc	54 248 22 is_stmt 0
	movq	%rsi, -120(%rbp)
	movq	%rcx, -112(%rbp)
	movq	%rdx, -104(%rbp)
	.loc	54 248 17
	movq	-120(%rbp), %rcx
	movq	%rcx, (%rax)
	movq	-112(%rbp), %rcx
	movq	%rcx, 8(%rax)
	movq	-104(%rbp), %rcx
	movq	%rcx, 16(%rax)
Ltmp795:
	.loc	54 241 9 is_stmt 1
	jmp	LBB78_6
LBB78_5:
	.loc	54 0 9 is_stmt 0
	movq	-144(%rbp), %rax
	.loc	54 242 13 is_stmt 1
	movq	$0, 16(%rax)
LBB78_6:
	.loc	54 0 13 is_stmt 0
	movq	-136(%rbp), %rax
	.loc	54 251 6 is_stmt 1
	addq	$176, %rsp
	popq	%rbp
	retq
Ltmp796:
Lfunc_end78:
	.cfi_endproc

	.p2align	4, 0x90
__ZN63_$LT$alloc..alloc..Global$u20$as$u20$core..alloc..Allocator$GT$10deallocate17h0ec257f46ab2e78eE:
Lfunc_begin79:
	.file	55 "/rustc/2c8cc343237b8f7d5a3c3703e3a87f2eb2c54a74/library/alloc/src" "alloc.rs"
	.loc	55 246 0
	.cfi_startproc
	pushq	%rbp
	.cfi_def_cfa_offset 16
	.cfi_offset %rbp, -16
	movq	%rsp, %rbp
	.cfi_def_cfa_register %rbp
	subq	$112, %rsp
	movq	%rsi, -112(%rbp)
	movq	%rdx, -104(%rbp)
	movq	%rcx, -96(%rbp)
	movq	%rdi, -64(%rbp)
	movq	%rsi, -56(%rbp)
Ltmp797:
	.loc	55 247 12 prologue_end
	leaq	-104(%rbp), %rax
	movq	%rax, -48(%rbp)
	cmpq	$0, -104(%rbp)
	jne	LBB79_2
	.loc	55 247 9 is_stmt 0
	jmp	LBB79_3
LBB79_2:
	.loc	55 0 9
	movq	-112(%rbp), %rdi
	.loc	55 250 30 is_stmt 1
	movq	%rdi, -40(%rbp)
Ltmp798:
	.loc	11 326 9
	movq	%rdi, -32(%rbp)
Ltmp799:
	.loc	55 250 44
	movq	-104(%rbp), %rcx
	movq	-96(%rbp), %rax
	movq	%rcx, -88(%rbp)
	movq	%rax, -80(%rbp)
Ltmp800:
	.loc	55 113 34
	leaq	-88(%rbp), %rax
	movq	%rax, -24(%rbp)
Ltmp801:
	.loc	44 129 9
	movq	-88(%rbp), %rsi
Ltmp802:
	.loc	55 113 49
	leaq	-88(%rbp), %rax
	movq	%rax, -16(%rbp)
Ltmp803:
	.loc	44 140 9
	movq	-80(%rbp), %rax
	movq	%rax, -8(%rbp)
Ltmp804:
	.loc	45 97 9
	movq	%rax, -72(%rbp)
	movq	-72(%rbp), %rdx
Ltmp805:
	.loc	55 113 14
	callq	___rust_dealloc
Ltmp806:
LBB79_3:
	.loc	55 252 6
	addq	$112, %rsp
	popq	%rbp
	retq
Ltmp807:
Lfunc_end79:
	.cfi_endproc

	.p2align	4, 0x90
__ZN65_$LT$alloc..string..String$u20$as$u20$core..ops..deref..Deref$GT$5deref17hacd17b67e2019918E:
Lfunc_begin80:
	.file	56 "/rustc/2c8cc343237b8f7d5a3c3703e3a87f2eb2c54a74/library/alloc/src" "string.rs"
	.loc	56 2459 0
	.cfi_startproc
	pushq	%rbp
	.cfi_def_cfa_offset 16
	.cfi_offset %rbp, -16
	movq	%rsp, %rbp
	.cfi_def_cfa_register %rbp
	subq	$48, %rsp
	movq	%rdi, -40(%rbp)
Ltmp808:
	.loc	56 2460 43 prologue_end
	callq	__ZN72_$LT$alloc..vec..Vec$LT$T$C$A$GT$$u20$as$u20$core..ops..deref..Deref$GT$5deref17h7ae31ceafecda60bE
	movq	%rax, -32(%rbp)
	movq	%rdx, -24(%rbp)
Ltmp809:
	.file	57 "/rustc/2c8cc343237b8f7d5a3c3703e3a87f2eb2c54a74/library/core/src/str" "converts.rs"
	.loc	57 173 14
	movq	%rax, -16(%rbp)
	movq	%rdx, -8(%rbp)
	movq	-16(%rbp), %rax
	movq	-8(%rbp), %rdx
Ltmp810:
	.loc	56 2461 6
	addq	$48, %rsp
	popq	%rbp
	retq
Ltmp811:
Lfunc_end80:
	.cfi_endproc

	.p2align	4, 0x90
__ZN70_$LT$alloc..vec..Vec$LT$T$C$A$GT$$u20$as$u20$core..ops..drop..Drop$GT$4drop17hf6d1c050604c5f09E:
Lfunc_begin81:
	.file	58 "/rustc/2c8cc343237b8f7d5a3c3703e3a87f2eb2c54a74/library/alloc/src/vec" "mod.rs"
	.loc	58 3054 0
	.cfi_startproc
	pushq	%rbp
	.cfi_def_cfa_offset 16
	.cfi_offset %rbp, -16
	movq	%rsp, %rbp
	.cfi_def_cfa_register %rbp
	subq	$160, %rsp
	movq	%rdi, -120(%rbp)
Ltmp812:
	.loc	58 3059 62 prologue_end
	movq	%rdi, -112(%rbp)
Ltmp813:
	.loc	58 1280 19
	movq	%rdi, -104(%rbp)
Ltmp814:
	.loc	54 224 9
	movq	8(%rdi), %rcx
	movq	%rcx, -96(%rbp)
Ltmp815:
	.loc	12 104 9
	movq	%rcx, -88(%rbp)
Ltmp816:
	.loc	11 326 9
	movq	%rcx, -80(%rbp)
Ltmp817:
	.loc	58 1282 21
	movq	%rcx, -72(%rbp)
Ltmp818:
	.file	59 "/rustc/2c8cc343237b8f7d5a3c3703e3a87f2eb2c54a74/library/core/src/ptr" "mut_ptr.rs"
	.loc	59 52 36
	movq	%rcx, -160(%rbp)
	.loc	59 52 18 is_stmt 0
	movq	-160(%rbp), %rax
	movq	%rax, -64(%rbp)
Ltmp819:
	.loc	59 38 13 is_stmt 1
	movq	%rax, -56(%rbp)
Ltmp820:
	.loc	59 215 33
	movq	%rax, -48(%rbp)
	.loc	59 215 18 is_stmt 0
	movq	%rax, -40(%rbp)
Ltmp821:
	.loc	58 3059 81 is_stmt 1
	movq	16(%rdi), %rax
	movq	%rax, -32(%rbp)
Ltmp822:
	.loc	4 766 24
	movq	%rcx, -24(%rbp)
Ltmp823:
	.loc	59 60 9
	movq	%rcx, -16(%rbp)
Ltmp824:
	.loc	4 766 37
	movq	%rax, -8(%rbp)
Ltmp825:
	.loc	5 135 36
	movq	%rcx, -136(%rbp)
	movq	%rax, -128(%rbp)
	.loc	5 135 14 is_stmt 0
	movq	-136(%rbp), %rcx
	movq	-128(%rbp), %rax
	movq	%rcx, -152(%rbp)
	movq	%rax, -144(%rbp)
Ltmp826:
	.loc	58 3062 6 is_stmt 1
	addq	$160, %rsp
	popq	%rbp
	retq
Ltmp827:
Lfunc_end81:
	.cfi_endproc

	.p2align	4, 0x90
__ZN72_$LT$alloc..vec..Vec$LT$T$C$A$GT$$u20$as$u20$core..ops..deref..Deref$GT$5deref17h7ae31ceafecda60bE:
Lfunc_begin82:
	.loc	58 2636 0
	.cfi_startproc
	pushq	%rbp
	.cfi_def_cfa_offset 16
	.cfi_offset %rbp, -16
	movq	%rsp, %rbp
	.cfi_def_cfa_register %rbp
	subq	$184, %rsp
	movq	%rdi, -144(%rbp)
Ltmp828:
	.loc	58 2637 40 prologue_end
	movq	%rdi, -136(%rbp)
Ltmp829:
	.loc	58 1243 19
	movq	%rdi, -128(%rbp)
Ltmp830:
	.loc	54 224 9
	movq	8(%rdi), %rcx
	movq	%rcx, -120(%rbp)
Ltmp831:
	.loc	12 104 9
	movq	%rcx, -112(%rbp)
Ltmp832:
	.loc	11 326 9
	movq	%rcx, -104(%rbp)
Ltmp833:
	.loc	58 1245 21
	movq	%rcx, -96(%rbp)
Ltmp834:
	.loc	59 52 36
	movq	%rcx, -184(%rbp)
	.loc	59 52 18 is_stmt 0
	movq	-184(%rbp), %rax
	movq	%rax, -88(%rbp)
Ltmp835:
	.loc	59 38 13 is_stmt 1
	movq	%rax, -80(%rbp)
Ltmp836:
	.loc	59 215 33
	movq	%rax, -72(%rbp)
	.loc	59 215 18 is_stmt 0
	movq	%rax, -64(%rbp)
Ltmp837:
	.loc	58 1247 9 is_stmt 1
	movq	%rcx, -56(%rbp)
Ltmp838:
	.loc	58 2637 55
	movq	16(%rdi), %rax
	movq	%rax, -48(%rbp)
Ltmp839:
	.file	60 "/rustc/2c8cc343237b8f7d5a3c3703e3a87f2eb2c54a74/library/core/src/slice" "raw.rs"
	.loc	60 100 37
	movq	%rcx, -40(%rbp)
	.loc	60 100 43 is_stmt 0
	movq	%rax, -32(%rbp)
Ltmp840:
	.loc	4 734 20 is_stmt 1
	movq	%rcx, -24(%rbp)
Ltmp841:
	.loc	3 61 9
	movq	%rcx, -16(%rbp)
Ltmp842:
	.loc	4 734 33
	movq	%rax, -8(%rbp)
Ltmp843:
	.loc	5 118 36
	movq	%rcx, -160(%rbp)
	movq	%rax, -152(%rbp)
	.loc	5 118 14 is_stmt 0
	movq	-160(%rbp), %rcx
	movq	-152(%rbp), %rax
	movq	%rcx, -176(%rbp)
	movq	%rax, -168(%rbp)
	movq	-176(%rbp), %rax
	movq	-168(%rbp), %rdx
Ltmp844:
	.loc	58 2638 6 is_stmt 1
	addq	$184, %rsp
	popq	%rbp
	retq
Ltmp845:
Lfunc_end82:
	.cfi_endproc

	.p2align	4, 0x90
__ZN73_$LT$$u5b$A$u5d$$u20$as$u20$core..slice..cmp..SlicePartialEq$LT$B$GT$$GT$5equal17h2e464d293381b9b8E:
Lfunc_begin83:
	.loc	48 82 0
	.cfi_startproc
	pushq	%rbp
	.cfi_def_cfa_offset 16
	.cfi_offset %rbp, -16
	movq	%rsp, %rbp
	.cfi_def_cfa_register %rbp
	subq	$144, %rsp
	movq	%rdi, -136(%rbp)
	movq	%rsi, -128(%rbp)
	movq	%rdx, -120(%rbp)
	movq	%rcx, -112(%rbp)
	movq	%rdi, -96(%rbp)
	movq	%rsi, -88(%rbp)
	movq	%rdx, -80(%rbp)
	movq	%rcx, -72(%rbp)
Ltmp846:
	.loc	48 83 12 prologue_end
	cmpq	%rcx, %rsi
	jne	LBB83_2
	.loc	48 0 12 is_stmt 0
	movq	-120(%rbp), %rsi
	movq	-136(%rbp), %rdi
	movq	-112(%rbp), %rax
	movq	-128(%rbp), %rcx
	.loc	48 90 41 is_stmt 1
	movq	%rdi, -64(%rbp)
	movq	%rcx, -56(%rbp)
Ltmp847:
	.loc	25 338 14
	movq	%rcx, %rdx
	shlq	$0, %rdx
	movq	%rdx, -48(%rbp)
	movq	-48(%rbp), %rdx
	movq	%rdx, -40(%rbp)
Ltmp848:
	.loc	48 91 20
	movq	%rdi, -32(%rbp)
	movq	%rcx, -24(%rbp)
	.loc	48 91 48 is_stmt 0
	movq	%rsi, -16(%rbp)
	movq	%rax, -8(%rbp)
	.loc	48 91 13
	callq	_memcmp
	cmpl	$0, %eax
	sete	%al
	andb	$1, %al
	movb	%al, -97(%rbp)
Ltmp849:
	.loc	48 93 6 is_stmt 1
	jmp	LBB83_3
LBB83_2:
	.loc	48 84 20
	movb	$0, -97(%rbp)
LBB83_3:
	.loc	48 93 6
	movb	-97(%rbp), %al
	andb	$1, %al
	movzbl	%al, %eax
	addq	$144, %rsp
	popq	%rbp
	retq
Ltmp850:
Lfunc_end83:
	.cfi_endproc

	.p2align	4, 0x90
__ZN75_$LT$usize$u20$as$u20$core..slice..index..SliceIndex$LT$$u5b$T$u5d$$GT$$GT$3get17hfc1c0478e8c2d4f0E:
Lfunc_begin84:
	.loc	2 217 0
	.cfi_startproc
	pushq	%rbp
	.cfi_def_cfa_offset 16
	.cfi_offset %rbp, -16
	movq	%rsp, %rbp
	.cfi_def_cfa_register %rbp
	subq	$136, %rsp
	movq	%rdi, -136(%rbp)
	movq	%rsi, -128(%rbp)
	movq	%rdx, -120(%rbp)
	movq	%rdi, -104(%rbp)
	movq	%rsi, -96(%rbp)
	movq	%rdx, -88(%rbp)
Ltmp851:
	.loc	2 219 12 prologue_end
	cmpq	%rdx, %rdi
	jb	LBB84_2
	.loc	2 219 87 is_stmt 0
	movq	$0, -112(%rbp)
	.loc	2 219 9
	jmp	LBB84_3
LBB84_2:
	.loc	2 0 9
	movq	-136(%rbp), %rcx
	movq	-128(%rbp), %rax
	movq	-120(%rbp), %rdx
	.loc	2 219 49
	movq	%rcx, -80(%rbp)
	.loc	2 219 68
	movq	%rax, -72(%rbp)
	movq	%rdx, -64(%rbp)
Ltmp852:
	.loc	2 240 13 is_stmt 1
	movq	%rax, -56(%rbp)
	movq	%rdx, -48(%rbp)
Ltmp853:
	.loc	3 1650 9
	movq	%rax, -40(%rbp)
Ltmp854:
	.loc	2 240 32
	movq	%rcx, -32(%rbp)
Ltmp855:
	.loc	3 932 18
	movq	%rax, -24(%rbp)
	.loc	3 932 30 is_stmt 0
	movq	%rcx, -16(%rbp)
Ltmp856:
	.loc	3 473 18 is_stmt 1
	addq	%rcx, %rax
	movq	%rax, -8(%rbp)
	movq	-8(%rbp), %rax
Ltmp857:
	.loc	2 219 42
	movq	%rax, -112(%rbp)
LBB84_3:
	.loc	2 220 6
	movq	-112(%rbp), %rax
	addq	$136, %rsp
	popq	%rbp
	retq
Ltmp858:
Lfunc_end84:
	.cfi_endproc

	.p2align	4, 0x90
__ZN77_$LT$alloc..raw_vec..RawVec$LT$T$C$A$GT$$u20$as$u20$core..ops..drop..Drop$GT$4drop17hfbb27102880382c7E:
Lfunc_begin85:
	.loc	54 477 0
	.cfi_startproc
	pushq	%rbp
	.cfi_def_cfa_offset 16
	.cfi_offset %rbp, -16
	movq	%rsp, %rbp
	.cfi_def_cfa_register %rbp
	subq	$64, %rsp
	movq	%rdi, %rsi
	movq	%rsi, -64(%rbp)
	movq	%rsi, -32(%rbp)
Ltmp859:
	.loc	54 478 38 prologue_end
	leaq	-56(%rbp), %rdi
	callq	__ZN5alloc7raw_vec19RawVec$LT$T$C$A$GT$14current_memory17hf477b653d823d435E
	.loc	54 478 16 is_stmt 0
	movl	$1, %eax
	xorl	%ecx, %ecx
	cmpq	$0, -40(%rbp)
	cmoveq	%rcx, %rax
	cmpq	$1, %rax
	jne	LBB85_2
	.loc	54 0 16
	movq	-64(%rbp), %rdi
	.loc	54 478 22
	movq	-56(%rbp), %rsi
	movq	%rsi, -24(%rbp)
	.loc	54 478 27
	movq	-48(%rbp), %rdx
	movq	-40(%rbp), %rcx
	movq	%rdx, -16(%rbp)
	movq	%rcx, -8(%rbp)
	.loc	54 479 22 is_stmt 1
	callq	__ZN63_$LT$alloc..alloc..Global$u20$as$u20$core..alloc..Allocator$GT$10deallocate17h0ec257f46ab2e78eE
Ltmp860:
LBB85_2:
	.loc	54 481 6
	addq	$64, %rsp
	popq	%rbp
	retq
Ltmp861:
Lfunc_end85:
	.cfi_endproc

	.p2align	4, 0x90
__ZN80_$LT$core..str..pattern..StrSearcher$u20$as$u20$core..str..pattern..Searcher$GT$10next_match17h91549cfb12bafa03E:
Lfunc_begin86:
	.loc	35 1121 0
	.cfi_startproc
	pushq	%rbp
	.cfi_def_cfa_offset 16
	.cfi_offset %rbp, -16
	movq	%rsp, %rbp
	.cfi_def_cfa_register %rbp
	subq	$256, %rsp
	movq	%rsi, -232(%rbp)
	movq	%rdi, -224(%rbp)
	movq	%rdi, -216(%rbp)
	movq	%rsi, -168(%rbp)
Ltmp862:
	.loc	35 1122 9 prologue_end
	cmpq	$0, 32(%rsi)
	jne	LBB86_2
LBB86_1:
	.loc	35 0 9 is_stmt 0
	movq	-232(%rbp), %rsi
	leaq	-208(%rbp), %rdi
	.loc	35 1124 23 is_stmt 1
	callq	__ZN80_$LT$core..str..pattern..StrSearcher$u20$as$u20$core..str..pattern..Searcher$GT$4next17h3378492330b179f9E
	movq	-208(%rbp), %rax
	movq	%rax, -240(%rbp)
	.loc	35 1124 17 is_stmt 0
	testq	%rax, %rax
	je	LBB86_8
	jmp	LBB86_12
LBB86_12:
	.loc	35 0 17
	movq	-240(%rbp), %rax
	.loc	35 1124 17
	subq	$1, %rax
	je	LBB86_9
	jmp	LBB86_13
LBB86_13:
	jmp	LBB86_10
LBB86_2:
	.loc	35 0 17
	movq	-232(%rbp), %rax
	.loc	35 1130 37 is_stmt 1
	movq	%rax, %rcx
	addq	$32, %rcx
	addq	$8, %rcx
	movq	%rcx, -248(%rbp)
	movq	%rcx, -160(%rbp)
Ltmp863:
	.loc	35 1131 31
	cmpq	$-1, 88(%rax)
	sete	%al
	movb	%al, %cl
	andb	$1, %cl
	movb	%cl, -145(%rbp)
Ltmp864:
	.loc	35 1134 20
	testb	$1, %al
	jne	LBB86_4
	.loc	35 0 20 is_stmt 0
	movq	-248(%rbp), %rsi
	movq	-224(%rbp), %rdi
	movq	-232(%rbp), %rax
	.loc	35 1142 25 is_stmt 1
	movq	(%rax), %rdx
	movq	8(%rax), %rcx
	movq	%rdx, -80(%rbp)
	movq	%rcx, -72(%rbp)
Ltmp865:
	.loc	21 327 18
	movq	%rdx, -64(%rbp)
	movq	%rcx, -56(%rbp)
	movq	-64(%rbp), %rdx
	movq	-56(%rbp), %rcx
Ltmp866:
	.loc	35 1143 25
	movq	16(%rax), %r8
	movq	24(%rax), %rax
	movq	%r8, -48(%rbp)
	movq	%rax, -40(%rbp)
Ltmp867:
	.loc	21 327 18
	movq	%r8, -32(%rbp)
	movq	%rax, -24(%rbp)
	movq	-32(%rbp), %r8
	movq	-24(%rbp), %r9
Ltmp868:
	.loc	35 1141 21
	xorl	%eax, %eax
	movl	$0, (%rsp)
	callq	__ZN4core3str7pattern14TwoWaySearcher4next17h8f0228c47897afd6E
	.loc	35 1134 17
	jmp	LBB86_5
LBB86_4:
	.loc	35 0 17 is_stmt 0
	movq	-248(%rbp), %rsi
	movq	-224(%rbp), %rdi
	movq	-232(%rbp), %rax
	.loc	35 1136 25 is_stmt 1
	movq	(%rax), %rdx
	movq	8(%rax), %rcx
	movq	%rdx, -144(%rbp)
	movq	%rcx, -136(%rbp)
Ltmp869:
	.loc	21 327 18
	movq	%rdx, -128(%rbp)
	movq	%rcx, -120(%rbp)
	movq	-128(%rbp), %rdx
	movq	-120(%rbp), %rcx
Ltmp870:
	.loc	35 1137 25
	movq	16(%rax), %r8
	movq	24(%rax), %rax
	movq	%r8, -112(%rbp)
	movq	%rax, -104(%rbp)
Ltmp871:
	.loc	21 327 18
	movq	%r8, -96(%rbp)
	movq	%rax, -88(%rbp)
	movq	-96(%rbp), %r8
	movq	-88(%rbp), %r9
Ltmp872:
	.loc	35 1135 21
	movl	$1, (%rsp)
	callq	__ZN4core3str7pattern14TwoWaySearcher4next17h8f0228c47897afd6E
Ltmp873:
LBB86_5:
	.loc	35 1147 13
	jmp	LBB86_6
LBB86_6:
	.loc	35 0 13 is_stmt 0
	movq	-216(%rbp), %rax
	.loc	35 1149 6 is_stmt 1
	addq	$256, %rsp
	popq	%rbp
	retq
	.loc	35 1124 23
	ud2
LBB86_8:
	.loc	35 0 23 is_stmt 0
	movq	-224(%rbp), %rax
	.loc	35 1125 39 is_stmt 1
	movq	-200(%rbp), %rdx
	movq	%rdx, -16(%rbp)
	.loc	35 1125 42 is_stmt 0
	movq	-192(%rbp), %rcx
	movq	%rcx, -8(%rbp)
Ltmp874:
	.loc	35 1125 60
	movq	%rdx, -184(%rbp)
	movq	%rcx, -176(%rbp)
	.loc	35 1125 55
	movq	-184(%rbp), %rdx
	movq	-176(%rbp), %rcx
	movq	%rdx, 8(%rax)
	movq	%rcx, 16(%rax)
	movq	$1, (%rax)
Ltmp875:
	.loc	31 1 1 is_stmt 1
	jmp	LBB86_11
LBB86_9:
	.loc	35 1123 43
	jmp	LBB86_1
LBB86_10:
	.loc	35 0 43 is_stmt 0
	movq	-224(%rbp), %rax
	.loc	35 1126 48 is_stmt 1
	movq	$0, (%rax)
LBB86_11:
	.loc	35 1149 6
	jmp	LBB86_6
Ltmp876:
Lfunc_end86:
	.cfi_endproc

	.p2align	4, 0x90
__ZN80_$LT$core..str..pattern..StrSearcher$u20$as$u20$core..str..pattern..Searcher$GT$4next17h3378492330b179f9E:
Lfunc_begin87:
	.loc	35 1069 0
	.cfi_startproc
	pushq	%rbp
	.cfi_def_cfa_offset 16
	.cfi_offset %rbp, -16
	movq	%rsp, %rbp
	.cfi_def_cfa_register %rbp
	subq	$464, %rsp
	movq	%rsi, -408(%rbp)
	movq	%rdi, -400(%rbp)
	movq	%rdi, -392(%rbp)
	movq	%rsi, -296(%rbp)
Ltmp877:
	.loc	35 1070 9 prologue_end
	cmpq	$0, 32(%rsi)
	jne	LBB87_2
	.loc	35 0 9 is_stmt 0
	movq	-408(%rbp), %rax
	.loc	35 1071 36 is_stmt 1
	movq	%rax, %rcx
	addq	$32, %rcx
	addq	$8, %rcx
	movq	%rcx, -416(%rbp)
	movq	%rcx, -120(%rbp)
Ltmp878:
	.loc	35 1072 20
	testb	$1, 58(%rax)
	jne	LBB87_13
	jmp	LBB87_12
Ltmp879:
LBB87_2:
	.loc	35 0 20 is_stmt 0
	movq	-408(%rbp), %rcx
	.loc	35 1091 37 is_stmt 1
	movq	%rcx, %rax
	addq	$32, %rax
	addq	$8, %rax
	movq	%rax, -424(%rbp)
	movq	%rax, -288(%rbp)
Ltmp880:
	.loc	35 1097 20
	movq	72(%rcx), %rax
	.loc	35 1097 41 is_stmt 0
	movq	(%rcx), %rdx
	movq	8(%rcx), %rcx
	movq	%rdx, -280(%rbp)
	movq	%rcx, -272(%rbp)
Ltmp881:
	.loc	21 160 9 is_stmt 1
	movq	%rdx, -264(%rbp)
	movq	%rcx, -256(%rbp)
Ltmp882:
	.loc	21 327 18
	movq	%rdx, -248(%rbp)
	movq	%rcx, -240(%rbp)
Ltmp883:
	.loc	35 1097 20
	cmpq	-240(%rbp), %rax
	je	LBB87_4
	.loc	35 0 20 is_stmt 0
	movq	-424(%rbp), %rsi
	movq	-408(%rbp), %rdi
	.loc	35 1100 31 is_stmt 1
	cmpq	$-1, 48(%rsi)
	sete	%al
	movb	%al, %cl
	andb	$1, %cl
	movb	%cl, -225(%rbp)
Ltmp884:
	.loc	35 1102 21
	movq	(%rdi), %rdx
	movq	8(%rdi), %rcx
	movq	%rdx, -224(%rbp)
	movq	%rcx, -216(%rbp)
Ltmp885:
	.loc	21 327 18
	movq	%rdx, -208(%rbp)
	movq	%rcx, -200(%rbp)
	movq	-208(%rbp), %rdx
	movq	-200(%rbp), %rcx
Ltmp886:
	.loc	35 1103 21
	movq	16(%rdi), %r8
	movq	24(%rdi), %rdi
	movq	%r8, -192(%rbp)
	movq	%rdi, -184(%rbp)
Ltmp887:
	.loc	21 327 18
	movq	%r8, -176(%rbp)
	movq	%rdi, -168(%rbp)
	movq	-176(%rbp), %r8
	movq	-168(%rbp), %r9
Ltmp888:
	.loc	35 1101 23
	movzbl	%al, %edi
	andl	$1, %edi
	movq	%rsp, %rax
	movl	%edi, (%rax)
	leaq	-352(%rbp), %rdi
	callq	__ZN4core3str7pattern14TwoWaySearcher4next17hb6b5207ea4cd8106E
	.loc	35 1101 17 is_stmt 0
	cmpq	$1, -352(%rbp)
	je	LBB87_6
	jmp	LBB87_7
Ltmp889:
LBB87_4:
	.loc	35 0 17
	movq	-400(%rbp), %rax
	.loc	35 1098 28 is_stmt 1
	movq	$2, (%rax)
Ltmp890:
LBB87_5:
	.loc	35 0 28 is_stmt 0
	movq	-392(%rbp), %rax
	.loc	35 1118 6 is_stmt 1
	addq	$464, %rsp
	popq	%rbp
	retq
LBB87_6:
Ltmp891:
	.loc	35 1106 40
	movq	-344(%rbp), %rax
	movq	%rax, -432(%rbp)
	movq	%rax, -160(%rbp)
	.loc	35 1106 43 is_stmt 0
	movq	-336(%rbp), %rax
	movq	%rax, -328(%rbp)
Ltmp892:
	.loc	35 1108 25 is_stmt 1
	jmp	LBB87_9
Ltmp893:
LBB87_7:
	.loc	35 0 25 is_stmt 0
	movq	-400(%rbp), %rax
	.loc	35 1114 21 is_stmt 1
	movq	-352(%rbp), %rcx
	movq	%rcx, -320(%rbp)
	movq	-344(%rbp), %rcx
	movq	%rcx, -312(%rbp)
	movq	-336(%rbp), %rcx
	movq	%rcx, -304(%rbp)
Ltmp894:
	.loc	35 1114 34 is_stmt 0
	movq	-320(%rbp), %rcx
	movq	%rcx, (%rax)
	movq	-312(%rbp), %rcx
	movq	%rcx, 8(%rax)
	movq	-304(%rbp), %rcx
	movq	%rcx, 16(%rax)
Ltmp895:
LBB87_8:
	.loc	35 1116 13 is_stmt 1
	jmp	LBB87_5
LBB87_9:
	.loc	35 0 13 is_stmt 0
	movq	-408(%rbp), %rax
Ltmp896:
	.loc	35 1108 32 is_stmt 1
	movq	(%rax), %rdi
	movq	8(%rax), %rsi
	.loc	35 1108 63 is_stmt 0
	movq	-328(%rbp), %rdx
	.loc	35 1108 32
	callq	__ZN4core3str21_$LT$impl$u20$str$GT$16is_char_boundary17h1ed5be412af349baE
	.loc	35 1108 31
	xorb	$-1, %al
	testb	$1, %al
	jne	LBB87_11
	.loc	35 0 31
	movq	-424(%rbp), %rax
	.loc	35 1111 54 is_stmt 1
	movq	-328(%rbp), %rdi
	movq	%rdi, -152(%rbp)
	.loc	35 1111 57 is_stmt 0
	movq	32(%rax), %rsi
	movq	%rsi, -144(%rbp)
Ltmp897:
	.loc	7 1276 5 is_stmt 1
	movq	%rdi, -136(%rbp)
	.loc	7 1276 12 is_stmt 0
	movq	%rsi, -128(%rbp)
Ltmp898:
	.loc	7 803 13 is_stmt 1
	callq	__ZN4core3cmp6max_by17h2dd7cbca6f2054c9E
	movq	-424(%rbp), %rcx
	movq	-432(%rbp), %rdx
	movq	%rax, %rsi
	movq	-400(%rbp), %rax
Ltmp899:
	.loc	35 1111 25
	movq	%rsi, 32(%rcx)
	.loc	35 1112 47
	movq	-328(%rbp), %rcx
	.loc	35 1112 25 is_stmt 0
	movq	%rdx, 8(%rax)
	movq	%rcx, 16(%rax)
	movq	$1, (%rax)
Ltmp900:
	.loc	35 1113 21 is_stmt 1
	jmp	LBB87_8
LBB87_11:
Ltmp901:
	.loc	35 1109 29
	movq	-328(%rbp), %rax
	addq	$1, %rax
	movq	%rax, -328(%rbp)
	.loc	35 1108 25
	jmp	LBB87_9
Ltmp902:
LBB87_12:
	.loc	35 0 25 is_stmt 0
	movq	-408(%rbp), %rcx
	movq	-416(%rbp), %rax
Ltmp903:
	.loc	35 1076 32 is_stmt 1
	movb	16(%rax), %dl
	movb	%dl, -433(%rbp)
	andb	$1, %dl
	movb	%dl, -105(%rbp)
Ltmp904:
	.loc	35 1077 41
	movb	16(%rax), %dl
	.loc	35 1077 17 is_stmt 0
	xorb	$-1, %dl
	andb	$1, %dl
	movb	%dl, 16(%rax)
	.loc	35 1078 27 is_stmt 1
	movq	(%rax), %rax
	movq	%rax, -448(%rbp)
	movq	%rax, -104(%rbp)
Ltmp905:
	.loc	35 1079 23
	movq	(%rcx), %rsi
	movq	8(%rcx), %rdx
	movq	%rsi, -96(%rbp)
	movq	%rdx, -88(%rbp)
	.loc	35 1079 37 is_stmt 0
	movq	%rax, -360(%rbp)
Ltmp906:
	.loc	34 65 9 is_stmt 1
	movq	-360(%rbp), %rdi
	leaq	l___unnamed_30(%rip), %rcx
	callq	__ZN4core3str6traits112_$LT$impl$u20$core..slice..index..SliceIndex$LT$str$GT$$u20$for$u20$core..ops..range..RangeFrom$LT$usize$GT$$GT$5index17h764ef039516d14e8E
Ltmp907:
	.loc	35 1079 23
	movq	%rax, -80(%rbp)
	movq	%rdx, -72(%rbp)
Ltmp908:
	.loc	21 783 23
	movq	%rax, -64(%rbp)
	movq	%rdx, -56(%rbp)
Ltmp909:
	.loc	21 327 18
	movq	%rax, -48(%rbp)
	movq	%rdx, -40(%rbp)
	movq	-48(%rbp), %rdi
	movq	-40(%rbp), %rsi
Ltmp910:
	.loc	21 783 23
	movq	%rdi, -32(%rbp)
	movq	%rsi, -24(%rbp)
Ltmp911:
	.loc	32 742 9
	callq	__ZN4core5slice4iter13Iter$LT$T$GT$3new17hec07d39c212b13efE
Ltmp912:
	.loc	21 783 9
	movq	%rax, -376(%rbp)
	movq	%rdx, -368(%rbp)
Ltmp913:
	.loc	35 1079 23
	leaq	-376(%rbp), %rax
	movq	%rax, -16(%rbp)
Ltmp914:
	.file	61 "/rustc/2c8cc343237b8f7d5a3c3703e3a87f2eb2c54a74/library/core/src/str" "iter.rs"
	.loc	61 44 18
	leaq	-376(%rbp), %rdi
	callq	__ZN4core3str11validations15next_code_point17ha3077682e724808cE
	movl	%eax, %edi
	movl	%edx, %esi
	callq	__ZN4core6option15Option$LT$T$GT$3map17hea620a88874793a7E
	movl	%eax, %ecx
	movb	-433(%rbp), %al
	movl	%ecx, -380(%rbp)
Ltmp915:
	.loc	35 1080 26
	testb	$1, %al
	jne	LBB87_15
	jmp	LBB87_14
Ltmp916:
LBB87_13:
	.loc	35 0 26 is_stmt 0
	movq	-400(%rbp), %rax
	.loc	35 1073 28 is_stmt 1
	movq	$2, (%rax)
Ltmp917:
	.loc	31 1 1
	jmp	LBB87_5
LBB87_14:
Ltmp918:
	.loc	35 1079 23
	movl	$1, %eax
	xorl	%ecx, %ecx
	cmpl	$1114112, -380(%rbp)
	cmoveq	%rcx, %rax
	.loc	35 1079 17 is_stmt 0
	cmpq	$0, %rax
	je	LBB87_17
	jmp	LBB87_18
LBB87_15:
	.loc	35 0 17
	movq	-400(%rbp), %rax
	movq	-448(%rbp), %rcx
	.loc	35 1080 38 is_stmt 1
	movq	%rcx, 8(%rax)
	movq	%rcx, 16(%rax)
	movq	$0, (%rax)
Ltmp919:
LBB87_16:
	.loc	35 1090 13
	jmp	LBB87_5
LBB87_17:
	.loc	35 0 13 is_stmt 0
	movq	-400(%rbp), %rax
	movq	-416(%rbp), %rcx
Ltmp920:
	.loc	35 1082 25 is_stmt 1
	movb	$1, 18(%rcx)
	.loc	35 1083 25
	movq	$2, (%rax)
	jmp	LBB87_16
LBB87_18:
	.loc	35 1085 26
	movl	-380(%rbp), %edi
	movl	%edi, -8(%rbp)
Ltmp921:
	.loc	35 1086 46
	movl	%edi, -4(%rbp)
Ltmp922:
	.loc	43 594 9
	callq	__ZN4core4char7methods8len_utf817h1467b5d2fa2def4bE
	movq	-416(%rbp), %rcx
	movq	-448(%rbp), %rdx
	movq	%rax, %rsi
	movq	-400(%rbp), %rax
Ltmp923:
	.loc	35 1086 25
	addq	(%rcx), %rsi
	movq	%rsi, (%rcx)
	.loc	35 1087 49
	movq	(%rcx), %rcx
	.loc	35 1087 25 is_stmt 0
	movq	%rdx, 8(%rax)
	movq	%rcx, 16(%rax)
	movq	$1, (%rax)
Ltmp924:
	.loc	35 1088 21 is_stmt 1
	jmp	LBB87_16
Ltmp925:
Lfunc_end87:
	.cfi_endproc

	.p2align	4, 0x90
__ZN81_$LT$core..str..iter..Chars$u20$as$u20$core..iter..traits..iterator..Iterator$GT$4next28_$u7b$$u7b$closure$u7d$$u7d$17h8a8a5b3bad291f91E:
Lfunc_begin88:
	.loc	61 44 0
	.cfi_startproc
	pushq	%rbp
	.cfi_def_cfa_offset 16
	.cfi_offset %rbp, -16
	movq	%rsp, %rbp
	.cfi_def_cfa_register %rbp
	subq	$24, %rsp
	movl	%edi, -16(%rbp)
Ltmp926:
	.loc	61 44 84 prologue_end
	movl	%edi, -12(%rbp)
Ltmp927:
	.file	62 "/rustc/2c8cc343237b8f7d5a3c3703e3a87f2eb2c54a74/library/core/src/char" "mod.rs"
	.loc	62 128 48
	movl	%edi, -8(%rbp)
Ltmp928:
	.file	63 "/rustc/2c8cc343237b8f7d5a3c3703e3a87f2eb2c54a74/library/core/src/char" "convert.rs"
	.loc	63 25 78
	movl	%edi, -4(%rbp)
	movl	-4(%rbp), %eax
Ltmp929:
	.loc	61 44 87
	addq	$24, %rsp
	popq	%rbp
	retq
Ltmp930:
Lfunc_end88:
	.cfi_endproc

	.p2align	4, 0x90
__ZN84_$LT$core..str..pattern..MatchOnly$u20$as$u20$core..str..pattern..TwoWayStrategy$GT$16use_early_reject17hc18c3079a5a3f1feE:
Lfunc_begin89:
	.loc	35 1682 0
	.cfi_startproc
	pushq	%rbp
	.cfi_def_cfa_offset 16
	.cfi_offset %rbp, -16
	movq	%rsp, %rbp
	.cfi_def_cfa_register %rbp
Ltmp931:
	.loc	35 1684 6 prologue_end
	xorl	%eax, %eax
	andb	$1, %al
	movzbl	%al, %eax
	popq	%rbp
	retq
Ltmp932:
Lfunc_end89:
	.cfi_endproc

	.p2align	4, 0x90
__ZN84_$LT$core..str..pattern..MatchOnly$u20$as$u20$core..str..pattern..TwoWayStrategy$GT$8matching17h6e81e169f6da67f8E:
Lfunc_begin90:
	.loc	35 1690 0
	.cfi_startproc
	pushq	%rbp
	.cfi_def_cfa_offset 16
	.cfi_offset %rbp, -16
	movq	%rsp, %rbp
	.cfi_def_cfa_register %rbp
	subq	$32, %rsp
	movq	%rdi, %rax
	movq	%rsi, -16(%rbp)
	movq	%rdx, -8(%rbp)
Ltmp933:
	.loc	35 1691 14 prologue_end
	movq	%rsi, -32(%rbp)
	movq	%rdx, -24(%rbp)
	.loc	35 1691 9 is_stmt 0
	movq	-32(%rbp), %rdx
	movq	-24(%rbp), %rcx
	movq	%rdx, 8(%rdi)
	movq	%rcx, 16(%rdi)
	movq	$1, (%rdi)
	.loc	35 1692 6 is_stmt 1
	addq	$32, %rsp
	popq	%rbp
	retq
Ltmp934:
Lfunc_end90:
	.cfi_endproc

	.p2align	4, 0x90
__ZN84_$LT$core..str..pattern..MatchOnly$u20$as$u20$core..str..pattern..TwoWayStrategy$GT$9rejecting17h5acee277b5bf5629E:
Lfunc_begin91:
	.loc	35 1686 0
	.cfi_startproc
	pushq	%rbp
	.cfi_def_cfa_offset 16
	.cfi_offset %rbp, -16
	movq	%rsp, %rbp
	.cfi_def_cfa_register %rbp
	subq	$16, %rsp
	movq	%rdi, %rax
	movq	%rsi, -16(%rbp)
	movq	%rdx, -8(%rbp)
Ltmp935:
	.loc	35 1687 9 prologue_end
	movq	$0, (%rdi)
	.loc	35 1688 6
	addq	$16, %rsp
	popq	%rbp
	retq
Ltmp936:
Lfunc_end91:
	.cfi_endproc

	.p2align	4, 0x90
__ZN89_$LT$core..ops..range..Range$LT$T$GT$$u20$as$u20$core..iter..range..RangeIteratorImpl$GT$14spec_next_back17hf5348e5d2378f47eE:
Lfunc_begin92:
	.loc	22 664 0
	.cfi_startproc
	pushq	%rbp
	.cfi_def_cfa_offset 16
	.cfi_offset %rbp, -16
	movq	%rsp, %rbp
	.cfi_def_cfa_register %rbp
	subq	$80, %rsp
	movq	%rdi, -64(%rbp)
	movq	%rdi, -40(%rbp)
Ltmp937:
	.loc	22 665 25 prologue_end
	movq	%rdi, %rsi
	addq	$8, %rsi
	.loc	22 665 12 is_stmt 0
	callq	__ZN4core3cmp5impls57_$LT$impl$u20$core..cmp..PartialOrd$u20$for$u20$usize$GT$2lt17hca4f390796bed90fE
	testb	$1, %al
	jne	LBB92_2
	.loc	22 670 13 is_stmt 1
	movq	$0, -56(%rbp)
	.loc	22 665 9
	jmp	LBB92_4
LBB92_2:
	.loc	22 0 9 is_stmt 0
	movq	-64(%rbp), %rax
	.loc	22 667 58 is_stmt 1
	movq	%rax, %rcx
	addq	$8, %rcx
	movq	%rcx, -8(%rbp)
Ltmp938:
	.file	64 "/rustc/2c8cc343237b8f7d5a3c3703e3a87f2eb2c54a74/library/core/src" "clone.rs"
	.loc	64 189 25
	movq	8(%rax), %rdi
Ltmp939:
	.loc	22 667 33
	movl	$1, %esi
	callq	__ZN49_$LT$usize$u20$as$u20$core..iter..range..Step$GT$18backward_unchecked17he8e1cb6331cd98d1E
	movq	%rax, -72(%rbp)
	.loc	22 0 33 is_stmt 0
	movq	-64(%rbp), %rax
	movq	-72(%rbp), %rcx
	.loc	22 667 13
	movq	%rcx, 8(%rax)
	.loc	22 668 18 is_stmt 1
	movq	%rax, %rcx
	addq	$8, %rcx
	movq	%rcx, -16(%rbp)
Ltmp940:
	.loc	64 189 25
	movq	8(%rax), %rax
Ltmp941:
	.loc	22 668 13
	movq	%rax, -48(%rbp)
	movq	$1, -56(%rbp)
LBB92_4:
	.loc	22 672 6
	movq	-56(%rbp), %rax
	movq	-48(%rbp), %rdx
	addq	$80, %rsp
	popq	%rbp
	retq
Ltmp942:
Lfunc_end92:
	.cfi_endproc

	.p2align	4, 0x90
__ZN89_$LT$core..ops..range..Range$LT$T$GT$$u20$as$u20$core..iter..range..RangeIteratorImpl$GT$9spec_next17hc2aab68d9f85f671E:
Lfunc_begin93:
	.loc	22 620 0
	.cfi_startproc
	pushq	%rbp
	.cfi_def_cfa_offset 16
	.cfi_offset %rbp, -16
	movq	%rsp, %rbp
	.cfi_def_cfa_register %rbp
	subq	$48, %rsp
	movq	%rdi, -48(%rbp)
	movq	%rdi, -24(%rbp)
Ltmp943:
	.loc	22 621 25 prologue_end
	movq	%rdi, %rsi
	addq	$8, %rsi
	.loc	22 621 12 is_stmt 0
	callq	__ZN4core3cmp5impls57_$LT$impl$u20$core..cmp..PartialOrd$u20$for$u20$usize$GT$2lt17hca4f390796bed90fE
	testb	$1, %al
	jne	LBB93_2
	.loc	22 626 13 is_stmt 1
	movq	$0, -40(%rbp)
	.loc	22 621 9
	jmp	LBB93_3
LBB93_2:
	.loc	22 0 9 is_stmt 0
	movq	-48(%rbp), %rax
	movq	%rax, -8(%rbp)
Ltmp944:
	.loc	64 189 25 is_stmt 1
	movq	(%rax), %rdi
Ltmp945:
	.loc	22 623 30
	movl	$1, %esi
	callq	__ZN49_$LT$usize$u20$as$u20$core..iter..range..Step$GT$17forward_unchecked17h383dbd2842eb56d3E
	movq	-48(%rbp), %rdi
	movq	%rax, %rsi
	movq	%rsi, -16(%rbp)
Ltmp946:
	.loc	22 624 18
	callq	__ZN4core3mem7replace17h27dfd37ea9c91f0eE
	.loc	22 624 13 is_stmt 0
	movq	%rax, -32(%rbp)
	movq	$1, -40(%rbp)
Ltmp947:
LBB93_3:
	.loc	22 628 6 is_stmt 1
	movq	-40(%rbp), %rax
	movq	-32(%rbp), %rdx
	addq	$48, %rsp
	popq	%rbp
	retq
Ltmp948:
Lfunc_end93:
	.cfi_endproc

	.p2align	4, 0x90
__ZN89_$LT$core..str..pattern..RejectAndMatch$u20$as$u20$core..str..pattern..TwoWayStrategy$GT$16use_early_reject17hb5acd2564e55e0a1E:
Lfunc_begin94:
	.loc	35 1702 0
	.cfi_startproc
	pushq	%rbp
	.cfi_def_cfa_offset 16
	.cfi_offset %rbp, -16
	movq	%rsp, %rbp
	.cfi_def_cfa_register %rbp
Ltmp949:
	.loc	35 1704 6 prologue_end
	movb	$1, %al
	andb	$1, %al
	movzbl	%al, %eax
	popq	%rbp
	retq
Ltmp950:
Lfunc_end94:
	.cfi_endproc

	.p2align	4, 0x90
__ZN89_$LT$core..str..pattern..RejectAndMatch$u20$as$u20$core..str..pattern..TwoWayStrategy$GT$8matching17ha3d26376b2e0869dE:
Lfunc_begin95:
	.loc	35 1710 0
	.cfi_startproc
	pushq	%rbp
	.cfi_def_cfa_offset 16
	.cfi_offset %rbp, -16
	movq	%rsp, %rbp
	.cfi_def_cfa_register %rbp
	subq	$16, %rsp
	movq	%rdi, %rax
	movq	%rsi, -16(%rbp)
	movq	%rdx, -8(%rbp)
Ltmp951:
	.loc	35 1711 9 prologue_end
	movq	%rsi, 8(%rdi)
	movq	%rdx, 16(%rdi)
	movq	$0, (%rdi)
	.loc	35 1712 6
	addq	$16, %rsp
	popq	%rbp
	retq
Ltmp952:
Lfunc_end95:
	.cfi_endproc

	.p2align	4, 0x90
__ZN89_$LT$core..str..pattern..RejectAndMatch$u20$as$u20$core..str..pattern..TwoWayStrategy$GT$9rejecting17h00ae9c0d27012931E:
Lfunc_begin96:
	.loc	35 1706 0
	.cfi_startproc
	pushq	%rbp
	.cfi_def_cfa_offset 16
	.cfi_offset %rbp, -16
	movq	%rsp, %rbp
	.cfi_def_cfa_register %rbp
	subq	$16, %rsp
	movq	%rdi, %rax
	movq	%rsi, -16(%rbp)
	movq	%rdx, -8(%rbp)
Ltmp953:
	.loc	35 1707 9 prologue_end
	movq	%rsi, 8(%rdi)
	movq	%rdx, 16(%rdi)
	movq	$1, (%rdi)
	.loc	35 1708 6
	addq	$16, %rsp
	popq	%rbp
	retq
Ltmp954:
Lfunc_end96:
	.cfi_endproc

	.p2align	4, 0x90
__ZN90_$LT$core..ops..control_flow..ControlFlow$LT$B$C$C$GT$$u20$as$u20$core..cmp..PartialEq$GT$2eq17h83e206e504951e3dE:
Lfunc_begin97:
	.loc	1 84 0
	.cfi_startproc
	pushq	%rbp
	.cfi_def_cfa_offset 16
	.cfi_offset %rbp, -16
	movq	%rsp, %rbp
	.cfi_def_cfa_register %rbp
	subq	$112, %rsp
	movq	%rdi, -104(%rbp)
	movq	%rsi, -96(%rbp)
	movq	%rdi, -64(%rbp)
	movq	%rsi, -56(%rbp)
Ltmp955:
	.loc	1 84 30 prologue_end
	movb	(%rdi), %al
	andb	$1, %al
	movzbl	%al, %eax
	movq	%rax, -48(%rbp)
Ltmp956:
	.loc	1 84 30 is_stmt 0
	movb	(%rsi), %cl
	andb	$1, %cl
	movzbl	%cl, %ecx
	movq	%rcx, -40(%rbp)
Ltmp957:
	.loc	1 84 30
	cmpq	%rcx, %rax
	je	LBB97_2
	movb	$0, -82(%rbp)
	jmp	LBB97_9
LBB97_2:
	.loc	1 0 30
	movq	-96(%rbp), %rax
	movq	-104(%rbp), %rcx
	.loc	1 84 30
	movq	%rcx, -80(%rbp)
	movq	%rax, -72(%rbp)
	movq	-80(%rbp), %rax
	movb	(%rax), %al
	andb	$1, %al
	movzbl	%al, %eax
	cmpq	$0, %rax
	jne	LBB97_4
	movq	-72(%rbp), %rax
	movb	(%rax), %al
	andb	$1, %al
	movzbl	%al, %eax
	cmpq	$0, %rax
	je	LBB97_8
	jmp	LBB97_6
LBB97_4:
	movq	-72(%rbp), %rax
	movb	(%rax), %al
	andb	$1, %al
	movzbl	%al, %eax
	cmpq	$1, %rax
	jne	LBB97_6
	.loc	1 93 11 is_stmt 1
	movq	-80(%rbp), %rdi
	addq	$1, %rdi
	movq	%rdi, -32(%rbp)
	movq	-72(%rbp), %rsi
	addq	$1, %rsi
	movq	%rsi, -24(%rbp)
Ltmp958:
	.loc	1 93 11 is_stmt 0
	callq	__ZN4core3cmp5impls59_$LT$impl$u20$core..cmp..PartialEq$u20$for$u20$$LP$$RP$$GT$2eq17h9e1d24e7f7b3d5d0E
	andb	$1, %al
	movb	%al, -81(%rbp)
Ltmp959:
	.loc	1 84 38 is_stmt 1
	jmp	LBB97_7
LBB97_6:
	.loc	1 84 30 is_stmt 0
	ud2
LBB97_7:
	movb	-81(%rbp), %al
	andb	$1, %al
	movb	%al, -82(%rbp)
	jmp	LBB97_9
LBB97_8:
	.loc	1 89 14 is_stmt 1
	movq	-80(%rbp), %rdi
	addq	$1, %rdi
	movq	%rdi, -16(%rbp)
	movq	-72(%rbp), %rsi
	addq	$1, %rsi
	movq	%rsi, -8(%rbp)
Ltmp960:
	.loc	1 89 14 is_stmt 0
	callq	__ZN4core3cmp5impls59_$LT$impl$u20$core..cmp..PartialEq$u20$for$u20$$LP$$RP$$GT$2eq17h9e1d24e7f7b3d5d0E
	andb	$1, %al
	movb	%al, -81(%rbp)
Ltmp961:
	.loc	1 84 38 is_stmt 1
	jmp	LBB97_7
Ltmp962:
LBB97_9:
	.loc	1 84 39 is_stmt 0
	movb	-82(%rbp), %al
	andb	$1, %al
	movzbl	%al, %eax
	addq	$112, %rsp
	popq	%rbp
	retq
Ltmp963:
Lfunc_end97:
	.cfi_endproc

	.p2align	4, 0x90
__ZN91_$LT$core..slice..iter..Iter$LT$T$GT$$u20$as$u20$core..iter..traits..iterator..Iterator$GT$24__iterator_get_unchecked17h78139e1841d01e08E:
Lfunc_begin98:
	.file	65 "/rustc/2c8cc343237b8f7d5a3c3703e3a87f2eb2c54a74/library/core/src/slice/iter" "macros.rs"
	.loc	65 319 0 is_stmt 1
	.cfi_startproc
	pushq	%rbp
	.cfi_def_cfa_offset 16
	.cfi_offset %rbp, -16
	movq	%rsp, %rbp
	.cfi_def_cfa_register %rbp
	subq	$64, %rsp
	movq	%rdi, -64(%rbp)
	movq	%rsi, -56(%rbp)
Ltmp964:
	.loc	65 330 42 prologue_end
	movq	8(%rdi), %rax
	movq	%rax, -48(%rbp)
Ltmp965:
	.loc	11 326 9
	movq	%rax, -40(%rbp)
Ltmp966:
	.loc	65 330 64
	movq	%rsi, -32(%rbp)
Ltmp967:
	.loc	59 1034 18
	movq	%rax, -24(%rbp)
	.loc	59 1034 30 is_stmt 0
	movq	%rsi, -16(%rbp)
Ltmp968:
	.loc	59 487 18 is_stmt 1
	addq	%rsi, %rax
	movq	%rax, -8(%rbp)
	movq	-8(%rbp), %rax
Ltmp969:
	.loc	65 331 14
	addq	$64, %rsp
	popq	%rbp
	retq
Ltmp970:
Lfunc_end98:
	.cfi_endproc

	.p2align	4, 0x90
__ZN91_$LT$core..slice..iter..Iter$LT$T$GT$$u20$as$u20$core..iter..traits..iterator..Iterator$GT$4next17h1d234d0db133aac9E:
Lfunc_begin99:
	.loc	65 124 0
	.cfi_startproc
	pushq	%rbp
	.cfi_def_cfa_offset 16
	.cfi_offset %rbp, -16
	movq	%rsp, %rbp
	.cfi_def_cfa_register %rbp
	subq	$304, %rsp
	movq	%rdi, -304(%rbp)
	movq	%rdi, -240(%rbp)
Ltmp971:
	.loc	65 132 29 prologue_end
	movq	8(%rdi), %rax
	movq	%rax, -224(%rbp)
Ltmp972:
	.loc	11 326 9
	movq	%rax, -216(%rbp)
Ltmp973:
	.loc	59 52 36
	movq	%rax, -280(%rbp)
	.loc	59 52 18 is_stmt 0
	movq	-280(%rbp), %rax
	movq	%rax, -208(%rbp)
Ltmp974:
	.loc	59 38 13 is_stmt 1
	movq	%rax, -200(%rbp)
Ltmp975:
	.loc	59 215 33
	movq	%rax, -192(%rbp)
	.loc	59 215 18 is_stmt 0
	movq	%rax, -184(%rbp)
Ltmp976:
	.loc	65 133 24 is_stmt 1
	movb	$1, %al
	testb	$1, %al
	jne	LBB99_2
LBB99_1:
	.loc	65 0 24 is_stmt 0
	movq	-304(%rbp), %rcx
	.loc	65 136 24 is_stmt 1
	movq	8(%rcx), %rax
	movq	%rax, -136(%rbp)
	cmpq	(%rcx), %rax
	je	LBB99_4
	jmp	LBB99_3
LBB99_2:
	.loc	65 0 24 is_stmt 0
	movq	-304(%rbp), %rax
	.loc	65 134 33 is_stmt 1
	movq	(%rax), %rax
	movq	%rax, -176(%rbp)
Ltmp977:
	.loc	3 53 36
	movq	%rax, -272(%rbp)
	.loc	3 53 18 is_stmt 0
	movq	-272(%rbp), %rax
	movq	%rax, -168(%rbp)
Ltmp978:
	.loc	3 39 13 is_stmt 1
	movq	%rax, -160(%rbp)
Ltmp979:
	.loc	3 209 33
	movq	%rax, -152(%rbp)
	.loc	3 209 18 is_stmt 0
	movq	%rax, -144(%rbp)
Ltmp980:
	.loc	65 133 21 is_stmt 1
	jmp	LBB99_1
LBB99_3:
	.loc	65 0 21 is_stmt 0
	movq	-304(%rbp), %rax
	.loc	65 139 30 is_stmt 1
	movq	%rax, -128(%rbp)
Ltmp981:
	.loc	65 76 20
	xorl	%eax, %eax
	testb	$1, %al
	jne	LBB99_6
	jmp	LBB99_7
Ltmp982:
LBB99_4:
	.loc	65 137 25
	movq	$0, -296(%rbp)
LBB99_5:
	.loc	65 142 14
	movq	-296(%rbp), %rax
	addq	$304, %rsp
	popq	%rbp
	retq
LBB99_6:
	.loc	65 0 14 is_stmt 0
	movq	-304(%rbp), %rax
Ltmp983:
	.loc	65 57 29 is_stmt 1
	movq	(%rax), %rcx
	movq	%rcx, -64(%rbp)
Ltmp984:
	.loc	3 1198 9
	movq	%rcx, -56(%rbp)
Ltmp985:
	.loc	3 61 9
	movq	%rcx, -48(%rbp)
Ltmp986:
	.loc	3 1180 9
	movq	%rcx, -40(%rbp)
Ltmp987:
	.loc	3 555 18
	addq	$-1, %rcx
	movq	%rcx, -32(%rbp)
	movq	-32(%rbp), %rcx
	movq	%rcx, -24(%rbp)
Ltmp988:
	.loc	3 100 29
	movq	%rcx, -16(%rbp)
Ltmp989:
	.loc	5 118 36
	movq	%rcx, -248(%rbp)
	.loc	5 118 14 is_stmt 0
	movq	-248(%rbp), %rcx
	movq	%rcx, -256(%rbp)
	movq	-256(%rbp), %rcx
Ltmp990:
	.loc	65 57 17 is_stmt 1
	movq	%rcx, (%rax)
	.loc	65 78 21
	movq	8(%rax), %rax
	movq	%rax, -8(%rbp)
	movq	%rax, -288(%rbp)
	.loc	65 76 17
	jmp	LBB99_8
LBB99_7:
	.loc	65 0 17 is_stmt 0
	movq	-304(%rbp), %rcx
	.loc	65 80 31 is_stmt 1
	movq	8(%rcx), %rax
	movq	%rax, -120(%rbp)
Ltmp991:
	.loc	11 326 9
	movq	%rax, -112(%rbp)
Ltmp992:
	.loc	65 83 64
	movq	8(%rcx), %rdx
	movq	%rdx, -104(%rbp)
Ltmp993:
	.loc	11 326 9
	movq	%rdx, -96(%rbp)
Ltmp994:
	.loc	59 1034 18
	movq	%rdx, -88(%rbp)
Ltmp995:
	.loc	59 487 18
	addq	$1, %rdx
	movq	%rdx, -80(%rbp)
	movq	-80(%rbp), %rdx
	movq	%rdx, -72(%rbp)
Ltmp996:
	.loc	11 201 13
	movq	%rdx, -264(%rbp)
Ltmp997:
	.loc	65 83 21
	movq	-264(%rbp), %rdx
	movq	%rdx, 8(%rcx)
	.loc	65 84 21
	movq	%rax, -288(%rbp)
Ltmp998:
LBB99_8:
	.loc	65 139 30
	movq	-288(%rbp), %rax
	.loc	65 139 25 is_stmt 0
	movq	%rax, -296(%rbp)
	.loc	65 136 21 is_stmt 1
	jmp	LBB99_5
Ltmp999:
Lfunc_end99:
	.cfi_endproc

	.p2align	4, 0x90
__ZN91_$LT$core..slice..iter..Iter$LT$T$GT$$u20$as$u20$core..iter..traits..iterator..Iterator$GT$9size_hint17hedc990a48f078b3eE:
Lfunc_begin100:
	.loc	65 145 0
	.cfi_startproc
	pushq	%rbp
	.cfi_def_cfa_offset 16
	.cfi_offset %rbp, -16
	movq	%rsp, %rbp
	.cfi_def_cfa_register %rbp
	subq	$160, %rsp
	movq	%rsi, -152(%rbp)
	movq	%rdi, -144(%rbp)
	movq	%rdi, -136(%rbp)
	movq	%rsi, -96(%rbp)
Ltmp1000:
	.loc	65 146 29 prologue_end
	movq	8(%rsi), %rax
	movq	%rax, -128(%rbp)
	movq	%rax, -88(%rbp)
Ltmp1001:
	.loc	65 146 29 is_stmt 0
	xorl	%eax, %eax
	testb	$1, %al
	jne	LBB100_2
	.loc	65 0 29
	movq	-128(%rbp), %rsi
	movq	-152(%rbp), %rax
	.loc	65 146 29
	movq	(%rax), %rdi
	movq	%rsi, -8(%rbp)
	callq	__ZN4core3ptr9const_ptr33_$LT$impl$u20$$BP$const$u20$T$GT$7sub_ptr17hcb685b81d17c34ddE
	movq	%rax, -120(%rbp)
	jmp	LBB100_3
LBB100_2:
	.loc	65 0 29
	movq	-128(%rbp), %rcx
	movq	-152(%rbp), %rax
	.loc	65 146 29
	movq	(%rax), %rax
	movq	%rax, -80(%rbp)
Ltmp1002:
	.loc	3 209 33 is_stmt 1
	movq	%rax, -72(%rbp)
	.loc	3 209 18 is_stmt 0
	movq	%rax, -64(%rbp)
	movq	-64(%rbp), %rax
	movq	%rax, -56(%rbp)
Ltmp1003:
	.loc	65 146 29 is_stmt 1
	movq	%rcx, -48(%rbp)
Ltmp1004:
	.loc	11 326 9
	movq	%rcx, -40(%rbp)
Ltmp1005:
	.loc	59 215 33
	movq	%rcx, -32(%rbp)
	.loc	59 215 18 is_stmt 0
	movq	%rcx, -24(%rbp)
	movq	-24(%rbp), %rcx
	movq	%rcx, -16(%rbp)
Ltmp1006:
	.loc	23 1203 13 is_stmt 1
	subq	%rcx, %rax
	movq	%rax, -120(%rbp)
Ltmp1007:
LBB100_3:
	.loc	23 0 13 is_stmt 0
	movq	-136(%rbp), %rax
	movq	-144(%rbp), %rcx
Ltmp1008:
	.loc	65 147 18 is_stmt 1
	movq	-120(%rbp), %rdx
	.loc	65 147 30 is_stmt 0
	movq	-120(%rbp), %rsi
	.loc	65 147 25
	movq	%rsi, -104(%rbp)
	movq	$1, -112(%rbp)
	.loc	65 147 17
	movq	%rdx, (%rcx)
	movq	-112(%rbp), %rsi
	movq	-104(%rbp), %rdx
	movq	%rsi, 8(%rcx)
	movq	%rdx, 16(%rcx)
Ltmp1009:
	.loc	65 148 14 is_stmt 1
	addq	$160, %rsp
	popq	%rbp
	retq
Ltmp1010:
Lfunc_end100:
	.cfi_endproc

	.p2align	4, 0x90
__ZN94_$LT$core..slice..iter..Windows$LT$T$GT$$u20$as$u20$core..iter..traits..iterator..Iterator$GT$4next17hb8a2a3ef2427952dE:
Lfunc_begin101:
	.loc	47 1317 0
	.cfi_startproc
	pushq	%rbp
	.cfi_def_cfa_offset 16
	.cfi_offset %rbp, -16
	movq	%rsp, %rbp
	.cfi_def_cfa_register %rbp
	subq	$144, %rsp
	movq	%rdi, -144(%rbp)
	movq	%rdi, -80(%rbp)
Ltmp1011:
	.loc	47 1318 12 prologue_end
	movq	16(%rdi), %rax
	movq	%rax, -72(%rbp)
	cmpq	8(%rdi), %rax
	ja	LBB101_2
	.loc	47 0 12 is_stmt 0
	movq	-144(%rbp), %rax
	.loc	47 1321 29 is_stmt 1
	movq	(%rax), %rdx
	movq	8(%rax), %rcx
	movq	%rdx, -64(%rbp)
	movq	%rcx, -56(%rbp)
	.loc	47 1321 38 is_stmt 0
	movq	16(%rax), %rax
	movq	%rax, -48(%rbp)
	.loc	47 1321 36
	movq	%rax, -104(%rbp)
Ltmp1012:
	.loc	2 18 9 is_stmt 1
	movq	-104(%rbp), %rax
	movq	%rax, -40(%rbp)
	.loc	2 18 21 is_stmt 0
	movq	%rdx, -32(%rbp)
	movq	%rcx, -24(%rbp)
Ltmp1013:
	.loc	2 456 9 is_stmt 1
	movq	$0, -96(%rbp)
	movq	%rax, -88(%rbp)
	movq	-96(%rbp), %rdi
	movq	-88(%rbp), %rsi
	leaq	l___unnamed_31(%rip), %r8
	callq	__ZN106_$LT$core..ops..range..Range$LT$usize$GT$$u20$as$u20$core..slice..index..SliceIndex$LT$$u5b$T$u5d$$GT$$GT$5index17h2d61c86448a035e2E
	movq	%rax, %rcx
	movq	-144(%rbp), %rax
Ltmp1014:
	.loc	47 1321 23
	movq	%rcx, -120(%rbp)
	movq	%rdx, -112(%rbp)
Ltmp1015:
	.loc	47 1322 23
	movq	(%rax), %rsi
	movq	8(%rax), %rdx
	movq	%rsi, -16(%rbp)
	movq	%rdx, -8(%rbp)
Ltmp1016:
	.loc	2 18 9
	movl	$1, %edi
	leaq	l___unnamed_32(%rip), %rcx
	callq	__ZN110_$LT$core..ops..range..RangeFrom$LT$usize$GT$$u20$as$u20$core..slice..index..SliceIndex$LT$$u5b$T$u5d$$GT$$GT$5index17h4da5bfebcf8d91dcE
	movq	%rax, %rcx
	movq	-144(%rbp), %rax
Ltmp1017:
	.loc	47 1322 13
	movq	%rcx, (%rax)
	movq	%rdx, 8(%rax)
	.loc	47 1323 13
	movq	-120(%rbp), %rcx
	movq	-112(%rbp), %rax
	movq	%rcx, -136(%rbp)
	movq	%rax, -128(%rbp)
Ltmp1018:
	.loc	47 1318 9
	jmp	LBB101_3
LBB101_2:
	.loc	47 1319 13
	movq	$0, -136(%rbp)
LBB101_3:
	.loc	47 1325 6
	movq	-136(%rbp), %rax
	movq	-128(%rbp), %rdx
	addq	$144, %rsp
	popq	%rbp
	retq
Ltmp1019:
Lfunc_end101:
	.cfi_endproc

	.p2align	4, 0x90
__ZN95_$LT$core..ops..control_flow..ControlFlow$LT$B$C$C$GT$$u20$as$u20$core..ops..try_trait..Try$GT$11from_output17he82081d2c0282f5bE:
Lfunc_begin102:
	.loc	1 106 0
	.cfi_startproc
	pushq	%rbp
	.cfi_def_cfa_offset 16
	.cfi_offset %rbp, -16
	movq	%rsp, %rbp
	.cfi_def_cfa_register %rbp
	subq	$16, %rsp
Ltmp1020:
	.loc	1 107 9 prologue_end
	movb	$0, -9(%rbp)
	.loc	1 108 6
	movb	-9(%rbp), %al
	andb	$1, %al
	movzbl	%al, %eax
	addq	$16, %rsp
	popq	%rbp
	retq
Ltmp1021:
Lfunc_end102:
	.cfi_endproc

	.p2align	4, 0x90
__ZN95_$LT$core..ops..control_flow..ControlFlow$LT$B$C$C$GT$$u20$as$u20$core..ops..try_trait..Try$GT$11from_output17hfe43cf83661e09d3E:
Lfunc_begin103:
	.loc	1 106 0
	.cfi_startproc
	pushq	%rbp
	.cfi_def_cfa_offset 16
	.cfi_offset %rbp, -16
	movq	%rsp, %rbp
	.cfi_def_cfa_register %rbp
	subq	$24, %rsp
Ltmp1022:
	.loc	1 107 9 prologue_end
	movq	$0, -24(%rbp)
	.loc	1 108 6
	movq	-24(%rbp), %rax
	movq	-16(%rbp), %rdx
	addq	$24, %rsp
	popq	%rbp
	retq
Ltmp1023:
Lfunc_end103:
	.cfi_endproc

	.p2align	4, 0x90
__ZN95_$LT$core..ops..control_flow..ControlFlow$LT$B$C$C$GT$$u20$as$u20$core..ops..try_trait..Try$GT$6branch17h2fa601f75d38cb8aE:
Lfunc_begin104:
	.loc	1 111 0
	.cfi_startproc
	pushq	%rbp
	.cfi_def_cfa_offset 16
	.cfi_offset %rbp, -16
	movq	%rsp, %rbp
	.cfi_def_cfa_register %rbp
	subq	$32, %rsp
	movb	%dil, %al
	andb	$1, %al
	movb	%al, -26(%rbp)
Ltmp1024:
	.loc	1 112 15 prologue_end
	movb	-26(%rbp), %al
	andb	$1, %al
	movzbl	%al, %eax
	.loc	1 112 9 is_stmt 0
	cmpq	$0, %rax
	jne	LBB104_2
Ltmp1025:
	.loc	1 113 41 is_stmt 1
	movb	$0, -25(%rbp)
Ltmp1026:
	.loc	1 113 64 is_stmt 0
	jmp	LBB104_3
LBB104_2:
Ltmp1027:
	.loc	1 114 38 is_stmt 1
	movb	$1, -25(%rbp)
Ltmp1028:
LBB104_3:
	.loc	1 116 6
	movb	-25(%rbp), %al
	andb	$1, %al
	movzbl	%al, %eax
	addq	$32, %rsp
	popq	%rbp
	retq
Ltmp1029:
Lfunc_end104:
	.cfi_endproc

	.p2align	4, 0x90
__ZN95_$LT$core..ops..control_flow..ControlFlow$LT$B$C$C$GT$$u20$as$u20$core..ops..try_trait..Try$GT$6branch17hb413037448dbbf6cE:
Lfunc_begin105:
	.loc	1 111 0
	.cfi_startproc
	pushq	%rbp
	.cfi_def_cfa_offset 16
	.cfi_offset %rbp, -16
	movq	%rsp, %rbp
	.cfi_def_cfa_register %rbp
	subq	$56, %rsp
	movq	%rdi, -56(%rbp)
	movq	%rsi, -48(%rbp)
Ltmp1030:
	.loc	1 112 9 prologue_end
	cmpq	$0, -56(%rbp)
	jne	LBB105_2
Ltmp1031:
	.loc	1 113 41
	movq	$0, -40(%rbp)
Ltmp1032:
	.loc	1 113 64 is_stmt 0
	jmp	LBB105_3
LBB105_2:
	.loc	1 114 32 is_stmt 1
	movq	-48(%rbp), %rax
	movq	%rax, -8(%rbp)
Ltmp1033:
	.loc	1 114 57 is_stmt 0
	movq	%rax, -24(%rbp)
	.loc	1 114 38
	movq	-24(%rbp), %rax
	movq	%rax, -32(%rbp)
	movq	$1, -40(%rbp)
Ltmp1034:
LBB105_3:
	.loc	1 116 6 is_stmt 1
	movq	-40(%rbp), %rax
	movq	-32(%rbp), %rdx
	addq	$56, %rsp
	popq	%rbp
	retq
Ltmp1035:
Lfunc_end105:
	.cfi_endproc

	.p2align	4, 0x90
__ZN18build_script_build4main17h5593de9898e8dfb0E:
Lfunc_begin106:
	.loc	31 10 0
	.cfi_startproc
	.cfi_personality 155, _rust_eh_personality
	.cfi_lsda 16, Lexception14
	pushq	%rbp
	.cfi_def_cfa_offset 16
	.cfi_offset %rbp, -16
	movq	%rsp, %rbp
	.cfi_def_cfa_register %rbp
	subq	$160, %rsp
Ltmp1044:
	.loc	31 11 8 prologue_end
	leaq	l___unnamed_33(%rip), %rsi
	leaq	-96(%rbp), %rdi
	movq	%rdi, -152(%rbp)
	movl	$6, %edx
	callq	__ZN3std3env3var17h1c0bafc9c283f20fE
	movq	-152(%rbp), %rsi
	leaq	l___unnamed_34(%rip), %rdx
	leaq	-120(%rbp), %rdi
	movq	%rdi, -144(%rbp)
	callq	__ZN4core6result19Result$LT$T$C$E$GT$6unwrap17h51d030231569055cE
	movq	-144(%rbp), %rdi
Ltmp1036:
	callq	__ZN65_$LT$alloc..string..String$u20$as$u20$core..ops..deref..Deref$GT$5deref17hacd17b67e2019918E
Ltmp1037:
	movq	%rdx, -136(%rbp)
	movq	%rax, -128(%rbp)
	jmp	LBB106_3
LBB106_1:
Ltmp1041:
	.loc	31 0 8 is_stmt 0
	leaq	-120(%rbp), %rdi
	.loc	31 11 58
	callq	__ZN4core3ptr42drop_in_place$LT$alloc..string..String$GT$17h1cbce4299fab7fddE
Ltmp1042:
	jmp	LBB106_6
LBB106_2:
Ltmp1040:
	.loc	31 0 58
	movq	%rax, %rcx
	movl	%edx, %eax
	movq	%rcx, -16(%rbp)
	movl	%eax, -8(%rbp)
	jmp	LBB106_1
LBB106_3:
Ltmp1038:
	movq	-136(%rbp), %rsi
	movq	-128(%rbp), %rdi
	.loc	31 11 8
	leaq	l___unnamed_35(%rip), %rdx
	movl	$6, %ecx
	callq	__ZN4core3str21_$LT$impl$u20$str$GT$8contains17hfef2859b8e4d2189E
Ltmp1039:
	movb	%al, -153(%rbp)
	jmp	LBB106_4
LBB106_4:
	.loc	31 11 58
	leaq	-120(%rbp), %rdi
	callq	__ZN4core3ptr42drop_in_place$LT$alloc..string..String$GT$17h1cbce4299fab7fddE
	movb	-153(%rbp), %al
	.loc	31 11 8
	testb	$1, %al
	jne	LBB106_8
	jmp	LBB106_7
LBB106_5:
Ltmp1043:
	.loc	31 10 1 is_stmt 1
	callq	__ZN4core9panicking19panic_cannot_unwind17h1fbca7e1d7f56ae1E
LBB106_6:
	movq	-16(%rbp), %rdi
	callq	__Unwind_Resume
LBB106_7:
	.loc	31 14 2
	addq	$160, %rsp
	popq	%rbp
	retq
LBB106_8:
	.loc	31 12 9
	leaq	-64(%rbp), %rdi
	leaq	l___unnamed_36(%rip), %rsi
	movl	$1, %edx
	leaq	l___unnamed_4(%rip), %rcx
	xorl	%eax, %eax
	movl	%eax, %r8d
	callq	__ZN4core3fmt9Arguments6new_v117h392beafba1cfdcb2E
	leaq	-64(%rbp), %rdi
	callq	__ZN3std2io5stdio6_print17ha0d536e53b83a5ccE
	jmp	LBB106_7
Ltmp1045:
Lfunc_end106:
	.cfi_endproc
	.section	__TEXT,__gcc_except_tab
	.p2align	2
GCC_except_table106:
Lexception14:
	.byte	255
	.byte	255
	.byte	1
	.uleb128 Lcst_end14-Lcst_begin14
Lcst_begin14:
	.uleb128 Lfunc_begin106-Lfunc_begin106
	.uleb128 Ltmp1036-Lfunc_begin106
	.byte	0
	.byte	0
	.uleb128 Ltmp1036-Lfunc_begin106
	.uleb128 Ltmp1037-Ltmp1036
	.uleb128 Ltmp1040-Lfunc_begin106
	.byte	0
	.uleb128 Ltmp1041-Lfunc_begin106
	.uleb128 Ltmp1042-Ltmp1041
	.uleb128 Ltmp1043-Lfunc_begin106
	.byte	0
	.uleb128 Ltmp1038-Lfunc_begin106
	.uleb128 Ltmp1039-Ltmp1038
	.uleb128 Ltmp1040-Lfunc_begin106
	.byte	0
	.uleb128 Ltmp1039-Lfunc_begin106
	.uleb128 Lfunc_end106-Ltmp1039
	.byte	0
	.byte	0
Lcst_end14:
	.p2align	2

	.section	__TEXT,__text,regular,pure_instructions
	.globl	_main
	.p2align	4, 0x90
_main:
Lfunc_begin107:
	.cfi_startproc
	pushq	%rbp
	.cfi_def_cfa_offset 16
	.cfi_offset %rbp, -16
	movq	%rsp, %rbp
	.cfi_def_cfa_register %rbp
	movq	%rsi, %rdx
	movslq	%edi, %rsi
	leaq	__ZN18build_script_build4main17h5593de9898e8dfb0E(%rip), %rdi
	xorl	%ecx, %ecx
	callq	__ZN3std2rt10lang_start17hea12a48c4b3e23afE
	popq	%rbp
	retq
Lfunc_end107:
	.cfi_endproc

	.section	__DATA,__const
	.p2align	3
l___unnamed_1:
	.quad	__ZN4core3ptr85drop_in_place$LT$std..rt..lang_start$LT$$LP$$RP$$GT$..$u7b$$u7b$closure$u7d$$u7d$$GT$17h471010c1ccb7e4a3E
	.asciz	"\b\000\000\000\000\000\000\000\b\000\000\000\000\000\000"
	.quad	__ZN4core3ops8function6FnOnce40call_once$u7b$$u7b$vtable.shim$u7d$$u7d$17haeb425ed294eba5aE
	.quad	__ZN3std2rt10lang_start28_$u7b$$u7b$closure$u7d$$u7d$17h5c0edd22600b7348E
	.quad	__ZN3std2rt10lang_start28_$u7b$$u7b$closure$u7d$$u7d$17h5c0edd22600b7348E

	.section	__TEXT,__const
l___unnamed_37:
	.ascii	"invalid args"

	.section	__DATA,__const
	.p2align	3
l___unnamed_3:
	.quad	l___unnamed_37
	.asciz	"\f\000\000\000\000\000\000"

	.section	__TEXT,__const
	.p2align	3
l___unnamed_4:
	.byte	0

l___unnamed_38:
	.ascii	"/rustc/2c8cc343237b8f7d5a3c3703e3a87f2eb2c54a74/library/core/src/fmt/mod.rs"

	.section	__DATA,__const
	.p2align	3
l___unnamed_5:
	.quad	l___unnamed_38
	.asciz	"K\000\000\000\000\000\000\000\221\001\000\000\r\000\000"

	.section	__TEXT,__const
l___unnamed_6:
	.ascii	"assertion failed: 0 < pointee_size && pointee_size <= isize::MAX as usize"

l___unnamed_39:
	.ascii	"/rustc/2c8cc343237b8f7d5a3c3703e3a87f2eb2c54a74/library/core/src/ptr/const_ptr.rs"

	.section	__DATA,__const
	.p2align	3
l___unnamed_7:
	.quad	l___unnamed_39
	.asciz	"Q\000\000\000\000\000\000\000&\003\000\000\t\000\000"

	.section	__TEXT,__const
l___unnamed_40:
	.ascii	"/rustc/2c8cc343237b8f7d5a3c3703e3a87f2eb2c54a74/library/core/src/str/validations.rs"

	.section	__DATA,__const
	.p2align	3
l___unnamed_8:
	.quad	l___unnamed_40
	.asciz	"S\000\000\000\000\000\000\0001\000\000\000$\000\000"

	.p2align	3
l___unnamed_9:
	.quad	l___unnamed_40
	.asciz	"S\000\000\000\000\000\000\0008\000\000\000(\000\000"

	.p2align	3
l___unnamed_10:
	.quad	l___unnamed_40
	.asciz	"S\000\000\000\000\000\000\000@\000\000\000,\000\000"

	.section	__TEXT,__const
l___unnamed_41:
	.ascii	"/rustc/2c8cc343237b8f7d5a3c3703e3a87f2eb2c54a74/library/core/src/str/pattern.rs"

	.section	__DATA,__const
	.p2align	3
l___unnamed_11:
	.quad	l___unnamed_41
	.asciz	"O\000\000\000\000\000\000\000\317\006\000\000\027\000\000"

	.section	__TEXT,__const
l___unnamed_12:
	.byte	1

	.section	__DATA,__const
	.p2align	3
l___unnamed_14:
	.quad	l___unnamed_41
	.asciz	"O\000\000\000\000\000\000\000\347\006\000\000,\000\000"

	.p2align	3
l___unnamed_13:
	.quad	l___unnamed_41
	.asciz	"O\000\000\000\000\000\000\000\352\006\000\000\033\000\000"

	.p2align	3
l___unnamed_15:
	.quad	l___unnamed_41
	.asciz	"O\000\000\000\000\000\000\000\036\007\000\000\r\000\000"

	.p2align	3
l___unnamed_16:
	.quad	l___unnamed_41
	.asciz	"O\000\000\000\000\000\000\000!\007\000\000\030\000\000"

	.p2align	3
l___unnamed_17:
	.quad	l___unnamed_41
	.asciz	"O\000\000\000\000\000\000\000\331\006\000\000e\000\000"

	.p2align	3
l___unnamed_18:
	.quad	l___unnamed_41
	.asciz	"O\000\000\000\000\000\000\000\247\005\000\000\024\000\000"

	.p2align	3
l___unnamed_19:
	.quad	l___unnamed_41
	.asciz	"O\000\000\000\000\000\000\000\247\005\000\000!\000\000"

	.p2align	3
l___unnamed_20:
	.quad	l___unnamed_41
	.asciz	"O\000\000\000\000\000\000\000\263\005\000\000\024\000\000"

	.p2align	3
l___unnamed_21:
	.quad	l___unnamed_41
	.asciz	"O\000\000\000\000\000\000\000\263\005\000\000!\000\000"

	.section	__TEXT,__literal16,16byte_literals
	.p2align	3
L___unnamed_22:
	.space	8
	.space	8

	.section	__TEXT,__const
l___unnamed_42:
	.ascii	"/rustc/2c8cc343237b8f7d5a3c3703e3a87f2eb2c54a74/library/core/src/alloc/layout.rs"

	.section	__DATA,__const
	.p2align	3
l___unnamed_23:
	.quad	l___unnamed_42
	.asciz	"P\000\000\000\000\000\000\000\304\001\000\000)\000\000"

	.section	__TEXT,__const
	.p2align	4
_str.0:
	.ascii	"attempt to divide by zero"

l___unnamed_24:
	.ascii	"size is zero"

l___unnamed_43:
	.ascii	"/rustc/2c8cc343237b8f7d5a3c3703e3a87f2eb2c54a74/library/core/src/slice/mod.rs"

	.section	__DATA,__const
	.p2align	3
l___unnamed_25:
	.quad	l___unnamed_43
	.asciz	"M\000\000\000\000\000\000\000)\003\000\000,\000\000"

	.section	__TEXT,__const
l___unnamed_44:
	.ascii	"/rustc/2c8cc343237b8f7d5a3c3703e3a87f2eb2c54a74/library/core/src/slice/memchr.rs"

	.section	__DATA,__const
	.p2align	3
l___unnamed_26:
	.quad	l___unnamed_44
	.asciz	"P\000\000\000\000\000\000\0005\000\000\000\f\000\000"

	.section	__TEXT,__const
l___unnamed_27:
	.ascii	"called `Result::unwrap()` on an `Err` value"

	.section	__DATA,__const
	.p2align	3
l___unnamed_2:
	.quad	__ZN4core3ptr39drop_in_place$LT$std..env..VarError$GT$17h8f2e936d7749f4feE
	.asciz	"\030\000\000\000\000\000\000\000\b\000\000\000\000\000\000"
	.quad	__ZN55_$LT$std..env..VarError$u20$as$u20$core..fmt..Debug$GT$3fmt17hca5f9b8668ac52cdE

	.p2align	3
l___unnamed_28:
	.quad	l___unnamed_41
	.asciz	"O\000\000\000\000\000\000\000\300\003\000\000:\000\000"

	.section	__TEXT,__const
l___unnamed_45:
	.ascii	"/rustc/2c8cc343237b8f7d5a3c3703e3a87f2eb2c54a74/library/alloc/src/raw_vec.rs"

	.section	__DATA,__const
	.p2align	3
l___unnamed_29:
	.quad	l___unnamed_45
	.asciz	"L\000\000\000\000\000\000\000\367\000\000\000;\000\000"

	.p2align	3
l___unnamed_30:
	.quad	l___unnamed_41
	.asciz	"O\000\000\000\000\000\000\0007\004\000\000\027\000\000"

	.section	__TEXT,__const
l___unnamed_46:
	.ascii	"/rustc/2c8cc343237b8f7d5a3c3703e3a87f2eb2c54a74/library/core/src/slice/iter.rs"

	.section	__DATA,__const
	.p2align	3
l___unnamed_31:
	.quad	l___unnamed_46
	.asciz	"N\000\000\000\000\000\000\000)\005\000\000\035\000\000"

	.p2align	3
l___unnamed_32:
	.quad	l___unnamed_46
	.asciz	"N\000\000\000\000\000\000\000*\005\000\000\027\000\000"

	.section	__TEXT,__const
l___unnamed_33:
	.ascii	"TARGET"

l___unnamed_47:
	.ascii	"/Users/natalie/.cargo/registry/src/github.com-1ecc6299db9ec823/core-foundation-sys-0.8.3/build.rs"

	.section	__DATA,__const
	.p2align	3
l___unnamed_34:
	.quad	l___unnamed_47
	.asciz	"a\000\000\000\000\000\000\000\013\000\000\000 \000\000"

	.section	__TEXT,__const
l___unnamed_35:
	.ascii	"-apple"

l___unnamed_48:
	.ascii	"cargo:rustc-link-lib=framework=CoreFoundation\n"

	.section	__DATA,__const
	.p2align	3
l___unnamed_36:
	.quad	l___unnamed_48
	.asciz	".\000\000\000\000\000\000"

	.section	__DATA,__const
Lsec_end0:
	.section	__TEXT,__text,regular,pure_instructions
Lsec_end1: