	.section	__TEXT,__text,regular,pure_instructions
	.macosx_version_min 10, 7
	.p2align	4, 0x90
__ZN3std10sys_common9backtrace28__rust_begin_short_backtrace17h1a95c3b6d504955dE:
Lfunc_begin0:
	.file	1 "/rustc/2c8cc343237b8f7d5a3c3703e3a87f2eb2c54a74/library/std/src/sys_common" "backtrace.rs"
	.loc	1 117 0
	.cfi_startproc
	pushq	%rbp
	.cfi_def_cfa_offset 16
	.cfi_offset %rbp, -16
	movq	%rsp, %rbp
	.cfi_def_cfa_register %rbp
	subq	$48, %rsp
	movq	%rdi, -32(%rbp)
Ltmp0:
	.loc	1 121 18 prologue_end
	callq	__ZN4core3ops8function6FnOnce9call_once17hf88337ceda0398e6E
Ltmp1:
	.file	2 "/rustc/2c8cc343237b8f7d5a3c3703e3a87f2eb2c54a74/library/core/src" "hint.rs"
	.loc	2 295 5
	## InlineAsm Start
	## InlineAsm End
Ltmp2:
	.loc	1 127 2
	addq	$48, %rsp
	popq	%rbp
	retq
Ltmp3:
Lfunc_end0:
	.cfi_endproc

	.private_extern	__ZN3std2rt10lang_start17had5a4d5190b08c8fE
	.globl	__ZN3std2rt10lang_start17had5a4d5190b08c8fE
	.p2align	4, 0x90
__ZN3std2rt10lang_start17had5a4d5190b08c8fE:
Lfunc_begin1:
	.file	3 "/rustc/2c8cc343237b8f7d5a3c3703e3a87f2eb2c54a74/library/std/src" "rt.rs"
	.loc	3 159 0
	.cfi_startproc
	pushq	%rbp
	.cfi_def_cfa_offset 16
	.cfi_offset %rbp, -16
	movq	%rsp, %rbp
	.cfi_def_cfa_register %rbp
	subq	$64, %rsp
	movl	%ecx, %eax
	movq	%rdx, %rcx
	movq	%rsi, %rdx
	movq	%rdi, -40(%rbp)
	movq	%rdx, -32(%rbp)
	movq	%rcx, -24(%rbp)
	movb	%al, -9(%rbp)
Ltmp4:
	.loc	3 166 10 prologue_end
	movq	%rdi, -48(%rbp)
	.loc	3 165 17
	leaq	-48(%rbp), %rdi
	leaq	l___unnamed_1(%rip), %rsi
	movzbl	%al, %r8d
	callq	__ZN3std2rt19lang_start_internal17h72dc55d09e0a2397E
	movq	%rax, -56(%rbp)
	.loc	3 165 12 is_stmt 0
	movq	-56(%rbp), %rax
	movq	%rax, -8(%rbp)
	.loc	3 172 2 is_stmt 1
	addq	$64, %rsp
	popq	%rbp
	retq
Ltmp5:
Lfunc_end1:
	.cfi_endproc

	.p2align	4, 0x90
__ZN3std2rt10lang_start28_$u7b$$u7b$closure$u7d$$u7d$17h7229ee3f67b5602bE:
Lfunc_begin2:
	.loc	3 166 0
	.cfi_startproc
	pushq	%rbp
	.cfi_def_cfa_offset 16
	.cfi_offset %rbp, -16
	movq	%rsp, %rbp
	.cfi_def_cfa_register %rbp
	subq	$32, %rsp
	movq	%rdi, -16(%rbp)
Ltmp6:
	.loc	3 166 77 prologue_end
	movq	(%rdi), %rdi
	.loc	3 166 18 is_stmt 0
	callq	__ZN3std10sys_common9backtrace28__rust_begin_short_backtrace17h1a95c3b6d504955dE
	callq	__ZN54_$LT$$LP$$RP$$u20$as$u20$std..process..Termination$GT$6report17h11c08a6b7e43a0a9E
	movb	%al, -17(%rbp)
Ltmp7:
	.file	4 "/rustc/2c8cc343237b8f7d5a3c3703e3a87f2eb2c54a74/library/std/src" "process.rs"
	.loc	4 1820 9 is_stmt 1
	leaq	-17(%rbp), %rax
	movq	%rax, -8(%rbp)
Ltmp8:
	.file	5 "/rustc/2c8cc343237b8f7d5a3c3703e3a87f2eb2c54a74/library/std/src/sys/unix/process" "process_common.rs"
	.loc	5 594 9
	movzbl	-17(%rbp), %eax
Ltmp9:
	.loc	3 166 100
	addq	$32, %rsp
	popq	%rbp
	retq
Ltmp10:
Lfunc_end2:
	.cfi_endproc

	.p2align	4, 0x90
__ZN4core3fmt9Arguments6new_v117ha31ce8b6da863f1cE:
Lfunc_begin3:
	.file	6 "/rustc/2c8cc343237b8f7d5a3c3703e3a87f2eb2c54a74/library/core/src/fmt" "mod.rs"
	.loc	6 399 0
	.cfi_startproc
	pushq	%rbp
	.cfi_def_cfa_offset 16
	.cfi_offset %rbp, -16
	movq	%rsp, %rbp
	.cfi_def_cfa_register %rbp
	subq	$160, %rsp
	movq	%r8, -152(%rbp)
	movq	%rcx, -144(%rbp)
	movq	%rdx, -136(%rbp)
	movq	%rsi, -128(%rbp)
	movq	%rdi, -120(%rbp)
	movq	%rdi, -112(%rbp)
	movq	%rsi, -32(%rbp)
	movq	%rdx, -24(%rbp)
	movq	%rcx, -16(%rbp)
	movq	%r8, -8(%rbp)
Ltmp11:
	.loc	6 400 12 prologue_end
	cmpq	%r8, %rdx
	jb	LBB3_2
	.loc	6 0 12 is_stmt 0
	movq	-136(%rbp), %rax
	movq	-152(%rbp), %rcx
	.loc	6 400 56
	addq	$1, %rcx
	.loc	6 400 41
	cmpq	%rcx, %rax
	seta	%al
	.loc	6 400 12
	andb	$1, %al
	movb	%al, -97(%rbp)
	jmp	LBB3_3
LBB3_2:
	movb	$1, -97(%rbp)
LBB3_3:
	testb	$1, -97(%rbp)
	jne	LBB3_5
	.loc	6 0 12
	movq	-112(%rbp), %rax
	movq	-120(%rbp), %rcx
	movq	-152(%rbp), %rdx
	movq	-144(%rbp), %rsi
	movq	-136(%rbp), %rdi
	movq	-128(%rbp), %r8
	.loc	6 403 34 is_stmt 1
	movq	$0, -48(%rbp)
	.loc	6 403 9 is_stmt 0
	movq	%r8, 16(%rcx)
	movq	%rdi, 24(%rcx)
	movq	-48(%rbp), %r8
	movq	-40(%rbp), %rdi
	movq	%r8, (%rcx)
	movq	%rdi, 8(%rcx)
	movq	%rsi, 32(%rcx)
	movq	%rdx, 40(%rcx)
	.loc	6 404 6 is_stmt 1
	addq	$160, %rsp
	popq	%rbp
	retq
LBB3_5:
	.loc	6 401 13
	leaq	l___unnamed_2(%rip), %rsi
	leaq	l___unnamed_3(%rip), %rcx
	xorl	%eax, %eax
	movl	%eax, %r8d
	leaq	-96(%rbp), %rdi
	movq	%rdi, -160(%rbp)
	movl	$1, %edx
	callq	__ZN4core3fmt9Arguments6new_v117ha31ce8b6da863f1cE
	movq	-160(%rbp), %rdi
	leaq	l___unnamed_4(%rip), %rsi
	callq	__ZN4core9panicking9panic_fmt17h9b5d807e24bcaaedE
Ltmp12:
Lfunc_end3:
	.cfi_endproc

	.p2align	4, 0x90
__ZN4core3ops8function6FnOnce40call_once$u7b$$u7b$vtable.shim$u7d$$u7d$17hdf91fa709b48173bE:
Lfunc_begin4:
	.file	7 "/rustc/2c8cc343237b8f7d5a3c3703e3a87f2eb2c54a74/library/core/src/ops" "function.rs"
	.loc	7 250 0
	.cfi_startproc
	pushq	%rbp
	.cfi_def_cfa_offset 16
	.cfi_offset %rbp, -16
	movq	%rsp, %rbp
	.cfi_def_cfa_register %rbp
	subq	$16, %rsp
	movq	%rdi, -8(%rbp)
Ltmp13:
	.loc	7 250 5 prologue_end
	movq	(%rdi), %rdi
	callq	__ZN4core3ops8function6FnOnce9call_once17hb5f17d81598dd666E
	addq	$16, %rsp
	popq	%rbp
	retq
Ltmp14:
Lfunc_end4:
	.cfi_endproc

	.p2align	4, 0x90
__ZN4core3ops8function6FnOnce9call_once17hb5f17d81598dd666E:
Lfunc_begin5:
	.loc	7 250 0
	.cfi_startproc
	.cfi_personality 155, _rust_eh_personality
	.cfi_lsda 16, Lexception0
	pushq	%rbp
	.cfi_def_cfa_offset 16
	.cfi_offset %rbp, -16
	movq	%rsp, %rbp
	.cfi_def_cfa_register %rbp
	subq	$48, %rsp
	movq	%rdi, -32(%rbp)
Ltmp15:
	leaq	-32(%rbp), %rdi
Ltmp18:
	.loc	7 250 5 prologue_end
	callq	__ZN3std2rt10lang_start28_$u7b$$u7b$closure$u7d$$u7d$17h7229ee3f67b5602bE
Ltmp16:
	movl	%eax, -36(%rbp)
	jmp	LBB5_3
LBB5_1:
	movq	-16(%rbp), %rdi
	callq	__Unwind_Resume
LBB5_2:
Ltmp17:
	.loc	7 0 5 is_stmt 0
	movq	%rax, %rcx
	movl	%edx, %eax
	movq	%rcx, -16(%rbp)
	movl	%eax, -8(%rbp)
	jmp	LBB5_1
LBB5_3:
	movl	-36(%rbp), %eax
	.loc	7 250 5
	addq	$48, %rsp
	popq	%rbp
	retq
Ltmp19:
Lfunc_end5:
	.cfi_endproc
	.section	__TEXT,__gcc_except_tab
	.p2align	2
GCC_except_table5:
Lexception0:
	.byte	255
	.byte	255
	.byte	1
	.uleb128 Lcst_end0-Lcst_begin0
Lcst_begin0:
	.uleb128 Ltmp15-Lfunc_begin5
	.uleb128 Ltmp16-Ltmp15
	.uleb128 Ltmp17-Lfunc_begin5
	.byte	0
	.uleb128 Ltmp16-Lfunc_begin5
	.uleb128 Lfunc_end5-Ltmp16
	.byte	0
	.byte	0
Lcst_end0:
	.p2align	2

	.section	__TEXT,__text,regular,pure_instructions
	.p2align	4, 0x90
__ZN4core3ops8function6FnOnce9call_once17hf88337ceda0398e6E:
Lfunc_begin6:
	.loc	7 250 0 is_stmt 1
	.cfi_startproc
	pushq	%rbp
	.cfi_def_cfa_offset 16
	.cfi_offset %rbp, -16
	movq	%rsp, %rbp
	.cfi_def_cfa_register %rbp
	subq	$16, %rsp
	movq	%rdi, -8(%rbp)
Ltmp20:
	.loc	7 250 5 prologue_end
	callq	*%rdi
	addq	$16, %rsp
	popq	%rbp
	retq
Ltmp21:
Lfunc_end6:
	.cfi_endproc

	.p2align	4, 0x90
__ZN4core3ptr85drop_in_place$LT$std..rt..lang_start$LT$$LP$$RP$$GT$..$u7b$$u7b$closure$u7d$$u7d$$GT$17h6fcb9485abd4059aE:
Lfunc_begin7:
	.file	8 "/rustc/2c8cc343237b8f7d5a3c3703e3a87f2eb2c54a74/library/core/src/ptr" "mod.rs"
	.loc	8 490 0
	.cfi_startproc
	pushq	%rbp
	.cfi_def_cfa_offset 16
	.cfi_offset %rbp, -16
	movq	%rsp, %rbp
	.cfi_def_cfa_register %rbp
	pushq	%rax
	movq	%rdi, -8(%rbp)
Ltmp22:
	.loc	8 490 1 prologue_end
	addq	$8, %rsp
	popq	%rbp
	retq
Ltmp23:
Lfunc_end7:
	.cfi_endproc

	.p2align	4, 0x90
__ZN54_$LT$$LP$$RP$$u20$as$u20$std..process..Termination$GT$6report17h11c08a6b7e43a0a9E:
Lfunc_begin8:
	.loc	4 2182 0
	.cfi_startproc
	pushq	%rbp
	.cfi_def_cfa_offset 16
	.cfi_offset %rbp, -16
	movq	%rsp, %rbp
	.cfi_def_cfa_register %rbp
	pushq	%rax
Ltmp24:
	.loc	4 2184 6 prologue_end
	xorl	%eax, %eax
	addq	$8, %rsp
	popq	%rbp
	retq
Ltmp25:
Lfunc_end8:
	.cfi_endproc

	.p2align	4, 0x90
__ZN18build_script_build4main17hd9526eda913f24ddE:
Lfunc_begin9:
	.file	9 "/Users/natalie/.cargo/registry/src/github.com-1ecc6299db9ec823/lock_api-0.4.9" "build.rs"
	.loc	9 1 0
	.cfi_startproc
	.cfi_personality 155, _rust_eh_personality
	.cfi_lsda 16, Lexception1
	pushq	%rbp
	.cfi_def_cfa_offset 16
	.cfi_offset %rbp, -16
	movq	%rsp, %rbp
	.cfi_def_cfa_register %rbp
	subq	$208, %rsp
	leaq	-192(%rbp), %rdi
	movq	%rdi, -208(%rbp)
Ltmp36:
	.loc	9 2 15 prologue_end
	callq	__ZN7autocfg3new17h826195da96c0618eE
	movq	-208(%rbp), %rdi
Ltmp26:
	movl	$1, %esi
	movl	$61, %edx
Ltmp37:
	.loc	9 4 8
	callq	__ZN7autocfg7AutoCfg19probe_rustc_version17h442e8632859f25d8E
Ltmp27:
	movb	%al, -193(%rbp)
	jmp	LBB9_3
Ltmp38:
LBB9_1:
Ltmp33:
	.loc	9 0 8 is_stmt 0
	leaq	-192(%rbp), %rdi
	.loc	9 7 1 is_stmt 1
	callq	__ZN4core3ptr37drop_in_place$LT$autocfg..AutoCfg$GT$17h4840d40d68673402E
Ltmp34:
	jmp	LBB9_9
LBB9_2:
Ltmp32:
	.loc	9 0 1 is_stmt 0
	movq	%rax, %rcx
	movl	%edx, %eax
	movq	%rcx, -16(%rbp)
	movl	%eax, -8(%rbp)
	jmp	LBB9_1
LBB9_3:
	movb	-193(%rbp), %al
Ltmp39:
	.loc	9 4 8 is_stmt 1
	testb	$1, %al
	jne	LBB9_5
	jmp	LBB9_4
Ltmp40:
LBB9_4:
	.loc	9 7 1
	leaq	-192(%rbp), %rdi
	callq	__ZN4core3ptr37drop_in_place$LT$autocfg..AutoCfg$GT$17h4840d40d68673402E
	.loc	9 7 2 is_stmt 0
	addq	$208, %rsp
	popq	%rbp
	retq
LBB9_5:
Ltmp28:
Ltmp41:
	.loc	9 5 9 is_stmt 1
	leaq	l___unnamed_5(%rip), %rsi
	leaq	l___unnamed_3(%rip), %rcx
	xorl	%eax, %eax
	movl	%eax, %r8d
	leaq	-64(%rbp), %rdi
	movl	$1, %edx
	callq	__ZN4core3fmt9Arguments6new_v117ha31ce8b6da863f1cE
Ltmp29:
	jmp	LBB9_6
LBB9_6:
Ltmp30:
	.loc	9 0 9 is_stmt 0
	leaq	-64(%rbp), %rdi
	.loc	9 5 9
	callq	__ZN3std2io5stdio6_print17ha0d536e53b83a5ccE
Ltmp31:
	jmp	LBB9_7
LBB9_7:
	jmp	LBB9_4
Ltmp42:
LBB9_8:
Ltmp35:
	.loc	9 1 1 is_stmt 1
	callq	__ZN4core9panicking19panic_cannot_unwind17h1fbca7e1d7f56ae1E
LBB9_9:
	movq	-16(%rbp), %rdi
	callq	__Unwind_Resume
Ltmp43:
Lfunc_end9:
	.cfi_endproc
	.section	__TEXT,__gcc_except_tab
	.p2align	2
GCC_except_table9:
Lexception1:
	.byte	255
	.byte	255
	.byte	1
	.uleb128 Lcst_end1-Lcst_begin1
Lcst_begin1:
	.uleb128 Lfunc_begin9-Lfunc_begin9
	.uleb128 Ltmp26-Lfunc_begin9
	.byte	0
	.byte	0
	.uleb128 Ltmp26-Lfunc_begin9
	.uleb128 Ltmp27-Ltmp26
	.uleb128 Ltmp32-Lfunc_begin9
	.byte	0
	.uleb128 Ltmp33-Lfunc_begin9
	.uleb128 Ltmp34-Ltmp33
	.uleb128 Ltmp35-Lfunc_begin9
	.byte	0
	.uleb128 Ltmp34-Lfunc_begin9
	.uleb128 Ltmp28-Ltmp34
	.byte	0
	.byte	0
	.uleb128 Ltmp28-Lfunc_begin9
	.uleb128 Ltmp31-Ltmp28
	.uleb128 Ltmp32-Lfunc_begin9
	.byte	0
	.uleb128 Ltmp31-Lfunc_begin9
	.uleb128 Lfunc_end9-Ltmp31
	.byte	0
	.byte	0
Lcst_end1:
	.p2align	2

	.section	__TEXT,__text,regular,pure_instructions
	.globl	_main
	.p2align	4, 0x90
_main:
Lfunc_begin10:
	.cfi_startproc
	pushq	%rbp
	.cfi_def_cfa_offset 16
	.cfi_offset %rbp, -16
	movq	%rsp, %rbp
	.cfi_def_cfa_register %rbp
	movq	%rsi, %rdx
	movslq	%edi, %rsi
	leaq	__ZN18build_script_build4main17hd9526eda913f24ddE(%rip), %rdi
	xorl	%ecx, %ecx
	callq	__ZN3std2rt10lang_start17had5a4d5190b08c8fE
	popq	%rbp
	retq
Lfunc_end10:
	.cfi_endproc

	.section	__DATA,__const
	.p2align	3
l___unnamed_1:
	.quad	__ZN4core3ptr85drop_in_place$LT$std..rt..lang_start$LT$$LP$$RP$$GT$..$u7b$$u7b$closure$u7d$$u7d$$GT$17h6fcb9485abd4059aE
	.asciz	"\b\000\000\000\000\000\000\000\b\000\000\000\000\000\000"
	.quad	__ZN4core3ops8function6FnOnce40call_once$u7b$$u7b$vtable.shim$u7d$$u7d$17hdf91fa709b48173bE
	.quad	__ZN3std2rt10lang_start28_$u7b$$u7b$closure$u7d$$u7d$17h7229ee3f67b5602bE
	.quad	__ZN3std2rt10lang_start28_$u7b$$u7b$closure$u7d$$u7d$17h7229ee3f67b5602bE

	.section	__TEXT,__const
l___unnamed_6:
	.ascii	"invalid args"

	.section	__DATA,__const
	.p2align	3
l___unnamed_2:
	.quad	l___unnamed_6
	.asciz	"\f\000\000\000\000\000\000"

	.section	__TEXT,__const
	.p2align	3
l___unnamed_3:
	.byte	0

l___unnamed_7:
	.ascii	"/rustc/2c8cc343237b8f7d5a3c3703e3a87f2eb2c54a74/library/core/src/fmt/mod.rs"

	.section	__DATA,__const
	.p2align	3
l___unnamed_4:
	.quad	l___unnamed_7
	.asciz	"K\000\000\000\000\000\000\000\221\001\000\000\r\000\000"

	.section	__TEXT,__const
l___unnamed_8:
	.ascii	"cargo:rustc-cfg=has_const_fn_trait_bound\n"

	.section	__DATA,__const
	.p2align	3
l___unnamed_5:
	.quad	l___unnamed_8
	.asciz	")\000\000\000\000\000\000"

	.section	__DATA,__const
Lsec_end0:
	.section	__TEXT,__text,regular,pure_instructions
Lsec_end1: